; Listing generated by Microsoft (R) Optimizing Compiler Version 13.00.9466 

	TITLE	CBillBoard.cpp
	.386P
include listing.inc
if @Version gt 510
.model FLAT
else
_TEXT	SEGMENT PARA USE32 PUBLIC 'CODE'
_TEXT	ENDS
_DATA	SEGMENT DWORD USE32 PUBLIC 'DATA'
_DATA	ENDS
CONST	SEGMENT DWORD USE32 PUBLIC 'CONST'
CONST	ENDS
_BSS	SEGMENT DWORD USE32 PUBLIC 'BSS'
_BSS	ENDS
$$SYMBOLS	SEGMENT BYTE USE32 'DEBSYM'
$$SYMBOLS	ENDS
$$TYPES	SEGMENT BYTE USE32 'DEBTYP'
$$TYPES	ENDS
_TLS	SEGMENT DWORD USE32 PUBLIC 'TLS'
_TLS	ENDS
;	COMDAT ??_C@_0EM@BJAIGIIK@c?3?2documents?5and?5settings?2dom?2my@
CONST	SEGMENT DWORD USE32 PUBLIC 'CONST'
CONST	ENDS
;	COMDAT ??_C@_0M@NKNCPJJD@?$CBFAILED?$CIhr?$CJ?$AA@
CONST	SEGMENT DWORD USE32 PUBLIC 'CONST'
CONST	ENDS
;	COMDAT ??_C@_0CC@CPDCFFMC@CBillboard?3?3RestoreDeviceObjects@
CONST	SEGMENT DWORD USE32 PUBLIC 'CONST'
CONST	ENDS
;	COMDAT ??_C@_08OFPOHIDN@hr?$DN?$DNS_OK?$AA@
CONST	SEGMENT DWORD USE32 PUBLIC 'CONST'
CONST	ENDS
;	COMDAT _IsEqualGUID
_TEXT	SEGMENT PARA USE32 PUBLIC 'CODE'
_TEXT	ENDS
;	COMDAT _==
_TEXT	SEGMENT PARA USE32 PUBLIC 'CODE'
_TEXT	ENDS
;	COMDAT _sqrtf
_TEXT	SEGMENT PARA USE32 PUBLIC 'CODE'
_TEXT	ENDS
;	COMDAT ??0D3DXVECTOR3@@QAE@XZ
_TEXT	SEGMENT PARA USE32 PUBLIC 'CODE'
_TEXT	ENDS
;	COMDAT ??0D3DXMATRIX@@QAE@XZ
_TEXT	SEGMENT PARA USE32 PUBLIC 'CODE'
_TEXT	ENDS
;	COMDAT ??0D3DXQUATERNION@@QAE@XZ
_TEXT	SEGMENT PARA USE32 PUBLIC 'CODE'
_TEXT	ENDS
;	COMDAT ??0D3DXVECTOR2@@QAE@MM@Z
_TEXT	SEGMENT PARA USE32 PUBLIC 'CODE'
_TEXT	ENDS
;	COMDAT ??0D3DXVECTOR3@@QAE@MMM@Z
_TEXT	SEGMENT PARA USE32 PUBLIC 'CODE'
_TEXT	ENDS
;	COMDAT ??GD3DXVECTOR3@@QBE?AU0@ABU0@@Z
_TEXT	SEGMENT PARA USE32 PUBLIC 'CODE'
_TEXT	ENDS
;	COMDAT ??D@YA?AUD3DXVECTOR3@@MABU0@@Z
_TEXT	SEGMENT PARA USE32 PUBLIC 'CODE'
_TEXT	ENDS
;	COMDAT ??0D3DXVECTOR4@@QAE@MMMM@Z
_TEXT	SEGMENT PARA USE32 PUBLIC 'CODE'
_TEXT	ENDS
;	COMDAT ??0D3DXMATRIX@@QAE@PBM@Z
_TEXT	SEGMENT PARA USE32 PUBLIC 'CODE'
_TEXT	ENDS
;	COMDAT ??0D3DXMATRIX@@QAE@ABU_D3DMATRIX@@@Z
_TEXT	SEGMENT PARA USE32 PUBLIC 'CODE'
_TEXT	ENDS
;	COMDAT ??0D3DXMATRIX@@QAE@MMMMMMMMMMMMMMMM@Z
_TEXT	SEGMENT PARA USE32 PUBLIC 'CODE'
_TEXT	ENDS
;	COMDAT ??0D3DXQUATERNION@@QAE@MMMM@Z
_TEXT	SEGMENT PARA USE32 PUBLIC 'CODE'
_TEXT	ENDS
;	COMDAT ??0D3DXPLANE@@QAE@MMMM@Z
_TEXT	SEGMENT PARA USE32 PUBLIC 'CODE'
_TEXT	ENDS
;	COMDAT ??0D3DXCOLOR@@QAE@MMMM@Z
_TEXT	SEGMENT PARA USE32 PUBLIC 'CODE'
_TEXT	ENDS
;	COMDAT ??BD3DXCOLOR@@QBEKXZ
_TEXT	SEGMENT PARA USE32 PUBLIC 'CODE'
_TEXT	ENDS
;	COMDAT ?D3DXVec3Dot@@YAMPBUD3DXVECTOR3@@0@Z
_TEXT	SEGMENT PARA USE32 PUBLIC 'CODE'
_TEXT	ENDS
;	COMDAT ?D3DXVec3Cross@@YAPAUD3DXVECTOR3@@PAU1@PBU1@1@Z
_TEXT	SEGMENT PARA USE32 PUBLIC 'CODE'
_TEXT	ENDS
;	COMDAT ??0COLOREDVERTEX@@QAE@XZ
_TEXT	SEGMENT PARA USE32 PUBLIC 'CODE'
_TEXT	ENDS
;	COMDAT ??0COLOREDVERTEX@@QAE@MMMMMKK@Z
_TEXT	SEGMENT PARA USE32 PUBLIC 'CODE'
_TEXT	ENDS
;	COMDAT ??0CBillboard@@QAE@MMHPAUD3DXCOLOR@@@Z
_TEXT	SEGMENT PARA USE32 PUBLIC 'CODE'
_TEXT	ENDS
;	COMDAT ??_H@YGXPAXIHP6EPAX0@Z@Z
_TEXT	SEGMENT PARA USE32 PUBLIC 'CODE'
_TEXT	ENDS
;	COMDAT ??1CBillboard@@QAE@XZ
_TEXT	SEGMENT PARA USE32 PUBLIC 'CODE'
_TEXT	ENDS
;	COMDAT ?MakeRenderData@CBillboard@@QAEJPAUIDirect3DDevice8@@@Z
_TEXT	SEGMENT PARA USE32 PUBLIC 'CODE'
_TEXT	ENDS
;	COMDAT ?RestoreDeviceObjects@CBillboard@@QAEJQAUIDirect3DDevice8@@@Z
_TEXT	SEGMENT PARA USE32 PUBLIC 'CODE'
_TEXT	ENDS
;	COMDAT ?InvalidateDeviceObjects@CBillboard@@QAEJXZ
_TEXT	SEGMENT PARA USE32 PUBLIC 'CODE'
_TEXT	ENDS
;	COMDAT ?Render@CBillboard@@QAEJPAUIDirect3DDevice8@@PAKPAUD3DXVECTOR3@@PAVCCamera@@MH@Z
_TEXT	SEGMENT PARA USE32 PUBLIC 'CODE'
_TEXT	ENDS
;	COMDAT ?BillboardLookAt@CBillboard@@QAEXPAUD3DXMATRIX@@PBUD3DXVECTOR3@@11@Z
_TEXT	SEGMENT PARA USE32 PUBLIC 'CODE'
_TEXT	ENDS
;	COMDAT ?__LINE__Var@?1??RestoreDeviceObjects@CBillboard@@QAEJQAUIDirect3DDevice8@@@Z@4JA
_DATA	SEGMENT DWORD USE32 PUBLIC 'DATA'
_DATA	ENDS
;	COMDAT ?__LINE__Var@?1??MakeRenderData@CBillboard@@QAEJPAUIDirect3DDevice8@@@Z@4JA
_DATA	SEGMENT DWORD USE32 PUBLIC 'DATA'
_DATA	ENDS
FLAT	GROUP _DATA, CONST, _BSS
	ASSUME	CS: FLAT, DS: FLAT, SS: FLAT
endif

INCLUDELIB LIBCMTD
INCLUDELIB OLDNAMES

PUBLIC	??_H@YGXPAXIHP6EPAX0@Z@Z			; `vector constructor iterator'
PUBLIC	__real@40000000
PUBLIC	??0D3DXCOLOR@@QAE@MMMM@Z			; D3DXCOLOR::D3DXCOLOR
PUBLIC	??BD3DXCOLOR@@QBEKXZ				; D3DXCOLOR::operator unsigned long
PUBLIC	??0COLOREDVERTEX@@QAE@XZ			; COLOREDVERTEX::COLOREDVERTEX
PUBLIC	??0COLOREDVERTEX@@QAE@MMMMMKK@Z			; COLOREDVERTEX::COLOREDVERTEX
PUBLIC	??0CBillboard@@QAE@MMHPAUD3DXCOLOR@@@Z		; CBillboard::CBillboard
PUBLIC	??0D3DXVECTOR3@@QAE@XZ				; D3DXVECTOR3::D3DXVECTOR3
PUBLIC	??0D3DXVECTOR3@@QAE@MMM@Z			; D3DXVECTOR3::D3DXVECTOR3
EXTRN	?D3DUtil_InitMaterial@@YAXAAU_D3DMATERIAL8@@MMMM@Z:NEAR ; D3DUtil_InitMaterial
EXTRN	__RTC_InitBase:NEAR
EXTRN	__RTC_Shutdown:NEAR
EXTRN	__RTC_CheckEsp:NEAR
EXTRN	__fltused:NEAR
;	COMDAT rtc$IMZ
; File c:\documents and settings\dom\my documents\_dev\ae\xlr8a\x7g\cbillboard.cpp
rtc$IMZ	SEGMENT
__RTC_InitBase.rtc$IMZ DD FLAT:__RTC_InitBase
rtc$IMZ	ENDS
;	COMDAT rtc$TMZ
rtc$TMZ	SEGMENT
__RTC_Shutdown.rtc$TMZ DD FLAT:__RTC_Shutdown
rtc$TMZ	ENDS
;	COMDAT __real@40000000
CONST	SEGMENT
__real@40000000 DD 040000000r			; 2
; Function compile flags: /Odt /RTCsu /ZI
CONST	ENDS
;	COMDAT ??0CBillboard@@QAE@MMHPAUD3DXCOLOR@@@Z
_TEXT	SEGMENT
$T85051 = -772
$T85050 = -748
$T85049 = -712
$T85048 = -688
$T85047 = -652
$T85046 = -628
$T85045 = -592
$T85044 = -568
$T85043 = -532
$T85042 = -508
$T85041 = -472
$T85040 = -448
$T85039 = -412
$T85038 = -388
$T85037 = -352
$T85036 = -328
$T85035 = -292
$T85034 = -268
$T85033 = -244
_specular$ = -32
_color$ = -20
_this$ = -8
_fHeight$ = 8
_fWidth$ = 12
_bBuildFlat$ = 16
_pMaterialColor$ = 20
??0CBillboard@@QAE@MMHPAUD3DXCOLOR@@@Z PROC NEAR	; CBillboard::CBillboard, COMDAT
; _this$ = ecx

; 14   : 	{

  00000	55		 push	 ebp
  00001	8b ec		 mov	 ebp, esp
  00003	81 ec 08 03 00
	00		 sub	 esp, 776		; 00000308H
  00009	53		 push	 ebx
  0000a	56		 push	 esi
  0000b	57		 push	 edi
  0000c	51		 push	 ecx
  0000d	8d bd f8 fc ff
	ff		 lea	 edi, DWORD PTR [ebp-776]
  00013	b9 c2 00 00 00	 mov	 ecx, 194		; 000000c2H
  00018	b8 cc cc cc cc	 mov	 eax, -858993460		; ccccccccH
  0001d	f3 ab		 rep stosd
  0001f	59		 pop	 ecx
  00020	89 4d f8	 mov	 DWORD PTR _this$[ebp], ecx
  00023	8b 4d f8	 mov	 ecx, DWORD PTR _this$[ebp]
  00026	e8 00 00 00 00	 call	 ??0D3DXVECTOR3@@QAE@XZ	; D3DXVECTOR3::D3DXVECTOR3
  0002b	68 00 00 00 00	 push	 OFFSET FLAT:??0COLOREDVERTEX@@QAE@XZ ; COLOREDVERTEX::COLOREDVERTEX
  00030	6a 04		 push	 4
  00032	6a 1c		 push	 28			; 0000001cH
  00034	8b 45 f8	 mov	 eax, DWORD PTR _this$[ebp]
  00037	83 c0 14	 add	 eax, 20			; 00000014H
  0003a	50		 push	 eax
  0003b	e8 00 00 00 00	 call	 ??_H@YGXPAXIHP6EPAX0@Z@Z

; 15   : 		m_vCenter = xVec3(0.0f, 0.0f, 0.0f) ;

  00040	6a 00		 push	 0
  00042	6a 00		 push	 0
  00044	6a 00		 push	 0
  00046	8d 8d 0c ff ff
	ff		 lea	 ecx, DWORD PTR $T85033[ebp]
  0004c	e8 00 00 00 00	 call	 ??0D3DXVECTOR3@@QAE@MMM@Z ; D3DXVECTOR3::D3DXVECTOR3
  00051	8b 4d f8	 mov	 ecx, DWORD PTR _this$[ebp]
  00054	8b 10		 mov	 edx, DWORD PTR [eax]
  00056	89 11		 mov	 DWORD PTR [ecx], edx
  00058	8b 50 04	 mov	 edx, DWORD PTR [eax+4]
  0005b	89 51 04	 mov	 DWORD PTR [ecx+4], edx
  0005e	8b 40 08	 mov	 eax, DWORD PTR [eax+8]
  00061	89 41 08	 mov	 DWORD PTR [ecx+8], eax

; 16   : 		m_fHeight = fHeight ;

  00064	8b 45 f8	 mov	 eax, DWORD PTR _this$[ebp]
  00067	8b 4d 08	 mov	 ecx, DWORD PTR _fHeight$[ebp]
  0006a	89 48 0c	 mov	 DWORD PTR [eax+12], ecx

; 17   : 		m_fWidth = fWidth ;

  0006d	8b 45 f8	 mov	 eax, DWORD PTR _this$[ebp]
  00070	8b 4d 0c	 mov	 ecx, DWORD PTR _fWidth$[ebp]
  00073	89 48 10	 mov	 DWORD PTR [eax+16], ecx

; 18   : 
; 19   : 		DWORD color = D3DXCOLOR( 1.0f, 1.0f, 1.0f, 1.0f );

  00076	68 00 00 80 3f	 push	 1065353216		; 3f800000H
  0007b	68 00 00 80 3f	 push	 1065353216		; 3f800000H
  00080	68 00 00 80 3f	 push	 1065353216		; 3f800000H
  00085	68 00 00 80 3f	 push	 1065353216		; 3f800000H
  0008a	8d 8d f4 fe ff
	ff		 lea	 ecx, DWORD PTR $T85034[ebp]
  00090	e8 00 00 00 00	 call	 ??0D3DXCOLOR@@QAE@MMMM@Z ; D3DXCOLOR::D3DXCOLOR
  00095	8b c8		 mov	 ecx, eax
  00097	e8 00 00 00 00	 call	 ??BD3DXCOLOR@@QBEKXZ	; D3DXCOLOR::operator unsigned long
  0009c	89 45 ec	 mov	 DWORD PTR _color$[ebp], eax

; 20   : 		DWORD specular = D3DXCOLOR( 1.0f, 1.0f, 1.0f, 1.0f );

  0009f	68 00 00 80 3f	 push	 1065353216		; 3f800000H
  000a4	68 00 00 80 3f	 push	 1065353216		; 3f800000H
  000a9	68 00 00 80 3f	 push	 1065353216		; 3f800000H
  000ae	68 00 00 80 3f	 push	 1065353216		; 3f800000H
  000b3	8d 8d dc fe ff
	ff		 lea	 ecx, DWORD PTR $T85035[ebp]
  000b9	e8 00 00 00 00	 call	 ??0D3DXCOLOR@@QAE@MMMM@Z ; D3DXCOLOR::D3DXCOLOR
  000be	8b c8		 mov	 ecx, eax
  000c0	e8 00 00 00 00	 call	 ??BD3DXCOLOR@@QBEKXZ	; D3DXCOLOR::operator unsigned long
  000c5	89 45 e0	 mov	 DWORD PTR _specular$[ebp], eax

; 21   : 		if( !bBuildFlat )

  000c8	83 7d 10 00	 cmp	 DWORD PTR _bBuildFlat$[ebp], 0
  000cc	0f 85 e5 01 00
	00		 jne	 $L84893

; 22   : 		{
; 23   : 			m_fvfVerts[0] = COLOREDVERTEX(m_vCenter.x - fWidth/2, m_vCenter.y - fHeight/2, m_vCenter.z, 0.0f, 0.0f, D3DXCOLOR( 1.0f, 1.0f, 1.0f, 1.0f ), specular) ;

  000d2	8b 45 e0	 mov	 eax, DWORD PTR _specular$[ebp]
  000d5	50		 push	 eax
  000d6	68 00 00 80 3f	 push	 1065353216		; 3f800000H
  000db	68 00 00 80 3f	 push	 1065353216		; 3f800000H
  000e0	68 00 00 80 3f	 push	 1065353216		; 3f800000H
  000e5	68 00 00 80 3f	 push	 1065353216		; 3f800000H
  000ea	8d 8d a0 fe ff
	ff		 lea	 ecx, DWORD PTR $T85037[ebp]
  000f0	e8 00 00 00 00	 call	 ??0D3DXCOLOR@@QAE@MMMM@Z ; D3DXCOLOR::D3DXCOLOR
  000f5	8b c8		 mov	 ecx, eax
  000f7	e8 00 00 00 00	 call	 ??BD3DXCOLOR@@QBEKXZ	; D3DXCOLOR::operator unsigned long
  000fc	50		 push	 eax
  000fd	6a 00		 push	 0
  000ff	6a 00		 push	 0
  00101	8b 4d f8	 mov	 ecx, DWORD PTR _this$[ebp]
  00104	8b 51 08	 mov	 edx, DWORD PTR [ecx+8]
  00107	52		 push	 edx
  00108	d9 45 08	 fld	 DWORD PTR _fHeight$[ebp]
  0010b	d8 35 00 00 00
	00		 fdiv	 DWORD PTR __real@40000000
  00111	8b 45 f8	 mov	 eax, DWORD PTR _this$[ebp]
  00114	d8 68 04	 fsubr	 DWORD PTR [eax+4]
  00117	51		 push	 ecx
  00118	d9 1c 24	 fstp	 DWORD PTR [esp]
  0011b	d9 45 0c	 fld	 DWORD PTR _fWidth$[ebp]
  0011e	d8 35 00 00 00
	00		 fdiv	 DWORD PTR __real@40000000
  00124	8b 4d f8	 mov	 ecx, DWORD PTR _this$[ebp]
  00127	d8 29		 fsubr	 DWORD PTR [ecx]
  00129	51		 push	 ecx
  0012a	d9 1c 24	 fstp	 DWORD PTR [esp]
  0012d	8d 8d b8 fe ff
	ff		 lea	 ecx, DWORD PTR $T85036[ebp]
  00133	e8 00 00 00 00	 call	 ??0COLOREDVERTEX@@QAE@MMMMMKK@Z ; COLOREDVERTEX::COLOREDVERTEX
  00138	8b 7d f8	 mov	 edi, DWORD PTR _this$[ebp]
  0013b	83 c7 14	 add	 edi, 20			; 00000014H
  0013e	b9 07 00 00 00	 mov	 ecx, 7
  00143	8b f0		 mov	 esi, eax
  00145	f3 a5		 rep movsd

; 24   : 			m_fvfVerts[1] = COLOREDVERTEX(m_vCenter.x + fWidth/2, m_vCenter.y - fHeight/2, m_vCenter.z, 0.0f, 1.0f, D3DXCOLOR( 1.0f, 1.0f, 1.0f, 1.0f ), specular) ;

  00147	8b 45 e0	 mov	 eax, DWORD PTR _specular$[ebp]
  0014a	50		 push	 eax
  0014b	68 00 00 80 3f	 push	 1065353216		; 3f800000H
  00150	68 00 00 80 3f	 push	 1065353216		; 3f800000H
  00155	68 00 00 80 3f	 push	 1065353216		; 3f800000H
  0015a	68 00 00 80 3f	 push	 1065353216		; 3f800000H
  0015f	8d 8d 64 fe ff
	ff		 lea	 ecx, DWORD PTR $T85039[ebp]
  00165	e8 00 00 00 00	 call	 ??0D3DXCOLOR@@QAE@MMMM@Z ; D3DXCOLOR::D3DXCOLOR
  0016a	8b c8		 mov	 ecx, eax
  0016c	e8 00 00 00 00	 call	 ??BD3DXCOLOR@@QBEKXZ	; D3DXCOLOR::operator unsigned long
  00171	50		 push	 eax
  00172	68 00 00 80 3f	 push	 1065353216		; 3f800000H
  00177	6a 00		 push	 0
  00179	8b 4d f8	 mov	 ecx, DWORD PTR _this$[ebp]
  0017c	8b 51 08	 mov	 edx, DWORD PTR [ecx+8]
  0017f	52		 push	 edx
  00180	d9 45 08	 fld	 DWORD PTR _fHeight$[ebp]
  00183	d8 35 00 00 00
	00		 fdiv	 DWORD PTR __real@40000000
  00189	8b 45 f8	 mov	 eax, DWORD PTR _this$[ebp]
  0018c	d8 68 04	 fsubr	 DWORD PTR [eax+4]
  0018f	51		 push	 ecx
  00190	d9 1c 24	 fstp	 DWORD PTR [esp]
  00193	d9 45 0c	 fld	 DWORD PTR _fWidth$[ebp]
  00196	d8 35 00 00 00
	00		 fdiv	 DWORD PTR __real@40000000
  0019c	8b 4d f8	 mov	 ecx, DWORD PTR _this$[ebp]
  0019f	d8 01		 fadd	 DWORD PTR [ecx]
  001a1	51		 push	 ecx
  001a2	d9 1c 24	 fstp	 DWORD PTR [esp]
  001a5	8d 8d 7c fe ff
	ff		 lea	 ecx, DWORD PTR $T85038[ebp]
  001ab	e8 00 00 00 00	 call	 ??0COLOREDVERTEX@@QAE@MMMMMKK@Z ; COLOREDVERTEX::COLOREDVERTEX
  001b0	8b 7d f8	 mov	 edi, DWORD PTR _this$[ebp]
  001b3	83 c7 30	 add	 edi, 48			; 00000030H
  001b6	b9 07 00 00 00	 mov	 ecx, 7
  001bb	8b f0		 mov	 esi, eax
  001bd	f3 a5		 rep movsd

; 25   : 			m_fvfVerts[2] = COLOREDVERTEX(m_vCenter.x - fWidth/2, m_vCenter.y + fHeight/2, m_vCenter.z, 1.0f, 0.0f, D3DXCOLOR( 1.0f, 1.0f, 1.0f, 1.0f ), specular) ;

  001bf	8b 45 e0	 mov	 eax, DWORD PTR _specular$[ebp]
  001c2	50		 push	 eax
  001c3	68 00 00 80 3f	 push	 1065353216		; 3f800000H
  001c8	68 00 00 80 3f	 push	 1065353216		; 3f800000H
  001cd	68 00 00 80 3f	 push	 1065353216		; 3f800000H
  001d2	68 00 00 80 3f	 push	 1065353216		; 3f800000H
  001d7	8d 8d 28 fe ff
	ff		 lea	 ecx, DWORD PTR $T85041[ebp]
  001dd	e8 00 00 00 00	 call	 ??0D3DXCOLOR@@QAE@MMMM@Z ; D3DXCOLOR::D3DXCOLOR
  001e2	8b c8		 mov	 ecx, eax
  001e4	e8 00 00 00 00	 call	 ??BD3DXCOLOR@@QBEKXZ	; D3DXCOLOR::operator unsigned long
  001e9	50		 push	 eax
  001ea	6a 00		 push	 0
  001ec	68 00 00 80 3f	 push	 1065353216		; 3f800000H
  001f1	8b 4d f8	 mov	 ecx, DWORD PTR _this$[ebp]
  001f4	8b 51 08	 mov	 edx, DWORD PTR [ecx+8]
  001f7	52		 push	 edx
  001f8	d9 45 08	 fld	 DWORD PTR _fHeight$[ebp]
  001fb	d8 35 00 00 00
	00		 fdiv	 DWORD PTR __real@40000000
  00201	8b 45 f8	 mov	 eax, DWORD PTR _this$[ebp]
  00204	d8 40 04	 fadd	 DWORD PTR [eax+4]
  00207	51		 push	 ecx
  00208	d9 1c 24	 fstp	 DWORD PTR [esp]
  0020b	d9 45 0c	 fld	 DWORD PTR _fWidth$[ebp]
  0020e	d8 35 00 00 00
	00		 fdiv	 DWORD PTR __real@40000000
  00214	8b 4d f8	 mov	 ecx, DWORD PTR _this$[ebp]
  00217	d8 29		 fsubr	 DWORD PTR [ecx]
  00219	51		 push	 ecx
  0021a	d9 1c 24	 fstp	 DWORD PTR [esp]
  0021d	8d 8d 40 fe ff
	ff		 lea	 ecx, DWORD PTR $T85040[ebp]
  00223	e8 00 00 00 00	 call	 ??0COLOREDVERTEX@@QAE@MMMMMKK@Z ; COLOREDVERTEX::COLOREDVERTEX
  00228	8b 7d f8	 mov	 edi, DWORD PTR _this$[ebp]
  0022b	83 c7 4c	 add	 edi, 76			; 0000004cH
  0022e	b9 07 00 00 00	 mov	 ecx, 7
  00233	8b f0		 mov	 esi, eax
  00235	f3 a5		 rep movsd

; 26   : 			m_fvfVerts[3] = COLOREDVERTEX(m_vCenter.x + fWidth/2, m_vCenter.y + fHeight/2, m_vCenter.z, 1.0f, 1.0f, D3DXCOLOR( 1.0f, 1.0f, 1.0f, 1.0f ), specular) ;

  00237	8b 45 e0	 mov	 eax, DWORD PTR _specular$[ebp]
  0023a	50		 push	 eax
  0023b	68 00 00 80 3f	 push	 1065353216		; 3f800000H
  00240	68 00 00 80 3f	 push	 1065353216		; 3f800000H
  00245	68 00 00 80 3f	 push	 1065353216		; 3f800000H
  0024a	68 00 00 80 3f	 push	 1065353216		; 3f800000H
  0024f	8d 8d ec fd ff
	ff		 lea	 ecx, DWORD PTR $T85043[ebp]
  00255	e8 00 00 00 00	 call	 ??0D3DXCOLOR@@QAE@MMMM@Z ; D3DXCOLOR::D3DXCOLOR
  0025a	8b c8		 mov	 ecx, eax
  0025c	e8 00 00 00 00	 call	 ??BD3DXCOLOR@@QBEKXZ	; D3DXCOLOR::operator unsigned long
  00261	50		 push	 eax
  00262	68 00 00 80 3f	 push	 1065353216		; 3f800000H
  00267	68 00 00 80 3f	 push	 1065353216		; 3f800000H
  0026c	8b 4d f8	 mov	 ecx, DWORD PTR _this$[ebp]
  0026f	8b 51 08	 mov	 edx, DWORD PTR [ecx+8]
  00272	52		 push	 edx
  00273	d9 45 08	 fld	 DWORD PTR _fHeight$[ebp]
  00276	d8 35 00 00 00
	00		 fdiv	 DWORD PTR __real@40000000
  0027c	8b 45 f8	 mov	 eax, DWORD PTR _this$[ebp]
  0027f	d8 40 04	 fadd	 DWORD PTR [eax+4]
  00282	51		 push	 ecx
  00283	d9 1c 24	 fstp	 DWORD PTR [esp]
  00286	d9 45 0c	 fld	 DWORD PTR _fWidth$[ebp]
  00289	d8 35 00 00 00
	00		 fdiv	 DWORD PTR __real@40000000
  0028f	8b 4d f8	 mov	 ecx, DWORD PTR _this$[ebp]
  00292	d8 01		 fadd	 DWORD PTR [ecx]
  00294	51		 push	 ecx
  00295	d9 1c 24	 fstp	 DWORD PTR [esp]
  00298	8d 8d 04 fe ff
	ff		 lea	 ecx, DWORD PTR $T85042[ebp]
  0029e	e8 00 00 00 00	 call	 ??0COLOREDVERTEX@@QAE@MMMMMKK@Z ; COLOREDVERTEX::COLOREDVERTEX
  002a3	8b 7d f8	 mov	 edi, DWORD PTR _this$[ebp]
  002a6	83 c7 68	 add	 edi, 104		; 00000068H
  002a9	b9 07 00 00 00	 mov	 ecx, 7
  002ae	8b f0		 mov	 esi, eax
  002b0	f3 a5		 rep movsd

; 27   : 		}
; 28   : 		else

  002b2	e9 e0 01 00 00	 jmp	 $L84902
$L84893:

; 29   : 		{
; 30   : 			m_fvfVerts[0] = COLOREDVERTEX(m_vCenter.x - fWidth/2, m_vCenter.y, m_vCenter.z - fHeight/2, 0.0f, 0.0f, D3DXCOLOR( 1.0f, 1.0f, 1.0f, 1.0f ), specular) ;

  002b7	8b 45 e0	 mov	 eax, DWORD PTR _specular$[ebp]
  002ba	50		 push	 eax
  002bb	68 00 00 80 3f	 push	 1065353216		; 3f800000H
  002c0	68 00 00 80 3f	 push	 1065353216		; 3f800000H
  002c5	68 00 00 80 3f	 push	 1065353216		; 3f800000H
  002ca	68 00 00 80 3f	 push	 1065353216		; 3f800000H
  002cf	8d 8d b0 fd ff
	ff		 lea	 ecx, DWORD PTR $T85045[ebp]
  002d5	e8 00 00 00 00	 call	 ??0D3DXCOLOR@@QAE@MMMM@Z ; D3DXCOLOR::D3DXCOLOR
  002da	8b c8		 mov	 ecx, eax
  002dc	e8 00 00 00 00	 call	 ??BD3DXCOLOR@@QBEKXZ	; D3DXCOLOR::operator unsigned long
  002e1	50		 push	 eax
  002e2	6a 00		 push	 0
  002e4	6a 00		 push	 0
  002e6	d9 45 08	 fld	 DWORD PTR _fHeight$[ebp]
  002e9	d8 35 00 00 00
	00		 fdiv	 DWORD PTR __real@40000000
  002ef	8b 4d f8	 mov	 ecx, DWORD PTR _this$[ebp]
  002f2	d8 69 08	 fsubr	 DWORD PTR [ecx+8]
  002f5	51		 push	 ecx
  002f6	d9 1c 24	 fstp	 DWORD PTR [esp]
  002f9	8b 55 f8	 mov	 edx, DWORD PTR _this$[ebp]
  002fc	8b 42 04	 mov	 eax, DWORD PTR [edx+4]
  002ff	50		 push	 eax
  00300	d9 45 0c	 fld	 DWORD PTR _fWidth$[ebp]
  00303	d8 35 00 00 00
	00		 fdiv	 DWORD PTR __real@40000000
  00309	8b 4d f8	 mov	 ecx, DWORD PTR _this$[ebp]
  0030c	d8 29		 fsubr	 DWORD PTR [ecx]
  0030e	51		 push	 ecx
  0030f	d9 1c 24	 fstp	 DWORD PTR [esp]
  00312	8d 8d c8 fd ff
	ff		 lea	 ecx, DWORD PTR $T85044[ebp]
  00318	e8 00 00 00 00	 call	 ??0COLOREDVERTEX@@QAE@MMMMMKK@Z ; COLOREDVERTEX::COLOREDVERTEX
  0031d	8b 7d f8	 mov	 edi, DWORD PTR _this$[ebp]
  00320	83 c7 14	 add	 edi, 20			; 00000014H
  00323	b9 07 00 00 00	 mov	 ecx, 7
  00328	8b f0		 mov	 esi, eax
  0032a	f3 a5		 rep movsd

; 31   : 			m_fvfVerts[1] = COLOREDVERTEX(m_vCenter.x + fWidth/2, m_vCenter.y, m_vCenter.z - fHeight/2, 0.0f, 1.0f, D3DXCOLOR( 1.0f, 1.0f, 1.0f, 1.0f ), specular) ;

  0032c	8b 45 e0	 mov	 eax, DWORD PTR _specular$[ebp]
  0032f	50		 push	 eax
  00330	68 00 00 80 3f	 push	 1065353216		; 3f800000H
  00335	68 00 00 80 3f	 push	 1065353216		; 3f800000H
  0033a	68 00 00 80 3f	 push	 1065353216		; 3f800000H
  0033f	68 00 00 80 3f	 push	 1065353216		; 3f800000H
  00344	8d 8d 74 fd ff
	ff		 lea	 ecx, DWORD PTR $T85047[ebp]
  0034a	e8 00 00 00 00	 call	 ??0D3DXCOLOR@@QAE@MMMM@Z ; D3DXCOLOR::D3DXCOLOR
  0034f	8b c8		 mov	 ecx, eax
  00351	e8 00 00 00 00	 call	 ??BD3DXCOLOR@@QBEKXZ	; D3DXCOLOR::operator unsigned long
  00356	50		 push	 eax
  00357	68 00 00 80 3f	 push	 1065353216		; 3f800000H
  0035c	6a 00		 push	 0
  0035e	d9 45 08	 fld	 DWORD PTR _fHeight$[ebp]
  00361	d8 35 00 00 00
	00		 fdiv	 DWORD PTR __real@40000000
  00367	8b 4d f8	 mov	 ecx, DWORD PTR _this$[ebp]
  0036a	d8 69 08	 fsubr	 DWORD PTR [ecx+8]
  0036d	51		 push	 ecx
  0036e	d9 1c 24	 fstp	 DWORD PTR [esp]
  00371	8b 55 f8	 mov	 edx, DWORD PTR _this$[ebp]
  00374	8b 42 04	 mov	 eax, DWORD PTR [edx+4]
  00377	50		 push	 eax
  00378	d9 45 0c	 fld	 DWORD PTR _fWidth$[ebp]
  0037b	d8 35 00 00 00
	00		 fdiv	 DWORD PTR __real@40000000
  00381	8b 4d f8	 mov	 ecx, DWORD PTR _this$[ebp]
  00384	d8 01		 fadd	 DWORD PTR [ecx]
  00386	51		 push	 ecx
  00387	d9 1c 24	 fstp	 DWORD PTR [esp]
  0038a	8d 8d 8c fd ff
	ff		 lea	 ecx, DWORD PTR $T85046[ebp]
  00390	e8 00 00 00 00	 call	 ??0COLOREDVERTEX@@QAE@MMMMMKK@Z ; COLOREDVERTEX::COLOREDVERTEX
  00395	8b 7d f8	 mov	 edi, DWORD PTR _this$[ebp]
  00398	83 c7 30	 add	 edi, 48			; 00000030H
  0039b	b9 07 00 00 00	 mov	 ecx, 7
  003a0	8b f0		 mov	 esi, eax
  003a2	f3 a5		 rep movsd

; 32   : 			m_fvfVerts[2] = COLOREDVERTEX(m_vCenter.x - fWidth/2, m_vCenter.y, m_vCenter.z + fHeight/2, 1.0f, 0.0f, D3DXCOLOR( 1.0f, 1.0f, 1.0f, 1.0f ), specular) ;

  003a4	8b 45 e0	 mov	 eax, DWORD PTR _specular$[ebp]
  003a7	50		 push	 eax
  003a8	68 00 00 80 3f	 push	 1065353216		; 3f800000H
  003ad	68 00 00 80 3f	 push	 1065353216		; 3f800000H
  003b2	68 00 00 80 3f	 push	 1065353216		; 3f800000H
  003b7	68 00 00 80 3f	 push	 1065353216		; 3f800000H
  003bc	8d 8d 38 fd ff
	ff		 lea	 ecx, DWORD PTR $T85049[ebp]
  003c2	e8 00 00 00 00	 call	 ??0D3DXCOLOR@@QAE@MMMM@Z ; D3DXCOLOR::D3DXCOLOR
  003c7	8b c8		 mov	 ecx, eax
  003c9	e8 00 00 00 00	 call	 ??BD3DXCOLOR@@QBEKXZ	; D3DXCOLOR::operator unsigned long
  003ce	50		 push	 eax
  003cf	6a 00		 push	 0
  003d1	68 00 00 80 3f	 push	 1065353216		; 3f800000H
  003d6	d9 45 08	 fld	 DWORD PTR _fHeight$[ebp]
  003d9	d8 35 00 00 00
	00		 fdiv	 DWORD PTR __real@40000000
  003df	8b 4d f8	 mov	 ecx, DWORD PTR _this$[ebp]
  003e2	d8 41 08	 fadd	 DWORD PTR [ecx+8]
  003e5	51		 push	 ecx
  003e6	d9 1c 24	 fstp	 DWORD PTR [esp]
  003e9	8b 55 f8	 mov	 edx, DWORD PTR _this$[ebp]
  003ec	8b 42 04	 mov	 eax, DWORD PTR [edx+4]
  003ef	50		 push	 eax
  003f0	d9 45 0c	 fld	 DWORD PTR _fWidth$[ebp]
  003f3	d8 35 00 00 00
	00		 fdiv	 DWORD PTR __real@40000000
  003f9	8b 4d f8	 mov	 ecx, DWORD PTR _this$[ebp]
  003fc	d8 29		 fsubr	 DWORD PTR [ecx]
  003fe	51		 push	 ecx
  003ff	d9 1c 24	 fstp	 DWORD PTR [esp]
  00402	8d 8d 50 fd ff
	ff		 lea	 ecx, DWORD PTR $T85048[ebp]
  00408	e8 00 00 00 00	 call	 ??0COLOREDVERTEX@@QAE@MMMMMKK@Z ; COLOREDVERTEX::COLOREDVERTEX
  0040d	8b 7d f8	 mov	 edi, DWORD PTR _this$[ebp]
  00410	83 c7 4c	 add	 edi, 76			; 0000004cH
  00413	b9 07 00 00 00	 mov	 ecx, 7
  00418	8b f0		 mov	 esi, eax
  0041a	f3 a5		 rep movsd

; 33   : 			m_fvfVerts[3] = COLOREDVERTEX(m_vCenter.x + fWidth/2, m_vCenter.y, m_vCenter.z + fHeight/2, 1.0f, 1.0f, D3DXCOLOR( 1.0f, 1.0f, 1.0f, 1.0f ), specular) ;

  0041c	8b 45 e0	 mov	 eax, DWORD PTR _specular$[ebp]
  0041f	50		 push	 eax
  00420	68 00 00 80 3f	 push	 1065353216		; 3f800000H
  00425	68 00 00 80 3f	 push	 1065353216		; 3f800000H
  0042a	68 00 00 80 3f	 push	 1065353216		; 3f800000H
  0042f	68 00 00 80 3f	 push	 1065353216		; 3f800000H
  00434	8d 8d fc fc ff
	ff		 lea	 ecx, DWORD PTR $T85051[ebp]
  0043a	e8 00 00 00 00	 call	 ??0D3DXCOLOR@@QAE@MMMM@Z ; D3DXCOLOR::D3DXCOLOR
  0043f	8b c8		 mov	 ecx, eax
  00441	e8 00 00 00 00	 call	 ??BD3DXCOLOR@@QBEKXZ	; D3DXCOLOR::operator unsigned long
  00446	50		 push	 eax
  00447	68 00 00 80 3f	 push	 1065353216		; 3f800000H
  0044c	68 00 00 80 3f	 push	 1065353216		; 3f800000H
  00451	d9 45 08	 fld	 DWORD PTR _fHeight$[ebp]
  00454	d8 35 00 00 00
	00		 fdiv	 DWORD PTR __real@40000000
  0045a	8b 4d f8	 mov	 ecx, DWORD PTR _this$[ebp]
  0045d	d8 41 08	 fadd	 DWORD PTR [ecx+8]
  00460	51		 push	 ecx
  00461	d9 1c 24	 fstp	 DWORD PTR [esp]
  00464	8b 55 f8	 mov	 edx, DWORD PTR _this$[ebp]
  00467	8b 42 04	 mov	 eax, DWORD PTR [edx+4]
  0046a	50		 push	 eax
  0046b	d9 45 0c	 fld	 DWORD PTR _fWidth$[ebp]
  0046e	d8 35 00 00 00
	00		 fdiv	 DWORD PTR __real@40000000
  00474	8b 4d f8	 mov	 ecx, DWORD PTR _this$[ebp]
  00477	d8 01		 fadd	 DWORD PTR [ecx]
  00479	51		 push	 ecx
  0047a	d9 1c 24	 fstp	 DWORD PTR [esp]
  0047d	8d 8d 14 fd ff
	ff		 lea	 ecx, DWORD PTR $T85050[ebp]
  00483	e8 00 00 00 00	 call	 ??0COLOREDVERTEX@@QAE@MMMMMKK@Z ; COLOREDVERTEX::COLOREDVERTEX
  00488	8b 7d f8	 mov	 edi, DWORD PTR _this$[ebp]
  0048b	83 c7 68	 add	 edi, 104		; 00000068H
  0048e	b9 07 00 00 00	 mov	 ecx, 7
  00493	8b f0		 mov	 esi, eax
  00495	f3 a5		 rep movsd
$L84902:

; 34   : 		}
; 35   : 		
; 36   : 		D3DUtil_InitMaterial( m_Mtrl, pMaterialColor->r, pMaterialColor->g, pMaterialColor->b, pMaterialColor->a );

  00497	8b 45 14	 mov	 eax, DWORD PTR _pMaterialColor$[ebp]
  0049a	8b 48 0c	 mov	 ecx, DWORD PTR [eax+12]
  0049d	51		 push	 ecx
  0049e	8b 55 14	 mov	 edx, DWORD PTR _pMaterialColor$[ebp]
  004a1	8b 42 08	 mov	 eax, DWORD PTR [edx+8]
  004a4	50		 push	 eax
  004a5	8b 4d 14	 mov	 ecx, DWORD PTR _pMaterialColor$[ebp]
  004a8	8b 51 04	 mov	 edx, DWORD PTR [ecx+4]
  004ab	52		 push	 edx
  004ac	8b 45 14	 mov	 eax, DWORD PTR _pMaterialColor$[ebp]
  004af	8b 08		 mov	 ecx, DWORD PTR [eax]
  004b1	51		 push	 ecx
  004b2	8b 55 f8	 mov	 edx, DWORD PTR _this$[ebp]
  004b5	81 c2 84 00 00
	00		 add	 edx, 132		; 00000084H
  004bb	52		 push	 edx
  004bc	e8 00 00 00 00	 call	 ?D3DUtil_InitMaterial@@YAXAAU_D3DMATERIAL8@@MMMM@Z ; D3DUtil_InitMaterial
  004c1	83 c4 14	 add	 esp, 20			; 00000014H

; 37   : 		m_pVB = NULL ;

  004c4	8b 45 f8	 mov	 eax, DWORD PTR _this$[ebp]
  004c7	c7 80 c8 00 00
	00 00 00 00 00	 mov	 DWORD PTR [eax+200], 0

; 38   : 	}

  004d1	8b 45 f8	 mov	 eax, DWORD PTR _this$[ebp]
  004d4	5f		 pop	 edi
  004d5	5e		 pop	 esi
  004d6	5b		 pop	 ebx
  004d7	81 c4 08 03 00
	00		 add	 esp, 776		; 00000308H
  004dd	3b ec		 cmp	 ebp, esp
  004df	e8 00 00 00 00	 call	 __RTC_CheckEsp
  004e4	8b e5		 mov	 esp, ebp
  004e6	5d		 pop	 ebp
  004e7	c2 10 00	 ret	 16			; 00000010H
??0CBillboard@@QAE@MMHPAUD3DXCOLOR@@@Z ENDP		; CBillboard::CBillboard
; Function compile flags: /Odt /RTCsu /ZI
_TEXT	ENDS
;	COMDAT ??_H@YGXPAXIHP6EPAX0@Z@Z
_TEXT	SEGMENT
___t$ = 8
___s$ = 12
___n$ = 16
___f$ = 20
??_H@YGXPAXIHP6EPAX0@Z@Z PROC NEAR			; `vector constructor iterator', COMDAT
  00000	55		 push	 ebp
  00001	8b ec		 mov	 ebp, esp
  00003	81 ec c0 00 00
	00		 sub	 esp, 192		; 000000c0H
  00009	53		 push	 ebx
  0000a	56		 push	 esi
  0000b	57		 push	 edi
  0000c	8d bd 40 ff ff
	ff		 lea	 edi, DWORD PTR [ebp-192]
  00012	b9 30 00 00 00	 mov	 ecx, 48			; 00000030H
  00017	b8 cc cc cc cc	 mov	 eax, -858993460		; ccccccccH
  0001c	f3 ab		 rep stosd
$L84919:
  0001e	8b 45 10	 mov	 eax, DWORD PTR ___n$[ebp]
  00021	83 e8 01	 sub	 eax, 1
  00024	89 45 10	 mov	 DWORD PTR ___n$[ebp], eax
  00027	83 7d 10 00	 cmp	 DWORD PTR ___n$[ebp], 0
  0002b	7c 1a		 jl	 SHORT $L84917
  0002d	8b f4		 mov	 esi, esp
  0002f	8b 4d 08	 mov	 ecx, DWORD PTR ___t$[ebp]
  00032	ff 55 14	 call	 DWORD PTR ___f$[ebp]
  00035	3b f4		 cmp	 esi, esp
  00037	e8 00 00 00 00	 call	 __RTC_CheckEsp
  0003c	8b 45 08	 mov	 eax, DWORD PTR ___t$[ebp]
  0003f	03 45 0c	 add	 eax, DWORD PTR ___s$[ebp]
  00042	89 45 08	 mov	 DWORD PTR ___t$[ebp], eax
  00045	eb d7		 jmp	 SHORT $L84919
$L84917:
  00047	5f		 pop	 edi
  00048	5e		 pop	 esi
  00049	5b		 pop	 ebx
  0004a	81 c4 c0 00 00
	00		 add	 esp, 192		; 000000c0H
  00050	3b ec		 cmp	 ebp, esp
  00052	e8 00 00 00 00	 call	 __RTC_CheckEsp
  00057	8b e5		 mov	 esp, ebp
  00059	5d		 pop	 ebp
  0005a	c2 10 00	 ret	 16			; 00000010H
??_H@YGXPAXIHP6EPAX0@Z@Z ENDP				; `vector constructor iterator'
_TEXT	ENDS
PUBLIC	??1CBillboard@@QAE@XZ				; CBillboard::~CBillboard
; Function compile flags: /Odt /RTCsu /ZI
;	COMDAT ??1CBillboard@@QAE@XZ
_TEXT	SEGMENT
_this$ = -8
??1CBillboard@@QAE@XZ PROC NEAR				; CBillboard::~CBillboard, COMDAT
; _this$ = ecx

; 40   : 	{

  00000	55		 push	 ebp
  00001	8b ec		 mov	 ebp, esp
  00003	81 ec cc 00 00
	00		 sub	 esp, 204		; 000000ccH
  00009	53		 push	 ebx
  0000a	56		 push	 esi
  0000b	57		 push	 edi
  0000c	51		 push	 ecx
  0000d	8d bd 34 ff ff
	ff		 lea	 edi, DWORD PTR [ebp-204]
  00013	b9 33 00 00 00	 mov	 ecx, 51			; 00000033H
  00018	b8 cc cc cc cc	 mov	 eax, -858993460		; ccccccccH
  0001d	f3 ab		 rep stosd
  0001f	59		 pop	 ecx
  00020	89 4d f8	 mov	 DWORD PTR _this$[ebp], ecx

; 41   : 	}

  00023	5f		 pop	 edi
  00024	5e		 pop	 esi
  00025	5b		 pop	 ebx
  00026	8b e5		 mov	 esp, ebp
  00028	5d		 pop	 ebp
  00029	c3		 ret	 0
??1CBillboard@@QAE@XZ ENDP				; CBillboard::~CBillboard
_TEXT	ENDS
PUBLIC	?MakeRenderData@CBillboard@@QAEJPAUIDirect3DDevice8@@@Z ; CBillboard::MakeRenderData
PUBLIC	?__LINE__Var@?1??MakeRenderData@CBillboard@@QAEJPAUIDirect3DDevice8@@@Z@4JA ; `CBillboard::MakeRenderData'::`2'::__LINE__Var
PUBLIC	??_C@_0EM@BJAIGIIK@c?3?2documents?5and?5settings?2dom?2my@ ; `string'
PUBLIC	??_C@_0M@NKNCPJJD@?$CBFAILED?$CIhr?$CJ?$AA@	; `string'
EXTRN	@_RTC_CheckStackVars@8:NEAR
EXTRN	_memcpy:NEAR
EXTRN	__assert:NEAR
;	COMDAT ?__LINE__Var@?1??MakeRenderData@CBillboard@@QAEJPAUIDirect3DDevice8@@@Z@4JA
_DATA	SEGMENT
?__LINE__Var@?1??MakeRenderData@CBillboard@@QAEJPAUIDirect3DDevice8@@@Z@4JA DD 031H ; `CBillboard::MakeRenderData'::`2'::__LINE__Var
_DATA	ENDS
;	COMDAT ??_C@_0EM@BJAIGIIK@c?3?2documents?5and?5settings?2dom?2my@
CONST	SEGMENT
??_C@_0EM@BJAIGIIK@c?3?2documents?5and?5settings?2dom?2my@ DB 'c:\documen'
	DB	'ts and settings\dom\my documents\_dev\ae\xlr8a\x7g\cbillboard'
	DB	'.cpp', 00H					; `string'
CONST	ENDS
;	COMDAT ??_C@_0M@NKNCPJJD@?$CBFAILED?$CIhr?$CJ?$AA@
CONST	SEGMENT
??_C@_0M@NKNCPJJD@?$CBFAILED?$CIhr?$CJ?$AA@ DB '!FAILED(hr)', 00H ; `string'
; Function compile flags: /Odt /RTCsu /ZI
CONST	ENDS
;	COMDAT ?MakeRenderData@CBillboard@@QAEJPAUIDirect3DDevice8@@@Z
_TEXT	SEGMENT
_pVerts$ = -44
_iFVFSize$ = -32
_hr$ = -20
_this$ = -8
_pDev$ = 8
?MakeRenderData@CBillboard@@QAEJPAUIDirect3DDevice8@@@Z PROC NEAR ; CBillboard::MakeRenderData, COMDAT
; _this$ = ecx

; 49   : 	{

  00000	55		 push	 ebp
  00001	8b ec		 mov	 ebp, esp
  00003	81 ec f0 00 00
	00		 sub	 esp, 240		; 000000f0H
  00009	53		 push	 ebx
  0000a	56		 push	 esi
  0000b	57		 push	 edi
  0000c	51		 push	 ecx
  0000d	8d bd 10 ff ff
	ff		 lea	 edi, DWORD PTR [ebp-240]
  00013	b9 3c 00 00 00	 mov	 ecx, 60			; 0000003cH
  00018	b8 cc cc cc cc	 mov	 eax, -858993460		; ccccccccH
  0001d	f3 ab		 rep stosd
  0001f	59		 pop	 ecx
  00020	89 4d f8	 mov	 DWORD PTR _this$[ebp], ecx

; 50   : 		HRESULT hr ;
; 51   : 
; 52   : 	//
; 53   : 	// Create & fill the VB:
; 54   : 	//
; 55   : 		UINT iFVFSize = sizeof(COLOREDVERTEX) ;

  00023	c7 45 e0 1c 00
	00 00		 mov	 DWORD PTR _iFVFSize$[ebp], 28 ; 0000001cH

; 56   : 		hr = pDev->CreateVertexBuffer(4 * iFVFSize,
; 57   : 									  D3DUSAGE_WRITEONLY/*D3DUSAGE_SOFTWAREPROCESSING*/,
; 58   : 									  MYFVF_COLOREDVERTEX,
; 59   : 									  D3DPOOL_MANAGED/*D3DPOOL_DEFAULT*/,
; 60   : 									  &m_pVB) ;

  0002a	8b 45 f8	 mov	 eax, DWORD PTR _this$[ebp]
  0002d	05 c8 00 00 00	 add	 eax, 200		; 000000c8H
  00032	8b f4		 mov	 esi, esp
  00034	50		 push	 eax
  00035	6a 01		 push	 1
  00037	68 c2 01 00 00	 push	 450			; 000001c2H
  0003c	6a 08		 push	 8
  0003e	8b 4d e0	 mov	 ecx, DWORD PTR _iFVFSize$[ebp]
  00041	c1 e1 02	 shl	 ecx, 2
  00044	51		 push	 ecx
  00045	8b 55 08	 mov	 edx, DWORD PTR _pDev$[ebp]
  00048	8b 02		 mov	 eax, DWORD PTR [edx]
  0004a	8b 4d 08	 mov	 ecx, DWORD PTR _pDev$[ebp]
  0004d	51		 push	 ecx
  0004e	ff 50 5c	 call	 DWORD PTR [eax+92]
  00051	3b f4		 cmp	 esi, esp
  00053	e8 00 00 00 00	 call	 __RTC_CheckEsp
  00058	89 45 ec	 mov	 DWORD PTR _hr$[ebp], eax

; 61   : 		assert( !FAILED(hr) );

  0005b	83 7d ec 00	 cmp	 DWORD PTR _hr$[ebp], 0
  0005f	7d 1b		 jge	 SHORT $L85070
  00061	a1 00 00 00 00	 mov	 eax, DWORD PTR ?__LINE__Var@?1??MakeRenderData@CBillboard@@QAEJPAUIDirect3DDevice8@@@Z@4JA
  00066	83 c0 0c	 add	 eax, 12			; 0000000cH
  00069	50		 push	 eax
  0006a	68 00 00 00 00	 push	 OFFSET FLAT:??_C@_0EM@BJAIGIIK@c?3?2documents?5and?5settings?2dom?2my@
  0006f	68 00 00 00 00	 push	 OFFSET FLAT:??_C@_0M@NKNCPJJD@?$CBFAILED?$CIhr?$CJ?$AA@
  00074	e8 00 00 00 00	 call	 __assert
  00079	83 c4 0c	 add	 esp, 12			; 0000000cH
$L85070:

; 62   : 
; 63   : 		BYTE *pVerts ;
; 64   : 		hr = m_pVB->Lock(0, 0, &pVerts, 0) ;

  0007c	8b f4		 mov	 esi, esp
  0007e	6a 00		 push	 0
  00080	8d 45 d4	 lea	 eax, DWORD PTR _pVerts$[ebp]
  00083	50		 push	 eax
  00084	6a 00		 push	 0
  00086	6a 00		 push	 0
  00088	8b 4d f8	 mov	 ecx, DWORD PTR _this$[ebp]
  0008b	8b 91 c8 00 00
	00		 mov	 edx, DWORD PTR [ecx+200]
  00091	8b 45 f8	 mov	 eax, DWORD PTR _this$[ebp]
  00094	8b 88 c8 00 00
	00		 mov	 ecx, DWORD PTR [eax+200]
  0009a	8b 12		 mov	 edx, DWORD PTR [edx]
  0009c	51		 push	 ecx
  0009d	ff 52 2c	 call	 DWORD PTR [edx+44]
  000a0	3b f4		 cmp	 esi, esp
  000a2	e8 00 00 00 00	 call	 __RTC_CheckEsp
  000a7	89 45 ec	 mov	 DWORD PTR _hr$[ebp], eax

; 65   : 		assert( !FAILED(hr) );

  000aa	83 7d ec 00	 cmp	 DWORD PTR _hr$[ebp], 0
  000ae	7d 1b		 jge	 SHORT $L85071
  000b0	a1 00 00 00 00	 mov	 eax, DWORD PTR ?__LINE__Var@?1??MakeRenderData@CBillboard@@QAEJPAUIDirect3DDevice8@@@Z@4JA
  000b5	83 c0 10	 add	 eax, 16			; 00000010H
  000b8	50		 push	 eax
  000b9	68 00 00 00 00	 push	 OFFSET FLAT:??_C@_0EM@BJAIGIIK@c?3?2documents?5and?5settings?2dom?2my@
  000be	68 00 00 00 00	 push	 OFFSET FLAT:??_C@_0M@NKNCPJJD@?$CBFAILED?$CIhr?$CJ?$AA@
  000c3	e8 00 00 00 00	 call	 __assert
  000c8	83 c4 0c	 add	 esp, 12			; 0000000cH
$L85071:

; 66   : 
; 67   : 		memcpy(pVerts, m_fvfVerts, sizeof(COLOREDVERTEX) * 4) ;

  000cb	6a 70		 push	 112			; 00000070H
  000cd	8b 45 f8	 mov	 eax, DWORD PTR _this$[ebp]
  000d0	83 c0 14	 add	 eax, 20			; 00000014H
  000d3	50		 push	 eax
  000d4	8b 4d d4	 mov	 ecx, DWORD PTR _pVerts$[ebp]
  000d7	51		 push	 ecx
  000d8	e8 00 00 00 00	 call	 _memcpy
  000dd	83 c4 0c	 add	 esp, 12			; 0000000cH

; 68   : 		m_pVB->Unlock() ;

  000e0	8b 45 f8	 mov	 eax, DWORD PTR _this$[ebp]
  000e3	8b 88 c8 00 00
	00		 mov	 ecx, DWORD PTR [eax+200]
  000e9	8b 55 f8	 mov	 edx, DWORD PTR _this$[ebp]
  000ec	8b 82 c8 00 00
	00		 mov	 eax, DWORD PTR [edx+200]
  000f2	8b 09		 mov	 ecx, DWORD PTR [ecx]
  000f4	8b f4		 mov	 esi, esp
  000f6	50		 push	 eax
  000f7	ff 51 30	 call	 DWORD PTR [ecx+48]
  000fa	3b f4		 cmp	 esi, esp
  000fc	e8 00 00 00 00	 call	 __RTC_CheckEsp

; 69   : 
; 70   : 		return S_OK ;

  00101	33 c0		 xor	 eax, eax

; 71   : 	}

  00103	52		 push	 edx
  00104	8b cd		 mov	 ecx, ebp
  00106	50		 push	 eax
  00107	8d 15 00 00 00
	00		 lea	 edx, DWORD PTR $L85074
  0010d	e8 00 00 00 00	 call	 @_RTC_CheckStackVars@8
  00112	58		 pop	 eax
  00113	5a		 pop	 edx
  00114	5f		 pop	 edi
  00115	5e		 pop	 esi
  00116	5b		 pop	 ebx
  00117	81 c4 f0 00 00
	00		 add	 esp, 240		; 000000f0H
  0011d	3b ec		 cmp	 ebp, esp
  0011f	e8 00 00 00 00	 call	 __RTC_CheckEsp
  00124	8b e5		 mov	 esp, ebp
  00126	5d		 pop	 ebp
  00127	c2 04 00	 ret	 4
$L85074:
  0012a	01 00 00 00	 DD	 1
  0012e	00 00 00 00	 DD	 $L85073
$L85073:
  00132	d4 ff ff ff	 DD	 -44			; ffffffd4H
  00136	04 00 00 00	 DD	 4
  0013a	00 00 00 00	 DD	 $L85072
$L85072:
  0013e	70		 DB	 112			; 00000070H
  0013f	56		 DB	 86			; 00000056H
  00140	65		 DB	 101			; 00000065H
  00141	72		 DB	 114			; 00000072H
  00142	74		 DB	 116			; 00000074H
  00143	73		 DB	 115			; 00000073H
  00144	00		 DB	 0
?MakeRenderData@CBillboard@@QAEJPAUIDirect3DDevice8@@@Z ENDP ; CBillboard::MakeRenderData
_TEXT	ENDS
PUBLIC	?RestoreDeviceObjects@CBillboard@@QAEJQAUIDirect3DDevice8@@@Z ; CBillboard::RestoreDeviceObjects
PUBLIC	??_C@_0CC@CPDCFFMC@CBillboard?3?3RestoreDeviceObjects@ ; `string'
PUBLIC	?__LINE__Var@?1??RestoreDeviceObjects@CBillboard@@QAEJQAUIDirect3DDevice8@@@Z@4JA ; `CBillboard::RestoreDeviceObjects'::`2'::__LINE__Var
PUBLIC	??_C@_08OFPOHIDN@hr?$DN?$DNS_OK?$AA@		; `string'
EXTRN	?ods@@YAXPADZZ:NEAR				; ods
;	COMDAT ??_C@_0CC@CPDCFFMC@CBillboard?3?3RestoreDeviceObjects@
CONST	SEGMENT
??_C@_0CC@CPDCFFMC@CBillboard?3?3RestoreDeviceObjects@ DB 'CBillboard::Re'
	DB	'storeDeviceObjects', 0aH, 00H		; `string'
CONST	ENDS
;	COMDAT ?__LINE__Var@?1??RestoreDeviceObjects@CBillboard@@QAEJQAUIDirect3DDevice8@@@Z@4JA
_DATA	SEGMENT
?__LINE__Var@?1??RestoreDeviceObjects@CBillboard@@QAEJQAUIDirect3DDevice8@@@Z@4JA DD 04fH ; `CBillboard::RestoreDeviceObjects'::`2'::__LINE__Var
_DATA	ENDS
;	COMDAT ??_C@_08OFPOHIDN@hr?$DN?$DNS_OK?$AA@
CONST	SEGMENT
??_C@_08OFPOHIDN@hr?$DN?$DNS_OK?$AA@ DB 'hr==S_OK', 00H	; `string'
; Function compile flags: /Odt /RTCsu /ZI
CONST	ENDS
;	COMDAT ?RestoreDeviceObjects@CBillboard@@QAEJQAUIDirect3DDevice8@@@Z
_TEXT	SEGMENT
_hr$ = -20
_this$ = -8
_pDev$ = 8
?RestoreDeviceObjects@CBillboard@@QAEJQAUIDirect3DDevice8@@@Z PROC NEAR ; CBillboard::RestoreDeviceObjects, COMDAT
; _this$ = ecx

; 79   : 	{

  00000	55		 push	 ebp
  00001	8b ec		 mov	 ebp, esp
  00003	81 ec d8 00 00
	00		 sub	 esp, 216		; 000000d8H
  00009	53		 push	 ebx
  0000a	56		 push	 esi
  0000b	57		 push	 edi
  0000c	51		 push	 ecx
  0000d	8d bd 28 ff ff
	ff		 lea	 edi, DWORD PTR [ebp-216]
  00013	b9 36 00 00 00	 mov	 ecx, 54			; 00000036H
  00018	b8 cc cc cc cc	 mov	 eax, -858993460		; ccccccccH
  0001d	f3 ab		 rep stosd
  0001f	59		 pop	 ecx
  00020	89 4d f8	 mov	 DWORD PTR _this$[ebp], ecx

; 80   : 		ods( "CBillboard::RestoreDeviceObjects\n" );

  00023	68 00 00 00 00	 push	 OFFSET FLAT:??_C@_0CC@CPDCFFMC@CBillboard?3?3RestoreDeviceObjects@
  00028	e8 00 00 00 00	 call	 ?ods@@YAXPADZZ		; ods
  0002d	83 c4 04	 add	 esp, 4

; 81   : 
; 82   : 		HRESULT hr ;
; 83   : 		hr = MakeRenderData( pDev );

  00030	8b 45 08	 mov	 eax, DWORD PTR _pDev$[ebp]
  00033	50		 push	 eax
  00034	8b 4d f8	 mov	 ecx, DWORD PTR _this$[ebp]
  00037	e8 00 00 00 00	 call	 ?MakeRenderData@CBillboard@@QAEJPAUIDirect3DDevice8@@@Z ; CBillboard::MakeRenderData
  0003c	89 45 ec	 mov	 DWORD PTR _hr$[ebp], eax

; 84   : 		assert( hr==S_OK );

  0003f	83 7d ec 00	 cmp	 DWORD PTR _hr$[ebp], 0
  00043	74 1b		 je	 SHORT $L85078
  00045	a1 00 00 00 00	 mov	 eax, DWORD PTR ?__LINE__Var@?1??RestoreDeviceObjects@CBillboard@@QAEJQAUIDirect3DDevice8@@@Z@4JA
  0004a	83 c0 05	 add	 eax, 5
  0004d	50		 push	 eax
  0004e	68 00 00 00 00	 push	 OFFSET FLAT:??_C@_0EM@BJAIGIIK@c?3?2documents?5and?5settings?2dom?2my@
  00053	68 00 00 00 00	 push	 OFFSET FLAT:??_C@_08OFPOHIDN@hr?$DN?$DNS_OK?$AA@
  00058	e8 00 00 00 00	 call	 __assert
  0005d	83 c4 0c	 add	 esp, 12			; 0000000cH
$L85078:

; 85   : 
; 86   : 		return hr ;

  00060	8b 45 ec	 mov	 eax, DWORD PTR _hr$[ebp]

; 87   : 	}

  00063	5f		 pop	 edi
  00064	5e		 pop	 esi
  00065	5b		 pop	 ebx
  00066	81 c4 d8 00 00
	00		 add	 esp, 216		; 000000d8H
  0006c	3b ec		 cmp	 ebp, esp
  0006e	e8 00 00 00 00	 call	 __RTC_CheckEsp
  00073	8b e5		 mov	 esp, ebp
  00075	5d		 pop	 ebp
  00076	c2 04 00	 ret	 4
?RestoreDeviceObjects@CBillboard@@QAEJQAUIDirect3DDevice8@@@Z ENDP ; CBillboard::RestoreDeviceObjects
_TEXT	ENDS
PUBLIC	?InvalidateDeviceObjects@CBillboard@@QAEJXZ	; CBillboard::InvalidateDeviceObjects
; Function compile flags: /Odt /RTCsu /ZI
;	COMDAT ?InvalidateDeviceObjects@CBillboard@@QAEJXZ
_TEXT	SEGMENT
_this$ = -8
?InvalidateDeviceObjects@CBillboard@@QAEJXZ PROC NEAR	; CBillboard::InvalidateDeviceObjects, COMDAT
; _this$ = ecx

; 89   : 	{

  00000	55		 push	 ebp
  00001	8b ec		 mov	 ebp, esp
  00003	81 ec cc 00 00
	00		 sub	 esp, 204		; 000000ccH
  00009	53		 push	 ebx
  0000a	56		 push	 esi
  0000b	57		 push	 edi
  0000c	51		 push	 ecx
  0000d	8d bd 34 ff ff
	ff		 lea	 edi, DWORD PTR [ebp-204]
  00013	b9 33 00 00 00	 mov	 ecx, 51			; 00000033H
  00018	b8 cc cc cc cc	 mov	 eax, -858993460		; ccccccccH
  0001d	f3 ab		 rep stosd
  0001f	59		 pop	 ecx
  00020	89 4d f8	 mov	 DWORD PTR _this$[ebp], ecx

; 90   : 		SAFE_RELEASE( m_pVB )

  00023	8b 45 f8	 mov	 eax, DWORD PTR _this$[ebp]
  00026	83 b8 c8 00 00
	00 00		 cmp	 DWORD PTR [eax+200], 0
  0002d	74 2e		 je	 SHORT $L84955
  0002f	8b 45 f8	 mov	 eax, DWORD PTR _this$[ebp]
  00032	8b 88 c8 00 00
	00		 mov	 ecx, DWORD PTR [eax+200]
  00038	8b 55 f8	 mov	 edx, DWORD PTR _this$[ebp]
  0003b	8b 82 c8 00 00
	00		 mov	 eax, DWORD PTR [edx+200]
  00041	8b 09		 mov	 ecx, DWORD PTR [ecx]
  00043	8b f4		 mov	 esi, esp
  00045	50		 push	 eax
  00046	ff 51 08	 call	 DWORD PTR [ecx+8]
  00049	3b f4		 cmp	 esi, esp
  0004b	e8 00 00 00 00	 call	 __RTC_CheckEsp
  00050	8b 45 f8	 mov	 eax, DWORD PTR _this$[ebp]
  00053	c7 80 c8 00 00
	00 00 00 00 00	 mov	 DWORD PTR [eax+200], 0
$L84955:

; 91   : 		return S_OK ;

  0005d	33 c0		 xor	 eax, eax

; 92   : 	}

  0005f	5f		 pop	 edi
  00060	5e		 pop	 esi
  00061	5b		 pop	 ebx
  00062	81 c4 cc 00 00
	00		 add	 esp, 204		; 000000ccH
  00068	3b ec		 cmp	 ebp, esp
  0006a	e8 00 00 00 00	 call	 __RTC_CheckEsp
  0006f	8b e5		 mov	 esp, ebp
  00071	5d		 pop	 ebp
  00072	c3		 ret	 0
?InvalidateDeviceObjects@CBillboard@@QAEJXZ ENDP	; CBillboard::InvalidateDeviceObjects
_TEXT	ENDS
PUBLIC	??0D3DXMATRIX@@QAE@XZ				; D3DXMATRIX::D3DXMATRIX
PUBLIC	?BillboardLookAt@CBillboard@@QAEXPAUD3DXMATRIX@@PBUD3DXVECTOR3@@11@Z ; CBillboard::BillboardLookAt
PUBLIC	?Render@CBillboard@@QAEJPAUIDirect3DDevice8@@PAKPAUD3DXVECTOR3@@PAVCCamera@@MH@Z ; CBillboard::Render
EXTRN	_D3DXMatrixMultiply@12:NEAR
EXTRN	_D3DXMatrixScaling@16:NEAR
EXTRN	_D3DXMatrixTranslation@16:NEAR
; Function compile flags: /Odt /RTCsu /ZI
;	COMDAT ?Render@CBillboard@@QAEJPAUIDirect3DDevice8@@PAKPAUD3DXVECTOR3@@PAVCCamera@@MH@Z
_TEXT	SEGMENT
_matTrans$ = -152
_matWorld$ = -80
_this$ = -8
_pDev$ = 8
_pulPolyCount$ = 12
_pvPos$ = 16
_pCam$ = 20
_fScale$ = 24
_bBillboard$ = 28
?Render@CBillboard@@QAEJPAUIDirect3DDevice8@@PAKPAUD3DXVECTOR3@@PAVCCamera@@MH@Z PROC NEAR ; CBillboard::Render, COMDAT
; _this$ = ecx

; 105  : 	{

  00000	55		 push	 ebp
  00001	8b ec		 mov	 ebp, esp
  00003	81 ec 5c 01 00
	00		 sub	 esp, 348		; 0000015cH
  00009	53		 push	 ebx
  0000a	56		 push	 esi
  0000b	57		 push	 edi
  0000c	51		 push	 ecx
  0000d	8d bd a4 fe ff
	ff		 lea	 edi, DWORD PTR [ebp-348]
  00013	b9 57 00 00 00	 mov	 ecx, 87			; 00000057H
  00018	b8 cc cc cc cc	 mov	 eax, -858993460		; ccccccccH
  0001d	f3 ab		 rep stosd
  0001f	59		 pop	 ecx
  00020	89 4d f8	 mov	 DWORD PTR _this$[ebp], ecx

; 106  : 		xMat matWorld, matTrans ;

  00023	8d 4d b0	 lea	 ecx, DWORD PTR _matWorld$[ebp]
  00026	e8 00 00 00 00	 call	 ??0D3DXMATRIX@@QAE@XZ	; D3DXMATRIX::D3DXMATRIX
  0002b	8d 8d 68 ff ff
	ff		 lea	 ecx, DWORD PTR _matTrans$[ebp]
  00031	e8 00 00 00 00	 call	 ??0D3DXMATRIX@@QAE@XZ	; D3DXMATRIX::D3DXMATRIX

; 107  : 
; 108  : 		D3DXMatrixScaling( &matWorld, fScale, fScale, fScale );

  00036	8b 45 18	 mov	 eax, DWORD PTR _fScale$[ebp]
  00039	50		 push	 eax
  0003a	8b 4d 18	 mov	 ecx, DWORD PTR _fScale$[ebp]
  0003d	51		 push	 ecx
  0003e	8b 55 18	 mov	 edx, DWORD PTR _fScale$[ebp]
  00041	52		 push	 edx
  00042	8d 45 b0	 lea	 eax, DWORD PTR _matWorld$[ebp]
  00045	50		 push	 eax
  00046	e8 00 00 00 00	 call	 _D3DXMatrixScaling@16

; 109  : 		
; 110  : 		if( bBillboard )

  0004b	83 7d 1c 00	 cmp	 DWORD PTR _bBillboard$[ebp], 0
  0004f	74 1d		 je	 SHORT $L84968

; 111  : 			BillboardLookAt( &matWorld, pvPos,
; 112  : 							 (const xVec3*)&pCam->m_vEyePt,
; 113  : 							 (const xVec3*)&pCam->m_vUpVec );

  00051	8b 45 14	 mov	 eax, DWORD PTR _pCam$[ebp]
  00054	83 c0 18	 add	 eax, 24			; 00000018H
  00057	50		 push	 eax
  00058	8b 4d 14	 mov	 ecx, DWORD PTR _pCam$[ebp]
  0005b	51		 push	 ecx
  0005c	8b 55 10	 mov	 edx, DWORD PTR _pvPos$[ebp]
  0005f	52		 push	 edx
  00060	8d 45 b0	 lea	 eax, DWORD PTR _matWorld$[ebp]
  00063	50		 push	 eax
  00064	8b 4d f8	 mov	 ecx, DWORD PTR _this$[ebp]
  00067	e8 00 00 00 00	 call	 ?BillboardLookAt@CBillboard@@QAEXPAUD3DXMATRIX@@PBUD3DXVECTOR3@@11@Z ; CBillboard::BillboardLookAt

; 114  : 		else

  0006c	eb 34		 jmp	 SHORT $L84971
$L84968:

; 115  : 		{
; 116  : 			D3DXMatrixTranslation( &matTrans, pvPos->x, pvPos->y, pvPos->z );

  0006e	8b 45 10	 mov	 eax, DWORD PTR _pvPos$[ebp]
  00071	8b 48 08	 mov	 ecx, DWORD PTR [eax+8]
  00074	51		 push	 ecx
  00075	8b 55 10	 mov	 edx, DWORD PTR _pvPos$[ebp]
  00078	8b 42 04	 mov	 eax, DWORD PTR [edx+4]
  0007b	50		 push	 eax
  0007c	8b 4d 10	 mov	 ecx, DWORD PTR _pvPos$[ebp]
  0007f	8b 11		 mov	 edx, DWORD PTR [ecx]
  00081	52		 push	 edx
  00082	8d 85 68 ff ff
	ff		 lea	 eax, DWORD PTR _matTrans$[ebp]
  00088	50		 push	 eax
  00089	e8 00 00 00 00	 call	 _D3DXMatrixTranslation@16

; 117  : 			D3DXMatrixMultiply( &matWorld, &matWorld, &matTrans );

  0008e	8d 85 68 ff ff
	ff		 lea	 eax, DWORD PTR _matTrans$[ebp]
  00094	50		 push	 eax
  00095	8d 4d b0	 lea	 ecx, DWORD PTR _matWorld$[ebp]
  00098	51		 push	 ecx
  00099	8d 55 b0	 lea	 edx, DWORD PTR _matWorld$[ebp]
  0009c	52		 push	 edx
  0009d	e8 00 00 00 00	 call	 _D3DXMatrixMultiply@12
$L84971:

; 118  : 		}
; 119  : 
; 120  : 		pDev->SetTextureStageState( 0, D3DTSS_COLOROP,   D3DTOP_MODULATE );

  000a2	8b f4		 mov	 esi, esp
  000a4	6a 04		 push	 4
  000a6	6a 01		 push	 1
  000a8	6a 00		 push	 0
  000aa	8b 45 08	 mov	 eax, DWORD PTR _pDev$[ebp]
  000ad	8b 08		 mov	 ecx, DWORD PTR [eax]
  000af	8b 55 08	 mov	 edx, DWORD PTR _pDev$[ebp]
  000b2	52		 push	 edx
  000b3	ff 91 fc 00 00
	00		 call	 DWORD PTR [ecx+252]
  000b9	3b f4		 cmp	 esi, esp
  000bb	e8 00 00 00 00	 call	 __RTC_CheckEsp

; 121  : 		pDev->SetTextureStageState( 0, D3DTSS_ALPHAOP,   D3DTOP_MODULATE );

  000c0	8b f4		 mov	 esi, esp
  000c2	6a 04		 push	 4
  000c4	6a 04		 push	 4
  000c6	6a 00		 push	 0
  000c8	8b 45 08	 mov	 eax, DWORD PTR _pDev$[ebp]
  000cb	8b 08		 mov	 ecx, DWORD PTR [eax]
  000cd	8b 55 08	 mov	 edx, DWORD PTR _pDev$[ebp]
  000d0	52		 push	 edx
  000d1	ff 91 fc 00 00
	00		 call	 DWORD PTR [ecx+252]
  000d7	3b f4		 cmp	 esi, esp
  000d9	e8 00 00 00 00	 call	 __RTC_CheckEsp

; 122  : 		pDev->SetTextureStageState( 1, D3DTSS_COLOROP,   D3DTOP_DISABLE );

  000de	8b f4		 mov	 esi, esp
  000e0	6a 01		 push	 1
  000e2	6a 01		 push	 1
  000e4	6a 01		 push	 1
  000e6	8b 45 08	 mov	 eax, DWORD PTR _pDev$[ebp]
  000e9	8b 08		 mov	 ecx, DWORD PTR [eax]
  000eb	8b 55 08	 mov	 edx, DWORD PTR _pDev$[ebp]
  000ee	52		 push	 edx
  000ef	ff 91 fc 00 00
	00		 call	 DWORD PTR [ecx+252]
  000f5	3b f4		 cmp	 esi, esp
  000f7	e8 00 00 00 00	 call	 __RTC_CheckEsp

; 123  : 		pDev->SetTextureStageState( 1, D3DTSS_ALPHAOP,   D3DTOP_DISABLE );

  000fc	8b f4		 mov	 esi, esp
  000fe	6a 01		 push	 1
  00100	6a 04		 push	 4
  00102	6a 01		 push	 1
  00104	8b 45 08	 mov	 eax, DWORD PTR _pDev$[ebp]
  00107	8b 08		 mov	 ecx, DWORD PTR [eax]
  00109	8b 55 08	 mov	 edx, DWORD PTR _pDev$[ebp]
  0010c	52		 push	 edx
  0010d	ff 91 fc 00 00
	00		 call	 DWORD PTR [ecx+252]
  00113	3b f4		 cmp	 esi, esp
  00115	e8 00 00 00 00	 call	 __RTC_CheckEsp

; 124  : 
; 125  : 		pDev->SetRenderState( D3DRS_CULLMODE,  D3DCULL_NONE );

  0011a	8b f4		 mov	 esi, esp
  0011c	6a 01		 push	 1
  0011e	6a 16		 push	 22			; 00000016H
  00120	8b 45 08	 mov	 eax, DWORD PTR _pDev$[ebp]
  00123	8b 08		 mov	 ecx, DWORD PTR [eax]
  00125	8b 55 08	 mov	 edx, DWORD PTR _pDev$[ebp]
  00128	52		 push	 edx
  00129	ff 91 c8 00 00
	00		 call	 DWORD PTR [ecx+200]
  0012f	3b f4		 cmp	 esi, esp
  00131	e8 00 00 00 00	 call	 __RTC_CheckEsp

; 126  : 		pDev->SetRenderState( D3DRS_ALPHABLENDENABLE, TRUE );

  00136	8b f4		 mov	 esi, esp
  00138	6a 01		 push	 1
  0013a	6a 1b		 push	 27			; 0000001bH
  0013c	8b 45 08	 mov	 eax, DWORD PTR _pDev$[ebp]
  0013f	8b 08		 mov	 ecx, DWORD PTR [eax]
  00141	8b 55 08	 mov	 edx, DWORD PTR _pDev$[ebp]
  00144	52		 push	 edx
  00145	ff 91 c8 00 00
	00		 call	 DWORD PTR [ecx+200]
  0014b	3b f4		 cmp	 esi, esp
  0014d	e8 00 00 00 00	 call	 __RTC_CheckEsp

; 127  : 		pDev->SetTransform( D3DTS_WORLD, &matWorld );

  00152	8b f4		 mov	 esi, esp
  00154	8d 45 b0	 lea	 eax, DWORD PTR _matWorld$[ebp]
  00157	50		 push	 eax
  00158	68 00 01 00 00	 push	 256			; 00000100H
  0015d	8b 4d 08	 mov	 ecx, DWORD PTR _pDev$[ebp]
  00160	8b 11		 mov	 edx, DWORD PTR [ecx]
  00162	8b 45 08	 mov	 eax, DWORD PTR _pDev$[ebp]
  00165	50		 push	 eax
  00166	ff 92 94 00 00
	00		 call	 DWORD PTR [edx+148]
  0016c	3b f4		 cmp	 esi, esp
  0016e	e8 00 00 00 00	 call	 __RTC_CheckEsp

; 128  : 		pDev->SetMaterial( &m_Mtrl );

  00173	8b 45 f8	 mov	 eax, DWORD PTR _this$[ebp]
  00176	05 84 00 00 00	 add	 eax, 132		; 00000084H
  0017b	8b f4		 mov	 esi, esp
  0017d	50		 push	 eax
  0017e	8b 4d 08	 mov	 ecx, DWORD PTR _pDev$[ebp]
  00181	8b 11		 mov	 edx, DWORD PTR [ecx]
  00183	8b 45 08	 mov	 eax, DWORD PTR _pDev$[ebp]
  00186	50		 push	 eax
  00187	ff 92 a8 00 00
	00		 call	 DWORD PTR [edx+168]
  0018d	3b f4		 cmp	 esi, esp
  0018f	e8 00 00 00 00	 call	 __RTC_CheckEsp

; 129  : 
; 130  : 		//pDev->SetRenderState( D3DRS_SRCBLEND, D3DBLEND_ONE );
; 131  : 		//pDev->SetRenderState( D3DRS_DESTBLEND, D3DBLEND_ONE );
; 132  : 
; 133  : 		pDev->SetStreamSource( 0, m_pVB, sizeof(COLOREDVERTEX) );

  00194	8b f4		 mov	 esi, esp
  00196	6a 1c		 push	 28			; 0000001cH
  00198	8b 45 f8	 mov	 eax, DWORD PTR _this$[ebp]
  0019b	8b 88 c8 00 00
	00		 mov	 ecx, DWORD PTR [eax+200]
  001a1	51		 push	 ecx
  001a2	6a 00		 push	 0
  001a4	8b 55 08	 mov	 edx, DWORD PTR _pDev$[ebp]
  001a7	8b 02		 mov	 eax, DWORD PTR [edx]
  001a9	8b 4d 08	 mov	 ecx, DWORD PTR _pDev$[ebp]
  001ac	51		 push	 ecx
  001ad	ff 90 4c 01 00
	00		 call	 DWORD PTR [eax+332]
  001b3	3b f4		 cmp	 esi, esp
  001b5	e8 00 00 00 00	 call	 __RTC_CheckEsp

; 134  : 		pDev->SetVertexShader( MYFVF_COLOREDVERTEX );

  001ba	8b f4		 mov	 esi, esp
  001bc	68 c2 01 00 00	 push	 450			; 000001c2H
  001c1	8b 45 08	 mov	 eax, DWORD PTR _pDev$[ebp]
  001c4	8b 08		 mov	 ecx, DWORD PTR [eax]
  001c6	8b 55 08	 mov	 edx, DWORD PTR _pDev$[ebp]
  001c9	52		 push	 edx
  001ca	ff 91 30 01 00
	00		 call	 DWORD PTR [ecx+304]
  001d0	3b f4		 cmp	 esi, esp
  001d2	e8 00 00 00 00	 call	 __RTC_CheckEsp

; 135  : 		pDev->DrawPrimitive( D3DPT_TRIANGLESTRIP, 0, 2 );

  001d7	8b f4		 mov	 esi, esp
  001d9	6a 02		 push	 2
  001db	6a 00		 push	 0
  001dd	6a 05		 push	 5
  001df	8b 45 08	 mov	 eax, DWORD PTR _pDev$[ebp]
  001e2	8b 08		 mov	 ecx, DWORD PTR [eax]
  001e4	8b 55 08	 mov	 edx, DWORD PTR _pDev$[ebp]
  001e7	52		 push	 edx
  001e8	ff 91 18 01 00
	00		 call	 DWORD PTR [ecx+280]
  001ee	3b f4		 cmp	 esi, esp
  001f0	e8 00 00 00 00	 call	 __RTC_CheckEsp

; 136  : 		pDev->SetRenderState( D3DRS_ALPHABLENDENABLE, FALSE );

  001f5	8b f4		 mov	 esi, esp
  001f7	6a 00		 push	 0
  001f9	6a 1b		 push	 27			; 0000001bH
  001fb	8b 45 08	 mov	 eax, DWORD PTR _pDev$[ebp]
  001fe	8b 08		 mov	 ecx, DWORD PTR [eax]
  00200	8b 55 08	 mov	 edx, DWORD PTR _pDev$[ebp]
  00203	52		 push	 edx
  00204	ff 91 c8 00 00
	00		 call	 DWORD PTR [ecx+200]
  0020a	3b f4		 cmp	 esi, esp
  0020c	e8 00 00 00 00	 call	 __RTC_CheckEsp

; 137  : 
; 138  : 		*pulPolyCount += 2 ;

  00211	8b 45 0c	 mov	 eax, DWORD PTR _pulPolyCount$[ebp]
  00214	8b 08		 mov	 ecx, DWORD PTR [eax]
  00216	83 c1 02	 add	 ecx, 2
  00219	8b 55 0c	 mov	 edx, DWORD PTR _pulPolyCount$[ebp]
  0021c	89 0a		 mov	 DWORD PTR [edx], ecx

; 139  : 		return S_OK ;

  0021e	33 c0		 xor	 eax, eax

; 140  : 	}

  00220	52		 push	 edx
  00221	8b cd		 mov	 ecx, ebp
  00223	50		 push	 eax
  00224	8d 15 00 00 00
	00		 lea	 edx, DWORD PTR $L85086
  0022a	e8 00 00 00 00	 call	 @_RTC_CheckStackVars@8
  0022f	58		 pop	 eax
  00230	5a		 pop	 edx
  00231	5f		 pop	 edi
  00232	5e		 pop	 esi
  00233	5b		 pop	 ebx
  00234	81 c4 5c 01 00
	00		 add	 esp, 348		; 0000015cH
  0023a	3b ec		 cmp	 ebp, esp
  0023c	e8 00 00 00 00	 call	 __RTC_CheckEsp
  00241	8b e5		 mov	 esp, ebp
  00243	5d		 pop	 ebp
  00244	c2 18 00	 ret	 24			; 00000018H
$L85086:
  00247	02 00 00 00	 DD	 2
  0024b	00 00 00 00	 DD	 $L85085
$L85085:
  0024f	b0 ff ff ff	 DD	 -80			; ffffffb0H
  00253	40 00 00 00	 DD	 64			; 00000040H
  00257	00 00 00 00	 DD	 $L85083
  0025b	68 ff ff ff	 DD	 -152			; ffffff68H
  0025f	40 00 00 00	 DD	 64			; 00000040H
  00263	00 00 00 00	 DD	 $L85084
$L85084:
  00267	6d		 DB	 109			; 0000006dH
  00268	61		 DB	 97			; 00000061H
  00269	74		 DB	 116			; 00000074H
  0026a	54		 DB	 84			; 00000054H
  0026b	72		 DB	 114			; 00000072H
  0026c	61		 DB	 97			; 00000061H
  0026d	6e		 DB	 110			; 0000006eH
  0026e	73		 DB	 115			; 00000073H
  0026f	00		 DB	 0
$L85083:
  00270	6d		 DB	 109			; 0000006dH
  00271	61		 DB	 97			; 00000061H
  00272	74		 DB	 116			; 00000074H
  00273	57		 DB	 87			; 00000057H
  00274	6f		 DB	 111			; 0000006fH
  00275	72		 DB	 114			; 00000072H
  00276	6c		 DB	 108			; 0000006cH
  00277	64		 DB	 100			; 00000064H
  00278	00		 DB	 0
?Render@CBillboard@@QAEJPAUIDirect3DDevice8@@PAKPAUD3DXVECTOR3@@PAVCCamera@@MH@Z ENDP ; CBillboard::Render
_TEXT	ENDS
PUBLIC	?D3DXVec3Dot@@YAMPBUD3DXVECTOR3@@0@Z		; D3DXVec3Dot
PUBLIC	?D3DXVec3Cross@@YAPAUD3DXVECTOR3@@PAU1@PBU1@1@Z	; D3DXVec3Cross
PUBLIC	??GD3DXVECTOR3@@QBE?AU0@ABU0@@Z			; D3DXVECTOR3::operator-
PUBLIC	??D@YA?AUD3DXVECTOR3@@MABU0@@Z			; operator*
EXTRN	_D3DXVec3Normalize@8:NEAR
; Function compile flags: /Odt /RTCsu /ZI
;	COMDAT ?BillboardLookAt@CBillboard@@QAEXPAUD3DXMATRIX@@PBUD3DXVECTOR3@@11@Z
_TEXT	SEGMENT
$T85089 = -436
_mat$ = -224
_Right$ = -152
_Up$ = -132
_angle$ = -112
_View$ = -100
_Matrix$ = -80
_this$ = -8
_pmatOut$ = 8
_pvBillboardPosition$ = 12
_pvCameraPosition$ = 16
_pvUp$ = 20
?BillboardLookAt@CBillboard@@QAEXPAUD3DXMATRIX@@PBUD3DXVECTOR3@@11@Z PROC NEAR ; CBillboard::BillboardLookAt, COMDAT
; _this$ = ecx

; 150  : 	{

  00000	55		 push	 ebp
  00001	8b ec		 mov	 ebp, esp
  00003	81 ec b8 01 00
	00		 sub	 esp, 440		; 000001b8H
  00009	53		 push	 ebx
  0000a	56		 push	 esi
  0000b	57		 push	 edi
  0000c	51		 push	 ecx
  0000d	8d bd 48 fe ff
	ff		 lea	 edi, DWORD PTR [ebp-440]
  00013	b9 6e 00 00 00	 mov	 ecx, 110		; 0000006eH
  00018	b8 cc cc cc cc	 mov	 eax, -858993460		; ccccccccH
  0001d	f3 ab		 rep stosd
  0001f	59		 pop	 ecx
  00020	89 4d f8	 mov	 DWORD PTR _this$[ebp], ecx

; 151  : 	//
; 152  : 	// http://64.33.37.114/billboards.htm
; 153  : 	//
; 154  : 		xMat Matrix ;

  00023	8d 4d b0	 lea	 ecx, DWORD PTR _Matrix$[ebp]
  00026	e8 00 00 00 00	 call	 ??0D3DXMATRIX@@QAE@XZ	; D3DXMATRIX::D3DXMATRIX

; 155  : 		xVec3 View = *pvCameraPosition - *pvBillboardPosition ;

  0002b	8b 45 0c	 mov	 eax, DWORD PTR _pvBillboardPosition$[ebp]
  0002e	50		 push	 eax
  0002f	8d 4d 9c	 lea	 ecx, DWORD PTR _View$[ebp]
  00032	51		 push	 ecx
  00033	8b 4d 10	 mov	 ecx, DWORD PTR _pvCameraPosition$[ebp]
  00036	e8 00 00 00 00	 call	 ??GD3DXVECTOR3@@QBE?AU0@ABU0@@Z ; D3DXVECTOR3::operator-

; 156  : 		D3DXVec3Normalize( &View, &View );

  0003b	8d 45 9c	 lea	 eax, DWORD PTR _View$[ebp]
  0003e	50		 push	 eax
  0003f	8d 4d 9c	 lea	 ecx, DWORD PTR _View$[ebp]
  00042	51		 push	 ecx
  00043	e8 00 00 00 00	 call	 _D3DXVec3Normalize@8

; 157  : 
; 158  : 		float angle = D3DXVec3Dot( pvUp, &View );

  00048	8d 45 9c	 lea	 eax, DWORD PTR _View$[ebp]
  0004b	50		 push	 eax
  0004c	8b 4d 14	 mov	 ecx, DWORD PTR _pvUp$[ebp]
  0004f	51		 push	 ecx
  00050	e8 00 00 00 00	 call	 ?D3DXVec3Dot@@YAMPBUD3DXVECTOR3@@0@Z ; D3DXVec3Dot
  00055	83 c4 08	 add	 esp, 8
  00058	d9 5d 90	 fstp	 DWORD PTR _angle$[ebp]

; 159  : 		xVec3 Up = *pvUp - angle*View ;

  0005b	8d 45 9c	 lea	 eax, DWORD PTR _View$[ebp]
  0005e	50		 push	 eax
  0005f	8b 4d 90	 mov	 ecx, DWORD PTR _angle$[ebp]
  00062	51		 push	 ecx
  00063	8d 95 4c fe ff
	ff		 lea	 edx, DWORD PTR $T85089[ebp]
  00069	52		 push	 edx
  0006a	e8 00 00 00 00	 call	 ??D@YA?AUD3DXVECTOR3@@MABU0@@Z ; operator*
  0006f	83 c4 0c	 add	 esp, 12			; 0000000cH
  00072	50		 push	 eax
  00073	8d 85 7c ff ff
	ff		 lea	 eax, DWORD PTR _Up$[ebp]
  00079	50		 push	 eax
  0007a	8b 4d 14	 mov	 ecx, DWORD PTR _pvUp$[ebp]
  0007d	e8 00 00 00 00	 call	 ??GD3DXVECTOR3@@QBE?AU0@ABU0@@Z ; D3DXVECTOR3::operator-

; 160  : 		D3DXVec3Normalize( &Up, &Up );

  00082	8d 85 7c ff ff
	ff		 lea	 eax, DWORD PTR _Up$[ebp]
  00088	50		 push	 eax
  00089	8d 8d 7c ff ff
	ff		 lea	 ecx, DWORD PTR _Up$[ebp]
  0008f	51		 push	 ecx
  00090	e8 00 00 00 00	 call	 _D3DXVec3Normalize@8

; 161  : 
; 162  : 		xVec3 Right ;

  00095	8d 8d 68 ff ff
	ff		 lea	 ecx, DWORD PTR _Right$[ebp]
  0009b	e8 00 00 00 00	 call	 ??0D3DXVECTOR3@@QAE@XZ	; D3DXVECTOR3::D3DXVECTOR3

; 163  : 		D3DXVec3Cross( &Right, &Up, &View );

  000a0	8d 45 9c	 lea	 eax, DWORD PTR _View$[ebp]
  000a3	50		 push	 eax
  000a4	8d 8d 7c ff ff
	ff		 lea	 ecx, DWORD PTR _Up$[ebp]
  000aa	51		 push	 ecx
  000ab	8d 95 68 ff ff
	ff		 lea	 edx, DWORD PTR _Right$[ebp]
  000b1	52		 push	 edx
  000b2	e8 00 00 00 00	 call	 ?D3DXVec3Cross@@YAPAUD3DXVECTOR3@@PAU1@PBU1@1@Z ; D3DXVec3Cross
  000b7	83 c4 0c	 add	 esp, 12			; 0000000cH

; 164  : 
; 165  : 		xMat mat ;

  000ba	8d 8d 20 ff ff
	ff		 lea	 ecx, DWORD PTR _mat$[ebp]
  000c0	e8 00 00 00 00	 call	 ??0D3DXMATRIX@@QAE@XZ	; D3DXMATRIX::D3DXMATRIX

; 166  : 		mat._11 = Right.x; mat._21 = Up.x; mat._31 = View.x;

  000c5	8b 85 68 ff ff
	ff		 mov	 eax, DWORD PTR _Right$[ebp]
  000cb	89 85 20 ff ff
	ff		 mov	 DWORD PTR _mat$[ebp], eax
  000d1	8b 85 7c ff ff
	ff		 mov	 eax, DWORD PTR _Up$[ebp]
  000d7	89 85 30 ff ff
	ff		 mov	 DWORD PTR _mat$[ebp+16], eax
  000dd	8b 45 9c	 mov	 eax, DWORD PTR _View$[ebp]
  000e0	89 85 40 ff ff
	ff		 mov	 DWORD PTR _mat$[ebp+32], eax

; 167  : 		mat._12 = Right.y; mat._22 = Up.y; mat._32 = View.y;

  000e6	8b 85 6c ff ff
	ff		 mov	 eax, DWORD PTR _Right$[ebp+4]
  000ec	89 85 24 ff ff
	ff		 mov	 DWORD PTR _mat$[ebp+4], eax
  000f2	8b 45 80	 mov	 eax, DWORD PTR _Up$[ebp+4]
  000f5	89 85 34 ff ff
	ff		 mov	 DWORD PTR _mat$[ebp+20], eax
  000fb	8b 45 a0	 mov	 eax, DWORD PTR _View$[ebp+4]
  000fe	89 85 44 ff ff
	ff		 mov	 DWORD PTR _mat$[ebp+36], eax

; 168  : 		mat._13 = Right.z; mat._23 = Up.z; mat._33 = View.z;

  00104	8b 85 70 ff ff
	ff		 mov	 eax, DWORD PTR _Right$[ebp+8]
  0010a	89 85 28 ff ff
	ff		 mov	 DWORD PTR _mat$[ebp+8], eax
  00110	8b 45 84	 mov	 eax, DWORD PTR _Up$[ebp+8]
  00113	89 85 38 ff ff
	ff		 mov	 DWORD PTR _mat$[ebp+24], eax
  00119	8b 45 a4	 mov	 eax, DWORD PTR _View$[ebp+8]
  0011c	89 85 48 ff ff
	ff		 mov	 DWORD PTR _mat$[ebp+40], eax

; 169  : 
; 170  : 		mat._41=pvBillboardPosition->x;

  00122	8b 45 0c	 mov	 eax, DWORD PTR _pvBillboardPosition$[ebp]
  00125	8b 08		 mov	 ecx, DWORD PTR [eax]
  00127	89 8d 50 ff ff
	ff		 mov	 DWORD PTR _mat$[ebp+48], ecx

; 171  : 		mat._42=pvBillboardPosition->y;

  0012d	8b 45 0c	 mov	 eax, DWORD PTR _pvBillboardPosition$[ebp]
  00130	8b 48 04	 mov	 ecx, DWORD PTR [eax+4]
  00133	89 8d 54 ff ff
	ff		 mov	 DWORD PTR _mat$[ebp+52], ecx

; 172  : 		mat._43=pvBillboardPosition->z;

  00139	8b 45 0c	 mov	 eax, DWORD PTR _pvBillboardPosition$[ebp]
  0013c	8b 48 08	 mov	 ecx, DWORD PTR [eax+8]
  0013f	89 8d 58 ff ff
	ff		 mov	 DWORD PTR _mat$[ebp+56], ecx

; 173  : 
; 174  : 		mat._14=0.0f;

  00145	c7 85 2c ff ff
	ff 00 00 00 00	 mov	 DWORD PTR _mat$[ebp+12], 0

; 175  : 		mat._24=0.0f;

  0014f	c7 85 3c ff ff
	ff 00 00 00 00	 mov	 DWORD PTR _mat$[ebp+28], 0

; 176  : 		mat._34=0.0f;

  00159	c7 85 4c ff ff
	ff 00 00 00 00	 mov	 DWORD PTR _mat$[ebp+44], 0

; 177  : 		mat._44=1.0f;

  00163	c7 85 5c ff ff
	ff 00 00 80 3f	 mov	 DWORD PTR _mat$[ebp+60], 1065353216 ; 3f800000H

; 178  : 
; 179  : 		D3DXMatrixMultiply( pmatOut, pmatOut, &mat );

  0016d	8d 85 20 ff ff
	ff		 lea	 eax, DWORD PTR _mat$[ebp]
  00173	50		 push	 eax
  00174	8b 4d 08	 mov	 ecx, DWORD PTR _pmatOut$[ebp]
  00177	51		 push	 ecx
  00178	8b 55 08	 mov	 edx, DWORD PTR _pmatOut$[ebp]
  0017b	52		 push	 edx
  0017c	e8 00 00 00 00	 call	 _D3DXMatrixMultiply@12

; 180  : 	}

  00181	52		 push	 edx
  00182	8b cd		 mov	 ecx, ebp
  00184	50		 push	 eax
  00185	8d 15 00 00 00
	00		 lea	 edx, DWORD PTR $L85096
  0018b	e8 00 00 00 00	 call	 @_RTC_CheckStackVars@8
  00190	58		 pop	 eax
  00191	5a		 pop	 edx
  00192	5f		 pop	 edi
  00193	5e		 pop	 esi
  00194	5b		 pop	 ebx
  00195	81 c4 b8 01 00
	00		 add	 esp, 440		; 000001b8H
  0019b	3b ec		 cmp	 ebp, esp
  0019d	e8 00 00 00 00	 call	 __RTC_CheckEsp
  001a2	8b e5		 mov	 esp, ebp
  001a4	5d		 pop	 ebp
  001a5	c2 10 00	 ret	 16			; 00000010H
$L85096:
  001a8	05 00 00 00	 DD	 5
  001ac	00 00 00 00	 DD	 $L85095
$L85095:
  001b0	b0 ff ff ff	 DD	 -80			; ffffffb0H
  001b4	40 00 00 00	 DD	 64			; 00000040H
  001b8	00 00 00 00	 DD	 $L85090
  001bc	9c ff ff ff	 DD	 -100			; ffffff9cH
  001c0	0c 00 00 00	 DD	 12			; 0000000cH
  001c4	00 00 00 00	 DD	 $L85091
  001c8	7c ff ff ff	 DD	 -132			; ffffff7cH
  001cc	0c 00 00 00	 DD	 12			; 0000000cH
  001d0	00 00 00 00	 DD	 $L85092
  001d4	68 ff ff ff	 DD	 -152			; ffffff68H
  001d8	0c 00 00 00	 DD	 12			; 0000000cH
  001dc	00 00 00 00	 DD	 $L85093
  001e0	20 ff ff ff	 DD	 -224			; ffffff20H
  001e4	40 00 00 00	 DD	 64			; 00000040H
  001e8	00 00 00 00	 DD	 $L85094
$L85094:
  001ec	6d		 DB	 109			; 0000006dH
  001ed	61		 DB	 97			; 00000061H
  001ee	74		 DB	 116			; 00000074H
  001ef	00		 DB	 0
$L85093:
  001f0	52		 DB	 82			; 00000052H
  001f1	69		 DB	 105			; 00000069H
  001f2	67		 DB	 103			; 00000067H
  001f3	68		 DB	 104			; 00000068H
  001f4	74		 DB	 116			; 00000074H
  001f5	00		 DB	 0
$L85092:
  001f6	55		 DB	 85			; 00000055H
  001f7	70		 DB	 112			; 00000070H
  001f8	00		 DB	 0
$L85091:
  001f9	56		 DB	 86			; 00000056H
  001fa	69		 DB	 105			; 00000069H
  001fb	65		 DB	 101			; 00000065H
  001fc	77		 DB	 119			; 00000077H
  001fd	00		 DB	 0
$L85090:
  001fe	4d		 DB	 77			; 0000004dH
  001ff	61		 DB	 97			; 00000061H
  00200	74		 DB	 116			; 00000074H
  00201	72		 DB	 114			; 00000072H
  00202	69		 DB	 105			; 00000069H
  00203	78		 DB	 120			; 00000078H
  00204	00		 DB	 0
?BillboardLookAt@CBillboard@@QAEXPAUD3DXMATRIX@@PBUD3DXVECTOR3@@11@Z ENDP ; CBillboard::BillboardLookAt
; Function compile flags: /Odt /RTCsu /ZI
; File c:\dxsdk\include\d3dx8math.h
_TEXT	ENDS
;	COMDAT ??0D3DXVECTOR3@@QAE@XZ
_TEXT	SEGMENT
_this$ = -8
??0D3DXVECTOR3@@QAE@XZ PROC NEAR			; D3DXVECTOR3::D3DXVECTOR3, COMDAT
; _this$ = ecx

; 89   :     D3DXVECTOR3() {};

  00000	55		 push	 ebp
  00001	8b ec		 mov	 ebp, esp
  00003	81 ec cc 00 00
	00		 sub	 esp, 204		; 000000ccH
  00009	53		 push	 ebx
  0000a	56		 push	 esi
  0000b	57		 push	 edi
  0000c	51		 push	 ecx
  0000d	8d bd 34 ff ff
	ff		 lea	 edi, DWORD PTR [ebp-204]
  00013	b9 33 00 00 00	 mov	 ecx, 51			; 00000033H
  00018	b8 cc cc cc cc	 mov	 eax, -858993460		; ccccccccH
  0001d	f3 ab		 rep stosd
  0001f	59		 pop	 ecx
  00020	89 4d f8	 mov	 DWORD PTR _this$[ebp], ecx
  00023	8b 45 f8	 mov	 eax, DWORD PTR _this$[ebp]
  00026	5f		 pop	 edi
  00027	5e		 pop	 esi
  00028	5b		 pop	 ebx
  00029	8b e5		 mov	 esp, ebp
  0002b	5d		 pop	 ebp
  0002c	c3		 ret	 0
??0D3DXVECTOR3@@QAE@XZ ENDP				; D3DXVECTOR3::D3DXVECTOR3
; Function compile flags: /Odt /RTCsu /ZI
_TEXT	ENDS
;	COMDAT ??0D3DXMATRIX@@QAE@XZ
_TEXT	SEGMENT
_this$ = -8
??0D3DXMATRIX@@QAE@XZ PROC NEAR				; D3DXMATRIX::D3DXMATRIX, COMDAT
; _this$ = ecx

; 177  :     D3DXMATRIX() {};

  00000	55		 push	 ebp
  00001	8b ec		 mov	 ebp, esp
  00003	81 ec cc 00 00
	00		 sub	 esp, 204		; 000000ccH
  00009	53		 push	 ebx
  0000a	56		 push	 esi
  0000b	57		 push	 edi
  0000c	51		 push	 ecx
  0000d	8d bd 34 ff ff
	ff		 lea	 edi, DWORD PTR [ebp-204]
  00013	b9 33 00 00 00	 mov	 ecx, 51			; 00000033H
  00018	b8 cc cc cc cc	 mov	 eax, -858993460		; ccccccccH
  0001d	f3 ab		 rep stosd
  0001f	59		 pop	 ecx
  00020	89 4d f8	 mov	 DWORD PTR _this$[ebp], ecx
  00023	8b 45 f8	 mov	 eax, DWORD PTR _this$[ebp]
  00026	5f		 pop	 edi
  00027	5e		 pop	 esi
  00028	5b		 pop	 ebx
  00029	8b e5		 mov	 esp, ebp
  0002b	5d		 pop	 ebp
  0002c	c3		 ret	 0
??0D3DXMATRIX@@QAE@XZ ENDP				; D3DXMATRIX::D3DXMATRIX
; Function compile flags: /Odt /RTCsu /ZI
; File c:\dxsdk\include\d3dx8math.inl
_TEXT	ENDS
;	COMDAT ??0D3DXVECTOR3@@QAE@MMM@Z
_TEXT	SEGMENT
_this$ = -8
_fx$ = 8
_fy$ = 12
_fz$ = 16
??0D3DXVECTOR3@@QAE@MMM@Z PROC NEAR			; D3DXVECTOR3::D3DXVECTOR3, COMDAT
; _this$ = ecx

; 179  : {

  00000	55		 push	 ebp
  00001	8b ec		 mov	 ebp, esp
  00003	81 ec cc 00 00
	00		 sub	 esp, 204		; 000000ccH
  00009	53		 push	 ebx
  0000a	56		 push	 esi
  0000b	57		 push	 edi
  0000c	51		 push	 ecx
  0000d	8d bd 34 ff ff
	ff		 lea	 edi, DWORD PTR [ebp-204]
  00013	b9 33 00 00 00	 mov	 ecx, 51			; 00000033H
  00018	b8 cc cc cc cc	 mov	 eax, -858993460		; ccccccccH
  0001d	f3 ab		 rep stosd
  0001f	59		 pop	 ecx
  00020	89 4d f8	 mov	 DWORD PTR _this$[ebp], ecx

; 180  :     x = fx;

  00023	8b 45 f8	 mov	 eax, DWORD PTR _this$[ebp]
  00026	8b 4d 08	 mov	 ecx, DWORD PTR _fx$[ebp]
  00029	89 08		 mov	 DWORD PTR [eax], ecx

; 181  :     y = fy;

  0002b	8b 45 f8	 mov	 eax, DWORD PTR _this$[ebp]
  0002e	8b 4d 0c	 mov	 ecx, DWORD PTR _fy$[ebp]
  00031	89 48 04	 mov	 DWORD PTR [eax+4], ecx

; 182  :     z = fz;

  00034	8b 45 f8	 mov	 eax, DWORD PTR _this$[ebp]
  00037	8b 4d 10	 mov	 ecx, DWORD PTR _fz$[ebp]
  0003a	89 48 08	 mov	 DWORD PTR [eax+8], ecx

; 183  : }

  0003d	8b 45 f8	 mov	 eax, DWORD PTR _this$[ebp]
  00040	5f		 pop	 edi
  00041	5e		 pop	 esi
  00042	5b		 pop	 ebx
  00043	8b e5		 mov	 esp, ebp
  00045	5d		 pop	 ebp
  00046	c2 0c 00	 ret	 12			; 0000000cH
??0D3DXVECTOR3@@QAE@MMM@Z ENDP				; D3DXVECTOR3::D3DXVECTOR3
; Function compile flags: /Odt /RTCsu /ZI
_TEXT	ENDS
;	COMDAT ??GD3DXVECTOR3@@QBE?AU0@ABU0@@Z
_TEXT	SEGMENT
_this$ = -8
___$ReturnUdt$ = 8
_v$ = 12
??GD3DXVECTOR3@@QBE?AU0@ABU0@@Z PROC NEAR		; D3DXVECTOR3::operator-, COMDAT
; _this$ = ecx

; 262  : {

  00000	55		 push	 ebp
  00001	8b ec		 mov	 ebp, esp
  00003	81 ec cc 00 00
	00		 sub	 esp, 204		; 000000ccH
  00009	53		 push	 ebx
  0000a	56		 push	 esi
  0000b	57		 push	 edi
  0000c	51		 push	 ecx
  0000d	8d bd 34 ff ff
	ff		 lea	 edi, DWORD PTR [ebp-204]
  00013	b9 33 00 00 00	 mov	 ecx, 51			; 00000033H
  00018	b8 cc cc cc cc	 mov	 eax, -858993460		; ccccccccH
  0001d	f3 ab		 rep stosd
  0001f	59		 pop	 ecx
  00020	89 4d f8	 mov	 DWORD PTR _this$[ebp], ecx

; 263  :     return D3DXVECTOR3(x - v.x, y - v.y, z - v.z);

  00023	8b 45 f8	 mov	 eax, DWORD PTR _this$[ebp]
  00026	8b 4d 0c	 mov	 ecx, DWORD PTR _v$[ebp]
  00029	d9 40 08	 fld	 DWORD PTR [eax+8]
  0002c	d8 61 08	 fsub	 DWORD PTR [ecx+8]
  0002f	51		 push	 ecx
  00030	d9 1c 24	 fstp	 DWORD PTR [esp]
  00033	8b 55 f8	 mov	 edx, DWORD PTR _this$[ebp]
  00036	8b 45 0c	 mov	 eax, DWORD PTR _v$[ebp]
  00039	d9 42 04	 fld	 DWORD PTR [edx+4]
  0003c	d8 60 04	 fsub	 DWORD PTR [eax+4]
  0003f	51		 push	 ecx
  00040	d9 1c 24	 fstp	 DWORD PTR [esp]
  00043	8b 4d f8	 mov	 ecx, DWORD PTR _this$[ebp]
  00046	8b 55 0c	 mov	 edx, DWORD PTR _v$[ebp]
  00049	d9 01		 fld	 DWORD PTR [ecx]
  0004b	d8 22		 fsub	 DWORD PTR [edx]
  0004d	51		 push	 ecx
  0004e	d9 1c 24	 fstp	 DWORD PTR [esp]
  00051	8b 4d 08	 mov	 ecx, DWORD PTR ___$ReturnUdt$[ebp]
  00054	e8 00 00 00 00	 call	 ??0D3DXVECTOR3@@QAE@MMM@Z ; D3DXVECTOR3::D3DXVECTOR3
  00059	8b 45 08	 mov	 eax, DWORD PTR ___$ReturnUdt$[ebp]

; 264  : }

  0005c	5f		 pop	 edi
  0005d	5e		 pop	 esi
  0005e	5b		 pop	 ebx
  0005f	81 c4 cc 00 00
	00		 add	 esp, 204		; 000000ccH
  00065	3b ec		 cmp	 ebp, esp
  00067	e8 00 00 00 00	 call	 __RTC_CheckEsp
  0006c	8b e5		 mov	 esp, ebp
  0006e	5d		 pop	 ebp
  0006f	c2 08 00	 ret	 8
??GD3DXVECTOR3@@QBE?AU0@ABU0@@Z ENDP			; D3DXVECTOR3::operator-
; Function compile flags: /Odt /RTCsu /ZI
_TEXT	ENDS
;	COMDAT ??D@YA?AUD3DXVECTOR3@@MABU0@@Z
_TEXT	SEGMENT
___$ReturnUdt$ = 8
_f$ = 12
_v$ = 16
??D@YA?AUD3DXVECTOR3@@MABU0@@Z PROC NEAR		; operator*, COMDAT

; 282  : {

  00000	55		 push	 ebp
  00001	8b ec		 mov	 ebp, esp
  00003	81 ec c0 00 00
	00		 sub	 esp, 192		; 000000c0H
  00009	53		 push	 ebx
  0000a	56		 push	 esi
  0000b	57		 push	 edi
  0000c	8d bd 40 ff ff
	ff		 lea	 edi, DWORD PTR [ebp-192]
  00012	b9 30 00 00 00	 mov	 ecx, 48			; 00000030H
  00017	b8 cc cc cc cc	 mov	 eax, -858993460		; ccccccccH
  0001c	f3 ab		 rep stosd

; 283  :     return D3DXVECTOR3(f * v.x, f * v.y, f * v.z);

  0001e	8b 45 10	 mov	 eax, DWORD PTR _v$[ebp]
  00021	d9 45 0c	 fld	 DWORD PTR _f$[ebp]
  00024	d8 48 08	 fmul	 DWORD PTR [eax+8]
  00027	51		 push	 ecx
  00028	d9 1c 24	 fstp	 DWORD PTR [esp]
  0002b	8b 4d 10	 mov	 ecx, DWORD PTR _v$[ebp]
  0002e	d9 45 0c	 fld	 DWORD PTR _f$[ebp]
  00031	d8 49 04	 fmul	 DWORD PTR [ecx+4]
  00034	51		 push	 ecx
  00035	d9 1c 24	 fstp	 DWORD PTR [esp]
  00038	8b 55 10	 mov	 edx, DWORD PTR _v$[ebp]
  0003b	d9 45 0c	 fld	 DWORD PTR _f$[ebp]
  0003e	d8 0a		 fmul	 DWORD PTR [edx]
  00040	51		 push	 ecx
  00041	d9 1c 24	 fstp	 DWORD PTR [esp]
  00044	8b 4d 08	 mov	 ecx, DWORD PTR ___$ReturnUdt$[ebp]
  00047	e8 00 00 00 00	 call	 ??0D3DXVECTOR3@@QAE@MMM@Z ; D3DXVECTOR3::D3DXVECTOR3
  0004c	8b 45 08	 mov	 eax, DWORD PTR ___$ReturnUdt$[ebp]

; 284  : }

  0004f	5f		 pop	 edi
  00050	5e		 pop	 esi
  00051	5b		 pop	 ebx
  00052	81 c4 c0 00 00
	00		 add	 esp, 192		; 000000c0H
  00058	3b ec		 cmp	 ebp, esp
  0005a	e8 00 00 00 00	 call	 __RTC_CheckEsp
  0005f	8b e5		 mov	 esp, ebp
  00061	5d		 pop	 ebp
  00062	c3		 ret	 0
??D@YA?AUD3DXVECTOR3@@MABU0@@Z ENDP			; operator*
; Function compile flags: /Odt /RTCsu /ZI
_TEXT	ENDS
;	COMDAT ??0D3DXCOLOR@@QAE@MMMM@Z
_TEXT	SEGMENT
_this$ = -8
_fr$ = 8
_fg$ = 12
_fb$ = 16
_fa$ = 20
??0D3DXCOLOR@@QAE@MMMM@Z PROC NEAR			; D3DXCOLOR::D3DXCOLOR, COMDAT
; _this$ = ecx

; 919  : {

  00000	55		 push	 ebp
  00001	8b ec		 mov	 ebp, esp
  00003	81 ec cc 00 00
	00		 sub	 esp, 204		; 000000ccH
  00009	53		 push	 ebx
  0000a	56		 push	 esi
  0000b	57		 push	 edi
  0000c	51		 push	 ecx
  0000d	8d bd 34 ff ff
	ff		 lea	 edi, DWORD PTR [ebp-204]
  00013	b9 33 00 00 00	 mov	 ecx, 51			; 00000033H
  00018	b8 cc cc cc cc	 mov	 eax, -858993460		; ccccccccH
  0001d	f3 ab		 rep stosd
  0001f	59		 pop	 ecx
  00020	89 4d f8	 mov	 DWORD PTR _this$[ebp], ecx

; 920  :     r = fr;

  00023	8b 45 f8	 mov	 eax, DWORD PTR _this$[ebp]
  00026	8b 4d 08	 mov	 ecx, DWORD PTR _fr$[ebp]
  00029	89 08		 mov	 DWORD PTR [eax], ecx

; 921  :     g = fg;

  0002b	8b 45 f8	 mov	 eax, DWORD PTR _this$[ebp]
  0002e	8b 4d 0c	 mov	 ecx, DWORD PTR _fg$[ebp]
  00031	89 48 04	 mov	 DWORD PTR [eax+4], ecx

; 922  :     b = fb;

  00034	8b 45 f8	 mov	 eax, DWORD PTR _this$[ebp]
  00037	8b 4d 10	 mov	 ecx, DWORD PTR _fb$[ebp]
  0003a	89 48 08	 mov	 DWORD PTR [eax+8], ecx

; 923  :     a = fa;

  0003d	8b 45 f8	 mov	 eax, DWORD PTR _this$[ebp]
  00040	8b 4d 14	 mov	 ecx, DWORD PTR _fa$[ebp]
  00043	89 48 0c	 mov	 DWORD PTR [eax+12], ecx

; 924  : }

  00046	8b 45 f8	 mov	 eax, DWORD PTR _this$[ebp]
  00049	5f		 pop	 edi
  0004a	5e		 pop	 esi
  0004b	5b		 pop	 ebx
  0004c	8b e5		 mov	 esp, ebp
  0004e	5d		 pop	 ebp
  0004f	c2 10 00	 ret	 16			; 00000010H
??0D3DXCOLOR@@QAE@MMMM@Z ENDP				; D3DXCOLOR::D3DXCOLOR
_TEXT	ENDS
PUBLIC	__real@3f800000
PUBLIC	__real@00000000
PUBLIC	__real@437f0000
PUBLIC	__real@3f000000
EXTRN	__ftol2:NEAR
;	COMDAT __real@3f800000
CONST	SEGMENT
__real@3f800000 DD 03f800000r			; 1
CONST	ENDS
;	COMDAT __real@00000000
CONST	SEGMENT
__real@00000000 DD 000000000r			; 0
CONST	ENDS
;	COMDAT __real@437f0000
CONST	SEGMENT
__real@437f0000 DD 0437f0000r			; 255
CONST	ENDS
;	COMDAT __real@3f000000
CONST	SEGMENT
__real@3f000000 DD 03f000000r			; 0.5
; Function compile flags: /Odt /RTCsu /ZI
CONST	ENDS
;	COMDAT ??BD3DXCOLOR@@QBEKXZ
_TEXT	SEGMENT
tv135 = -260
tv92 = -260
tv81 = -260
tv70 = -260
tv136 = -256
tv93 = -256
tv82 = -256
tv71 = -256
_dwA$ = -56
_dwB$ = -44
_dwG$ = -32
_dwR$ = -20
_this$ = -8
??BD3DXCOLOR@@QBEKXZ PROC NEAR				; D3DXCOLOR::operator unsigned long, COMDAT
; _this$ = ecx

; 930  : {

  00000	55		 push	 ebp
  00001	8b ec		 mov	 ebp, esp
  00003	81 ec 04 01 00
	00		 sub	 esp, 260		; 00000104H
  00009	53		 push	 ebx
  0000a	56		 push	 esi
  0000b	57		 push	 edi
  0000c	51		 push	 ecx
  0000d	8d bd fc fe ff
	ff		 lea	 edi, DWORD PTR [ebp-260]
  00013	b9 41 00 00 00	 mov	 ecx, 65			; 00000041H
  00018	b8 cc cc cc cc	 mov	 eax, -858993460		; ccccccccH
  0001d	f3 ab		 rep stosd
  0001f	59		 pop	 ecx
  00020	89 4d f8	 mov	 DWORD PTR _this$[ebp], ecx

; 931  :     DWORD dwR = r >= 1.0f ? 0xff : r <= 0.0f ? 0x00 : (DWORD) (r * 255.0f + 0.5f);

  00023	8b 45 f8	 mov	 eax, DWORD PTR _this$[ebp]
  00026	d9 00		 fld	 DWORD PTR [eax]
  00028	d8 1d 00 00 00
	00		 fcomp	 DWORD PTR __real@3f800000
  0002e	df e0		 fnstsw	 ax
  00030	f6 c4 01	 test	 ah, 1
  00033	75 0c		 jne	 SHORT $L85113
  00035	c7 85 00 ff ff
	ff ff 00 00 00	 mov	 DWORD PTR tv71[ebp], 255 ; 000000ffH
  0003f	eb 46		 jmp	 SHORT $L85114
$L85113:
  00041	8b 4d f8	 mov	 ecx, DWORD PTR _this$[ebp]
  00044	d9 01		 fld	 DWORD PTR [ecx]
  00046	d8 1d 00 00 00
	00		 fcomp	 DWORD PTR __real@00000000
  0004c	df e0		 fnstsw	 ax
  0004e	f6 c4 41	 test	 ah, 65			; 00000041H
  00051	7a 0c		 jp	 SHORT $L85111
  00053	c7 85 fc fe ff
	ff 00 00 00 00	 mov	 DWORD PTR tv70[ebp], 0
  0005d	eb 1c		 jmp	 SHORT $L85112
$L85111:
  0005f	8b 55 f8	 mov	 edx, DWORD PTR _this$[ebp]
  00062	d9 02		 fld	 DWORD PTR [edx]
  00064	d8 0d 00 00 00
	00		 fmul	 DWORD PTR __real@437f0000
  0006a	d8 05 00 00 00
	00		 fadd	 DWORD PTR __real@3f000000
  00070	e8 00 00 00 00	 call	 __ftol2
  00075	89 85 fc fe ff
	ff		 mov	 DWORD PTR tv70[ebp], eax
$L85112:
  0007b	8b 85 fc fe ff
	ff		 mov	 eax, DWORD PTR tv70[ebp]
  00081	89 85 00 ff ff
	ff		 mov	 DWORD PTR tv71[ebp], eax
$L85114:
  00087	8b 8d 00 ff ff
	ff		 mov	 ecx, DWORD PTR tv71[ebp]
  0008d	89 4d ec	 mov	 DWORD PTR _dwR$[ebp], ecx

; 932  :     DWORD dwG = g >= 1.0f ? 0xff : g <= 0.0f ? 0x00 : (DWORD) (g * 255.0f + 0.5f);

  00090	8b 45 f8	 mov	 eax, DWORD PTR _this$[ebp]
  00093	d9 40 04	 fld	 DWORD PTR [eax+4]
  00096	d8 1d 00 00 00
	00		 fcomp	 DWORD PTR __real@3f800000
  0009c	df e0		 fnstsw	 ax
  0009e	f6 c4 01	 test	 ah, 1
  000a1	75 0c		 jne	 SHORT $L85117
  000a3	c7 85 00 ff ff
	ff ff 00 00 00	 mov	 DWORD PTR tv82[ebp], 255 ; 000000ffH
  000ad	eb 48		 jmp	 SHORT $L85118
$L85117:
  000af	8b 4d f8	 mov	 ecx, DWORD PTR _this$[ebp]
  000b2	d9 41 04	 fld	 DWORD PTR [ecx+4]
  000b5	d8 1d 00 00 00
	00		 fcomp	 DWORD PTR __real@00000000
  000bb	df e0		 fnstsw	 ax
  000bd	f6 c4 41	 test	 ah, 65			; 00000041H
  000c0	7a 0c		 jp	 SHORT $L85115
  000c2	c7 85 fc fe ff
	ff 00 00 00 00	 mov	 DWORD PTR tv81[ebp], 0
  000cc	eb 1d		 jmp	 SHORT $L85116
$L85115:
  000ce	8b 55 f8	 mov	 edx, DWORD PTR _this$[ebp]
  000d1	d9 42 04	 fld	 DWORD PTR [edx+4]
  000d4	d8 0d 00 00 00
	00		 fmul	 DWORD PTR __real@437f0000
  000da	d8 05 00 00 00
	00		 fadd	 DWORD PTR __real@3f000000
  000e0	e8 00 00 00 00	 call	 __ftol2
  000e5	89 85 fc fe ff
	ff		 mov	 DWORD PTR tv81[ebp], eax
$L85116:
  000eb	8b 85 fc fe ff
	ff		 mov	 eax, DWORD PTR tv81[ebp]
  000f1	89 85 00 ff ff
	ff		 mov	 DWORD PTR tv82[ebp], eax
$L85118:
  000f7	8b 8d 00 ff ff
	ff		 mov	 ecx, DWORD PTR tv82[ebp]
  000fd	89 4d e0	 mov	 DWORD PTR _dwG$[ebp], ecx

; 933  :     DWORD dwB = b >= 1.0f ? 0xff : b <= 0.0f ? 0x00 : (DWORD) (b * 255.0f + 0.5f);

  00100	8b 45 f8	 mov	 eax, DWORD PTR _this$[ebp]
  00103	d9 40 08	 fld	 DWORD PTR [eax+8]
  00106	d8 1d 00 00 00
	00		 fcomp	 DWORD PTR __real@3f800000
  0010c	df e0		 fnstsw	 ax
  0010e	f6 c4 01	 test	 ah, 1
  00111	75 0c		 jne	 SHORT $L85121
  00113	c7 85 00 ff ff
	ff ff 00 00 00	 mov	 DWORD PTR tv93[ebp], 255 ; 000000ffH
  0011d	eb 48		 jmp	 SHORT $L85122
$L85121:
  0011f	8b 4d f8	 mov	 ecx, DWORD PTR _this$[ebp]
  00122	d9 41 08	 fld	 DWORD PTR [ecx+8]
  00125	d8 1d 00 00 00
	00		 fcomp	 DWORD PTR __real@00000000
  0012b	df e0		 fnstsw	 ax
  0012d	f6 c4 41	 test	 ah, 65			; 00000041H
  00130	7a 0c		 jp	 SHORT $L85119
  00132	c7 85 fc fe ff
	ff 00 00 00 00	 mov	 DWORD PTR tv92[ebp], 0
  0013c	eb 1d		 jmp	 SHORT $L85120
$L85119:
  0013e	8b 55 f8	 mov	 edx, DWORD PTR _this$[ebp]
  00141	d9 42 08	 fld	 DWORD PTR [edx+8]
  00144	d8 0d 00 00 00
	00		 fmul	 DWORD PTR __real@437f0000
  0014a	d8 05 00 00 00
	00		 fadd	 DWORD PTR __real@3f000000
  00150	e8 00 00 00 00	 call	 __ftol2
  00155	89 85 fc fe ff
	ff		 mov	 DWORD PTR tv92[ebp], eax
$L85120:
  0015b	8b 85 fc fe ff
	ff		 mov	 eax, DWORD PTR tv92[ebp]
  00161	89 85 00 ff ff
	ff		 mov	 DWORD PTR tv93[ebp], eax
$L85122:
  00167	8b 8d 00 ff ff
	ff		 mov	 ecx, DWORD PTR tv93[ebp]
  0016d	89 4d d4	 mov	 DWORD PTR _dwB$[ebp], ecx

; 934  :     DWORD dwA = a >= 1.0f ? 0xff : a <= 0.0f ? 0x00 : (DWORD) (a * 255.0f + 0.5f);

  00170	8b 45 f8	 mov	 eax, DWORD PTR _this$[ebp]
  00173	d9 40 0c	 fld	 DWORD PTR [eax+12]
  00176	d8 1d 00 00 00
	00		 fcomp	 DWORD PTR __real@3f800000
  0017c	df e0		 fnstsw	 ax
  0017e	f6 c4 01	 test	 ah, 1
  00181	75 0c		 jne	 SHORT $L85125
  00183	c7 85 00 ff ff
	ff ff 00 00 00	 mov	 DWORD PTR tv136[ebp], 255 ; 000000ffH
  0018d	eb 48		 jmp	 SHORT $L85126
$L85125:
  0018f	8b 4d f8	 mov	 ecx, DWORD PTR _this$[ebp]
  00192	d9 41 0c	 fld	 DWORD PTR [ecx+12]
  00195	d8 1d 00 00 00
	00		 fcomp	 DWORD PTR __real@00000000
  0019b	df e0		 fnstsw	 ax
  0019d	f6 c4 41	 test	 ah, 65			; 00000041H
  001a0	7a 0c		 jp	 SHORT $L85123
  001a2	c7 85 fc fe ff
	ff 00 00 00 00	 mov	 DWORD PTR tv135[ebp], 0
  001ac	eb 1d		 jmp	 SHORT $L85124
$L85123:
  001ae	8b 55 f8	 mov	 edx, DWORD PTR _this$[ebp]
  001b1	d9 42 0c	 fld	 DWORD PTR [edx+12]
  001b4	d8 0d 00 00 00
	00		 fmul	 DWORD PTR __real@437f0000
  001ba	d8 05 00 00 00
	00		 fadd	 DWORD PTR __real@3f000000
  001c0	e8 00 00 00 00	 call	 __ftol2
  001c5	89 85 fc fe ff
	ff		 mov	 DWORD PTR tv135[ebp], eax
$L85124:
  001cb	8b 85 fc fe ff
	ff		 mov	 eax, DWORD PTR tv135[ebp]
  001d1	89 85 00 ff ff
	ff		 mov	 DWORD PTR tv136[ebp], eax
$L85126:
  001d7	8b 8d 00 ff ff
	ff		 mov	 ecx, DWORD PTR tv136[ebp]
  001dd	89 4d c8	 mov	 DWORD PTR _dwA$[ebp], ecx

; 935  : 
; 936  :     return (dwA << 24) | (dwR << 16) | (dwG << 8) | dwB;

  001e0	8b 45 c8	 mov	 eax, DWORD PTR _dwA$[ebp]
  001e3	c1 e0 18	 shl	 eax, 24			; 00000018H
  001e6	8b 4d ec	 mov	 ecx, DWORD PTR _dwR$[ebp]
  001e9	c1 e1 10	 shl	 ecx, 16			; 00000010H
  001ec	0b c1		 or	 eax, ecx
  001ee	8b 55 e0	 mov	 edx, DWORD PTR _dwG$[ebp]
  001f1	c1 e2 08	 shl	 edx, 8
  001f4	0b c2		 or	 eax, edx
  001f6	0b 45 d4	 or	 eax, DWORD PTR _dwB$[ebp]

; 937  : }

  001f9	5f		 pop	 edi
  001fa	5e		 pop	 esi
  001fb	5b		 pop	 ebx
  001fc	8b e5		 mov	 esp, ebp
  001fe	5d		 pop	 ebp
  001ff	c3		 ret	 0
??BD3DXCOLOR@@QBEKXZ ENDP				; D3DXCOLOR::operator unsigned long
; Function compile flags: /Odt /RTCsu /ZI
_TEXT	ENDS
;	COMDAT ?D3DXVec3Dot@@YAMPBUD3DXVECTOR3@@0@Z
_TEXT	SEGMENT
_pV1$ = 8
_pV2$ = 12
?D3DXVec3Dot@@YAMPBUD3DXVECTOR3@@0@Z PROC NEAR		; D3DXVec3Dot, COMDAT

; 1258 : {

  00000	55		 push	 ebp
  00001	8b ec		 mov	 ebp, esp
  00003	81 ec c0 00 00
	00		 sub	 esp, 192		; 000000c0H
  00009	53		 push	 ebx
  0000a	56		 push	 esi
  0000b	57		 push	 edi
  0000c	8d bd 40 ff ff
	ff		 lea	 edi, DWORD PTR [ebp-192]
  00012	b9 30 00 00 00	 mov	 ecx, 48			; 00000030H
  00017	b8 cc cc cc cc	 mov	 eax, -858993460		; ccccccccH
  0001c	f3 ab		 rep stosd

; 1259 : #ifdef D3DX_DEBUG
; 1260 :     if(!pV1 || !pV2)
; 1261 :         return 0.0f;
; 1262 : #endif
; 1263 : 
; 1264 :     return pV1->x * pV2->x + pV1->y * pV2->y + pV1->z * pV2->z;

  0001e	8b 45 08	 mov	 eax, DWORD PTR _pV1$[ebp]
  00021	8b 4d 0c	 mov	 ecx, DWORD PTR _pV2$[ebp]
  00024	d9 00		 fld	 DWORD PTR [eax]
  00026	d8 09		 fmul	 DWORD PTR [ecx]
  00028	8b 55 08	 mov	 edx, DWORD PTR _pV1$[ebp]
  0002b	8b 45 0c	 mov	 eax, DWORD PTR _pV2$[ebp]
  0002e	d9 42 04	 fld	 DWORD PTR [edx+4]
  00031	d8 48 04	 fmul	 DWORD PTR [eax+4]
  00034	de c1		 faddp	 ST(1), ST(0)
  00036	8b 4d 08	 mov	 ecx, DWORD PTR _pV1$[ebp]
  00039	8b 55 0c	 mov	 edx, DWORD PTR _pV2$[ebp]
  0003c	d9 41 08	 fld	 DWORD PTR [ecx+8]
  0003f	d8 4a 08	 fmul	 DWORD PTR [edx+8]
  00042	de c1		 faddp	 ST(1), ST(0)

; 1265 : }

  00044	5f		 pop	 edi
  00045	5e		 pop	 esi
  00046	5b		 pop	 ebx
  00047	8b e5		 mov	 esp, ebp
  00049	5d		 pop	 ebp
  0004a	c3		 ret	 0
?D3DXVec3Dot@@YAMPBUD3DXVECTOR3@@0@Z ENDP		; D3DXVec3Dot
; Function compile flags: /Odt /RTCsu /ZI
_TEXT	ENDS
;	COMDAT ?D3DXVec3Cross@@YAPAUD3DXVECTOR3@@PAU1@PBU1@1@Z
_TEXT	SEGMENT
_v$ = -16
_pOut$ = 8
_pV1$ = 12
_pV2$ = 16
?D3DXVec3Cross@@YAPAUD3DXVECTOR3@@PAU1@PBU1@1@Z PROC NEAR ; D3DXVec3Cross, COMDAT

; 1269 : {

  00000	55		 push	 ebp
  00001	8b ec		 mov	 ebp, esp
  00003	81 ec d4 00 00
	00		 sub	 esp, 212		; 000000d4H
  00009	53		 push	 ebx
  0000a	56		 push	 esi
  0000b	57		 push	 edi
  0000c	8d bd 2c ff ff
	ff		 lea	 edi, DWORD PTR [ebp-212]
  00012	b9 35 00 00 00	 mov	 ecx, 53			; 00000035H
  00017	b8 cc cc cc cc	 mov	 eax, -858993460		; ccccccccH
  0001c	f3 ab		 rep stosd

; 1270 :     D3DXVECTOR3 v;

  0001e	8d 4d f0	 lea	 ecx, DWORD PTR _v$[ebp]
  00021	e8 00 00 00 00	 call	 ??0D3DXVECTOR3@@QAE@XZ	; D3DXVECTOR3::D3DXVECTOR3

; 1271 : 
; 1272 : #ifdef D3DX_DEBUG
; 1273 :     if(!pOut || !pV1 || !pV2)
; 1274 :         return NULL;
; 1275 : #endif
; 1276 : 
; 1277 :     v.x = pV1->y * pV2->z - pV1->z * pV2->y;

  00026	8b 45 0c	 mov	 eax, DWORD PTR _pV1$[ebp]
  00029	8b 4d 10	 mov	 ecx, DWORD PTR _pV2$[ebp]
  0002c	d9 40 04	 fld	 DWORD PTR [eax+4]
  0002f	d8 49 08	 fmul	 DWORD PTR [ecx+8]
  00032	8b 55 0c	 mov	 edx, DWORD PTR _pV1$[ebp]
  00035	8b 45 10	 mov	 eax, DWORD PTR _pV2$[ebp]
  00038	d9 42 08	 fld	 DWORD PTR [edx+8]
  0003b	d8 48 04	 fmul	 DWORD PTR [eax+4]
  0003e	de e9		 fsubp	 ST(1), ST(0)
  00040	d9 5d f0	 fstp	 DWORD PTR _v$[ebp]

; 1278 :     v.y = pV1->z * pV2->x - pV1->x * pV2->z;

  00043	8b 45 0c	 mov	 eax, DWORD PTR _pV1$[ebp]
  00046	8b 4d 10	 mov	 ecx, DWORD PTR _pV2$[ebp]
  00049	d9 40 08	 fld	 DWORD PTR [eax+8]
  0004c	d8 09		 fmul	 DWORD PTR [ecx]
  0004e	8b 55 0c	 mov	 edx, DWORD PTR _pV1$[ebp]
  00051	8b 45 10	 mov	 eax, DWORD PTR _pV2$[ebp]
  00054	d9 02		 fld	 DWORD PTR [edx]
  00056	d8 48 08	 fmul	 DWORD PTR [eax+8]
  00059	de e9		 fsubp	 ST(1), ST(0)
  0005b	d9 5d f4	 fstp	 DWORD PTR _v$[ebp+4]

; 1279 :     v.z = pV1->x * pV2->y - pV1->y * pV2->x;

  0005e	8b 45 0c	 mov	 eax, DWORD PTR _pV1$[ebp]
  00061	8b 4d 10	 mov	 ecx, DWORD PTR _pV2$[ebp]
  00064	d9 00		 fld	 DWORD PTR [eax]
  00066	d8 49 04	 fmul	 DWORD PTR [ecx+4]
  00069	8b 55 0c	 mov	 edx, DWORD PTR _pV1$[ebp]
  0006c	8b 45 10	 mov	 eax, DWORD PTR _pV2$[ebp]
  0006f	d9 42 04	 fld	 DWORD PTR [edx+4]
  00072	d8 08		 fmul	 DWORD PTR [eax]
  00074	de e9		 fsubp	 ST(1), ST(0)
  00076	d9 5d f8	 fstp	 DWORD PTR _v$[ebp+8]

; 1280 : 
; 1281 :     *pOut = v;

  00079	8b 45 08	 mov	 eax, DWORD PTR _pOut$[ebp]
  0007c	8b 4d f0	 mov	 ecx, DWORD PTR _v$[ebp]
  0007f	89 08		 mov	 DWORD PTR [eax], ecx
  00081	8b 55 f4	 mov	 edx, DWORD PTR _v$[ebp+4]
  00084	89 50 04	 mov	 DWORD PTR [eax+4], edx
  00087	8b 4d f8	 mov	 ecx, DWORD PTR _v$[ebp+8]
  0008a	89 48 08	 mov	 DWORD PTR [eax+8], ecx

; 1282 :     return pOut;

  0008d	8b 45 08	 mov	 eax, DWORD PTR _pOut$[ebp]

; 1283 : }

  00090	52		 push	 edx
  00091	8b cd		 mov	 ecx, ebp
  00093	50		 push	 eax
  00094	8d 15 00 00 00
	00		 lea	 edx, DWORD PTR $L85142
  0009a	e8 00 00 00 00	 call	 @_RTC_CheckStackVars@8
  0009f	58		 pop	 eax
  000a0	5a		 pop	 edx
  000a1	5f		 pop	 edi
  000a2	5e		 pop	 esi
  000a3	5b		 pop	 ebx
  000a4	81 c4 d4 00 00
	00		 add	 esp, 212		; 000000d4H
  000aa	3b ec		 cmp	 ebp, esp
  000ac	e8 00 00 00 00	 call	 __RTC_CheckEsp
  000b1	8b e5		 mov	 esp, ebp
  000b3	5d		 pop	 ebp
  000b4	c3		 ret	 0
$L85142:
  000b5	01 00 00 00	 DD	 1
  000b9	00 00 00 00	 DD	 $L85141
$L85141:
  000bd	f0 ff ff ff	 DD	 -16			; fffffff0H
  000c1	0c 00 00 00	 DD	 12			; 0000000cH
  000c5	00 00 00 00	 DD	 $L85140
$L85140:
  000c9	76		 DB	 118			; 00000076H
  000ca	00		 DB	 0
?D3DXVec3Cross@@YAPAUD3DXVECTOR3@@PAU1@PBU1@1@Z ENDP	; D3DXVec3Cross
; Function compile flags: /Odt /RTCsu /ZI
; File c:\documents and settings\dom\my documents\_dev\ae\xlr8a\x7g\x7_primitives.h
_TEXT	ENDS
;	COMDAT ??0COLOREDVERTEX@@QAE@XZ
_TEXT	SEGMENT
_this$ = -8
??0COLOREDVERTEX@@QAE@XZ PROC NEAR			; COLOREDVERTEX::COLOREDVERTEX, COMDAT
; _this$ = ecx

; 222  :     COLOREDVERTEX() {} ;

  00000	55		 push	 ebp
  00001	8b ec		 mov	 ebp, esp
  00003	81 ec cc 00 00
	00		 sub	 esp, 204		; 000000ccH
  00009	53		 push	 ebx
  0000a	56		 push	 esi
  0000b	57		 push	 edi
  0000c	51		 push	 ecx
  0000d	8d bd 34 ff ff
	ff		 lea	 edi, DWORD PTR [ebp-204]
  00013	b9 33 00 00 00	 mov	 ecx, 51			; 00000033H
  00018	b8 cc cc cc cc	 mov	 eax, -858993460		; ccccccccH
  0001d	f3 ab		 rep stosd
  0001f	59		 pop	 ecx
  00020	89 4d f8	 mov	 DWORD PTR _this$[ebp], ecx
  00023	8b 45 f8	 mov	 eax, DWORD PTR _this$[ebp]
  00026	5f		 pop	 edi
  00027	5e		 pop	 esi
  00028	5b		 pop	 ebx
  00029	8b e5		 mov	 esp, ebp
  0002b	5d		 pop	 ebp
  0002c	c3		 ret	 0
??0COLOREDVERTEX@@QAE@XZ ENDP				; COLOREDVERTEX::COLOREDVERTEX
; Function compile flags: /Odt /RTCsu /ZI
_TEXT	ENDS
;	COMDAT ??0COLOREDVERTEX@@QAE@MMMMMKK@Z
_TEXT	SEGMENT
_this$ = -8
___x$ = 8
___y$ = 12
___z$ = 16
___tu1$ = 20
___tv1$ = 24
_c$ = 28
_s$ = 32
??0COLOREDVERTEX@@QAE@MMMMMKK@Z PROC NEAR		; COLOREDVERTEX::COLOREDVERTEX, COMDAT
; _this$ = ecx

; 229  :     COLOREDVERTEX(FLOAT __x, FLOAT __y, FLOAT __z, FLOAT __tu1, FLOAT __tv1, DWORD c, DWORD s)

  00000	55		 push	 ebp
  00001	8b ec		 mov	 ebp, esp
  00003	81 ec cc 00 00
	00		 sub	 esp, 204		; 000000ccH
  00009	53		 push	 ebx
  0000a	56		 push	 esi
  0000b	57		 push	 edi
  0000c	51		 push	 ecx
  0000d	8d bd 34 ff ff
	ff		 lea	 edi, DWORD PTR [ebp-204]
  00013	b9 33 00 00 00	 mov	 ecx, 51			; 00000033H
  00018	b8 cc cc cc cc	 mov	 eax, -858993460		; ccccccccH
  0001d	f3 ab		 rep stosd
  0001f	59		 pop	 ecx
  00020	89 4d f8	 mov	 DWORD PTR _this$[ebp], ecx

; 230  : 	{
; 231  : 		x = __x; y = __y; z = __z;

  00023	8b 45 f8	 mov	 eax, DWORD PTR _this$[ebp]
  00026	8b 4d 08	 mov	 ecx, DWORD PTR ___x$[ebp]
  00029	89 08		 mov	 DWORD PTR [eax], ecx
  0002b	8b 45 f8	 mov	 eax, DWORD PTR _this$[ebp]
  0002e	8b 4d 0c	 mov	 ecx, DWORD PTR ___y$[ebp]
  00031	89 48 04	 mov	 DWORD PTR [eax+4], ecx
  00034	8b 45 f8	 mov	 eax, DWORD PTR _this$[ebp]
  00037	8b 4d 10	 mov	 ecx, DWORD PTR ___z$[ebp]
  0003a	89 48 08	 mov	 DWORD PTR [eax+8], ecx

; 232  : 		tu1 = __tu1 ; tv1 = __tv1 ;

  0003d	8b 45 f8	 mov	 eax, DWORD PTR _this$[ebp]
  00040	8b 4d 14	 mov	 ecx, DWORD PTR ___tu1$[ebp]
  00043	89 48 14	 mov	 DWORD PTR [eax+20], ecx
  00046	8b 45 f8	 mov	 eax, DWORD PTR _this$[ebp]
  00049	8b 4d 18	 mov	 ecx, DWORD PTR ___tv1$[ebp]
  0004c	89 48 18	 mov	 DWORD PTR [eax+24], ecx

; 233  : 		color = c ;

  0004f	8b 45 f8	 mov	 eax, DWORD PTR _this$[ebp]
  00052	8b 4d 1c	 mov	 ecx, DWORD PTR _c$[ebp]
  00055	89 48 0c	 mov	 DWORD PTR [eax+12], ecx

; 234  : 		specular = s ;

  00058	8b 45 f8	 mov	 eax, DWORD PTR _this$[ebp]
  0005b	8b 4d 20	 mov	 ecx, DWORD PTR _s$[ebp]
  0005e	89 48 10	 mov	 DWORD PTR [eax+16], ecx

; 235  : 	}

  00061	8b 45 f8	 mov	 eax, DWORD PTR _this$[ebp]
  00064	5f		 pop	 edi
  00065	5e		 pop	 esi
  00066	5b		 pop	 ebx
  00067	8b e5		 mov	 esp, ebp
  00069	5d		 pop	 ebp
  0006a	c2 1c 00	 ret	 28			; 0000001cH
??0COLOREDVERTEX@@QAE@MMMMMKK@Z ENDP			; COLOREDVERTEX::COLOREDVERTEX
_TEXT	ENDS
END
