; Listing generated by Microsoft (R) Optimizing Compiler Version 13.00.9466 

	TITLE	CBotFighter.cpp
	.386P
include listing.inc
if @Version gt 510
.model FLAT
else
_TEXT	SEGMENT PARA USE32 PUBLIC 'CODE'
_TEXT	ENDS
_DATA	SEGMENT DWORD USE32 PUBLIC 'DATA'
_DATA	ENDS
CONST	SEGMENT DWORD USE32 PUBLIC 'CONST'
CONST	ENDS
_BSS	SEGMENT DWORD USE32 PUBLIC 'BSS'
_BSS	ENDS
$$SYMBOLS	SEGMENT BYTE USE32 'DEBSYM'
$$SYMBOLS	ENDS
$$TYPES	SEGMENT BYTE USE32 'DEBTYP'
$$TYPES	ENDS
_TLS	SEGMENT DWORD USE32 PUBLIC 'TLS'
_TLS	ENDS
;	COMDAT ??_C@_0CD@DLEOBMGB@CBotFighter?3?3RestoreDeviceObject@
CONST	SEGMENT DWORD USE32 PUBLIC 'CONST'
CONST	ENDS
;	COMDAT _IsEqualGUID
_TEXT	SEGMENT PARA USE32 PUBLIC 'CODE'
_TEXT	ENDS
;	COMDAT _==
_TEXT	SEGMENT PARA USE32 PUBLIC 'CODE'
_TEXT	ENDS
;	COMDAT _fabsf
_TEXT	SEGMENT PARA USE32 PUBLIC 'CODE'
_TEXT	ENDS
;	COMDAT _sqrtf
_TEXT	SEGMENT PARA USE32 PUBLIC 'CODE'
_TEXT	ENDS
;	COMDAT ??0D3DXVECTOR3@@QAE@XZ
_TEXT	SEGMENT PARA USE32 PUBLIC 'CODE'
_TEXT	ENDS
;	COMDAT ??0D3DXMATRIX@@QAE@XZ
_TEXT	SEGMENT PARA USE32 PUBLIC 'CODE'
_TEXT	ENDS
;	COMDAT ??0D3DXQUATERNION@@QAE@XZ
_TEXT	SEGMENT PARA USE32 PUBLIC 'CODE'
_TEXT	ENDS
;	COMDAT ??0D3DXPLANE@@QAE@XZ
_TEXT	SEGMENT PARA USE32 PUBLIC 'CODE'
_TEXT	ENDS
;	COMDAT ??0D3DXVECTOR2@@QAE@MM@Z
_TEXT	SEGMENT PARA USE32 PUBLIC 'CODE'
_TEXT	ENDS
;	COMDAT ??0D3DXVECTOR3@@QAE@MMM@Z
_TEXT	SEGMENT PARA USE32 PUBLIC 'CODE'
_TEXT	ENDS
;	COMDAT ??HD3DXVECTOR3@@QBE?AU0@ABU0@@Z
_TEXT	SEGMENT PARA USE32 PUBLIC 'CODE'
_TEXT	ENDS
;	COMDAT ??GD3DXVECTOR3@@QBE?AU0@ABU0@@Z
_TEXT	SEGMENT PARA USE32 PUBLIC 'CODE'
_TEXT	ENDS
;	COMDAT ??DD3DXVECTOR3@@QBE?AU0@M@Z
_TEXT	SEGMENT PARA USE32 PUBLIC 'CODE'
_TEXT	ENDS
;	COMDAT ??0D3DXVECTOR4@@QAE@MMMM@Z
_TEXT	SEGMENT PARA USE32 PUBLIC 'CODE'
_TEXT	ENDS
;	COMDAT ??0D3DXMATRIX@@QAE@PBM@Z
_TEXT	SEGMENT PARA USE32 PUBLIC 'CODE'
_TEXT	ENDS
;	COMDAT ??0D3DXMATRIX@@QAE@ABU_D3DMATRIX@@@Z
_TEXT	SEGMENT PARA USE32 PUBLIC 'CODE'
_TEXT	ENDS
;	COMDAT ??0D3DXMATRIX@@QAE@MMMMMMMMMMMMMMMM@Z
_TEXT	SEGMENT PARA USE32 PUBLIC 'CODE'
_TEXT	ENDS
;	COMDAT ??0D3DXQUATERNION@@QAE@MMMM@Z
_TEXT	SEGMENT PARA USE32 PUBLIC 'CODE'
_TEXT	ENDS
;	COMDAT ??0D3DXPLANE@@QAE@MMMM@Z
_TEXT	SEGMENT PARA USE32 PUBLIC 'CODE'
_TEXT	ENDS
;	COMDAT ??0D3DXCOLOR@@QAE@MMMM@Z
_TEXT	SEGMENT PARA USE32 PUBLIC 'CODE'
_TEXT	ENDS
;	COMDAT ?D3DXVec3Length@@YAMPBUD3DXVECTOR3@@@Z
_TEXT	SEGMENT PARA USE32 PUBLIC 'CODE'
_TEXT	ENDS
;	COMDAT ?D3DXPlaneDotNormal@@YAMPBUD3DXPLANE@@PBUD3DXVECTOR3@@@Z
_TEXT	SEGMENT PARA USE32 PUBLIC 'CODE'
_TEXT	ENDS
;	COMDAT ??0CBotFighter@@QAE@MHHMPAURENDER_DATA_INFO@CFileRenderObject@@@Z
_TEXT	SEGMENT PARA USE32 PUBLIC 'CODE'
_TEXT	ENDS
;	COMDAT ??1CBotFighter@@QAE@XZ
_TEXT	SEGMENT PARA USE32 PUBLIC 'CODE'
_TEXT	ENDS
;	COMDAT ?FC_Set@CBotFighter@@QAEXPAUIDirect3DDevice8@@PAVCRace@@M@Z
_TEXT	SEGMENT PARA USE32 PUBLIC 'CODE'
_TEXT	ENDS
;	COMDAT ?FC_Zero@CBotFighter@@QAEXXZ
_TEXT	SEGMENT PARA USE32 PUBLIC 'CODE'
_TEXT	ENDS
;	COMDAT ?FC_AlignWithTarget@CBotFighter@@QAEXABUD3DXVECTOR3@@PAM1M@Z
_TEXT	SEGMENT PARA USE32 PUBLIC 'CODE'
_TEXT	ENDS
;	COMDAT ?FrameMove@CBotFighter@@QAEHPAUIDirect3DDevice8@@PAVCUserInput@@MPAVCCamera@@PAUD3DXMATRIX@@PAU_D3DVIEWPORT8@@HPAVCTerrain@@HMPAVCRace@@@Z
_TEXT	SEGMENT PARA USE32 PUBLIC 'CODE'
_TEXT	ENDS
;	COMDAT ?RestoreDeviceObjects@CBotFighter@@QAEJPAUIDirect3D8@@PAUIDirect3DDevice8@@PAVCScreenOverlayManager@@PAVCTextures@@M@Z
_TEXT	SEGMENT PARA USE32 PUBLIC 'CODE'
_TEXT	ENDS
;	COMDAT ?InvalidateDeviceObjects@CBotFighter@@QAEJPAUIDirect3DDevice8@@@Z
_TEXT	SEGMENT PARA USE32 PUBLIC 'CODE'
_TEXT	ENDS
FLAT	GROUP _DATA, CONST, _BSS
	ASSUME	CS: FLAT, DS: FLAT, SS: FLAT
endif

INCLUDELIB LIBCMTD
INCLUDELIB OLDNAMES

CONST	SEGMENT
_g_PI	DD	040490fdbr			; 3.14159
CONST	ENDS
PUBLIC	??0CBotFighter@@QAE@MHHMPAURENDER_DATA_INFO@CFileRenderObject@@@Z ; CBotFighter::CBotFighter
PUBLIC	__real@3e800000
PUBLIC	__real@3f400000
EXTRN	??0CFighter@@QAE@MHMPAURENDER_DATA_INFO@CFileRenderObject@@H@Z:NEAR ; CFighter::CFighter
EXTRN	?rnd@@YAMXZ:NEAR				; rnd
EXTRN	__RTC_InitBase:NEAR
EXTRN	__RTC_Shutdown:NEAR
EXTRN	__RTC_CheckEsp:NEAR
EXTRN	__fltused:NEAR
;	COMDAT rtc$IMZ
; File c:\documents and settings\dom\my documents\_dev\ae\xlr8a\x7g\cbotfighter.cpp
rtc$IMZ	SEGMENT
__RTC_InitBase.rtc$IMZ DD FLAT:__RTC_InitBase
rtc$IMZ	ENDS
;	COMDAT rtc$TMZ
rtc$TMZ	SEGMENT
__RTC_Shutdown.rtc$TMZ DD FLAT:__RTC_Shutdown
rtc$TMZ	ENDS
;	COMDAT __real@3e800000
CONST	SEGMENT
__real@3e800000 DD 03e800000r			; 0.25
CONST	ENDS
;	COMDAT __real@3f400000
CONST	SEGMENT
__real@3f400000 DD 03f400000r			; 0.75
; Function compile flags: /Odt /RTCsu /ZI
CONST	ENDS
;	COMDAT ??0CBotFighter@@QAE@MHHMPAURENDER_DATA_INFO@CFileRenderObject@@@Z
_TEXT	SEGMENT
_this$ = -8
_fSkill$ = 8
_nLevel$ = 12
_ftType$ = 16
_fMyBSRadius$ = 20
_pSharedRenderData$ = 24
??0CBotFighter@@QAE@MHHMPAURENDER_DATA_INFO@CFileRenderObject@@@Z PROC NEAR ; CBotFighter::CBotFighter, COMDAT
; _this$ = ecx

; 15   : 	{

  00000	55		 push	 ebp
  00001	8b ec		 mov	 ebp, esp
  00003	81 ec cc 00 00
	00		 sub	 esp, 204		; 000000ccH
  00009	53		 push	 ebx
  0000a	56		 push	 esi
  0000b	57		 push	 edi
  0000c	51		 push	 ecx
  0000d	8d bd 34 ff ff
	ff		 lea	 edi, DWORD PTR [ebp-204]
  00013	b9 33 00 00 00	 mov	 ecx, 51			; 00000033H
  00018	b8 cc cc cc cc	 mov	 eax, -858993460		; ccccccccH
  0001d	f3 ab		 rep stosd
  0001f	59		 pop	 ecx
  00020	89 4d f8	 mov	 DWORD PTR _this$[ebp], ecx
  00023	6a 00		 push	 0
  00025	8b 45 18	 mov	 eax, DWORD PTR _pSharedRenderData$[ebp]
  00028	50		 push	 eax
  00029	8b 4d 14	 mov	 ecx, DWORD PTR _fMyBSRadius$[ebp]
  0002c	51		 push	 ecx
  0002d	8b 55 10	 mov	 edx, DWORD PTR _ftType$[ebp]
  00030	52		 push	 edx
  00031	8b 45 08	 mov	 eax, DWORD PTR _fSkill$[ebp]
  00034	50		 push	 eax
  00035	8b 4d f8	 mov	 ecx, DWORD PTR _this$[ebp]
  00038	e8 00 00 00 00	 call	 ??0CFighter@@QAE@MHMPAURENDER_DATA_INFO@CFileRenderObject@@H@Z ; CFighter::CFighter

; 16   : 		m_fDistanceToTargetLastFrame = 0 ;

  0003d	8b 45 f8	 mov	 eax, DWORD PTR _this$[ebp]
  00040	c7 80 98 03 00
	00 00 00 00 00	 mov	 DWORD PTR [eax+920], 0

; 17   : 		
; 18   : 		m_fThrustMagSkillModifier = 0.75f + rnd()*0.25f + fSkill ;

  0004a	e8 00 00 00 00	 call	 ?rnd@@YAMXZ		; rnd
  0004f	d8 0d 00 00 00
	00		 fmul	 DWORD PTR __real@3e800000
  00055	d8 05 00 00 00
	00		 fadd	 DWORD PTR __real@3f400000
  0005b	d8 45 08	 fadd	 DWORD PTR _fSkill$[ebp]
  0005e	8b 45 f8	 mov	 eax, DWORD PTR _this$[ebp]
  00061	d9 98 58 03 00
	00		 fstp	 DWORD PTR [eax+856]

; 19   : 		m_bBotIsDead = false ;

  00067	8b 45 f8	 mov	 eax, DWORD PTR _this$[ebp]
  0006a	c6 80 50 03 00
	00 00		 mov	 BYTE PTR [eax+848], 0

; 20   : 		m_bBotWasKilledByProjectile = false ;

  00071	8b 45 f8	 mov	 eax, DWORD PTR _this$[ebp]
  00074	c6 80 51 03 00
	00 00		 mov	 BYTE PTR [eax+849], 0

; 21   : 
; 22   : 		m_nBotLives = nLevel ;

  0007b	8b 45 f8	 mov	 eax, DWORD PTR _this$[ebp]
  0007e	8b 4d 0c	 mov	 ecx, DWORD PTR _nLevel$[ebp]
  00081	89 88 54 03 00
	00		 mov	 DWORD PTR [eax+852], ecx

; 23   : 	}

  00087	8b 45 f8	 mov	 eax, DWORD PTR _this$[ebp]
  0008a	5f		 pop	 edi
  0008b	5e		 pop	 esi
  0008c	5b		 pop	 ebx
  0008d	81 c4 cc 00 00
	00		 add	 esp, 204		; 000000ccH
  00093	3b ec		 cmp	 ebp, esp
  00095	e8 00 00 00 00	 call	 __RTC_CheckEsp
  0009a	8b e5		 mov	 esp, ebp
  0009c	5d		 pop	 ebp
  0009d	c2 14 00	 ret	 20			; 00000014H
??0CBotFighter@@QAE@MHHMPAURENDER_DATA_INFO@CFileRenderObject@@@Z ENDP ; CBotFighter::CBotFighter
_TEXT	ENDS
PUBLIC	??1CBotFighter@@QAE@XZ				; CBotFighter::~CBotFighter
EXTRN	??1CFighter@@QAE@XZ:NEAR			; CFighter::~CFighter
; Function compile flags: /Odt /RTCsu /ZI
;	COMDAT ??1CBotFighter@@QAE@XZ
_TEXT	SEGMENT
_this$ = -8
??1CBotFighter@@QAE@XZ PROC NEAR			; CBotFighter::~CBotFighter, COMDAT
; _this$ = ecx

; 25   : 	{

  00000	55		 push	 ebp
  00001	8b ec		 mov	 ebp, esp
  00003	81 ec cc 00 00
	00		 sub	 esp, 204		; 000000ccH
  00009	53		 push	 ebx
  0000a	56		 push	 esi
  0000b	57		 push	 edi
  0000c	51		 push	 ecx
  0000d	8d bd 34 ff ff
	ff		 lea	 edi, DWORD PTR [ebp-204]
  00013	b9 33 00 00 00	 mov	 ecx, 51			; 00000033H
  00018	b8 cc cc cc cc	 mov	 eax, -858993460		; ccccccccH
  0001d	f3 ab		 rep stosd
  0001f	59		 pop	 ecx
  00020	89 4d f8	 mov	 DWORD PTR _this$[ebp], ecx

; 26   : 	}

  00023	8b 4d f8	 mov	 ecx, DWORD PTR _this$[ebp]
  00026	e8 00 00 00 00	 call	 ??1CFighter@@QAE@XZ	; CFighter::~CFighter
  0002b	5f		 pop	 edi
  0002c	5e		 pop	 esi
  0002d	5b		 pop	 ebx
  0002e	81 c4 cc 00 00
	00		 add	 esp, 204		; 000000ccH
  00034	3b ec		 cmp	 ebp, esp
  00036	e8 00 00 00 00	 call	 __RTC_CheckEsp
  0003b	8b e5		 mov	 esp, ebp
  0003d	5d		 pop	 ebp
  0003e	c3		 ret	 0
??1CBotFighter@@QAE@XZ ENDP				; CBotFighter::~CBotFighter
_TEXT	ENDS
PUBLIC	??0D3DXMATRIX@@QAE@XZ				; D3DXMATRIX::D3DXMATRIX
PUBLIC	?D3DXVec3Length@@YAMPBUD3DXVECTOR3@@@Z		; D3DXVec3Length
PUBLIC	?FC_Zero@CBotFighter@@QAEXXZ			; CBotFighter::FC_Zero
PUBLIC	?FC_Set@CBotFighter@@QAEXPAUIDirect3DDevice8@@PAVCRace@@M@Z ; CBotFighter::FC_Set
PUBLIC	?FC_AlignWithTarget@CBotFighter@@QAEXABUD3DXVECTOR3@@PAM1M@Z ; CBotFighter::FC_AlignWithTarget
PUBLIC	__real@00000000
PUBLIC	__real@3f800000
PUBLIC	__real@41f40000
PUBLIC	__real@3dcccccd
PUBLIC	__real@3d4ccccd
PUBLIC	__real@3ee66666
PUBLIC	__real@3f000000
PUBLIC	__real@41a00000
PUBLIC	_fabsf
PUBLIC	??0D3DXVECTOR3@@QAE@MMM@Z			; D3DXVECTOR3::D3DXVECTOR3
PUBLIC	??HD3DXVECTOR3@@QBE?AU0@ABU0@@Z			; D3DXVECTOR3::operator+
PUBLIC	??GD3DXVECTOR3@@QBE?AU0@ABU0@@Z			; D3DXVECTOR3::operator-
PUBLIC	??DD3DXVECTOR3@@QBE?AU0@M@Z			; D3DXVECTOR3::operator*
EXTRN	_D3DXMatrixLookAtLH@16:NEAR
EXTRN	?GetBBoxVisibility@@YAHPAUIDirect3DDevice8@@ABUD3DXMATRIX@@1PAU_D3DVIEWPORT8@@ABUD3DXVECTOR3@@3@Z:NEAR ; GetBBoxVisibility
EXTRN	@_RTC_CheckStackVars@8:NEAR
;	COMDAT __real@00000000
CONST	SEGMENT
__real@00000000 DD 000000000r			; 0
CONST	ENDS
;	COMDAT __real@3f800000
CONST	SEGMENT
__real@3f800000 DD 03f800000r			; 1
CONST	ENDS
;	COMDAT __real@41f40000
CONST	SEGMENT
__real@41f40000 DD 041f40000r			; 30.5
CONST	ENDS
;	COMDAT __real@3dcccccd
CONST	SEGMENT
__real@3dcccccd DD 03dcccccdr			; 0.1
CONST	ENDS
;	COMDAT __real@3d4ccccd
CONST	SEGMENT
__real@3d4ccccd DD 03d4ccccdr			; 0.05
CONST	ENDS
;	COMDAT __real@3ee66666
CONST	SEGMENT
__real@3ee66666 DD 03ee66666r			; 0.45
CONST	ENDS
;	COMDAT __real@3f000000
CONST	SEGMENT
__real@3f000000 DD 03f000000r			; 0.5
CONST	ENDS
;	COMDAT __real@41a00000
CONST	SEGMENT
__real@41a00000 DD 041a00000r			; 20
; Function compile flags: /Odt /RTCsu /ZI
CONST	ENDS
;	COMDAT ?FC_Set@CBotFighter@@QAEXPAUIDirect3DDevice8@@PAVCRace@@M@Z
_TEXT	SEGMENT
tv174 = -596
$T93847 = -588
$T93846 = -568
$T93845 = -548
$T93844 = -528
$T93843 = -508
_i$93725 = -296
_fScaleZone$93721 = -284
_fExclusionZone$93720 = -272
_fProb$93717 = -260
_fMaxProb$93716 = -248
_fMinProb$93715 = -236
_i$93713 = -224
_vLookAtPt$ = -212
_vEyePt$ = -192
_vX$ = -172
_matMyView$ = -152
_fAngleY$ = -80
_fAngleX$ = -68
_fTargetDistance$ = -56
_bTargetVisible$ = -44
_fTurnSpeed$ = -32
_fFlightSpeed$ = -20
_this$ = -8
_pDev$ = 8
_pRace$ = 12
_fFPS$ = 16
?FC_Set@CBotFighter@@QAEXPAUIDirect3DDevice8@@PAVCRace@@M@Z PROC NEAR ; CBotFighter::FC_Set, COMDAT
; _this$ = ecx

; 34   : 	{

  00000	55		 push	 ebp
  00001	8b ec		 mov	 ebp, esp
  00003	81 ec 54 02 00
	00		 sub	 esp, 596		; 00000254H
  00009	53		 push	 ebx
  0000a	56		 push	 esi
  0000b	57		 push	 edi
  0000c	51		 push	 ecx
  0000d	8d bd ac fd ff
	ff		 lea	 edi, DWORD PTR [ebp-596]
  00013	b9 95 00 00 00	 mov	 ecx, 149		; 00000095H
  00018	b8 cc cc cc cc	 mov	 eax, -858993460		; ccccccccH
  0001d	f3 ab		 rep stosd
  0001f	59		 pop	 ecx
  00020	89 4d f8	 mov	 DWORD PTR _this$[ebp], ecx

; 35   : 		float		fFlightSpeed = 0.75f ;	// relative to user's fighter

  00023	c7 45 ec 00 00
	40 3f		 mov	 DWORD PTR _fFlightSpeed$[ebp], 1061158912 ; 3f400000H

; 36   : 		float		fTurnSpeed = 0.75f ;	// relative to user's fighter

  0002a	c7 45 e0 00 00
	40 3f		 mov	 DWORD PTR _fTurnSpeed$[ebp], 1061158912 ; 3f400000H

; 37   : 		BOOL		bTargetVisible ;
; 38   : 		float		fTargetDistance, fAngleX, fAngleY ;
; 39   : 		xMat		matMyView ;

  00031	8d 8d 68 ff ff
	ff		 lea	 ecx, DWORD PTR _matMyView$[ebp]
  00037	e8 00 00 00 00	 call	 ??0D3DXMATRIX@@QAE@XZ	; D3DXMATRIX::D3DXMATRIX

; 40   : 
; 41   : 	// dbg;
; 42   : 		/*if( m_dwID % 2 == 1 )
; 43   : 			m_MovementMode = BFMM_STATIONARY ;
; 44   : 		else*/
; 45   : 			m_MovementMode = BFMM_HUNTING ;

  0003c	8b 45 f8	 mov	 eax, DWORD PTR _this$[ebp]
  0003f	c7 80 48 03 00
	00 01 00 00 00	 mov	 DWORD PTR [eax+840], 1

; 46   : 
; 47   : 	// have we just hit the deck? if so, enter terrain collision response mode;
; 48   : 		if( m_bTerrainCollision )

  00049	8b 45 f8	 mov	 eax, DWORD PTR _this$[ebp]
  0004c	83 b8 e8 02 00
	00 00		 cmp	 DWORD PTR [eax+744], 0
  00053	74 2c		 je	 SHORT $L93691

; 49   : 		{
; 50   : 			m_PrevMovementMode = m_MovementMode ;

  00055	8b 45 f8	 mov	 eax, DWORD PTR _this$[ebp]
  00058	8b 4d f8	 mov	 ecx, DWORD PTR _this$[ebp]
  0005b	8b 91 48 03 00
	00		 mov	 edx, DWORD PTR [ecx+840]
  00061	89 90 4c 03 00
	00		 mov	 DWORD PTR [eax+844], edx

; 51   : 			m_MovementMode = BFMM_TERRAINCOLLISIONRESPONSE ;

  00067	8b 45 f8	 mov	 eax, DWORD PTR _this$[ebp]
  0006a	c7 80 48 03 00
	00 05 00 00 00	 mov	 DWORD PTR [eax+840], 5

; 52   : 			m_fTerrainCollisionResponseTime = 0 ;

  00074	8b 45 f8	 mov	 eax, DWORD PTR _this$[ebp]
  00077	c7 80 9c 03 00
	00 00 00 00 00	 mov	 DWORD PTR [eax+924], 0
$L93691:

; 53   : 		}
; 54   : 
; 55   : 	// determine target's visibility;
; 56   : 		xVec3 vX = ( m_vOrientation * m_pFRO->m_pRenderData->m_fBSphereRadius );

  00081	8b 45 f8	 mov	 eax, DWORD PTR _this$[ebp]
  00084	8b 48 2c	 mov	 ecx, DWORD PTR [eax+44]
  00087	8b 11		 mov	 edx, DWORD PTR [ecx]
  00089	8b 82 38 01 00
	00		 mov	 eax, DWORD PTR [edx+312]
  0008f	50		 push	 eax
  00090	8d 8d 54 ff ff
	ff		 lea	 ecx, DWORD PTR _vX$[ebp]
  00096	51		 push	 ecx
  00097	8b 4d f8	 mov	 ecx, DWORD PTR _this$[ebp]
  0009a	81 c1 c0 01 00
	00		 add	 ecx, 448		; 000001c0H
  000a0	e8 00 00 00 00	 call	 ??DD3DXVECTOR3@@QBE?AU0@M@Z ; D3DXVECTOR3::operator*

; 57   : 		xVec3 vEyePt = m_pFRO->m_pBBox->m_vCenter + (vX * 0.0f) ;

  000a5	6a 00		 push	 0
  000a7	8d 85 04 fe ff
	ff		 lea	 eax, DWORD PTR $T93843[ebp]
  000ad	50		 push	 eax
  000ae	8d 8d 54 ff ff
	ff		 lea	 ecx, DWORD PTR _vX$[ebp]
  000b4	e8 00 00 00 00	 call	 ??DD3DXVECTOR3@@QBE?AU0@M@Z ; D3DXVECTOR3::operator*
  000b9	50		 push	 eax
  000ba	8d 8d 40 ff ff
	ff		 lea	 ecx, DWORD PTR _vEyePt$[ebp]
  000c0	51		 push	 ecx
  000c1	8b 55 f8	 mov	 edx, DWORD PTR _this$[ebp]
  000c4	8b 42 2c	 mov	 eax, DWORD PTR [edx+44]
  000c7	8b 48 08	 mov	 ecx, DWORD PTR [eax+8]
  000ca	83 c1 78	 add	 ecx, 120		; 00000078H
  000cd	e8 00 00 00 00	 call	 ??HD3DXVECTOR3@@QBE?AU0@ABU0@@Z ; D3DXVECTOR3::operator+

; 58   : 		xVec3 vLookAtPt = m_pFRO->m_pBBox->m_vCenter + (vX * 0.5f) ;

  000d2	68 00 00 00 3f	 push	 1056964608		; 3f000000H
  000d7	8d 85 f0 fd ff
	ff		 lea	 eax, DWORD PTR $T93844[ebp]
  000dd	50		 push	 eax
  000de	8d 8d 54 ff ff
	ff		 lea	 ecx, DWORD PTR _vX$[ebp]
  000e4	e8 00 00 00 00	 call	 ??DD3DXVECTOR3@@QBE?AU0@M@Z ; D3DXVECTOR3::operator*
  000e9	50		 push	 eax
  000ea	8d 8d 2c ff ff
	ff		 lea	 ecx, DWORD PTR _vLookAtPt$[ebp]
  000f0	51		 push	 ecx
  000f1	8b 55 f8	 mov	 edx, DWORD PTR _this$[ebp]
  000f4	8b 42 2c	 mov	 eax, DWORD PTR [edx+44]
  000f7	8b 48 08	 mov	 ecx, DWORD PTR [eax+8]
  000fa	83 c1 78	 add	 ecx, 120		; 00000078H
  000fd	e8 00 00 00 00	 call	 ??HD3DXVECTOR3@@QBE?AU0@ABU0@@Z ; D3DXVECTOR3::operator+

; 59   : 		D3DXMatrixLookAtLH( &matMyView, &vEyePt, &vLookAtPt, &xVec3( 0,1,0 ) );

  00102	6a 00		 push	 0
  00104	68 00 00 80 3f	 push	 1065353216		; 3f800000H
  00109	6a 00		 push	 0
  0010b	8d 8d dc fd ff
	ff		 lea	 ecx, DWORD PTR $T93845[ebp]
  00111	e8 00 00 00 00	 call	 ??0D3DXVECTOR3@@QAE@MMM@Z ; D3DXVECTOR3::D3DXVECTOR3
  00116	50		 push	 eax
  00117	8d 85 2c ff ff
	ff		 lea	 eax, DWORD PTR _vLookAtPt$[ebp]
  0011d	50		 push	 eax
  0011e	8d 8d 40 ff ff
	ff		 lea	 ecx, DWORD PTR _vEyePt$[ebp]
  00124	51		 push	 ecx
  00125	8d 95 68 ff ff
	ff		 lea	 edx, DWORD PTR _matMyView$[ebp]
  0012b	52		 push	 edx
  0012c	e8 00 00 00 00	 call	 _D3DXMatrixLookAtLH@16

; 60   : 		bTargetVisible = GetBBoxVisibility( pDev,
; 61   : 											pRace->m_pX7->m_matProj,
; 62   : 											matMyView,
; 63   : 											&pRace->m_pX7->m_vpViewport,
; 64   : 											pRace->m_pFighter->m_pFRO->m_pBBox->m_vMin,
; 65   : 											pRace->m_pFighter->m_pFRO->m_pBBox->m_vMax );

  00131	8b 45 0c	 mov	 eax, DWORD PTR _pRace$[ebp]
  00134	8b 48 30	 mov	 ecx, DWORD PTR [eax+48]
  00137	8b 51 2c	 mov	 edx, DWORD PTR [ecx+44]
  0013a	8b 42 08	 mov	 eax, DWORD PTR [edx+8]
  0013d	83 c0 0c	 add	 eax, 12			; 0000000cH
  00140	50		 push	 eax
  00141	8b 4d 0c	 mov	 ecx, DWORD PTR _pRace$[ebp]
  00144	8b 51 30	 mov	 edx, DWORD PTR [ecx+48]
  00147	8b 42 2c	 mov	 eax, DWORD PTR [edx+44]
  0014a	8b 48 08	 mov	 ecx, DWORD PTR [eax+8]
  0014d	51		 push	 ecx
  0014e	8b 55 0c	 mov	 edx, DWORD PTR _pRace$[ebp]
  00151	8b 42 38	 mov	 eax, DWORD PTR [edx+56]
  00154	05 3c a9 02 00	 add	 eax, 174396		; 0002a93cH
  00159	50		 push	 eax
  0015a	8d 8d 68 ff ff
	ff		 lea	 ecx, DWORD PTR _matMyView$[ebp]
  00160	51		 push	 ecx
  00161	8b 55 0c	 mov	 edx, DWORD PTR _pRace$[ebp]
  00164	8b 42 38	 mov	 eax, DWORD PTR [edx+56]
  00167	05 54 a9 02 00	 add	 eax, 174420		; 0002a954H
  0016c	50		 push	 eax
  0016d	8b 4d 08	 mov	 ecx, DWORD PTR _pDev$[ebp]
  00170	51		 push	 ecx
  00171	e8 00 00 00 00	 call	 ?GetBBoxVisibility@@YAHPAUIDirect3DDevice8@@ABUD3DXMATRIX@@1PAU_D3DVIEWPORT8@@ABUD3DXVECTOR3@@3@Z ; GetBBoxVisibility
  00176	83 c4 18	 add	 esp, 24			; 00000018H
  00179	89 45 d4	 mov	 DWORD PTR _bTargetVisible$[ebp], eax

; 66   : 
; 67   : 	// set null input;
; 68   : 		FC_Zero() ;

  0017c	8b 4d f8	 mov	 ecx, DWORD PTR _this$[ebp]
  0017f	e8 00 00 00 00	 call	 ?FC_Zero@CBotFighter@@QAEXXZ ; CBotFighter::FC_Zero

; 69   : 
; 70   : 	// get target's distance;
; 71   : 		fTargetDistance = fabsf( D3DXVec3Length( &( m_vPosition - pRace->m_pFighter->m_vPosition ) ) );

  00184	8b 45 0c	 mov	 eax, DWORD PTR _pRace$[ebp]
  00187	8b 48 30	 mov	 ecx, DWORD PTR [eax+48]
  0018a	81 c1 fc 01 00
	00		 add	 ecx, 508		; 000001fcH
  00190	51		 push	 ecx
  00191	8d 95 c8 fd ff
	ff		 lea	 edx, DWORD PTR $T93846[ebp]
  00197	52		 push	 edx
  00198	8b 4d f8	 mov	 ecx, DWORD PTR _this$[ebp]
  0019b	81 c1 fc 01 00
	00		 add	 ecx, 508		; 000001fcH
  001a1	e8 00 00 00 00	 call	 ??GD3DXVECTOR3@@QBE?AU0@ABU0@@Z ; D3DXVECTOR3::operator-
  001a6	50		 push	 eax
  001a7	e8 00 00 00 00	 call	 ?D3DXVec3Length@@YAMPBUD3DXVECTOR3@@@Z ; D3DXVec3Length
  001ac	d9 1c 24	 fstp	 DWORD PTR [esp]
  001af	e8 00 00 00 00	 call	 _fabsf
  001b4	83 c4 04	 add	 esp, 4
  001b7	d9 5d c8	 fstp	 DWORD PTR _fTargetDistance$[ebp]

; 72   : 
; 73   : 	// don't do anything first frame!
; 74   : 		if( m_fDistanceToTargetLastFrame == 0 )

  001ba	8b 45 f8	 mov	 eax, DWORD PTR _this$[ebp]
  001bd	d9 80 98 03 00
	00		 fld	 DWORD PTR [eax+920]
  001c3	d8 1d 00 00 00
	00		 fcomp	 DWORD PTR __real@00000000
  001c9	df e0		 fnstsw	 ax
  001cb	f6 c4 44	 test	 ah, 68			; 00000044H
  001ce	7a 11		 jp	 SHORT $L93702

; 75   : 		{
; 76   : 			m_fDistanceToTargetLastFrame = fTargetDistance ;

  001d0	8b 45 f8	 mov	 eax, DWORD PTR _this$[ebp]
  001d3	8b 4d c8	 mov	 ecx, DWORD PTR _fTargetDistance$[ebp]
  001d6	89 88 98 03 00
	00		 mov	 DWORD PTR [eax+920], ecx

; 77   : 			return ;

  001dc	e9 e6 02 00 00	 jmp	 $L93683
$L93702:

; 78   : 		}
; 79   : 
; 80   : 	//
; 81   : 	// Move according to current movement mode:
; 82   : 	//
; 83   : 		switch( m_MovementMode )
; 84   : 		{

  001e1	8b 45 f8	 mov	 eax, DWORD PTR _this$[ebp]
  001e4	8b 88 48 03 00
	00		 mov	 ecx, DWORD PTR [eax+840]
  001ea	89 8d ac fd ff
	ff		 mov	 DWORD PTR tv174[ebp], ecx
  001f0	83 bd ac fd ff
	ff 01		 cmp	 DWORD PTR tv174[ebp], 1
  001f7	0f 84 9d 00 00
	00		 je	 $L93711
  001fd	83 bd ac fd ff
	ff 05		 cmp	 DWORD PTR tv174[ebp], 5
  00204	74 05		 je	 SHORT $L93708
  00206	e9 b0 02 00 00	 jmp	 $L93704
$L93708:

; 85   : 		//
; 86   : 		// Stationary:
; 87   : 		//
; 88   : 			case BFMM_STATIONARY:
; 89   : 				break ;
; 90   : 
; 91   : 		//
; 92   : 		// Terrain Collision Response:
; 93   : 		// Point straight up and power on for fixed length of time!
; 94   : 		//
; 95   : 			case BFMM_TERRAINCOLLISIONRESPONSE:
; 96   : 			// align directly up;
; 97   : 				FC_AlignWithTarget( xVec3( m_vPosition.x, m_vPosition.y + 1, m_vPosition.z ),
; 98   : 									&fAngleX, &fAngleY, fTurnSpeed );

  0020b	8b 45 e0	 mov	 eax, DWORD PTR _fTurnSpeed$[ebp]
  0020e	50		 push	 eax
  0020f	8d 4d b0	 lea	 ecx, DWORD PTR _fAngleY$[ebp]
  00212	51		 push	 ecx
  00213	8d 55 bc	 lea	 edx, DWORD PTR _fAngleX$[ebp]
  00216	52		 push	 edx
  00217	8b 45 f8	 mov	 eax, DWORD PTR _this$[ebp]
  0021a	8b 88 04 02 00
	00		 mov	 ecx, DWORD PTR [eax+516]
  00220	51		 push	 ecx
  00221	8b 55 f8	 mov	 edx, DWORD PTR _this$[ebp]
  00224	d9 82 00 02 00
	00		 fld	 DWORD PTR [edx+512]
  0022a	d8 05 00 00 00
	00		 fadd	 DWORD PTR __real@3f800000
  00230	51		 push	 ecx
  00231	d9 1c 24	 fstp	 DWORD PTR [esp]
  00234	8b 45 f8	 mov	 eax, DWORD PTR _this$[ebp]
  00237	8b 88 fc 01 00
	00		 mov	 ecx, DWORD PTR [eax+508]
  0023d	51		 push	 ecx
  0023e	8d 8d b4 fd ff
	ff		 lea	 ecx, DWORD PTR $T93847[ebp]
  00244	e8 00 00 00 00	 call	 ??0D3DXVECTOR3@@QAE@MMM@Z ; D3DXVECTOR3::D3DXVECTOR3
  00249	50		 push	 eax
  0024a	8b 4d f8	 mov	 ecx, DWORD PTR _this$[ebp]
  0024d	e8 00 00 00 00	 call	 ?FC_AlignWithTarget@CBotFighter@@QAEXABUD3DXVECTOR3@@PAM1M@Z ; CBotFighter::FC_AlignWithTarget

; 99   : 
; 100  : 			// power on;
; 101  : 				//m_FlightControls.fAccelerate = MAX_FLIGHTMAP * fFlightSpeed ;
; 102  : 
; 103  : 			// stay in this mode for fixed length of time;
; 104  : 				m_fTerrainCollisionResponseTime += ( 1 / fFPS );

  00252	d9 05 00 00 00
	00		 fld	 DWORD PTR __real@3f800000
  00258	d8 75 10	 fdiv	 DWORD PTR _fFPS$[ebp]
  0025b	8b 45 f8	 mov	 eax, DWORD PTR _this$[ebp]
  0025e	d8 80 9c 03 00
	00		 fadd	 DWORD PTR [eax+924]
  00264	8b 4d f8	 mov	 ecx, DWORD PTR _this$[ebp]
  00267	d9 99 9c 03 00
	00		 fstp	 DWORD PTR [ecx+924]

; 105  : 				if( m_fTerrainCollisionResponseTime > 30.5f )

  0026d	8b 45 f8	 mov	 eax, DWORD PTR _this$[ebp]
  00270	d9 80 9c 03 00
	00		 fld	 DWORD PTR [eax+924]
  00276	d8 1d 00 00 00
	00		 fcomp	 DWORD PTR __real@41f40000
  0027c	df e0		 fnstsw	 ax
  0027e	f6 c4 41	 test	 ah, 65			; 00000041H
  00281	75 12		 jne	 SHORT $L93710

; 106  : 				{
; 107  : 					m_MovementMode = m_PrevMovementMode ;

  00283	8b 45 f8	 mov	 eax, DWORD PTR _this$[ebp]
  00286	8b 4d f8	 mov	 ecx, DWORD PTR _this$[ebp]
  00289	8b 91 4c 03 00
	00		 mov	 edx, DWORD PTR [ecx+844]
  0028f	89 90 48 03 00
	00		 mov	 DWORD PTR [eax+840], edx
$L93710:

; 108  : 				}
; 109  : 				break ;

  00295	e9 21 02 00 00	 jmp	 $L93704
$L93711:

; 110  : 
; 111  : 		//
; 112  : 		// Forward facing zombie tracking, with no terrain avoidance:
; 113  : 		//
; 114  : 			case BFMM_HUNTING:
; 115  : 			// align with target;
; 116  : 				FC_AlignWithTarget( pRace->m_pFighter->m_vPosition, &fAngleX, &fAngleY, fTurnSpeed );

  0029a	8b 45 e0	 mov	 eax, DWORD PTR _fTurnSpeed$[ebp]
  0029d	50		 push	 eax
  0029e	8d 4d b0	 lea	 ecx, DWORD PTR _fAngleY$[ebp]
  002a1	51		 push	 ecx
  002a2	8d 55 bc	 lea	 edx, DWORD PTR _fAngleX$[ebp]
  002a5	52		 push	 edx
  002a6	8b 45 0c	 mov	 eax, DWORD PTR _pRace$[ebp]
  002a9	8b 48 30	 mov	 ecx, DWORD PTR [eax+48]
  002ac	81 c1 fc 01 00
	00		 add	 ecx, 508		; 000001fcH
  002b2	51		 push	 ecx
  002b3	8b 4d f8	 mov	 ecx, DWORD PTR _this$[ebp]
  002b6	e8 00 00 00 00	 call	 ?FC_AlignWithTarget@CBotFighter@@QAEXABUD3DXVECTOR3@@PAM1M@Z ; CBotFighter::FC_AlignWithTarget

; 117  : 
; 118  : 			// fire if target is visible and we're nearly aligned with it;
; 119  : 				if( bTargetVisible &&
; 120  : 					fabsf( fAngleX ) < g_PI * 0.1f &&
; 121  : 					fabsf( fAngleY ) < g_PI * 0.1f )

  002bb	83 7d d4 00	 cmp	 DWORD PTR _bTargetVisible$[ebp], 0
  002bf	0f 84 03 01 00
	00		 je	 $L93712
  002c5	8b 45 bc	 mov	 eax, DWORD PTR _fAngleX$[ebp]
  002c8	50		 push	 eax
  002c9	e8 00 00 00 00	 call	 _fabsf
  002ce	83 c4 04	 add	 esp, 4
  002d1	d9 05 00 00 00
	00		 fld	 DWORD PTR _g_PI
  002d7	d8 0d 00 00 00
	00		 fmul	 DWORD PTR __real@3dcccccd
  002dd	de d9		 fcompp
  002df	df e0		 fnstsw	 ax
  002e1	f6 c4 41	 test	 ah, 65			; 00000041H
  002e4	0f 85 de 00 00
	00		 jne	 $L93712
  002ea	8b 45 b0	 mov	 eax, DWORD PTR _fAngleY$[ebp]
  002ed	50		 push	 eax
  002ee	e8 00 00 00 00	 call	 _fabsf
  002f3	83 c4 04	 add	 esp, 4
  002f6	d9 05 00 00 00
	00		 fld	 DWORD PTR _g_PI
  002fc	d8 0d 00 00 00
	00		 fmul	 DWORD PTR __real@3dcccccd
  00302	de d9		 fcompp
  00304	df e0		 fnstsw	 ax
  00306	f6 c4 41	 test	 ah, 65			; 00000041H
  00309	0f 85 b9 00 00
	00		 jne	 $L93712

; 122  : 				{
; 123  : 				// fire rate proportional to target's speed;
; 124  : 					float i = pRace->m_pFighter->m_fThrustMag
; 125  : 								/ pRace->m_pFighter->m_fMaxThrustMag ;

  0030f	8b 45 0c	 mov	 eax, DWORD PTR _pRace$[ebp]
  00312	8b 48 30	 mov	 ecx, DWORD PTR [eax+48]
  00315	8b 55 0c	 mov	 edx, DWORD PTR _pRace$[ebp]
  00318	8b 42 30	 mov	 eax, DWORD PTR [edx+48]
  0031b	d9 81 ac 01 00
	00		 fld	 DWORD PTR [ecx+428]
  00321	d8 b0 b4 01 00
	00		 fdiv	 DWORD PTR [eax+436]
  00327	d9 9d 20 ff ff
	ff		 fstp	 DWORD PTR _i$93713[ebp]

; 126  : 					if( i < 0.05f )	i = 0 ;

  0032d	d9 85 20 ff ff
	ff		 fld	 DWORD PTR _i$93713[ebp]
  00333	d8 1d 00 00 00
	00		 fcomp	 DWORD PTR __real@3d4ccccd
  00339	df e0		 fnstsw	 ax
  0033b	f6 c4 05	 test	 ah, 5
  0033e	7a 0a		 jp	 SHORT $L93714
  00340	c7 85 20 ff ff
	ff 00 00 00 00	 mov	 DWORD PTR _i$93713[ebp], 0
$L93714:

; 127  : 					float fMinProb = 0.0f ;//+ ( 0.15f * m_fSkill );

  0034a	c7 85 14 ff ff
	ff 00 00 00 00	 mov	 DWORD PTR _fMinProb$93715[ebp], 0

; 128  : 					float fMaxProb = 0.5f + ( 0.45f * m_fSkill );

  00354	8b 45 f8	 mov	 eax, DWORD PTR _this$[ebp]
  00357	d9 05 00 00 00
	00		 fld	 DWORD PTR __real@3ee66666
  0035d	d8 48 28	 fmul	 DWORD PTR [eax+40]
  00360	d8 05 00 00 00
	00		 fadd	 DWORD PTR __real@3f000000
  00366	d9 9d 08 ff ff
	ff		 fstp	 DWORD PTR _fMaxProb$93716[ebp]

; 129  : 					float fProb = fMinProb + ( fMaxProb - fMinProb ) * i ;

  0036c	d9 85 08 ff ff
	ff		 fld	 DWORD PTR _fMaxProb$93716[ebp]
  00372	d8 a5 14 ff ff
	ff		 fsub	 DWORD PTR _fMinProb$93715[ebp]
  00378	d8 8d 20 ff ff
	ff		 fmul	 DWORD PTR _i$93713[ebp]
  0037e	d8 85 14 ff ff
	ff		 fadd	 DWORD PTR _fMinProb$93715[ebp]
  00384	d9 9d fc fe ff
	ff		 fstp	 DWORD PTR _fProb$93717[ebp]

; 130  : 					if( rnd() < fProb )

  0038a	e8 00 00 00 00	 call	 ?rnd@@YAMXZ		; rnd
  0038f	d8 9d fc fe ff
	ff		 fcomp	 DWORD PTR _fProb$93717[ebp]
  00395	df e0		 fnstsw	 ax
  00397	f6 c4 05	 test	 ah, 5
  0039a	7a 0d		 jp	 SHORT $L93718

; 131  : 						m_FlightControls.bFireA = TRUE ;

  0039c	8b 45 f8	 mov	 eax, DWORD PTR _this$[ebp]
  0039f	c7 80 90 03 00
	00 01 00 00 00	 mov	 DWORD PTR [eax+912], 1
$L93718:

; 132  : 					if( rnd() < 0.1f )

  003a9	e8 00 00 00 00	 call	 ?rnd@@YAMXZ		; rnd
  003ae	d8 1d 00 00 00
	00		 fcomp	 DWORD PTR __real@3dcccccd
  003b4	df e0		 fnstsw	 ax
  003b6	f6 c4 05	 test	 ah, 5
  003b9	7a 0d		 jp	 SHORT $L93712

; 133  : 						m_FlightControls.bNextWeapon = TRUE ;

  003bb	8b 45 f8	 mov	 eax, DWORD PTR _this$[ebp]
  003be	c7 80 88 03 00
	00 01 00 00 00	 mov	 DWORD PTR [eax+904], 1
$L93712:

; 134  : 				}
; 135  : 
; 136  : 			// we should never enter the exclusion zone;
; 137  : 				float fExclusionZone = 6 ;		// BS radii

  003c8	c7 85 f0 fe ff
	ff 00 00 c0 40	 mov	 DWORD PTR _fExclusionZone$93720[ebp], 1086324736 ; 40c00000H

; 138  : 			// the scale zone is outside of the exclusion zone and when in it we scale our acceleration by our
; 139  : 			// distance through the scale zone, 1 as we enter, 0 as we leave and enter the exclusion zone.
; 140  : 				float fScaleZone = 100 ;		// BS radii

  003d2	c7 85 e4 fe ff
	ff 00 00 c8 42	 mov	 DWORD PTR _fScaleZone$93721[ebp], 1120403456 ; 42c80000H

; 141  : 
; 142  : 				fExclusionZone *= m_pFRO->m_pRenderData->m_fBSphereRadius ;

  003dc	8b 45 f8	 mov	 eax, DWORD PTR _this$[ebp]
  003df	8b 48 2c	 mov	 ecx, DWORD PTR [eax+44]
  003e2	8b 11		 mov	 edx, DWORD PTR [ecx]
  003e4	d9 85 f0 fe ff
	ff		 fld	 DWORD PTR _fExclusionZone$93720[ebp]
  003ea	d8 8a 38 01 00
	00		 fmul	 DWORD PTR [edx+312]
  003f0	d9 9d f0 fe ff
	ff		 fstp	 DWORD PTR _fExclusionZone$93720[ebp]

; 143  : 				fScaleZone *= m_pFRO->m_pRenderData->m_fBSphereRadius ;

  003f6	8b 45 f8	 mov	 eax, DWORD PTR _this$[ebp]
  003f9	8b 48 2c	 mov	 ecx, DWORD PTR [eax+44]
  003fc	8b 11		 mov	 edx, DWORD PTR [ecx]
  003fe	d9 85 e4 fe ff
	ff		 fld	 DWORD PTR _fScaleZone$93721[ebp]
  00404	d8 8a 38 01 00
	00		 fmul	 DWORD PTR [edx+312]
  0040a	d9 9d e4 fe ff
	ff		 fstp	 DWORD PTR _fScaleZone$93721[ebp]

; 144  : 
; 145  : 				if( fTargetDistance < fExclusionZone )

  00410	d9 45 c8	 fld	 DWORD PTR _fTargetDistance$[ebp]
  00413	d8 9d f0 fe ff
	ff		 fcomp	 DWORD PTR _fExclusionZone$93720[ebp]
  00419	df e0		 fnstsw	 ax
  0041b	f6 c4 05	 test	 ah, 5
  0041e	7a 31		 jp	 SHORT $L93722

; 146  : 				{
; 147  : 				// in exclusion zone, brake scaled to thrust.
; 148  : 					//ods("in exclusion zone.\n");
; 149  : 
; 150  : 					m_FlightControls.fBrake = MAX_FLIGHTMAP * fFlightSpeed * 
; 151  : 						( m_fThrustMag * m_fThrustMagSkillModifier / m_fMaxThrustMag );

  00420	d9 05 00 00 00
	00		 fld	 DWORD PTR __real@41a00000
  00426	d8 4d ec	 fmul	 DWORD PTR _fFlightSpeed$[ebp]
  00429	8b 45 f8	 mov	 eax, DWORD PTR _this$[ebp]
  0042c	8b 4d f8	 mov	 ecx, DWORD PTR _this$[ebp]
  0042f	d9 80 ac 01 00
	00		 fld	 DWORD PTR [eax+428]
  00435	d8 89 58 03 00
	00		 fmul	 DWORD PTR [ecx+856]
  0043b	8b 55 f8	 mov	 edx, DWORD PTR _this$[ebp]
  0043e	d8 b2 b4 01 00
	00		 fdiv	 DWORD PTR [edx+436]
  00444	de c9		 fmulp	 ST(1), ST(0)
  00446	8b 45 f8	 mov	 eax, DWORD PTR _this$[ebp]
  00449	d9 98 60 03 00
	00		 fstp	 DWORD PTR [eax+864]

; 152  : 				}
; 153  : 				else if( fTargetDistance < ( fExclusionZone + fScaleZone ) )

  0044f	eb 6a		 jmp	 SHORT $L93704
$L93722:
  00451	d9 85 f0 fe ff
	ff		 fld	 DWORD PTR _fExclusionZone$93720[ebp]
  00457	d8 85 e4 fe ff
	ff		 fadd	 DWORD PTR _fScaleZone$93721[ebp]
  0045d	d8 5d c8	 fcomp	 DWORD PTR _fTargetDistance$[ebp]
  00460	df e0		 fnstsw	 ax
  00462	f6 c4 41	 test	 ah, 65			; 00000041H
  00465	75 42		 jne	 SHORT $L93724

; 154  : 				{
; 155  : 				// in scale zone, apply scaled acceleration.
; 156  : 					float i = ( fTargetDistance - fExclusionZone ) / fScaleZone ;

  00467	d9 45 c8	 fld	 DWORD PTR _fTargetDistance$[ebp]
  0046a	d8 a5 f0 fe ff
	ff		 fsub	 DWORD PTR _fExclusionZone$93720[ebp]
  00470	d8 b5 e4 fe ff
	ff		 fdiv	 DWORD PTR _fScaleZone$93721[ebp]
  00476	d9 9d d8 fe ff
	ff		 fstp	 DWORD PTR _i$93725[ebp]

; 157  : 					//ods("in scale zone: %0.1f\n", i);
; 158  : 
; 159  : 					if( fTargetDistance > m_fDistanceToTargetLastFrame )

  0047c	8b 45 f8	 mov	 eax, DWORD PTR _this$[ebp]
  0047f	d9 45 c8	 fld	 DWORD PTR _fTargetDistance$[ebp]
  00482	d8 98 98 03 00
	00		 fcomp	 DWORD PTR [eax+920]
  00488	df e0		 fnstsw	 ax
  0048a	f6 c4 41	 test	 ah, 65			; 00000041H
  0048d	75 18		 jne	 SHORT $L93726

; 160  : 						m_FlightControls.fAccelerate = MAX_FLIGHTMAP * fFlightSpeed * i ;

  0048f	d9 05 00 00 00
	00		 fld	 DWORD PTR __real@41a00000
  00495	d8 4d ec	 fmul	 DWORD PTR _fFlightSpeed$[ebp]
  00498	d8 8d d8 fe ff
	ff		 fmul	 DWORD PTR _i$93725[ebp]
  0049e	8b 45 f8	 mov	 eax, DWORD PTR _this$[ebp]
  004a1	d9 98 5c 03 00
	00		 fstp	 DWORD PTR [eax+860]
$L93726:

; 161  : 				}
; 162  : 				else

  004a7	eb 12		 jmp	 SHORT $L93704
$L93724:

; 163  : 				{
; 164  : 				// outside of brake zone, full acceleration always.
; 165  : 					//ods("in void zone\n");
; 166  : 
; 167  : 					m_FlightControls.fAccelerate = MAX_FLIGHTMAP * fFlightSpeed ;

  004a9	d9 05 00 00 00
	00		 fld	 DWORD PTR __real@41a00000
  004af	d8 4d ec	 fmul	 DWORD PTR _fFlightSpeed$[ebp]
  004b2	8b 45 f8	 mov	 eax, DWORD PTR _this$[ebp]
  004b5	d9 98 5c 03 00
	00		 fstp	 DWORD PTR [eax+860]
$L93704:

; 168  : 				}
; 169  : 
; 170  : 			// DEPRECATED in favour of above:
; 171  : 			//
; 172  : 			// if we're nearly in line with the target, then accelerate towards it
; 173  : 			// until we get to a certain distance, then back off the accelerator
; 174  : 				/*if( (fAngleX + fAngleY) / 2 < 0.5f )
; 175  : 				{
; 176  : 					D3DXPLANE plnFacingWall ; float fDot ;
; 177  : 					D3DXPlaneFromPoints( &plnFacingWall,
; 178  : 			 							&( m_vPosition + m_vLeft ), // one click left
; 179  : 										&( m_vPosition - m_vLeft ), // one click right
; 180  : 										&( m_vPosition + m_vUp ) ); // one click up
; 181  : 					fDot = D3DXPlaneDotCoord( &plnFacingWall, &pRace->m_pFighter->m_vPosition );
; 182  : 
; 183  : 				// compute relative approach velocity;
; 184  : 					xVec3 vRelVel = 
; 185  :  					  ( m_vOrientation * m_fSpeed ) - 
; 186  : 					  ( pRace->m_pFighter->m_vOrientation * pRace->m_pFighter->m_fSpeed );
; 187  : 					float fRelSpeed = D3DXVec3Length( &vRelVel );
; 188  : 					float fRelVel = fabsf( D3DXVec3Length( &vRelVel ) );
; 189  : 					float fRelVelI ;
; 190  : 					if( fRelVel < 0 )
; 191  : 						fRelVel = 0 ;
; 192  : 					fRelVelI = fRelVel / m_fMaxThrustMag ;
; 193  : 					fRelSpeed /= m_fMaxThrustMag ;
; 194  : 
; 195  : 				// compute distance to target inside which we need to brake;
; 196  : 					//float fBrakeDistance = m_pFRO->m_pRenderData->m_fBSphereRadius * 100 * fRelVelI ;
; 197  : 					float fBrakeDistance = m_pFRO->m_pRenderData->m_fBSphereRadius * 10 ;
; 198  : 
; 199  : 					if( fTargetDistance > fBrakeDistance )
; 200  : 					{
; 201  : 						//if( fDot < 0 )
; 202  : 						//	m_FlightControls.fBrake = MAX_FLIGHTMAP * 0.5f ;
; 203  : 						//if( fDot > 0 )
; 204  : 							m_FlightControls.fAccelerate = MAX_FLIGHTMAP * fFlightSpeed ;
; 205  : 					}
; 206  : 					else
; 207  : 					{
; 208  : 						if( m_fThrustMag > 0 )
; 209  : 							m_FlightControls.fBrake = MAX_FLIGHTMAP * fFlightSpeed ;
; 210  : 					}
; 211  : 				}*/
; 212  : 				break ;
; 213  : 		}
; 214  : 		m_fDistanceToTargetLastFrame = fTargetDistance ;

  004bb	8b 45 f8	 mov	 eax, DWORD PTR _this$[ebp]
  004be	8b 4d c8	 mov	 ecx, DWORD PTR _fTargetDistance$[ebp]
  004c1	89 88 98 03 00
	00		 mov	 DWORD PTR [eax+920], ecx
$L93683:

; 215  : 	}

  004c7	52		 push	 edx
  004c8	8b cd		 mov	 ecx, ebp
  004ca	50		 push	 eax
  004cb	8d 15 00 00 00
	00		 lea	 edx, DWORD PTR $L93871
  004d1	e8 00 00 00 00	 call	 @_RTC_CheckStackVars@8
  004d6	58		 pop	 eax
  004d7	5a		 pop	 edx
  004d8	5f		 pop	 edi
  004d9	5e		 pop	 esi
  004da	5b		 pop	 ebx
  004db	81 c4 54 02 00
	00		 add	 esp, 596		; 00000254H
  004e1	3b ec		 cmp	 ebp, esp
  004e3	e8 00 00 00 00	 call	 __RTC_CheckEsp
  004e8	8b e5		 mov	 esp, ebp
  004ea	5d		 pop	 ebp
  004eb	c2 0c 00	 ret	 12			; 0000000cH
$L93871:
  004ee	06 00 00 00	 DD	 6
  004f2	00 00 00 00	 DD	 $L93870
$L93870:
  004f6	bc ff ff ff	 DD	 -68			; ffffffbcH
  004fa	04 00 00 00	 DD	 4
  004fe	00 00 00 00	 DD	 $L93864
  00502	b0 ff ff ff	 DD	 -80			; ffffffb0H
  00506	04 00 00 00	 DD	 4
  0050a	00 00 00 00	 DD	 $L93865
  0050e	68 ff ff ff	 DD	 -152			; ffffff68H
  00512	40 00 00 00	 DD	 64			; 00000040H
  00516	00 00 00 00	 DD	 $L93866
  0051a	54 ff ff ff	 DD	 -172			; ffffff54H
  0051e	0c 00 00 00	 DD	 12			; 0000000cH
  00522	00 00 00 00	 DD	 $L93867
  00526	40 ff ff ff	 DD	 -192			; ffffff40H
  0052a	0c 00 00 00	 DD	 12			; 0000000cH
  0052e	00 00 00 00	 DD	 $L93868
  00532	2c ff ff ff	 DD	 -212			; ffffff2cH
  00536	0c 00 00 00	 DD	 12			; 0000000cH
  0053a	00 00 00 00	 DD	 $L93869
$L93869:
  0053e	76		 DB	 118			; 00000076H
  0053f	4c		 DB	 76			; 0000004cH
  00540	6f		 DB	 111			; 0000006fH
  00541	6f		 DB	 111			; 0000006fH
  00542	6b		 DB	 107			; 0000006bH
  00543	41		 DB	 65			; 00000041H
  00544	74		 DB	 116			; 00000074H
  00545	50		 DB	 80			; 00000050H
  00546	74		 DB	 116			; 00000074H
  00547	00		 DB	 0
$L93868:
  00548	76		 DB	 118			; 00000076H
  00549	45		 DB	 69			; 00000045H
  0054a	79		 DB	 121			; 00000079H
  0054b	65		 DB	 101			; 00000065H
  0054c	50		 DB	 80			; 00000050H
  0054d	74		 DB	 116			; 00000074H
  0054e	00		 DB	 0
$L93867:
  0054f	76		 DB	 118			; 00000076H
  00550	58		 DB	 88			; 00000058H
  00551	00		 DB	 0
$L93866:
  00552	6d		 DB	 109			; 0000006dH
  00553	61		 DB	 97			; 00000061H
  00554	74		 DB	 116			; 00000074H
  00555	4d		 DB	 77			; 0000004dH
  00556	79		 DB	 121			; 00000079H
  00557	56		 DB	 86			; 00000056H
  00558	69		 DB	 105			; 00000069H
  00559	65		 DB	 101			; 00000065H
  0055a	77		 DB	 119			; 00000077H
  0055b	00		 DB	 0
$L93865:
  0055c	66		 DB	 102			; 00000066H
  0055d	41		 DB	 65			; 00000041H
  0055e	6e		 DB	 110			; 0000006eH
  0055f	67		 DB	 103			; 00000067H
  00560	6c		 DB	 108			; 0000006cH
  00561	65		 DB	 101			; 00000065H
  00562	59		 DB	 89			; 00000059H
  00563	00		 DB	 0
$L93864:
  00564	66		 DB	 102			; 00000066H
  00565	41		 DB	 65			; 00000041H
  00566	6e		 DB	 110			; 0000006eH
  00567	67		 DB	 103			; 00000067H
  00568	6c		 DB	 108			; 0000006cH
  00569	65		 DB	 101			; 00000065H
  0056a	58		 DB	 88			; 00000058H
  0056b	00		 DB	 0
?FC_Set@CBotFighter@@QAEXPAUIDirect3DDevice8@@PAVCRace@@M@Z ENDP ; CBotFighter::FC_Set
; Function compile flags: /Odt /RTCsu /ZI
_TEXT	ENDS
;	COMDAT ?FC_Zero@CBotFighter@@QAEXXZ
_TEXT	SEGMENT
_this$ = -8
?FC_Zero@CBotFighter@@QAEXXZ PROC NEAR			; CBotFighter::FC_Zero, COMDAT
; _this$ = ecx

; 217  : 	{

  00000	55		 push	 ebp
  00001	8b ec		 mov	 ebp, esp
  00003	81 ec cc 00 00
	00		 sub	 esp, 204		; 000000ccH
  00009	53		 push	 ebx
  0000a	56		 push	 esi
  0000b	57		 push	 edi
  0000c	51		 push	 ecx
  0000d	8d bd 34 ff ff
	ff		 lea	 edi, DWORD PTR [ebp-204]
  00013	b9 33 00 00 00	 mov	 ecx, 51			; 00000033H
  00018	b8 cc cc cc cc	 mov	 eax, -858993460		; ccccccccH
  0001d	f3 ab		 rep stosd
  0001f	59		 pop	 ecx
  00020	89 4d f8	 mov	 DWORD PTR _this$[ebp], ecx

; 218  : 		m_FlightControls.bFireA = FALSE ;

  00023	8b 45 f8	 mov	 eax, DWORD PTR _this$[ebp]
  00026	c7 80 90 03 00
	00 00 00 00 00	 mov	 DWORD PTR [eax+912], 0

; 219  : 		m_FlightControls.bFireB = FALSE ;

  00030	8b 45 f8	 mov	 eax, DWORD PTR _this$[ebp]
  00033	c7 80 94 03 00
	00 00 00 00 00	 mov	 DWORD PTR [eax+916], 0

; 220  : 		m_FlightControls.bNextWeapon = FALSE ;

  0003d	8b 45 f8	 mov	 eax, DWORD PTR _this$[ebp]
  00040	c7 80 88 03 00
	00 00 00 00 00	 mov	 DWORD PTR [eax+904], 0

; 221  : 		m_FlightControls.bPrevWeapon = FALSE ;

  0004a	8b 45 f8	 mov	 eax, DWORD PTR _this$[ebp]
  0004d	c7 80 8c 03 00
	00 00 00 00 00	 mov	 DWORD PTR [eax+908], 0

; 222  : 		m_FlightControls.fAccelerate = 0 ;

  00057	8b 45 f8	 mov	 eax, DWORD PTR _this$[ebp]
  0005a	c7 80 5c 03 00
	00 00 00 00 00	 mov	 DWORD PTR [eax+860], 0

; 223  : 		m_FlightControls.fBrake = 0 ;

  00064	8b 45 f8	 mov	 eax, DWORD PTR _this$[ebp]
  00067	c7 80 60 03 00
	00 00 00 00 00	 mov	 DWORD PTR [eax+864], 0

; 224  : 		m_FlightControls.fClimb = 0 ;

  00071	8b 45 f8	 mov	 eax, DWORD PTR _this$[ebp]
  00074	c7 80 70 03 00
	00 00 00 00 00	 mov	 DWORD PTR [eax+880], 0

; 225  : 		m_FlightControls.fDive = 0 ;

  0007e	8b 45 f8	 mov	 eax, DWORD PTR _this$[ebp]
  00081	c7 80 6c 03 00
	00 00 00 00 00	 mov	 DWORD PTR [eax+876], 0

; 226  : 		m_FlightControls.fRollLeft = 0 ;

  0008b	8b 45 f8	 mov	 eax, DWORD PTR _this$[ebp]
  0008e	c7 80 74 03 00
	00 00 00 00 00	 mov	 DWORD PTR [eax+884], 0

; 227  : 		m_FlightControls.fRollRight = 0 ;

  00098	8b 45 f8	 mov	 eax, DWORD PTR _this$[ebp]
  0009b	c7 80 78 03 00
	00 00 00 00 00	 mov	 DWORD PTR [eax+888], 0

; 228  : 		m_FlightControls.fSteerLeft = 0 ;

  000a5	8b 45 f8	 mov	 eax, DWORD PTR _this$[ebp]
  000a8	c7 80 64 03 00
	00 00 00 00 00	 mov	 DWORD PTR [eax+868], 0

; 229  : 		m_FlightControls.fSteerRight = 0 ;

  000b2	8b 45 f8	 mov	 eax, DWORD PTR _this$[ebp]
  000b5	c7 80 68 03 00
	00 00 00 00 00	 mov	 DWORD PTR [eax+872], 0

; 230  : 		m_FlightControls.fStrafeLeft = 0 ;

  000bf	8b 45 f8	 mov	 eax, DWORD PTR _this$[ebp]
  000c2	c7 80 7c 03 00
	00 00 00 00 00	 mov	 DWORD PTR [eax+892], 0

; 231  : 		m_FlightControls.fStrafeRight = 0 ;

  000cc	8b 45 f8	 mov	 eax, DWORD PTR _this$[ebp]
  000cf	c7 80 80 03 00
	00 00 00 00 00	 mov	 DWORD PTR [eax+896], 0

; 232  : 		m_FlightControls.bSteerAndRoll = FALSE ;

  000d9	8b 45 f8	 mov	 eax, DWORD PTR _this$[ebp]
  000dc	c7 80 84 03 00
	00 00 00 00 00	 mov	 DWORD PTR [eax+900], 0

; 233  : 	}

  000e6	5f		 pop	 edi
  000e7	5e		 pop	 esi
  000e8	5b		 pop	 ebx
  000e9	8b e5		 mov	 esp, ebp
  000eb	5d		 pop	 ebp
  000ec	c3		 ret	 0
?FC_Zero@CBotFighter@@QAEXXZ ENDP			; CBotFighter::FC_Zero
_TEXT	ENDS
PUBLIC	??0D3DXPLANE@@QAE@XZ				; D3DXPLANE::D3DXPLANE
PUBLIC	__real@41200000
PUBLIC	?D3DXPlaneDotNormal@@YAMPBUD3DXPLANE@@PBUD3DXVECTOR3@@@Z ; D3DXPlaneDotNormal
PUBLIC	??0D3DXVECTOR3@@QAE@XZ				; D3DXVECTOR3::D3DXVECTOR3
EXTRN	_D3DXVec3Normalize@8:NEAR
EXTRN	_D3DXPlaneFromPoints@16:NEAR
;	COMDAT __real@41200000
CONST	SEGMENT
__real@41200000 DD 041200000r			; 10
; Function compile flags: /Odt /RTCsu /ZI
CONST	ENDS
;	COMDAT ?FC_AlignWithTarget@CBotFighter@@QAEXABUD3DXVECTOR3@@PAM1M@Z
_TEXT	SEGMENT
$T93882 = -412
$T93881 = -392
$T93880 = -372
$T93879 = -352
$T93878 = -332
$T93877 = -312
_fExtent$ = -100
_fDot$ = -88
_vTargetNorm$ = -76
_plnAhead$ = -56
_plnGround$ = -32
_this$ = -8
_vTarget$ = 8
_fAngleX$ = 12
_fAngleY$ = 16
_fTurnSpeed$ = 20
?FC_AlignWithTarget@CBotFighter@@QAEXABUD3DXVECTOR3@@PAM1M@Z PROC NEAR ; CBotFighter::FC_AlignWithTarget, COMDAT
; _this$ = ecx

; 235  : 	{

  00000	55		 push	 ebp
  00001	8b ec		 mov	 ebp, esp
  00003	81 ec a0 01 00
	00		 sub	 esp, 416		; 000001a0H
  00009	53		 push	 ebx
  0000a	56		 push	 esi
  0000b	57		 push	 edi
  0000c	51		 push	 ecx
  0000d	8d bd 60 fe ff
	ff		 lea	 edi, DWORD PTR [ebp-416]
  00013	b9 68 00 00 00	 mov	 ecx, 104		; 00000068H
  00018	b8 cc cc cc cc	 mov	 eax, -858993460		; ccccccccH
  0001d	f3 ab		 rep stosd
  0001f	59		 pop	 ecx
  00020	89 4d f8	 mov	 DWORD PTR _this$[ebp], ecx

; 236  : 		D3DXPLANE plnGround, plnAhead ;

  00023	8d 4d e0	 lea	 ecx, DWORD PTR _plnGround$[ebp]
  00026	e8 00 00 00 00	 call	 ??0D3DXPLANE@@QAE@XZ	; D3DXPLANE::D3DXPLANE
  0002b	8d 4d c8	 lea	 ecx, DWORD PTR _plnAhead$[ebp]
  0002e	e8 00 00 00 00	 call	 ??0D3DXPLANE@@QAE@XZ	; D3DXPLANE::D3DXPLANE

; 237  : 		xVec3 vTargetNorm ;

  00033	8d 4d b4	 lea	 ecx, DWORD PTR _vTargetNorm$[ebp]
  00036	e8 00 00 00 00	 call	 ??0D3DXVECTOR3@@QAE@XZ	; D3DXVECTOR3::D3DXVECTOR3

; 238  : 		float fDot, fExtent ;
; 239  : 
; 240  : 		vTargetNorm = vTarget - m_vPosition ;

  0003b	8b 45 f8	 mov	 eax, DWORD PTR _this$[ebp]
  0003e	05 fc 01 00 00	 add	 eax, 508		; 000001fcH
  00043	50		 push	 eax
  00044	8d 8d c8 fe ff
	ff		 lea	 ecx, DWORD PTR $T93877[ebp]
  0004a	51		 push	 ecx
  0004b	8b 4d 08	 mov	 ecx, DWORD PTR _vTarget$[ebp]
  0004e	e8 00 00 00 00	 call	 ??GD3DXVECTOR3@@QBE?AU0@ABU0@@Z ; D3DXVECTOR3::operator-
  00053	8b 10		 mov	 edx, DWORD PTR [eax]
  00055	89 55 b4	 mov	 DWORD PTR _vTargetNorm$[ebp], edx
  00058	8b 48 04	 mov	 ecx, DWORD PTR [eax+4]
  0005b	89 4d b8	 mov	 DWORD PTR _vTargetNorm$[ebp+4], ecx
  0005e	8b 50 08	 mov	 edx, DWORD PTR [eax+8]
  00061	89 55 bc	 mov	 DWORD PTR _vTargetNorm$[ebp+8], edx

; 241  : 		D3DXVec3Normalize( &vTargetNorm, &vTargetNorm );

  00064	8d 45 b4	 lea	 eax, DWORD PTR _vTargetNorm$[ebp]
  00067	50		 push	 eax
  00068	8d 4d b4	 lea	 ecx, DWORD PTR _vTargetNorm$[ebp]
  0006b	51		 push	 ecx
  0006c	e8 00 00 00 00	 call	 _D3DXVec3Normalize@8

; 242  : 
; 243  : 	// compute flat 'ground' plane;
; 244  : 		D3DXPlaneFromPoints( &plnGround,
; 245  : 							 &( m_vPosition + m_vOrientation ), // straight ahead, one click
; 246  : 							 &( m_vPosition + m_vLeft ),		// one click left
; 247  : 							 &( m_vPosition - m_vLeft ) );		// one click right

  00071	8b 45 f8	 mov	 eax, DWORD PTR _this$[ebp]
  00074	05 f0 01 00 00	 add	 eax, 496		; 000001f0H
  00079	50		 push	 eax
  0007a	8d 8d b4 fe ff
	ff		 lea	 ecx, DWORD PTR $T93878[ebp]
  00080	51		 push	 ecx
  00081	8b 4d f8	 mov	 ecx, DWORD PTR _this$[ebp]
  00084	81 c1 fc 01 00
	00		 add	 ecx, 508		; 000001fcH
  0008a	e8 00 00 00 00	 call	 ??GD3DXVECTOR3@@QBE?AU0@ABU0@@Z ; D3DXVECTOR3::operator-
  0008f	50		 push	 eax
  00090	8b 55 f8	 mov	 edx, DWORD PTR _this$[ebp]
  00093	81 c2 f0 01 00
	00		 add	 edx, 496		; 000001f0H
  00099	52		 push	 edx
  0009a	8d 85 a0 fe ff
	ff		 lea	 eax, DWORD PTR $T93879[ebp]
  000a0	50		 push	 eax
  000a1	8b 4d f8	 mov	 ecx, DWORD PTR _this$[ebp]
  000a4	81 c1 fc 01 00
	00		 add	 ecx, 508		; 000001fcH
  000aa	e8 00 00 00 00	 call	 ??HD3DXVECTOR3@@QBE?AU0@ABU0@@Z ; D3DXVECTOR3::operator+
  000af	50		 push	 eax
  000b0	8b 4d f8	 mov	 ecx, DWORD PTR _this$[ebp]
  000b3	81 c1 c0 01 00
	00		 add	 ecx, 448		; 000001c0H
  000b9	51		 push	 ecx
  000ba	8d 95 8c fe ff
	ff		 lea	 edx, DWORD PTR $T93880[ebp]
  000c0	52		 push	 edx
  000c1	8b 4d f8	 mov	 ecx, DWORD PTR _this$[ebp]
  000c4	81 c1 fc 01 00
	00		 add	 ecx, 508		; 000001fcH
  000ca	e8 00 00 00 00	 call	 ??HD3DXVECTOR3@@QBE?AU0@ABU0@@Z ; D3DXVECTOR3::operator+
  000cf	50		 push	 eax
  000d0	8d 45 e0	 lea	 eax, DWORD PTR _plnGround$[ebp]
  000d3	50		 push	 eax
  000d4	e8 00 00 00 00	 call	 _D3DXPlaneFromPoints@16

; 248  : 	// compute 'ahead' plane;
; 249  : 		D3DXPlaneFromPoints( &plnAhead,
; 250  : 							 &( m_vPosition + m_vOrientation ), // straight ahead, one click
; 251  : 							 &( m_vPosition ),					// center
; 252  : 							 &( m_vPosition + m_vUp ) );		// one click up

  000d9	8b 45 f8	 mov	 eax, DWORD PTR _this$[ebp]
  000dc	05 e4 01 00 00	 add	 eax, 484		; 000001e4H
  000e1	50		 push	 eax
  000e2	8d 8d 78 fe ff
	ff		 lea	 ecx, DWORD PTR $T93881[ebp]
  000e8	51		 push	 ecx
  000e9	8b 4d f8	 mov	 ecx, DWORD PTR _this$[ebp]
  000ec	81 c1 fc 01 00
	00		 add	 ecx, 508		; 000001fcH
  000f2	e8 00 00 00 00	 call	 ??HD3DXVECTOR3@@QBE?AU0@ABU0@@Z ; D3DXVECTOR3::operator+
  000f7	50		 push	 eax
  000f8	8b 55 f8	 mov	 edx, DWORD PTR _this$[ebp]
  000fb	81 c2 fc 01 00
	00		 add	 edx, 508		; 000001fcH
  00101	52		 push	 edx
  00102	8b 45 f8	 mov	 eax, DWORD PTR _this$[ebp]
  00105	05 c0 01 00 00	 add	 eax, 448		; 000001c0H
  0010a	50		 push	 eax
  0010b	8d 8d 64 fe ff
	ff		 lea	 ecx, DWORD PTR $T93882[ebp]
  00111	51		 push	 ecx
  00112	8b 4d f8	 mov	 ecx, DWORD PTR _this$[ebp]
  00115	81 c1 fc 01 00
	00		 add	 ecx, 508		; 000001fcH
  0011b	e8 00 00 00 00	 call	 ??HD3DXVECTOR3@@QBE?AU0@ABU0@@Z ; D3DXVECTOR3::operator+
  00120	50		 push	 eax
  00121	8d 55 c8	 lea	 edx, DWORD PTR _plnAhead$[ebp]
  00124	52		 push	 edx
  00125	e8 00 00 00 00	 call	 _D3DXPlaneFromPoints@16

; 253  : 
; 254  : 	// is target below or above?
; 255  : 		fDot = D3DXPlaneDotNormal( &plnGround, &vTargetNorm );

  0012a	8d 45 b4	 lea	 eax, DWORD PTR _vTargetNorm$[ebp]
  0012d	50		 push	 eax
  0012e	8d 4d e0	 lea	 ecx, DWORD PTR _plnGround$[ebp]
  00131	51		 push	 ecx
  00132	e8 00 00 00 00	 call	 ?D3DXPlaneDotNormal@@YAMPBUD3DXPLANE@@PBUD3DXVECTOR3@@@Z ; D3DXPlaneDotNormal
  00137	83 c4 08	 add	 esp, 8
  0013a	d9 5d a8	 fstp	 DWORD PTR _fDot$[ebp]

; 256  : 		*fAngleY = fabsf( fDot );

  0013d	8b 45 a8	 mov	 eax, DWORD PTR _fDot$[ebp]
  00140	50		 push	 eax
  00141	e8 00 00 00 00	 call	 _fabsf
  00146	83 c4 04	 add	 esp, 4
  00149	8b 4d 10	 mov	 ecx, DWORD PTR _fAngleY$[ebp]
  0014c	d9 19		 fstp	 DWORD PTR [ecx]

; 257  : 		fExtent = ( *fAngleY / 1 ) * 10 ;						// this smoothes out the motion nicely!

  0014e	8b 45 10	 mov	 eax, DWORD PTR _fAngleY$[ebp]
  00151	d9 00		 fld	 DWORD PTR [eax]
  00153	d8 35 00 00 00
	00		 fdiv	 DWORD PTR __real@3f800000
  00159	d8 0d 00 00 00
	00		 fmul	 DWORD PTR __real@41200000
  0015f	d9 5d 9c	 fstp	 DWORD PTR _fExtent$[ebp]

; 258  : 
; 259  : 		if( fDot > 0 )

  00162	d9 45 a8	 fld	 DWORD PTR _fDot$[ebp]
  00165	d8 1d 00 00 00
	00		 fcomp	 DWORD PTR __real@00000000
  0016b	df e0		 fnstsw	 ax
  0016d	f6 c4 41	 test	 ah, 65			; 00000041H
  00170	75 15		 jne	 SHORT $L93749

; 260  : 			m_FlightControls.fDive = MAX_FLIGHTMAP * fTurnSpeed * fExtent ;

  00172	d9 05 00 00 00
	00		 fld	 DWORD PTR __real@41a00000
  00178	d8 4d 14	 fmul	 DWORD PTR _fTurnSpeed$[ebp]
  0017b	d8 4d 9c	 fmul	 DWORD PTR _fExtent$[ebp]
  0017e	8b 45 f8	 mov	 eax, DWORD PTR _this$[ebp]
  00181	d9 98 6c 03 00
	00		 fstp	 DWORD PTR [eax+876]
$L93749:

; 261  : 		if( fDot < 0 )

  00187	d9 45 a8	 fld	 DWORD PTR _fDot$[ebp]
  0018a	d8 1d 00 00 00
	00		 fcomp	 DWORD PTR __real@00000000
  00190	df e0		 fnstsw	 ax
  00192	f6 c4 05	 test	 ah, 5
  00195	7a 15		 jp	 SHORT $L93750

; 262  : 			m_FlightControls.fClimb = MAX_FLIGHTMAP * fTurnSpeed * fExtent ;

  00197	d9 05 00 00 00
	00		 fld	 DWORD PTR __real@41a00000
  0019d	d8 4d 14	 fmul	 DWORD PTR _fTurnSpeed$[ebp]
  001a0	d8 4d 9c	 fmul	 DWORD PTR _fExtent$[ebp]
  001a3	8b 45 f8	 mov	 eax, DWORD PTR _this$[ebp]
  001a6	d9 98 70 03 00
	00		 fstp	 DWORD PTR [eax+880]
$L93750:

; 263  : 
; 264  : 	// is target to the left or the right?
; 265  : 		fDot = D3DXPlaneDotNormal( &plnAhead, &vTargetNorm );

  001ac	8d 45 b4	 lea	 eax, DWORD PTR _vTargetNorm$[ebp]
  001af	50		 push	 eax
  001b0	8d 4d c8	 lea	 ecx, DWORD PTR _plnAhead$[ebp]
  001b3	51		 push	 ecx
  001b4	e8 00 00 00 00	 call	 ?D3DXPlaneDotNormal@@YAMPBUD3DXPLANE@@PBUD3DXVECTOR3@@@Z ; D3DXPlaneDotNormal
  001b9	83 c4 08	 add	 esp, 8
  001bc	d9 5d a8	 fstp	 DWORD PTR _fDot$[ebp]

; 266  : 		*fAngleX = fabsf( fDot );

  001bf	8b 45 a8	 mov	 eax, DWORD PTR _fDot$[ebp]
  001c2	50		 push	 eax
  001c3	e8 00 00 00 00	 call	 _fabsf
  001c8	83 c4 04	 add	 esp, 4
  001cb	8b 4d 0c	 mov	 ecx, DWORD PTR _fAngleX$[ebp]
  001ce	d9 19		 fstp	 DWORD PTR [ecx]

; 267  : 		fExtent = ( *fAngleX / 1 ) * 10 ;

  001d0	8b 45 0c	 mov	 eax, DWORD PTR _fAngleX$[ebp]
  001d3	d9 00		 fld	 DWORD PTR [eax]
  001d5	d8 35 00 00 00
	00		 fdiv	 DWORD PTR __real@3f800000
  001db	d8 0d 00 00 00
	00		 fmul	 DWORD PTR __real@41200000
  001e1	d9 5d 9c	 fstp	 DWORD PTR _fExtent$[ebp]

; 268  : 
; 269  : 		if( fDot < 0 )

  001e4	d9 45 a8	 fld	 DWORD PTR _fDot$[ebp]
  001e7	d8 1d 00 00 00
	00		 fcomp	 DWORD PTR __real@00000000
  001ed	df e0		 fnstsw	 ax
  001ef	f6 c4 05	 test	 ah, 5
  001f2	7a 15		 jp	 SHORT $L93751

; 270  : 			m_FlightControls.fSteerLeft = MAX_FLIGHTMAP * fTurnSpeed * fExtent ;

  001f4	d9 05 00 00 00
	00		 fld	 DWORD PTR __real@41a00000
  001fa	d8 4d 14	 fmul	 DWORD PTR _fTurnSpeed$[ebp]
  001fd	d8 4d 9c	 fmul	 DWORD PTR _fExtent$[ebp]
  00200	8b 45 f8	 mov	 eax, DWORD PTR _this$[ebp]
  00203	d9 98 64 03 00
	00		 fstp	 DWORD PTR [eax+868]
$L93751:

; 271  : 		if( fDot > 0 )

  00209	d9 45 a8	 fld	 DWORD PTR _fDot$[ebp]
  0020c	d8 1d 00 00 00
	00		 fcomp	 DWORD PTR __real@00000000
  00212	df e0		 fnstsw	 ax
  00214	f6 c4 41	 test	 ah, 65			; 00000041H
  00217	75 15		 jne	 SHORT $L93737

; 272  : 			m_FlightControls.fSteerRight= MAX_FLIGHTMAP * fTurnSpeed * fExtent ;

  00219	d9 05 00 00 00
	00		 fld	 DWORD PTR __real@41a00000
  0021f	d8 4d 14	 fmul	 DWORD PTR _fTurnSpeed$[ebp]
  00222	d8 4d 9c	 fmul	 DWORD PTR _fExtent$[ebp]
  00225	8b 45 f8	 mov	 eax, DWORD PTR _this$[ebp]
  00228	d9 98 68 03 00
	00		 fstp	 DWORD PTR [eax+872]
$L93737:

; 273  : 	}

  0022e	52		 push	 edx
  0022f	8b cd		 mov	 ecx, ebp
  00231	50		 push	 eax
  00232	8d 15 00 00 00
	00		 lea	 edx, DWORD PTR $L93889
  00238	e8 00 00 00 00	 call	 @_RTC_CheckStackVars@8
  0023d	58		 pop	 eax
  0023e	5a		 pop	 edx
  0023f	5f		 pop	 edi
  00240	5e		 pop	 esi
  00241	5b		 pop	 ebx
  00242	81 c4 a0 01 00
	00		 add	 esp, 416		; 000001a0H
  00248	3b ec		 cmp	 ebp, esp
  0024a	e8 00 00 00 00	 call	 __RTC_CheckEsp
  0024f	8b e5		 mov	 esp, ebp
  00251	5d		 pop	 ebp
  00252	c2 10 00	 ret	 16			; 00000010H
$L93889:
  00255	03 00 00 00	 DD	 3
  00259	00 00 00 00	 DD	 $L93888
$L93888:
  0025d	e0 ff ff ff	 DD	 -32			; ffffffe0H
  00261	10 00 00 00	 DD	 16			; 00000010H
  00265	00 00 00 00	 DD	 $L93885
  00269	c8 ff ff ff	 DD	 -56			; ffffffc8H
  0026d	10 00 00 00	 DD	 16			; 00000010H
  00271	00 00 00 00	 DD	 $L93886
  00275	b4 ff ff ff	 DD	 -76			; ffffffb4H
  00279	0c 00 00 00	 DD	 12			; 0000000cH
  0027d	00 00 00 00	 DD	 $L93887
$L93887:
  00281	76		 DB	 118			; 00000076H
  00282	54		 DB	 84			; 00000054H
  00283	61		 DB	 97			; 00000061H
  00284	72		 DB	 114			; 00000072H
  00285	67		 DB	 103			; 00000067H
  00286	65		 DB	 101			; 00000065H
  00287	74		 DB	 116			; 00000074H
  00288	4e		 DB	 78			; 0000004eH
  00289	6f		 DB	 111			; 0000006fH
  0028a	72		 DB	 114			; 00000072H
  0028b	6d		 DB	 109			; 0000006dH
  0028c	00		 DB	 0
$L93886:
  0028d	70		 DB	 112			; 00000070H
  0028e	6c		 DB	 108			; 0000006cH
  0028f	6e		 DB	 110			; 0000006eH
  00290	41		 DB	 65			; 00000041H
  00291	68		 DB	 104			; 00000068H
  00292	65		 DB	 101			; 00000065H
  00293	61		 DB	 97			; 00000061H
  00294	64		 DB	 100			; 00000064H
  00295	00		 DB	 0
$L93885:
  00296	70		 DB	 112			; 00000070H
  00297	6c		 DB	 108			; 0000006cH
  00298	6e		 DB	 110			; 0000006eH
  00299	47		 DB	 71			; 00000047H
  0029a	72		 DB	 114			; 00000072H
  0029b	6f		 DB	 111			; 0000006fH
  0029c	75		 DB	 117			; 00000075H
  0029d	6e		 DB	 110			; 0000006eH
  0029e	64		 DB	 100			; 00000064H
  0029f	00		 DB	 0
?FC_AlignWithTarget@CBotFighter@@QAEXABUD3DXVECTOR3@@PAM1M@Z ENDP ; CBotFighter::FC_AlignWithTarget
_TEXT	ENDS
PUBLIC	?FrameMove@CBotFighter@@QAEHPAUIDirect3DDevice8@@PAVCUserInput@@MPAVCCamera@@PAUD3DXMATRIX@@PAU_D3DVIEWPORT8@@HPAVCTerrain@@HMPAVCRace@@@Z ; CBotFighter::FrameMove
EXTRN	?ProcessPhysicsFromFlightControls@CFighter@@QAEXPAUFLIGHT_CONTROLS@@MPAVCTerrain@@HPAVCRace@@PAUIDirect3DDevice8@@MPAM@Z:NEAR ; CFighter::ProcessPhysicsFromFlightControls
EXTRN	?Respawn@CFighter@@QAEXPAVCTerrain@@@Z:NEAR	; CFighter::Respawn
EXTRN	?FrameMove@CFighter@@QAEHPAUIDirect3DDevice8@@PAVCUserInput@@MPAVCCamera@@PAUD3DXMATRIX@@PAU_D3DVIEWPORT8@@HPAVCTerrain@@HMPAVCRace@@@Z:NEAR ; CFighter::FrameMove
; Function compile flags: /Odt /RTCsu /ZI
;	COMDAT ?FrameMove@CBotFighter@@QAEHPAUIDirect3DDevice8@@PAVCUserInput@@MPAVCCamera@@PAUD3DXMATRIX@@PAU_D3DVIEWPORT8@@HPAVCTerrain@@HMPAVCRace@@@Z
_TEXT	SEGMENT
_ret$ = -20
_this$ = -8
_pDev$ = 8
_pInput$ = 12
_fFPS$ = 16
_pCamera$ = 20
_pmatProj$ = 24
_pVP$ = 28
_bManageCamera$ = 32
_pTerrain$ = 36
_ctCamMode$ = 40
_fElapsedTime$ = 44
_pRace$ = 48
?FrameMove@CBotFighter@@QAEHPAUIDirect3DDevice8@@PAVCUserInput@@MPAVCCamera@@PAUD3DXMATRIX@@PAU_D3DVIEWPORT8@@HPAVCTerrain@@HMPAVCRace@@@Z PROC NEAR ; CBotFighter::FrameMove, COMDAT
; _this$ = ecx

; 291  : 	{

  00000	55		 push	 ebp
  00001	8b ec		 mov	 ebp, esp
  00003	81 ec d8 00 00
	00		 sub	 esp, 216		; 000000d8H
  00009	53		 push	 ebx
  0000a	56		 push	 esi
  0000b	57		 push	 edi
  0000c	51		 push	 ecx
  0000d	8d bd 28 ff ff
	ff		 lea	 edi, DWORD PTR [ebp-216]
  00013	b9 36 00 00 00	 mov	 ecx, 54			; 00000036H
  00018	b8 cc cc cc cc	 mov	 eax, -858993460		; ccccccccH
  0001d	f3 ab		 rep stosd
  0001f	59		 pop	 ecx
  00020	89 4d f8	 mov	 DWORD PTR _this$[ebp], ecx

; 292  : 
; 293  : 	//
; 294  : 	// Decide what to do:
; 295  : 	//
; 296  : 		FC_Set( pDev, pRace, fFPS );

  00023	8b 45 10	 mov	 eax, DWORD PTR _fFPS$[ebp]
  00026	50		 push	 eax
  00027	8b 4d 30	 mov	 ecx, DWORD PTR _pRace$[ebp]
  0002a	51		 push	 ecx
  0002b	8b 55 08	 mov	 edx, DWORD PTR _pDev$[ebp]
  0002e	52		 push	 edx
  0002f	8b 4d f8	 mov	 ecx, DWORD PTR _this$[ebp]
  00032	e8 00 00 00 00	 call	 ?FC_Set@CBotFighter@@QAEXPAUIDirect3DDevice8@@PAVCRace@@M@Z ; CBotFighter::FC_Set

; 297  : 
; 298  : 	//
; 299  : 	// Process Flight Controls (Physics):
; 300  : 	//
; 301  : 		/*if( m_dwID % 2 == 0 )
; 302  : 			ProcessPhysicsFromFlightControls( &pInput->m_FlightControls, fFPS, pTerrain, TRUE, pRace, pDev, fElapsedTime, NULL );
; 303  : 		else*/
; 304  : 			ProcessPhysicsFromFlightControls( &m_FlightControls, fFPS, pTerrain, TRUE, pRace, pDev, fElapsedTime, NULL );

  00037	6a 00		 push	 0
  00039	8b 45 2c	 mov	 eax, DWORD PTR _fElapsedTime$[ebp]
  0003c	50		 push	 eax
  0003d	8b 4d 08	 mov	 ecx, DWORD PTR _pDev$[ebp]
  00040	51		 push	 ecx
  00041	8b 55 30	 mov	 edx, DWORD PTR _pRace$[ebp]
  00044	52		 push	 edx
  00045	6a 01		 push	 1
  00047	8b 45 24	 mov	 eax, DWORD PTR _pTerrain$[ebp]
  0004a	50		 push	 eax
  0004b	8b 4d 10	 mov	 ecx, DWORD PTR _fFPS$[ebp]
  0004e	51		 push	 ecx
  0004f	8b 55 f8	 mov	 edx, DWORD PTR _this$[ebp]
  00052	81 c2 5c 03 00
	00		 add	 edx, 860		; 0000035cH
  00058	52		 push	 edx
  00059	8b 4d f8	 mov	 ecx, DWORD PTR _this$[ebp]
  0005c	e8 00 00 00 00	 call	 ?ProcessPhysicsFromFlightControls@CFighter@@QAEXPAUFLIGHT_CONTROLS@@MPAVCTerrain@@HPAVCRace@@PAUIDirect3DDevice8@@MPAM@Z ; CFighter::ProcessPhysicsFromFlightControls

; 305  : 
; 306  : 	//
; 307  : 	// Baseclass FrameMove:
; 308  : 	//
; 309  : 		int ret ;
; 310  : 		ret = CFighter::FrameMove( pDev, pInput, fFPS, pCamera, pmatProj, pVP, bManageCamera, pTerrain, ctCamMode, fElapsedTime, pRace );

  00061	8b 45 30	 mov	 eax, DWORD PTR _pRace$[ebp]
  00064	50		 push	 eax
  00065	8b 4d 2c	 mov	 ecx, DWORD PTR _fElapsedTime$[ebp]
  00068	51		 push	 ecx
  00069	8b 55 28	 mov	 edx, DWORD PTR _ctCamMode$[ebp]
  0006c	52		 push	 edx
  0006d	8b 45 24	 mov	 eax, DWORD PTR _pTerrain$[ebp]
  00070	50		 push	 eax
  00071	8b 4d 20	 mov	 ecx, DWORD PTR _bManageCamera$[ebp]
  00074	51		 push	 ecx
  00075	8b 55 1c	 mov	 edx, DWORD PTR _pVP$[ebp]
  00078	52		 push	 edx
  00079	8b 45 18	 mov	 eax, DWORD PTR _pmatProj$[ebp]
  0007c	50		 push	 eax
  0007d	8b 4d 14	 mov	 ecx, DWORD PTR _pCamera$[ebp]
  00080	51		 push	 ecx
  00081	8b 55 10	 mov	 edx, DWORD PTR _fFPS$[ebp]
  00084	52		 push	 edx
  00085	8b 45 0c	 mov	 eax, DWORD PTR _pInput$[ebp]
  00088	50		 push	 eax
  00089	8b 4d 08	 mov	 ecx, DWORD PTR _pDev$[ebp]
  0008c	51		 push	 ecx
  0008d	8b 4d f8	 mov	 ecx, DWORD PTR _this$[ebp]
  00090	e8 00 00 00 00	 call	 ?FrameMove@CFighter@@QAEHPAUIDirect3DDevice8@@PAVCUserInput@@MPAVCCamera@@PAUD3DXMATRIX@@PAU_D3DVIEWPORT8@@HPAVCTerrain@@HMPAVCRace@@@Z ; CFighter::FrameMove
  00095	89 45 ec	 mov	 DWORD PTR _ret$[ebp], eax

; 311  : 
; 312  : 	//
; 313  : 	// Respawn or Die:
; 314  : 	//
; 315  : 		if( m_bJustFinishedExploding )

  00098	8b 45 f8	 mov	 eax, DWORD PTR _this$[ebp]
  0009b	83 b8 18 03 00
	00 00		 cmp	 DWORD PTR [eax+792], 0
  000a2	74 62		 je	 SHORT $L93768

; 316  : 		{
; 317  : 			m_bJustFinishedExploding = false ;

  000a4	8b 45 f8	 mov	 eax, DWORD PTR _this$[ebp]
  000a7	c7 80 18 03 00
	00 00 00 00 00	 mov	 DWORD PTR [eax+792], 0

; 318  : 
; 319  : 			if( m_bBotWasKilledByProjectile )

  000b1	8b 45 f8	 mov	 eax, DWORD PTR _this$[ebp]
  000b4	0f b6 88 51 03
	00 00		 movzx	 ecx, BYTE PTR [eax+849]
  000bb	85 c9		 test	 ecx, ecx
  000bd	74 3b		 je	 SHORT $L93769

; 320  : 			{
; 321  : 				if( --m_nBotLives == 0 )

  000bf	8b 45 f8	 mov	 eax, DWORD PTR _this$[ebp]
  000c2	8b 88 54 03 00
	00		 mov	 ecx, DWORD PTR [eax+852]
  000c8	83 e9 01	 sub	 ecx, 1
  000cb	8b 55 f8	 mov	 edx, DWORD PTR _this$[ebp]
  000ce	89 8a 54 03 00
	00		 mov	 DWORD PTR [edx+852], ecx
  000d4	8b 45 f8	 mov	 eax, DWORD PTR _this$[ebp]
  000d7	83 b8 54 03 00
	00 00		 cmp	 DWORD PTR [eax+852], 0
  000de	75 0c		 jne	 SHORT $L93770

; 322  : 					m_bBotIsDead = true ;

  000e0	8b 45 f8	 mov	 eax, DWORD PTR _this$[ebp]
  000e3	c6 80 50 03 00
	00 01		 mov	 BYTE PTR [eax+848], 1

; 323  : 				else

  000ea	eb 0c		 jmp	 SHORT $L93771
$L93770:

; 324  : 					Respawn( pTerrain );

  000ec	8b 45 24	 mov	 eax, DWORD PTR _pTerrain$[ebp]
  000ef	50		 push	 eax
  000f0	8b 4d f8	 mov	 ecx, DWORD PTR _this$[ebp]
  000f3	e8 00 00 00 00	 call	 ?Respawn@CFighter@@QAEXPAVCTerrain@@@Z ; CFighter::Respawn
$L93771:

; 325  : 			}
; 326  : 			else 

  000f8	eb 0c		 jmp	 SHORT $L93768
$L93769:

; 327  : 				Respawn( pTerrain );

  000fa	8b 45 24	 mov	 eax, DWORD PTR _pTerrain$[ebp]
  000fd	50		 push	 eax
  000fe	8b 4d f8	 mov	 ecx, DWORD PTR _this$[ebp]
  00101	e8 00 00 00 00	 call	 ?Respawn@CFighter@@QAEXPAVCTerrain@@@Z ; CFighter::Respawn
$L93768:

; 328  : 		}
; 329  : 
; 330  : 		return ret ;

  00106	8b 45 ec	 mov	 eax, DWORD PTR _ret$[ebp]

; 331  : 	}

  00109	5f		 pop	 edi
  0010a	5e		 pop	 esi
  0010b	5b		 pop	 ebx
  0010c	81 c4 d8 00 00
	00		 add	 esp, 216		; 000000d8H
  00112	3b ec		 cmp	 ebp, esp
  00114	e8 00 00 00 00	 call	 __RTC_CheckEsp
  00119	8b e5		 mov	 esp, ebp
  0011b	5d		 pop	 ebp
  0011c	c2 2c 00	 ret	 44			; 0000002cH
?FrameMove@CBotFighter@@QAEHPAUIDirect3DDevice8@@PAVCUserInput@@MPAVCCamera@@PAUD3DXMATRIX@@PAU_D3DVIEWPORT8@@HPAVCTerrain@@HMPAVCRace@@@Z ENDP ; CBotFighter::FrameMove
_TEXT	ENDS
PUBLIC	?RestoreDeviceObjects@CBotFighter@@QAEJPAUIDirect3D8@@PAUIDirect3DDevice8@@PAVCScreenOverlayManager@@PAVCTextures@@M@Z ; CBotFighter::RestoreDeviceObjects
PUBLIC	??_C@_0CD@DLEOBMGB@CBotFighter?3?3RestoreDeviceObject@ ; `string'
EXTRN	?RestoreDeviceObjects@CFighter@@QAEJPAUIDirect3D8@@PAUIDirect3DDevice8@@PAVCScreenOverlayManager@@PAVCTextures@@M@Z:NEAR ; CFighter::RestoreDeviceObjects
EXTRN	?ods@@YAXPADZZ:NEAR				; ods
;	COMDAT ??_C@_0CD@DLEOBMGB@CBotFighter?3?3RestoreDeviceObject@
CONST	SEGMENT
??_C@_0CD@DLEOBMGB@CBotFighter?3?3RestoreDeviceObject@ DB 'CBotFighter::R'
	DB	'estoreDeviceObjects', 0aH, 00H		; `string'
; Function compile flags: /Odt /RTCsu /ZI
CONST	ENDS
;	COMDAT ?RestoreDeviceObjects@CBotFighter@@QAEJPAUIDirect3D8@@PAUIDirect3DDevice8@@PAVCScreenOverlayManager@@PAVCTextures@@M@Z
_TEXT	SEGMENT
_this$ = -8
_pD3D$ = 8
_pDev$ = 12
_pOM$ = 16
_pTex$ = 20
_fAspect$ = 24
?RestoreDeviceObjects@CBotFighter@@QAEJPAUIDirect3D8@@PAUIDirect3DDevice8@@PAVCScreenOverlayManager@@PAVCTextures@@M@Z PROC NEAR ; CBotFighter::RestoreDeviceObjects, COMDAT
; _this$ = ecx

; 334  : 	{		CFighter::RestoreDeviceObjects( pD3D, pDev, pOM, pTex, fAspect );

  00000	55		 push	 ebp
  00001	8b ec		 mov	 ebp, esp
  00003	81 ec cc 00 00
	00		 sub	 esp, 204		; 000000ccH
  00009	53		 push	 ebx
  0000a	56		 push	 esi
  0000b	57		 push	 edi
  0000c	51		 push	 ecx
  0000d	8d bd 34 ff ff
	ff		 lea	 edi, DWORD PTR [ebp-204]
  00013	b9 33 00 00 00	 mov	 ecx, 51			; 00000033H
  00018	b8 cc cc cc cc	 mov	 eax, -858993460		; ccccccccH
  0001d	f3 ab		 rep stosd
  0001f	59		 pop	 ecx
  00020	89 4d f8	 mov	 DWORD PTR _this$[ebp], ecx
  00023	8b 45 18	 mov	 eax, DWORD PTR _fAspect$[ebp]
  00026	50		 push	 eax
  00027	8b 4d 14	 mov	 ecx, DWORD PTR _pTex$[ebp]
  0002a	51		 push	 ecx
  0002b	8b 55 10	 mov	 edx, DWORD PTR _pOM$[ebp]
  0002e	52		 push	 edx
  0002f	8b 45 0c	 mov	 eax, DWORD PTR _pDev$[ebp]
  00032	50		 push	 eax
  00033	8b 4d 08	 mov	 ecx, DWORD PTR _pD3D$[ebp]
  00036	51		 push	 ecx
  00037	8b 4d f8	 mov	 ecx, DWORD PTR _this$[ebp]
  0003a	e8 00 00 00 00	 call	 ?RestoreDeviceObjects@CFighter@@QAEJPAUIDirect3D8@@PAUIDirect3DDevice8@@PAVCScreenOverlayManager@@PAVCTextures@@M@Z ; CFighter::RestoreDeviceObjects

; 335  : 
; 336  : 		ods( "CBotFighter::RestoreDeviceObjects\n" );

  0003f	68 00 00 00 00	 push	 OFFSET FLAT:??_C@_0CD@DLEOBMGB@CBotFighter?3?3RestoreDeviceObject@
  00044	e8 00 00 00 00	 call	 ?ods@@YAXPADZZ		; ods
  00049	83 c4 04	 add	 esp, 4

; 337  : 
; 338  : 		return S_OK ;

  0004c	33 c0		 xor	 eax, eax

; 339  : 	}

  0004e	5f		 pop	 edi
  0004f	5e		 pop	 esi
  00050	5b		 pop	 ebx
  00051	81 c4 cc 00 00
	00		 add	 esp, 204		; 000000ccH
  00057	3b ec		 cmp	 ebp, esp
  00059	e8 00 00 00 00	 call	 __RTC_CheckEsp
  0005e	8b e5		 mov	 esp, ebp
  00060	5d		 pop	 ebp
  00061	c2 14 00	 ret	 20			; 00000014H
?RestoreDeviceObjects@CBotFighter@@QAEJPAUIDirect3D8@@PAUIDirect3DDevice8@@PAVCScreenOverlayManager@@PAVCTextures@@M@Z ENDP ; CBotFighter::RestoreDeviceObjects
_TEXT	ENDS
PUBLIC	?InvalidateDeviceObjects@CBotFighter@@QAEJPAUIDirect3DDevice8@@@Z ; CBotFighter::InvalidateDeviceObjects
EXTRN	?InvalidateDeviceObjects@CFighter@@QAEJPAUIDirect3DDevice8@@@Z:NEAR ; CFighter::InvalidateDeviceObjects
; Function compile flags: /Odt /RTCsu /ZI
;	COMDAT ?InvalidateDeviceObjects@CBotFighter@@QAEJPAUIDirect3DDevice8@@@Z
_TEXT	SEGMENT
_this$ = -8
_pDev$ = 8
?InvalidateDeviceObjects@CBotFighter@@QAEJPAUIDirect3DDevice8@@@Z PROC NEAR ; CBotFighter::InvalidateDeviceObjects, COMDAT
; _this$ = ecx

; 342  : 	{

  00000	55		 push	 ebp
  00001	8b ec		 mov	 ebp, esp
  00003	81 ec cc 00 00
	00		 sub	 esp, 204		; 000000ccH
  00009	53		 push	 ebx
  0000a	56		 push	 esi
  0000b	57		 push	 edi
  0000c	51		 push	 ecx
  0000d	8d bd 34 ff ff
	ff		 lea	 edi, DWORD PTR [ebp-204]
  00013	b9 33 00 00 00	 mov	 ecx, 51			; 00000033H
  00018	b8 cc cc cc cc	 mov	 eax, -858993460		; ccccccccH
  0001d	f3 ab		 rep stosd
  0001f	59		 pop	 ecx
  00020	89 4d f8	 mov	 DWORD PTR _this$[ebp], ecx

; 343  : 		CFighter::InvalidateDeviceObjects( pDev );

  00023	8b 45 08	 mov	 eax, DWORD PTR _pDev$[ebp]
  00026	50		 push	 eax
  00027	8b 4d f8	 mov	 ecx, DWORD PTR _this$[ebp]
  0002a	e8 00 00 00 00	 call	 ?InvalidateDeviceObjects@CFighter@@QAEJPAUIDirect3DDevice8@@@Z ; CFighter::InvalidateDeviceObjects

; 344  : 		return S_OK ;

  0002f	33 c0		 xor	 eax, eax

; 345  : 	}

  00031	5f		 pop	 edi
  00032	5e		 pop	 esi
  00033	5b		 pop	 ebx
  00034	81 c4 cc 00 00
	00		 add	 esp, 204		; 000000ccH
  0003a	3b ec		 cmp	 ebp, esp
  0003c	e8 00 00 00 00	 call	 __RTC_CheckEsp
  00041	8b e5		 mov	 esp, ebp
  00043	5d		 pop	 ebp
  00044	c2 04 00	 ret	 4
?InvalidateDeviceObjects@CBotFighter@@QAEJPAUIDirect3DDevice8@@@Z ENDP ; CBotFighter::InvalidateDeviceObjects
_TEXT	ENDS
EXTRN	_fabs:NEAR
; Function compile flags: /Odt /RTCsu /ZI
; File c:\program files\microsoft visual studio .net\vc7\include\math.h
;	COMDAT _fabsf
_TEXT	SEGMENT
tv70 = -196
__X$ = 8
_fabsf	PROC NEAR					; COMDAT

; 450  :         {return ((float)fabs((double)_X)); }

  00000	55		 push	 ebp
  00001	8b ec		 mov	 ebp, esp
  00003	81 ec c4 00 00
	00		 sub	 esp, 196		; 000000c4H
  00009	53		 push	 ebx
  0000a	56		 push	 esi
  0000b	57		 push	 edi
  0000c	8d bd 3c ff ff
	ff		 lea	 edi, DWORD PTR [ebp-196]
  00012	b9 31 00 00 00	 mov	 ecx, 49			; 00000031H
  00017	b8 cc cc cc cc	 mov	 eax, -858993460		; ccccccccH
  0001c	f3 ab		 rep stosd
  0001e	d9 45 08	 fld	 DWORD PTR __X$[ebp]
  00021	83 ec 08	 sub	 esp, 8
  00024	dd 1c 24	 fstp	 QWORD PTR [esp]
  00027	e8 00 00 00 00	 call	 _fabs
  0002c	83 c4 08	 add	 esp, 8
  0002f	d9 95 3c ff ff
	ff		 fst	 DWORD PTR tv70[ebp]
  00035	5f		 pop	 edi
  00036	5e		 pop	 esi
  00037	5b		 pop	 ebx
  00038	81 c4 c4 00 00
	00		 add	 esp, 196		; 000000c4H
  0003e	3b ec		 cmp	 ebp, esp
  00040	e8 00 00 00 00	 call	 __RTC_CheckEsp
  00045	8b e5		 mov	 esp, ebp
  00047	5d		 pop	 ebp
  00048	c3		 ret	 0
_fabsf	ENDP
; Function compile flags: /Odt /RTCsu /ZI
; File c:\dxsdk\include\d3dx8math.h
_TEXT	ENDS
;	COMDAT ??0D3DXVECTOR3@@QAE@XZ
_TEXT	SEGMENT
_this$ = -8
??0D3DXVECTOR3@@QAE@XZ PROC NEAR			; D3DXVECTOR3::D3DXVECTOR3, COMDAT
; _this$ = ecx

; 89   :     D3DXVECTOR3() {};

  00000	55		 push	 ebp
  00001	8b ec		 mov	 ebp, esp
  00003	81 ec cc 00 00
	00		 sub	 esp, 204		; 000000ccH
  00009	53		 push	 ebx
  0000a	56		 push	 esi
  0000b	57		 push	 edi
  0000c	51		 push	 ecx
  0000d	8d bd 34 ff ff
	ff		 lea	 edi, DWORD PTR [ebp-204]
  00013	b9 33 00 00 00	 mov	 ecx, 51			; 00000033H
  00018	b8 cc cc cc cc	 mov	 eax, -858993460		; ccccccccH
  0001d	f3 ab		 rep stosd
  0001f	59		 pop	 ecx
  00020	89 4d f8	 mov	 DWORD PTR _this$[ebp], ecx
  00023	8b 45 f8	 mov	 eax, DWORD PTR _this$[ebp]
  00026	5f		 pop	 edi
  00027	5e		 pop	 esi
  00028	5b		 pop	 ebx
  00029	8b e5		 mov	 esp, ebp
  0002b	5d		 pop	 ebp
  0002c	c3		 ret	 0
??0D3DXVECTOR3@@QAE@XZ ENDP				; D3DXVECTOR3::D3DXVECTOR3
; Function compile flags: /Odt /RTCsu /ZI
_TEXT	ENDS
;	COMDAT ??0D3DXMATRIX@@QAE@XZ
_TEXT	SEGMENT
_this$ = -8
??0D3DXMATRIX@@QAE@XZ PROC NEAR				; D3DXMATRIX::D3DXMATRIX, COMDAT
; _this$ = ecx

; 177  :     D3DXMATRIX() {};

  00000	55		 push	 ebp
  00001	8b ec		 mov	 ebp, esp
  00003	81 ec cc 00 00
	00		 sub	 esp, 204		; 000000ccH
  00009	53		 push	 ebx
  0000a	56		 push	 esi
  0000b	57		 push	 edi
  0000c	51		 push	 ecx
  0000d	8d bd 34 ff ff
	ff		 lea	 edi, DWORD PTR [ebp-204]
  00013	b9 33 00 00 00	 mov	 ecx, 51			; 00000033H
  00018	b8 cc cc cc cc	 mov	 eax, -858993460		; ccccccccH
  0001d	f3 ab		 rep stosd
  0001f	59		 pop	 ecx
  00020	89 4d f8	 mov	 DWORD PTR _this$[ebp], ecx
  00023	8b 45 f8	 mov	 eax, DWORD PTR _this$[ebp]
  00026	5f		 pop	 edi
  00027	5e		 pop	 esi
  00028	5b		 pop	 ebx
  00029	8b e5		 mov	 esp, ebp
  0002b	5d		 pop	 ebp
  0002c	c3		 ret	 0
??0D3DXMATRIX@@QAE@XZ ENDP				; D3DXMATRIX::D3DXMATRIX
; Function compile flags: /Odt /RTCsu /ZI
_TEXT	ENDS
;	COMDAT ??0D3DXPLANE@@QAE@XZ
_TEXT	SEGMENT
_this$ = -8
??0D3DXPLANE@@QAE@XZ PROC NEAR				; D3DXPLANE::D3DXPLANE, COMDAT
; _this$ = ecx

; 378  :     D3DXPLANE() {}

  00000	55		 push	 ebp
  00001	8b ec		 mov	 ebp, esp
  00003	81 ec cc 00 00
	00		 sub	 esp, 204		; 000000ccH
  00009	53		 push	 ebx
  0000a	56		 push	 esi
  0000b	57		 push	 edi
  0000c	51		 push	 ecx
  0000d	8d bd 34 ff ff
	ff		 lea	 edi, DWORD PTR [ebp-204]
  00013	b9 33 00 00 00	 mov	 ecx, 51			; 00000033H
  00018	b8 cc cc cc cc	 mov	 eax, -858993460		; ccccccccH
  0001d	f3 ab		 rep stosd
  0001f	59		 pop	 ecx
  00020	89 4d f8	 mov	 DWORD PTR _this$[ebp], ecx
  00023	8b 45 f8	 mov	 eax, DWORD PTR _this$[ebp]
  00026	5f		 pop	 edi
  00027	5e		 pop	 esi
  00028	5b		 pop	 ebx
  00029	8b e5		 mov	 esp, ebp
  0002b	5d		 pop	 ebp
  0002c	c3		 ret	 0
??0D3DXPLANE@@QAE@XZ ENDP				; D3DXPLANE::D3DXPLANE
; Function compile flags: /Odt /RTCsu /ZI
; File c:\dxsdk\include\d3dx8math.inl
_TEXT	ENDS
;	COMDAT ??0D3DXVECTOR3@@QAE@MMM@Z
_TEXT	SEGMENT
_this$ = -8
_fx$ = 8
_fy$ = 12
_fz$ = 16
??0D3DXVECTOR3@@QAE@MMM@Z PROC NEAR			; D3DXVECTOR3::D3DXVECTOR3, COMDAT
; _this$ = ecx

; 179  : {

  00000	55		 push	 ebp
  00001	8b ec		 mov	 ebp, esp
  00003	81 ec cc 00 00
	00		 sub	 esp, 204		; 000000ccH
  00009	53		 push	 ebx
  0000a	56		 push	 esi
  0000b	57		 push	 edi
  0000c	51		 push	 ecx
  0000d	8d bd 34 ff ff
	ff		 lea	 edi, DWORD PTR [ebp-204]
  00013	b9 33 00 00 00	 mov	 ecx, 51			; 00000033H
  00018	b8 cc cc cc cc	 mov	 eax, -858993460		; ccccccccH
  0001d	f3 ab		 rep stosd
  0001f	59		 pop	 ecx
  00020	89 4d f8	 mov	 DWORD PTR _this$[ebp], ecx

; 180  :     x = fx;

  00023	8b 45 f8	 mov	 eax, DWORD PTR _this$[ebp]
  00026	8b 4d 08	 mov	 ecx, DWORD PTR _fx$[ebp]
  00029	89 08		 mov	 DWORD PTR [eax], ecx

; 181  :     y = fy;

  0002b	8b 45 f8	 mov	 eax, DWORD PTR _this$[ebp]
  0002e	8b 4d 0c	 mov	 ecx, DWORD PTR _fy$[ebp]
  00031	89 48 04	 mov	 DWORD PTR [eax+4], ecx

; 182  :     z = fz;

  00034	8b 45 f8	 mov	 eax, DWORD PTR _this$[ebp]
  00037	8b 4d 10	 mov	 ecx, DWORD PTR _fz$[ebp]
  0003a	89 48 08	 mov	 DWORD PTR [eax+8], ecx

; 183  : }

  0003d	8b 45 f8	 mov	 eax, DWORD PTR _this$[ebp]
  00040	5f		 pop	 edi
  00041	5e		 pop	 esi
  00042	5b		 pop	 ebx
  00043	8b e5		 mov	 esp, ebp
  00045	5d		 pop	 ebp
  00046	c2 0c 00	 ret	 12			; 0000000cH
??0D3DXVECTOR3@@QAE@MMM@Z ENDP				; D3DXVECTOR3::D3DXVECTOR3
; Function compile flags: /Odt /RTCsu /ZI
_TEXT	ENDS
;	COMDAT ??HD3DXVECTOR3@@QBE?AU0@ABU0@@Z
_TEXT	SEGMENT
_this$ = -8
___$ReturnUdt$ = 8
_v$ = 12
??HD3DXVECTOR3@@QBE?AU0@ABU0@@Z PROC NEAR		; D3DXVECTOR3::operator+, COMDAT
; _this$ = ecx

; 256  : {

  00000	55		 push	 ebp
  00001	8b ec		 mov	 ebp, esp
  00003	81 ec cc 00 00
	00		 sub	 esp, 204		; 000000ccH
  00009	53		 push	 ebx
  0000a	56		 push	 esi
  0000b	57		 push	 edi
  0000c	51		 push	 ecx
  0000d	8d bd 34 ff ff
	ff		 lea	 edi, DWORD PTR [ebp-204]
  00013	b9 33 00 00 00	 mov	 ecx, 51			; 00000033H
  00018	b8 cc cc cc cc	 mov	 eax, -858993460		; ccccccccH
  0001d	f3 ab		 rep stosd
  0001f	59		 pop	 ecx
  00020	89 4d f8	 mov	 DWORD PTR _this$[ebp], ecx

; 257  :     return D3DXVECTOR3(x + v.x, y + v.y, z + v.z);

  00023	8b 45 f8	 mov	 eax, DWORD PTR _this$[ebp]
  00026	8b 4d 0c	 mov	 ecx, DWORD PTR _v$[ebp]
  00029	d9 40 08	 fld	 DWORD PTR [eax+8]
  0002c	d8 41 08	 fadd	 DWORD PTR [ecx+8]
  0002f	51		 push	 ecx
  00030	d9 1c 24	 fstp	 DWORD PTR [esp]
  00033	8b 55 f8	 mov	 edx, DWORD PTR _this$[ebp]
  00036	8b 45 0c	 mov	 eax, DWORD PTR _v$[ebp]
  00039	d9 42 04	 fld	 DWORD PTR [edx+4]
  0003c	d8 40 04	 fadd	 DWORD PTR [eax+4]
  0003f	51		 push	 ecx
  00040	d9 1c 24	 fstp	 DWORD PTR [esp]
  00043	8b 4d f8	 mov	 ecx, DWORD PTR _this$[ebp]
  00046	8b 55 0c	 mov	 edx, DWORD PTR _v$[ebp]
  00049	d9 01		 fld	 DWORD PTR [ecx]
  0004b	d8 02		 fadd	 DWORD PTR [edx]
  0004d	51		 push	 ecx
  0004e	d9 1c 24	 fstp	 DWORD PTR [esp]
  00051	8b 4d 08	 mov	 ecx, DWORD PTR ___$ReturnUdt$[ebp]
  00054	e8 00 00 00 00	 call	 ??0D3DXVECTOR3@@QAE@MMM@Z ; D3DXVECTOR3::D3DXVECTOR3
  00059	8b 45 08	 mov	 eax, DWORD PTR ___$ReturnUdt$[ebp]

; 258  : }

  0005c	5f		 pop	 edi
  0005d	5e		 pop	 esi
  0005e	5b		 pop	 ebx
  0005f	81 c4 cc 00 00
	00		 add	 esp, 204		; 000000ccH
  00065	3b ec		 cmp	 ebp, esp
  00067	e8 00 00 00 00	 call	 __RTC_CheckEsp
  0006c	8b e5		 mov	 esp, ebp
  0006e	5d		 pop	 ebp
  0006f	c2 08 00	 ret	 8
??HD3DXVECTOR3@@QBE?AU0@ABU0@@Z ENDP			; D3DXVECTOR3::operator+
; Function compile flags: /Odt /RTCsu /ZI
_TEXT	ENDS
;	COMDAT ??GD3DXVECTOR3@@QBE?AU0@ABU0@@Z
_TEXT	SEGMENT
_this$ = -8
___$ReturnUdt$ = 8
_v$ = 12
??GD3DXVECTOR3@@QBE?AU0@ABU0@@Z PROC NEAR		; D3DXVECTOR3::operator-, COMDAT
; _this$ = ecx

; 262  : {

  00000	55		 push	 ebp
  00001	8b ec		 mov	 ebp, esp
  00003	81 ec cc 00 00
	00		 sub	 esp, 204		; 000000ccH
  00009	53		 push	 ebx
  0000a	56		 push	 esi
  0000b	57		 push	 edi
  0000c	51		 push	 ecx
  0000d	8d bd 34 ff ff
	ff		 lea	 edi, DWORD PTR [ebp-204]
  00013	b9 33 00 00 00	 mov	 ecx, 51			; 00000033H
  00018	b8 cc cc cc cc	 mov	 eax, -858993460		; ccccccccH
  0001d	f3 ab		 rep stosd
  0001f	59		 pop	 ecx
  00020	89 4d f8	 mov	 DWORD PTR _this$[ebp], ecx

; 263  :     return D3DXVECTOR3(x - v.x, y - v.y, z - v.z);

  00023	8b 45 f8	 mov	 eax, DWORD PTR _this$[ebp]
  00026	8b 4d 0c	 mov	 ecx, DWORD PTR _v$[ebp]
  00029	d9 40 08	 fld	 DWORD PTR [eax+8]
  0002c	d8 61 08	 fsub	 DWORD PTR [ecx+8]
  0002f	51		 push	 ecx
  00030	d9 1c 24	 fstp	 DWORD PTR [esp]
  00033	8b 55 f8	 mov	 edx, DWORD PTR _this$[ebp]
  00036	8b 45 0c	 mov	 eax, DWORD PTR _v$[ebp]
  00039	d9 42 04	 fld	 DWORD PTR [edx+4]
  0003c	d8 60 04	 fsub	 DWORD PTR [eax+4]
  0003f	51		 push	 ecx
  00040	d9 1c 24	 fstp	 DWORD PTR [esp]
  00043	8b 4d f8	 mov	 ecx, DWORD PTR _this$[ebp]
  00046	8b 55 0c	 mov	 edx, DWORD PTR _v$[ebp]
  00049	d9 01		 fld	 DWORD PTR [ecx]
  0004b	d8 22		 fsub	 DWORD PTR [edx]
  0004d	51		 push	 ecx
  0004e	d9 1c 24	 fstp	 DWORD PTR [esp]
  00051	8b 4d 08	 mov	 ecx, DWORD PTR ___$ReturnUdt$[ebp]
  00054	e8 00 00 00 00	 call	 ??0D3DXVECTOR3@@QAE@MMM@Z ; D3DXVECTOR3::D3DXVECTOR3
  00059	8b 45 08	 mov	 eax, DWORD PTR ___$ReturnUdt$[ebp]

; 264  : }

  0005c	5f		 pop	 edi
  0005d	5e		 pop	 esi
  0005e	5b		 pop	 ebx
  0005f	81 c4 cc 00 00
	00		 add	 esp, 204		; 000000ccH
  00065	3b ec		 cmp	 ebp, esp
  00067	e8 00 00 00 00	 call	 __RTC_CheckEsp
  0006c	8b e5		 mov	 esp, ebp
  0006e	5d		 pop	 ebp
  0006f	c2 08 00	 ret	 8
??GD3DXVECTOR3@@QBE?AU0@ABU0@@Z ENDP			; D3DXVECTOR3::operator-
; Function compile flags: /Odt /RTCsu /ZI
_TEXT	ENDS
;	COMDAT ??DD3DXVECTOR3@@QBE?AU0@M@Z
_TEXT	SEGMENT
_this$ = -8
___$ReturnUdt$ = 8
_f$ = 12
??DD3DXVECTOR3@@QBE?AU0@M@Z PROC NEAR			; D3DXVECTOR3::operator*, COMDAT
; _this$ = ecx

; 268  : {

  00000	55		 push	 ebp
  00001	8b ec		 mov	 ebp, esp
  00003	81 ec cc 00 00
	00		 sub	 esp, 204		; 000000ccH
  00009	53		 push	 ebx
  0000a	56		 push	 esi
  0000b	57		 push	 edi
  0000c	51		 push	 ecx
  0000d	8d bd 34 ff ff
	ff		 lea	 edi, DWORD PTR [ebp-204]
  00013	b9 33 00 00 00	 mov	 ecx, 51			; 00000033H
  00018	b8 cc cc cc cc	 mov	 eax, -858993460		; ccccccccH
  0001d	f3 ab		 rep stosd
  0001f	59		 pop	 ecx
  00020	89 4d f8	 mov	 DWORD PTR _this$[ebp], ecx

; 269  :     return D3DXVECTOR3(x * f, y * f, z * f);

  00023	8b 45 f8	 mov	 eax, DWORD PTR _this$[ebp]
  00026	d9 45 0c	 fld	 DWORD PTR _f$[ebp]
  00029	d8 48 08	 fmul	 DWORD PTR [eax+8]
  0002c	51		 push	 ecx
  0002d	d9 1c 24	 fstp	 DWORD PTR [esp]
  00030	8b 4d f8	 mov	 ecx, DWORD PTR _this$[ebp]
  00033	d9 45 0c	 fld	 DWORD PTR _f$[ebp]
  00036	d8 49 04	 fmul	 DWORD PTR [ecx+4]
  00039	51		 push	 ecx
  0003a	d9 1c 24	 fstp	 DWORD PTR [esp]
  0003d	8b 55 f8	 mov	 edx, DWORD PTR _this$[ebp]
  00040	d9 45 0c	 fld	 DWORD PTR _f$[ebp]
  00043	d8 0a		 fmul	 DWORD PTR [edx]
  00045	51		 push	 ecx
  00046	d9 1c 24	 fstp	 DWORD PTR [esp]
  00049	8b 4d 08	 mov	 ecx, DWORD PTR ___$ReturnUdt$[ebp]
  0004c	e8 00 00 00 00	 call	 ??0D3DXVECTOR3@@QAE@MMM@Z ; D3DXVECTOR3::D3DXVECTOR3
  00051	8b 45 08	 mov	 eax, DWORD PTR ___$ReturnUdt$[ebp]

; 270  : }

  00054	5f		 pop	 edi
  00055	5e		 pop	 esi
  00056	5b		 pop	 ebx
  00057	81 c4 cc 00 00
	00		 add	 esp, 204		; 000000ccH
  0005d	3b ec		 cmp	 ebp, esp
  0005f	e8 00 00 00 00	 call	 __RTC_CheckEsp
  00064	8b e5		 mov	 esp, ebp
  00066	5d		 pop	 ebp
  00067	c2 08 00	 ret	 8
??DD3DXVECTOR3@@QBE?AU0@M@Z ENDP			; D3DXVECTOR3::operator*
_TEXT	ENDS
PUBLIC	_sqrtf
; Function compile flags: /Odt /RTCsu /ZI
;	COMDAT ?D3DXVec3Length@@YAMPBUD3DXVECTOR3@@@Z
_TEXT	SEGMENT
_pV$ = 8
?D3DXVec3Length@@YAMPBUD3DXVECTOR3@@@Z PROC NEAR	; D3DXVec3Length, COMDAT

; 1232 : {

  00000	55		 push	 ebp
  00001	8b ec		 mov	 ebp, esp
  00003	81 ec c0 00 00
	00		 sub	 esp, 192		; 000000c0H
  00009	53		 push	 ebx
  0000a	56		 push	 esi
  0000b	57		 push	 edi
  0000c	8d bd 40 ff ff
	ff		 lea	 edi, DWORD PTR [ebp-192]
  00012	b9 30 00 00 00	 mov	 ecx, 48			; 00000030H
  00017	b8 cc cc cc cc	 mov	 eax, -858993460		; ccccccccH
  0001c	f3 ab		 rep stosd

; 1233 : #ifdef D3DX_DEBUG
; 1234 :     if(!pV)
; 1235 :         return 0.0f;
; 1236 : #endif
; 1237 : 
; 1238 : #ifdef __cplusplus
; 1239 :     return sqrtf(pV->x * pV->x + pV->y * pV->y + pV->z * pV->z);

  0001e	8b 45 08	 mov	 eax, DWORD PTR _pV$[ebp]
  00021	8b 4d 08	 mov	 ecx, DWORD PTR _pV$[ebp]
  00024	d9 00		 fld	 DWORD PTR [eax]
  00026	d8 09		 fmul	 DWORD PTR [ecx]
  00028	8b 55 08	 mov	 edx, DWORD PTR _pV$[ebp]
  0002b	8b 45 08	 mov	 eax, DWORD PTR _pV$[ebp]
  0002e	d9 42 04	 fld	 DWORD PTR [edx+4]
  00031	d8 48 04	 fmul	 DWORD PTR [eax+4]
  00034	de c1		 faddp	 ST(1), ST(0)
  00036	8b 4d 08	 mov	 ecx, DWORD PTR _pV$[ebp]
  00039	8b 55 08	 mov	 edx, DWORD PTR _pV$[ebp]
  0003c	d9 41 08	 fld	 DWORD PTR [ecx+8]
  0003f	d8 4a 08	 fmul	 DWORD PTR [edx+8]
  00042	de c1		 faddp	 ST(1), ST(0)
  00044	51		 push	 ecx
  00045	d9 1c 24	 fstp	 DWORD PTR [esp]
  00048	e8 00 00 00 00	 call	 _sqrtf
  0004d	83 c4 04	 add	 esp, 4

; 1240 : #else
; 1241 :     return (FLOAT) sqrt(pV->x * pV->x + pV->y * pV->y + pV->z * pV->z);
; 1242 : #endif
; 1243 : }

  00050	5f		 pop	 edi
  00051	5e		 pop	 esi
  00052	5b		 pop	 ebx
  00053	81 c4 c0 00 00
	00		 add	 esp, 192		; 000000c0H
  00059	3b ec		 cmp	 ebp, esp
  0005b	e8 00 00 00 00	 call	 __RTC_CheckEsp
  00060	8b e5		 mov	 esp, ebp
  00062	5d		 pop	 ebp
  00063	c3		 ret	 0
?D3DXVec3Length@@YAMPBUD3DXVECTOR3@@@Z ENDP		; D3DXVec3Length
_TEXT	ENDS
EXTRN	_sqrt:NEAR
; Function compile flags: /Odt /RTCsu /ZI
; File c:\program files\microsoft visual studio .net\vc7\include\math.h
;	COMDAT _sqrtf
_TEXT	SEGMENT
tv70 = -196
__X$ = 8
_sqrtf	PROC NEAR					; COMDAT

; 470  :         {return ((float)sqrt((double)_X)); }

  00000	55		 push	 ebp
  00001	8b ec		 mov	 ebp, esp
  00003	81 ec c4 00 00
	00		 sub	 esp, 196		; 000000c4H
  00009	53		 push	 ebx
  0000a	56		 push	 esi
  0000b	57		 push	 edi
  0000c	8d bd 3c ff ff
	ff		 lea	 edi, DWORD PTR [ebp-196]
  00012	b9 31 00 00 00	 mov	 ecx, 49			; 00000031H
  00017	b8 cc cc cc cc	 mov	 eax, -858993460		; ccccccccH
  0001c	f3 ab		 rep stosd
  0001e	d9 45 08	 fld	 DWORD PTR __X$[ebp]
  00021	83 ec 08	 sub	 esp, 8
  00024	dd 1c 24	 fstp	 QWORD PTR [esp]
  00027	e8 00 00 00 00	 call	 _sqrt
  0002c	83 c4 08	 add	 esp, 8
  0002f	d9 95 3c ff ff
	ff		 fst	 DWORD PTR tv70[ebp]
  00035	5f		 pop	 edi
  00036	5e		 pop	 esi
  00037	5b		 pop	 ebx
  00038	81 c4 c4 00 00
	00		 add	 esp, 196		; 000000c4H
  0003e	3b ec		 cmp	 ebp, esp
  00040	e8 00 00 00 00	 call	 __RTC_CheckEsp
  00045	8b e5		 mov	 esp, ebp
  00047	5d		 pop	 ebp
  00048	c3		 ret	 0
_sqrtf	ENDP
; Function compile flags: /Odt /RTCsu /ZI
; File c:\dxsdk\include\d3dx8math.inl
_TEXT	ENDS
;	COMDAT ?D3DXPlaneDotNormal@@YAMPBUD3DXPLANE@@PBUD3DXVECTOR3@@@Z
_TEXT	SEGMENT
_pP$ = 8
_pV$ = 12
?D3DXPlaneDotNormal@@YAMPBUD3DXPLANE@@PBUD3DXVECTOR3@@@Z PROC NEAR ; D3DXPlaneDotNormal, COMDAT

; 1652 : {

  00000	55		 push	 ebp
  00001	8b ec		 mov	 ebp, esp
  00003	81 ec c0 00 00
	00		 sub	 esp, 192		; 000000c0H
  00009	53		 push	 ebx
  0000a	56		 push	 esi
  0000b	57		 push	 edi
  0000c	8d bd 40 ff ff
	ff		 lea	 edi, DWORD PTR [ebp-192]
  00012	b9 30 00 00 00	 mov	 ecx, 48			; 00000030H
  00017	b8 cc cc cc cc	 mov	 eax, -858993460		; ccccccccH
  0001c	f3 ab		 rep stosd

; 1653 : #ifdef D3DX_DEBUG
; 1654 :     if(!pP || !pV)
; 1655 :         return 0.0f;
; 1656 : #endif
; 1657 : 
; 1658 :     return pP->a * pV->x + pP->b * pV->y + pP->c * pV->z;

  0001e	8b 45 08	 mov	 eax, DWORD PTR _pP$[ebp]
  00021	8b 4d 0c	 mov	 ecx, DWORD PTR _pV$[ebp]
  00024	d9 00		 fld	 DWORD PTR [eax]
  00026	d8 09		 fmul	 DWORD PTR [ecx]
  00028	8b 55 08	 mov	 edx, DWORD PTR _pP$[ebp]
  0002b	8b 45 0c	 mov	 eax, DWORD PTR _pV$[ebp]
  0002e	d9 42 04	 fld	 DWORD PTR [edx+4]
  00031	d8 48 04	 fmul	 DWORD PTR [eax+4]
  00034	de c1		 faddp	 ST(1), ST(0)
  00036	8b 4d 08	 mov	 ecx, DWORD PTR _pP$[ebp]
  00039	8b 55 0c	 mov	 edx, DWORD PTR _pV$[ebp]
  0003c	d9 41 08	 fld	 DWORD PTR [ecx+8]
  0003f	d8 4a 08	 fmul	 DWORD PTR [edx+8]
  00042	de c1		 faddp	 ST(1), ST(0)

; 1659 : }

  00044	5f		 pop	 edi
  00045	5e		 pop	 esi
  00046	5b		 pop	 ebx
  00047	8b e5		 mov	 esp, ebp
  00049	5d		 pop	 ebp
  0004a	c3		 ret	 0
?D3DXPlaneDotNormal@@YAMPBUD3DXPLANE@@PBUD3DXVECTOR3@@@Z ENDP ; D3DXPlaneDotNormal
_TEXT	ENDS
END
