; Listing generated by Microsoft (R) Optimizing Compiler Version 13.00.9466 

	TITLE	CBoundingBox.cpp
	.386P
include listing.inc
if @Version gt 510
.model FLAT
else
_TEXT	SEGMENT PARA USE32 PUBLIC 'CODE'
_TEXT	ENDS
_DATA	SEGMENT DWORD USE32 PUBLIC 'DATA'
_DATA	ENDS
CONST	SEGMENT DWORD USE32 PUBLIC 'CONST'
CONST	ENDS
_BSS	SEGMENT DWORD USE32 PUBLIC 'BSS'
_BSS	ENDS
$$SYMBOLS	SEGMENT BYTE USE32 'DEBSYM'
$$SYMBOLS	ENDS
$$TYPES	SEGMENT BYTE USE32 'DEBTYP'
$$TYPES	ENDS
_TLS	SEGMENT DWORD USE32 PUBLIC 'TLS'
_TLS	ENDS
;	COMDAT ??_C@_0EO@OLNAAMEJ@c?3?2documents?5and?5settings?2dom?2my@
CONST	SEGMENT DWORD USE32 PUBLIC 'CONST'
CONST	ENDS
;	COMDAT ??_C@_07MGPDHOIB@?$CKppNode?$AA@
CONST	SEGMENT DWORD USE32 PUBLIC 'CONST'
CONST	ENDS
;	COMDAT ??_C@_0BK@CHONACEG@m_nOTNodes?5?$DM?5MAX_OT_NODES?$AA@
CONST	SEGMENT DWORD USE32 PUBLIC 'CONST'
CONST	ENDS
;	COMDAT ??_C@_0M@NKNCPJJD@?$CBFAILED?$CIhr?$CJ?$AA@
CONST	SEGMENT DWORD USE32 PUBLIC 'CONST'
CONST	ENDS
;	COMDAT ??_C@_08OFPOHIDN@hr?$DN?$DNS_OK?$AA@
CONST	SEGMENT DWORD USE32 PUBLIC 'CONST'
CONST	ENDS
;	COMDAT _IsEqualGUID
_TEXT	SEGMENT PARA USE32 PUBLIC 'CODE'
_TEXT	ENDS
;	COMDAT _==
_TEXT	SEGMENT PARA USE32 PUBLIC 'CODE'
_TEXT	ENDS
;	COMDAT _sqrtf
_TEXT	SEGMENT PARA USE32 PUBLIC 'CODE'
_TEXT	ENDS
;	COMDAT ??0D3DXVECTOR3@@QAE@XZ
_TEXT	SEGMENT PARA USE32 PUBLIC 'CODE'
_TEXT	ENDS
;	COMDAT ??0D3DXVECTOR4@@QAE@XZ
_TEXT	SEGMENT PARA USE32 PUBLIC 'CODE'
_TEXT	ENDS
;	COMDAT ??0D3DXMATRIX@@QAE@XZ
_TEXT	SEGMENT PARA USE32 PUBLIC 'CODE'
_TEXT	ENDS
;	COMDAT ??0D3DXQUATERNION@@QAE@XZ
_TEXT	SEGMENT PARA USE32 PUBLIC 'CODE'
_TEXT	ENDS
;	COMDAT ??0D3DXVECTOR2@@QAE@MM@Z
_TEXT	SEGMENT PARA USE32 PUBLIC 'CODE'
_TEXT	ENDS
;	COMDAT ??0D3DXVECTOR3@@QAE@MMM@Z
_TEXT	SEGMENT PARA USE32 PUBLIC 'CODE'
_TEXT	ENDS
;	COMDAT ??DD3DXVECTOR3@@QBE?AU0@M@Z
_TEXT	SEGMENT PARA USE32 PUBLIC 'CODE'
_TEXT	ENDS
;	COMDAT ??0D3DXVECTOR4@@QAE@MMMM@Z
_TEXT	SEGMENT PARA USE32 PUBLIC 'CODE'
_TEXT	ENDS
;	COMDAT ??0D3DXMATRIX@@QAE@PBM@Z
_TEXT	SEGMENT PARA USE32 PUBLIC 'CODE'
_TEXT	ENDS
;	COMDAT ??0D3DXMATRIX@@QAE@ABU_D3DMATRIX@@@Z
_TEXT	SEGMENT PARA USE32 PUBLIC 'CODE'
_TEXT	ENDS
;	COMDAT ??0D3DXMATRIX@@QAE@MMMMMMMMMMMMMMMM@Z
_TEXT	SEGMENT PARA USE32 PUBLIC 'CODE'
_TEXT	ENDS
;	COMDAT ??0D3DXQUATERNION@@QAE@MMMM@Z
_TEXT	SEGMENT PARA USE32 PUBLIC 'CODE'
_TEXT	ENDS
;	COMDAT ??0D3DXPLANE@@QAE@MMMM@Z
_TEXT	SEGMENT PARA USE32 PUBLIC 'CODE'
_TEXT	ENDS
;	COMDAT ??0D3DXCOLOR@@QAE@MMMM@Z
_TEXT	SEGMENT PARA USE32 PUBLIC 'CODE'
_TEXT	ENDS
;	COMDAT ?D3DXVec3Subtract@@YAPAUD3DXVECTOR3@@PAU1@PBU1@1@Z
_TEXT	SEGMENT PARA USE32 PUBLIC 'CODE'
_TEXT	ENDS
;	COMDAT ??0COLOREDVERTEX@@QAE@XZ
_TEXT	SEGMENT PARA USE32 PUBLIC 'CODE'
_TEXT	ENDS
;	COMDAT ??0COLOREDVERTEX@@QAE@MMMMMKK@Z
_TEXT	SEGMENT PARA USE32 PUBLIC 'CODE'
_TEXT	ENDS
;	COMDAT ??0CBoundingBox@@QAE@PAUD3DXVECTOR3@@0@Z
_TEXT	SEGMENT PARA USE32 PUBLIC 'CODE'
_TEXT	ENDS
;	COMDAT ??_H@YGXPAXIHP6EPAX0@Z@Z
_TEXT	SEGMENT PARA USE32 PUBLIC 'CODE'
_TEXT	ENDS
;	COMDAT ??0CBoundingBox@@QAE@PAUD3DXVECTOR3@@@Z
_TEXT	SEGMENT PARA USE32 PUBLIC 'CODE'
_TEXT	ENDS
;	COMDAT ?InitRenderData@CBoundingBox@@QAEHXZ
_TEXT	SEGMENT PARA USE32 PUBLIC 'CODE'
_TEXT	ENDS
;	COMDAT ??1CBoundingBox@@QAE@XZ
_TEXT	SEGMENT PARA USE32 PUBLIC 'CODE'
_TEXT	ENDS
;	COMDAT ?BuildOctree@CBoundingBox@@QAEXH@Z
_TEXT	SEGMENT PARA USE32 PUBLIC 'CODE'
_TEXT	ENDS
;	COMDAT ?InitOctreeNode@CBoundingBox@@QAEXPAPAU_OTNode@1@@Z
_TEXT	SEGMENT PARA USE32 PUBLIC 'CODE'
_TEXT	ENDS
;	COMDAT ??0_OTNode@CBoundingBox@@QAE@XZ
_TEXT	SEGMENT PARA USE32 PUBLIC 'CODE'
_TEXT	ENDS
;	COMDAT ?RecurseOctree@CBoundingBox@@QAEXHPAU_OTNode@1@@Z
_TEXT	SEGMENT PARA USE32 PUBLIC 'CODE'
_TEXT	ENDS
;	COMDAT ?ApplyMatrix@CBoundingBox@@QAEXPAUD3DXMATRIX@@@Z
_TEXT	SEGMENT PARA USE32 PUBLIC 'CODE'
_TEXT	ENDS
;	COMDAT ?ApplyMatrixFromInitialValues@CBoundingBox@@QAEXPAUD3DXMATRIX@@@Z
_TEXT	SEGMENT PARA USE32 PUBLIC 'CODE'
_TEXT	ENDS
;	COMDAT ?MakeRenderData@CBoundingBox@@QAEJPAUIDirect3DDevice8@@@Z
_TEXT	SEGMENT PARA USE32 PUBLIC 'CODE'
_TEXT	ENDS
;	COMDAT ?LineIntersects@CBoundingBox@@QAEHPAUD3DXVECTOR3@@0M@Z
_TEXT	SEGMENT PARA USE32 PUBLIC 'CODE'
_TEXT	ENDS
;	COMDAT ?RestoreDeviceObjects@CBoundingBox@@QAEJPAUIDirect3DDevice8@@@Z
_TEXT	SEGMENT PARA USE32 PUBLIC 'CODE'
_TEXT	ENDS
;	COMDAT ?InvalidateDeviceObjects@CBoundingBox@@QAEJXZ
_TEXT	SEGMENT PARA USE32 PUBLIC 'CODE'
_TEXT	ENDS
;	COMDAT ?Render@CBoundingBox@@QAEJPAUIDirect3DDevice8@@PAKPAUD3DXMATRIX@@@Z
_TEXT	SEGMENT PARA USE32 PUBLIC 'CODE'
_TEXT	ENDS
;	COMDAT ?__LINE__Var@?1??RestoreDeviceObjects@CBoundingBox@@QAEJPAUIDirect3DDevice8@@@Z@4JA
_DATA	SEGMENT DWORD USE32 PUBLIC 'DATA'
_DATA	ENDS
;	COMDAT ?__LINE__Var@?1??MakeRenderData@CBoundingBox@@QAEJPAUIDirect3DDevice8@@@Z@4JA
_DATA	SEGMENT DWORD USE32 PUBLIC 'DATA'
_DATA	ENDS
;	COMDAT ?__LINE__Var@?1??InitOctreeNode@CBoundingBox@@QAEXPAPAU_OTNode@2@@Z@4JA
_DATA	SEGMENT DWORD USE32 PUBLIC 'DATA'
_DATA	ENDS
FLAT	GROUP _DATA, CONST, _BSS
	ASSUME	CS: FLAT, DS: FLAT, SS: FLAT
endif

INCLUDELIB LIBCMTD
INCLUDELIB OLDNAMES

PUBLIC	??0D3DXMATRIX@@QAE@XZ				; D3DXMATRIX::D3DXMATRIX
PUBLIC	??_H@YGXPAXIHP6EPAX0@Z@Z			; `vector constructor iterator'
PUBLIC	__real@40000000
PUBLIC	??0COLOREDVERTEX@@QAE@XZ			; COLOREDVERTEX::COLOREDVERTEX
PUBLIC	??0CBoundingBox@@QAE@PAUD3DXVECTOR3@@0@Z	; CBoundingBox::CBoundingBox
PUBLIC	?InitRenderData@CBoundingBox@@QAEHXZ		; CBoundingBox::InitRenderData
PUBLIC	??0D3DXVECTOR3@@QAE@XZ				; D3DXVECTOR3::D3DXVECTOR3
PUBLIC	??0D3DXVECTOR3@@QAE@MMM@Z			; D3DXVECTOR3::D3DXVECTOR3
EXTRN	__RTC_InitBase:NEAR
EXTRN	__RTC_Shutdown:NEAR
EXTRN	__RTC_CheckEsp:NEAR
EXTRN	__fltused:NEAR
EXTRN	?g_matIdent@@3UD3DXMATRIX@@A:BYTE		; g_matIdent
;	COMDAT rtc$IMZ
; File c:\documents and settings\dom\my documents\_dev\ae\xlr8a\x7g\cboundingbox.cpp
rtc$IMZ	SEGMENT
__RTC_InitBase.rtc$IMZ DD FLAT:__RTC_InitBase
rtc$IMZ	ENDS
;	COMDAT rtc$TMZ
rtc$TMZ	SEGMENT
__RTC_Shutdown.rtc$TMZ DD FLAT:__RTC_Shutdown
rtc$TMZ	ENDS
;	COMDAT __real@40000000
CONST	SEGMENT
__real@40000000 DD 040000000r			; 2
; Function compile flags: /Odt /RTCsu /ZI
CONST	ENDS
;	COMDAT ??0CBoundingBox@@QAE@PAUD3DXVECTOR3@@0@Z
_TEXT	SEGMENT
$T85206 = -360
$T85205 = -340
$T85204 = -320
$T85203 = -300
$T85202 = -280
$T85201 = -260
$T85200 = -240
$T85199 = -220
_this$ = -8
_pvMin$ = 8
_pvMax$ = 12
??0CBoundingBox@@QAE@PAUD3DXVECTOR3@@0@Z PROC NEAR	; CBoundingBox::CBoundingBox, COMDAT
; _this$ = ecx

; 11   : 	{

  00000	55		 push	 ebp
  00001	8b ec		 mov	 ebp, esp
  00003	81 ec 6c 01 00
	00		 sub	 esp, 364		; 0000016cH
  00009	53		 push	 ebx
  0000a	56		 push	 esi
  0000b	57		 push	 edi
  0000c	51		 push	 ecx
  0000d	8d bd 94 fe ff
	ff		 lea	 edi, DWORD PTR [ebp-364]
  00013	b9 5b 00 00 00	 mov	 ecx, 91			; 0000005bH
  00018	b8 cc cc cc cc	 mov	 eax, -858993460		; ccccccccH
  0001d	f3 ab		 rep stosd
  0001f	59		 pop	 ecx
  00020	89 4d f8	 mov	 DWORD PTR _this$[ebp], ecx
  00023	8b 4d f8	 mov	 ecx, DWORD PTR _this$[ebp]
  00026	e8 00 00 00 00	 call	 ??0D3DXVECTOR3@@QAE@XZ	; D3DXVECTOR3::D3DXVECTOR3
  0002b	8b 4d f8	 mov	 ecx, DWORD PTR _this$[ebp]
  0002e	83 c1 0c	 add	 ecx, 12			; 0000000cH
  00031	e8 00 00 00 00	 call	 ??0D3DXVECTOR3@@QAE@XZ	; D3DXVECTOR3::D3DXVECTOR3
  00036	68 00 00 00 00	 push	 OFFSET FLAT:??0D3DXVECTOR3@@QAE@XZ ; D3DXVECTOR3::D3DXVECTOR3
  0003b	6a 08		 push	 8
  0003d	6a 0c		 push	 12			; 0000000cH
  0003f	8b 45 f8	 mov	 eax, DWORD PTR _this$[ebp]
  00042	83 c0 18	 add	 eax, 24			; 00000018H
  00045	50		 push	 eax
  00046	e8 00 00 00 00	 call	 ??_H@YGXPAXIHP6EPAX0@Z@Z
  0004b	8b 4d f8	 mov	 ecx, DWORD PTR _this$[ebp]
  0004e	83 c1 78	 add	 ecx, 120		; 00000078H
  00051	e8 00 00 00 00	 call	 ??0D3DXVECTOR3@@QAE@XZ	; D3DXVECTOR3::D3DXVECTOR3
  00056	8b 4d f8	 mov	 ecx, DWORD PTR _this$[ebp]
  00059	81 c1 84 00 00
	00		 add	 ecx, 132		; 00000084H
  0005f	e8 00 00 00 00	 call	 ??0D3DXVECTOR3@@QAE@XZ	; D3DXVECTOR3::D3DXVECTOR3
  00064	8b 4d f8	 mov	 ecx, DWORD PTR _this$[ebp]
  00067	81 c1 90 00 00
	00		 add	 ecx, 144		; 00000090H
  0006d	e8 00 00 00 00	 call	 ??0D3DXVECTOR3@@QAE@XZ	; D3DXVECTOR3::D3DXVECTOR3
  00072	68 00 00 00 00	 push	 OFFSET FLAT:??0D3DXVECTOR3@@QAE@XZ ; D3DXVECTOR3::D3DXVECTOR3
  00077	6a 08		 push	 8
  00079	6a 0c		 push	 12			; 0000000cH
  0007b	8b 45 f8	 mov	 eax, DWORD PTR _this$[ebp]
  0007e	05 9c 00 00 00	 add	 eax, 156		; 0000009cH
  00083	50		 push	 eax
  00084	e8 00 00 00 00	 call	 ??_H@YGXPAXIHP6EPAX0@Z@Z
  00089	8b 4d f8	 mov	 ecx, DWORD PTR _this$[ebp]
  0008c	81 c1 fc 00 00
	00		 add	 ecx, 252		; 000000fcH
  00092	e8 00 00 00 00	 call	 ??0D3DXVECTOR3@@QAE@XZ	; D3DXVECTOR3::D3DXVECTOR3
  00097	8b 4d f8	 mov	 ecx, DWORD PTR _this$[ebp]
  0009a	81 c1 1c 81 00
	00		 add	 ecx, 33052		; 0000811cH
  000a0	e8 00 00 00 00	 call	 ??0D3DXMATRIX@@QAE@XZ	; D3DXMATRIX::D3DXMATRIX
  000a5	68 00 00 00 00	 push	 OFFSET FLAT:??0COLOREDVERTEX@@QAE@XZ ; COLOREDVERTEX::COLOREDVERTEX
  000aa	6a 08		 push	 8
  000ac	6a 1c		 push	 28			; 0000001cH
  000ae	8b 45 f8	 mov	 eax, DWORD PTR _this$[ebp]
  000b1	05 5c 81 00 00	 add	 eax, 33116		; 0000815cH
  000b6	50		 push	 eax
  000b7	e8 00 00 00 00	 call	 ??_H@YGXPAXIHP6EPAX0@Z@Z

; 12   : 		m_dwMem = 0 ;

  000bc	8b 45 f8	 mov	 eax, DWORD PTR _this$[ebp]
  000bf	c7 80 08 01 00
	00 00 00 00 00	 mov	 DWORD PTR [eax+264], 0

; 13   : 		m_dwMem += sizeof(CBoundingBox) ;

  000c9	8b 45 f8	 mov	 eax, DWORD PTR _this$[ebp]
  000cc	8b 88 08 01 00
	00		 mov	 ecx, DWORD PTR [eax+264]
  000d2	81 c1 d8 82 00
	00		 add	 ecx, 33496		; 000082d8H
  000d8	8b 55 f8	 mov	 edx, DWORD PTR _this$[ebp]
  000db	89 8a 08 01 00
	00		 mov	 DWORD PTR [edx+264], ecx

; 14   : 
; 15   : 	// get maximal and minimal vertices
; 16   : 		m_vMin = m_vInitialMin = xVec3(pvMin->x, pvMin->y, pvMin->z) ;

  000e1	8b 45 08	 mov	 eax, DWORD PTR _pvMin$[ebp]
  000e4	8b 48 08	 mov	 ecx, DWORD PTR [eax+8]
  000e7	51		 push	 ecx
  000e8	8b 55 08	 mov	 edx, DWORD PTR _pvMin$[ebp]
  000eb	8b 42 04	 mov	 eax, DWORD PTR [edx+4]
  000ee	50		 push	 eax
  000ef	8b 4d 08	 mov	 ecx, DWORD PTR _pvMin$[ebp]
  000f2	8b 11		 mov	 edx, DWORD PTR [ecx]
  000f4	52		 push	 edx
  000f5	8d 8d 24 ff ff
	ff		 lea	 ecx, DWORD PTR $T85199[ebp]
  000fb	e8 00 00 00 00	 call	 ??0D3DXVECTOR3@@QAE@MMM@Z ; D3DXVECTOR3::D3DXVECTOR3
  00100	8b 4d f8	 mov	 ecx, DWORD PTR _this$[ebp]
  00103	81 c1 84 00 00
	00		 add	 ecx, 132		; 00000084H
  00109	8b 10		 mov	 edx, DWORD PTR [eax]
  0010b	89 11		 mov	 DWORD PTR [ecx], edx
  0010d	8b 50 04	 mov	 edx, DWORD PTR [eax+4]
  00110	89 51 04	 mov	 DWORD PTR [ecx+4], edx
  00113	8b 40 08	 mov	 eax, DWORD PTR [eax+8]
  00116	89 41 08	 mov	 DWORD PTR [ecx+8], eax
  00119	8b 4d f8	 mov	 ecx, DWORD PTR _this$[ebp]
  0011c	81 c1 84 00 00
	00		 add	 ecx, 132		; 00000084H
  00122	8b 55 f8	 mov	 edx, DWORD PTR _this$[ebp]
  00125	8b 01		 mov	 eax, DWORD PTR [ecx]
  00127	89 02		 mov	 DWORD PTR [edx], eax
  00129	8b 41 04	 mov	 eax, DWORD PTR [ecx+4]
  0012c	89 42 04	 mov	 DWORD PTR [edx+4], eax
  0012f	8b 49 08	 mov	 ecx, DWORD PTR [ecx+8]
  00132	89 4a 08	 mov	 DWORD PTR [edx+8], ecx

; 17   : 		m_vMax = m_vInitialMax = xVec3(pvMax->x, pvMax->y, pvMax->z) ;

  00135	8b 45 0c	 mov	 eax, DWORD PTR _pvMax$[ebp]
  00138	8b 48 08	 mov	 ecx, DWORD PTR [eax+8]
  0013b	51		 push	 ecx
  0013c	8b 55 0c	 mov	 edx, DWORD PTR _pvMax$[ebp]
  0013f	8b 42 04	 mov	 eax, DWORD PTR [edx+4]
  00142	50		 push	 eax
  00143	8b 4d 0c	 mov	 ecx, DWORD PTR _pvMax$[ebp]
  00146	8b 11		 mov	 edx, DWORD PTR [ecx]
  00148	52		 push	 edx
  00149	8d 8d 10 ff ff
	ff		 lea	 ecx, DWORD PTR $T85200[ebp]
  0014f	e8 00 00 00 00	 call	 ??0D3DXVECTOR3@@QAE@MMM@Z ; D3DXVECTOR3::D3DXVECTOR3
  00154	8b 4d f8	 mov	 ecx, DWORD PTR _this$[ebp]
  00157	81 c1 90 00 00
	00		 add	 ecx, 144		; 00000090H
  0015d	8b 10		 mov	 edx, DWORD PTR [eax]
  0015f	89 11		 mov	 DWORD PTR [ecx], edx
  00161	8b 50 04	 mov	 edx, DWORD PTR [eax+4]
  00164	89 51 04	 mov	 DWORD PTR [ecx+4], edx
  00167	8b 40 08	 mov	 eax, DWORD PTR [eax+8]
  0016a	89 41 08	 mov	 DWORD PTR [ecx+8], eax
  0016d	8b 4d f8	 mov	 ecx, DWORD PTR _this$[ebp]
  00170	81 c1 90 00 00
	00		 add	 ecx, 144		; 00000090H
  00176	8b 55 f8	 mov	 edx, DWORD PTR _this$[ebp]
  00179	83 c2 0c	 add	 edx, 12			; 0000000cH
  0017c	8b 01		 mov	 eax, DWORD PTR [ecx]
  0017e	89 02		 mov	 DWORD PTR [edx], eax
  00180	8b 41 04	 mov	 eax, DWORD PTR [ecx+4]
  00183	89 42 04	 mov	 DWORD PTR [edx+4], eax
  00186	8b 49 08	 mov	 ecx, DWORD PTR [ecx+8]
  00189	89 4a 08	 mov	 DWORD PTR [edx+8], ecx

; 18   : 
; 19   : 	// get all eight corner vertices
; 20   : 		m_vVerts[0] = m_vInitialVerts[0] = m_vMin ;										// near bottom left	: 0

  0018c	8b 45 f8	 mov	 eax, DWORD PTR _this$[ebp]
  0018f	8b 4d f8	 mov	 ecx, DWORD PTR _this$[ebp]
  00192	81 c1 9c 00 00
	00		 add	 ecx, 156		; 0000009cH
  00198	8b 10		 mov	 edx, DWORD PTR [eax]
  0019a	89 11		 mov	 DWORD PTR [ecx], edx
  0019c	8b 50 04	 mov	 edx, DWORD PTR [eax+4]
  0019f	89 51 04	 mov	 DWORD PTR [ecx+4], edx
  001a2	8b 40 08	 mov	 eax, DWORD PTR [eax+8]
  001a5	89 41 08	 mov	 DWORD PTR [ecx+8], eax
  001a8	8b 4d f8	 mov	 ecx, DWORD PTR _this$[ebp]
  001ab	81 c1 9c 00 00
	00		 add	 ecx, 156		; 0000009cH
  001b1	8b 55 f8	 mov	 edx, DWORD PTR _this$[ebp]
  001b4	83 c2 18	 add	 edx, 24			; 00000018H
  001b7	8b 01		 mov	 eax, DWORD PTR [ecx]
  001b9	89 02		 mov	 DWORD PTR [edx], eax
  001bb	8b 41 04	 mov	 eax, DWORD PTR [ecx+4]
  001be	89 42 04	 mov	 DWORD PTR [edx+4], eax
  001c1	8b 49 08	 mov	 ecx, DWORD PTR [ecx+8]
  001c4	89 4a 08	 mov	 DWORD PTR [edx+8], ecx

; 21   : 		m_vVerts[1] = m_vInitialVerts[1] = xVec3(m_vMin.x, m_vMax.y, m_vMin.z) ;	// near top left	: 1

  001c7	8b 45 f8	 mov	 eax, DWORD PTR _this$[ebp]
  001ca	8b 48 08	 mov	 ecx, DWORD PTR [eax+8]
  001cd	51		 push	 ecx
  001ce	8b 55 f8	 mov	 edx, DWORD PTR _this$[ebp]
  001d1	8b 42 10	 mov	 eax, DWORD PTR [edx+16]
  001d4	50		 push	 eax
  001d5	8b 4d f8	 mov	 ecx, DWORD PTR _this$[ebp]
  001d8	8b 11		 mov	 edx, DWORD PTR [ecx]
  001da	52		 push	 edx
  001db	8d 8d fc fe ff
	ff		 lea	 ecx, DWORD PTR $T85201[ebp]
  001e1	e8 00 00 00 00	 call	 ??0D3DXVECTOR3@@QAE@MMM@Z ; D3DXVECTOR3::D3DXVECTOR3
  001e6	8b 4d f8	 mov	 ecx, DWORD PTR _this$[ebp]
  001e9	81 c1 a8 00 00
	00		 add	 ecx, 168		; 000000a8H
  001ef	8b 10		 mov	 edx, DWORD PTR [eax]
  001f1	89 11		 mov	 DWORD PTR [ecx], edx
  001f3	8b 50 04	 mov	 edx, DWORD PTR [eax+4]
  001f6	89 51 04	 mov	 DWORD PTR [ecx+4], edx
  001f9	8b 40 08	 mov	 eax, DWORD PTR [eax+8]
  001fc	89 41 08	 mov	 DWORD PTR [ecx+8], eax
  001ff	8b 4d f8	 mov	 ecx, DWORD PTR _this$[ebp]
  00202	81 c1 a8 00 00
	00		 add	 ecx, 168		; 000000a8H
  00208	8b 55 f8	 mov	 edx, DWORD PTR _this$[ebp]
  0020b	83 c2 24	 add	 edx, 36			; 00000024H
  0020e	8b 01		 mov	 eax, DWORD PTR [ecx]
  00210	89 02		 mov	 DWORD PTR [edx], eax
  00212	8b 41 04	 mov	 eax, DWORD PTR [ecx+4]
  00215	89 42 04	 mov	 DWORD PTR [edx+4], eax
  00218	8b 49 08	 mov	 ecx, DWORD PTR [ecx+8]
  0021b	89 4a 08	 mov	 DWORD PTR [edx+8], ecx

; 22   : 		m_vVerts[2] = m_vInitialVerts[2] = xVec3(m_vMax.x, m_vMin.y, m_vMin.z) ;	// near bottom right: 2

  0021e	8b 45 f8	 mov	 eax, DWORD PTR _this$[ebp]
  00221	8b 48 08	 mov	 ecx, DWORD PTR [eax+8]
  00224	51		 push	 ecx
  00225	8b 55 f8	 mov	 edx, DWORD PTR _this$[ebp]
  00228	8b 42 04	 mov	 eax, DWORD PTR [edx+4]
  0022b	50		 push	 eax
  0022c	8b 4d f8	 mov	 ecx, DWORD PTR _this$[ebp]
  0022f	8b 51 0c	 mov	 edx, DWORD PTR [ecx+12]
  00232	52		 push	 edx
  00233	8d 8d e8 fe ff
	ff		 lea	 ecx, DWORD PTR $T85202[ebp]
  00239	e8 00 00 00 00	 call	 ??0D3DXVECTOR3@@QAE@MMM@Z ; D3DXVECTOR3::D3DXVECTOR3
  0023e	8b 4d f8	 mov	 ecx, DWORD PTR _this$[ebp]
  00241	81 c1 b4 00 00
	00		 add	 ecx, 180		; 000000b4H
  00247	8b 10		 mov	 edx, DWORD PTR [eax]
  00249	89 11		 mov	 DWORD PTR [ecx], edx
  0024b	8b 50 04	 mov	 edx, DWORD PTR [eax+4]
  0024e	89 51 04	 mov	 DWORD PTR [ecx+4], edx
  00251	8b 40 08	 mov	 eax, DWORD PTR [eax+8]
  00254	89 41 08	 mov	 DWORD PTR [ecx+8], eax
  00257	8b 4d f8	 mov	 ecx, DWORD PTR _this$[ebp]
  0025a	81 c1 b4 00 00
	00		 add	 ecx, 180		; 000000b4H
  00260	8b 55 f8	 mov	 edx, DWORD PTR _this$[ebp]
  00263	83 c2 30	 add	 edx, 48			; 00000030H
  00266	8b 01		 mov	 eax, DWORD PTR [ecx]
  00268	89 02		 mov	 DWORD PTR [edx], eax
  0026a	8b 41 04	 mov	 eax, DWORD PTR [ecx+4]
  0026d	89 42 04	 mov	 DWORD PTR [edx+4], eax
  00270	8b 49 08	 mov	 ecx, DWORD PTR [ecx+8]
  00273	89 4a 08	 mov	 DWORD PTR [edx+8], ecx

; 23   : 		m_vVerts[3] = m_vInitialVerts[3] = xVec3(m_vMax.x, m_vMax.y, m_vMin.z) ;	// near top right	: 3

  00276	8b 45 f8	 mov	 eax, DWORD PTR _this$[ebp]
  00279	8b 48 08	 mov	 ecx, DWORD PTR [eax+8]
  0027c	51		 push	 ecx
  0027d	8b 55 f8	 mov	 edx, DWORD PTR _this$[ebp]
  00280	8b 42 10	 mov	 eax, DWORD PTR [edx+16]
  00283	50		 push	 eax
  00284	8b 4d f8	 mov	 ecx, DWORD PTR _this$[ebp]
  00287	8b 51 0c	 mov	 edx, DWORD PTR [ecx+12]
  0028a	52		 push	 edx
  0028b	8d 8d d4 fe ff
	ff		 lea	 ecx, DWORD PTR $T85203[ebp]
  00291	e8 00 00 00 00	 call	 ??0D3DXVECTOR3@@QAE@MMM@Z ; D3DXVECTOR3::D3DXVECTOR3
  00296	8b 4d f8	 mov	 ecx, DWORD PTR _this$[ebp]
  00299	81 c1 c0 00 00
	00		 add	 ecx, 192		; 000000c0H
  0029f	8b 10		 mov	 edx, DWORD PTR [eax]
  002a1	89 11		 mov	 DWORD PTR [ecx], edx
  002a3	8b 50 04	 mov	 edx, DWORD PTR [eax+4]
  002a6	89 51 04	 mov	 DWORD PTR [ecx+4], edx
  002a9	8b 40 08	 mov	 eax, DWORD PTR [eax+8]
  002ac	89 41 08	 mov	 DWORD PTR [ecx+8], eax
  002af	8b 4d f8	 mov	 ecx, DWORD PTR _this$[ebp]
  002b2	81 c1 c0 00 00
	00		 add	 ecx, 192		; 000000c0H
  002b8	8b 55 f8	 mov	 edx, DWORD PTR _this$[ebp]
  002bb	83 c2 3c	 add	 edx, 60			; 0000003cH
  002be	8b 01		 mov	 eax, DWORD PTR [ecx]
  002c0	89 02		 mov	 DWORD PTR [edx], eax
  002c2	8b 41 04	 mov	 eax, DWORD PTR [ecx+4]
  002c5	89 42 04	 mov	 DWORD PTR [edx+4], eax
  002c8	8b 49 08	 mov	 ecx, DWORD PTR [ecx+8]
  002cb	89 4a 08	 mov	 DWORD PTR [edx+8], ecx

; 24   : 		m_vVerts[4] = m_vInitialVerts[4] = xVec3(m_vMin.x, m_vMin.y, m_vMax.z) ;	// far bottom left	: 4

  002ce	8b 45 f8	 mov	 eax, DWORD PTR _this$[ebp]
  002d1	8b 48 14	 mov	 ecx, DWORD PTR [eax+20]
  002d4	51		 push	 ecx
  002d5	8b 55 f8	 mov	 edx, DWORD PTR _this$[ebp]
  002d8	8b 42 04	 mov	 eax, DWORD PTR [edx+4]
  002db	50		 push	 eax
  002dc	8b 4d f8	 mov	 ecx, DWORD PTR _this$[ebp]
  002df	8b 11		 mov	 edx, DWORD PTR [ecx]
  002e1	52		 push	 edx
  002e2	8d 8d c0 fe ff
	ff		 lea	 ecx, DWORD PTR $T85204[ebp]
  002e8	e8 00 00 00 00	 call	 ??0D3DXVECTOR3@@QAE@MMM@Z ; D3DXVECTOR3::D3DXVECTOR3
  002ed	8b 4d f8	 mov	 ecx, DWORD PTR _this$[ebp]
  002f0	81 c1 cc 00 00
	00		 add	 ecx, 204		; 000000ccH
  002f6	8b 10		 mov	 edx, DWORD PTR [eax]
  002f8	89 11		 mov	 DWORD PTR [ecx], edx
  002fa	8b 50 04	 mov	 edx, DWORD PTR [eax+4]
  002fd	89 51 04	 mov	 DWORD PTR [ecx+4], edx
  00300	8b 40 08	 mov	 eax, DWORD PTR [eax+8]
  00303	89 41 08	 mov	 DWORD PTR [ecx+8], eax
  00306	8b 4d f8	 mov	 ecx, DWORD PTR _this$[ebp]
  00309	81 c1 cc 00 00
	00		 add	 ecx, 204		; 000000ccH
  0030f	8b 55 f8	 mov	 edx, DWORD PTR _this$[ebp]
  00312	83 c2 48	 add	 edx, 72			; 00000048H
  00315	8b 01		 mov	 eax, DWORD PTR [ecx]
  00317	89 02		 mov	 DWORD PTR [edx], eax
  00319	8b 41 04	 mov	 eax, DWORD PTR [ecx+4]
  0031c	89 42 04	 mov	 DWORD PTR [edx+4], eax
  0031f	8b 49 08	 mov	 ecx, DWORD PTR [ecx+8]
  00322	89 4a 08	 mov	 DWORD PTR [edx+8], ecx

; 25   : 		m_vVerts[5] = m_vInitialVerts[5] = xVec3(m_vMin.x, m_vMax.y, m_vMax.z) ;	// far top left		: 5

  00325	8b 45 f8	 mov	 eax, DWORD PTR _this$[ebp]
  00328	8b 48 14	 mov	 ecx, DWORD PTR [eax+20]
  0032b	51		 push	 ecx
  0032c	8b 55 f8	 mov	 edx, DWORD PTR _this$[ebp]
  0032f	8b 42 10	 mov	 eax, DWORD PTR [edx+16]
  00332	50		 push	 eax
  00333	8b 4d f8	 mov	 ecx, DWORD PTR _this$[ebp]
  00336	8b 11		 mov	 edx, DWORD PTR [ecx]
  00338	52		 push	 edx
  00339	8d 8d ac fe ff
	ff		 lea	 ecx, DWORD PTR $T85205[ebp]
  0033f	e8 00 00 00 00	 call	 ??0D3DXVECTOR3@@QAE@MMM@Z ; D3DXVECTOR3::D3DXVECTOR3
  00344	8b 4d f8	 mov	 ecx, DWORD PTR _this$[ebp]
  00347	81 c1 d8 00 00
	00		 add	 ecx, 216		; 000000d8H
  0034d	8b 10		 mov	 edx, DWORD PTR [eax]
  0034f	89 11		 mov	 DWORD PTR [ecx], edx
  00351	8b 50 04	 mov	 edx, DWORD PTR [eax+4]
  00354	89 51 04	 mov	 DWORD PTR [ecx+4], edx
  00357	8b 40 08	 mov	 eax, DWORD PTR [eax+8]
  0035a	89 41 08	 mov	 DWORD PTR [ecx+8], eax
  0035d	8b 4d f8	 mov	 ecx, DWORD PTR _this$[ebp]
  00360	81 c1 d8 00 00
	00		 add	 ecx, 216		; 000000d8H
  00366	8b 55 f8	 mov	 edx, DWORD PTR _this$[ebp]
  00369	83 c2 54	 add	 edx, 84			; 00000054H
  0036c	8b 01		 mov	 eax, DWORD PTR [ecx]
  0036e	89 02		 mov	 DWORD PTR [edx], eax
  00370	8b 41 04	 mov	 eax, DWORD PTR [ecx+4]
  00373	89 42 04	 mov	 DWORD PTR [edx+4], eax
  00376	8b 49 08	 mov	 ecx, DWORD PTR [ecx+8]
  00379	89 4a 08	 mov	 DWORD PTR [edx+8], ecx

; 26   : 		m_vVerts[6] = m_vInitialVerts[6] = xVec3(m_vMax.x, m_vMin.y, m_vMax.z) ;	// far bottom right	: 6

  0037c	8b 45 f8	 mov	 eax, DWORD PTR _this$[ebp]
  0037f	8b 48 14	 mov	 ecx, DWORD PTR [eax+20]
  00382	51		 push	 ecx
  00383	8b 55 f8	 mov	 edx, DWORD PTR _this$[ebp]
  00386	8b 42 04	 mov	 eax, DWORD PTR [edx+4]
  00389	50		 push	 eax
  0038a	8b 4d f8	 mov	 ecx, DWORD PTR _this$[ebp]
  0038d	8b 51 0c	 mov	 edx, DWORD PTR [ecx+12]
  00390	52		 push	 edx
  00391	8d 8d 98 fe ff
	ff		 lea	 ecx, DWORD PTR $T85206[ebp]
  00397	e8 00 00 00 00	 call	 ??0D3DXVECTOR3@@QAE@MMM@Z ; D3DXVECTOR3::D3DXVECTOR3
  0039c	8b 4d f8	 mov	 ecx, DWORD PTR _this$[ebp]
  0039f	81 c1 e4 00 00
	00		 add	 ecx, 228		; 000000e4H
  003a5	8b 10		 mov	 edx, DWORD PTR [eax]
  003a7	89 11		 mov	 DWORD PTR [ecx], edx
  003a9	8b 50 04	 mov	 edx, DWORD PTR [eax+4]
  003ac	89 51 04	 mov	 DWORD PTR [ecx+4], edx
  003af	8b 40 08	 mov	 eax, DWORD PTR [eax+8]
  003b2	89 41 08	 mov	 DWORD PTR [ecx+8], eax
  003b5	8b 4d f8	 mov	 ecx, DWORD PTR _this$[ebp]
  003b8	81 c1 e4 00 00
	00		 add	 ecx, 228		; 000000e4H
  003be	8b 55 f8	 mov	 edx, DWORD PTR _this$[ebp]
  003c1	83 c2 60	 add	 edx, 96			; 00000060H
  003c4	8b 01		 mov	 eax, DWORD PTR [ecx]
  003c6	89 02		 mov	 DWORD PTR [edx], eax
  003c8	8b 41 04	 mov	 eax, DWORD PTR [ecx+4]
  003cb	89 42 04	 mov	 DWORD PTR [edx+4], eax
  003ce	8b 49 08	 mov	 ecx, DWORD PTR [ecx+8]
  003d1	89 4a 08	 mov	 DWORD PTR [edx+8], ecx

; 27   : 		m_vVerts[7] = m_vInitialVerts[7] = m_vMax ;										// far top right	: 7

  003d4	8b 45 f8	 mov	 eax, DWORD PTR _this$[ebp]
  003d7	83 c0 0c	 add	 eax, 12			; 0000000cH
  003da	8b 4d f8	 mov	 ecx, DWORD PTR _this$[ebp]
  003dd	81 c1 f0 00 00
	00		 add	 ecx, 240		; 000000f0H
  003e3	8b 10		 mov	 edx, DWORD PTR [eax]
  003e5	89 11		 mov	 DWORD PTR [ecx], edx
  003e7	8b 50 04	 mov	 edx, DWORD PTR [eax+4]
  003ea	89 51 04	 mov	 DWORD PTR [ecx+4], edx
  003ed	8b 40 08	 mov	 eax, DWORD PTR [eax+8]
  003f0	89 41 08	 mov	 DWORD PTR [ecx+8], eax
  003f3	8b 4d f8	 mov	 ecx, DWORD PTR _this$[ebp]
  003f6	81 c1 f0 00 00
	00		 add	 ecx, 240		; 000000f0H
  003fc	8b 55 f8	 mov	 edx, DWORD PTR _this$[ebp]
  003ff	83 c2 6c	 add	 edx, 108		; 0000006cH
  00402	8b 01		 mov	 eax, DWORD PTR [ecx]
  00404	89 02		 mov	 DWORD PTR [edx], eax
  00406	8b 41 04	 mov	 eax, DWORD PTR [ecx+4]
  00409	89 42 04	 mov	 DWORD PTR [edx+4], eax
  0040c	8b 49 08	 mov	 ecx, DWORD PTR [ecx+8]
  0040f	89 4a 08	 mov	 DWORD PTR [edx+8], ecx

; 28   : 
; 29   : 	// get geometric center vertex
; 30   : 		m_vCenter.x = m_vInitialCenter.x = (m_vMax.x - m_vMin.x) / 2 + m_vMin.x ;

  00412	8b 45 f8	 mov	 eax, DWORD PTR _this$[ebp]
  00415	8b 4d f8	 mov	 ecx, DWORD PTR _this$[ebp]
  00418	d9 40 0c	 fld	 DWORD PTR [eax+12]
  0041b	d8 21		 fsub	 DWORD PTR [ecx]
  0041d	d8 35 00 00 00
	00		 fdiv	 DWORD PTR __real@40000000
  00423	8b 55 f8	 mov	 edx, DWORD PTR _this$[ebp]
  00426	d8 02		 fadd	 DWORD PTR [edx]
  00428	8b 45 f8	 mov	 eax, DWORD PTR _this$[ebp]
  0042b	d9 98 fc 00 00
	00		 fstp	 DWORD PTR [eax+252]
  00431	8b 4d f8	 mov	 ecx, DWORD PTR _this$[ebp]
  00434	8b 55 f8	 mov	 edx, DWORD PTR _this$[ebp]
  00437	8b 82 fc 00 00
	00		 mov	 eax, DWORD PTR [edx+252]
  0043d	89 41 78	 mov	 DWORD PTR [ecx+120], eax

; 31   : 		m_vCenter.y = m_vInitialCenter.y = (m_vMax.y - m_vMin.y) / 2 + m_vMin.y ;

  00440	8b 45 f8	 mov	 eax, DWORD PTR _this$[ebp]
  00443	8b 4d f8	 mov	 ecx, DWORD PTR _this$[ebp]
  00446	d9 40 10	 fld	 DWORD PTR [eax+16]
  00449	d8 61 04	 fsub	 DWORD PTR [ecx+4]
  0044c	d8 35 00 00 00
	00		 fdiv	 DWORD PTR __real@40000000
  00452	8b 55 f8	 mov	 edx, DWORD PTR _this$[ebp]
  00455	d8 42 04	 fadd	 DWORD PTR [edx+4]
  00458	8b 45 f8	 mov	 eax, DWORD PTR _this$[ebp]
  0045b	d9 98 00 01 00
	00		 fstp	 DWORD PTR [eax+256]
  00461	8b 4d f8	 mov	 ecx, DWORD PTR _this$[ebp]
  00464	8b 55 f8	 mov	 edx, DWORD PTR _this$[ebp]
  00467	8b 82 00 01 00
	00		 mov	 eax, DWORD PTR [edx+256]
  0046d	89 41 7c	 mov	 DWORD PTR [ecx+124], eax

; 32   : 		m_vCenter.z = m_vInitialCenter.z = (m_vMax.z - m_vMin.z) / 2 + m_vMin.z ;

  00470	8b 45 f8	 mov	 eax, DWORD PTR _this$[ebp]
  00473	8b 4d f8	 mov	 ecx, DWORD PTR _this$[ebp]
  00476	d9 40 14	 fld	 DWORD PTR [eax+20]
  00479	d8 61 08	 fsub	 DWORD PTR [ecx+8]
  0047c	d8 35 00 00 00
	00		 fdiv	 DWORD PTR __real@40000000
  00482	8b 55 f8	 mov	 edx, DWORD PTR _this$[ebp]
  00485	d8 42 08	 fadd	 DWORD PTR [edx+8]
  00488	8b 45 f8	 mov	 eax, DWORD PTR _this$[ebp]
  0048b	d9 98 04 01 00
	00		 fstp	 DWORD PTR [eax+260]
  00491	8b 4d f8	 mov	 ecx, DWORD PTR _this$[ebp]
  00494	8b 55 f8	 mov	 edx, DWORD PTR _this$[ebp]
  00497	8b 82 04 01 00
	00		 mov	 eax, DWORD PTR [edx+260]
  0049d	89 81 80 00 00
	00		 mov	 DWORD PTR [ecx+128], eax

; 33   : 
; 34   : 	// octree
; 35   : 		m_dwMem_OT = 0 ;

  004a3	8b 45 f8	 mov	 eax, DWORD PTR _this$[ebp]
  004a6	c7 80 0c 01 00
	00 00 00 00 00	 mov	 DWORD PTR [eax+268], 0

; 36   : 		m_nOTNodes = 0 ;

  004b0	8b 45 f8	 mov	 eax, DWORD PTR _this$[ebp]
  004b3	c7 80 14 81 00
	00 00 00 00 00	 mov	 DWORD PTR [eax+33044], 0

; 37   : 		m_bOTBuilt = FALSE ;

  004bd	8b 45 f8	 mov	 eax, DWORD PTR _this$[ebp]
  004c0	c7 80 18 81 00
	00 00 00 00 00	 mov	 DWORD PTR [eax+33048], 0

; 38   : 
; 39   : 	// set static render data
; 40   : 		m_pMesh = NULL ;

  004ca	8b 45 f8	 mov	 eax, DWORD PTR _this$[ebp]
  004cd	c7 80 84 82 00
	00 00 00 00 00	 mov	 DWORD PTR [eax+33412], 0

; 41   : 		m_pVB = NULL ;

  004d7	8b 45 f8	 mov	 eax, DWORD PTR _this$[ebp]
  004da	c7 80 cc 82 00
	00 00 00 00 00	 mov	 DWORD PTR [eax+33484], 0

; 42   : 		m_pIB = NULL ;

  004e4	8b 45 f8	 mov	 eax, DWORD PTR _this$[ebp]
  004e7	c7 80 d4 82 00
	00 00 00 00 00	 mov	 DWORD PTR [eax+33492], 0

; 43   : 		m_pVBProcessed = NULL ;

  004f1	8b 45 f8	 mov	 eax, DWORD PTR _this$[ebp]
  004f4	c7 80 d0 82 00
	00 00 00 00 00	 mov	 DWORD PTR [eax+33488], 0

; 44   : 		InitRenderData() ;

  004fe	8b 4d f8	 mov	 ecx, DWORD PTR _this$[ebp]
  00501	e8 00 00 00 00	 call	 ?InitRenderData@CBoundingBox@@QAEHXZ ; CBoundingBox::InitRenderData

; 45   : 
; 46   : 		m_matWorld = g_matIdent ;

  00506	8b 7d f8	 mov	 edi, DWORD PTR _this$[ebp]
  00509	81 c7 1c 81 00
	00		 add	 edi, 33052		; 0000811cH
  0050f	b9 10 00 00 00	 mov	 ecx, 16			; 00000010H
  00514	be 00 00 00 00	 mov	 esi, OFFSET FLAT:?g_matIdent@@3UD3DXMATRIX@@A ; g_matIdent
  00519	f3 a5		 rep movsd

; 47   : 	}

  0051b	8b 45 f8	 mov	 eax, DWORD PTR _this$[ebp]
  0051e	5f		 pop	 edi
  0051f	5e		 pop	 esi
  00520	5b		 pop	 ebx
  00521	81 c4 6c 01 00
	00		 add	 esp, 364		; 0000016cH
  00527	3b ec		 cmp	 ebp, esp
  00529	e8 00 00 00 00	 call	 __RTC_CheckEsp
  0052e	8b e5		 mov	 esp, ebp
  00530	5d		 pop	 ebp
  00531	c2 08 00	 ret	 8
??0CBoundingBox@@QAE@PAUD3DXVECTOR3@@0@Z ENDP		; CBoundingBox::CBoundingBox
; Function compile flags: /Odt /RTCsu /ZI
_TEXT	ENDS
;	COMDAT ??_H@YGXPAXIHP6EPAX0@Z@Z
_TEXT	SEGMENT
___t$ = 8
___s$ = 12
___n$ = 16
___f$ = 20
??_H@YGXPAXIHP6EPAX0@Z@Z PROC NEAR			; `vector constructor iterator', COMDAT
  00000	55		 push	 ebp
  00001	8b ec		 mov	 ebp, esp
  00003	81 ec c0 00 00
	00		 sub	 esp, 192		; 000000c0H
  00009	53		 push	 ebx
  0000a	56		 push	 esi
  0000b	57		 push	 edi
  0000c	8d bd 40 ff ff
	ff		 lea	 edi, DWORD PTR [ebp-192]
  00012	b9 30 00 00 00	 mov	 ecx, 48			; 00000030H
  00017	b8 cc cc cc cc	 mov	 eax, -858993460		; ccccccccH
  0001c	f3 ab		 rep stosd
$L84952:
  0001e	8b 45 10	 mov	 eax, DWORD PTR ___n$[ebp]
  00021	83 e8 01	 sub	 eax, 1
  00024	89 45 10	 mov	 DWORD PTR ___n$[ebp], eax
  00027	83 7d 10 00	 cmp	 DWORD PTR ___n$[ebp], 0
  0002b	7c 1a		 jl	 SHORT $L84950
  0002d	8b f4		 mov	 esi, esp
  0002f	8b 4d 08	 mov	 ecx, DWORD PTR ___t$[ebp]
  00032	ff 55 14	 call	 DWORD PTR ___f$[ebp]
  00035	3b f4		 cmp	 esi, esp
  00037	e8 00 00 00 00	 call	 __RTC_CheckEsp
  0003c	8b 45 08	 mov	 eax, DWORD PTR ___t$[ebp]
  0003f	03 45 0c	 add	 eax, DWORD PTR ___s$[ebp]
  00042	89 45 08	 mov	 DWORD PTR ___t$[ebp], eax
  00045	eb d7		 jmp	 SHORT $L84952
$L84950:
  00047	5f		 pop	 edi
  00048	5e		 pop	 esi
  00049	5b		 pop	 ebx
  0004a	81 c4 c0 00 00
	00		 add	 esp, 192		; 000000c0H
  00050	3b ec		 cmp	 ebp, esp
  00052	e8 00 00 00 00	 call	 __RTC_CheckEsp
  00057	8b e5		 mov	 esp, ebp
  00059	5d		 pop	 ebp
  0005a	c2 10 00	 ret	 16			; 00000010H
??_H@YGXPAXIHP6EPAX0@Z@Z ENDP				; `vector constructor iterator'
_TEXT	ENDS
PUBLIC	??0CBoundingBox@@QAE@PAUD3DXVECTOR3@@@Z		; CBoundingBox::CBoundingBox
; Function compile flags: /Odt /RTCsu /ZI
;	COMDAT ??0CBoundingBox@@QAE@PAUD3DXVECTOR3@@@Z
_TEXT	SEGMENT
_i$84963 = -20
_this$ = -8
_pvVerts$ = 8
??0CBoundingBox@@QAE@PAUD3DXVECTOR3@@@Z PROC NEAR	; CBoundingBox::CBoundingBox, COMDAT
; _this$ = ecx

; 50   : 	{

  00000	55		 push	 ebp
  00001	8b ec		 mov	 ebp, esp
  00003	81 ec d8 00 00
	00		 sub	 esp, 216		; 000000d8H
  00009	53		 push	 ebx
  0000a	56		 push	 esi
  0000b	57		 push	 edi
  0000c	51		 push	 ecx
  0000d	8d bd 28 ff ff
	ff		 lea	 edi, DWORD PTR [ebp-216]
  00013	b9 36 00 00 00	 mov	 ecx, 54			; 00000036H
  00018	b8 cc cc cc cc	 mov	 eax, -858993460		; ccccccccH
  0001d	f3 ab		 rep stosd
  0001f	59		 pop	 ecx
  00020	89 4d f8	 mov	 DWORD PTR _this$[ebp], ecx
  00023	8b 4d f8	 mov	 ecx, DWORD PTR _this$[ebp]
  00026	e8 00 00 00 00	 call	 ??0D3DXVECTOR3@@QAE@XZ	; D3DXVECTOR3::D3DXVECTOR3
  0002b	8b 4d f8	 mov	 ecx, DWORD PTR _this$[ebp]
  0002e	83 c1 0c	 add	 ecx, 12			; 0000000cH
  00031	e8 00 00 00 00	 call	 ??0D3DXVECTOR3@@QAE@XZ	; D3DXVECTOR3::D3DXVECTOR3
  00036	68 00 00 00 00	 push	 OFFSET FLAT:??0D3DXVECTOR3@@QAE@XZ ; D3DXVECTOR3::D3DXVECTOR3
  0003b	6a 08		 push	 8
  0003d	6a 0c		 push	 12			; 0000000cH
  0003f	8b 45 f8	 mov	 eax, DWORD PTR _this$[ebp]
  00042	83 c0 18	 add	 eax, 24			; 00000018H
  00045	50		 push	 eax
  00046	e8 00 00 00 00	 call	 ??_H@YGXPAXIHP6EPAX0@Z@Z
  0004b	8b 4d f8	 mov	 ecx, DWORD PTR _this$[ebp]
  0004e	83 c1 78	 add	 ecx, 120		; 00000078H
  00051	e8 00 00 00 00	 call	 ??0D3DXVECTOR3@@QAE@XZ	; D3DXVECTOR3::D3DXVECTOR3
  00056	8b 4d f8	 mov	 ecx, DWORD PTR _this$[ebp]
  00059	81 c1 84 00 00
	00		 add	 ecx, 132		; 00000084H
  0005f	e8 00 00 00 00	 call	 ??0D3DXVECTOR3@@QAE@XZ	; D3DXVECTOR3::D3DXVECTOR3
  00064	8b 4d f8	 mov	 ecx, DWORD PTR _this$[ebp]
  00067	81 c1 90 00 00
	00		 add	 ecx, 144		; 00000090H
  0006d	e8 00 00 00 00	 call	 ??0D3DXVECTOR3@@QAE@XZ	; D3DXVECTOR3::D3DXVECTOR3
  00072	68 00 00 00 00	 push	 OFFSET FLAT:??0D3DXVECTOR3@@QAE@XZ ; D3DXVECTOR3::D3DXVECTOR3
  00077	6a 08		 push	 8
  00079	6a 0c		 push	 12			; 0000000cH
  0007b	8b 45 f8	 mov	 eax, DWORD PTR _this$[ebp]
  0007e	05 9c 00 00 00	 add	 eax, 156		; 0000009cH
  00083	50		 push	 eax
  00084	e8 00 00 00 00	 call	 ??_H@YGXPAXIHP6EPAX0@Z@Z
  00089	8b 4d f8	 mov	 ecx, DWORD PTR _this$[ebp]
  0008c	81 c1 fc 00 00
	00		 add	 ecx, 252		; 000000fcH
  00092	e8 00 00 00 00	 call	 ??0D3DXVECTOR3@@QAE@XZ	; D3DXVECTOR3::D3DXVECTOR3
  00097	8b 4d f8	 mov	 ecx, DWORD PTR _this$[ebp]
  0009a	81 c1 1c 81 00
	00		 add	 ecx, 33052		; 0000811cH
  000a0	e8 00 00 00 00	 call	 ??0D3DXMATRIX@@QAE@XZ	; D3DXMATRIX::D3DXMATRIX
  000a5	68 00 00 00 00	 push	 OFFSET FLAT:??0COLOREDVERTEX@@QAE@XZ ; COLOREDVERTEX::COLOREDVERTEX
  000aa	6a 08		 push	 8
  000ac	6a 1c		 push	 28			; 0000001cH
  000ae	8b 45 f8	 mov	 eax, DWORD PTR _this$[ebp]
  000b1	05 5c 81 00 00	 add	 eax, 33116		; 0000815cH
  000b6	50		 push	 eax
  000b7	e8 00 00 00 00	 call	 ??_H@YGXPAXIHP6EPAX0@Z@Z

; 51   : 		m_dwMem = 0 ;

  000bc	8b 45 f8	 mov	 eax, DWORD PTR _this$[ebp]
  000bf	c7 80 08 01 00
	00 00 00 00 00	 mov	 DWORD PTR [eax+264], 0

; 52   : 		m_dwMem += sizeof(CBoundingBox) ;

  000c9	8b 45 f8	 mov	 eax, DWORD PTR _this$[ebp]
  000cc	8b 88 08 01 00
	00		 mov	 ecx, DWORD PTR [eax+264]
  000d2	81 c1 d8 82 00
	00		 add	 ecx, 33496		; 000082d8H
  000d8	8b 55 f8	 mov	 edx, DWORD PTR _this$[ebp]
  000db	89 8a 08 01 00
	00		 mov	 DWORD PTR [edx+264], ecx

; 53   : 
; 54   : 	// get maximal and minimal vertices
; 55   : 		m_vMin = pvVerts[ 0 ];

  000e1	8b 45 08	 mov	 eax, DWORD PTR _pvVerts$[ebp]
  000e4	8b 4d f8	 mov	 ecx, DWORD PTR _this$[ebp]
  000e7	8b 10		 mov	 edx, DWORD PTR [eax]
  000e9	89 11		 mov	 DWORD PTR [ecx], edx
  000eb	8b 50 04	 mov	 edx, DWORD PTR [eax+4]
  000ee	89 51 04	 mov	 DWORD PTR [ecx+4], edx
  000f1	8b 40 08	 mov	 eax, DWORD PTR [eax+8]
  000f4	89 41 08	 mov	 DWORD PTR [ecx+8], eax

; 56   : 		m_vMax = pvVerts[ 0 ];

  000f7	8b 45 08	 mov	 eax, DWORD PTR _pvVerts$[ebp]
  000fa	8b 4d f8	 mov	 ecx, DWORD PTR _this$[ebp]
  000fd	83 c1 0c	 add	 ecx, 12			; 0000000cH
  00100	8b 10		 mov	 edx, DWORD PTR [eax]
  00102	89 11		 mov	 DWORD PTR [ecx], edx
  00104	8b 50 04	 mov	 edx, DWORD PTR [eax+4]
  00107	89 51 04	 mov	 DWORD PTR [ecx+4], edx
  0010a	8b 40 08	 mov	 eax, DWORD PTR [eax+8]
  0010d	89 41 08	 mov	 DWORD PTR [ecx+8], eax

; 57   : 
; 58   : 	// get all eight corner vertices
; 59   : 		for( int i=0; i<8; i++ )

  00110	c7 45 ec 00 00
	00 00		 mov	 DWORD PTR _i$84963[ebp], 0
  00117	eb 09		 jmp	 SHORT $L84964
$L84965:
  00119	8b 45 ec	 mov	 eax, DWORD PTR _i$84963[ebp]
  0011c	83 c0 01	 add	 eax, 1
  0011f	89 45 ec	 mov	 DWORD PTR _i$84963[ebp], eax
$L84964:
  00122	83 7d ec 08	 cmp	 DWORD PTR _i$84963[ebp], 8
  00126	0f 8d 35 01 00
	00		 jge	 $L84966

; 60   : 		{
; 61   : 			m_vVerts[ i ] = m_vInitialVerts[ i ] = pvVerts[ i ];

  0012c	8b 45 ec	 mov	 eax, DWORD PTR _i$84963[ebp]
  0012f	6b c0 0c	 imul	 eax, 12			; 0000000cH
  00132	8b 4d 08	 mov	 ecx, DWORD PTR _pvVerts$[ebp]
  00135	03 c8		 add	 ecx, eax
  00137	8b 55 ec	 mov	 edx, DWORD PTR _i$84963[ebp]
  0013a	6b d2 0c	 imul	 edx, 12			; 0000000cH
  0013d	8b 45 f8	 mov	 eax, DWORD PTR _this$[ebp]
  00140	8d 94 10 9c 00
	00 00		 lea	 edx, DWORD PTR [eax+edx+156]
  00147	8b 01		 mov	 eax, DWORD PTR [ecx]
  00149	89 02		 mov	 DWORD PTR [edx], eax
  0014b	8b 41 04	 mov	 eax, DWORD PTR [ecx+4]
  0014e	89 42 04	 mov	 DWORD PTR [edx+4], eax
  00151	8b 49 08	 mov	 ecx, DWORD PTR [ecx+8]
  00154	89 4a 08	 mov	 DWORD PTR [edx+8], ecx
  00157	8b 55 ec	 mov	 edx, DWORD PTR _i$84963[ebp]
  0015a	6b d2 0c	 imul	 edx, 12			; 0000000cH
  0015d	8b 45 f8	 mov	 eax, DWORD PTR _this$[ebp]
  00160	8d 8c 10 9c 00
	00 00		 lea	 ecx, DWORD PTR [eax+edx+156]
  00167	8b 55 ec	 mov	 edx, DWORD PTR _i$84963[ebp]
  0016a	6b d2 0c	 imul	 edx, 12			; 0000000cH
  0016d	8b 45 f8	 mov	 eax, DWORD PTR _this$[ebp]
  00170	8d 54 10 18	 lea	 edx, DWORD PTR [eax+edx+24]
  00174	8b 01		 mov	 eax, DWORD PTR [ecx]
  00176	89 02		 mov	 DWORD PTR [edx], eax
  00178	8b 41 04	 mov	 eax, DWORD PTR [ecx+4]
  0017b	89 42 04	 mov	 DWORD PTR [edx+4], eax
  0017e	8b 49 08	 mov	 ecx, DWORD PTR [ecx+8]
  00181	89 4a 08	 mov	 DWORD PTR [edx+8], ecx

; 62   : 			if( pvVerts[ i ].x < m_vMin.x && pvVerts[ i ].y < m_vMin.y && pvVerts[ i ].z < m_vMin.z )

  00184	8b 45 ec	 mov	 eax, DWORD PTR _i$84963[ebp]
  00187	6b c0 0c	 imul	 eax, 12			; 0000000cH
  0018a	8b 4d 08	 mov	 ecx, DWORD PTR _pvVerts$[ebp]
  0018d	8b 55 f8	 mov	 edx, DWORD PTR _this$[ebp]
  00190	d9 04 01	 fld	 DWORD PTR [ecx+eax]
  00193	d8 1a		 fcomp	 DWORD PTR [edx]
  00195	df e0		 fnstsw	 ax
  00197	f6 c4 05	 test	 ah, 5
  0019a	7a 52		 jp	 SHORT $L84967
  0019c	8b 45 ec	 mov	 eax, DWORD PTR _i$84963[ebp]
  0019f	6b c0 0c	 imul	 eax, 12			; 0000000cH
  001a2	8b 4d 08	 mov	 ecx, DWORD PTR _pvVerts$[ebp]
  001a5	8b 55 f8	 mov	 edx, DWORD PTR _this$[ebp]
  001a8	d9 44 01 04	 fld	 DWORD PTR [ecx+eax+4]
  001ac	d8 5a 04	 fcomp	 DWORD PTR [edx+4]
  001af	df e0		 fnstsw	 ax
  001b1	f6 c4 05	 test	 ah, 5
  001b4	7a 38		 jp	 SHORT $L84967
  001b6	8b 45 ec	 mov	 eax, DWORD PTR _i$84963[ebp]
  001b9	6b c0 0c	 imul	 eax, 12			; 0000000cH
  001bc	8b 4d 08	 mov	 ecx, DWORD PTR _pvVerts$[ebp]
  001bf	8b 55 f8	 mov	 edx, DWORD PTR _this$[ebp]
  001c2	d9 44 01 08	 fld	 DWORD PTR [ecx+eax+8]
  001c6	d8 5a 08	 fcomp	 DWORD PTR [edx+8]
  001c9	df e0		 fnstsw	 ax
  001cb	f6 c4 05	 test	 ah, 5
  001ce	7a 1e		 jp	 SHORT $L84967

; 63   : 				m_vMin = pvVerts[ i ];

  001d0	8b 45 ec	 mov	 eax, DWORD PTR _i$84963[ebp]
  001d3	6b c0 0c	 imul	 eax, 12			; 0000000cH
  001d6	8b 4d 08	 mov	 ecx, DWORD PTR _pvVerts$[ebp]
  001d9	03 c8		 add	 ecx, eax
  001db	8b 55 f8	 mov	 edx, DWORD PTR _this$[ebp]
  001de	8b 01		 mov	 eax, DWORD PTR [ecx]
  001e0	89 02		 mov	 DWORD PTR [edx], eax
  001e2	8b 41 04	 mov	 eax, DWORD PTR [ecx+4]
  001e5	89 42 04	 mov	 DWORD PTR [edx+4], eax
  001e8	8b 49 08	 mov	 ecx, DWORD PTR [ecx+8]
  001eb	89 4a 08	 mov	 DWORD PTR [edx+8], ecx
$L84967:

; 64   : 			if( pvVerts[ i ].x > m_vMax.x && pvVerts[ i ].y > m_vMax.y && pvVerts[ i ].z > m_vMax.z )

  001ee	8b 45 ec	 mov	 eax, DWORD PTR _i$84963[ebp]
  001f1	6b c0 0c	 imul	 eax, 12			; 0000000cH
  001f4	8b 4d 08	 mov	 ecx, DWORD PTR _pvVerts$[ebp]
  001f7	8b 55 f8	 mov	 edx, DWORD PTR _this$[ebp]
  001fa	d9 04 01	 fld	 DWORD PTR [ecx+eax]
  001fd	d8 5a 0c	 fcomp	 DWORD PTR [edx+12]
  00200	df e0		 fnstsw	 ax
  00202	f6 c4 41	 test	 ah, 65			; 00000041H
  00205	75 55		 jne	 SHORT $L84968
  00207	8b 45 ec	 mov	 eax, DWORD PTR _i$84963[ebp]
  0020a	6b c0 0c	 imul	 eax, 12			; 0000000cH
  0020d	8b 4d 08	 mov	 ecx, DWORD PTR _pvVerts$[ebp]
  00210	8b 55 f8	 mov	 edx, DWORD PTR _this$[ebp]
  00213	d9 44 01 04	 fld	 DWORD PTR [ecx+eax+4]
  00217	d8 5a 10	 fcomp	 DWORD PTR [edx+16]
  0021a	df e0		 fnstsw	 ax
  0021c	f6 c4 41	 test	 ah, 65			; 00000041H
  0021f	75 3b		 jne	 SHORT $L84968
  00221	8b 45 ec	 mov	 eax, DWORD PTR _i$84963[ebp]
  00224	6b c0 0c	 imul	 eax, 12			; 0000000cH
  00227	8b 4d 08	 mov	 ecx, DWORD PTR _pvVerts$[ebp]
  0022a	8b 55 f8	 mov	 edx, DWORD PTR _this$[ebp]
  0022d	d9 44 01 08	 fld	 DWORD PTR [ecx+eax+8]
  00231	d8 5a 14	 fcomp	 DWORD PTR [edx+20]
  00234	df e0		 fnstsw	 ax
  00236	f6 c4 41	 test	 ah, 65			; 00000041H
  00239	75 21		 jne	 SHORT $L84968

; 65   : 				m_vMax = pvVerts[ i ];

  0023b	8b 45 ec	 mov	 eax, DWORD PTR _i$84963[ebp]
  0023e	6b c0 0c	 imul	 eax, 12			; 0000000cH
  00241	8b 4d 08	 mov	 ecx, DWORD PTR _pvVerts$[ebp]
  00244	03 c8		 add	 ecx, eax
  00246	8b 55 f8	 mov	 edx, DWORD PTR _this$[ebp]
  00249	83 c2 0c	 add	 edx, 12			; 0000000cH
  0024c	8b 01		 mov	 eax, DWORD PTR [ecx]
  0024e	89 02		 mov	 DWORD PTR [edx], eax
  00250	8b 41 04	 mov	 eax, DWORD PTR [ecx+4]
  00253	89 42 04	 mov	 DWORD PTR [edx+4], eax
  00256	8b 49 08	 mov	 ecx, DWORD PTR [ecx+8]
  00259	89 4a 08	 mov	 DWORD PTR [edx+8], ecx
$L84968:

; 66   : 		}

  0025c	e9 b8 fe ff ff	 jmp	 $L84965
$L84966:

; 67   : 
; 68   : 	// get geometric center vertex
; 69   : 		m_vCenter.x = m_vInitialCenter.x = (m_vMax.x - m_vMin.x) / 2 + m_vMin.x ;

  00261	8b 45 f8	 mov	 eax, DWORD PTR _this$[ebp]
  00264	8b 4d f8	 mov	 ecx, DWORD PTR _this$[ebp]
  00267	d9 40 0c	 fld	 DWORD PTR [eax+12]
  0026a	d8 21		 fsub	 DWORD PTR [ecx]
  0026c	d8 35 00 00 00
	00		 fdiv	 DWORD PTR __real@40000000
  00272	8b 55 f8	 mov	 edx, DWORD PTR _this$[ebp]
  00275	d8 02		 fadd	 DWORD PTR [edx]
  00277	8b 45 f8	 mov	 eax, DWORD PTR _this$[ebp]
  0027a	d9 98 fc 00 00
	00		 fstp	 DWORD PTR [eax+252]
  00280	8b 4d f8	 mov	 ecx, DWORD PTR _this$[ebp]
  00283	8b 55 f8	 mov	 edx, DWORD PTR _this$[ebp]
  00286	8b 82 fc 00 00
	00		 mov	 eax, DWORD PTR [edx+252]
  0028c	89 41 78	 mov	 DWORD PTR [ecx+120], eax

; 70   : 		m_vCenter.y = m_vInitialCenter.y = (m_vMax.y - m_vMin.y) / 2 + m_vMin.y ;

  0028f	8b 45 f8	 mov	 eax, DWORD PTR _this$[ebp]
  00292	8b 4d f8	 mov	 ecx, DWORD PTR _this$[ebp]
  00295	d9 40 10	 fld	 DWORD PTR [eax+16]
  00298	d8 61 04	 fsub	 DWORD PTR [ecx+4]
  0029b	d8 35 00 00 00
	00		 fdiv	 DWORD PTR __real@40000000
  002a1	8b 55 f8	 mov	 edx, DWORD PTR _this$[ebp]
  002a4	d8 42 04	 fadd	 DWORD PTR [edx+4]
  002a7	8b 45 f8	 mov	 eax, DWORD PTR _this$[ebp]
  002aa	d9 98 00 01 00
	00		 fstp	 DWORD PTR [eax+256]
  002b0	8b 4d f8	 mov	 ecx, DWORD PTR _this$[ebp]
  002b3	8b 55 f8	 mov	 edx, DWORD PTR _this$[ebp]
  002b6	8b 82 00 01 00
	00		 mov	 eax, DWORD PTR [edx+256]
  002bc	89 41 7c	 mov	 DWORD PTR [ecx+124], eax

; 71   : 		m_vCenter.z = m_vInitialCenter.z = (m_vMax.z - m_vMin.z) / 2 + m_vMin.z ;

  002bf	8b 45 f8	 mov	 eax, DWORD PTR _this$[ebp]
  002c2	8b 4d f8	 mov	 ecx, DWORD PTR _this$[ebp]
  002c5	d9 40 14	 fld	 DWORD PTR [eax+20]
  002c8	d8 61 08	 fsub	 DWORD PTR [ecx+8]
  002cb	d8 35 00 00 00
	00		 fdiv	 DWORD PTR __real@40000000
  002d1	8b 55 f8	 mov	 edx, DWORD PTR _this$[ebp]
  002d4	d8 42 08	 fadd	 DWORD PTR [edx+8]
  002d7	8b 45 f8	 mov	 eax, DWORD PTR _this$[ebp]
  002da	d9 98 04 01 00
	00		 fstp	 DWORD PTR [eax+260]
  002e0	8b 4d f8	 mov	 ecx, DWORD PTR _this$[ebp]
  002e3	8b 55 f8	 mov	 edx, DWORD PTR _this$[ebp]
  002e6	8b 82 04 01 00
	00		 mov	 eax, DWORD PTR [edx+260]
  002ec	89 81 80 00 00
	00		 mov	 DWORD PTR [ecx+128], eax

; 72   : 
; 73   : 	// octree
; 74   : 		m_dwMem_OT = 0 ;

  002f2	8b 45 f8	 mov	 eax, DWORD PTR _this$[ebp]
  002f5	c7 80 0c 01 00
	00 00 00 00 00	 mov	 DWORD PTR [eax+268], 0

; 75   : 		m_nOTNodes = 0 ;

  002ff	8b 45 f8	 mov	 eax, DWORD PTR _this$[ebp]
  00302	c7 80 14 81 00
	00 00 00 00 00	 mov	 DWORD PTR [eax+33044], 0

; 76   : 		m_bOTBuilt = FALSE ;

  0030c	8b 45 f8	 mov	 eax, DWORD PTR _this$[ebp]
  0030f	c7 80 18 81 00
	00 00 00 00 00	 mov	 DWORD PTR [eax+33048], 0

; 77   : 
; 78   : 	// set static render data
; 79   : 		m_pMesh = NULL ;

  00319	8b 45 f8	 mov	 eax, DWORD PTR _this$[ebp]
  0031c	c7 80 84 82 00
	00 00 00 00 00	 mov	 DWORD PTR [eax+33412], 0

; 80   : 		m_pVB = NULL ;

  00326	8b 45 f8	 mov	 eax, DWORD PTR _this$[ebp]
  00329	c7 80 cc 82 00
	00 00 00 00 00	 mov	 DWORD PTR [eax+33484], 0

; 81   : 		m_pIB = NULL ;

  00333	8b 45 f8	 mov	 eax, DWORD PTR _this$[ebp]
  00336	c7 80 d4 82 00
	00 00 00 00 00	 mov	 DWORD PTR [eax+33492], 0

; 82   : 		m_pVBProcessed = NULL ;

  00340	8b 45 f8	 mov	 eax, DWORD PTR _this$[ebp]
  00343	c7 80 d0 82 00
	00 00 00 00 00	 mov	 DWORD PTR [eax+33488], 0

; 83   : 		InitRenderData() ;

  0034d	8b 4d f8	 mov	 ecx, DWORD PTR _this$[ebp]
  00350	e8 00 00 00 00	 call	 ?InitRenderData@CBoundingBox@@QAEHXZ ; CBoundingBox::InitRenderData

; 84   : 
; 85   : 		m_matWorld = g_matIdent ;

  00355	8b 7d f8	 mov	 edi, DWORD PTR _this$[ebp]
  00358	81 c7 1c 81 00
	00		 add	 edi, 33052		; 0000811cH
  0035e	b9 10 00 00 00	 mov	 ecx, 16			; 00000010H
  00363	be 00 00 00 00	 mov	 esi, OFFSET FLAT:?g_matIdent@@3UD3DXMATRIX@@A ; g_matIdent
  00368	f3 a5		 rep movsd

; 86   : 	}

  0036a	8b 45 f8	 mov	 eax, DWORD PTR _this$[ebp]
  0036d	5f		 pop	 edi
  0036e	5e		 pop	 esi
  0036f	5b		 pop	 ebx
  00370	81 c4 d8 00 00
	00		 add	 esp, 216		; 000000d8H
  00376	3b ec		 cmp	 ebp, esp
  00378	e8 00 00 00 00	 call	 __RTC_CheckEsp
  0037d	8b e5		 mov	 esp, ebp
  0037f	5d		 pop	 ebp
  00380	c2 04 00	 ret	 4
??0CBoundingBox@@QAE@PAUD3DXVECTOR3@@@Z ENDP		; CBoundingBox::CBoundingBox
_TEXT	ENDS
PUBLIC	??0COLOREDVERTEX@@QAE@MMMMMKK@Z			; COLOREDVERTEX::COLOREDVERTEX
EXTRN	?D3DUtil_InitMaterial@@YAXAAU_D3DMATERIAL8@@MMMM@Z:NEAR ; D3DUtil_InitMaterial
; Function compile flags: /Odt /RTCsu /ZI
;	COMDAT ?InitRenderData@CBoundingBox@@QAEHXZ
_TEXT	SEGMENT
$T85232 = -512
$T85231 = -476
$T85230 = -440
$T85229 = -404
$T85228 = -368
$T85227 = -332
$T85226 = -296
$T85225 = -260
_specular$ = -32
_color$ = -20
_this$ = -8
?InitRenderData@CBoundingBox@@QAEHXZ PROC NEAR		; CBoundingBox::InitRenderData, COMDAT
; _this$ = ecx

; 89   : 	{

  00000	55		 push	 ebp
  00001	8b ec		 mov	 ebp, esp
  00003	81 ec 04 02 00
	00		 sub	 esp, 516		; 00000204H
  00009	53		 push	 ebx
  0000a	56		 push	 esi
  0000b	57		 push	 edi
  0000c	51		 push	 ecx
  0000d	8d bd fc fd ff
	ff		 lea	 edi, DWORD PTR [ebp-516]
  00013	b9 81 00 00 00	 mov	 ecx, 129		; 00000081H
  00018	b8 cc cc cc cc	 mov	 eax, -858993460		; ccccccccH
  0001d	f3 ab		 rep stosd
  0001f	59		 pop	 ecx
  00020	89 4d f8	 mov	 DWORD PTR _this$[ebp], ecx

; 90   : #ifdef _DEBUG
; 91   : 		DWORD color = D3DCOLOR_ARGB(64, 128, 0, 0) ;

  00023	c7 45 ec 00 00
	80 40		 mov	 DWORD PTR _color$[ebp], 1082130432 ; 40800000H

; 92   : 		DWORD specular = D3DCOLOR_ARGB(0, 0, 0, 0) ;

  0002a	c7 45 e0 00 00
	00 00		 mov	 DWORD PTR _specular$[ebp], 0

; 93   : 		m_fvfVerts[0] = COLOREDVERTEX(m_vVerts[0].x, m_vVerts[0].y, m_vVerts[0].z, 0.0f, 1.0f, color, specular) ;

  00031	8b 45 e0	 mov	 eax, DWORD PTR _specular$[ebp]
  00034	50		 push	 eax
  00035	8b 4d ec	 mov	 ecx, DWORD PTR _color$[ebp]
  00038	51		 push	 ecx
  00039	68 00 00 80 3f	 push	 1065353216		; 3f800000H
  0003e	6a 00		 push	 0
  00040	8b 55 f8	 mov	 edx, DWORD PTR _this$[ebp]
  00043	8b 42 20	 mov	 eax, DWORD PTR [edx+32]
  00046	50		 push	 eax
  00047	8b 4d f8	 mov	 ecx, DWORD PTR _this$[ebp]
  0004a	8b 51 1c	 mov	 edx, DWORD PTR [ecx+28]
  0004d	52		 push	 edx
  0004e	8b 45 f8	 mov	 eax, DWORD PTR _this$[ebp]
  00051	8b 48 18	 mov	 ecx, DWORD PTR [eax+24]
  00054	51		 push	 ecx
  00055	8d 8d fc fe ff
	ff		 lea	 ecx, DWORD PTR $T85225[ebp]
  0005b	e8 00 00 00 00	 call	 ??0COLOREDVERTEX@@QAE@MMMMMKK@Z ; COLOREDVERTEX::COLOREDVERTEX
  00060	8b 7d f8	 mov	 edi, DWORD PTR _this$[ebp]
  00063	81 c7 5c 81 00
	00		 add	 edi, 33116		; 0000815cH
  00069	b9 07 00 00 00	 mov	 ecx, 7
  0006e	8b f0		 mov	 esi, eax
  00070	f3 a5		 rep movsd

; 94   : 		m_fvfVerts[1] = COLOREDVERTEX(m_vVerts[1].x, m_vVerts[1].y, m_vVerts[1].z, 0.0f, 1.0f, color, specular) ;

  00072	8b 45 e0	 mov	 eax, DWORD PTR _specular$[ebp]
  00075	50		 push	 eax
  00076	8b 4d ec	 mov	 ecx, DWORD PTR _color$[ebp]
  00079	51		 push	 ecx
  0007a	68 00 00 80 3f	 push	 1065353216		; 3f800000H
  0007f	6a 00		 push	 0
  00081	8b 55 f8	 mov	 edx, DWORD PTR _this$[ebp]
  00084	8b 42 2c	 mov	 eax, DWORD PTR [edx+44]
  00087	50		 push	 eax
  00088	8b 4d f8	 mov	 ecx, DWORD PTR _this$[ebp]
  0008b	8b 51 28	 mov	 edx, DWORD PTR [ecx+40]
  0008e	52		 push	 edx
  0008f	8b 45 f8	 mov	 eax, DWORD PTR _this$[ebp]
  00092	8b 48 24	 mov	 ecx, DWORD PTR [eax+36]
  00095	51		 push	 ecx
  00096	8d 8d d8 fe ff
	ff		 lea	 ecx, DWORD PTR $T85226[ebp]
  0009c	e8 00 00 00 00	 call	 ??0COLOREDVERTEX@@QAE@MMMMMKK@Z ; COLOREDVERTEX::COLOREDVERTEX
  000a1	8b 7d f8	 mov	 edi, DWORD PTR _this$[ebp]
  000a4	81 c7 78 81 00
	00		 add	 edi, 33144		; 00008178H
  000aa	b9 07 00 00 00	 mov	 ecx, 7
  000af	8b f0		 mov	 esi, eax
  000b1	f3 a5		 rep movsd

; 95   : 		m_fvfVerts[2] = COLOREDVERTEX(m_vVerts[2].x, m_vVerts[2].y, m_vVerts[2].z, 0.0f, 1.0f, color, specular) ;

  000b3	8b 45 e0	 mov	 eax, DWORD PTR _specular$[ebp]
  000b6	50		 push	 eax
  000b7	8b 4d ec	 mov	 ecx, DWORD PTR _color$[ebp]
  000ba	51		 push	 ecx
  000bb	68 00 00 80 3f	 push	 1065353216		; 3f800000H
  000c0	6a 00		 push	 0
  000c2	8b 55 f8	 mov	 edx, DWORD PTR _this$[ebp]
  000c5	8b 42 38	 mov	 eax, DWORD PTR [edx+56]
  000c8	50		 push	 eax
  000c9	8b 4d f8	 mov	 ecx, DWORD PTR _this$[ebp]
  000cc	8b 51 34	 mov	 edx, DWORD PTR [ecx+52]
  000cf	52		 push	 edx
  000d0	8b 45 f8	 mov	 eax, DWORD PTR _this$[ebp]
  000d3	8b 48 30	 mov	 ecx, DWORD PTR [eax+48]
  000d6	51		 push	 ecx
  000d7	8d 8d b4 fe ff
	ff		 lea	 ecx, DWORD PTR $T85227[ebp]
  000dd	e8 00 00 00 00	 call	 ??0COLOREDVERTEX@@QAE@MMMMMKK@Z ; COLOREDVERTEX::COLOREDVERTEX
  000e2	8b 7d f8	 mov	 edi, DWORD PTR _this$[ebp]
  000e5	81 c7 94 81 00
	00		 add	 edi, 33172		; 00008194H
  000eb	b9 07 00 00 00	 mov	 ecx, 7
  000f0	8b f0		 mov	 esi, eax
  000f2	f3 a5		 rep movsd

; 96   : 		m_fvfVerts[3] = COLOREDVERTEX(m_vVerts[3].x, m_vVerts[3].y, m_vVerts[3].z, 0.0f, 1.0f, color, specular) ;

  000f4	8b 45 e0	 mov	 eax, DWORD PTR _specular$[ebp]
  000f7	50		 push	 eax
  000f8	8b 4d ec	 mov	 ecx, DWORD PTR _color$[ebp]
  000fb	51		 push	 ecx
  000fc	68 00 00 80 3f	 push	 1065353216		; 3f800000H
  00101	6a 00		 push	 0
  00103	8b 55 f8	 mov	 edx, DWORD PTR _this$[ebp]
  00106	8b 42 44	 mov	 eax, DWORD PTR [edx+68]
  00109	50		 push	 eax
  0010a	8b 4d f8	 mov	 ecx, DWORD PTR _this$[ebp]
  0010d	8b 51 40	 mov	 edx, DWORD PTR [ecx+64]
  00110	52		 push	 edx
  00111	8b 45 f8	 mov	 eax, DWORD PTR _this$[ebp]
  00114	8b 48 3c	 mov	 ecx, DWORD PTR [eax+60]
  00117	51		 push	 ecx
  00118	8d 8d 90 fe ff
	ff		 lea	 ecx, DWORD PTR $T85228[ebp]
  0011e	e8 00 00 00 00	 call	 ??0COLOREDVERTEX@@QAE@MMMMMKK@Z ; COLOREDVERTEX::COLOREDVERTEX
  00123	8b 7d f8	 mov	 edi, DWORD PTR _this$[ebp]
  00126	81 c7 b0 81 00
	00		 add	 edi, 33200		; 000081b0H
  0012c	b9 07 00 00 00	 mov	 ecx, 7
  00131	8b f0		 mov	 esi, eax
  00133	f3 a5		 rep movsd

; 97   : 		m_fvfVerts[4] = COLOREDVERTEX(m_vVerts[4].x, m_vVerts[4].y, m_vVerts[4].z, 0.0f, 1.0f, color, specular) ;

  00135	8b 45 e0	 mov	 eax, DWORD PTR _specular$[ebp]
  00138	50		 push	 eax
  00139	8b 4d ec	 mov	 ecx, DWORD PTR _color$[ebp]
  0013c	51		 push	 ecx
  0013d	68 00 00 80 3f	 push	 1065353216		; 3f800000H
  00142	6a 00		 push	 0
  00144	8b 55 f8	 mov	 edx, DWORD PTR _this$[ebp]
  00147	8b 42 50	 mov	 eax, DWORD PTR [edx+80]
  0014a	50		 push	 eax
  0014b	8b 4d f8	 mov	 ecx, DWORD PTR _this$[ebp]
  0014e	8b 51 4c	 mov	 edx, DWORD PTR [ecx+76]
  00151	52		 push	 edx
  00152	8b 45 f8	 mov	 eax, DWORD PTR _this$[ebp]
  00155	8b 48 48	 mov	 ecx, DWORD PTR [eax+72]
  00158	51		 push	 ecx
  00159	8d 8d 6c fe ff
	ff		 lea	 ecx, DWORD PTR $T85229[ebp]
  0015f	e8 00 00 00 00	 call	 ??0COLOREDVERTEX@@QAE@MMMMMKK@Z ; COLOREDVERTEX::COLOREDVERTEX
  00164	8b 7d f8	 mov	 edi, DWORD PTR _this$[ebp]
  00167	81 c7 cc 81 00
	00		 add	 edi, 33228		; 000081ccH
  0016d	b9 07 00 00 00	 mov	 ecx, 7
  00172	8b f0		 mov	 esi, eax
  00174	f3 a5		 rep movsd

; 98   : 		m_fvfVerts[5] = COLOREDVERTEX(m_vVerts[5].x, m_vVerts[5].y, m_vVerts[5].z, 0.0f, 1.0f, color, specular) ;

  00176	8b 45 e0	 mov	 eax, DWORD PTR _specular$[ebp]
  00179	50		 push	 eax
  0017a	8b 4d ec	 mov	 ecx, DWORD PTR _color$[ebp]
  0017d	51		 push	 ecx
  0017e	68 00 00 80 3f	 push	 1065353216		; 3f800000H
  00183	6a 00		 push	 0
  00185	8b 55 f8	 mov	 edx, DWORD PTR _this$[ebp]
  00188	8b 42 5c	 mov	 eax, DWORD PTR [edx+92]
  0018b	50		 push	 eax
  0018c	8b 4d f8	 mov	 ecx, DWORD PTR _this$[ebp]
  0018f	8b 51 58	 mov	 edx, DWORD PTR [ecx+88]
  00192	52		 push	 edx
  00193	8b 45 f8	 mov	 eax, DWORD PTR _this$[ebp]
  00196	8b 48 54	 mov	 ecx, DWORD PTR [eax+84]
  00199	51		 push	 ecx
  0019a	8d 8d 48 fe ff
	ff		 lea	 ecx, DWORD PTR $T85230[ebp]
  001a0	e8 00 00 00 00	 call	 ??0COLOREDVERTEX@@QAE@MMMMMKK@Z ; COLOREDVERTEX::COLOREDVERTEX
  001a5	8b 7d f8	 mov	 edi, DWORD PTR _this$[ebp]
  001a8	81 c7 e8 81 00
	00		 add	 edi, 33256		; 000081e8H
  001ae	b9 07 00 00 00	 mov	 ecx, 7
  001b3	8b f0		 mov	 esi, eax
  001b5	f3 a5		 rep movsd

; 99   : 		m_fvfVerts[6] = COLOREDVERTEX(m_vVerts[6].x, m_vVerts[6].y, m_vVerts[6].z, 0.0f, 1.0f, color, specular) ;

  001b7	8b 45 e0	 mov	 eax, DWORD PTR _specular$[ebp]
  001ba	50		 push	 eax
  001bb	8b 4d ec	 mov	 ecx, DWORD PTR _color$[ebp]
  001be	51		 push	 ecx
  001bf	68 00 00 80 3f	 push	 1065353216		; 3f800000H
  001c4	6a 00		 push	 0
  001c6	8b 55 f8	 mov	 edx, DWORD PTR _this$[ebp]
  001c9	8b 42 68	 mov	 eax, DWORD PTR [edx+104]
  001cc	50		 push	 eax
  001cd	8b 4d f8	 mov	 ecx, DWORD PTR _this$[ebp]
  001d0	8b 51 64	 mov	 edx, DWORD PTR [ecx+100]
  001d3	52		 push	 edx
  001d4	8b 45 f8	 mov	 eax, DWORD PTR _this$[ebp]
  001d7	8b 48 60	 mov	 ecx, DWORD PTR [eax+96]
  001da	51		 push	 ecx
  001db	8d 8d 24 fe ff
	ff		 lea	 ecx, DWORD PTR $T85231[ebp]
  001e1	e8 00 00 00 00	 call	 ??0COLOREDVERTEX@@QAE@MMMMMKK@Z ; COLOREDVERTEX::COLOREDVERTEX
  001e6	8b 7d f8	 mov	 edi, DWORD PTR _this$[ebp]
  001e9	81 c7 04 82 00
	00		 add	 edi, 33284		; 00008204H
  001ef	b9 07 00 00 00	 mov	 ecx, 7
  001f4	8b f0		 mov	 esi, eax
  001f6	f3 a5		 rep movsd

; 100  : 		m_fvfVerts[7] = COLOREDVERTEX(m_vVerts[7].x, m_vVerts[7].y, m_vVerts[7].z, 0.0f, 1.0f, color, specular) ;

  001f8	8b 45 e0	 mov	 eax, DWORD PTR _specular$[ebp]
  001fb	50		 push	 eax
  001fc	8b 4d ec	 mov	 ecx, DWORD PTR _color$[ebp]
  001ff	51		 push	 ecx
  00200	68 00 00 80 3f	 push	 1065353216		; 3f800000H
  00205	6a 00		 push	 0
  00207	8b 55 f8	 mov	 edx, DWORD PTR _this$[ebp]
  0020a	8b 42 74	 mov	 eax, DWORD PTR [edx+116]
  0020d	50		 push	 eax
  0020e	8b 4d f8	 mov	 ecx, DWORD PTR _this$[ebp]
  00211	8b 51 70	 mov	 edx, DWORD PTR [ecx+112]
  00214	52		 push	 edx
  00215	8b 45 f8	 mov	 eax, DWORD PTR _this$[ebp]
  00218	8b 48 6c	 mov	 ecx, DWORD PTR [eax+108]
  0021b	51		 push	 ecx
  0021c	8d 8d 00 fe ff
	ff		 lea	 ecx, DWORD PTR $T85232[ebp]
  00222	e8 00 00 00 00	 call	 ??0COLOREDVERTEX@@QAE@MMMMMKK@Z ; COLOREDVERTEX::COLOREDVERTEX
  00227	8b 7d f8	 mov	 edi, DWORD PTR _this$[ebp]
  0022a	81 c7 20 82 00
	00		 add	 edi, 33312		; 00008220H
  00230	b9 07 00 00 00	 mov	 ecx, 7
  00235	8b f0		 mov	 esi, eax
  00237	f3 a5		 rep movsd

; 101  : 		m_wIndices[0] = 0 ;	 // front face

  00239	8b 45 f8	 mov	 eax, DWORD PTR _this$[ebp]
  0023c	66 c7 80 3c 82
	00 00 00 00	 mov	 WORD PTR [eax+33340], 0

; 102  : 		m_wIndices[1] = 1 ; 

  00245	8b 45 f8	 mov	 eax, DWORD PTR _this$[ebp]
  00248	66 c7 80 3e 82
	00 00 01 00	 mov	 WORD PTR [eax+33342], 1

; 103  : 		m_wIndices[2] = 2 ;

  00251	8b 45 f8	 mov	 eax, DWORD PTR _this$[ebp]
  00254	66 c7 80 40 82
	00 00 02 00	 mov	 WORD PTR [eax+33344], 2

; 104  : 		m_wIndices[3] = 3 ;

  0025d	8b 45 f8	 mov	 eax, DWORD PTR _this$[ebp]
  00260	66 c7 80 42 82
	00 00 03 00	 mov	 WORD PTR [eax+33346], 3

; 105  : 		m_wIndices[4] = 2 ;

  00269	8b 45 f8	 mov	 eax, DWORD PTR _this$[ebp]
  0026c	66 c7 80 44 82
	00 00 02 00	 mov	 WORD PTR [eax+33348], 2

; 106  : 		m_wIndices[5] = 1 ; 

  00275	8b 45 f8	 mov	 eax, DWORD PTR _this$[ebp]
  00278	66 c7 80 46 82
	00 00 01 00	 mov	 WORD PTR [eax+33350], 1

; 107  : 		m_wIndices[6] = 4 ;  // back face

  00281	8b 45 f8	 mov	 eax, DWORD PTR _this$[ebp]
  00284	66 c7 80 48 82
	00 00 04 00	 mov	 WORD PTR [eax+33352], 4

; 108  : 		m_wIndices[7] = 5 ;

  0028d	8b 45 f8	 mov	 eax, DWORD PTR _this$[ebp]
  00290	66 c7 80 4a 82
	00 00 05 00	 mov	 WORD PTR [eax+33354], 5

; 109  : 		m_wIndices[8] = 6 ;

  00299	8b 45 f8	 mov	 eax, DWORD PTR _this$[ebp]
  0029c	66 c7 80 4c 82
	00 00 06 00	 mov	 WORD PTR [eax+33356], 6

; 110  : 		m_wIndices[9] = 7 ;

  002a5	8b 45 f8	 mov	 eax, DWORD PTR _this$[ebp]
  002a8	66 c7 80 4e 82
	00 00 07 00	 mov	 WORD PTR [eax+33358], 7

; 111  : 		m_wIndices[10] = 6 ;

  002b1	8b 45 f8	 mov	 eax, DWORD PTR _this$[ebp]
  002b4	66 c7 80 50 82
	00 00 06 00	 mov	 WORD PTR [eax+33360], 6

; 112  : 		m_wIndices[11] = 5 ;

  002bd	8b 45 f8	 mov	 eax, DWORD PTR _this$[ebp]
  002c0	66 c7 80 52 82
	00 00 05 00	 mov	 WORD PTR [eax+33362], 5

; 113  : 		m_wIndices[12] = 1 ; // top face

  002c9	8b 45 f8	 mov	 eax, DWORD PTR _this$[ebp]
  002cc	66 c7 80 54 82
	00 00 01 00	 mov	 WORD PTR [eax+33364], 1

; 114  : 		m_wIndices[13] = 5 ;

  002d5	8b 45 f8	 mov	 eax, DWORD PTR _this$[ebp]
  002d8	66 c7 80 56 82
	00 00 05 00	 mov	 WORD PTR [eax+33366], 5

; 115  : 		m_wIndices[14] = 7 ;

  002e1	8b 45 f8	 mov	 eax, DWORD PTR _this$[ebp]
  002e4	66 c7 80 58 82
	00 00 07 00	 mov	 WORD PTR [eax+33368], 7

; 116  : 		m_wIndices[15] = 1 ;

  002ed	8b 45 f8	 mov	 eax, DWORD PTR _this$[ebp]
  002f0	66 c7 80 5a 82
	00 00 01 00	 mov	 WORD PTR [eax+33370], 1

; 117  : 		m_wIndices[16] = 3 ;

  002f9	8b 45 f8	 mov	 eax, DWORD PTR _this$[ebp]
  002fc	66 c7 80 5c 82
	00 00 03 00	 mov	 WORD PTR [eax+33372], 3

; 118  : 		m_wIndices[17] = 7 ;

  00305	8b 45 f8	 mov	 eax, DWORD PTR _this$[ebp]
  00308	66 c7 80 5e 82
	00 00 07 00	 mov	 WORD PTR [eax+33374], 7

; 119  : 		m_wIndices[18] = 0 ; // bottom face

  00311	8b 45 f8	 mov	 eax, DWORD PTR _this$[ebp]
  00314	66 c7 80 60 82
	00 00 00 00	 mov	 WORD PTR [eax+33376], 0

; 120  : 		m_wIndices[19] = 4 ;

  0031d	8b 45 f8	 mov	 eax, DWORD PTR _this$[ebp]
  00320	66 c7 80 62 82
	00 00 04 00	 mov	 WORD PTR [eax+33378], 4

; 121  : 		m_wIndices[20] = 6 ;

  00329	8b 45 f8	 mov	 eax, DWORD PTR _this$[ebp]
  0032c	66 c7 80 64 82
	00 00 06 00	 mov	 WORD PTR [eax+33380], 6

; 122  : 		m_wIndices[21] = 0 ;

  00335	8b 45 f8	 mov	 eax, DWORD PTR _this$[ebp]
  00338	66 c7 80 66 82
	00 00 00 00	 mov	 WORD PTR [eax+33382], 0

; 123  : 		m_wIndices[22] = 2 ;

  00341	8b 45 f8	 mov	 eax, DWORD PTR _this$[ebp]
  00344	66 c7 80 68 82
	00 00 02 00	 mov	 WORD PTR [eax+33384], 2

; 124  : 		m_wIndices[23] = 6 ;

  0034d	8b 45 f8	 mov	 eax, DWORD PTR _this$[ebp]
  00350	66 c7 80 6a 82
	00 00 06 00	 mov	 WORD PTR [eax+33386], 6

; 125  : 		m_wIndices[24] = 0 ; // left face

  00359	8b 45 f8	 mov	 eax, DWORD PTR _this$[ebp]
  0035c	66 c7 80 6c 82
	00 00 00 00	 mov	 WORD PTR [eax+33388], 0

; 126  : 		m_wIndices[25] = 1 ;

  00365	8b 45 f8	 mov	 eax, DWORD PTR _this$[ebp]
  00368	66 c7 80 6e 82
	00 00 01 00	 mov	 WORD PTR [eax+33390], 1

; 127  : 		m_wIndices[26] = 5 ;

  00371	8b 45 f8	 mov	 eax, DWORD PTR _this$[ebp]
  00374	66 c7 80 70 82
	00 00 05 00	 mov	 WORD PTR [eax+33392], 5

; 128  : 		m_wIndices[27] = 4 ;

  0037d	8b 45 f8	 mov	 eax, DWORD PTR _this$[ebp]
  00380	66 c7 80 72 82
	00 00 04 00	 mov	 WORD PTR [eax+33394], 4

; 129  : 		m_wIndices[28] = 5 ;

  00389	8b 45 f8	 mov	 eax, DWORD PTR _this$[ebp]
  0038c	66 c7 80 74 82
	00 00 05 00	 mov	 WORD PTR [eax+33396], 5

; 130  : 		m_wIndices[29] = 0 ;

  00395	8b 45 f8	 mov	 eax, DWORD PTR _this$[ebp]
  00398	66 c7 80 76 82
	00 00 00 00	 mov	 WORD PTR [eax+33398], 0

; 131  : 		m_wIndices[30] = 2 ; // right face

  003a1	8b 45 f8	 mov	 eax, DWORD PTR _this$[ebp]
  003a4	66 c7 80 78 82
	00 00 02 00	 mov	 WORD PTR [eax+33400], 2

; 132  : 		m_wIndices[31] = 3 ;

  003ad	8b 45 f8	 mov	 eax, DWORD PTR _this$[ebp]
  003b0	66 c7 80 7a 82
	00 00 03 00	 mov	 WORD PTR [eax+33402], 3

; 133  : 		m_wIndices[32] = 6 ;

  003b9	8b 45 f8	 mov	 eax, DWORD PTR _this$[ebp]
  003bc	66 c7 80 7c 82
	00 00 06 00	 mov	 WORD PTR [eax+33404], 6

; 134  : 		m_wIndices[33] = 3 ;

  003c5	8b 45 f8	 mov	 eax, DWORD PTR _this$[ebp]
  003c8	66 c7 80 7e 82
	00 00 03 00	 mov	 WORD PTR [eax+33406], 3

; 135  : 		m_wIndices[34] = 6 ;

  003d1	8b 45 f8	 mov	 eax, DWORD PTR _this$[ebp]
  003d4	66 c7 80 80 82
	00 00 06 00	 mov	 WORD PTR [eax+33408], 6

; 136  : 		m_wIndices[35] = 7 ;

  003dd	8b 45 f8	 mov	 eax, DWORD PTR _this$[ebp]
  003e0	66 c7 80 82 82
	00 00 07 00	 mov	 WORD PTR [eax+33410], 7

; 137  : 
; 138  : 		D3DUtil_InitMaterial(m_Mtrl, 1, 1, 1) ;

  003e9	68 00 00 80 3f	 push	 1065353216		; 3f800000H
  003ee	68 00 00 80 3f	 push	 1065353216		; 3f800000H
  003f3	68 00 00 80 3f	 push	 1065353216		; 3f800000H
  003f8	68 00 00 80 3f	 push	 1065353216		; 3f800000H
  003fd	8b 45 f8	 mov	 eax, DWORD PTR _this$[ebp]
  00400	05 88 82 00 00	 add	 eax, 33416		; 00008288H
  00405	50		 push	 eax
  00406	e8 00 00 00 00	 call	 ?D3DUtil_InitMaterial@@YAXAAU_D3DMATERIAL8@@MMMM@Z ; D3DUtil_InitMaterial
  0040b	83 c4 14	 add	 esp, 20			; 00000014H

; 139  : #endif
; 140  : 	}

  0040e	5f		 pop	 edi
  0040f	5e		 pop	 esi
  00410	5b		 pop	 ebx
  00411	81 c4 04 02 00
	00		 add	 esp, 516		; 00000204H
  00417	3b ec		 cmp	 ebp, esp
  00419	e8 00 00 00 00	 call	 __RTC_CheckEsp
  0041e	8b e5		 mov	 esp, ebp
  00420	5d		 pop	 ebp
  00421	c3		 ret	 0
?InitRenderData@CBoundingBox@@QAEHXZ ENDP		; CBoundingBox::InitRenderData
_TEXT	ENDS
PUBLIC	??1CBoundingBox@@QAE@XZ				; CBoundingBox::~CBoundingBox
EXTRN	??3@YAXPAX@Z:NEAR				; operator delete
; Function compile flags: /Odt /RTCsu /ZI
;	COMDAT ??1CBoundingBox@@QAE@XZ
_TEXT	SEGMENT
$T85235 = -224
_i$84992 = -20
_this$ = -8
??1CBoundingBox@@QAE@XZ PROC NEAR			; CBoundingBox::~CBoundingBox, COMDAT
; _this$ = ecx

; 142  : 	{

  00000	55		 push	 ebp
  00001	8b ec		 mov	 ebp, esp
  00003	81 ec e4 00 00
	00		 sub	 esp, 228		; 000000e4H
  00009	53		 push	 ebx
  0000a	56		 push	 esi
  0000b	57		 push	 edi
  0000c	51		 push	 ecx
  0000d	8d bd 1c ff ff
	ff		 lea	 edi, DWORD PTR [ebp-228]
  00013	b9 39 00 00 00	 mov	 ecx, 57			; 00000039H
  00018	b8 cc cc cc cc	 mov	 eax, -858993460		; ccccccccH
  0001d	f3 ab		 rep stosd
  0001f	59		 pop	 ecx
  00020	89 4d f8	 mov	 DWORD PTR _this$[ebp], ecx

; 143  : 		SAFE_RELEASE( m_pMesh )

  00023	8b 45 f8	 mov	 eax, DWORD PTR _this$[ebp]
  00026	83 b8 84 82 00
	00 00		 cmp	 DWORD PTR [eax+33412], 0
  0002d	74 2e		 je	 SHORT $L84987
  0002f	8b 45 f8	 mov	 eax, DWORD PTR _this$[ebp]
  00032	8b 88 84 82 00
	00		 mov	 ecx, DWORD PTR [eax+33412]
  00038	8b 55 f8	 mov	 edx, DWORD PTR _this$[ebp]
  0003b	8b 82 84 82 00
	00		 mov	 eax, DWORD PTR [edx+33412]
  00041	8b 09		 mov	 ecx, DWORD PTR [ecx]
  00043	8b f4		 mov	 esi, esp
  00045	50		 push	 eax
  00046	ff 51 08	 call	 DWORD PTR [ecx+8]
  00049	3b f4		 cmp	 esi, esp
  0004b	e8 00 00 00 00	 call	 __RTC_CheckEsp
  00050	8b 45 f8	 mov	 eax, DWORD PTR _this$[ebp]
  00053	c7 80 84 82 00
	00 00 00 00 00	 mov	 DWORD PTR [eax+33412], 0
$L84987:

; 144  : 		SAFE_RELEASE( m_pVB )

  0005d	8b 45 f8	 mov	 eax, DWORD PTR _this$[ebp]
  00060	83 b8 cc 82 00
	00 00		 cmp	 DWORD PTR [eax+33484], 0
  00067	74 2e		 je	 SHORT $L84988
  00069	8b 45 f8	 mov	 eax, DWORD PTR _this$[ebp]
  0006c	8b 88 cc 82 00
	00		 mov	 ecx, DWORD PTR [eax+33484]
  00072	8b 55 f8	 mov	 edx, DWORD PTR _this$[ebp]
  00075	8b 82 cc 82 00
	00		 mov	 eax, DWORD PTR [edx+33484]
  0007b	8b 09		 mov	 ecx, DWORD PTR [ecx]
  0007d	8b f4		 mov	 esi, esp
  0007f	50		 push	 eax
  00080	ff 51 08	 call	 DWORD PTR [ecx+8]
  00083	3b f4		 cmp	 esi, esp
  00085	e8 00 00 00 00	 call	 __RTC_CheckEsp
  0008a	8b 45 f8	 mov	 eax, DWORD PTR _this$[ebp]
  0008d	c7 80 cc 82 00
	00 00 00 00 00	 mov	 DWORD PTR [eax+33484], 0
$L84988:

; 145  : 		SAFE_RELEASE( m_pIB )

  00097	8b 45 f8	 mov	 eax, DWORD PTR _this$[ebp]
  0009a	83 b8 d4 82 00
	00 00		 cmp	 DWORD PTR [eax+33492], 0
  000a1	74 2e		 je	 SHORT $L84989
  000a3	8b 45 f8	 mov	 eax, DWORD PTR _this$[ebp]
  000a6	8b 88 d4 82 00
	00		 mov	 ecx, DWORD PTR [eax+33492]
  000ac	8b 55 f8	 mov	 edx, DWORD PTR _this$[ebp]
  000af	8b 82 d4 82 00
	00		 mov	 eax, DWORD PTR [edx+33492]
  000b5	8b 09		 mov	 ecx, DWORD PTR [ecx]
  000b7	8b f4		 mov	 esi, esp
  000b9	50		 push	 eax
  000ba	ff 51 08	 call	 DWORD PTR [ecx+8]
  000bd	3b f4		 cmp	 esi, esp
  000bf	e8 00 00 00 00	 call	 __RTC_CheckEsp
  000c4	8b 45 f8	 mov	 eax, DWORD PTR _this$[ebp]
  000c7	c7 80 d4 82 00
	00 00 00 00 00	 mov	 DWORD PTR [eax+33492], 0
$L84989:

; 146  : 		SAFE_RELEASE( m_pVBProcessed )

  000d1	8b 45 f8	 mov	 eax, DWORD PTR _this$[ebp]
  000d4	83 b8 d0 82 00
	00 00		 cmp	 DWORD PTR [eax+33488], 0
  000db	74 2e		 je	 SHORT $L84990
  000dd	8b 45 f8	 mov	 eax, DWORD PTR _this$[ebp]
  000e0	8b 88 d0 82 00
	00		 mov	 ecx, DWORD PTR [eax+33488]
  000e6	8b 55 f8	 mov	 edx, DWORD PTR _this$[ebp]
  000e9	8b 82 d0 82 00
	00		 mov	 eax, DWORD PTR [edx+33488]
  000ef	8b 09		 mov	 ecx, DWORD PTR [ecx]
  000f1	8b f4		 mov	 esi, esp
  000f3	50		 push	 eax
  000f4	ff 51 08	 call	 DWORD PTR [ecx+8]
  000f7	3b f4		 cmp	 esi, esp
  000f9	e8 00 00 00 00	 call	 __RTC_CheckEsp
  000fe	8b 45 f8	 mov	 eax, DWORD PTR _this$[ebp]
  00101	c7 80 d0 82 00
	00 00 00 00 00	 mov	 DWORD PTR [eax+33488], 0
$L84990:

; 147  : 
; 148  : 		if( m_bOTBuilt )

  0010b	8b 45 f8	 mov	 eax, DWORD PTR _this$[ebp]
  0010e	83 b8 18 81 00
	00 00		 cmp	 DWORD PTR [eax+33048], 0
  00115	74 65		 je	 SHORT $L84986

; 149  : 		{
; 150  : 			for( int i=0 ; i<m_nOTNodes ; i++ )

  00117	c7 45 ec 00 00
	00 00		 mov	 DWORD PTR _i$84992[ebp], 0
  0011e	eb 09		 jmp	 SHORT $L84993
$L84994:
  00120	8b 45 ec	 mov	 eax, DWORD PTR _i$84992[ebp]
  00123	83 c0 01	 add	 eax, 1
  00126	89 45 ec	 mov	 DWORD PTR _i$84992[ebp], eax
$L84993:
  00129	8b 45 f8	 mov	 eax, DWORD PTR _this$[ebp]
  0012c	8b 4d ec	 mov	 ecx, DWORD PTR _i$84992[ebp]
  0012f	3b 88 14 81 00
	00		 cmp	 ecx, DWORD PTR [eax+33044]
  00135	7d 45		 jge	 SHORT $L84986

; 151  : 				SAFE_DELETE( m_pOTNodes[i] )

  00137	8b 45 ec	 mov	 eax, DWORD PTR _i$84992[ebp]
  0013a	8b 4d f8	 mov	 ecx, DWORD PTR _this$[ebp]
  0013d	83 bc 81 14 01
	00 00 00	 cmp	 DWORD PTR [ecx+eax*4+276], 0
  00145	74 33		 je	 SHORT $L84996
  00147	8b 45 ec	 mov	 eax, DWORD PTR _i$84992[ebp]
  0014a	8b 4d f8	 mov	 ecx, DWORD PTR _this$[ebp]
  0014d	8b 94 81 14 01
	00 00		 mov	 edx, DWORD PTR [ecx+eax*4+276]
  00154	89 95 20 ff ff
	ff		 mov	 DWORD PTR $T85235[ebp], edx
  0015a	8b 85 20 ff ff
	ff		 mov	 eax, DWORD PTR $T85235[ebp]
  00160	50		 push	 eax
  00161	e8 00 00 00 00	 call	 ??3@YAXPAX@Z		; operator delete
  00166	83 c4 04	 add	 esp, 4
  00169	8b 45 ec	 mov	 eax, DWORD PTR _i$84992[ebp]
  0016c	8b 4d f8	 mov	 ecx, DWORD PTR _this$[ebp]
  0016f	c7 84 81 14 01
	00 00 00 00 00
	00		 mov	 DWORD PTR [ecx+eax*4+276], 0
$L84996:
  0017a	eb a4		 jmp	 SHORT $L84994
$L84986:

; 152  : 		}
; 153  : 	}

  0017c	5f		 pop	 edi
  0017d	5e		 pop	 esi
  0017e	5b		 pop	 ebx
  0017f	81 c4 e4 00 00
	00		 add	 esp, 228		; 000000e4H
  00185	3b ec		 cmp	 ebp, esp
  00187	e8 00 00 00 00	 call	 __RTC_CheckEsp
  0018c	8b e5		 mov	 esp, ebp
  0018e	5d		 pop	 ebp
  0018f	c3		 ret	 0
??1CBoundingBox@@QAE@XZ ENDP				; CBoundingBox::~CBoundingBox
_TEXT	ENDS
PUBLIC	?BuildOctree@CBoundingBox@@QAEXH@Z		; CBoundingBox::BuildOctree
PUBLIC	?RecurseOctree@CBoundingBox@@QAEXHPAU_OTNode@1@@Z ; CBoundingBox::RecurseOctree
PUBLIC	?InitOctreeNode@CBoundingBox@@QAEXPAPAU_OTNode@1@@Z ; CBoundingBox::InitOctreeNode
; Function compile flags: /Odt /RTCsu /ZI
;	COMDAT ?BuildOctree@CBoundingBox@@QAEXH@Z
_TEXT	SEGMENT
_this$ = -8
_nSubdivides$ = 8
?BuildOctree@CBoundingBox@@QAEXH@Z PROC NEAR		; CBoundingBox::BuildOctree, COMDAT
; _this$ = ecx

; 161  : 	{

  00000	55		 push	 ebp
  00001	8b ec		 mov	 ebp, esp
  00003	81 ec cc 00 00
	00		 sub	 esp, 204		; 000000ccH
  00009	53		 push	 ebx
  0000a	56		 push	 esi
  0000b	57		 push	 edi
  0000c	51		 push	 ecx
  0000d	8d bd 34 ff ff
	ff		 lea	 edi, DWORD PTR [ebp-204]
  00013	b9 33 00 00 00	 mov	 ecx, 51			; 00000033H
  00018	b8 cc cc cc cc	 mov	 eax, -858993460		; ccccccccH
  0001d	f3 ab		 rep stosd
  0001f	59		 pop	 ecx
  00020	89 4d f8	 mov	 DWORD PTR _this$[ebp], ecx

; 162  : 		if (m_bOTBuilt)

  00023	8b 45 f8	 mov	 eax, DWORD PTR _this$[ebp]
  00026	83 b8 18 81 00
	00 00		 cmp	 DWORD PTR [eax+33048], 0
  0002d	74 02		 je	 SHORT $L85002

; 163  : 			return ;

  0002f	eb 7b		 jmp	 SHORT $L85001
$L85002:

; 164  : 
; 165  : 		// create root node
; 166  : 		InitOctreeNode(&m_pOT) ;

  00031	8b 45 f8	 mov	 eax, DWORD PTR _this$[ebp]
  00034	05 10 01 00 00	 add	 eax, 272		; 00000110H
  00039	50		 push	 eax
  0003a	8b 4d f8	 mov	 ecx, DWORD PTR _this$[ebp]
  0003d	e8 00 00 00 00	 call	 ?InitOctreeNode@CBoundingBox@@QAEXPAPAU_OTNode@1@@Z ; CBoundingBox::InitOctreeNode

; 167  : 		m_pOT->vMin = m_vMin ;

  00042	8b 45 f8	 mov	 eax, DWORD PTR _this$[ebp]
  00045	8b 4d f8	 mov	 ecx, DWORD PTR _this$[ebp]
  00048	8b 91 10 01 00
	00		 mov	 edx, DWORD PTR [ecx+272]
  0004e	83 c2 20	 add	 edx, 32			; 00000020H
  00051	8b 08		 mov	 ecx, DWORD PTR [eax]
  00053	89 0a		 mov	 DWORD PTR [edx], ecx
  00055	8b 48 04	 mov	 ecx, DWORD PTR [eax+4]
  00058	89 4a 04	 mov	 DWORD PTR [edx+4], ecx
  0005b	8b 40 08	 mov	 eax, DWORD PTR [eax+8]
  0005e	89 42 08	 mov	 DWORD PTR [edx+8], eax

; 168  : 		m_pOT->vMax = m_vMax ;

  00061	8b 45 f8	 mov	 eax, DWORD PTR _this$[ebp]
  00064	83 c0 0c	 add	 eax, 12			; 0000000cH
  00067	8b 4d f8	 mov	 ecx, DWORD PTR _this$[ebp]
  0006a	8b 91 10 01 00
	00		 mov	 edx, DWORD PTR [ecx+272]
  00070	83 c2 2c	 add	 edx, 44			; 0000002cH
  00073	8b 08		 mov	 ecx, DWORD PTR [eax]
  00075	89 0a		 mov	 DWORD PTR [edx], ecx
  00077	8b 48 04	 mov	 ecx, DWORD PTR [eax+4]
  0007a	89 4a 04	 mov	 DWORD PTR [edx+4], ecx
  0007d	8b 40 08	 mov	 eax, DWORD PTR [eax+8]
  00080	89 42 08	 mov	 DWORD PTR [edx+8], eax

; 169  : 
; 170  : 		// subdivide
; 171  : 		if (nSubdivides > 0)

  00083	83 7d 08 00	 cmp	 DWORD PTR _nSubdivides$[ebp], 0
  00087	7e 16		 jle	 SHORT $L85003

; 172  : 			RecurseOctree(nSubdivides, m_pOT) ;

  00089	8b 45 f8	 mov	 eax, DWORD PTR _this$[ebp]
  0008c	8b 88 10 01 00
	00		 mov	 ecx, DWORD PTR [eax+272]
  00092	51		 push	 ecx
  00093	8b 55 08	 mov	 edx, DWORD PTR _nSubdivides$[ebp]
  00096	52		 push	 edx
  00097	8b 4d f8	 mov	 ecx, DWORD PTR _this$[ebp]
  0009a	e8 00 00 00 00	 call	 ?RecurseOctree@CBoundingBox@@QAEXHPAU_OTNode@1@@Z ; CBoundingBox::RecurseOctree
$L85003:

; 173  : 
; 174  : 		m_bOTBuilt = TRUE ;

  0009f	8b 45 f8	 mov	 eax, DWORD PTR _this$[ebp]
  000a2	c7 80 18 81 00
	00 01 00 00 00	 mov	 DWORD PTR [eax+33048], 1
$L85001:

; 175  : 	}

  000ac	5f		 pop	 edi
  000ad	5e		 pop	 esi
  000ae	5b		 pop	 ebx
  000af	81 c4 cc 00 00
	00		 add	 esp, 204		; 000000ccH
  000b5	3b ec		 cmp	 ebp, esp
  000b7	e8 00 00 00 00	 call	 __RTC_CheckEsp
  000bc	8b e5		 mov	 esp, ebp
  000be	5d		 pop	 ebp
  000bf	c2 04 00	 ret	 4
?BuildOctree@CBoundingBox@@QAEXH@Z ENDP			; CBoundingBox::BuildOctree
_TEXT	ENDS
PUBLIC	?__LINE__Var@?1??InitOctreeNode@CBoundingBox@@QAEXPAPAU_OTNode@2@@Z@4JA ; `CBoundingBox::InitOctreeNode'::`2'::__LINE__Var
PUBLIC	??_C@_0EO@OLNAAMEJ@c?3?2documents?5and?5settings?2dom?2my@ ; `string'
PUBLIC	??_C@_07MGPDHOIB@?$CKppNode?$AA@		; `string'
PUBLIC	??_C@_0BK@CHONACEG@m_nOTNodes?5?$DM?5MAX_OT_NODES?$AA@ ; `string'
PUBLIC	??0_OTNode@CBoundingBox@@QAE@XZ			; CBoundingBox::_OTNode::_OTNode
EXTRN	??2@YAPAXI@Z:NEAR				; operator new
EXTRN	__assert:NEAR
;	COMDAT ?__LINE__Var@?1??InitOctreeNode@CBoundingBox@@QAEXPAPAU_OTNode@2@@Z@4JA
_DATA	SEGMENT
?__LINE__Var@?1??InitOctreeNode@CBoundingBox@@QAEXPAPAU_OTNode@2@@Z@4JA DD 0b1H ; `CBoundingBox::InitOctreeNode'::`2'::__LINE__Var
_DATA	ENDS
;	COMDAT ??_C@_0EO@OLNAAMEJ@c?3?2documents?5and?5settings?2dom?2my@
CONST	SEGMENT
??_C@_0EO@OLNAAMEJ@c?3?2documents?5and?5settings?2dom?2my@ DB 'c:\documen'
	DB	'ts and settings\dom\my documents\_dev\ae\xlr8a\x7g\cboundingb'
	DB	'ox.cpp', 00H				; `string'
CONST	ENDS
;	COMDAT ??_C@_07MGPDHOIB@?$CKppNode?$AA@
CONST	SEGMENT
??_C@_07MGPDHOIB@?$CKppNode?$AA@ DB '*ppNode', 00H	; `string'
CONST	ENDS
;	COMDAT ??_C@_0BK@CHONACEG@m_nOTNodes?5?$DM?5MAX_OT_NODES?$AA@
CONST	SEGMENT
??_C@_0BK@CHONACEG@m_nOTNodes?5?$DM?5MAX_OT_NODES?$AA@ DB 'm_nOTNodes < M'
	DB	'AX_OT_NODES', 00H				; `string'
; Function compile flags: /Odt /RTCsu /ZI
CONST	ENDS
;	COMDAT ?InitOctreeNode@CBoundingBox@@QAEXPAPAU_OTNode@1@@Z
_TEXT	SEGMENT
tv69 = -232
$T85240 = -224
_i$85015 = -20
_this$ = -8
_ppNode$ = 8
?InitOctreeNode@CBoundingBox@@QAEXPAPAU_OTNode@1@@Z PROC NEAR ; CBoundingBox::InitOctreeNode, COMDAT
; _this$ = ecx

; 177  : 	{

  00000	55		 push	 ebp
  00001	8b ec		 mov	 ebp, esp
  00003	81 ec e8 00 00
	00		 sub	 esp, 232		; 000000e8H
  00009	53		 push	 ebx
  0000a	56		 push	 esi
  0000b	57		 push	 edi
  0000c	51		 push	 ecx
  0000d	8d bd 18 ff ff
	ff		 lea	 edi, DWORD PTR [ebp-232]
  00013	b9 3a 00 00 00	 mov	 ecx, 58			; 0000003aH
  00018	b8 cc cc cc cc	 mov	 eax, -858993460		; ccccccccH
  0001d	f3 ab		 rep stosd
  0001f	59		 pop	 ecx
  00020	89 4d f8	 mov	 DWORD PTR _this$[ebp], ecx

; 178  : 		// create new node
; 179  : 		*ppNode = NULL ;

  00023	8b 45 08	 mov	 eax, DWORD PTR _ppNode$[ebp]
  00026	c7 00 00 00 00
	00		 mov	 DWORD PTR [eax], 0

; 180  : 		*ppNode = new _OTNode ; 

  0002c	6a 3c		 push	 60			; 0000003cH
  0002e	e8 00 00 00 00	 call	 ??2@YAPAXI@Z		; operator new
  00033	83 c4 04	 add	 esp, 4
  00036	89 85 20 ff ff
	ff		 mov	 DWORD PTR $T85240[ebp], eax
  0003c	83 bd 20 ff ff
	ff 00		 cmp	 DWORD PTR $T85240[ebp], 0
  00043	74 13		 je	 SHORT $L85241
  00045	8b 8d 20 ff ff
	ff		 mov	 ecx, DWORD PTR $T85240[ebp]
  0004b	e8 00 00 00 00	 call	 ??0_OTNode@CBoundingBox@@QAE@XZ
  00050	89 85 18 ff ff
	ff		 mov	 DWORD PTR tv69[ebp], eax
  00056	eb 0a		 jmp	 SHORT $L85242
$L85241:
  00058	c7 85 18 ff ff
	ff 00 00 00 00	 mov	 DWORD PTR tv69[ebp], 0
$L85242:
  00062	8b 45 08	 mov	 eax, DWORD PTR _ppNode$[ebp]
  00065	8b 8d 18 ff ff
	ff		 mov	 ecx, DWORD PTR tv69[ebp]
  0006b	89 08		 mov	 DWORD PTR [eax], ecx

; 181  : 		assert( *ppNode );

  0006d	8b 45 08	 mov	 eax, DWORD PTR _ppNode$[ebp]
  00070	83 38 00	 cmp	 DWORD PTR [eax], 0
  00073	75 1c		 jne	 SHORT $L85243
  00075	8b 0d 00 00 00
	00		 mov	 ecx, DWORD PTR ?__LINE__Var@?1??InitOctreeNode@CBoundingBox@@QAEXPAPAU_OTNode@2@@Z@4JA
  0007b	83 c1 04	 add	 ecx, 4
  0007e	51		 push	 ecx
  0007f	68 00 00 00 00	 push	 OFFSET FLAT:??_C@_0EO@OLNAAMEJ@c?3?2documents?5and?5settings?2dom?2my@
  00084	68 00 00 00 00	 push	 OFFSET FLAT:??_C@_07MGPDHOIB@?$CKppNode?$AA@
  00089	e8 00 00 00 00	 call	 __assert
  0008e	83 c4 0c	 add	 esp, 12			; 0000000cH
$L85243:

; 182  : 
; 183  : 		(*ppNode)->pTris = NULL ;

  00091	8b 45 08	 mov	 eax, DWORD PTR _ppNode$[ebp]
  00094	8b 08		 mov	 ecx, DWORD PTR [eax]
  00096	c7 41 38 00 00
	00 00		 mov	 DWORD PTR [ecx+56], 0

; 184  : 		m_pOTNodes[m_nOTNodes] = *ppNode ;

  0009d	8b 45 f8	 mov	 eax, DWORD PTR _this$[ebp]
  000a0	8b 88 14 81 00
	00		 mov	 ecx, DWORD PTR [eax+33044]
  000a6	8b 55 f8	 mov	 edx, DWORD PTR _this$[ebp]
  000a9	8b 45 08	 mov	 eax, DWORD PTR _ppNode$[ebp]
  000ac	8b 00		 mov	 eax, DWORD PTR [eax]
  000ae	89 84 8a 14 01
	00 00		 mov	 DWORD PTR [edx+ecx*4+276], eax

; 185  : 		m_dwMem_OT += sizeof(_OTNode) ;

  000b5	8b 45 f8	 mov	 eax, DWORD PTR _this$[ebp]
  000b8	8b 88 0c 01 00
	00		 mov	 ecx, DWORD PTR [eax+268]
  000be	83 c1 3c	 add	 ecx, 60			; 0000003cH
  000c1	8b 55 f8	 mov	 edx, DWORD PTR _this$[ebp]
  000c4	89 8a 0c 01 00
	00		 mov	 DWORD PTR [edx+268], ecx

; 186  : 
; 187  : 		// default it to a terminal node
; 188  : 		for (int i = 0 ; i < 8 ; i ++)

  000ca	c7 45 ec 00 00
	00 00		 mov	 DWORD PTR _i$85015[ebp], 0
  000d1	eb 09		 jmp	 SHORT $L85016
$L85017:
  000d3	8b 45 ec	 mov	 eax, DWORD PTR _i$85015[ebp]
  000d6	83 c0 01	 add	 eax, 1
  000d9	89 45 ec	 mov	 DWORD PTR _i$85015[ebp], eax
$L85016:
  000dc	83 7d ec 08	 cmp	 DWORD PTR _i$85015[ebp], 8
  000e0	7d 11		 jge	 SHORT $L85018

; 189  : 			(*ppNode)->pKids[i] = NULL ;

  000e2	8b 45 08	 mov	 eax, DWORD PTR _ppNode$[ebp]
  000e5	8b 08		 mov	 ecx, DWORD PTR [eax]
  000e7	8b 55 ec	 mov	 edx, DWORD PTR _i$85015[ebp]
  000ea	c7 04 91 00 00
	00 00		 mov	 DWORD PTR [ecx+edx*4], 0
  000f1	eb e0		 jmp	 SHORT $L85017
$L85018:

; 190  : 
; 191  : 		m_nOTNodes ++ ;

  000f3	8b 45 f8	 mov	 eax, DWORD PTR _this$[ebp]
  000f6	8b 88 14 81 00
	00		 mov	 ecx, DWORD PTR [eax+33044]
  000fc	83 c1 01	 add	 ecx, 1
  000ff	8b 55 f8	 mov	 edx, DWORD PTR _this$[ebp]
  00102	89 8a 14 81 00
	00		 mov	 DWORD PTR [edx+33044], ecx

; 192  : 
; 193  : 		assert( m_nOTNodes < MAX_OT_NODES );

  00108	8b 45 f8	 mov	 eax, DWORD PTR _this$[ebp]
  0010b	81 b8 14 81 00
	00 00 20 00 00	 cmp	 DWORD PTR [eax+33044], 8192 ; 00002000H
  00115	7c 1c		 jl	 SHORT $L85007
  00117	8b 0d 00 00 00
	00		 mov	 ecx, DWORD PTR ?__LINE__Var@?1??InitOctreeNode@CBoundingBox@@QAEXPAPAU_OTNode@2@@Z@4JA
  0011d	83 c1 10	 add	 ecx, 16			; 00000010H
  00120	51		 push	 ecx
  00121	68 00 00 00 00	 push	 OFFSET FLAT:??_C@_0EO@OLNAAMEJ@c?3?2documents?5and?5settings?2dom?2my@
  00126	68 00 00 00 00	 push	 OFFSET FLAT:??_C@_0BK@CHONACEG@m_nOTNodes?5?$DM?5MAX_OT_NODES?$AA@
  0012b	e8 00 00 00 00	 call	 __assert
  00130	83 c4 0c	 add	 esp, 12			; 0000000cH
$L85007:

; 194  : 	}

  00133	5f		 pop	 edi
  00134	5e		 pop	 esi
  00135	5b		 pop	 ebx
  00136	81 c4 e8 00 00
	00		 add	 esp, 232		; 000000e8H
  0013c	3b ec		 cmp	 ebp, esp
  0013e	e8 00 00 00 00	 call	 __RTC_CheckEsp
  00143	8b e5		 mov	 esp, ebp
  00145	5d		 pop	 ebp
  00146	c2 04 00	 ret	 4
?InitOctreeNode@CBoundingBox@@QAEXPAPAU_OTNode@1@@Z ENDP ; CBoundingBox::InitOctreeNode
; Function compile flags: /Odt /RTCsu /ZI
_TEXT	ENDS
;	COMDAT ??0_OTNode@CBoundingBox@@QAE@XZ
_TEXT	SEGMENT
_this$ = -8
??0_OTNode@CBoundingBox@@QAE@XZ PROC NEAR		; CBoundingBox::_OTNode::_OTNode, COMDAT
; _this$ = ecx
  00000	55		 push	 ebp
  00001	8b ec		 mov	 ebp, esp
  00003	81 ec cc 00 00
	00		 sub	 esp, 204		; 000000ccH
  00009	53		 push	 ebx
  0000a	56		 push	 esi
  0000b	57		 push	 edi
  0000c	51		 push	 ecx
  0000d	8d bd 34 ff ff
	ff		 lea	 edi, DWORD PTR [ebp-204]
  00013	b9 33 00 00 00	 mov	 ecx, 51			; 00000033H
  00018	b8 cc cc cc cc	 mov	 eax, -858993460		; ccccccccH
  0001d	f3 ab		 rep stosd
  0001f	59		 pop	 ecx
  00020	89 4d f8	 mov	 DWORD PTR _this$[ebp], ecx
  00023	8b 4d f8	 mov	 ecx, DWORD PTR _this$[ebp]
  00026	83 c1 20	 add	 ecx, 32			; 00000020H
  00029	e8 00 00 00 00	 call	 ??0D3DXVECTOR3@@QAE@XZ	; D3DXVECTOR3::D3DXVECTOR3
  0002e	8b 4d f8	 mov	 ecx, DWORD PTR _this$[ebp]
  00031	83 c1 2c	 add	 ecx, 44			; 0000002cH
  00034	e8 00 00 00 00	 call	 ??0D3DXVECTOR3@@QAE@XZ	; D3DXVECTOR3::D3DXVECTOR3
  00039	8b 45 f8	 mov	 eax, DWORD PTR _this$[ebp]
  0003c	5f		 pop	 edi
  0003d	5e		 pop	 esi
  0003e	5b		 pop	 ebx
  0003f	81 c4 cc 00 00
	00		 add	 esp, 204		; 000000ccH
  00045	3b ec		 cmp	 ebp, esp
  00047	e8 00 00 00 00	 call	 __RTC_CheckEsp
  0004c	8b e5		 mov	 esp, ebp
  0004e	5d		 pop	 ebp
  0004f	c3		 ret	 0
??0_OTNode@CBoundingBox@@QAE@XZ ENDP			; CBoundingBox::_OTNode::_OTNode
_TEXT	ENDS
EXTRN	@_RTC_CheckStackVars@8:NEAR
; Function compile flags: /Odt /RTCsu /ZI
;	COMDAT ?RecurseOctree@CBoundingBox@@QAEXHPAU_OTNode@1@@Z
_TEXT	SEGMENT
$T85264 = -564
$T85263 = -544
$T85262 = -524
$T85261 = -504
$T85260 = -484
$T85259 = -464
$T85258 = -444
$T85257 = -424
$T85256 = -404
$T85255 = -384
$T85254 = -364
$T85253 = -344
$T85252 = -324
$T85251 = -304
$T85250 = -284
$T85249 = -264
_i$ = -52
_vCenter$ = -40
_p$ = -20
_this$ = -8
_nSubdivides$ = 8
_pNode$ = 12
?RecurseOctree@CBoundingBox@@QAEXHPAU_OTNode@1@@Z PROC NEAR ; CBoundingBox::RecurseOctree, COMDAT
; _this$ = ecx

; 197  : 	{

  00000	55		 push	 ebp
  00001	8b ec		 mov	 ebp, esp
  00003	81 ec 38 02 00
	00		 sub	 esp, 568		; 00000238H
  00009	53		 push	 ebx
  0000a	56		 push	 esi
  0000b	57		 push	 edi
  0000c	51		 push	 ecx
  0000d	8d bd c8 fd ff
	ff		 lea	 edi, DWORD PTR [ebp-568]
  00013	b9 8e 00 00 00	 mov	 ecx, 142		; 0000008eH
  00018	b8 cc cc cc cc	 mov	 eax, -858993460		; ccccccccH
  0001d	f3 ab		 rep stosd
  0001f	59		 pop	 ecx
  00020	89 4d f8	 mov	 DWORD PTR _this$[ebp], ecx

; 198  : 		_OTNode *p ;
; 199  : 		xVec3 vCenter ;

  00023	8d 4d d8	 lea	 ecx, DWORD PTR _vCenter$[ebp]
  00026	e8 00 00 00 00	 call	 ??0D3DXVECTOR3@@QAE@XZ	; D3DXVECTOR3::D3DXVECTOR3

; 200  : 		int i ;
; 201  : 
; 202  : 		// get the center of the current node
; 203  : 		vCenter.x = (pNode->vMax.x - pNode->vMin.x) / 2 + pNode->vMin.x ;

  0002b	8b 45 0c	 mov	 eax, DWORD PTR _pNode$[ebp]
  0002e	8b 4d 0c	 mov	 ecx, DWORD PTR _pNode$[ebp]
  00031	d9 40 2c	 fld	 DWORD PTR [eax+44]
  00034	d8 61 20	 fsub	 DWORD PTR [ecx+32]
  00037	d8 35 00 00 00
	00		 fdiv	 DWORD PTR __real@40000000
  0003d	8b 55 0c	 mov	 edx, DWORD PTR _pNode$[ebp]
  00040	d8 42 20	 fadd	 DWORD PTR [edx+32]
  00043	d9 5d d8	 fstp	 DWORD PTR _vCenter$[ebp]

; 204  : 		vCenter.y = (pNode->vMax.y - pNode->vMin.y) / 2 + pNode->vMin.y ;

  00046	8b 45 0c	 mov	 eax, DWORD PTR _pNode$[ebp]
  00049	8b 4d 0c	 mov	 ecx, DWORD PTR _pNode$[ebp]
  0004c	d9 40 30	 fld	 DWORD PTR [eax+48]
  0004f	d8 61 24	 fsub	 DWORD PTR [ecx+36]
  00052	d8 35 00 00 00
	00		 fdiv	 DWORD PTR __real@40000000
  00058	8b 55 0c	 mov	 edx, DWORD PTR _pNode$[ebp]
  0005b	d8 42 24	 fadd	 DWORD PTR [edx+36]
  0005e	d9 5d dc	 fstp	 DWORD PTR _vCenter$[ebp+4]

; 205  : 		vCenter.z = (pNode->vMax.z - pNode->vMin.z) / 2 + pNode->vMin.z ;

  00061	8b 45 0c	 mov	 eax, DWORD PTR _pNode$[ebp]
  00064	8b 4d 0c	 mov	 ecx, DWORD PTR _pNode$[ebp]
  00067	d9 40 34	 fld	 DWORD PTR [eax+52]
  0006a	d8 61 28	 fsub	 DWORD PTR [ecx+40]
  0006d	d8 35 00 00 00
	00		 fdiv	 DWORD PTR __real@40000000
  00073	8b 55 0c	 mov	 edx, DWORD PTR _pNode$[ebp]
  00076	d8 42 28	 fadd	 DWORD PTR [edx+40]
  00079	d9 5d e0	 fstp	 DWORD PTR _vCenter$[ebp+8]

; 206  : 
; 207  : 		// build the eight children
; 208  : 		for (i = 0 ; i < 8 ; i ++)

  0007c	c7 45 cc 00 00
	00 00		 mov	 DWORD PTR _i$[ebp], 0
  00083	eb 09		 jmp	 SHORT $L85031
$L85032:
  00085	8b 45 cc	 mov	 eax, DWORD PTR _i$[ebp]
  00088	83 c0 01	 add	 eax, 1
  0008b	89 45 cc	 mov	 DWORD PTR _i$[ebp], eax
$L85031:
  0008e	83 7d cc 08	 cmp	 DWORD PTR _i$[ebp], 8
  00092	7d 14		 jge	 SHORT $L85033

; 209  : 			InitOctreeNode((_OTNode**)&pNode->pKids[i]) ;

  00094	8b 45 cc	 mov	 eax, DWORD PTR _i$[ebp]
  00097	8b 4d 0c	 mov	 ecx, DWORD PTR _pNode$[ebp]
  0009a	8d 14 81	 lea	 edx, DWORD PTR [ecx+eax*4]
  0009d	52		 push	 edx
  0009e	8b 4d f8	 mov	 ecx, DWORD PTR _this$[ebp]
  000a1	e8 00 00 00 00	 call	 ?InitOctreeNode@CBoundingBox@@QAEXPAPAU_OTNode@1@@Z ; CBoundingBox::InitOctreeNode
  000a6	eb dd		 jmp	 SHORT $L85032
$L85033:

; 210  : 
; 211  : 		// populate the children with volume data
; 212  : 		p = (_OTNode*)pNode->pKids[0] ;

  000a8	8b 45 0c	 mov	 eax, DWORD PTR _pNode$[ebp]
  000ab	8b 08		 mov	 ecx, DWORD PTR [eax]
  000ad	89 4d ec	 mov	 DWORD PTR _p$[ebp], ecx

; 213  : 		p->vMin = xVec3(pNode->vMin.x, pNode->vMin.y, pNode->vMin.z) ;	// near bottom left

  000b0	8b 45 0c	 mov	 eax, DWORD PTR _pNode$[ebp]
  000b3	8b 48 28	 mov	 ecx, DWORD PTR [eax+40]
  000b6	51		 push	 ecx
  000b7	8b 55 0c	 mov	 edx, DWORD PTR _pNode$[ebp]
  000ba	8b 42 24	 mov	 eax, DWORD PTR [edx+36]
  000bd	50		 push	 eax
  000be	8b 4d 0c	 mov	 ecx, DWORD PTR _pNode$[ebp]
  000c1	8b 51 20	 mov	 edx, DWORD PTR [ecx+32]
  000c4	52		 push	 edx
  000c5	8d 8d f8 fe ff
	ff		 lea	 ecx, DWORD PTR $T85249[ebp]
  000cb	e8 00 00 00 00	 call	 ??0D3DXVECTOR3@@QAE@MMM@Z ; D3DXVECTOR3::D3DXVECTOR3
  000d0	8b 4d ec	 mov	 ecx, DWORD PTR _p$[ebp]
  000d3	83 c1 20	 add	 ecx, 32			; 00000020H
  000d6	8b 10		 mov	 edx, DWORD PTR [eax]
  000d8	89 11		 mov	 DWORD PTR [ecx], edx
  000da	8b 50 04	 mov	 edx, DWORD PTR [eax+4]
  000dd	89 51 04	 mov	 DWORD PTR [ecx+4], edx
  000e0	8b 40 08	 mov	 eax, DWORD PTR [eax+8]
  000e3	89 41 08	 mov	 DWORD PTR [ecx+8], eax

; 214  : 		p->vMax = xVec3(vCenter.x, vCenter.y, vCenter.z) ; 

  000e6	8b 45 e0	 mov	 eax, DWORD PTR _vCenter$[ebp+8]
  000e9	50		 push	 eax
  000ea	8b 4d dc	 mov	 ecx, DWORD PTR _vCenter$[ebp+4]
  000ed	51		 push	 ecx
  000ee	8b 55 d8	 mov	 edx, DWORD PTR _vCenter$[ebp]
  000f1	52		 push	 edx
  000f2	8d 8d e4 fe ff
	ff		 lea	 ecx, DWORD PTR $T85250[ebp]
  000f8	e8 00 00 00 00	 call	 ??0D3DXVECTOR3@@QAE@MMM@Z ; D3DXVECTOR3::D3DXVECTOR3
  000fd	8b 4d ec	 mov	 ecx, DWORD PTR _p$[ebp]
  00100	83 c1 2c	 add	 ecx, 44			; 0000002cH
  00103	8b 10		 mov	 edx, DWORD PTR [eax]
  00105	89 11		 mov	 DWORD PTR [ecx], edx
  00107	8b 50 04	 mov	 edx, DWORD PTR [eax+4]
  0010a	89 51 04	 mov	 DWORD PTR [ecx+4], edx
  0010d	8b 40 08	 mov	 eax, DWORD PTR [eax+8]
  00110	89 41 08	 mov	 DWORD PTR [ecx+8], eax

; 215  : 			
; 216  : 		p = (_OTNode*)pNode->pKids[1] ;

  00113	8b 45 0c	 mov	 eax, DWORD PTR _pNode$[ebp]
  00116	8b 48 04	 mov	 ecx, DWORD PTR [eax+4]
  00119	89 4d ec	 mov	 DWORD PTR _p$[ebp], ecx

; 217  : 		p->vMin = xVec3(vCenter.x, pNode->vMin.y, pNode->vMin.z) ;		// near bottom right

  0011c	8b 45 0c	 mov	 eax, DWORD PTR _pNode$[ebp]
  0011f	8b 48 28	 mov	 ecx, DWORD PTR [eax+40]
  00122	51		 push	 ecx
  00123	8b 55 0c	 mov	 edx, DWORD PTR _pNode$[ebp]
  00126	8b 42 24	 mov	 eax, DWORD PTR [edx+36]
  00129	50		 push	 eax
  0012a	8b 4d d8	 mov	 ecx, DWORD PTR _vCenter$[ebp]
  0012d	51		 push	 ecx
  0012e	8d 8d d0 fe ff
	ff		 lea	 ecx, DWORD PTR $T85251[ebp]
  00134	e8 00 00 00 00	 call	 ??0D3DXVECTOR3@@QAE@MMM@Z ; D3DXVECTOR3::D3DXVECTOR3
  00139	8b 55 ec	 mov	 edx, DWORD PTR _p$[ebp]
  0013c	83 c2 20	 add	 edx, 32			; 00000020H
  0013f	8b 08		 mov	 ecx, DWORD PTR [eax]
  00141	89 0a		 mov	 DWORD PTR [edx], ecx
  00143	8b 48 04	 mov	 ecx, DWORD PTR [eax+4]
  00146	89 4a 04	 mov	 DWORD PTR [edx+4], ecx
  00149	8b 40 08	 mov	 eax, DWORD PTR [eax+8]
  0014c	89 42 08	 mov	 DWORD PTR [edx+8], eax

; 218  : 		p->vMax = xVec3(pNode->vMax.x, vCenter.y, vCenter.z) ;

  0014f	8b 45 e0	 mov	 eax, DWORD PTR _vCenter$[ebp+8]
  00152	50		 push	 eax
  00153	8b 4d dc	 mov	 ecx, DWORD PTR _vCenter$[ebp+4]
  00156	51		 push	 ecx
  00157	8b 55 0c	 mov	 edx, DWORD PTR _pNode$[ebp]
  0015a	8b 42 2c	 mov	 eax, DWORD PTR [edx+44]
  0015d	50		 push	 eax
  0015e	8d 8d bc fe ff
	ff		 lea	 ecx, DWORD PTR $T85252[ebp]
  00164	e8 00 00 00 00	 call	 ??0D3DXVECTOR3@@QAE@MMM@Z ; D3DXVECTOR3::D3DXVECTOR3
  00169	8b 4d ec	 mov	 ecx, DWORD PTR _p$[ebp]
  0016c	83 c1 2c	 add	 ecx, 44			; 0000002cH
  0016f	8b 10		 mov	 edx, DWORD PTR [eax]
  00171	89 11		 mov	 DWORD PTR [ecx], edx
  00173	8b 50 04	 mov	 edx, DWORD PTR [eax+4]
  00176	89 51 04	 mov	 DWORD PTR [ecx+4], edx
  00179	8b 40 08	 mov	 eax, DWORD PTR [eax+8]
  0017c	89 41 08	 mov	 DWORD PTR [ecx+8], eax

; 219  : 
; 220  : 		p = (_OTNode*)pNode->pKids[2] ;

  0017f	8b 45 0c	 mov	 eax, DWORD PTR _pNode$[ebp]
  00182	8b 48 08	 mov	 ecx, DWORD PTR [eax+8]
  00185	89 4d ec	 mov	 DWORD PTR _p$[ebp], ecx

; 221  : 		p->vMin = xVec3(pNode->vMin.x, vCenter.y, pNode->vMin.z) ;		// near top left

  00188	8b 45 0c	 mov	 eax, DWORD PTR _pNode$[ebp]
  0018b	8b 48 28	 mov	 ecx, DWORD PTR [eax+40]
  0018e	51		 push	 ecx
  0018f	8b 55 dc	 mov	 edx, DWORD PTR _vCenter$[ebp+4]
  00192	52		 push	 edx
  00193	8b 45 0c	 mov	 eax, DWORD PTR _pNode$[ebp]
  00196	8b 48 20	 mov	 ecx, DWORD PTR [eax+32]
  00199	51		 push	 ecx
  0019a	8d 8d a8 fe ff
	ff		 lea	 ecx, DWORD PTR $T85253[ebp]
  001a0	e8 00 00 00 00	 call	 ??0D3DXVECTOR3@@QAE@MMM@Z ; D3DXVECTOR3::D3DXVECTOR3
  001a5	8b 55 ec	 mov	 edx, DWORD PTR _p$[ebp]
  001a8	83 c2 20	 add	 edx, 32			; 00000020H
  001ab	8b 08		 mov	 ecx, DWORD PTR [eax]
  001ad	89 0a		 mov	 DWORD PTR [edx], ecx
  001af	8b 48 04	 mov	 ecx, DWORD PTR [eax+4]
  001b2	89 4a 04	 mov	 DWORD PTR [edx+4], ecx
  001b5	8b 40 08	 mov	 eax, DWORD PTR [eax+8]
  001b8	89 42 08	 mov	 DWORD PTR [edx+8], eax

; 222  : 		p->vMax = xVec3(vCenter.x, pNode->vMax.y, vCenter.z) ;

  001bb	8b 45 e0	 mov	 eax, DWORD PTR _vCenter$[ebp+8]
  001be	50		 push	 eax
  001bf	8b 4d 0c	 mov	 ecx, DWORD PTR _pNode$[ebp]
  001c2	8b 51 30	 mov	 edx, DWORD PTR [ecx+48]
  001c5	52		 push	 edx
  001c6	8b 45 d8	 mov	 eax, DWORD PTR _vCenter$[ebp]
  001c9	50		 push	 eax
  001ca	8d 8d 94 fe ff
	ff		 lea	 ecx, DWORD PTR $T85254[ebp]
  001d0	e8 00 00 00 00	 call	 ??0D3DXVECTOR3@@QAE@MMM@Z ; D3DXVECTOR3::D3DXVECTOR3
  001d5	8b 4d ec	 mov	 ecx, DWORD PTR _p$[ebp]
  001d8	83 c1 2c	 add	 ecx, 44			; 0000002cH
  001db	8b 10		 mov	 edx, DWORD PTR [eax]
  001dd	89 11		 mov	 DWORD PTR [ecx], edx
  001df	8b 50 04	 mov	 edx, DWORD PTR [eax+4]
  001e2	89 51 04	 mov	 DWORD PTR [ecx+4], edx
  001e5	8b 40 08	 mov	 eax, DWORD PTR [eax+8]
  001e8	89 41 08	 mov	 DWORD PTR [ecx+8], eax

; 223  : 
; 224  : 		p = (_OTNode*)pNode->pKids[3];

  001eb	8b 45 0c	 mov	 eax, DWORD PTR _pNode$[ebp]
  001ee	8b 48 0c	 mov	 ecx, DWORD PTR [eax+12]
  001f1	89 4d ec	 mov	 DWORD PTR _p$[ebp], ecx

; 225  : 		p->vMin = xVec3(pNode->vMin.x, vCenter.y, pNode->vMin.z) ;		// near top right

  001f4	8b 45 0c	 mov	 eax, DWORD PTR _pNode$[ebp]
  001f7	8b 48 28	 mov	 ecx, DWORD PTR [eax+40]
  001fa	51		 push	 ecx
  001fb	8b 55 dc	 mov	 edx, DWORD PTR _vCenter$[ebp+4]
  001fe	52		 push	 edx
  001ff	8b 45 0c	 mov	 eax, DWORD PTR _pNode$[ebp]
  00202	8b 48 20	 mov	 ecx, DWORD PTR [eax+32]
  00205	51		 push	 ecx
  00206	8d 8d 80 fe ff
	ff		 lea	 ecx, DWORD PTR $T85255[ebp]
  0020c	e8 00 00 00 00	 call	 ??0D3DXVECTOR3@@QAE@MMM@Z ; D3DXVECTOR3::D3DXVECTOR3
  00211	8b 55 ec	 mov	 edx, DWORD PTR _p$[ebp]
  00214	83 c2 20	 add	 edx, 32			; 00000020H
  00217	8b 08		 mov	 ecx, DWORD PTR [eax]
  00219	89 0a		 mov	 DWORD PTR [edx], ecx
  0021b	8b 48 04	 mov	 ecx, DWORD PTR [eax+4]
  0021e	89 4a 04	 mov	 DWORD PTR [edx+4], ecx
  00221	8b 40 08	 mov	 eax, DWORD PTR [eax+8]
  00224	89 42 08	 mov	 DWORD PTR [edx+8], eax

; 226  : 		p->vMax = xVec3(vCenter.x, pNode->vMax.y, vCenter.z) ;

  00227	8b 45 e0	 mov	 eax, DWORD PTR _vCenter$[ebp+8]
  0022a	50		 push	 eax
  0022b	8b 4d 0c	 mov	 ecx, DWORD PTR _pNode$[ebp]
  0022e	8b 51 30	 mov	 edx, DWORD PTR [ecx+48]
  00231	52		 push	 edx
  00232	8b 45 d8	 mov	 eax, DWORD PTR _vCenter$[ebp]
  00235	50		 push	 eax
  00236	8d 8d 6c fe ff
	ff		 lea	 ecx, DWORD PTR $T85256[ebp]
  0023c	e8 00 00 00 00	 call	 ??0D3DXVECTOR3@@QAE@MMM@Z ; D3DXVECTOR3::D3DXVECTOR3
  00241	8b 4d ec	 mov	 ecx, DWORD PTR _p$[ebp]
  00244	83 c1 2c	 add	 ecx, 44			; 0000002cH
  00247	8b 10		 mov	 edx, DWORD PTR [eax]
  00249	89 11		 mov	 DWORD PTR [ecx], edx
  0024b	8b 50 04	 mov	 edx, DWORD PTR [eax+4]
  0024e	89 51 04	 mov	 DWORD PTR [ecx+4], edx
  00251	8b 40 08	 mov	 eax, DWORD PTR [eax+8]
  00254	89 41 08	 mov	 DWORD PTR [ecx+8], eax

; 227  : 
; 228  : 		p = (_OTNode*)pNode->pKids[4];

  00257	8b 45 0c	 mov	 eax, DWORD PTR _pNode$[ebp]
  0025a	8b 48 10	 mov	 ecx, DWORD PTR [eax+16]
  0025d	89 4d ec	 mov	 DWORD PTR _p$[ebp], ecx

; 229  : 		p->vMin = xVec3(pNode->vMin.x, pNode->vMin.y, vCenter.z) ;		// near bottom left

  00260	8b 45 e0	 mov	 eax, DWORD PTR _vCenter$[ebp+8]
  00263	50		 push	 eax
  00264	8b 4d 0c	 mov	 ecx, DWORD PTR _pNode$[ebp]
  00267	8b 51 24	 mov	 edx, DWORD PTR [ecx+36]
  0026a	52		 push	 edx
  0026b	8b 45 0c	 mov	 eax, DWORD PTR _pNode$[ebp]
  0026e	8b 48 20	 mov	 ecx, DWORD PTR [eax+32]
  00271	51		 push	 ecx
  00272	8d 8d 58 fe ff
	ff		 lea	 ecx, DWORD PTR $T85257[ebp]
  00278	e8 00 00 00 00	 call	 ??0D3DXVECTOR3@@QAE@MMM@Z ; D3DXVECTOR3::D3DXVECTOR3
  0027d	8b 55 ec	 mov	 edx, DWORD PTR _p$[ebp]
  00280	83 c2 20	 add	 edx, 32			; 00000020H
  00283	8b 08		 mov	 ecx, DWORD PTR [eax]
  00285	89 0a		 mov	 DWORD PTR [edx], ecx
  00287	8b 48 04	 mov	 ecx, DWORD PTR [eax+4]
  0028a	89 4a 04	 mov	 DWORD PTR [edx+4], ecx
  0028d	8b 40 08	 mov	 eax, DWORD PTR [eax+8]
  00290	89 42 08	 mov	 DWORD PTR [edx+8], eax

; 230  : 		p->vMax = xVec3(vCenter.x, vCenter.y, pNode->vMax.z) ; 

  00293	8b 45 0c	 mov	 eax, DWORD PTR _pNode$[ebp]
  00296	8b 48 34	 mov	 ecx, DWORD PTR [eax+52]
  00299	51		 push	 ecx
  0029a	8b 55 dc	 mov	 edx, DWORD PTR _vCenter$[ebp+4]
  0029d	52		 push	 edx
  0029e	8b 45 d8	 mov	 eax, DWORD PTR _vCenter$[ebp]
  002a1	50		 push	 eax
  002a2	8d 8d 44 fe ff
	ff		 lea	 ecx, DWORD PTR $T85258[ebp]
  002a8	e8 00 00 00 00	 call	 ??0D3DXVECTOR3@@QAE@MMM@Z ; D3DXVECTOR3::D3DXVECTOR3
  002ad	8b 4d ec	 mov	 ecx, DWORD PTR _p$[ebp]
  002b0	83 c1 2c	 add	 ecx, 44			; 0000002cH
  002b3	8b 10		 mov	 edx, DWORD PTR [eax]
  002b5	89 11		 mov	 DWORD PTR [ecx], edx
  002b7	8b 50 04	 mov	 edx, DWORD PTR [eax+4]
  002ba	89 51 04	 mov	 DWORD PTR [ecx+4], edx
  002bd	8b 40 08	 mov	 eax, DWORD PTR [eax+8]
  002c0	89 41 08	 mov	 DWORD PTR [ecx+8], eax

; 231  : 			
; 232  : 		p = (_OTNode*)pNode->pKids[5] ;

  002c3	8b 45 0c	 mov	 eax, DWORD PTR _pNode$[ebp]
  002c6	8b 48 14	 mov	 ecx, DWORD PTR [eax+20]
  002c9	89 4d ec	 mov	 DWORD PTR _p$[ebp], ecx

; 233  : 		p->vMin = xVec3(vCenter.x, pNode->vMin.y, vCenter.z) ;			// far bottom right

  002cc	8b 45 e0	 mov	 eax, DWORD PTR _vCenter$[ebp+8]
  002cf	50		 push	 eax
  002d0	8b 4d 0c	 mov	 ecx, DWORD PTR _pNode$[ebp]
  002d3	8b 51 24	 mov	 edx, DWORD PTR [ecx+36]
  002d6	52		 push	 edx
  002d7	8b 45 d8	 mov	 eax, DWORD PTR _vCenter$[ebp]
  002da	50		 push	 eax
  002db	8d 8d 30 fe ff
	ff		 lea	 ecx, DWORD PTR $T85259[ebp]
  002e1	e8 00 00 00 00	 call	 ??0D3DXVECTOR3@@QAE@MMM@Z ; D3DXVECTOR3::D3DXVECTOR3
  002e6	8b 4d ec	 mov	 ecx, DWORD PTR _p$[ebp]
  002e9	83 c1 20	 add	 ecx, 32			; 00000020H
  002ec	8b 10		 mov	 edx, DWORD PTR [eax]
  002ee	89 11		 mov	 DWORD PTR [ecx], edx
  002f0	8b 50 04	 mov	 edx, DWORD PTR [eax+4]
  002f3	89 51 04	 mov	 DWORD PTR [ecx+4], edx
  002f6	8b 40 08	 mov	 eax, DWORD PTR [eax+8]
  002f9	89 41 08	 mov	 DWORD PTR [ecx+8], eax

; 234  : 		p->vMax = xVec3(pNode->vMax.x, vCenter.y, pNode->vMax.z) ;

  002fc	8b 45 0c	 mov	 eax, DWORD PTR _pNode$[ebp]
  002ff	8b 48 34	 mov	 ecx, DWORD PTR [eax+52]
  00302	51		 push	 ecx
  00303	8b 55 dc	 mov	 edx, DWORD PTR _vCenter$[ebp+4]
  00306	52		 push	 edx
  00307	8b 45 0c	 mov	 eax, DWORD PTR _pNode$[ebp]
  0030a	8b 48 2c	 mov	 ecx, DWORD PTR [eax+44]
  0030d	51		 push	 ecx
  0030e	8d 8d 1c fe ff
	ff		 lea	 ecx, DWORD PTR $T85260[ebp]
  00314	e8 00 00 00 00	 call	 ??0D3DXVECTOR3@@QAE@MMM@Z ; D3DXVECTOR3::D3DXVECTOR3
  00319	8b 55 ec	 mov	 edx, DWORD PTR _p$[ebp]
  0031c	83 c2 2c	 add	 edx, 44			; 0000002cH
  0031f	8b 08		 mov	 ecx, DWORD PTR [eax]
  00321	89 0a		 mov	 DWORD PTR [edx], ecx
  00323	8b 48 04	 mov	 ecx, DWORD PTR [eax+4]
  00326	89 4a 04	 mov	 DWORD PTR [edx+4], ecx
  00329	8b 40 08	 mov	 eax, DWORD PTR [eax+8]
  0032c	89 42 08	 mov	 DWORD PTR [edx+8], eax

; 235  : 
; 236  : 		p = (_OTNode*)pNode->pKids[6] ;

  0032f	8b 45 0c	 mov	 eax, DWORD PTR _pNode$[ebp]
  00332	8b 48 18	 mov	 ecx, DWORD PTR [eax+24]
  00335	89 4d ec	 mov	 DWORD PTR _p$[ebp], ecx

; 237  : 		p->vMin = xVec3(pNode->vMin.x, vCenter.y, vCenter.z) ;			// far top left

  00338	8b 45 e0	 mov	 eax, DWORD PTR _vCenter$[ebp+8]
  0033b	50		 push	 eax
  0033c	8b 4d dc	 mov	 ecx, DWORD PTR _vCenter$[ebp+4]
  0033f	51		 push	 ecx
  00340	8b 55 0c	 mov	 edx, DWORD PTR _pNode$[ebp]
  00343	8b 42 20	 mov	 eax, DWORD PTR [edx+32]
  00346	50		 push	 eax
  00347	8d 8d 08 fe ff
	ff		 lea	 ecx, DWORD PTR $T85261[ebp]
  0034d	e8 00 00 00 00	 call	 ??0D3DXVECTOR3@@QAE@MMM@Z ; D3DXVECTOR3::D3DXVECTOR3
  00352	8b 4d ec	 mov	 ecx, DWORD PTR _p$[ebp]
  00355	83 c1 20	 add	 ecx, 32			; 00000020H
  00358	8b 10		 mov	 edx, DWORD PTR [eax]
  0035a	89 11		 mov	 DWORD PTR [ecx], edx
  0035c	8b 50 04	 mov	 edx, DWORD PTR [eax+4]
  0035f	89 51 04	 mov	 DWORD PTR [ecx+4], edx
  00362	8b 40 08	 mov	 eax, DWORD PTR [eax+8]
  00365	89 41 08	 mov	 DWORD PTR [ecx+8], eax

; 238  : 		p->vMax = xVec3(vCenter.x, pNode->vMax.y, pNode->vMax.z) ;

  00368	8b 45 0c	 mov	 eax, DWORD PTR _pNode$[ebp]
  0036b	8b 48 34	 mov	 ecx, DWORD PTR [eax+52]
  0036e	51		 push	 ecx
  0036f	8b 55 0c	 mov	 edx, DWORD PTR _pNode$[ebp]
  00372	8b 42 30	 mov	 eax, DWORD PTR [edx+48]
  00375	50		 push	 eax
  00376	8b 4d d8	 mov	 ecx, DWORD PTR _vCenter$[ebp]
  00379	51		 push	 ecx
  0037a	8d 8d f4 fd ff
	ff		 lea	 ecx, DWORD PTR $T85262[ebp]
  00380	e8 00 00 00 00	 call	 ??0D3DXVECTOR3@@QAE@MMM@Z ; D3DXVECTOR3::D3DXVECTOR3
  00385	8b 55 ec	 mov	 edx, DWORD PTR _p$[ebp]
  00388	83 c2 2c	 add	 edx, 44			; 0000002cH
  0038b	8b 08		 mov	 ecx, DWORD PTR [eax]
  0038d	89 0a		 mov	 DWORD PTR [edx], ecx
  0038f	8b 48 04	 mov	 ecx, DWORD PTR [eax+4]
  00392	89 4a 04	 mov	 DWORD PTR [edx+4], ecx
  00395	8b 40 08	 mov	 eax, DWORD PTR [eax+8]
  00398	89 42 08	 mov	 DWORD PTR [edx+8], eax

; 239  : 
; 240  : 		p = (_OTNode*)pNode->pKids[7] ;

  0039b	8b 45 0c	 mov	 eax, DWORD PTR _pNode$[ebp]
  0039e	8b 48 1c	 mov	 ecx, DWORD PTR [eax+28]
  003a1	89 4d ec	 mov	 DWORD PTR _p$[ebp], ecx

; 241  : 		p->vMin = xVec3(pNode->vMin.x, vCenter.y, vCenter.z) ;			// far top right

  003a4	8b 45 e0	 mov	 eax, DWORD PTR _vCenter$[ebp+8]
  003a7	50		 push	 eax
  003a8	8b 4d dc	 mov	 ecx, DWORD PTR _vCenter$[ebp+4]
  003ab	51		 push	 ecx
  003ac	8b 55 0c	 mov	 edx, DWORD PTR _pNode$[ebp]
  003af	8b 42 20	 mov	 eax, DWORD PTR [edx+32]
  003b2	50		 push	 eax
  003b3	8d 8d e0 fd ff
	ff		 lea	 ecx, DWORD PTR $T85263[ebp]
  003b9	e8 00 00 00 00	 call	 ??0D3DXVECTOR3@@QAE@MMM@Z ; D3DXVECTOR3::D3DXVECTOR3
  003be	8b 4d ec	 mov	 ecx, DWORD PTR _p$[ebp]
  003c1	83 c1 20	 add	 ecx, 32			; 00000020H
  003c4	8b 10		 mov	 edx, DWORD PTR [eax]
  003c6	89 11		 mov	 DWORD PTR [ecx], edx
  003c8	8b 50 04	 mov	 edx, DWORD PTR [eax+4]
  003cb	89 51 04	 mov	 DWORD PTR [ecx+4], edx
  003ce	8b 40 08	 mov	 eax, DWORD PTR [eax+8]
  003d1	89 41 08	 mov	 DWORD PTR [ecx+8], eax

; 242  : 		p->vMax = xVec3(vCenter.x, pNode->vMax.y, pNode->vMax.z) ;

  003d4	8b 45 0c	 mov	 eax, DWORD PTR _pNode$[ebp]
  003d7	8b 48 34	 mov	 ecx, DWORD PTR [eax+52]
  003da	51		 push	 ecx
  003db	8b 55 0c	 mov	 edx, DWORD PTR _pNode$[ebp]
  003de	8b 42 30	 mov	 eax, DWORD PTR [edx+48]
  003e1	50		 push	 eax
  003e2	8b 4d d8	 mov	 ecx, DWORD PTR _vCenter$[ebp]
  003e5	51		 push	 ecx
  003e6	8d 8d cc fd ff
	ff		 lea	 ecx, DWORD PTR $T85264[ebp]
  003ec	e8 00 00 00 00	 call	 ??0D3DXVECTOR3@@QAE@MMM@Z ; D3DXVECTOR3::D3DXVECTOR3
  003f1	8b 55 ec	 mov	 edx, DWORD PTR _p$[ebp]
  003f4	83 c2 2c	 add	 edx, 44			; 0000002cH
  003f7	8b 08		 mov	 ecx, DWORD PTR [eax]
  003f9	89 0a		 mov	 DWORD PTR [edx], ecx
  003fb	8b 48 04	 mov	 ecx, DWORD PTR [eax+4]
  003fe	89 4a 04	 mov	 DWORD PTR [edx+4], ecx
  00401	8b 40 08	 mov	 eax, DWORD PTR [eax+8]
  00404	89 42 08	 mov	 DWORD PTR [edx+8], eax

; 243  : 
; 244  : 		// recurse if not at the desired level
; 245  : 		if (nSubdivides > 1)

  00407	83 7d 08 01	 cmp	 DWORD PTR _nSubdivides$[ebp], 1
  0040b	7e 33		 jle	 SHORT $L85027

; 246  : 			for (i = 0 ; i < 8 ; i ++)

  0040d	c7 45 cc 00 00
	00 00		 mov	 DWORD PTR _i$[ebp], 0
  00414	eb 09		 jmp	 SHORT $L85060
$L85061:
  00416	8b 45 cc	 mov	 eax, DWORD PTR _i$[ebp]
  00419	83 c0 01	 add	 eax, 1
  0041c	89 45 cc	 mov	 DWORD PTR _i$[ebp], eax
$L85060:
  0041f	83 7d cc 08	 cmp	 DWORD PTR _i$[ebp], 8
  00423	7d 1b		 jge	 SHORT $L85027

; 247  : 				RecurseOctree(nSubdivides - 1, (_OTNode*)pNode->pKids[i]) ;

  00425	8b 45 cc	 mov	 eax, DWORD PTR _i$[ebp]
  00428	8b 4d 0c	 mov	 ecx, DWORD PTR _pNode$[ebp]
  0042b	8b 14 81	 mov	 edx, DWORD PTR [ecx+eax*4]
  0042e	52		 push	 edx
  0042f	8b 45 08	 mov	 eax, DWORD PTR _nSubdivides$[ebp]
  00432	83 e8 01	 sub	 eax, 1
  00435	50		 push	 eax
  00436	8b 4d f8	 mov	 ecx, DWORD PTR _this$[ebp]
  00439	e8 00 00 00 00	 call	 ?RecurseOctree@CBoundingBox@@QAEXHPAU_OTNode@1@@Z ; CBoundingBox::RecurseOctree
  0043e	eb d6		 jmp	 SHORT $L85061
$L85027:

; 248  : 		else
; 249  : 		// build list of polygons in volume for terminal nodes...
; 250  : 		{
; 251  : 
; 252  : 		}
; 253  : 	}

  00440	52		 push	 edx
  00441	8b cd		 mov	 ecx, ebp
  00443	50		 push	 eax
  00444	8d 15 00 00 00
	00		 lea	 edx, DWORD PTR $L85267
  0044a	e8 00 00 00 00	 call	 @_RTC_CheckStackVars@8
  0044f	58		 pop	 eax
  00450	5a		 pop	 edx
  00451	5f		 pop	 edi
  00452	5e		 pop	 esi
  00453	5b		 pop	 ebx
  00454	81 c4 38 02 00
	00		 add	 esp, 568		; 00000238H
  0045a	3b ec		 cmp	 ebp, esp
  0045c	e8 00 00 00 00	 call	 __RTC_CheckEsp
  00461	8b e5		 mov	 esp, ebp
  00463	5d		 pop	 ebp
  00464	c2 08 00	 ret	 8
$L85267:
  00467	01 00 00 00	 DD	 1
  0046b	00 00 00 00	 DD	 $L85266
$L85266:
  0046f	d8 ff ff ff	 DD	 -40			; ffffffd8H
  00473	0c 00 00 00	 DD	 12			; 0000000cH
  00477	00 00 00 00	 DD	 $L85265
$L85265:
  0047b	76		 DB	 118			; 00000076H
  0047c	43		 DB	 67			; 00000043H
  0047d	65		 DB	 101			; 00000065H
  0047e	6e		 DB	 110			; 0000006eH
  0047f	74		 DB	 116			; 00000074H
  00480	65		 DB	 101			; 00000065H
  00481	72		 DB	 114			; 00000072H
  00482	00		 DB	 0
?RecurseOctree@CBoundingBox@@QAEXHPAU_OTNode@1@@Z ENDP	; CBoundingBox::RecurseOctree
; Function compile flags: /Odt /RTCsu /ZI
; File c:\dxsdk\include\d3dx8math.h
_TEXT	ENDS
;	COMDAT ??0D3DXVECTOR3@@QAE@XZ
_TEXT	SEGMENT
_this$ = -8
??0D3DXVECTOR3@@QAE@XZ PROC NEAR			; D3DXVECTOR3::D3DXVECTOR3, COMDAT
; _this$ = ecx

; 89   :     D3DXVECTOR3() {};

  00000	55		 push	 ebp
  00001	8b ec		 mov	 ebp, esp
  00003	81 ec cc 00 00
	00		 sub	 esp, 204		; 000000ccH
  00009	53		 push	 ebx
  0000a	56		 push	 esi
  0000b	57		 push	 edi
  0000c	51		 push	 ecx
  0000d	8d bd 34 ff ff
	ff		 lea	 edi, DWORD PTR [ebp-204]
  00013	b9 33 00 00 00	 mov	 ecx, 51			; 00000033H
  00018	b8 cc cc cc cc	 mov	 eax, -858993460		; ccccccccH
  0001d	f3 ab		 rep stosd
  0001f	59		 pop	 ecx
  00020	89 4d f8	 mov	 DWORD PTR _this$[ebp], ecx
  00023	8b 45 f8	 mov	 eax, DWORD PTR _this$[ebp]
  00026	5f		 pop	 edi
  00027	5e		 pop	 esi
  00028	5b		 pop	 ebx
  00029	8b e5		 mov	 esp, ebp
  0002b	5d		 pop	 ebp
  0002c	c3		 ret	 0
??0D3DXVECTOR3@@QAE@XZ ENDP				; D3DXVECTOR3::D3DXVECTOR3
; Function compile flags: /Odt /RTCsu /ZI
_TEXT	ENDS
;	COMDAT ??0D3DXMATRIX@@QAE@XZ
_TEXT	SEGMENT
_this$ = -8
??0D3DXMATRIX@@QAE@XZ PROC NEAR				; D3DXMATRIX::D3DXMATRIX, COMDAT
; _this$ = ecx

; 177  :     D3DXMATRIX() {};

  00000	55		 push	 ebp
  00001	8b ec		 mov	 ebp, esp
  00003	81 ec cc 00 00
	00		 sub	 esp, 204		; 000000ccH
  00009	53		 push	 ebx
  0000a	56		 push	 esi
  0000b	57		 push	 edi
  0000c	51		 push	 ecx
  0000d	8d bd 34 ff ff
	ff		 lea	 edi, DWORD PTR [ebp-204]
  00013	b9 33 00 00 00	 mov	 ecx, 51			; 00000033H
  00018	b8 cc cc cc cc	 mov	 eax, -858993460		; ccccccccH
  0001d	f3 ab		 rep stosd
  0001f	59		 pop	 ecx
  00020	89 4d f8	 mov	 DWORD PTR _this$[ebp], ecx
  00023	8b 45 f8	 mov	 eax, DWORD PTR _this$[ebp]
  00026	5f		 pop	 edi
  00027	5e		 pop	 esi
  00028	5b		 pop	 ebx
  00029	8b e5		 mov	 esp, ebp
  0002b	5d		 pop	 ebp
  0002c	c3		 ret	 0
??0D3DXMATRIX@@QAE@XZ ENDP				; D3DXMATRIX::D3DXMATRIX
_TEXT	ENDS
PUBLIC	?ApplyMatrix@CBoundingBox@@QAEXPAUD3DXMATRIX@@@Z ; CBoundingBox::ApplyMatrix
PUBLIC	??0D3DXVECTOR4@@QAE@XZ				; D3DXVECTOR4::D3DXVECTOR4
EXTRN	_D3DXVec3Transform@12:NEAR
EXTRN	_D3DXMatrixMultiply@12:NEAR
; Function compile flags: /Odt /RTCsu /ZI
; File c:\documents and settings\dom\my documents\_dev\ae\xlr8a\x7g\cboundingbox.cpp
;	COMDAT ?ApplyMatrix@CBoundingBox@@QAEXPAUD3DXMATRIX@@@Z
_TEXT	SEGMENT
_i$85070 = -44
_v$ = -32
_this$ = -8
_m$ = 8
?ApplyMatrix@CBoundingBox@@QAEXPAUD3DXMATRIX@@@Z PROC NEAR ; CBoundingBox::ApplyMatrix, COMDAT
; _this$ = ecx

; 261  : 	{

  00000	55		 push	 ebp
  00001	8b ec		 mov	 ebp, esp
  00003	81 ec f0 00 00
	00		 sub	 esp, 240		; 000000f0H
  00009	53		 push	 ebx
  0000a	56		 push	 esi
  0000b	57		 push	 edi
  0000c	51		 push	 ecx
  0000d	8d bd 10 ff ff
	ff		 lea	 edi, DWORD PTR [ebp-240]
  00013	b9 3c 00 00 00	 mov	 ecx, 60			; 0000003cH
  00018	b8 cc cc cc cc	 mov	 eax, -858993460		; ccccccccH
  0001d	f3 ab		 rep stosd
  0001f	59		 pop	 ecx
  00020	89 4d f8	 mov	 DWORD PTR _this$[ebp], ecx

; 262  : 		xVec4 v ;

  00023	8d 4d e0	 lea	 ecx, DWORD PTR _v$[ebp]
  00026	e8 00 00 00 00	 call	 ??0D3DXVECTOR4@@QAE@XZ	; D3DXVECTOR4::D3DXVECTOR4

; 263  : 
; 264  : 	// apply to bounding vertices;
; 265  : 		D3DXVec3Transform( &v, &m_vMin, m );

  0002b	8b 45 08	 mov	 eax, DWORD PTR _m$[ebp]
  0002e	50		 push	 eax
  0002f	8b 4d f8	 mov	 ecx, DWORD PTR _this$[ebp]
  00032	51		 push	 ecx
  00033	8d 55 e0	 lea	 edx, DWORD PTR _v$[ebp]
  00036	52		 push	 edx
  00037	e8 00 00 00 00	 call	 _D3DXVec3Transform@12

; 266  : 		m_vMin.x = v.x ; m_vMin.y = v.y ; m_vMin.z = v.z ;

  0003c	8b 45 f8	 mov	 eax, DWORD PTR _this$[ebp]
  0003f	8b 4d e0	 mov	 ecx, DWORD PTR _v$[ebp]
  00042	89 08		 mov	 DWORD PTR [eax], ecx
  00044	8b 45 f8	 mov	 eax, DWORD PTR _this$[ebp]
  00047	8b 4d e4	 mov	 ecx, DWORD PTR _v$[ebp+4]
  0004a	89 48 04	 mov	 DWORD PTR [eax+4], ecx
  0004d	8b 45 f8	 mov	 eax, DWORD PTR _this$[ebp]
  00050	8b 4d e8	 mov	 ecx, DWORD PTR _v$[ebp+8]
  00053	89 48 08	 mov	 DWORD PTR [eax+8], ecx

; 267  : 
; 268  : 		D3DXVec3Transform( &v, &m_vMax, m );

  00056	8b 45 08	 mov	 eax, DWORD PTR _m$[ebp]
  00059	50		 push	 eax
  0005a	8b 4d f8	 mov	 ecx, DWORD PTR _this$[ebp]
  0005d	83 c1 0c	 add	 ecx, 12			; 0000000cH
  00060	51		 push	 ecx
  00061	8d 55 e0	 lea	 edx, DWORD PTR _v$[ebp]
  00064	52		 push	 edx
  00065	e8 00 00 00 00	 call	 _D3DXVec3Transform@12

; 269  : 		m_vMax.x = v.x ; m_vMax.y = v.y ; m_vMax.z = v.z ;

  0006a	8b 45 f8	 mov	 eax, DWORD PTR _this$[ebp]
  0006d	8b 4d e0	 mov	 ecx, DWORD PTR _v$[ebp]
  00070	89 48 0c	 mov	 DWORD PTR [eax+12], ecx
  00073	8b 45 f8	 mov	 eax, DWORD PTR _this$[ebp]
  00076	8b 4d e4	 mov	 ecx, DWORD PTR _v$[ebp+4]
  00079	89 48 10	 mov	 DWORD PTR [eax+16], ecx
  0007c	8b 45 f8	 mov	 eax, DWORD PTR _this$[ebp]
  0007f	8b 4d e8	 mov	 ecx, DWORD PTR _v$[ebp+8]
  00082	89 48 14	 mov	 DWORD PTR [eax+20], ecx

; 270  : 
; 271  : 		D3DXVec3Transform( &v, &m_vCenter, m );

  00085	8b 45 08	 mov	 eax, DWORD PTR _m$[ebp]
  00088	50		 push	 eax
  00089	8b 4d f8	 mov	 ecx, DWORD PTR _this$[ebp]
  0008c	83 c1 78	 add	 ecx, 120		; 00000078H
  0008f	51		 push	 ecx
  00090	8d 55 e0	 lea	 edx, DWORD PTR _v$[ebp]
  00093	52		 push	 edx
  00094	e8 00 00 00 00	 call	 _D3DXVec3Transform@12

; 272  : 		m_vCenter.x = v.x ; m_vCenter.y = v.y ; m_vCenter.z = v.z ;

  00099	8b 45 f8	 mov	 eax, DWORD PTR _this$[ebp]
  0009c	8b 4d e0	 mov	 ecx, DWORD PTR _v$[ebp]
  0009f	89 48 78	 mov	 DWORD PTR [eax+120], ecx
  000a2	8b 45 f8	 mov	 eax, DWORD PTR _this$[ebp]
  000a5	8b 4d e4	 mov	 ecx, DWORD PTR _v$[ebp+4]
  000a8	89 48 7c	 mov	 DWORD PTR [eax+124], ecx
  000ab	8b 45 f8	 mov	 eax, DWORD PTR _this$[ebp]
  000ae	8b 4d e8	 mov	 ecx, DWORD PTR _v$[ebp+8]
  000b1	89 88 80 00 00
	00		 mov	 DWORD PTR [eax+128], ecx

; 273  : 
; 274  : 		for( int i=0; i<8; i++ )

  000b7	c7 45 d4 00 00
	00 00		 mov	 DWORD PTR _i$85070[ebp], 0
  000be	eb 09		 jmp	 SHORT $L85071
$L85072:
  000c0	8b 45 d4	 mov	 eax, DWORD PTR _i$85070[ebp]
  000c3	83 c0 01	 add	 eax, 1
  000c6	89 45 d4	 mov	 DWORD PTR _i$85070[ebp], eax
$L85071:
  000c9	83 7d d4 08	 cmp	 DWORD PTR _i$85070[ebp], 8
  000cd	7d 4d		 jge	 SHORT $L85073

; 275  : 		{
; 276  : 			D3DXVec3Transform( &v, &m_vVerts[ i ], m );

  000cf	8b 45 08	 mov	 eax, DWORD PTR _m$[ebp]
  000d2	50		 push	 eax
  000d3	8b 4d d4	 mov	 ecx, DWORD PTR _i$85070[ebp]
  000d6	6b c9 0c	 imul	 ecx, 12			; 0000000cH
  000d9	8b 55 f8	 mov	 edx, DWORD PTR _this$[ebp]
  000dc	8d 44 0a 18	 lea	 eax, DWORD PTR [edx+ecx+24]
  000e0	50		 push	 eax
  000e1	8d 4d e0	 lea	 ecx, DWORD PTR _v$[ebp]
  000e4	51		 push	 ecx
  000e5	e8 00 00 00 00	 call	 _D3DXVec3Transform@12

; 277  : 			m_vVerts[ i ].x = v.x ; m_vVerts[ i ].y = v.y ; m_vVerts[ i ].z = v.z ;

  000ea	8b 45 d4	 mov	 eax, DWORD PTR _i$85070[ebp]
  000ed	6b c0 0c	 imul	 eax, 12			; 0000000cH
  000f0	8b 4d f8	 mov	 ecx, DWORD PTR _this$[ebp]
  000f3	8b 55 e0	 mov	 edx, DWORD PTR _v$[ebp]
  000f6	89 54 01 18	 mov	 DWORD PTR [ecx+eax+24], edx
  000fa	8b 45 d4	 mov	 eax, DWORD PTR _i$85070[ebp]
  000fd	6b c0 0c	 imul	 eax, 12			; 0000000cH
  00100	8b 4d f8	 mov	 ecx, DWORD PTR _this$[ebp]
  00103	8b 55 e4	 mov	 edx, DWORD PTR _v$[ebp+4]
  00106	89 54 01 1c	 mov	 DWORD PTR [ecx+eax+28], edx
  0010a	8b 45 d4	 mov	 eax, DWORD PTR _i$85070[ebp]
  0010d	6b c0 0c	 imul	 eax, 12			; 0000000cH
  00110	8b 4d f8	 mov	 ecx, DWORD PTR _this$[ebp]
  00113	8b 55 e8	 mov	 edx, DWORD PTR _v$[ebp+8]
  00116	89 54 01 20	 mov	 DWORD PTR [ecx+eax+32], edx

; 278  : 		}

  0011a	eb a4		 jmp	 SHORT $L85072
$L85073:

; 279  : 
; 280  : //#ifdef _DEBUG
; 281  : 	// apply to world matrix;
; 282  : 		D3DXMatrixMultiply( &m_matWorld, &m_matWorld, m );

  0011c	8b 45 08	 mov	 eax, DWORD PTR _m$[ebp]
  0011f	50		 push	 eax
  00120	8b 4d f8	 mov	 ecx, DWORD PTR _this$[ebp]
  00123	81 c1 1c 81 00
	00		 add	 ecx, 33052		; 0000811cH
  00129	51		 push	 ecx
  0012a	8b 55 f8	 mov	 edx, DWORD PTR _this$[ebp]
  0012d	81 c2 1c 81 00
	00		 add	 edx, 33052		; 0000811cH
  00133	52		 push	 edx
  00134	e8 00 00 00 00	 call	 _D3DXMatrixMultiply@12

; 283  : //#endif
; 284  : 	}

  00139	52		 push	 edx
  0013a	8b cd		 mov	 ecx, ebp
  0013c	50		 push	 eax
  0013d	8d 15 00 00 00
	00		 lea	 edx, DWORD PTR $L85277
  00143	e8 00 00 00 00	 call	 @_RTC_CheckStackVars@8
  00148	58		 pop	 eax
  00149	5a		 pop	 edx
  0014a	5f		 pop	 edi
  0014b	5e		 pop	 esi
  0014c	5b		 pop	 ebx
  0014d	81 c4 f0 00 00
	00		 add	 esp, 240		; 000000f0H
  00153	3b ec		 cmp	 ebp, esp
  00155	e8 00 00 00 00	 call	 __RTC_CheckEsp
  0015a	8b e5		 mov	 esp, ebp
  0015c	5d		 pop	 ebp
  0015d	c2 04 00	 ret	 4
$L85277:
  00160	01 00 00 00	 DD	 1
  00164	00 00 00 00	 DD	 $L85276
$L85276:
  00168	e0 ff ff ff	 DD	 -32			; ffffffe0H
  0016c	10 00 00 00	 DD	 16			; 00000010H
  00170	00 00 00 00	 DD	 $L85275
$L85275:
  00174	76		 DB	 118			; 00000076H
  00175	00		 DB	 0
?ApplyMatrix@CBoundingBox@@QAEXPAUD3DXMATRIX@@@Z ENDP	; CBoundingBox::ApplyMatrix
; Function compile flags: /Odt /RTCsu /ZI
; File c:\dxsdk\include\d3dx8math.h
_TEXT	ENDS
;	COMDAT ??0D3DXVECTOR4@@QAE@XZ
_TEXT	SEGMENT
_this$ = -8
??0D3DXVECTOR4@@QAE@XZ PROC NEAR			; D3DXVECTOR4::D3DXVECTOR4, COMDAT
; _this$ = ecx

; 133  :     D3DXVECTOR4() {};

  00000	55		 push	 ebp
  00001	8b ec		 mov	 ebp, esp
  00003	81 ec cc 00 00
	00		 sub	 esp, 204		; 000000ccH
  00009	53		 push	 ebx
  0000a	56		 push	 esi
  0000b	57		 push	 edi
  0000c	51		 push	 ecx
  0000d	8d bd 34 ff ff
	ff		 lea	 edi, DWORD PTR [ebp-204]
  00013	b9 33 00 00 00	 mov	 ecx, 51			; 00000033H
  00018	b8 cc cc cc cc	 mov	 eax, -858993460		; ccccccccH
  0001d	f3 ab		 rep stosd
  0001f	59		 pop	 ecx
  00020	89 4d f8	 mov	 DWORD PTR _this$[ebp], ecx
  00023	8b 45 f8	 mov	 eax, DWORD PTR _this$[ebp]
  00026	5f		 pop	 edi
  00027	5e		 pop	 esi
  00028	5b		 pop	 ebx
  00029	8b e5		 mov	 esp, ebp
  0002b	5d		 pop	 ebp
  0002c	c3		 ret	 0
??0D3DXVECTOR4@@QAE@XZ ENDP				; D3DXVECTOR4::D3DXVECTOR4
_TEXT	ENDS
PUBLIC	?ApplyMatrixFromInitialValues@CBoundingBox@@QAEXPAUD3DXMATRIX@@@Z ; CBoundingBox::ApplyMatrixFromInitialValues
; Function compile flags: /Odt /RTCsu /ZI
; File c:\documents and settings\dom\my documents\_dev\ae\xlr8a\x7g\cboundingbox.cpp
;	COMDAT ?ApplyMatrixFromInitialValues@CBoundingBox@@QAEXPAUD3DXMATRIX@@@Z
_TEXT	SEGMENT
_i$85079 = -44
_v$ = -32
_this$ = -8
_m$ = 8
?ApplyMatrixFromInitialValues@CBoundingBox@@QAEXPAUD3DXMATRIX@@@Z PROC NEAR ; CBoundingBox::ApplyMatrixFromInitialValues, COMDAT
; _this$ = ecx

; 287  : 	{

  00000	55		 push	 ebp
  00001	8b ec		 mov	 ebp, esp
  00003	81 ec f0 00 00
	00		 sub	 esp, 240		; 000000f0H
  00009	53		 push	 ebx
  0000a	56		 push	 esi
  0000b	57		 push	 edi
  0000c	51		 push	 ecx
  0000d	8d bd 10 ff ff
	ff		 lea	 edi, DWORD PTR [ebp-240]
  00013	b9 3c 00 00 00	 mov	 ecx, 60			; 0000003cH
  00018	b8 cc cc cc cc	 mov	 eax, -858993460		; ccccccccH
  0001d	f3 ab		 rep stosd
  0001f	59		 pop	 ecx
  00020	89 4d f8	 mov	 DWORD PTR _this$[ebp], ecx

; 288  : 		xVec4 v ;

  00023	8d 4d e0	 lea	 ecx, DWORD PTR _v$[ebp]
  00026	e8 00 00 00 00	 call	 ??0D3DXVECTOR4@@QAE@XZ	; D3DXVECTOR4::D3DXVECTOR4

; 289  : 
; 290  : 	// apply to bounding vertices;
; 291  : 		D3DXVec3Transform( &v, &m_vInitialMin, m );

  0002b	8b 45 08	 mov	 eax, DWORD PTR _m$[ebp]
  0002e	50		 push	 eax
  0002f	8b 4d f8	 mov	 ecx, DWORD PTR _this$[ebp]
  00032	81 c1 84 00 00
	00		 add	 ecx, 132		; 00000084H
  00038	51		 push	 ecx
  00039	8d 55 e0	 lea	 edx, DWORD PTR _v$[ebp]
  0003c	52		 push	 edx
  0003d	e8 00 00 00 00	 call	 _D3DXVec3Transform@12

; 292  : 		m_vMin.x = v.x ; m_vMin.y = v.y ; m_vMin.z = v.z ;

  00042	8b 45 f8	 mov	 eax, DWORD PTR _this$[ebp]
  00045	8b 4d e0	 mov	 ecx, DWORD PTR _v$[ebp]
  00048	89 08		 mov	 DWORD PTR [eax], ecx
  0004a	8b 45 f8	 mov	 eax, DWORD PTR _this$[ebp]
  0004d	8b 4d e4	 mov	 ecx, DWORD PTR _v$[ebp+4]
  00050	89 48 04	 mov	 DWORD PTR [eax+4], ecx
  00053	8b 45 f8	 mov	 eax, DWORD PTR _this$[ebp]
  00056	8b 4d e8	 mov	 ecx, DWORD PTR _v$[ebp+8]
  00059	89 48 08	 mov	 DWORD PTR [eax+8], ecx

; 293  : 
; 294  : 		D3DXVec3Transform( &v, &m_vInitialMax, m );

  0005c	8b 45 08	 mov	 eax, DWORD PTR _m$[ebp]
  0005f	50		 push	 eax
  00060	8b 4d f8	 mov	 ecx, DWORD PTR _this$[ebp]
  00063	81 c1 90 00 00
	00		 add	 ecx, 144		; 00000090H
  00069	51		 push	 ecx
  0006a	8d 55 e0	 lea	 edx, DWORD PTR _v$[ebp]
  0006d	52		 push	 edx
  0006e	e8 00 00 00 00	 call	 _D3DXVec3Transform@12

; 295  : 		m_vMax.x = v.x ; m_vMax.y = v.y ; m_vMax.z = v.z ;

  00073	8b 45 f8	 mov	 eax, DWORD PTR _this$[ebp]
  00076	8b 4d e0	 mov	 ecx, DWORD PTR _v$[ebp]
  00079	89 48 0c	 mov	 DWORD PTR [eax+12], ecx
  0007c	8b 45 f8	 mov	 eax, DWORD PTR _this$[ebp]
  0007f	8b 4d e4	 mov	 ecx, DWORD PTR _v$[ebp+4]
  00082	89 48 10	 mov	 DWORD PTR [eax+16], ecx
  00085	8b 45 f8	 mov	 eax, DWORD PTR _this$[ebp]
  00088	8b 4d e8	 mov	 ecx, DWORD PTR _v$[ebp+8]
  0008b	89 48 14	 mov	 DWORD PTR [eax+20], ecx

; 296  : 
; 297  : 		D3DXVec3Transform( &v, &m_vInitialCenter, m );

  0008e	8b 45 08	 mov	 eax, DWORD PTR _m$[ebp]
  00091	50		 push	 eax
  00092	8b 4d f8	 mov	 ecx, DWORD PTR _this$[ebp]
  00095	81 c1 fc 00 00
	00		 add	 ecx, 252		; 000000fcH
  0009b	51		 push	 ecx
  0009c	8d 55 e0	 lea	 edx, DWORD PTR _v$[ebp]
  0009f	52		 push	 edx
  000a0	e8 00 00 00 00	 call	 _D3DXVec3Transform@12

; 298  : 		m_vCenter.x = v.x ; m_vCenter.y = v.y ; m_vCenter.z = v.z ;

  000a5	8b 45 f8	 mov	 eax, DWORD PTR _this$[ebp]
  000a8	8b 4d e0	 mov	 ecx, DWORD PTR _v$[ebp]
  000ab	89 48 78	 mov	 DWORD PTR [eax+120], ecx
  000ae	8b 45 f8	 mov	 eax, DWORD PTR _this$[ebp]
  000b1	8b 4d e4	 mov	 ecx, DWORD PTR _v$[ebp+4]
  000b4	89 48 7c	 mov	 DWORD PTR [eax+124], ecx
  000b7	8b 45 f8	 mov	 eax, DWORD PTR _this$[ebp]
  000ba	8b 4d e8	 mov	 ecx, DWORD PTR _v$[ebp+8]
  000bd	89 88 80 00 00
	00		 mov	 DWORD PTR [eax+128], ecx

; 299  : 
; 300  : 		for( int i=0; i<8; i++ )

  000c3	c7 45 d4 00 00
	00 00		 mov	 DWORD PTR _i$85079[ebp], 0
  000ca	eb 09		 jmp	 SHORT $L85080
$L85081:
  000cc	8b 45 d4	 mov	 eax, DWORD PTR _i$85079[ebp]
  000cf	83 c0 01	 add	 eax, 1
  000d2	89 45 d4	 mov	 DWORD PTR _i$85079[ebp], eax
$L85080:
  000d5	83 7d d4 08	 cmp	 DWORD PTR _i$85079[ebp], 8
  000d9	7d 50		 jge	 SHORT $L85082

; 301  : 		{
; 302  : 			D3DXVec3Transform( &v, &m_vInitialVerts[ i ], m );

  000db	8b 45 08	 mov	 eax, DWORD PTR _m$[ebp]
  000de	50		 push	 eax
  000df	8b 4d d4	 mov	 ecx, DWORD PTR _i$85079[ebp]
  000e2	6b c9 0c	 imul	 ecx, 12			; 0000000cH
  000e5	8b 55 f8	 mov	 edx, DWORD PTR _this$[ebp]
  000e8	8d 84 0a 9c 00
	00 00		 lea	 eax, DWORD PTR [edx+ecx+156]
  000ef	50		 push	 eax
  000f0	8d 4d e0	 lea	 ecx, DWORD PTR _v$[ebp]
  000f3	51		 push	 ecx
  000f4	e8 00 00 00 00	 call	 _D3DXVec3Transform@12

; 303  : 			m_vVerts[ i ].x = v.x ; m_vVerts[ i ].y = v.y ; m_vVerts[ i ].z = v.z ;

  000f9	8b 45 d4	 mov	 eax, DWORD PTR _i$85079[ebp]
  000fc	6b c0 0c	 imul	 eax, 12			; 0000000cH
  000ff	8b 4d f8	 mov	 ecx, DWORD PTR _this$[ebp]
  00102	8b 55 e0	 mov	 edx, DWORD PTR _v$[ebp]
  00105	89 54 01 18	 mov	 DWORD PTR [ecx+eax+24], edx
  00109	8b 45 d4	 mov	 eax, DWORD PTR _i$85079[ebp]
  0010c	6b c0 0c	 imul	 eax, 12			; 0000000cH
  0010f	8b 4d f8	 mov	 ecx, DWORD PTR _this$[ebp]
  00112	8b 55 e4	 mov	 edx, DWORD PTR _v$[ebp+4]
  00115	89 54 01 1c	 mov	 DWORD PTR [ecx+eax+28], edx
  00119	8b 45 d4	 mov	 eax, DWORD PTR _i$85079[ebp]
  0011c	6b c0 0c	 imul	 eax, 12			; 0000000cH
  0011f	8b 4d f8	 mov	 ecx, DWORD PTR _this$[ebp]
  00122	8b 55 e8	 mov	 edx, DWORD PTR _v$[ebp+8]
  00125	89 54 01 20	 mov	 DWORD PTR [ecx+eax+32], edx

; 304  : 		}

  00129	eb a1		 jmp	 SHORT $L85081
$L85082:

; 305  : 
; 306  : //#ifdef _DEBUG
; 307  : 	// apply to world matrix;
; 308  : 		m_matWorld = *m ;

  0012b	8b 75 08	 mov	 esi, DWORD PTR _m$[ebp]
  0012e	8b 7d f8	 mov	 edi, DWORD PTR _this$[ebp]
  00131	81 c7 1c 81 00
	00		 add	 edi, 33052		; 0000811cH
  00137	b9 10 00 00 00	 mov	 ecx, 16			; 00000010H
  0013c	f3 a5		 rep movsd

; 309  : //#endif
; 310  : 	}

  0013e	52		 push	 edx
  0013f	8b cd		 mov	 ecx, ebp
  00141	50		 push	 eax
  00142	8d 15 00 00 00
	00		 lea	 edx, DWORD PTR $L85284
  00148	e8 00 00 00 00	 call	 @_RTC_CheckStackVars@8
  0014d	58		 pop	 eax
  0014e	5a		 pop	 edx
  0014f	5f		 pop	 edi
  00150	5e		 pop	 esi
  00151	5b		 pop	 ebx
  00152	81 c4 f0 00 00
	00		 add	 esp, 240		; 000000f0H
  00158	3b ec		 cmp	 ebp, esp
  0015a	e8 00 00 00 00	 call	 __RTC_CheckEsp
  0015f	8b e5		 mov	 esp, ebp
  00161	5d		 pop	 ebp
  00162	c2 04 00	 ret	 4
$L85284:
  00165	01 00 00 00	 DD	 1
  00169	00 00 00 00	 DD	 $L85283
$L85283:
  0016d	e0 ff ff ff	 DD	 -32			; ffffffe0H
  00171	10 00 00 00	 DD	 16			; 00000010H
  00175	00 00 00 00	 DD	 $L85282
$L85282:
  00179	76		 DB	 118			; 00000076H
  0017a	00		 DB	 0
?ApplyMatrixFromInitialValues@CBoundingBox@@QAEXPAUD3DXMATRIX@@@Z ENDP ; CBoundingBox::ApplyMatrixFromInitialValues
_TEXT	ENDS
PUBLIC	?__LINE__Var@?1??MakeRenderData@CBoundingBox@@QAEJPAUIDirect3DDevice8@@@Z@4JA ; `CBoundingBox::MakeRenderData'::`2'::__LINE__Var
PUBLIC	??_C@_0M@NKNCPJJD@?$CBFAILED?$CIhr?$CJ?$AA@	; `string'
PUBLIC	?MakeRenderData@CBoundingBox@@QAEJPAUIDirect3DDevice8@@@Z ; CBoundingBox::MakeRenderData
EXTRN	_memcpy:NEAR
;	COMDAT ?__LINE__Var@?1??MakeRenderData@CBoundingBox@@QAEJPAUIDirect3DDevice8@@@Z@4JA
_DATA	SEGMENT
?__LINE__Var@?1??MakeRenderData@CBoundingBox@@QAEJPAUIDirect3DDevice8@@@Z@4JA DD 013eH ; `CBoundingBox::MakeRenderData'::`2'::__LINE__Var
_DATA	ENDS
;	COMDAT ??_C@_0M@NKNCPJJD@?$CBFAILED?$CIhr?$CJ?$AA@
CONST	SEGMENT
??_C@_0M@NKNCPJJD@?$CBFAILED?$CIhr?$CJ?$AA@ DB '!FAILED(hr)', 00H ; `string'
; Function compile flags: /Odt /RTCsu /ZI
CONST	ENDS
;	COMDAT ?MakeRenderData@CBoundingBox@@QAEJPAUIDirect3DDevice8@@@Z
_TEXT	SEGMENT
_pIndices$ = -56
_pVerts$ = -44
_iFVFSize$ = -32
_hr$ = -20
_this$ = -8
_pDev$ = 8
?MakeRenderData@CBoundingBox@@QAEJPAUIDirect3DDevice8@@@Z PROC NEAR ; CBoundingBox::MakeRenderData, COMDAT
; _this$ = ecx

; 318  : 	{

  00000	55		 push	 ebp
  00001	8b ec		 mov	 ebp, esp
  00003	81 ec fc 00 00
	00		 sub	 esp, 252		; 000000fcH
  00009	53		 push	 ebx
  0000a	56		 push	 esi
  0000b	57		 push	 edi
  0000c	51		 push	 ecx
  0000d	8d bd 04 ff ff
	ff		 lea	 edi, DWORD PTR [ebp-252]
  00013	b9 3f 00 00 00	 mov	 ecx, 63			; 0000003fH
  00018	b8 cc cc cc cc	 mov	 eax, -858993460		; ccccccccH
  0001d	f3 ab		 rep stosd
  0001f	59		 pop	 ecx
  00020	89 4d f8	 mov	 DWORD PTR _this$[ebp], ecx

; 319  : 	//
; 320  : 	// Create & fill the VB:
; 321  : 	//
; 322  : 		HRESULT hr ;
; 323  : 		UINT iFVFSize = sizeof(COLOREDVERTEX) ;

  00023	c7 45 e0 1c 00
	00 00		 mov	 DWORD PTR _iFVFSize$[ebp], 28 ; 0000001cH

; 324  : 		hr = pDev->CreateVertexBuffer(8 * iFVFSize, D3DUSAGE_WRITEONLY/*D3DUSAGE_SOFTWAREPROCESSING*/, MYFVF_COLOREDVERTEX, D3DPOOL_SYSTEMMEM, &m_pVB) ;

  0002a	8b 45 f8	 mov	 eax, DWORD PTR _this$[ebp]
  0002d	05 cc 82 00 00	 add	 eax, 33484		; 000082ccH
  00032	8b f4		 mov	 esi, esp
  00034	50		 push	 eax
  00035	6a 02		 push	 2
  00037	68 c2 01 00 00	 push	 450			; 000001c2H
  0003c	6a 08		 push	 8
  0003e	8b 4d e0	 mov	 ecx, DWORD PTR _iFVFSize$[ebp]
  00041	c1 e1 03	 shl	 ecx, 3
  00044	51		 push	 ecx
  00045	8b 55 08	 mov	 edx, DWORD PTR _pDev$[ebp]
  00048	8b 02		 mov	 eax, DWORD PTR [edx]
  0004a	8b 4d 08	 mov	 ecx, DWORD PTR _pDev$[ebp]
  0004d	51		 push	 ecx
  0004e	ff 50 5c	 call	 DWORD PTR [eax+92]
  00051	3b f4		 cmp	 esi, esp
  00053	e8 00 00 00 00	 call	 __RTC_CheckEsp
  00058	89 45 ec	 mov	 DWORD PTR _hr$[ebp], eax

; 325  : 		assert( !FAILED(hr) );

  0005b	83 7d ec 00	 cmp	 DWORD PTR _hr$[ebp], 0
  0005f	7d 1b		 jge	 SHORT $L85287
  00061	a1 00 00 00 00	 mov	 eax, DWORD PTR ?__LINE__Var@?1??MakeRenderData@CBoundingBox@@QAEJPAUIDirect3DDevice8@@@Z@4JA
  00066	83 c0 07	 add	 eax, 7
  00069	50		 push	 eax
  0006a	68 00 00 00 00	 push	 OFFSET FLAT:??_C@_0EO@OLNAAMEJ@c?3?2documents?5and?5settings?2dom?2my@
  0006f	68 00 00 00 00	 push	 OFFSET FLAT:??_C@_0M@NKNCPJJD@?$CBFAILED?$CIhr?$CJ?$AA@
  00074	e8 00 00 00 00	 call	 __assert
  00079	83 c4 0c	 add	 esp, 12			; 0000000cH
$L85287:

; 326  : 
; 327  : 		BYTE *pVerts ;
; 328  : 		hr = m_pVB->Lock(0, 0, &pVerts, 0) ;

  0007c	8b f4		 mov	 esi, esp
  0007e	6a 00		 push	 0
  00080	8d 45 d4	 lea	 eax, DWORD PTR _pVerts$[ebp]
  00083	50		 push	 eax
  00084	6a 00		 push	 0
  00086	6a 00		 push	 0
  00088	8b 4d f8	 mov	 ecx, DWORD PTR _this$[ebp]
  0008b	8b 91 cc 82 00
	00		 mov	 edx, DWORD PTR [ecx+33484]
  00091	8b 45 f8	 mov	 eax, DWORD PTR _this$[ebp]
  00094	8b 88 cc 82 00
	00		 mov	 ecx, DWORD PTR [eax+33484]
  0009a	8b 12		 mov	 edx, DWORD PTR [edx]
  0009c	51		 push	 ecx
  0009d	ff 52 2c	 call	 DWORD PTR [edx+44]
  000a0	3b f4		 cmp	 esi, esp
  000a2	e8 00 00 00 00	 call	 __RTC_CheckEsp
  000a7	89 45 ec	 mov	 DWORD PTR _hr$[ebp], eax

; 329  : 		assert( !FAILED(hr) );

  000aa	83 7d ec 00	 cmp	 DWORD PTR _hr$[ebp], 0
  000ae	7d 1b		 jge	 SHORT $L85288
  000b0	a1 00 00 00 00	 mov	 eax, DWORD PTR ?__LINE__Var@?1??MakeRenderData@CBoundingBox@@QAEJPAUIDirect3DDevice8@@@Z@4JA
  000b5	83 c0 0b	 add	 eax, 11			; 0000000bH
  000b8	50		 push	 eax
  000b9	68 00 00 00 00	 push	 OFFSET FLAT:??_C@_0EO@OLNAAMEJ@c?3?2documents?5and?5settings?2dom?2my@
  000be	68 00 00 00 00	 push	 OFFSET FLAT:??_C@_0M@NKNCPJJD@?$CBFAILED?$CIhr?$CJ?$AA@
  000c3	e8 00 00 00 00	 call	 __assert
  000c8	83 c4 0c	 add	 esp, 12			; 0000000cH
$L85288:

; 330  : 
; 331  : 		memcpy(pVerts, m_fvfVerts, sizeof(COLOREDVERTEX) * 8) ;

  000cb	68 e0 00 00 00	 push	 224			; 000000e0H
  000d0	8b 45 f8	 mov	 eax, DWORD PTR _this$[ebp]
  000d3	05 5c 81 00 00	 add	 eax, 33116		; 0000815cH
  000d8	50		 push	 eax
  000d9	8b 4d d4	 mov	 ecx, DWORD PTR _pVerts$[ebp]
  000dc	51		 push	 ecx
  000dd	e8 00 00 00 00	 call	 _memcpy
  000e2	83 c4 0c	 add	 esp, 12			; 0000000cH

; 332  : 		m_dwMem += sizeof(COLOREDVERTEX) * 8 ;

  000e5	8b 45 f8	 mov	 eax, DWORD PTR _this$[ebp]
  000e8	8b 88 08 01 00
	00		 mov	 ecx, DWORD PTR [eax+264]
  000ee	81 c1 e0 00 00
	00		 add	 ecx, 224		; 000000e0H
  000f4	8b 55 f8	 mov	 edx, DWORD PTR _this$[ebp]
  000f7	89 8a 08 01 00
	00		 mov	 DWORD PTR [edx+264], ecx

; 333  : 		m_pVB->Unlock() ;

  000fd	8b 45 f8	 mov	 eax, DWORD PTR _this$[ebp]
  00100	8b 88 cc 82 00
	00		 mov	 ecx, DWORD PTR [eax+33484]
  00106	8b 55 f8	 mov	 edx, DWORD PTR _this$[ebp]
  00109	8b 82 cc 82 00
	00		 mov	 eax, DWORD PTR [edx+33484]
  0010f	8b 09		 mov	 ecx, DWORD PTR [ecx]
  00111	8b f4		 mov	 esi, esp
  00113	50		 push	 eax
  00114	ff 51 30	 call	 DWORD PTR [ecx+48]
  00117	3b f4		 cmp	 esi, esp
  00119	e8 00 00 00 00	 call	 __RTC_CheckEsp

; 334  : 
; 335  : 	//
; 336  : 	// Create & fill the IB:
; 337  : 	//
; 338  : 		hr = pDev->CreateIndexBuffer(sizeof(WORD) * 36, D3DUSAGE_WRITEONLY/*D3DUSAGE_SOFTWAREPROCESSING*/, D3DFMT_INDEX16, D3DPOOL_SYSTEMMEM, &m_pIB) ;

  0011e	8b 45 f8	 mov	 eax, DWORD PTR _this$[ebp]
  00121	05 d4 82 00 00	 add	 eax, 33492		; 000082d4H
  00126	8b f4		 mov	 esi, esp
  00128	50		 push	 eax
  00129	6a 02		 push	 2
  0012b	6a 65		 push	 101			; 00000065H
  0012d	6a 08		 push	 8
  0012f	6a 48		 push	 72			; 00000048H
  00131	8b 4d 08	 mov	 ecx, DWORD PTR _pDev$[ebp]
  00134	8b 11		 mov	 edx, DWORD PTR [ecx]
  00136	8b 45 08	 mov	 eax, DWORD PTR _pDev$[ebp]
  00139	50		 push	 eax
  0013a	ff 52 60	 call	 DWORD PTR [edx+96]
  0013d	3b f4		 cmp	 esi, esp
  0013f	e8 00 00 00 00	 call	 __RTC_CheckEsp
  00144	89 45 ec	 mov	 DWORD PTR _hr$[ebp], eax

; 339  : 		assert( !FAILED(hr) );

  00147	83 7d ec 00	 cmp	 DWORD PTR _hr$[ebp], 0
  0014b	7d 1b		 jge	 SHORT $L85289
  0014d	a1 00 00 00 00	 mov	 eax, DWORD PTR ?__LINE__Var@?1??MakeRenderData@CBoundingBox@@QAEJPAUIDirect3DDevice8@@@Z@4JA
  00152	83 c0 15	 add	 eax, 21			; 00000015H
  00155	50		 push	 eax
  00156	68 00 00 00 00	 push	 OFFSET FLAT:??_C@_0EO@OLNAAMEJ@c?3?2documents?5and?5settings?2dom?2my@
  0015b	68 00 00 00 00	 push	 OFFSET FLAT:??_C@_0M@NKNCPJJD@?$CBFAILED?$CIhr?$CJ?$AA@
  00160	e8 00 00 00 00	 call	 __assert
  00165	83 c4 0c	 add	 esp, 12			; 0000000cH
$L85289:

; 340  : 
; 341  : 		BYTE *pIndices ;
; 342  : 		hr = m_pIB->Lock(0, 0, &pIndices, 0) ;

  00168	8b f4		 mov	 esi, esp
  0016a	6a 00		 push	 0
  0016c	8d 45 c8	 lea	 eax, DWORD PTR _pIndices$[ebp]
  0016f	50		 push	 eax
  00170	6a 00		 push	 0
  00172	6a 00		 push	 0
  00174	8b 4d f8	 mov	 ecx, DWORD PTR _this$[ebp]
  00177	8b 91 d4 82 00
	00		 mov	 edx, DWORD PTR [ecx+33492]
  0017d	8b 45 f8	 mov	 eax, DWORD PTR _this$[ebp]
  00180	8b 88 d4 82 00
	00		 mov	 ecx, DWORD PTR [eax+33492]
  00186	8b 12		 mov	 edx, DWORD PTR [edx]
  00188	51		 push	 ecx
  00189	ff 52 2c	 call	 DWORD PTR [edx+44]
  0018c	3b f4		 cmp	 esi, esp
  0018e	e8 00 00 00 00	 call	 __RTC_CheckEsp
  00193	89 45 ec	 mov	 DWORD PTR _hr$[ebp], eax

; 343  : 		assert( !FAILED(hr) );

  00196	83 7d ec 00	 cmp	 DWORD PTR _hr$[ebp], 0
  0019a	7d 1b		 jge	 SHORT $L85290
  0019c	a1 00 00 00 00	 mov	 eax, DWORD PTR ?__LINE__Var@?1??MakeRenderData@CBoundingBox@@QAEJPAUIDirect3DDevice8@@@Z@4JA
  001a1	83 c0 19	 add	 eax, 25			; 00000019H
  001a4	50		 push	 eax
  001a5	68 00 00 00 00	 push	 OFFSET FLAT:??_C@_0EO@OLNAAMEJ@c?3?2documents?5and?5settings?2dom?2my@
  001aa	68 00 00 00 00	 push	 OFFSET FLAT:??_C@_0M@NKNCPJJD@?$CBFAILED?$CIhr?$CJ?$AA@
  001af	e8 00 00 00 00	 call	 __assert
  001b4	83 c4 0c	 add	 esp, 12			; 0000000cH
$L85290:

; 344  : 
; 345  : 		memcpy(pIndices, m_wIndices, sizeof(WORD) * 36) ;

  001b7	6a 48		 push	 72			; 00000048H
  001b9	8b 45 f8	 mov	 eax, DWORD PTR _this$[ebp]
  001bc	05 3c 82 00 00	 add	 eax, 33340		; 0000823cH
  001c1	50		 push	 eax
  001c2	8b 4d c8	 mov	 ecx, DWORD PTR _pIndices$[ebp]
  001c5	51		 push	 ecx
  001c6	e8 00 00 00 00	 call	 _memcpy
  001cb	83 c4 0c	 add	 esp, 12			; 0000000cH

; 346  : 		m_dwMem += sizeof(WORD) * 36 ;

  001ce	8b 45 f8	 mov	 eax, DWORD PTR _this$[ebp]
  001d1	8b 88 08 01 00
	00		 mov	 ecx, DWORD PTR [eax+264]
  001d7	83 c1 48	 add	 ecx, 72			; 00000048H
  001da	8b 55 f8	 mov	 edx, DWORD PTR _this$[ebp]
  001dd	89 8a 08 01 00
	00		 mov	 DWORD PTR [edx+264], ecx

; 347  : 		m_pIB->Unlock() ;

  001e3	8b 45 f8	 mov	 eax, DWORD PTR _this$[ebp]
  001e6	8b 88 d4 82 00
	00		 mov	 ecx, DWORD PTR [eax+33492]
  001ec	8b 55 f8	 mov	 edx, DWORD PTR _this$[ebp]
  001ef	8b 82 d4 82 00
	00		 mov	 eax, DWORD PTR [edx+33492]
  001f5	8b 09		 mov	 ecx, DWORD PTR [ecx]
  001f7	8b f4		 mov	 esi, esp
  001f9	50		 push	 eax
  001fa	ff 51 30	 call	 DWORD PTR [ecx+48]
  001fd	3b f4		 cmp	 esi, esp
  001ff	e8 00 00 00 00	 call	 __RTC_CheckEsp

; 348  : 
; 349  : 		return S_OK ;

  00204	33 c0		 xor	 eax, eax

; 350  : 	}

  00206	52		 push	 edx
  00207	8b cd		 mov	 ecx, ebp
  00209	50		 push	 eax
  0020a	8d 15 00 00 00
	00		 lea	 edx, DWORD PTR $L85294
  00210	e8 00 00 00 00	 call	 @_RTC_CheckStackVars@8
  00215	58		 pop	 eax
  00216	5a		 pop	 edx
  00217	5f		 pop	 edi
  00218	5e		 pop	 esi
  00219	5b		 pop	 ebx
  0021a	81 c4 fc 00 00
	00		 add	 esp, 252		; 000000fcH
  00220	3b ec		 cmp	 ebp, esp
  00222	e8 00 00 00 00	 call	 __RTC_CheckEsp
  00227	8b e5		 mov	 esp, ebp
  00229	5d		 pop	 ebp
  0022a	c2 04 00	 ret	 4
$L85294:
  0022d	02 00 00 00	 DD	 2
  00231	00 00 00 00	 DD	 $L85293
$L85293:
  00235	d4 ff ff ff	 DD	 -44			; ffffffd4H
  00239	04 00 00 00	 DD	 4
  0023d	00 00 00 00	 DD	 $L85291
  00241	c8 ff ff ff	 DD	 -56			; ffffffc8H
  00245	04 00 00 00	 DD	 4
  00249	00 00 00 00	 DD	 $L85292
$L85292:
  0024d	70		 DB	 112			; 00000070H
  0024e	49		 DB	 73			; 00000049H
  0024f	6e		 DB	 110			; 0000006eH
  00250	64		 DB	 100			; 00000064H
  00251	69		 DB	 105			; 00000069H
  00252	63		 DB	 99			; 00000063H
  00253	65		 DB	 101			; 00000065H
  00254	73		 DB	 115			; 00000073H
  00255	00		 DB	 0
$L85291:
  00256	70		 DB	 112			; 00000070H
  00257	56		 DB	 86			; 00000056H
  00258	65		 DB	 101			; 00000065H
  00259	72		 DB	 114			; 00000072H
  0025a	74		 DB	 116			; 00000074H
  0025b	73		 DB	 115			; 00000073H
  0025c	00		 DB	 0
?MakeRenderData@CBoundingBox@@QAEJPAUIDirect3DDevice8@@@Z ENDP ; CBoundingBox::MakeRenderData
_TEXT	ENDS
PUBLIC	?D3DXVec3Subtract@@YAPAUD3DXVECTOR3@@PAU1@PBU1@1@Z ; D3DXVec3Subtract
PUBLIC	?LineIntersects@CBoundingBox@@QAEHPAUD3DXVECTOR3@@0M@Z ; CBoundingBox::LineIntersects
PUBLIC	??DD3DXVECTOR3@@QBE?AU0@M@Z			; D3DXVECTOR3::operator*
EXTRN	_D3DXVec3Normalize@8:NEAR
EXTRN	_D3DXBoxBoundProbe@16:NEAR
; Function compile flags: /Odt /RTCsu /ZI
;	COMDAT ?LineIntersects@CBoundingBox@@QAEHPAUD3DXVECTOR3@@0M@Z
_TEXT	SEGMENT
$T85297 = -240
_v$ = -28
_this$ = -8
_pvLineStart$ = 8
_pvDir$ = 12
_fDistance$ = 16
?LineIntersects@CBoundingBox@@QAEHPAUD3DXVECTOR3@@0M@Z PROC NEAR ; CBoundingBox::LineIntersects, COMDAT
; _this$ = ecx

; 370  : 	{

  00000	55		 push	 ebp
  00001	8b ec		 mov	 ebp, esp
  00003	81 ec f4 00 00
	00		 sub	 esp, 244		; 000000f4H
  00009	53		 push	 ebx
  0000a	56		 push	 esi
  0000b	57		 push	 edi
  0000c	51		 push	 ecx
  0000d	8d bd 0c ff ff
	ff		 lea	 edi, DWORD PTR [ebp-244]
  00013	b9 3d 00 00 00	 mov	 ecx, 61			; 0000003dH
  00018	b8 cc cc cc cc	 mov	 eax, -858993460		; ccccccccH
  0001d	f3 ab		 rep stosd
  0001f	59		 pop	 ecx
  00020	89 4d f8	 mov	 DWORD PTR _this$[ebp], ecx

; 371  : 		xVec3 v ;

  00023	8d 4d e4	 lea	 ecx, DWORD PTR _v$[ebp]
  00026	e8 00 00 00 00	 call	 ??0D3DXVECTOR3@@QAE@XZ	; D3DXVECTOR3::D3DXVECTOR3

; 372  : 		
; 373  : 		D3DXVec3Subtract(&v, pvDir, pvLineStart) ;

  0002b	8b 45 08	 mov	 eax, DWORD PTR _pvLineStart$[ebp]
  0002e	50		 push	 eax
  0002f	8b 4d 0c	 mov	 ecx, DWORD PTR _pvDir$[ebp]
  00032	51		 push	 ecx
  00033	8d 55 e4	 lea	 edx, DWORD PTR _v$[ebp]
  00036	52		 push	 edx
  00037	e8 00 00 00 00	 call	 ?D3DXVec3Subtract@@YAPAUD3DXVECTOR3@@PAU1@PBU1@1@Z ; D3DXVec3Subtract
  0003c	83 c4 0c	 add	 esp, 12			; 0000000cH

; 374  : 		D3DXVec3Normalize(&v, &v) ;

  0003f	8d 45 e4	 lea	 eax, DWORD PTR _v$[ebp]
  00042	50		 push	 eax
  00043	8d 4d e4	 lea	 ecx, DWORD PTR _v$[ebp]
  00046	51		 push	 ecx
  00047	e8 00 00 00 00	 call	 _D3DXVec3Normalize@8

; 375  : 		v = v * fDistance ;

  0004c	8b 45 10	 mov	 eax, DWORD PTR _fDistance$[ebp]
  0004f	50		 push	 eax
  00050	8d 8d 10 ff ff
	ff		 lea	 ecx, DWORD PTR $T85297[ebp]
  00056	51		 push	 ecx
  00057	8d 4d e4	 lea	 ecx, DWORD PTR _v$[ebp]
  0005a	e8 00 00 00 00	 call	 ??DD3DXVECTOR3@@QBE?AU0@M@Z ; D3DXVECTOR3::operator*
  0005f	8b 10		 mov	 edx, DWORD PTR [eax]
  00061	89 55 e4	 mov	 DWORD PTR _v$[ebp], edx
  00064	8b 48 04	 mov	 ecx, DWORD PTR [eax+4]
  00067	89 4d e8	 mov	 DWORD PTR _v$[ebp+4], ecx
  0006a	8b 50 08	 mov	 edx, DWORD PTR [eax+8]
  0006d	89 55 ec	 mov	 DWORD PTR _v$[ebp+8], edx

; 376  : 		return D3DXBoxBoundProbe(&m_vMin, &m_vMax, pvLineStart, &v) ;

  00070	8d 45 e4	 lea	 eax, DWORD PTR _v$[ebp]
  00073	50		 push	 eax
  00074	8b 4d 08	 mov	 ecx, DWORD PTR _pvLineStart$[ebp]
  00077	51		 push	 ecx
  00078	8b 55 f8	 mov	 edx, DWORD PTR _this$[ebp]
  0007b	83 c2 0c	 add	 edx, 12			; 0000000cH
  0007e	52		 push	 edx
  0007f	8b 45 f8	 mov	 eax, DWORD PTR _this$[ebp]
  00082	50		 push	 eax
  00083	e8 00 00 00 00	 call	 _D3DXBoxBoundProbe@16

; 377  : 	}

  00088	52		 push	 edx
  00089	8b cd		 mov	 ecx, ebp
  0008b	50		 push	 eax
  0008c	8d 15 00 00 00
	00		 lea	 edx, DWORD PTR $L85300
  00092	e8 00 00 00 00	 call	 @_RTC_CheckStackVars@8
  00097	58		 pop	 eax
  00098	5a		 pop	 edx
  00099	5f		 pop	 edi
  0009a	5e		 pop	 esi
  0009b	5b		 pop	 ebx
  0009c	81 c4 f4 00 00
	00		 add	 esp, 244		; 000000f4H
  000a2	3b ec		 cmp	 ebp, esp
  000a4	e8 00 00 00 00	 call	 __RTC_CheckEsp
  000a9	8b e5		 mov	 esp, ebp
  000ab	5d		 pop	 ebp
  000ac	c2 0c 00	 ret	 12			; 0000000cH
$L85300:
  000af	01 00 00 00	 DD	 1
  000b3	00 00 00 00	 DD	 $L85299
$L85299:
  000b7	e4 ff ff ff	 DD	 -28			; ffffffe4H
  000bb	0c 00 00 00	 DD	 12			; 0000000cH
  000bf	00 00 00 00	 DD	 $L85298
$L85298:
  000c3	76		 DB	 118			; 00000076H
  000c4	00		 DB	 0
?LineIntersects@CBoundingBox@@QAEHPAUD3DXVECTOR3@@0M@Z ENDP ; CBoundingBox::LineIntersects
_TEXT	ENDS
PUBLIC	?__LINE__Var@?1??RestoreDeviceObjects@CBoundingBox@@QAEJPAUIDirect3DDevice8@@@Z@4JA ; `CBoundingBox::RestoreDeviceObjects'::`2'::__LINE__Var
PUBLIC	??_C@_08OFPOHIDN@hr?$DN?$DNS_OK?$AA@		; `string'
PUBLIC	?RestoreDeviceObjects@CBoundingBox@@QAEJPAUIDirect3DDevice8@@@Z ; CBoundingBox::RestoreDeviceObjects
;	COMDAT ?__LINE__Var@?1??RestoreDeviceObjects@CBoundingBox@@QAEJPAUIDirect3DDevice8@@@Z@4JA
_DATA	SEGMENT
?__LINE__Var@?1??RestoreDeviceObjects@CBoundingBox@@QAEJPAUIDirect3DDevice8@@@Z@4JA DD 0181H ; `CBoundingBox::RestoreDeviceObjects'::`2'::__LINE__Var
_DATA	ENDS
;	COMDAT ??_C@_08OFPOHIDN@hr?$DN?$DNS_OK?$AA@
CONST	SEGMENT
??_C@_08OFPOHIDN@hr?$DN?$DNS_OK?$AA@ DB 'hr==S_OK', 00H	; `string'
; Function compile flags: /Odt /RTCsu /ZI
CONST	ENDS
;	COMDAT ?RestoreDeviceObjects@CBoundingBox@@QAEJPAUIDirect3DDevice8@@@Z
_TEXT	SEGMENT
_hr$ = -20
_this$ = -8
_pDev$ = 8
?RestoreDeviceObjects@CBoundingBox@@QAEJPAUIDirect3DDevice8@@@Z PROC NEAR ; CBoundingBox::RestoreDeviceObjects, COMDAT
; _this$ = ecx

; 385  : 	{

  00000	55		 push	 ebp
  00001	8b ec		 mov	 ebp, esp
  00003	81 ec d8 00 00
	00		 sub	 esp, 216		; 000000d8H
  00009	53		 push	 ebx
  0000a	56		 push	 esi
  0000b	57		 push	 edi
  0000c	51		 push	 ecx
  0000d	8d bd 28 ff ff
	ff		 lea	 edi, DWORD PTR [ebp-216]
  00013	b9 36 00 00 00	 mov	 ecx, 54			; 00000036H
  00018	b8 cc cc cc cc	 mov	 eax, -858993460		; ccccccccH
  0001d	f3 ab		 rep stosd
  0001f	59		 pop	 ecx
  00020	89 4d f8	 mov	 DWORD PTR _this$[ebp], ecx

; 386  : 		HRESULT hr = S_OK ;

  00023	c7 45 ec 00 00
	00 00		 mov	 DWORD PTR _hr$[ebp], 0

; 387  : #ifdef FULL_DBG_TRACE
; 388  : 		ods( "CBoundingBox::RestoreDeviceObjects\n" );
; 389  : #endif
; 390  : 
; 391  : #ifdef _DEBUG
; 392  : 		hr = MakeRenderData( pDev );

  0002a	8b 45 08	 mov	 eax, DWORD PTR _pDev$[ebp]
  0002d	50		 push	 eax
  0002e	8b 4d f8	 mov	 ecx, DWORD PTR _this$[ebp]
  00031	e8 00 00 00 00	 call	 ?MakeRenderData@CBoundingBox@@QAEJPAUIDirect3DDevice8@@@Z ; CBoundingBox::MakeRenderData
  00036	89 45 ec	 mov	 DWORD PTR _hr$[ebp], eax

; 393  : 		assert( hr==S_OK );

  00039	83 7d ec 00	 cmp	 DWORD PTR _hr$[ebp], 0
  0003d	74 1b		 je	 SHORT $L85303
  0003f	a1 00 00 00 00	 mov	 eax, DWORD PTR ?__LINE__Var@?1??RestoreDeviceObjects@CBoundingBox@@QAEJPAUIDirect3DDevice8@@@Z@4JA
  00044	83 c0 08	 add	 eax, 8
  00047	50		 push	 eax
  00048	68 00 00 00 00	 push	 OFFSET FLAT:??_C@_0EO@OLNAAMEJ@c?3?2documents?5and?5settings?2dom?2my@
  0004d	68 00 00 00 00	 push	 OFFSET FLAT:??_C@_08OFPOHIDN@hr?$DN?$DNS_OK?$AA@
  00052	e8 00 00 00 00	 call	 __assert
  00057	83 c4 0c	 add	 esp, 12			; 0000000cH
$L85303:

; 394  : #endif
; 395  : 
; 396  : 		return hr ;

  0005a	8b 45 ec	 mov	 eax, DWORD PTR _hr$[ebp]

; 397  : 	}

  0005d	5f		 pop	 edi
  0005e	5e		 pop	 esi
  0005f	5b		 pop	 ebx
  00060	81 c4 d8 00 00
	00		 add	 esp, 216		; 000000d8H
  00066	3b ec		 cmp	 ebp, esp
  00068	e8 00 00 00 00	 call	 __RTC_CheckEsp
  0006d	8b e5		 mov	 esp, ebp
  0006f	5d		 pop	 ebp
  00070	c2 04 00	 ret	 4
?RestoreDeviceObjects@CBoundingBox@@QAEJPAUIDirect3DDevice8@@@Z ENDP ; CBoundingBox::RestoreDeviceObjects
_TEXT	ENDS
PUBLIC	?InvalidateDeviceObjects@CBoundingBox@@QAEJXZ	; CBoundingBox::InvalidateDeviceObjects
; Function compile flags: /Odt /RTCsu /ZI
;	COMDAT ?InvalidateDeviceObjects@CBoundingBox@@QAEJXZ
_TEXT	SEGMENT
_this$ = -8
?InvalidateDeviceObjects@CBoundingBox@@QAEJXZ PROC NEAR	; CBoundingBox::InvalidateDeviceObjects, COMDAT
; _this$ = ecx

; 399  : 	{

  00000	55		 push	 ebp
  00001	8b ec		 mov	 ebp, esp
  00003	81 ec cc 00 00
	00		 sub	 esp, 204		; 000000ccH
  00009	53		 push	 ebx
  0000a	56		 push	 esi
  0000b	57		 push	 edi
  0000c	51		 push	 ecx
  0000d	8d bd 34 ff ff
	ff		 lea	 edi, DWORD PTR [ebp-204]
  00013	b9 33 00 00 00	 mov	 ecx, 51			; 00000033H
  00018	b8 cc cc cc cc	 mov	 eax, -858993460		; ccccccccH
  0001d	f3 ab		 rep stosd
  0001f	59		 pop	 ecx
  00020	89 4d f8	 mov	 DWORD PTR _this$[ebp], ecx

; 400  : 
; 401  : #ifdef _DEBUG
; 402  : 		SAFE_RELEASE( m_pMesh )

  00023	8b 45 f8	 mov	 eax, DWORD PTR _this$[ebp]
  00026	83 b8 84 82 00
	00 00		 cmp	 DWORD PTR [eax+33412], 0
  0002d	74 2e		 je	 SHORT $L85129
  0002f	8b 45 f8	 mov	 eax, DWORD PTR _this$[ebp]
  00032	8b 88 84 82 00
	00		 mov	 ecx, DWORD PTR [eax+33412]
  00038	8b 55 f8	 mov	 edx, DWORD PTR _this$[ebp]
  0003b	8b 82 84 82 00
	00		 mov	 eax, DWORD PTR [edx+33412]
  00041	8b 09		 mov	 ecx, DWORD PTR [ecx]
  00043	8b f4		 mov	 esi, esp
  00045	50		 push	 eax
  00046	ff 51 08	 call	 DWORD PTR [ecx+8]
  00049	3b f4		 cmp	 esi, esp
  0004b	e8 00 00 00 00	 call	 __RTC_CheckEsp
  00050	8b 45 f8	 mov	 eax, DWORD PTR _this$[ebp]
  00053	c7 80 84 82 00
	00 00 00 00 00	 mov	 DWORD PTR [eax+33412], 0
$L85129:

; 403  : 		SAFE_RELEASE( m_pVB )

  0005d	8b 45 f8	 mov	 eax, DWORD PTR _this$[ebp]
  00060	83 b8 cc 82 00
	00 00		 cmp	 DWORD PTR [eax+33484], 0
  00067	74 2e		 je	 SHORT $L85130
  00069	8b 45 f8	 mov	 eax, DWORD PTR _this$[ebp]
  0006c	8b 88 cc 82 00
	00		 mov	 ecx, DWORD PTR [eax+33484]
  00072	8b 55 f8	 mov	 edx, DWORD PTR _this$[ebp]
  00075	8b 82 cc 82 00
	00		 mov	 eax, DWORD PTR [edx+33484]
  0007b	8b 09		 mov	 ecx, DWORD PTR [ecx]
  0007d	8b f4		 mov	 esi, esp
  0007f	50		 push	 eax
  00080	ff 51 08	 call	 DWORD PTR [ecx+8]
  00083	3b f4		 cmp	 esi, esp
  00085	e8 00 00 00 00	 call	 __RTC_CheckEsp
  0008a	8b 45 f8	 mov	 eax, DWORD PTR _this$[ebp]
  0008d	c7 80 cc 82 00
	00 00 00 00 00	 mov	 DWORD PTR [eax+33484], 0
$L85130:

; 404  : 		SAFE_RELEASE( m_pIB )

  00097	8b 45 f8	 mov	 eax, DWORD PTR _this$[ebp]
  0009a	83 b8 d4 82 00
	00 00		 cmp	 DWORD PTR [eax+33492], 0
  000a1	74 2e		 je	 SHORT $L85131
  000a3	8b 45 f8	 mov	 eax, DWORD PTR _this$[ebp]
  000a6	8b 88 d4 82 00
	00		 mov	 ecx, DWORD PTR [eax+33492]
  000ac	8b 55 f8	 mov	 edx, DWORD PTR _this$[ebp]
  000af	8b 82 d4 82 00
	00		 mov	 eax, DWORD PTR [edx+33492]
  000b5	8b 09		 mov	 ecx, DWORD PTR [ecx]
  000b7	8b f4		 mov	 esi, esp
  000b9	50		 push	 eax
  000ba	ff 51 08	 call	 DWORD PTR [ecx+8]
  000bd	3b f4		 cmp	 esi, esp
  000bf	e8 00 00 00 00	 call	 __RTC_CheckEsp
  000c4	8b 45 f8	 mov	 eax, DWORD PTR _this$[ebp]
  000c7	c7 80 d4 82 00
	00 00 00 00 00	 mov	 DWORD PTR [eax+33492], 0
$L85131:

; 405  : 		SAFE_RELEASE( m_pVBProcessed )

  000d1	8b 45 f8	 mov	 eax, DWORD PTR _this$[ebp]
  000d4	83 b8 d0 82 00
	00 00		 cmp	 DWORD PTR [eax+33488], 0
  000db	74 2e		 je	 SHORT $L85132
  000dd	8b 45 f8	 mov	 eax, DWORD PTR _this$[ebp]
  000e0	8b 88 d0 82 00
	00		 mov	 ecx, DWORD PTR [eax+33488]
  000e6	8b 55 f8	 mov	 edx, DWORD PTR _this$[ebp]
  000e9	8b 82 d0 82 00
	00		 mov	 eax, DWORD PTR [edx+33488]
  000ef	8b 09		 mov	 ecx, DWORD PTR [ecx]
  000f1	8b f4		 mov	 esi, esp
  000f3	50		 push	 eax
  000f4	ff 51 08	 call	 DWORD PTR [ecx+8]
  000f7	3b f4		 cmp	 esi, esp
  000f9	e8 00 00 00 00	 call	 __RTC_CheckEsp
  000fe	8b 45 f8	 mov	 eax, DWORD PTR _this$[ebp]
  00101	c7 80 d0 82 00
	00 00 00 00 00	 mov	 DWORD PTR [eax+33488], 0
$L85132:

; 406  : #endif
; 407  : 
; 408  : 		return S_OK ;

  0010b	33 c0		 xor	 eax, eax

; 409  : 	}

  0010d	5f		 pop	 edi
  0010e	5e		 pop	 esi
  0010f	5b		 pop	 ebx
  00110	81 c4 cc 00 00
	00		 add	 esp, 204		; 000000ccH
  00116	3b ec		 cmp	 ebp, esp
  00118	e8 00 00 00 00	 call	 __RTC_CheckEsp
  0011d	8b e5		 mov	 esp, ebp
  0011f	5d		 pop	 ebp
  00120	c3		 ret	 0
?InvalidateDeviceObjects@CBoundingBox@@QAEJXZ ENDP	; CBoundingBox::InvalidateDeviceObjects
; Function compile flags: /Odt /RTCsu /ZI
; File c:\dxsdk\include\d3dx8math.inl
_TEXT	ENDS
;	COMDAT ??0D3DXVECTOR3@@QAE@MMM@Z
_TEXT	SEGMENT
_this$ = -8
_fx$ = 8
_fy$ = 12
_fz$ = 16
??0D3DXVECTOR3@@QAE@MMM@Z PROC NEAR			; D3DXVECTOR3::D3DXVECTOR3, COMDAT
; _this$ = ecx

; 179  : {

  00000	55		 push	 ebp
  00001	8b ec		 mov	 ebp, esp
  00003	81 ec cc 00 00
	00		 sub	 esp, 204		; 000000ccH
  00009	53		 push	 ebx
  0000a	56		 push	 esi
  0000b	57		 push	 edi
  0000c	51		 push	 ecx
  0000d	8d bd 34 ff ff
	ff		 lea	 edi, DWORD PTR [ebp-204]
  00013	b9 33 00 00 00	 mov	 ecx, 51			; 00000033H
  00018	b8 cc cc cc cc	 mov	 eax, -858993460		; ccccccccH
  0001d	f3 ab		 rep stosd
  0001f	59		 pop	 ecx
  00020	89 4d f8	 mov	 DWORD PTR _this$[ebp], ecx

; 180  :     x = fx;

  00023	8b 45 f8	 mov	 eax, DWORD PTR _this$[ebp]
  00026	8b 4d 08	 mov	 ecx, DWORD PTR _fx$[ebp]
  00029	89 08		 mov	 DWORD PTR [eax], ecx

; 181  :     y = fy;

  0002b	8b 45 f8	 mov	 eax, DWORD PTR _this$[ebp]
  0002e	8b 4d 0c	 mov	 ecx, DWORD PTR _fy$[ebp]
  00031	89 48 04	 mov	 DWORD PTR [eax+4], ecx

; 182  :     z = fz;

  00034	8b 45 f8	 mov	 eax, DWORD PTR _this$[ebp]
  00037	8b 4d 10	 mov	 ecx, DWORD PTR _fz$[ebp]
  0003a	89 48 08	 mov	 DWORD PTR [eax+8], ecx

; 183  : }

  0003d	8b 45 f8	 mov	 eax, DWORD PTR _this$[ebp]
  00040	5f		 pop	 edi
  00041	5e		 pop	 esi
  00042	5b		 pop	 ebx
  00043	8b e5		 mov	 esp, ebp
  00045	5d		 pop	 ebp
  00046	c2 0c 00	 ret	 12			; 0000000cH
??0D3DXVECTOR3@@QAE@MMM@Z ENDP				; D3DXVECTOR3::D3DXVECTOR3
_TEXT	ENDS
PUBLIC	?Render@CBoundingBox@@QAEJPAUIDirect3DDevice8@@PAKPAUD3DXMATRIX@@@Z ; CBoundingBox::Render
; Function compile flags: /Odt /RTCsu /ZI
; File c:\documents and settings\dom\my documents\_dev\ae\xlr8a\x7g\cboundingbox.cpp
;	COMDAT ?Render@CBoundingBox@@QAEJPAUIDirect3DDevice8@@PAKPAUD3DXMATRIX@@@Z
_TEXT	SEGMENT
_pIB$ = -32
_pVB$ = -20
_this$ = -8
_pDev$ = 8
_pulPolyCount$ = 12
_pmatWorld$ = 16
?Render@CBoundingBox@@QAEJPAUIDirect3DDevice8@@PAKPAUD3DXMATRIX@@@Z PROC NEAR ; CBoundingBox::Render, COMDAT
; _this$ = ecx

; 417  : 	{

  00000	55		 push	 ebp
  00001	8b ec		 mov	 ebp, esp
  00003	81 ec e4 00 00
	00		 sub	 esp, 228		; 000000e4H
  00009	53		 push	 ebx
  0000a	56		 push	 esi
  0000b	57		 push	 edi
  0000c	51		 push	 ecx
  0000d	8d bd 1c ff ff
	ff		 lea	 edi, DWORD PTR [ebp-228]
  00013	b9 39 00 00 00	 mov	 ecx, 57			; 00000039H
  00018	b8 cc cc cc cc	 mov	 eax, -858993460		; ccccccccH
  0001d	f3 ab		 rep stosd
  0001f	59		 pop	 ecx
  00020	89 4d f8	 mov	 DWORD PTR _this$[ebp], ecx

; 418  : #ifdef _DEBUG
; 419  : 		LPDIRECT3DVERTEXBUFFER8 pVB ;
; 420  : 		LPDIRECT3DINDEXBUFFER8 pIB ;
; 421  : 		
; 422  : 		pDev->SetRenderState(D3DRS_LIGHTING, FALSE) ;

  00023	8b f4		 mov	 esi, esp
  00025	6a 00		 push	 0
  00027	68 89 00 00 00	 push	 137			; 00000089H
  0002c	8b 45 08	 mov	 eax, DWORD PTR _pDev$[ebp]
  0002f	8b 08		 mov	 ecx, DWORD PTR [eax]
  00031	8b 55 08	 mov	 edx, DWORD PTR _pDev$[ebp]
  00034	52		 push	 edx
  00035	ff 91 c8 00 00
	00		 call	 DWORD PTR [ecx+200]
  0003b	3b f4		 cmp	 esi, esp
  0003d	e8 00 00 00 00	 call	 __RTC_CheckEsp

; 423  : 		pDev->SetRenderState(D3DRS_CULLMODE, D3DCULL_NONE) ;

  00042	8b f4		 mov	 esi, esp
  00044	6a 01		 push	 1
  00046	6a 16		 push	 22			; 00000016H
  00048	8b 45 08	 mov	 eax, DWORD PTR _pDev$[ebp]
  0004b	8b 08		 mov	 ecx, DWORD PTR [eax]
  0004d	8b 55 08	 mov	 edx, DWORD PTR _pDev$[ebp]
  00050	52		 push	 edx
  00051	ff 91 c8 00 00
	00		 call	 DWORD PTR [ecx+200]
  00057	3b f4		 cmp	 esi, esp
  00059	e8 00 00 00 00	 call	 __RTC_CheckEsp

; 424  : 		pDev->SetRenderState(D3DRS_ALPHABLENDENABLE, TRUE) ;

  0005e	8b f4		 mov	 esi, esp
  00060	6a 01		 push	 1
  00062	6a 1b		 push	 27			; 0000001bH
  00064	8b 45 08	 mov	 eax, DWORD PTR _pDev$[ebp]
  00067	8b 08		 mov	 ecx, DWORD PTR [eax]
  00069	8b 55 08	 mov	 edx, DWORD PTR _pDev$[ebp]
  0006c	52		 push	 edx
  0006d	ff 91 c8 00 00
	00		 call	 DWORD PTR [ecx+200]
  00073	3b f4		 cmp	 esi, esp
  00075	e8 00 00 00 00	 call	 __RTC_CheckEsp

; 425  : 		pDev->SetRenderState(D3DRS_FILLMODE, D3DFILL_SOLID) ;

  0007a	8b f4		 mov	 esi, esp
  0007c	6a 03		 push	 3
  0007e	6a 08		 push	 8
  00080	8b 45 08	 mov	 eax, DWORD PTR _pDev$[ebp]
  00083	8b 08		 mov	 ecx, DWORD PTR [eax]
  00085	8b 55 08	 mov	 edx, DWORD PTR _pDev$[ebp]
  00088	52		 push	 edx
  00089	ff 91 c8 00 00
	00		 call	 DWORD PTR [ecx+200]
  0008f	3b f4		 cmp	 esi, esp
  00091	e8 00 00 00 00	 call	 __RTC_CheckEsp

; 426  : 
; 427  : 		if( pmatWorld )

  00096	83 7d 10 00	 cmp	 DWORD PTR _pmatWorld$[ebp], 0
  0009a	74 23		 je	 SHORT $L85142

; 428  : 			pDev->SetTransform( D3DTS_WORLD, (D3DMATRIX*)pmatWorld );

  0009c	8b f4		 mov	 esi, esp
  0009e	8b 45 10	 mov	 eax, DWORD PTR _pmatWorld$[ebp]
  000a1	50		 push	 eax
  000a2	68 00 01 00 00	 push	 256			; 00000100H
  000a7	8b 4d 08	 mov	 ecx, DWORD PTR _pDev$[ebp]
  000aa	8b 11		 mov	 edx, DWORD PTR [ecx]
  000ac	8b 45 08	 mov	 eax, DWORD PTR _pDev$[ebp]
  000af	50		 push	 eax
  000b0	ff 92 94 00 00
	00		 call	 DWORD PTR [edx+148]
  000b6	3b f4		 cmp	 esi, esp
  000b8	e8 00 00 00 00	 call	 __RTC_CheckEsp

; 429  : 		else

  000bd	eb 26		 jmp	 SHORT $L85145
$L85142:

; 430  : 			pDev->SetTransform( D3DTS_WORLD, &m_matWorld );

  000bf	8b 45 f8	 mov	 eax, DWORD PTR _this$[ebp]
  000c2	05 1c 81 00 00	 add	 eax, 33052		; 0000811cH
  000c7	8b f4		 mov	 esi, esp
  000c9	50		 push	 eax
  000ca	68 00 01 00 00	 push	 256			; 00000100H
  000cf	8b 4d 08	 mov	 ecx, DWORD PTR _pDev$[ebp]
  000d2	8b 11		 mov	 edx, DWORD PTR [ecx]
  000d4	8b 45 08	 mov	 eax, DWORD PTR _pDev$[ebp]
  000d7	50		 push	 eax
  000d8	ff 92 94 00 00
	00		 call	 DWORD PTR [edx+148]
  000de	3b f4		 cmp	 esi, esp
  000e0	e8 00 00 00 00	 call	 __RTC_CheckEsp
$L85145:

; 431  : 
; 432  : 		pVB = m_pVB ;

  000e5	8b 45 f8	 mov	 eax, DWORD PTR _this$[ebp]
  000e8	8b 88 cc 82 00
	00		 mov	 ecx, DWORD PTR [eax+33484]
  000ee	89 4d ec	 mov	 DWORD PTR _pVB$[ebp], ecx

; 433  : 		pIB = m_pIB ;

  000f1	8b 45 f8	 mov	 eax, DWORD PTR _this$[ebp]
  000f4	8b 88 d4 82 00
	00		 mov	 ecx, DWORD PTR [eax+33492]
  000fa	89 4d e0	 mov	 DWORD PTR _pIB$[ebp], ecx

; 434  : 
; 435  : 		pDev->SetStreamSource(0, pVB, sizeof(COLOREDVERTEX)) ;

  000fd	8b f4		 mov	 esi, esp
  000ff	6a 1c		 push	 28			; 0000001cH
  00101	8b 45 ec	 mov	 eax, DWORD PTR _pVB$[ebp]
  00104	50		 push	 eax
  00105	6a 00		 push	 0
  00107	8b 4d 08	 mov	 ecx, DWORD PTR _pDev$[ebp]
  0010a	8b 11		 mov	 edx, DWORD PTR [ecx]
  0010c	8b 45 08	 mov	 eax, DWORD PTR _pDev$[ebp]
  0010f	50		 push	 eax
  00110	ff 92 4c 01 00
	00		 call	 DWORD PTR [edx+332]
  00116	3b f4		 cmp	 esi, esp
  00118	e8 00 00 00 00	 call	 __RTC_CheckEsp

; 436  : 		pDev->SetIndices(pIB, 0) ;

  0011d	8b f4		 mov	 esi, esp
  0011f	6a 00		 push	 0
  00121	8b 45 e0	 mov	 eax, DWORD PTR _pIB$[ebp]
  00124	50		 push	 eax
  00125	8b 4d 08	 mov	 ecx, DWORD PTR _pDev$[ebp]
  00128	8b 11		 mov	 edx, DWORD PTR [ecx]
  0012a	8b 45 08	 mov	 eax, DWORD PTR _pDev$[ebp]
  0012d	50		 push	 eax
  0012e	ff 92 54 01 00
	00		 call	 DWORD PTR [edx+340]
  00134	3b f4		 cmp	 esi, esp
  00136	e8 00 00 00 00	 call	 __RTC_CheckEsp

; 437  : 		pDev->SetVertexShader(MYFVF_COLOREDVERTEX) ;

  0013b	8b f4		 mov	 esi, esp
  0013d	68 c2 01 00 00	 push	 450			; 000001c2H
  00142	8b 45 08	 mov	 eax, DWORD PTR _pDev$[ebp]
  00145	8b 08		 mov	 ecx, DWORD PTR [eax]
  00147	8b 55 08	 mov	 edx, DWORD PTR _pDev$[ebp]
  0014a	52		 push	 edx
  0014b	ff 91 30 01 00
	00		 call	 DWORD PTR [ecx+304]
  00151	3b f4		 cmp	 esi, esp
  00153	e8 00 00 00 00	 call	 __RTC_CheckEsp

; 438  : 		pDev->SetTexture(0, NULL) ;

  00158	8b f4		 mov	 esi, esp
  0015a	6a 00		 push	 0
  0015c	6a 00		 push	 0
  0015e	8b 45 08	 mov	 eax, DWORD PTR _pDev$[ebp]
  00161	8b 08		 mov	 ecx, DWORD PTR [eax]
  00163	8b 55 08	 mov	 edx, DWORD PTR _pDev$[ebp]
  00166	52		 push	 edx
  00167	ff 91 f4 00 00
	00		 call	 DWORD PTR [ecx+244]
  0016d	3b f4		 cmp	 esi, esp
  0016f	e8 00 00 00 00	 call	 __RTC_CheckEsp

; 439  : 		pDev->SetMaterial(&m_Mtrl) ;

  00174	8b 45 f8	 mov	 eax, DWORD PTR _this$[ebp]
  00177	05 88 82 00 00	 add	 eax, 33416		; 00008288H
  0017c	8b f4		 mov	 esi, esp
  0017e	50		 push	 eax
  0017f	8b 4d 08	 mov	 ecx, DWORD PTR _pDev$[ebp]
  00182	8b 11		 mov	 edx, DWORD PTR [ecx]
  00184	8b 45 08	 mov	 eax, DWORD PTR _pDev$[ebp]
  00187	50		 push	 eax
  00188	ff 92 a8 00 00
	00		 call	 DWORD PTR [edx+168]
  0018e	3b f4		 cmp	 esi, esp
  00190	e8 00 00 00 00	 call	 __RTC_CheckEsp

; 440  : 
; 441  : 		SetTextureColorStage(pDev, 0, D3DTA_CURRENT, D3DTOP_SELECTARG1,	D3DTA_CURRENT)

  00195	8b f4		 mov	 esi, esp
  00197	6a 02		 push	 2
  00199	6a 01		 push	 1
  0019b	6a 00		 push	 0
  0019d	8b 45 08	 mov	 eax, DWORD PTR _pDev$[ebp]
  001a0	8b 08		 mov	 ecx, DWORD PTR [eax]
  001a2	8b 55 08	 mov	 edx, DWORD PTR _pDev$[ebp]
  001a5	52		 push	 edx
  001a6	ff 91 fc 00 00
	00		 call	 DWORD PTR [ecx+252]
  001ac	3b f4		 cmp	 esi, esp
  001ae	e8 00 00 00 00	 call	 __RTC_CheckEsp
  001b3	8b f4		 mov	 esi, esp
  001b5	6a 01		 push	 1
  001b7	6a 02		 push	 2
  001b9	6a 00		 push	 0
  001bb	8b 45 08	 mov	 eax, DWORD PTR _pDev$[ebp]
  001be	8b 08		 mov	 ecx, DWORD PTR [eax]
  001c0	8b 55 08	 mov	 edx, DWORD PTR _pDev$[ebp]
  001c3	52		 push	 edx
  001c4	ff 91 fc 00 00
	00		 call	 DWORD PTR [ecx+252]
  001ca	3b f4		 cmp	 esi, esp
  001cc	e8 00 00 00 00	 call	 __RTC_CheckEsp
  001d1	8b f4		 mov	 esi, esp
  001d3	6a 01		 push	 1
  001d5	6a 03		 push	 3
  001d7	6a 00		 push	 0
  001d9	8b 45 08	 mov	 eax, DWORD PTR _pDev$[ebp]
  001dc	8b 08		 mov	 ecx, DWORD PTR [eax]
  001de	8b 55 08	 mov	 edx, DWORD PTR _pDev$[ebp]
  001e1	52		 push	 edx
  001e2	ff 91 fc 00 00
	00		 call	 DWORD PTR [ecx+252]
  001e8	3b f4		 cmp	 esi, esp
  001ea	e8 00 00 00 00	 call	 __RTC_CheckEsp

; 442  : 		SetTextureColorStage(pDev, 1, D3DTA_CURRENT, D3DTOP_DISABLE,	D3DTA_CURRENT)

  001ef	8b f4		 mov	 esi, esp
  001f1	6a 01		 push	 1
  001f3	6a 01		 push	 1
  001f5	6a 01		 push	 1
  001f7	8b 45 08	 mov	 eax, DWORD PTR _pDev$[ebp]
  001fa	8b 08		 mov	 ecx, DWORD PTR [eax]
  001fc	8b 55 08	 mov	 edx, DWORD PTR _pDev$[ebp]
  001ff	52		 push	 edx
  00200	ff 91 fc 00 00
	00		 call	 DWORD PTR [ecx+252]
  00206	3b f4		 cmp	 esi, esp
  00208	e8 00 00 00 00	 call	 __RTC_CheckEsp
  0020d	8b f4		 mov	 esi, esp
  0020f	6a 01		 push	 1
  00211	6a 02		 push	 2
  00213	6a 01		 push	 1
  00215	8b 45 08	 mov	 eax, DWORD PTR _pDev$[ebp]
  00218	8b 08		 mov	 ecx, DWORD PTR [eax]
  0021a	8b 55 08	 mov	 edx, DWORD PTR _pDev$[ebp]
  0021d	52		 push	 edx
  0021e	ff 91 fc 00 00
	00		 call	 DWORD PTR [ecx+252]
  00224	3b f4		 cmp	 esi, esp
  00226	e8 00 00 00 00	 call	 __RTC_CheckEsp
  0022b	8b f4		 mov	 esi, esp
  0022d	6a 01		 push	 1
  0022f	6a 03		 push	 3
  00231	6a 01		 push	 1
  00233	8b 45 08	 mov	 eax, DWORD PTR _pDev$[ebp]
  00236	8b 08		 mov	 ecx, DWORD PTR [eax]
  00238	8b 55 08	 mov	 edx, DWORD PTR _pDev$[ebp]
  0023b	52		 push	 edx
  0023c	ff 91 fc 00 00
	00		 call	 DWORD PTR [ecx+252]
  00242	3b f4		 cmp	 esi, esp
  00244	e8 00 00 00 00	 call	 __RTC_CheckEsp

; 443  : 		
; 444  : 		pDev->DrawIndexedPrimitive(D3DPT_TRIANGLELIST, 0, 8, 0, 12) ;

  00249	8b f4		 mov	 esi, esp
  0024b	6a 0c		 push	 12			; 0000000cH
  0024d	6a 00		 push	 0
  0024f	6a 08		 push	 8
  00251	6a 00		 push	 0
  00253	6a 04		 push	 4
  00255	8b 45 08	 mov	 eax, DWORD PTR _pDev$[ebp]
  00258	8b 08		 mov	 ecx, DWORD PTR [eax]
  0025a	8b 55 08	 mov	 edx, DWORD PTR _pDev$[ebp]
  0025d	52		 push	 edx
  0025e	ff 91 1c 01 00
	00		 call	 DWORD PTR [ecx+284]
  00264	3b f4		 cmp	 esi, esp
  00266	e8 00 00 00 00	 call	 __RTC_CheckEsp

; 445  : 		
; 446  : 		*pulPolyCount += 12 ;

  0026b	8b 45 0c	 mov	 eax, DWORD PTR _pulPolyCount$[ebp]
  0026e	8b 08		 mov	 ecx, DWORD PTR [eax]
  00270	83 c1 0c	 add	 ecx, 12			; 0000000cH
  00273	8b 55 0c	 mov	 edx, DWORD PTR _pulPolyCount$[ebp]
  00276	89 0a		 mov	 DWORD PTR [edx], ecx

; 447  : #endif
; 448  : 
; 449  : 		return S_OK ;

  00278	33 c0		 xor	 eax, eax

; 450  : 	}

  0027a	5f		 pop	 edi
  0027b	5e		 pop	 esi
  0027c	5b		 pop	 ebx
  0027d	81 c4 e4 00 00
	00		 add	 esp, 228		; 000000e4H
  00283	3b ec		 cmp	 ebp, esp
  00285	e8 00 00 00 00	 call	 __RTC_CheckEsp
  0028a	8b e5		 mov	 esp, ebp
  0028c	5d		 pop	 ebp
  0028d	c2 0c 00	 ret	 12			; 0000000cH
?Render@CBoundingBox@@QAEJPAUIDirect3DDevice8@@PAKPAUD3DXMATRIX@@@Z ENDP ; CBoundingBox::Render
; Function compile flags: /Odt /RTCsu /ZI
; File c:\dxsdk\include\d3dx8math.inl
_TEXT	ENDS
;	COMDAT ??DD3DXVECTOR3@@QBE?AU0@M@Z
_TEXT	SEGMENT
_this$ = -8
___$ReturnUdt$ = 8
_f$ = 12
??DD3DXVECTOR3@@QBE?AU0@M@Z PROC NEAR			; D3DXVECTOR3::operator*, COMDAT
; _this$ = ecx

; 268  : {

  00000	55		 push	 ebp
  00001	8b ec		 mov	 ebp, esp
  00003	81 ec cc 00 00
	00		 sub	 esp, 204		; 000000ccH
  00009	53		 push	 ebx
  0000a	56		 push	 esi
  0000b	57		 push	 edi
  0000c	51		 push	 ecx
  0000d	8d bd 34 ff ff
	ff		 lea	 edi, DWORD PTR [ebp-204]
  00013	b9 33 00 00 00	 mov	 ecx, 51			; 00000033H
  00018	b8 cc cc cc cc	 mov	 eax, -858993460		; ccccccccH
  0001d	f3 ab		 rep stosd
  0001f	59		 pop	 ecx
  00020	89 4d f8	 mov	 DWORD PTR _this$[ebp], ecx

; 269  :     return D3DXVECTOR3(x * f, y * f, z * f);

  00023	8b 45 f8	 mov	 eax, DWORD PTR _this$[ebp]
  00026	d9 45 0c	 fld	 DWORD PTR _f$[ebp]
  00029	d8 48 08	 fmul	 DWORD PTR [eax+8]
  0002c	51		 push	 ecx
  0002d	d9 1c 24	 fstp	 DWORD PTR [esp]
  00030	8b 4d f8	 mov	 ecx, DWORD PTR _this$[ebp]
  00033	d9 45 0c	 fld	 DWORD PTR _f$[ebp]
  00036	d8 49 04	 fmul	 DWORD PTR [ecx+4]
  00039	51		 push	 ecx
  0003a	d9 1c 24	 fstp	 DWORD PTR [esp]
  0003d	8b 55 f8	 mov	 edx, DWORD PTR _this$[ebp]
  00040	d9 45 0c	 fld	 DWORD PTR _f$[ebp]
  00043	d8 0a		 fmul	 DWORD PTR [edx]
  00045	51		 push	 ecx
  00046	d9 1c 24	 fstp	 DWORD PTR [esp]
  00049	8b 4d 08	 mov	 ecx, DWORD PTR ___$ReturnUdt$[ebp]
  0004c	e8 00 00 00 00	 call	 ??0D3DXVECTOR3@@QAE@MMM@Z ; D3DXVECTOR3::D3DXVECTOR3
  00051	8b 45 08	 mov	 eax, DWORD PTR ___$ReturnUdt$[ebp]

; 270  : }

  00054	5f		 pop	 edi
  00055	5e		 pop	 esi
  00056	5b		 pop	 ebx
  00057	81 c4 cc 00 00
	00		 add	 esp, 204		; 000000ccH
  0005d	3b ec		 cmp	 ebp, esp
  0005f	e8 00 00 00 00	 call	 __RTC_CheckEsp
  00064	8b e5		 mov	 esp, ebp
  00066	5d		 pop	 ebp
  00067	c2 08 00	 ret	 8
??DD3DXVECTOR3@@QBE?AU0@M@Z ENDP			; D3DXVECTOR3::operator*
; Function compile flags: /Odt /RTCsu /ZI
_TEXT	ENDS
;	COMDAT ?D3DXVec3Subtract@@YAPAUD3DXVECTOR3@@PAU1@PBU1@1@Z
_TEXT	SEGMENT
_pOut$ = 8
_pV1$ = 12
_pV2$ = 16
?D3DXVec3Subtract@@YAPAUD3DXVECTOR3@@PAU1@PBU1@1@Z PROC NEAR ; D3DXVec3Subtract, COMDAT

; 1301 : {

  00000	55		 push	 ebp
  00001	8b ec		 mov	 ebp, esp
  00003	81 ec c0 00 00
	00		 sub	 esp, 192		; 000000c0H
  00009	53		 push	 ebx
  0000a	56		 push	 esi
  0000b	57		 push	 edi
  0000c	8d bd 40 ff ff
	ff		 lea	 edi, DWORD PTR [ebp-192]
  00012	b9 30 00 00 00	 mov	 ecx, 48			; 00000030H
  00017	b8 cc cc cc cc	 mov	 eax, -858993460		; ccccccccH
  0001c	f3 ab		 rep stosd

; 1302 : #ifdef D3DX_DEBUG
; 1303 :     if(!pOut || !pV1 || !pV2)
; 1304 :         return NULL;
; 1305 : #endif
; 1306 : 
; 1307 :     pOut->x = pV1->x - pV2->x;

  0001e	8b 45 0c	 mov	 eax, DWORD PTR _pV1$[ebp]
  00021	8b 4d 10	 mov	 ecx, DWORD PTR _pV2$[ebp]
  00024	d9 00		 fld	 DWORD PTR [eax]
  00026	d8 21		 fsub	 DWORD PTR [ecx]
  00028	8b 55 08	 mov	 edx, DWORD PTR _pOut$[ebp]
  0002b	d9 1a		 fstp	 DWORD PTR [edx]

; 1308 :     pOut->y = pV1->y - pV2->y;

  0002d	8b 45 0c	 mov	 eax, DWORD PTR _pV1$[ebp]
  00030	8b 4d 10	 mov	 ecx, DWORD PTR _pV2$[ebp]
  00033	d9 40 04	 fld	 DWORD PTR [eax+4]
  00036	d8 61 04	 fsub	 DWORD PTR [ecx+4]
  00039	8b 55 08	 mov	 edx, DWORD PTR _pOut$[ebp]
  0003c	d9 5a 04	 fstp	 DWORD PTR [edx+4]

; 1309 :     pOut->z = pV1->z - pV2->z;

  0003f	8b 45 0c	 mov	 eax, DWORD PTR _pV1$[ebp]
  00042	8b 4d 10	 mov	 ecx, DWORD PTR _pV2$[ebp]
  00045	d9 40 08	 fld	 DWORD PTR [eax+8]
  00048	d8 61 08	 fsub	 DWORD PTR [ecx+8]
  0004b	8b 55 08	 mov	 edx, DWORD PTR _pOut$[ebp]
  0004e	d9 5a 08	 fstp	 DWORD PTR [edx+8]

; 1310 :     return pOut;

  00051	8b 45 08	 mov	 eax, DWORD PTR _pOut$[ebp]

; 1311 : }

  00054	5f		 pop	 edi
  00055	5e		 pop	 esi
  00056	5b		 pop	 ebx
  00057	8b e5		 mov	 esp, ebp
  00059	5d		 pop	 ebp
  0005a	c3		 ret	 0
?D3DXVec3Subtract@@YAPAUD3DXVECTOR3@@PAU1@PBU1@1@Z ENDP	; D3DXVec3Subtract
; Function compile flags: /Odt /RTCsu /ZI
; File c:\documents and settings\dom\my documents\_dev\ae\xlr8a\x7g\x7_primitives.h
_TEXT	ENDS
;	COMDAT ??0COLOREDVERTEX@@QAE@XZ
_TEXT	SEGMENT
_this$ = -8
??0COLOREDVERTEX@@QAE@XZ PROC NEAR			; COLOREDVERTEX::COLOREDVERTEX, COMDAT
; _this$ = ecx

; 222  :     COLOREDVERTEX() {} ;

  00000	55		 push	 ebp
  00001	8b ec		 mov	 ebp, esp
  00003	81 ec cc 00 00
	00		 sub	 esp, 204		; 000000ccH
  00009	53		 push	 ebx
  0000a	56		 push	 esi
  0000b	57		 push	 edi
  0000c	51		 push	 ecx
  0000d	8d bd 34 ff ff
	ff		 lea	 edi, DWORD PTR [ebp-204]
  00013	b9 33 00 00 00	 mov	 ecx, 51			; 00000033H
  00018	b8 cc cc cc cc	 mov	 eax, -858993460		; ccccccccH
  0001d	f3 ab		 rep stosd
  0001f	59		 pop	 ecx
  00020	89 4d f8	 mov	 DWORD PTR _this$[ebp], ecx
  00023	8b 45 f8	 mov	 eax, DWORD PTR _this$[ebp]
  00026	5f		 pop	 edi
  00027	5e		 pop	 esi
  00028	5b		 pop	 ebx
  00029	8b e5		 mov	 esp, ebp
  0002b	5d		 pop	 ebp
  0002c	c3		 ret	 0
??0COLOREDVERTEX@@QAE@XZ ENDP				; COLOREDVERTEX::COLOREDVERTEX
; Function compile flags: /Odt /RTCsu /ZI
_TEXT	ENDS
;	COMDAT ??0COLOREDVERTEX@@QAE@MMMMMKK@Z
_TEXT	SEGMENT
_this$ = -8
___x$ = 8
___y$ = 12
___z$ = 16
___tu1$ = 20
___tv1$ = 24
_c$ = 28
_s$ = 32
??0COLOREDVERTEX@@QAE@MMMMMKK@Z PROC NEAR		; COLOREDVERTEX::COLOREDVERTEX, COMDAT
; _this$ = ecx

; 229  :     COLOREDVERTEX(FLOAT __x, FLOAT __y, FLOAT __z, FLOAT __tu1, FLOAT __tv1, DWORD c, DWORD s)

  00000	55		 push	 ebp
  00001	8b ec		 mov	 ebp, esp
  00003	81 ec cc 00 00
	00		 sub	 esp, 204		; 000000ccH
  00009	53		 push	 ebx
  0000a	56		 push	 esi
  0000b	57		 push	 edi
  0000c	51		 push	 ecx
  0000d	8d bd 34 ff ff
	ff		 lea	 edi, DWORD PTR [ebp-204]
  00013	b9 33 00 00 00	 mov	 ecx, 51			; 00000033H
  00018	b8 cc cc cc cc	 mov	 eax, -858993460		; ccccccccH
  0001d	f3 ab		 rep stosd
  0001f	59		 pop	 ecx
  00020	89 4d f8	 mov	 DWORD PTR _this$[ebp], ecx

; 230  : 	{
; 231  : 		x = __x; y = __y; z = __z;

  00023	8b 45 f8	 mov	 eax, DWORD PTR _this$[ebp]
  00026	8b 4d 08	 mov	 ecx, DWORD PTR ___x$[ebp]
  00029	89 08		 mov	 DWORD PTR [eax], ecx
  0002b	8b 45 f8	 mov	 eax, DWORD PTR _this$[ebp]
  0002e	8b 4d 0c	 mov	 ecx, DWORD PTR ___y$[ebp]
  00031	89 48 04	 mov	 DWORD PTR [eax+4], ecx
  00034	8b 45 f8	 mov	 eax, DWORD PTR _this$[ebp]
  00037	8b 4d 10	 mov	 ecx, DWORD PTR ___z$[ebp]
  0003a	89 48 08	 mov	 DWORD PTR [eax+8], ecx

; 232  : 		tu1 = __tu1 ; tv1 = __tv1 ;

  0003d	8b 45 f8	 mov	 eax, DWORD PTR _this$[ebp]
  00040	8b 4d 14	 mov	 ecx, DWORD PTR ___tu1$[ebp]
  00043	89 48 14	 mov	 DWORD PTR [eax+20], ecx
  00046	8b 45 f8	 mov	 eax, DWORD PTR _this$[ebp]
  00049	8b 4d 18	 mov	 ecx, DWORD PTR ___tv1$[ebp]
  0004c	89 48 18	 mov	 DWORD PTR [eax+24], ecx

; 233  : 		color = c ;

  0004f	8b 45 f8	 mov	 eax, DWORD PTR _this$[ebp]
  00052	8b 4d 1c	 mov	 ecx, DWORD PTR _c$[ebp]
  00055	89 48 0c	 mov	 DWORD PTR [eax+12], ecx

; 234  : 		specular = s ;

  00058	8b 45 f8	 mov	 eax, DWORD PTR _this$[ebp]
  0005b	8b 4d 20	 mov	 ecx, DWORD PTR _s$[ebp]
  0005e	89 48 10	 mov	 DWORD PTR [eax+16], ecx

; 235  : 	}

  00061	8b 45 f8	 mov	 eax, DWORD PTR _this$[ebp]
  00064	5f		 pop	 edi
  00065	5e		 pop	 esi
  00066	5b		 pop	 ebx
  00067	8b e5		 mov	 esp, ebp
  00069	5d		 pop	 ebp
  0006a	c2 1c 00	 ret	 28			; 0000001cH
??0COLOREDVERTEX@@QAE@MMMMMKK@Z ENDP			; COLOREDVERTEX::COLOREDVERTEX
_TEXT	ENDS
END
