; Listing generated by Microsoft (R) Optimizing Compiler Version 13.00.9466 

	TITLE	CCamera.cpp
	.386P
include listing.inc
if @Version gt 510
.model FLAT
else
_TEXT	SEGMENT PARA USE32 PUBLIC 'CODE'
_TEXT	ENDS
_DATA	SEGMENT DWORD USE32 PUBLIC 'DATA'
_DATA	ENDS
CONST	SEGMENT DWORD USE32 PUBLIC 'CONST'
CONST	ENDS
_BSS	SEGMENT DWORD USE32 PUBLIC 'BSS'
_BSS	ENDS
$$SYMBOLS	SEGMENT BYTE USE32 'DEBSYM'
$$SYMBOLS	ENDS
$$TYPES	SEGMENT BYTE USE32 'DEBTYP'
$$TYPES	ENDS
_TLS	SEGMENT DWORD USE32 PUBLIC 'TLS'
_TLS	ENDS
;	COMDAT _IsEqualGUID
_TEXT	SEGMENT PARA USE32 PUBLIC 'CODE'
_TEXT	ENDS
;	COMDAT _==
_TEXT	SEGMENT PARA USE32 PUBLIC 'CODE'
_TEXT	ENDS
;	COMDAT _sqrtf
_TEXT	SEGMENT PARA USE32 PUBLIC 'CODE'
_TEXT	ENDS
;	COMDAT ??0D3DXVECTOR3@@QAE@XZ
_TEXT	SEGMENT PARA USE32 PUBLIC 'CODE'
_TEXT	ENDS
;	COMDAT ??0D3DXVECTOR4@@QAE@XZ
_TEXT	SEGMENT PARA USE32 PUBLIC 'CODE'
_TEXT	ENDS
;	COMDAT ??0D3DXMATRIX@@QAE@XZ
_TEXT	SEGMENT PARA USE32 PUBLIC 'CODE'
_TEXT	ENDS
;	COMDAT ??0D3DXQUATERNION@@QAE@XZ
_TEXT	SEGMENT PARA USE32 PUBLIC 'CODE'
_TEXT	ENDS
;	COMDAT ??0D3DXVECTOR2@@QAE@MM@Z
_TEXT	SEGMENT PARA USE32 PUBLIC 'CODE'
_TEXT	ENDS
;	COMDAT ??0D3DXVECTOR3@@QAE@MMM@Z
_TEXT	SEGMENT PARA USE32 PUBLIC 'CODE'
_TEXT	ENDS
;	COMDAT ??XD3DXVECTOR3@@QAEAAU0@M@Z
_TEXT	SEGMENT PARA USE32 PUBLIC 'CODE'
_TEXT	ENDS
;	COMDAT ??GD3DXVECTOR3@@QBE?AU0@ABU0@@Z
_TEXT	SEGMENT PARA USE32 PUBLIC 'CODE'
_TEXT	ENDS
;	COMDAT ??DD3DXVECTOR3@@QBE?AU0@M@Z
_TEXT	SEGMENT PARA USE32 PUBLIC 'CODE'
_TEXT	ENDS
;	COMDAT ??0D3DXVECTOR4@@QAE@MMMM@Z
_TEXT	SEGMENT PARA USE32 PUBLIC 'CODE'
_TEXT	ENDS
;	COMDAT ??0D3DXMATRIX@@QAE@PBM@Z
_TEXT	SEGMENT PARA USE32 PUBLIC 'CODE'
_TEXT	ENDS
;	COMDAT ??0D3DXMATRIX@@QAE@ABU_D3DMATRIX@@@Z
_TEXT	SEGMENT PARA USE32 PUBLIC 'CODE'
_TEXT	ENDS
;	COMDAT ??0D3DXMATRIX@@QAE@MMMMMMMMMMMMMMMM@Z
_TEXT	SEGMENT PARA USE32 PUBLIC 'CODE'
_TEXT	ENDS
;	COMDAT ??0D3DXQUATERNION@@QAE@MMMM@Z
_TEXT	SEGMENT PARA USE32 PUBLIC 'CODE'
_TEXT	ENDS
;	COMDAT ??0D3DXPLANE@@QAE@MMMM@Z
_TEXT	SEGMENT PARA USE32 PUBLIC 'CODE'
_TEXT	ENDS
;	COMDAT ??0D3DXCOLOR@@QAE@MMMM@Z
_TEXT	SEGMENT PARA USE32 PUBLIC 'CODE'
_TEXT	ENDS
;	COMDAT ??0CCamera@@QAE@XZ
_TEXT	SEGMENT PARA USE32 PUBLIC 'CODE'
_TEXT	ENDS
;	COMDAT ??1CCamera@@QAE@XZ
_TEXT	SEGMENT PARA USE32 PUBLIC 'CODE'
_TEXT	ENDS
;	COMDAT ?SetViewMatrix@CCamera@@QAEHPAUIDirect3DDevice8@@H@Z
_TEXT	SEGMENT PARA USE32 PUBLIC 'CODE'
_TEXT	ENDS
;	COMDAT ?SetManualFromValues@CCamera@@QAEHPAUIDirect3DDevice8@@MMM@Z
_TEXT	SEGMENT PARA USE32 PUBLIC 'CODE'
_TEXT	ENDS
;	COMDAT ?SetManualFromInput@CCamera@@QAEHPAUIDirect3DDevice8@@PAVCUserInput@@MM@Z
_TEXT	SEGMENT PARA USE32 PUBLIC 'CODE'
_TEXT	ENDS
;	COMDAT ?SetPresetFromInput@CCamera@@QAEHPAUIDirect3DDevice8@@PAVCUserInput@@@Z
_TEXT	SEGMENT PARA USE32 PUBLIC 'CODE'
_TEXT	ENDS
;	COMDAT ?SetShowoff@CCamera@@QAEHPAUIDirect3DDevice8@@PAUD3DXVECTOR3@@MMMMM@Z
_TEXT	SEGMENT PARA USE32 PUBLIC 'CODE'
_TEXT	ENDS
FLAT	GROUP _DATA, CONST, _BSS
	ASSUME	CS: FLAT, DS: FLAT, SS: FLAT
endif

INCLUDELIB LIBCMTD
INCLUDELIB OLDNAMES

_BSS	SEGMENT
?fConstantForward@?1??SetManualFromInput@CCamera@@QAEHPAUIDirect3DDevice8@@PAVCUserInput@@MM@Z@4MA DD 01H DUP (?) ; `CCamera::SetManualFromInput'::`2'::fConstantForward
?fConstantBackward@?1??SetManualFromInput@CCamera@@QAEHPAUIDirect3DDevice8@@PAVCUserInput@@MM@Z@4MA DD 01H DUP (?) ; `CCamera::SetManualFromInput'::`2'::fConstantBackward
_BSS	ENDS
CONST	SEGMENT
_g_PI_DIV_2 DD	03fc90fdbr			; 1.5708
CONST	ENDS
PUBLIC	??0D3DXMATRIX@@QAE@XZ				; D3DXMATRIX::D3DXMATRIX
PUBLIC	??0CCamera@@QAE@XZ				; CCamera::CCamera
PUBLIC	??0D3DXVECTOR3@@QAE@XZ				; D3DXVECTOR3::D3DXVECTOR3
PUBLIC	??0D3DXVECTOR3@@QAE@MMM@Z			; D3DXVECTOR3::D3DXVECTOR3
EXTRN	__RTC_InitBase:NEAR
EXTRN	__RTC_Shutdown:NEAR
EXTRN	__RTC_CheckEsp:NEAR
EXTRN	__fltused:NEAR
;	COMDAT rtc$IMZ
; File c:\documents and settings\dom\my documents\_dev\ae\xlr8a\x7g\ccamera.cpp
rtc$IMZ	SEGMENT
__RTC_InitBase.rtc$IMZ DD FLAT:__RTC_InitBase
rtc$IMZ	ENDS
;	COMDAT rtc$TMZ
rtc$TMZ	SEGMENT
__RTC_Shutdown.rtc$TMZ DD FLAT:__RTC_Shutdown
; Function compile flags: /Odt /RTCsu /ZI
rtc$TMZ	ENDS
;	COMDAT ??0CCamera@@QAE@XZ
_TEXT	SEGMENT
$T84905 = -320
$T84904 = -300
$T84903 = -280
$T84902 = -260
$T84901 = -240
$T84900 = -220
_this$ = -8
??0CCamera@@QAE@XZ PROC NEAR				; CCamera::CCamera, COMDAT
; _this$ = ecx

; 11   : 	{

  00000	55		 push	 ebp
  00001	8b ec		 mov	 ebp, esp
  00003	81 ec 44 01 00
	00		 sub	 esp, 324		; 00000144H
  00009	53		 push	 ebx
  0000a	56		 push	 esi
  0000b	57		 push	 edi
  0000c	51		 push	 ecx
  0000d	8d bd bc fe ff
	ff		 lea	 edi, DWORD PTR [ebp-324]
  00013	b9 51 00 00 00	 mov	 ecx, 81			; 00000051H
  00018	b8 cc cc cc cc	 mov	 eax, -858993460		; ccccccccH
  0001d	f3 ab		 rep stosd
  0001f	59		 pop	 ecx
  00020	89 4d f8	 mov	 DWORD PTR _this$[ebp], ecx
  00023	8b 4d f8	 mov	 ecx, DWORD PTR _this$[ebp]
  00026	e8 00 00 00 00	 call	 ??0D3DXVECTOR3@@QAE@XZ	; D3DXVECTOR3::D3DXVECTOR3
  0002b	8b 4d f8	 mov	 ecx, DWORD PTR _this$[ebp]
  0002e	83 c1 0c	 add	 ecx, 12			; 0000000cH
  00031	e8 00 00 00 00	 call	 ??0D3DXVECTOR3@@QAE@XZ	; D3DXVECTOR3::D3DXVECTOR3
  00036	8b 4d f8	 mov	 ecx, DWORD PTR _this$[ebp]
  00039	83 c1 18	 add	 ecx, 24			; 00000018H
  0003c	e8 00 00 00 00	 call	 ??0D3DXVECTOR3@@QAE@XZ	; D3DXVECTOR3::D3DXVECTOR3
  00041	8b 4d f8	 mov	 ecx, DWORD PTR _this$[ebp]
  00044	83 c1 24	 add	 ecx, 36			; 00000024H
  00047	e8 00 00 00 00	 call	 ??0D3DXVECTOR3@@QAE@XZ	; D3DXVECTOR3::D3DXVECTOR3
  0004c	8b 4d f8	 mov	 ecx, DWORD PTR _this$[ebp]
  0004f	83 c1 30	 add	 ecx, 48			; 00000030H
  00052	e8 00 00 00 00	 call	 ??0D3DXMATRIX@@QAE@XZ	; D3DXMATRIX::D3DXMATRIX
  00057	8b 4d f8	 mov	 ecx, DWORD PTR _this$[ebp]
  0005a	83 c1 70	 add	 ecx, 112		; 00000070H
  0005d	e8 00 00 00 00	 call	 ??0D3DXVECTOR3@@QAE@XZ	; D3DXVECTOR3::D3DXVECTOR3
  00062	8b 4d f8	 mov	 ecx, DWORD PTR _this$[ebp]
  00065	83 c1 7c	 add	 ecx, 124		; 0000007cH
  00068	e8 00 00 00 00	 call	 ??0D3DXVECTOR3@@QAE@XZ	; D3DXVECTOR3::D3DXVECTOR3

; 12   : 		m_vEyePt = xVec3(0.0f, 300.0f, 0.0f) ;

  0006d	6a 00		 push	 0
  0006f	68 00 00 96 43	 push	 1133903872		; 43960000H
  00074	6a 00		 push	 0
  00076	8d 8d 24 ff ff
	ff		 lea	 ecx, DWORD PTR $T84900[ebp]
  0007c	e8 00 00 00 00	 call	 ??0D3DXVECTOR3@@QAE@MMM@Z ; D3DXVECTOR3::D3DXVECTOR3
  00081	8b 4d f8	 mov	 ecx, DWORD PTR _this$[ebp]
  00084	8b 10		 mov	 edx, DWORD PTR [eax]
  00086	89 11		 mov	 DWORD PTR [ecx], edx
  00088	8b 50 04	 mov	 edx, DWORD PTR [eax+4]
  0008b	89 51 04	 mov	 DWORD PTR [ecx+4], edx
  0008e	8b 40 08	 mov	 eax, DWORD PTR [eax+8]
  00091	89 41 08	 mov	 DWORD PTR [ecx+8], eax

; 13   : 		m_vLookAtPt = xVec3(0.0f, 300.0f, DIST_FROM_EYE_TO_LOOKAT) ;

  00094	68 00 00 80 3f	 push	 1065353216		; 3f800000H
  00099	68 00 00 96 43	 push	 1133903872		; 43960000H
  0009e	6a 00		 push	 0
  000a0	8d 8d 10 ff ff
	ff		 lea	 ecx, DWORD PTR $T84901[ebp]
  000a6	e8 00 00 00 00	 call	 ??0D3DXVECTOR3@@QAE@MMM@Z ; D3DXVECTOR3::D3DXVECTOR3
  000ab	8b 4d f8	 mov	 ecx, DWORD PTR _this$[ebp]
  000ae	83 c1 0c	 add	 ecx, 12			; 0000000cH
  000b1	8b 10		 mov	 edx, DWORD PTR [eax]
  000b3	89 11		 mov	 DWORD PTR [ecx], edx
  000b5	8b 50 04	 mov	 edx, DWORD PTR [eax+4]
  000b8	89 51 04	 mov	 DWORD PTR [ecx+4], edx
  000bb	8b 40 08	 mov	 eax, DWORD PTR [eax+8]
  000be	89 41 08	 mov	 DWORD PTR [ecx+8], eax

; 14   : 		m_vUpVec = xVec3(0.0f, 1.0f, 0.0f) ;

  000c1	6a 00		 push	 0
  000c3	68 00 00 80 3f	 push	 1065353216		; 3f800000H
  000c8	6a 00		 push	 0
  000ca	8d 8d fc fe ff
	ff		 lea	 ecx, DWORD PTR $T84902[ebp]
  000d0	e8 00 00 00 00	 call	 ??0D3DXVECTOR3@@QAE@MMM@Z ; D3DXVECTOR3::D3DXVECTOR3
  000d5	8b 4d f8	 mov	 ecx, DWORD PTR _this$[ebp]
  000d8	83 c1 18	 add	 ecx, 24			; 00000018H
  000db	8b 10		 mov	 edx, DWORD PTR [eax]
  000dd	89 11		 mov	 DWORD PTR [ecx], edx
  000df	8b 50 04	 mov	 edx, DWORD PTR [eax+4]
  000e2	89 51 04	 mov	 DWORD PTR [ecx+4], edx
  000e5	8b 40 08	 mov	 eax, DWORD PTR [eax+8]
  000e8	89 41 08	 mov	 DWORD PTR [ecx+8], eax

; 15   : 		m_vOrientation = xVec3(0.0f, 0.0f, 1.0f) ;

  000eb	68 00 00 80 3f	 push	 1065353216		; 3f800000H
  000f0	6a 00		 push	 0
  000f2	6a 00		 push	 0
  000f4	8d 8d e8 fe ff
	ff		 lea	 ecx, DWORD PTR $T84903[ebp]
  000fa	e8 00 00 00 00	 call	 ??0D3DXVECTOR3@@QAE@MMM@Z ; D3DXVECTOR3::D3DXVECTOR3
  000ff	8b 4d f8	 mov	 ecx, DWORD PTR _this$[ebp]
  00102	83 c1 24	 add	 ecx, 36			; 00000024H
  00105	8b 10		 mov	 edx, DWORD PTR [eax]
  00107	89 11		 mov	 DWORD PTR [ecx], edx
  00109	8b 50 04	 mov	 edx, DWORD PTR [eax+4]
  0010c	89 51 04	 mov	 DWORD PTR [ecx+4], edx
  0010f	8b 40 08	 mov	 eax, DWORD PTR [eax+8]
  00112	89 41 08	 mov	 DWORD PTR [ecx+8], eax

; 16   : 
; 17   : 		m_vMouseRelativeXAxis = xVec3(1.0f, 0.0f, 0.0f) ;

  00115	6a 00		 push	 0
  00117	6a 00		 push	 0
  00119	68 00 00 80 3f	 push	 1065353216		; 3f800000H
  0011e	8d 8d d4 fe ff
	ff		 lea	 ecx, DWORD PTR $T84904[ebp]
  00124	e8 00 00 00 00	 call	 ??0D3DXVECTOR3@@QAE@MMM@Z ; D3DXVECTOR3::D3DXVECTOR3
  00129	8b 4d f8	 mov	 ecx, DWORD PTR _this$[ebp]
  0012c	83 c1 70	 add	 ecx, 112		; 00000070H
  0012f	8b 10		 mov	 edx, DWORD PTR [eax]
  00131	89 11		 mov	 DWORD PTR [ecx], edx
  00133	8b 50 04	 mov	 edx, DWORD PTR [eax+4]
  00136	89 51 04	 mov	 DWORD PTR [ecx+4], edx
  00139	8b 40 08	 mov	 eax, DWORD PTR [eax+8]
  0013c	89 41 08	 mov	 DWORD PTR [ecx+8], eax

; 18   : 		m_fMouseLockCurRot = 0.0f ;

  0013f	8b 45 f8	 mov	 eax, DWORD PTR _this$[ebp]
  00142	c7 80 88 00 00
	00 00 00 00 00	 mov	 DWORD PTR [eax+136], 0

; 19   : 		m_vMouseRelativeYAxis = xVec3(0.0f, 1.0f, 0.0f) ;

  0014c	6a 00		 push	 0
  0014e	68 00 00 80 3f	 push	 1065353216		; 3f800000H
  00153	6a 00		 push	 0
  00155	8d 8d c0 fe ff
	ff		 lea	 ecx, DWORD PTR $T84905[ebp]
  0015b	e8 00 00 00 00	 call	 ??0D3DXVECTOR3@@QAE@MMM@Z ; D3DXVECTOR3::D3DXVECTOR3
  00160	8b 4d f8	 mov	 ecx, DWORD PTR _this$[ebp]
  00163	83 c1 7c	 add	 ecx, 124		; 0000007cH
  00166	8b 10		 mov	 edx, DWORD PTR [eax]
  00168	89 11		 mov	 DWORD PTR [ecx], edx
  0016a	8b 50 04	 mov	 edx, DWORD PTR [eax+4]
  0016d	89 51 04	 mov	 DWORD PTR [ecx+4], edx
  00170	8b 40 08	 mov	 eax, DWORD PTR [eax+8]
  00173	89 41 08	 mov	 DWORD PTR [ecx+8], eax

; 20   : 	}

  00176	8b 45 f8	 mov	 eax, DWORD PTR _this$[ebp]
  00179	5f		 pop	 edi
  0017a	5e		 pop	 esi
  0017b	5b		 pop	 ebx
  0017c	81 c4 44 01 00
	00		 add	 esp, 324		; 00000144H
  00182	3b ec		 cmp	 ebp, esp
  00184	e8 00 00 00 00	 call	 __RTC_CheckEsp
  00189	8b e5		 mov	 esp, ebp
  0018b	5d		 pop	 ebp
  0018c	c3		 ret	 0
??0CCamera@@QAE@XZ ENDP					; CCamera::CCamera
_TEXT	ENDS
PUBLIC	??1CCamera@@QAE@XZ				; CCamera::~CCamera
; Function compile flags: /Odt /RTCsu /ZI
;	COMDAT ??1CCamera@@QAE@XZ
_TEXT	SEGMENT
_this$ = -8
??1CCamera@@QAE@XZ PROC NEAR				; CCamera::~CCamera, COMDAT
; _this$ = ecx

; 22   : 	{

  00000	55		 push	 ebp
  00001	8b ec		 mov	 ebp, esp
  00003	81 ec cc 00 00
	00		 sub	 esp, 204		; 000000ccH
  00009	53		 push	 ebx
  0000a	56		 push	 esi
  0000b	57		 push	 edi
  0000c	51		 push	 ecx
  0000d	8d bd 34 ff ff
	ff		 lea	 edi, DWORD PTR [ebp-204]
  00013	b9 33 00 00 00	 mov	 ecx, 51			; 00000033H
  00018	b8 cc cc cc cc	 mov	 eax, -858993460		; ccccccccH
  0001d	f3 ab		 rep stosd
  0001f	59		 pop	 ecx
  00020	89 4d f8	 mov	 DWORD PTR _this$[ebp], ecx

; 23   : 	}

  00023	5f		 pop	 edi
  00024	5e		 pop	 esi
  00025	5b		 pop	 ebx
  00026	8b e5		 mov	 esp, ebp
  00028	5d		 pop	 ebp
  00029	c3		 ret	 0
??1CCamera@@QAE@XZ ENDP					; CCamera::~CCamera
_TEXT	ENDS
PUBLIC	?SetViewMatrix@CCamera@@QAEHPAUIDirect3DDevice8@@H@Z ; CCamera::SetViewMatrix
PUBLIC	__real@00000000
PUBLIC	__real@bf800000
PUBLIC	??GD3DXVECTOR3@@QBE?AU0@ABU0@@Z			; D3DXVECTOR3::operator-
EXTRN	_D3DXVec3Normalize@8:NEAR
EXTRN	_D3DXMatrixLookAtLH@16:NEAR
_BSS	SEGMENT
?vPrevOrientation@?1??SetViewMatrix@CCamera@@QAEHPAUIDirect3DDevice8@@H@Z@4UD3DXVECTOR3@@A DB 0cH DUP (?) ; `CCamera::SetViewMatrix'::`2'::vPrevOrientation
?$S1@?1??SetViewMatrix@CCamera@@QAEHPAUIDirect3DDevice8@@H@Z@4IA DD 01H DUP (?) ; `CCamera::SetViewMatrix'::`2'::$S1
_BSS	ENDS
;	COMDAT __real@00000000
CONST	SEGMENT
__real@00000000 DD 000000000r			; 0
CONST	ENDS
;	COMDAT __real@bf800000
CONST	SEGMENT
__real@bf800000 DD 0bf800000r			; -1
; Function compile flags: /Odt /RTCsu /ZI
CONST	ENDS
;	COMDAT ?SetViewMatrix@CCamera@@QAEHPAUIDirect3DDevice8@@H@Z
_TEXT	SEGMENT
$T84920 = -244
_bZChanged$84758 = -32
_bXChanged$84757 = -20
_this$ = -8
_pDev$ = 8
_bFlipUpVec$ = 12
?SetViewMatrix@CCamera@@QAEHPAUIDirect3DDevice8@@H@Z PROC NEAR ; CCamera::SetViewMatrix, COMDAT
; _this$ = ecx

; 31   : 	{

  00000	55		 push	 ebp
  00001	8b ec		 mov	 ebp, esp
  00003	81 ec f8 00 00
	00		 sub	 esp, 248		; 000000f8H
  00009	53		 push	 ebx
  0000a	56		 push	 esi
  0000b	57		 push	 edi
  0000c	51		 push	 ecx
  0000d	8d bd 08 ff ff
	ff		 lea	 edi, DWORD PTR [ebp-248]
  00013	b9 3e 00 00 00	 mov	 ecx, 62			; 0000003eH
  00018	b8 cc cc cc cc	 mov	 eax, -858993460		; ccccccccH
  0001d	f3 ab		 rep stosd
  0001f	59		 pop	 ecx
  00020	89 4d f8	 mov	 DWORD PTR _this$[ebp], ecx

; 32   : 		static xVec3 vPrevOrientation ;

  00023	a1 00 00 00 00	 mov	 eax, DWORD PTR ?$S1@?1??SetViewMatrix@CCamera@@QAEHPAUIDirect3DDevice8@@H@Z@4IA
  00028	83 e0 01	 and	 eax, 1
  0002b	85 c0		 test	 eax, eax
  0002d	75 17		 jne	 SHORT $L84754
  0002f	a1 00 00 00 00	 mov	 eax, DWORD PTR ?$S1@?1??SetViewMatrix@CCamera@@QAEHPAUIDirect3DDevice8@@H@Z@4IA
  00034	83 c8 01	 or	 eax, 1
  00037	a3 00 00 00 00	 mov	 DWORD PTR ?$S1@?1??SetViewMatrix@CCamera@@QAEHPAUIDirect3DDevice8@@H@Z@4IA, eax
  0003c	b9 00 00 00 00	 mov	 ecx, OFFSET FLAT:?vPrevOrientation@?1??SetViewMatrix@CCamera@@QAEHPAUIDirect3DDevice8@@H@Z@4UD3DXVECTOR3@@A
  00041	e8 00 00 00 00	 call	 ??0D3DXVECTOR3@@QAE@XZ	; D3DXVECTOR3::D3DXVECTOR3
$L84754:

; 33   : 		/*static xMat m ;
; 34   : 		static BOOL bFirstUse = TRUE ;
; 35   : 		static xMat matPrev ;
; 36   : 
; 37   : 		if (bFirstUse)
; 38   : 		{
; 39   : 			bFirstUse = FALSE ;
; 40   : 			m._11 = 0.0f ;
; 41   : 			m._12 = 0.0f ;
; 42   : 			m._13 = 0.0f ;
; 43   : 			m._14 = 0.0f ;
; 44   : 			m._21 = 0.0f ;
; 45   : 			m._22 = 0.0f ;
; 46   : 			m._23 = 0.0f ;
; 47   : 			m._24 = 0.0f ;
; 48   : 			m._31 = 0.0f ;
; 49   : 			m._32 = 0.0f ;
; 50   : 			m._33 = 0.0f ;
; 51   : 			m._34 = 0.0f ;
; 52   : 			m._41 = 0.0f ;
; 53   : 			m._42 = 0.0f ;
; 54   : 			m._43 = 0.0f ;
; 55   : 			m._44 = 0.0f ;
; 56   : 		}*/
; 57   : 
; 58   : 		m_vOrientation = m_vLookAtPt - m_vEyePt ;

  00046	8b 45 f8	 mov	 eax, DWORD PTR _this$[ebp]
  00049	50		 push	 eax
  0004a	8d 8d 0c ff ff
	ff		 lea	 ecx, DWORD PTR $T84920[ebp]
  00050	51		 push	 ecx
  00051	8b 4d f8	 mov	 ecx, DWORD PTR _this$[ebp]
  00054	83 c1 0c	 add	 ecx, 12			; 0000000cH
  00057	e8 00 00 00 00	 call	 ??GD3DXVECTOR3@@QBE?AU0@ABU0@@Z ; D3DXVECTOR3::operator-
  0005c	8b 55 f8	 mov	 edx, DWORD PTR _this$[ebp]
  0005f	83 c2 24	 add	 edx, 36			; 00000024H
  00062	8b 08		 mov	 ecx, DWORD PTR [eax]
  00064	89 0a		 mov	 DWORD PTR [edx], ecx
  00066	8b 48 04	 mov	 ecx, DWORD PTR [eax+4]
  00069	89 4a 04	 mov	 DWORD PTR [edx+4], ecx
  0006c	8b 40 08	 mov	 eax, DWORD PTR [eax+8]
  0006f	89 42 08	 mov	 DWORD PTR [edx+8], eax

; 59   : 		D3DXVec3Normalize(&m_vOrientation, &m_vOrientation) ;

  00072	8b 45 f8	 mov	 eax, DWORD PTR _this$[ebp]
  00075	83 c0 24	 add	 eax, 36			; 00000024H
  00078	50		 push	 eax
  00079	8b 4d f8	 mov	 ecx, DWORD PTR _this$[ebp]
  0007c	83 c1 24	 add	 ecx, 36			; 00000024H
  0007f	51		 push	 ecx
  00080	e8 00 00 00 00	 call	 _D3DXVec3Normalize@8

; 60   : 
; 61   : 		if (bFlipUpVec)

  00085	83 7d 0c 00	 cmp	 DWORD PTR _bFlipUpVec$[ebp], 0
  00089	0f 84 33 01 00
	00		 je	 $L84756

; 62   : 		{
; 63   : 			BOOL bXChanged = FALSE, bZChanged = FALSE ;

  0008f	c7 45 ec 00 00
	00 00		 mov	 DWORD PTR _bXChanged$84757[ebp], 0
  00096	c7 45 e0 00 00
	00 00		 mov	 DWORD PTR _bZChanged$84758[ebp], 0

; 64   : 
; 65   : 			if (m_vOrientation.x > 0.0f && vPrevOrientation.x < 0.0f) bXChanged = TRUE ;

  0009d	8b 45 f8	 mov	 eax, DWORD PTR _this$[ebp]
  000a0	d9 40 24	 fld	 DWORD PTR [eax+36]
  000a3	d8 1d 00 00 00
	00		 fcomp	 DWORD PTR __real@00000000
  000a9	df e0		 fnstsw	 ax
  000ab	f6 c4 41	 test	 ah, 65			; 00000041H
  000ae	75 1a		 jne	 SHORT $L84759
  000b0	d9 05 00 00 00
	00		 fld	 DWORD PTR ?vPrevOrientation@?1??SetViewMatrix@CCamera@@QAEHPAUIDirect3DDevice8@@H@Z@4UD3DXVECTOR3@@A
  000b6	d8 1d 00 00 00
	00		 fcomp	 DWORD PTR __real@00000000
  000bc	df e0		 fnstsw	 ax
  000be	f6 c4 05	 test	 ah, 5
  000c1	7a 07		 jp	 SHORT $L84759
  000c3	c7 45 ec 01 00
	00 00		 mov	 DWORD PTR _bXChanged$84757[ebp], 1
$L84759:

; 66   : 			if (m_vOrientation.x < 0.0f && vPrevOrientation.x > 0.0f) bXChanged = TRUE ;

  000ca	8b 45 f8	 mov	 eax, DWORD PTR _this$[ebp]
  000cd	d9 40 24	 fld	 DWORD PTR [eax+36]
  000d0	d8 1d 00 00 00
	00		 fcomp	 DWORD PTR __real@00000000
  000d6	df e0		 fnstsw	 ax
  000d8	f6 c4 05	 test	 ah, 5
  000db	7a 1a		 jp	 SHORT $L84760
  000dd	d9 05 00 00 00
	00		 fld	 DWORD PTR ?vPrevOrientation@?1??SetViewMatrix@CCamera@@QAEHPAUIDirect3DDevice8@@H@Z@4UD3DXVECTOR3@@A
  000e3	d8 1d 00 00 00
	00		 fcomp	 DWORD PTR __real@00000000
  000e9	df e0		 fnstsw	 ax
  000eb	f6 c4 41	 test	 ah, 65			; 00000041H
  000ee	75 07		 jne	 SHORT $L84760
  000f0	c7 45 ec 01 00
	00 00		 mov	 DWORD PTR _bXChanged$84757[ebp], 1
$L84760:

; 67   : 			if (m_vOrientation.x == 0.0f) bXChanged = TRUE ;

  000f7	8b 45 f8	 mov	 eax, DWORD PTR _this$[ebp]
  000fa	d9 40 24	 fld	 DWORD PTR [eax+36]
  000fd	d8 1d 00 00 00
	00		 fcomp	 DWORD PTR __real@00000000
  00103	df e0		 fnstsw	 ax
  00105	f6 c4 44	 test	 ah, 68			; 00000044H
  00108	7a 07		 jp	 SHORT $L84761
  0010a	c7 45 ec 01 00
	00 00		 mov	 DWORD PTR _bXChanged$84757[ebp], 1
$L84761:

; 68   : 			
; 69   : 			if (m_vOrientation.z > 0.0f && vPrevOrientation.z < 0.0f) bZChanged = TRUE ;

  00111	8b 45 f8	 mov	 eax, DWORD PTR _this$[ebp]
  00114	d9 40 2c	 fld	 DWORD PTR [eax+44]
  00117	d8 1d 00 00 00
	00		 fcomp	 DWORD PTR __real@00000000
  0011d	df e0		 fnstsw	 ax
  0011f	f6 c4 41	 test	 ah, 65			; 00000041H
  00122	75 1a		 jne	 SHORT $L84762
  00124	d9 05 08 00 00
	00		 fld	 DWORD PTR ?vPrevOrientation@?1??SetViewMatrix@CCamera@@QAEHPAUIDirect3DDevice8@@H@Z@4UD3DXVECTOR3@@A+8
  0012a	d8 1d 00 00 00
	00		 fcomp	 DWORD PTR __real@00000000
  00130	df e0		 fnstsw	 ax
  00132	f6 c4 05	 test	 ah, 5
  00135	7a 07		 jp	 SHORT $L84762
  00137	c7 45 e0 01 00
	00 00		 mov	 DWORD PTR _bZChanged$84758[ebp], 1
$L84762:

; 70   : 			if (m_vOrientation.z < 0.0f && vPrevOrientation.z > 0.0f) bZChanged = TRUE ;

  0013e	8b 45 f8	 mov	 eax, DWORD PTR _this$[ebp]
  00141	d9 40 2c	 fld	 DWORD PTR [eax+44]
  00144	d8 1d 00 00 00
	00		 fcomp	 DWORD PTR __real@00000000
  0014a	df e0		 fnstsw	 ax
  0014c	f6 c4 05	 test	 ah, 5
  0014f	7a 1a		 jp	 SHORT $L84763
  00151	d9 05 08 00 00
	00		 fld	 DWORD PTR ?vPrevOrientation@?1??SetViewMatrix@CCamera@@QAEHPAUIDirect3DDevice8@@H@Z@4UD3DXVECTOR3@@A+8
  00157	d8 1d 00 00 00
	00		 fcomp	 DWORD PTR __real@00000000
  0015d	df e0		 fnstsw	 ax
  0015f	f6 c4 41	 test	 ah, 65			; 00000041H
  00162	75 07		 jne	 SHORT $L84763
  00164	c7 45 e0 01 00
	00 00		 mov	 DWORD PTR _bZChanged$84758[ebp], 1
$L84763:

; 71   : 			if (m_vOrientation.z == 0.0f) bZChanged = TRUE ;

  0016b	8b 45 f8	 mov	 eax, DWORD PTR _this$[ebp]
  0016e	d9 40 2c	 fld	 DWORD PTR [eax+44]
  00171	d8 1d 00 00 00
	00		 fcomp	 DWORD PTR __real@00000000
  00177	df e0		 fnstsw	 ax
  00179	f6 c4 44	 test	 ah, 68			; 00000044H
  0017c	7a 07		 jp	 SHORT $L84764
  0017e	c7 45 e0 01 00
	00 00		 mov	 DWORD PTR _bZChanged$84758[ebp], 1
$L84764:

; 72   : 
; 73   : 			if (bXChanged && bZChanged)

  00185	83 7d ec 00	 cmp	 DWORD PTR _bXChanged$84757[ebp], 0
  00189	74 18		 je	 SHORT $L84765
  0018b	83 7d e0 00	 cmp	 DWORD PTR _bZChanged$84758[ebp], 0
  0018f	74 12		 je	 SHORT $L84765

; 74   : 			{
; 75   : 				m_vUpVec.y *= -1.0f ;

  00191	8b 45 f8	 mov	 eax, DWORD PTR _this$[ebp]
  00194	d9 40 1c	 fld	 DWORD PTR [eax+28]
  00197	d8 0d 00 00 00
	00		 fmul	 DWORD PTR __real@bf800000
  0019d	8b 4d f8	 mov	 ecx, DWORD PTR _this$[ebp]
  001a0	d9 59 1c	 fstp	 DWORD PTR [ecx+28]
$L84765:

; 76   : 			}
; 77   : 
; 78   : 			vPrevOrientation = m_vOrientation ;

  001a3	8b 45 f8	 mov	 eax, DWORD PTR _this$[ebp]
  001a6	83 c0 24	 add	 eax, 36			; 00000024H
  001a9	8b 08		 mov	 ecx, DWORD PTR [eax]
  001ab	89 0d 00 00 00
	00		 mov	 DWORD PTR ?vPrevOrientation@?1??SetViewMatrix@CCamera@@QAEHPAUIDirect3DDevice8@@H@Z@4UD3DXVECTOR3@@A, ecx
  001b1	8b 50 04	 mov	 edx, DWORD PTR [eax+4]
  001b4	89 15 04 00 00
	00		 mov	 DWORD PTR ?vPrevOrientation@?1??SetViewMatrix@CCamera@@QAEHPAUIDirect3DDevice8@@H@Z@4UD3DXVECTOR3@@A+4, edx
  001ba	8b 40 08	 mov	 eax, DWORD PTR [eax+8]
  001bd	a3 08 00 00 00	 mov	 DWORD PTR ?vPrevOrientation@?1??SetViewMatrix@CCamera@@QAEHPAUIDirect3DDevice8@@H@Z@4UD3DXVECTOR3@@A+8, eax
$L84756:

; 79   : 		}
; 80   : 
; 81   : 		D3DXMatrixLookAtLH(&m_matView, &m_vEyePt, &m_vLookAtPt, &m_vUpVec) ;

  001c2	8b 45 f8	 mov	 eax, DWORD PTR _this$[ebp]
  001c5	83 c0 18	 add	 eax, 24			; 00000018H
  001c8	50		 push	 eax
  001c9	8b 4d f8	 mov	 ecx, DWORD PTR _this$[ebp]
  001cc	83 c1 0c	 add	 ecx, 12			; 0000000cH
  001cf	51		 push	 ecx
  001d0	8b 55 f8	 mov	 edx, DWORD PTR _this$[ebp]
  001d3	52		 push	 edx
  001d4	8b 45 f8	 mov	 eax, DWORD PTR _this$[ebp]
  001d7	83 c0 30	 add	 eax, 48			; 00000030H
  001da	50		 push	 eax
  001db	e8 00 00 00 00	 call	 _D3DXMatrixLookAtLH@16

; 82   : 
; 83   : 		//m_vUpVec.y *= -1.0f ;
; 84   : 		//xMat matInv ;
; 85   : 		//D3DXMatrixLookAtLH(&matInv, &m_vEyePt, &m_vLookAtPt, &m_vUpVec) ;
; 86   : 		//m_vUpVec.y *= -1.0f ;
; 87   : 
; 88   : 		/*if (m_matView._11 > 0.0f && matPrev._11 < 0.0f)
; 89   : 			m_matView._11 = -m_matView._11 ;
; 90   : 		if (m_matView._11 < 0.0f && matPrev._11 > 0.0f)
; 91   : 			m_matView._11 = +m_matView._11 ;*/
; 92   : 
; 93   : 		//if (matInv._11 < 0.0f && m_matView._11 > 0.0f) m._11 += 1.0f ;
; 94   : 		//if (matInv._11 > 0.0f && m_matView._11 < 0.0f) m._12 += 1.0f ;
; 95   : 		/*if ((matInv._11 < 0.0f && m_matView._11 > 0.0f) || (matInv._11 > 0.0f && m_matView._11 < 0.0f)) m._11 += 1.0f ;
; 96   : 		if ((matInv._11 < 0.0f && m_matView._11 > 0.0f) || (matInv._11 > 0.0f && m_matView._11 < 0.0f)) m._11 += 1.0f ;
; 97   : 		if ((matInv._11 < 0.0f && m_matView._11 > 0.0f) || (matInv._11 > 0.0f && m_matView._11 < 0.0f)) m._11 += 1.0f ;*/
; 98   : 
; 99   : 		/*if ((matInv._21 < 0.0f && m_matView._21 > 0.0f) || (matInv._21 > 0.0f && m_matView._21 < 0.0f)) m._21 += 1.0f ;
; 100  : 		if ((matInv._21 < 0.0f && m_matView._21 > 0.0f) || (matInv._21 > 0.0f && m_matView._21 < 0.0f)) m._21 += 1.0f ;
; 101  : 		if ((matInv._21 < 0.0f && m_matView._21 > 0.0f) || (matInv._21 > 0.0f && m_matView._21 < 0.0f)) m._21 += 1.0f ;
; 102  : 		if ((matInv._21 < 0.0f && m_matView._21 > 0.0f) || (matInv._21 > 0.0f && m_matView._21 < 0.0f)) m._21 += 1.0f ;*/
; 103  : 
; 104  : 		/*if (m_matView._31 > 0.0f && matPrev._31 < 0.0f)
; 105  : 			m_matView._31 = -m_matView._31 ;
; 106  : 		if (m_matView._31 < 0.0f && matPrev._31 > 0.0f)
; 107  : 			m_matView._31 = +m_matView._31 ;*/
; 108  : 
; 109  : 		//if (matInv._31 < 0.0f && m_matView._31 > 0.0f) m._31 += 1.0f ;
; 110  : 		//if (matInv._31 > 0.0f && m_matView._31 < 0.0f) m._32 += 1.0f ;
; 111  : 		/*if ((matInv._31 < 0.0f && m_matView._31 > 0.0f) || (matInv._31 > 0.0f && m_matView._31 < 0.0f)) m._31 += 1.0f ;
; 112  : 		if ((matInv._31 < 0.0f && m_matView._31 > 0.0f) || (matInv._31 > 0.0f && m_matView._31 < 0.0f)) m._31 += 1.0f ;
; 113  : 		if ((matInv._31 < 0.0f && m_matView._31 > 0.0f) || (matInv._31 > 0.0f && m_matView._31 < 0.0f)) m._31 += 1.0f ;*/
; 114  : 
; 115  : 		/*if (m_matView._41 > 0.0f && matPrev._41 < 0.0f)
; 116  : 			m_matView._41 = -m_matView._41 ;
; 117  : 		if (m_matView._41 < 0.0f && matPrev._41 > 0.0f)
; 118  : 			m_matView._41 = +m_matView._41 ;*/
; 119  : 
; 120  : 		//if (matInv._41 < 0.0f && m_matView._41 > 0.0f) m._41 += 1.0f ;
; 121  : 		//if (matInv._41 > 0.0f && m_matView._41 < 0.0f) m._42 += 1.0f ;
; 122  : 		/*if ((matInv._41 < 0.0f && m_matView._41 > 0.0f) || (matInv._41 > 0.0f && m_matView._41 < 0.0f)) m._41 += 1.0f ;
; 123  : 		if ((matInv._41 < 0.0f && m_matView._41 > 0.0f) || (matInv._41 > 0.0f && m_matView._41 < 0.0f)) m._41 += 1.0f ;
; 124  : 		if ((matInv._41 < 0.0f && m_matView._41 > 0.0f) || (matInv._41 > 0.0f && m_matView._41 < 0.0f)) m._41 += 1.0f ;*/
; 125  : 
; 126  : 		//if (m_matView._11 < 0.0f) m_matView._11 = +m_matView._11 ;
; 127  : 		//if (m_matView._12 > 0.0f) m_matView._12 = -m_matView._12 ;
; 128  : 		//if (m_matView._22 < 0.0f) m_matView._22 = +m_matView._22 ;
; 129  : 		//if (m_matView._31 > 0.0f) m_matView._31 = -m_matView._31 ;
; 130  : 		//if (m_matView._32 > 0.0f) m_matView._32 = -m_matView._32 ;
; 131  : 		//if (m_matView._41 > 0.0f) m_matView._41 = -m_matView._41 ;
; 132  : 		//if (m_matView._42 > 0.0f) m_matView._42 = -m_matView._42 ;
; 133  : 
; 134  : 		/*if (m_matView._32 > 0.0f)*/ //m_matView._32 = -m_matView._32 ;
; 135  : 		/*if (m_matView._41 > 0.0f)*/ //m_matView._41 = -m_matView._41 ;
; 136  : 		/*if (m_matView._42 > 0.0f)*/ //m_matView._42 = -m_matView._42 ;
; 137  : 
; 138  : 			/*xVec3 vView, vUp, vRight;
; 139  : 
; 140  : 			 // vView is the vector down which we are looking/traveling
; 141  : 			 // Already normalized
; 142  : 			 vView = m_vOrientation ;
; 143  : 
; 144  : 			 // vUp is our camera's Y-Axis
; 145  : 			 // Already normalized
; 146  : 			 vUp = xVec3(0.0f, 1.0f, 0.0f) ;
; 147  : 
; 148  : 			 // Create the vRight vector and Normalize
; 149  : 			 D3DXVec3Cross(&vRight, &vUp, &vView) ;
; 150  : 			 D3DXVec3Normalize(&vRight, &vRight) ;
; 151  : 
; 152  : 			 // Start building the matrix. The first three rows contains the basis
; 153  : 			 // vectors used to rotate the view to point at the lookat point
; 154  : 			 D3DXMatrixIdentity(&m_matView) ;
; 155  : 			 
; 156  : 			 m_matView._11 = vRight.x;    m_matView._12 = vUp.x;
; 157  : 			 m_matView._13 = vView.x;
; 158  : 			 m_matView._21 = vRight.y;    m_matView._22 = vUp.y;
; 159  : 			 m_matView._23 = vView.y;
; 160  : 			 m_matView._31 = vRight.z;    m_matView._32 = vUp.z;
; 161  : 			 m_matView._33 = vView.z;
; 162  : 
; 163  : 			 // Do the translation values (rotations are still about the eyepoint)
; 164  : 			 m_matView._41 = - D3DXVec3Dot(&m_vLookAtPt, &vRight);
; 165  : 			 m_matView._42 = - D3DXVec3Dot(&m_vLookAtPt, &vUp);
; 166  : 			 m_matView._43 = - D3DXVec3Dot(&m_vLookAtPt, &vView);*/
; 167  : 
; 168  : 		pDev->SetTransform(D3DTS_VIEW, &m_matView) ;

  001e0	8b 45 f8	 mov	 eax, DWORD PTR _this$[ebp]
  001e3	83 c0 30	 add	 eax, 48			; 00000030H
  001e6	8b f4		 mov	 esi, esp
  001e8	50		 push	 eax
  001e9	6a 02		 push	 2
  001eb	8b 4d 08	 mov	 ecx, DWORD PTR _pDev$[ebp]
  001ee	8b 11		 mov	 edx, DWORD PTR [ecx]
  001f0	8b 45 08	 mov	 eax, DWORD PTR _pDev$[ebp]
  001f3	50		 push	 eax
  001f4	ff 92 94 00 00
	00		 call	 DWORD PTR [edx+148]
  001fa	3b f4		 cmp	 esi, esp
  001fc	e8 00 00 00 00	 call	 __RTC_CheckEsp

; 169  : 
; 170  : 		/*memcpy(&matPrev, &m_matView, sizeof(xMat)) ;*/
; 171  : 	}

  00201	5f		 pop	 edi
  00202	5e		 pop	 esi
  00203	5b		 pop	 ebx
  00204	81 c4 f8 00 00
	00		 add	 esp, 248		; 000000f8H
  0020a	3b ec		 cmp	 ebp, esp
  0020c	e8 00 00 00 00	 call	 __RTC_CheckEsp
  00211	8b e5		 mov	 esp, ebp
  00213	5d		 pop	 ebp
  00214	c2 08 00	 ret	 8
?SetViewMatrix@CCamera@@QAEHPAUIDirect3DDevice8@@H@Z ENDP ; CCamera::SetViewMatrix
_TEXT	ENDS
PUBLIC	?SetManualFromValues@CCamera@@QAEHPAUIDirect3DDevice8@@MMM@Z ; CCamera::SetManualFromValues
PUBLIC	__real@3f800000
;	COMDAT __real@3f800000
CONST	SEGMENT
__real@3f800000 DD 03f800000r			; 1
; Function compile flags: /Odt /RTCsu /ZI
CONST	ENDS
;	COMDAT ?SetManualFromValues@CCamera@@QAEHPAUIDirect3DDevice8@@MMM@Z
_TEXT	SEGMENT
$T84931 = -300
$T84930 = -280
$T84929 = -260
$T84928 = -240
$T84927 = -220
_this$ = -8
_pDev$ = 8
_x$ = 12
_y$ = 16
_z$ = 20
?SetManualFromValues@CCamera@@QAEHPAUIDirect3DDevice8@@MMM@Z PROC NEAR ; CCamera::SetManualFromValues, COMDAT
; _this$ = ecx

; 179  : 	{

  00000	55		 push	 ebp
  00001	8b ec		 mov	 ebp, esp
  00003	81 ec 30 01 00
	00		 sub	 esp, 304		; 00000130H
  00009	53		 push	 ebx
  0000a	56		 push	 esi
  0000b	57		 push	 edi
  0000c	51		 push	 ecx
  0000d	8d bd d0 fe ff
	ff		 lea	 edi, DWORD PTR [ebp-304]
  00013	b9 4c 00 00 00	 mov	 ecx, 76			; 0000004cH
  00018	b8 cc cc cc cc	 mov	 eax, -858993460		; ccccccccH
  0001d	f3 ab		 rep stosd
  0001f	59		 pop	 ecx
  00020	89 4d f8	 mov	 DWORD PTR _this$[ebp], ecx

; 180  : 		m_vEyePt = xVec3(x, y, z) ;

  00023	8b 45 14	 mov	 eax, DWORD PTR _z$[ebp]
  00026	50		 push	 eax
  00027	8b 4d 10	 mov	 ecx, DWORD PTR _y$[ebp]
  0002a	51		 push	 ecx
  0002b	8b 55 0c	 mov	 edx, DWORD PTR _x$[ebp]
  0002e	52		 push	 edx
  0002f	8d 8d 24 ff ff
	ff		 lea	 ecx, DWORD PTR $T84927[ebp]
  00035	e8 00 00 00 00	 call	 ??0D3DXVECTOR3@@QAE@MMM@Z ; D3DXVECTOR3::D3DXVECTOR3
  0003a	8b 4d f8	 mov	 ecx, DWORD PTR _this$[ebp]
  0003d	8b 10		 mov	 edx, DWORD PTR [eax]
  0003f	89 11		 mov	 DWORD PTR [ecx], edx
  00041	8b 50 04	 mov	 edx, DWORD PTR [eax+4]
  00044	89 51 04	 mov	 DWORD PTR [ecx+4], edx
  00047	8b 40 08	 mov	 eax, DWORD PTR [eax+8]
  0004a	89 41 08	 mov	 DWORD PTR [ecx+8], eax

; 181  : 		m_vLookAtPt = xVec3(x, y, z + DIST_FROM_EYE_TO_LOOKAT) ;

  0004d	d9 45 14	 fld	 DWORD PTR _z$[ebp]
  00050	d8 05 00 00 00
	00		 fadd	 DWORD PTR __real@3f800000
  00056	51		 push	 ecx
  00057	d9 1c 24	 fstp	 DWORD PTR [esp]
  0005a	8b 45 10	 mov	 eax, DWORD PTR _y$[ebp]
  0005d	50		 push	 eax
  0005e	8b 4d 0c	 mov	 ecx, DWORD PTR _x$[ebp]
  00061	51		 push	 ecx
  00062	8d 8d 10 ff ff
	ff		 lea	 ecx, DWORD PTR $T84928[ebp]
  00068	e8 00 00 00 00	 call	 ??0D3DXVECTOR3@@QAE@MMM@Z ; D3DXVECTOR3::D3DXVECTOR3
  0006d	8b 55 f8	 mov	 edx, DWORD PTR _this$[ebp]
  00070	83 c2 0c	 add	 edx, 12			; 0000000cH
  00073	8b 08		 mov	 ecx, DWORD PTR [eax]
  00075	89 0a		 mov	 DWORD PTR [edx], ecx
  00077	8b 48 04	 mov	 ecx, DWORD PTR [eax+4]
  0007a	89 4a 04	 mov	 DWORD PTR [edx+4], ecx
  0007d	8b 40 08	 mov	 eax, DWORD PTR [eax+8]
  00080	89 42 08	 mov	 DWORD PTR [edx+8], eax

; 182  : 		m_vUpVec = xVec3(0.0f, 1.0f, 0.0f) ;

  00083	6a 00		 push	 0
  00085	68 00 00 80 3f	 push	 1065353216		; 3f800000H
  0008a	6a 00		 push	 0
  0008c	8d 8d fc fe ff
	ff		 lea	 ecx, DWORD PTR $T84929[ebp]
  00092	e8 00 00 00 00	 call	 ??0D3DXVECTOR3@@QAE@MMM@Z ; D3DXVECTOR3::D3DXVECTOR3
  00097	8b 4d f8	 mov	 ecx, DWORD PTR _this$[ebp]
  0009a	83 c1 18	 add	 ecx, 24			; 00000018H
  0009d	8b 10		 mov	 edx, DWORD PTR [eax]
  0009f	89 11		 mov	 DWORD PTR [ecx], edx
  000a1	8b 50 04	 mov	 edx, DWORD PTR [eax+4]
  000a4	89 51 04	 mov	 DWORD PTR [ecx+4], edx
  000a7	8b 40 08	 mov	 eax, DWORD PTR [eax+8]
  000aa	89 41 08	 mov	 DWORD PTR [ecx+8], eax

; 183  : 		m_vMouseRelativeXAxis = xVec3(1.0f, 0.0f, 0.0f) ;

  000ad	6a 00		 push	 0
  000af	6a 00		 push	 0
  000b1	68 00 00 80 3f	 push	 1065353216		; 3f800000H
  000b6	8d 8d e8 fe ff
	ff		 lea	 ecx, DWORD PTR $T84930[ebp]
  000bc	e8 00 00 00 00	 call	 ??0D3DXVECTOR3@@QAE@MMM@Z ; D3DXVECTOR3::D3DXVECTOR3
  000c1	8b 4d f8	 mov	 ecx, DWORD PTR _this$[ebp]
  000c4	83 c1 70	 add	 ecx, 112		; 00000070H
  000c7	8b 10		 mov	 edx, DWORD PTR [eax]
  000c9	89 11		 mov	 DWORD PTR [ecx], edx
  000cb	8b 50 04	 mov	 edx, DWORD PTR [eax+4]
  000ce	89 51 04	 mov	 DWORD PTR [ecx+4], edx
  000d1	8b 40 08	 mov	 eax, DWORD PTR [eax+8]
  000d4	89 41 08	 mov	 DWORD PTR [ecx+8], eax

; 184  : 		m_fMouseLockCurRot = 0.0f ;

  000d7	8b 45 f8	 mov	 eax, DWORD PTR _this$[ebp]
  000da	c7 80 88 00 00
	00 00 00 00 00	 mov	 DWORD PTR [eax+136], 0

; 185  : 		m_vMouseRelativeYAxis = xVec3(0.0f, 1.0f, 0.0f) ;

  000e4	6a 00		 push	 0
  000e6	68 00 00 80 3f	 push	 1065353216		; 3f800000H
  000eb	6a 00		 push	 0
  000ed	8d 8d d4 fe ff
	ff		 lea	 ecx, DWORD PTR $T84931[ebp]
  000f3	e8 00 00 00 00	 call	 ??0D3DXVECTOR3@@QAE@MMM@Z ; D3DXVECTOR3::D3DXVECTOR3
  000f8	8b 4d f8	 mov	 ecx, DWORD PTR _this$[ebp]
  000fb	83 c1 7c	 add	 ecx, 124		; 0000007cH
  000fe	8b 10		 mov	 edx, DWORD PTR [eax]
  00100	89 11		 mov	 DWORD PTR [ecx], edx
  00102	8b 50 04	 mov	 edx, DWORD PTR [eax+4]
  00105	89 51 04	 mov	 DWORD PTR [ecx+4], edx
  00108	8b 40 08	 mov	 eax, DWORD PTR [eax+8]
  0010b	89 41 08	 mov	 DWORD PTR [ecx+8], eax

; 186  : 		
; 187  : 		SetViewMatrix(pDev, FALSE) ;

  0010e	6a 00		 push	 0
  00110	8b 45 08	 mov	 eax, DWORD PTR _pDev$[ebp]
  00113	50		 push	 eax
  00114	8b 4d f8	 mov	 ecx, DWORD PTR _this$[ebp]
  00117	e8 00 00 00 00	 call	 ?SetViewMatrix@CCamera@@QAEHPAUIDirect3DDevice8@@H@Z ; CCamera::SetViewMatrix

; 188  : 	}

  0011c	5f		 pop	 edi
  0011d	5e		 pop	 esi
  0011e	5b		 pop	 ebx
  0011f	81 c4 30 01 00
	00		 add	 esp, 304		; 00000130H
  00125	3b ec		 cmp	 ebp, esp
  00127	e8 00 00 00 00	 call	 __RTC_CheckEsp
  0012c	8b e5		 mov	 esp, ebp
  0012e	5d		 pop	 ebp
  0012f	c2 10 00	 ret	 16			; 00000010H
?SetManualFromValues@CCamera@@QAEHPAUIDirect3DDevice8@@MMM@Z ENDP ; CCamera::SetManualFromValues
_TEXT	ENDS
PUBLIC	?SetManualFromInput@CCamera@@QAEHPAUIDirect3DDevice8@@PAVCUserInput@@MM@Z ; CCamera::SetManualFromInput
PUBLIC	__real@437a0000
PUBLIC	__real@42700000
PUBLIC	__real@3f7fbe77
PUBLIC	??XD3DXVECTOR3@@QAEAAU0@M@Z			; D3DXVECTOR3::operator*=
PUBLIC	??0D3DXVECTOR4@@QAE@XZ				; D3DXVECTOR4::D3DXVECTOR4
EXTRN	_D3DXVec3Transform@12:NEAR
EXTRN	_D3DXMatrixMultiply@12:NEAR
EXTRN	_D3DXMatrixTranslation@16:NEAR
EXTRN	_D3DXMatrixRotationY@8:NEAR
EXTRN	_D3DXMatrixRotationAxis@12:NEAR
EXTRN	@_RTC_CheckStackVars@8:NEAR
;	COMDAT __real@437a0000
CONST	SEGMENT
__real@437a0000 DD 0437a0000r			; 250
CONST	ENDS
;	COMDAT __real@42700000
CONST	SEGMENT
__real@42700000 DD 042700000r			; 60
CONST	ENDS
;	COMDAT __real@3f7fbe77
CONST	SEGMENT
__real@3f7fbe77 DD 03f7fbe77r			; 0.999
; Function compile flags: /Odt /RTCsu /ZI
CONST	ENDS
;	COMDAT ?SetManualFromInput@CCamera@@QAEHPAUIDirect3DDevice8@@PAVCUserInput@@MM@Z
_TEXT	SEGMENT
$T84937 = -640
$T84936 = -620
_d$84811 = -408
_fMaxRot$84809 = -396
_d$84807 = -384
_vDir$84802 = -372
_vDir$84796 = -352
_bChanges$ = -332
_vRes$ = -320
_matRes$ = -296
_matTrans2$ = -224
_matTrans1$ = -152
_matRot$ = -80
_this$ = -8
_pDev$ = 8
_pInput$ = 12
_fFPS$ = 16
_fMinY$ = 20
?SetManualFromInput@CCamera@@QAEHPAUIDirect3DDevice8@@PAVCUserInput@@MM@Z PROC NEAR ; CCamera::SetManualFromInput, COMDAT
; _this$ = ecx

; 190  : 	{

  00000	55		 push	 ebp
  00001	8b ec		 mov	 ebp, esp
  00003	81 ec 84 02 00
	00		 sub	 esp, 644		; 00000284H
  00009	53		 push	 ebx
  0000a	56		 push	 esi
  0000b	57		 push	 edi
  0000c	51		 push	 ecx
  0000d	8d bd 7c fd ff
	ff		 lea	 edi, DWORD PTR [ebp-644]
  00013	b9 a1 00 00 00	 mov	 ecx, 161		; 000000a1H
  00018	b8 cc cc cc cc	 mov	 eax, -858993460		; ccccccccH
  0001d	f3 ab		 rep stosd
  0001f	59		 pop	 ecx
  00020	89 4d f8	 mov	 DWORD PTR _this$[ebp], ecx

; 191  : 		xMat matRot, matTrans1, matTrans2, matRes ;

  00023	8d 4d b0	 lea	 ecx, DWORD PTR _matRot$[ebp]
  00026	e8 00 00 00 00	 call	 ??0D3DXMATRIX@@QAE@XZ	; D3DXMATRIX::D3DXMATRIX
  0002b	8d 8d 68 ff ff
	ff		 lea	 ecx, DWORD PTR _matTrans1$[ebp]
  00031	e8 00 00 00 00	 call	 ??0D3DXMATRIX@@QAE@XZ	; D3DXMATRIX::D3DXMATRIX
  00036	8d 8d 20 ff ff
	ff		 lea	 ecx, DWORD PTR _matTrans2$[ebp]
  0003c	e8 00 00 00 00	 call	 ??0D3DXMATRIX@@QAE@XZ	; D3DXMATRIX::D3DXMATRIX
  00041	8d 8d d8 fe ff
	ff		 lea	 ecx, DWORD PTR _matRes$[ebp]
  00047	e8 00 00 00 00	 call	 ??0D3DXMATRIX@@QAE@XZ	; D3DXMATRIX::D3DXMATRIX

; 192  : 		xVec4 vRes ;

  0004c	8d 8d c0 fe ff
	ff		 lea	 ecx, DWORD PTR _vRes$[ebp]
  00052	e8 00 00 00 00	 call	 ??0D3DXVECTOR4@@QAE@XZ	; D3DXVECTOR4::D3DXVECTOR4

; 193  : 		BOOL bChanges = FALSE ;

  00057	c7 85 b4 fe ff
	ff 00 00 00 00	 mov	 DWORD PTR _bChanges$[ebp], 0

; 194  : 		static float fConstantForward = 0 ;
; 195  : 		static float fConstantBackward = 0 ;
; 196  : 
; 197  : 		if( /*pInput->m_bMouseLB ||*/ pInput->m_FlightControls.fAccelerate > 0.0f)

  00061	8b 45 0c	 mov	 eax, DWORD PTR _pInput$[ebp]
  00064	d9 80 ac 08 00
	00		 fld	 DWORD PTR [eax+2220]
  0006a	d8 1d 00 00 00
	00		 fcomp	 DWORD PTR __real@00000000
  00070	df e0		 fnstsw	 ax
  00072	f6 c4 41	 test	 ah, 65			; 00000041H
  00075	0f 85 34 01 00
	00		 jne	 $L84795

; 198  : 		{
; 199  : 		//
; 200  : 		// Move towards the look at point:
; 201  : 		//
; 202  : 			xVec3 vDir ;

  0007b	8d 8d a0 fe ff
	ff		 lea	 ecx, DWORD PTR _vDir$84796[ebp]
  00081	e8 00 00 00 00	 call	 ??0D3DXVECTOR3@@QAE@XZ	; D3DXVECTOR3::D3DXVECTOR3

; 203  : 
; 204  : 			if (fConstantForward < 250.0f)

  00086	d9 05 00 00 00
	00		 fld	 DWORD PTR ?fConstantForward@?1??SetManualFromInput@CCamera@@QAEHPAUIDirect3DDevice8@@PAVCUserInput@@MM@Z@4MA
  0008c	d8 1d 00 00 00
	00		 fcomp	 DWORD PTR __real@437a0000
  00092	df e0		 fnstsw	 ax
  00094	f6 c4 05	 test	 ah, 5
  00097	7a 15		 jp	 SHORT $L84797

; 205  : 				fConstantForward += (60.0f / fFPS) ;

  00099	d9 05 00 00 00
	00		 fld	 DWORD PTR __real@42700000
  0009f	d8 75 10	 fdiv	 DWORD PTR _fFPS$[ebp]
  000a2	d8 05 00 00 00
	00		 fadd	 DWORD PTR ?fConstantForward@?1??SetManualFromInput@CCamera@@QAEHPAUIDirect3DDevice8@@PAVCUserInput@@MM@Z@4MA
  000a8	d9 1d 00 00 00
	00		 fstp	 DWORD PTR ?fConstantForward@?1??SetManualFromInput@CCamera@@QAEHPAUIDirect3DDevice8@@PAVCUserInput@@MM@Z@4MA
$L84797:

; 206  : 
; 207  : 			D3DXVec3Normalize(&vDir, &(m_vLookAtPt - m_vEyePt)) ;

  000ae	8b 45 f8	 mov	 eax, DWORD PTR _this$[ebp]
  000b1	50		 push	 eax
  000b2	8d 8d 94 fd ff
	ff		 lea	 ecx, DWORD PTR $T84936[ebp]
  000b8	51		 push	 ecx
  000b9	8b 4d f8	 mov	 ecx, DWORD PTR _this$[ebp]
  000bc	83 c1 0c	 add	 ecx, 12			; 0000000cH
  000bf	e8 00 00 00 00	 call	 ??GD3DXVECTOR3@@QBE?AU0@ABU0@@Z ; D3DXVECTOR3::operator-
  000c4	50		 push	 eax
  000c5	8d 95 a0 fe ff
	ff		 lea	 edx, DWORD PTR _vDir$84796[ebp]
  000cb	52		 push	 edx
  000cc	e8 00 00 00 00	 call	 _D3DXVec3Normalize@8

; 208  : 			vDir *= (1.0f / fFPS) ;

  000d1	d9 05 00 00 00
	00		 fld	 DWORD PTR __real@3f800000
  000d7	d8 75 10	 fdiv	 DWORD PTR _fFPS$[ebp]
  000da	51		 push	 ecx
  000db	d9 1c 24	 fstp	 DWORD PTR [esp]
  000de	8d 8d a0 fe ff
	ff		 lea	 ecx, DWORD PTR _vDir$84796[ebp]
  000e4	e8 00 00 00 00	 call	 ??XD3DXVECTOR3@@QAEAAU0@M@Z ; D3DXVECTOR3::operator*=

; 209  : 			vDir *= fConstantForward ;

  000e9	a1 00 00 00 00	 mov	 eax, DWORD PTR ?fConstantForward@?1??SetManualFromInput@CCamera@@QAEHPAUIDirect3DDevice8@@PAVCUserInput@@MM@Z@4MA
  000ee	50		 push	 eax
  000ef	8d 8d a0 fe ff
	ff		 lea	 ecx, DWORD PTR _vDir$84796[ebp]
  000f5	e8 00 00 00 00	 call	 ??XD3DXVECTOR3@@QAEAAU0@M@Z ; D3DXVECTOR3::operator*=

; 210  : 			D3DXMatrixTranslation(&matTrans1, vDir.x, vDir.y, vDir.z) ;

  000fa	8b 85 a8 fe ff
	ff		 mov	 eax, DWORD PTR _vDir$84796[ebp+8]
  00100	50		 push	 eax
  00101	8b 8d a4 fe ff
	ff		 mov	 ecx, DWORD PTR _vDir$84796[ebp+4]
  00107	51		 push	 ecx
  00108	8b 95 a0 fe ff
	ff		 mov	 edx, DWORD PTR _vDir$84796[ebp]
  0010e	52		 push	 edx
  0010f	8d 85 68 ff ff
	ff		 lea	 eax, DWORD PTR _matTrans1$[ebp]
  00115	50		 push	 eax
  00116	e8 00 00 00 00	 call	 _D3DXMatrixTranslation@16

; 211  : 
; 212  : 			D3DXVec3Transform(&vRes, &m_vLookAtPt, &matTrans1) ;

  0011b	8d 85 68 ff ff
	ff		 lea	 eax, DWORD PTR _matTrans1$[ebp]
  00121	50		 push	 eax
  00122	8b 4d f8	 mov	 ecx, DWORD PTR _this$[ebp]
  00125	83 c1 0c	 add	 ecx, 12			; 0000000cH
  00128	51		 push	 ecx
  00129	8d 95 c0 fe ff
	ff		 lea	 edx, DWORD PTR _vRes$[ebp]
  0012f	52		 push	 edx
  00130	e8 00 00 00 00	 call	 _D3DXVec3Transform@12

; 213  : 			if (vRes.y > fMinY)

  00135	d9 85 c4 fe ff
	ff		 fld	 DWORD PTR _vRes$[ebp+4]
  0013b	d8 5d 14	 fcomp	 DWORD PTR _fMinY$[ebp]
  0013e	df e0		 fnstsw	 ax
  00140	f6 c4 41	 test	 ah, 65			; 00000041H
  00143	75 68		 jne	 SHORT $L84799

; 214  : 			{
; 215  : 				m_vLookAtPt.x = vRes.x ;

  00145	8b 45 f8	 mov	 eax, DWORD PTR _this$[ebp]
  00148	8b 8d c0 fe ff
	ff		 mov	 ecx, DWORD PTR _vRes$[ebp]
  0014e	89 48 0c	 mov	 DWORD PTR [eax+12], ecx

; 216  : 				m_vLookAtPt.y = vRes.y ;

  00151	8b 45 f8	 mov	 eax, DWORD PTR _this$[ebp]
  00154	8b 8d c4 fe ff
	ff		 mov	 ecx, DWORD PTR _vRes$[ebp+4]
  0015a	89 48 10	 mov	 DWORD PTR [eax+16], ecx

; 217  : 				m_vLookAtPt.z = vRes.z ;

  0015d	8b 45 f8	 mov	 eax, DWORD PTR _this$[ebp]
  00160	8b 8d c8 fe ff
	ff		 mov	 ecx, DWORD PTR _vRes$[ebp+8]
  00166	89 48 14	 mov	 DWORD PTR [eax+20], ecx

; 218  : 				
; 219  : 				D3DXVec3Transform(&vRes, &m_vEyePt, &matTrans1) ;

  00169	8d 85 68 ff ff
	ff		 lea	 eax, DWORD PTR _matTrans1$[ebp]
  0016f	50		 push	 eax
  00170	8b 4d f8	 mov	 ecx, DWORD PTR _this$[ebp]
  00173	51		 push	 ecx
  00174	8d 95 c0 fe ff
	ff		 lea	 edx, DWORD PTR _vRes$[ebp]
  0017a	52		 push	 edx
  0017b	e8 00 00 00 00	 call	 _D3DXVec3Transform@12

; 220  : 				m_vEyePt.x = vRes.x ;

  00180	8b 45 f8	 mov	 eax, DWORD PTR _this$[ebp]
  00183	8b 8d c0 fe ff
	ff		 mov	 ecx, DWORD PTR _vRes$[ebp]
  00189	89 08		 mov	 DWORD PTR [eax], ecx

; 221  : 				m_vEyePt.y = vRes.y ;

  0018b	8b 45 f8	 mov	 eax, DWORD PTR _this$[ebp]
  0018e	8b 8d c4 fe ff
	ff		 mov	 ecx, DWORD PTR _vRes$[ebp+4]
  00194	89 48 04	 mov	 DWORD PTR [eax+4], ecx

; 222  : 				m_vEyePt.z = vRes.z ;

  00197	8b 45 f8	 mov	 eax, DWORD PTR _this$[ebp]
  0019a	8b 8d c8 fe ff
	ff		 mov	 ecx, DWORD PTR _vRes$[ebp+8]
  001a0	89 48 08	 mov	 DWORD PTR [eax+8], ecx

; 223  : 
; 224  : 				bChanges = TRUE ;

  001a3	c7 85 b4 fe ff
	ff 01 00 00 00	 mov	 DWORD PTR _bChanges$[ebp], 1
$L84799:

; 225  : 			}
; 226  : 		}
; 227  : 		else

  001ad	eb 0a		 jmp	 SHORT $L84800
$L84795:

; 228  : 			fConstantForward = 0.0f ;

  001af	c7 05 00 00 00
	00 00 00 00 00	 mov	 DWORD PTR ?fConstantForward@?1??SetManualFromInput@CCamera@@QAEHPAUIDirect3DDevice8@@PAVCUserInput@@MM@Z@4MA, 0
$L84800:

; 229  : 
; 230  : 		if (pInput->m_FlightControls.fBrake > 0.0f)

  001b9	8b 45 0c	 mov	 eax, DWORD PTR _pInput$[ebp]
  001bc	d9 80 b0 08 00
	00		 fld	 DWORD PTR [eax+2224]
  001c2	d8 1d 00 00 00
	00		 fcomp	 DWORD PTR __real@00000000
  001c8	df e0		 fnstsw	 ax
  001ca	f6 c4 41	 test	 ah, 65			; 00000041H
  001cd	0f 85 33 01 00
	00		 jne	 $L84801

; 231  : 		{
; 232  : 		//
; 233  : 		// Move away from the look at point:
; 234  : 		//
; 235  : 			xVec3 vDir ;

  001d3	8d 8d 8c fe ff
	ff		 lea	 ecx, DWORD PTR _vDir$84802[ebp]
  001d9	e8 00 00 00 00	 call	 ??0D3DXVECTOR3@@QAE@XZ	; D3DXVECTOR3::D3DXVECTOR3

; 236  : 
; 237  : 			if (fConstantForward < 250.0f)

  001de	d9 05 00 00 00
	00		 fld	 DWORD PTR ?fConstantForward@?1??SetManualFromInput@CCamera@@QAEHPAUIDirect3DDevice8@@PAVCUserInput@@MM@Z@4MA
  001e4	d8 1d 00 00 00
	00		 fcomp	 DWORD PTR __real@437a0000
  001ea	df e0		 fnstsw	 ax
  001ec	f6 c4 05	 test	 ah, 5
  001ef	7a 15		 jp	 SHORT $L84803

; 238  : 				fConstantBackward += (60.0f / fFPS) ;

  001f1	d9 05 00 00 00
	00		 fld	 DWORD PTR __real@42700000
  001f7	d8 75 10	 fdiv	 DWORD PTR _fFPS$[ebp]
  001fa	d8 05 00 00 00
	00		 fadd	 DWORD PTR ?fConstantBackward@?1??SetManualFromInput@CCamera@@QAEHPAUIDirect3DDevice8@@PAVCUserInput@@MM@Z@4MA
  00200	d9 1d 00 00 00
	00		 fstp	 DWORD PTR ?fConstantBackward@?1??SetManualFromInput@CCamera@@QAEHPAUIDirect3DDevice8@@PAVCUserInput@@MM@Z@4MA
$L84803:

; 239  : 
; 240  : 			D3DXVec3Normalize(&vDir, &(m_vLookAtPt - m_vEyePt)) ;

  00206	8b 45 f8	 mov	 eax, DWORD PTR _this$[ebp]
  00209	50		 push	 eax
  0020a	8d 8d 80 fd ff
	ff		 lea	 ecx, DWORD PTR $T84937[ebp]
  00210	51		 push	 ecx
  00211	8b 4d f8	 mov	 ecx, DWORD PTR _this$[ebp]
  00214	83 c1 0c	 add	 ecx, 12			; 0000000cH
  00217	e8 00 00 00 00	 call	 ??GD3DXVECTOR3@@QBE?AU0@ABU0@@Z ; D3DXVECTOR3::operator-
  0021c	50		 push	 eax
  0021d	8d 95 8c fe ff
	ff		 lea	 edx, DWORD PTR _vDir$84802[ebp]
  00223	52		 push	 edx
  00224	e8 00 00 00 00	 call	 _D3DXVec3Normalize@8

; 241  : 			vDir *= (1.0f / fFPS) ;

  00229	d9 05 00 00 00
	00		 fld	 DWORD PTR __real@3f800000
  0022f	d8 75 10	 fdiv	 DWORD PTR _fFPS$[ebp]
  00232	51		 push	 ecx
  00233	d9 1c 24	 fstp	 DWORD PTR [esp]
  00236	8d 8d 8c fe ff
	ff		 lea	 ecx, DWORD PTR _vDir$84802[ebp]
  0023c	e8 00 00 00 00	 call	 ??XD3DXVECTOR3@@QAEAAU0@M@Z ; D3DXVECTOR3::operator*=

; 242  : 			vDir *= fConstantBackward ;

  00241	a1 00 00 00 00	 mov	 eax, DWORD PTR ?fConstantBackward@?1??SetManualFromInput@CCamera@@QAEHPAUIDirect3DDevice8@@PAVCUserInput@@MM@Z@4MA
  00246	50		 push	 eax
  00247	8d 8d 8c fe ff
	ff		 lea	 ecx, DWORD PTR _vDir$84802[ebp]
  0024d	e8 00 00 00 00	 call	 ??XD3DXVECTOR3@@QAEAAU0@M@Z ; D3DXVECTOR3::operator*=

; 243  : 			D3DXMatrixTranslation(&matTrans1, -vDir.x, -vDir.y, -vDir.z) ;

  00252	d9 85 94 fe ff
	ff		 fld	 DWORD PTR _vDir$84802[ebp+8]
  00258	d9 e0		 fchs
  0025a	51		 push	 ecx
  0025b	d9 1c 24	 fstp	 DWORD PTR [esp]
  0025e	d9 85 90 fe ff
	ff		 fld	 DWORD PTR _vDir$84802[ebp+4]
  00264	d9 e0		 fchs
  00266	51		 push	 ecx
  00267	d9 1c 24	 fstp	 DWORD PTR [esp]
  0026a	d9 85 8c fe ff
	ff		 fld	 DWORD PTR _vDir$84802[ebp]
  00270	d9 e0		 fchs
  00272	51		 push	 ecx
  00273	d9 1c 24	 fstp	 DWORD PTR [esp]
  00276	8d 85 68 ff ff
	ff		 lea	 eax, DWORD PTR _matTrans1$[ebp]
  0027c	50		 push	 eax
  0027d	e8 00 00 00 00	 call	 _D3DXMatrixTranslation@16

; 244  : 
; 245  : 			D3DXVec3Transform(&vRes, &m_vLookAtPt, &matTrans1) ;

  00282	8d 85 68 ff ff
	ff		 lea	 eax, DWORD PTR _matTrans1$[ebp]
  00288	50		 push	 eax
  00289	8b 4d f8	 mov	 ecx, DWORD PTR _this$[ebp]
  0028c	83 c1 0c	 add	 ecx, 12			; 0000000cH
  0028f	51		 push	 ecx
  00290	8d 95 c0 fe ff
	ff		 lea	 edx, DWORD PTR _vRes$[ebp]
  00296	52		 push	 edx
  00297	e8 00 00 00 00	 call	 _D3DXVec3Transform@12

; 246  : 			m_vLookAtPt.x = vRes.x ;

  0029c	8b 45 f8	 mov	 eax, DWORD PTR _this$[ebp]
  0029f	8b 8d c0 fe ff
	ff		 mov	 ecx, DWORD PTR _vRes$[ebp]
  002a5	89 48 0c	 mov	 DWORD PTR [eax+12], ecx

; 247  : 			m_vLookAtPt.y = vRes.y ;

  002a8	8b 45 f8	 mov	 eax, DWORD PTR _this$[ebp]
  002ab	8b 8d c4 fe ff
	ff		 mov	 ecx, DWORD PTR _vRes$[ebp+4]
  002b1	89 48 10	 mov	 DWORD PTR [eax+16], ecx

; 248  : 			m_vLookAtPt.z = vRes.z ;

  002b4	8b 45 f8	 mov	 eax, DWORD PTR _this$[ebp]
  002b7	8b 8d c8 fe ff
	ff		 mov	 ecx, DWORD PTR _vRes$[ebp+8]
  002bd	89 48 14	 mov	 DWORD PTR [eax+20], ecx

; 249  : 			
; 250  : 			D3DXVec3Transform(&vRes, &m_vEyePt, &matTrans1) ;

  002c0	8d 85 68 ff ff
	ff		 lea	 eax, DWORD PTR _matTrans1$[ebp]
  002c6	50		 push	 eax
  002c7	8b 4d f8	 mov	 ecx, DWORD PTR _this$[ebp]
  002ca	51		 push	 ecx
  002cb	8d 95 c0 fe ff
	ff		 lea	 edx, DWORD PTR _vRes$[ebp]
  002d1	52		 push	 edx
  002d2	e8 00 00 00 00	 call	 _D3DXVec3Transform@12

; 251  : 			m_vEyePt.x = vRes.x ;

  002d7	8b 45 f8	 mov	 eax, DWORD PTR _this$[ebp]
  002da	8b 8d c0 fe ff
	ff		 mov	 ecx, DWORD PTR _vRes$[ebp]
  002e0	89 08		 mov	 DWORD PTR [eax], ecx

; 252  : 			m_vEyePt.y = vRes.y ;

  002e2	8b 45 f8	 mov	 eax, DWORD PTR _this$[ebp]
  002e5	8b 8d c4 fe ff
	ff		 mov	 ecx, DWORD PTR _vRes$[ebp+4]
  002eb	89 48 04	 mov	 DWORD PTR [eax+4], ecx

; 253  : 			m_vEyePt.z = vRes.z ;

  002ee	8b 45 f8	 mov	 eax, DWORD PTR _this$[ebp]
  002f1	8b 8d c8 fe ff
	ff		 mov	 ecx, DWORD PTR _vRes$[ebp+8]
  002f7	89 48 08	 mov	 DWORD PTR [eax+8], ecx

; 254  : 
; 255  : 			bChanges = TRUE ;

  002fa	c7 85 b4 fe ff
	ff 01 00 00 00	 mov	 DWORD PTR _bChanges$[ebp], 1

; 256  : 		}
; 257  : 		else

  00304	eb 0a		 jmp	 SHORT $L84805
$L84801:

; 258  : 			fConstantBackward = 0.0f ;

  00306	c7 05 00 00 00
	00 00 00 00 00	 mov	 DWORD PTR ?fConstantBackward@?1??SetManualFromInput@CCamera@@QAEHPAUIDirect3DDevice8@@PAVCUserInput@@MM@Z@4MA, 0
$L84805:

; 259  : 		
; 260  : 		if (pInput->m_fMouseX != 0)

  00310	8b 45 0c	 mov	 eax, DWORD PTR _pInput$[ebp]
  00313	d9 80 54 06 00
	00		 fld	 DWORD PTR [eax+1620]
  00319	d8 1d 00 00 00
	00		 fcomp	 DWORD PTR __real@00000000
  0031f	df e0		 fnstsw	 ax
  00321	f6 c4 44	 test	 ah, 68			; 00000044H
  00324	0f 8b 43 01 00
	00		 jnp	 $L84806

; 261  : 		{
; 262  : 			float d = (pInput->m_fMouseX / 250.0f) * (60.0f / fFPS) ;

  0032a	8b 45 0c	 mov	 eax, DWORD PTR _pInput$[ebp]
  0032d	d9 80 54 06 00
	00		 fld	 DWORD PTR [eax+1620]
  00333	d8 35 00 00 00
	00		 fdiv	 DWORD PTR __real@437a0000
  00339	d9 05 00 00 00
	00		 fld	 DWORD PTR __real@42700000
  0033f	d8 75 10	 fdiv	 DWORD PTR _fFPS$[ebp]
  00342	de c9		 fmulp	 ST(1), ST(0)
  00344	d9 9d 80 fe ff
	ff		 fstp	 DWORD PTR _d$84807[ebp]

; 263  : 
; 264  : 		//
; 265  : 		// Apply the rotation to the mouse's Y axis (spin left and right):
; 266  : 		//
; 267  : 			D3DXMatrixTranslation(&matTrans1, -m_vEyePt.x, -m_vEyePt.y, -m_vEyePt.z) ;

  0034a	8b 45 f8	 mov	 eax, DWORD PTR _this$[ebp]
  0034d	d9 40 08	 fld	 DWORD PTR [eax+8]
  00350	d9 e0		 fchs
  00352	51		 push	 ecx
  00353	d9 1c 24	 fstp	 DWORD PTR [esp]
  00356	8b 4d f8	 mov	 ecx, DWORD PTR _this$[ebp]
  00359	d9 41 04	 fld	 DWORD PTR [ecx+4]
  0035c	d9 e0		 fchs
  0035e	51		 push	 ecx
  0035f	d9 1c 24	 fstp	 DWORD PTR [esp]
  00362	8b 55 f8	 mov	 edx, DWORD PTR _this$[ebp]
  00365	d9 02		 fld	 DWORD PTR [edx]
  00367	d9 e0		 fchs
  00369	51		 push	 ecx
  0036a	d9 1c 24	 fstp	 DWORD PTR [esp]
  0036d	8d 85 68 ff ff
	ff		 lea	 eax, DWORD PTR _matTrans1$[ebp]
  00373	50		 push	 eax
  00374	e8 00 00 00 00	 call	 _D3DXMatrixTranslation@16

; 268  : 			D3DXMatrixRotationY(&matRot, d) ;

  00379	8b 85 80 fe ff
	ff		 mov	 eax, DWORD PTR _d$84807[ebp]
  0037f	50		 push	 eax
  00380	8d 4d b0	 lea	 ecx, DWORD PTR _matRot$[ebp]
  00383	51		 push	 ecx
  00384	e8 00 00 00 00	 call	 _D3DXMatrixRotationY@8

; 269  : 			D3DXMatrixTranslation(&matTrans2, +m_vEyePt.x, +m_vEyePt.y, +m_vEyePt.z) ;

  00389	8b 45 f8	 mov	 eax, DWORD PTR _this$[ebp]
  0038c	8b 48 08	 mov	 ecx, DWORD PTR [eax+8]
  0038f	51		 push	 ecx
  00390	8b 55 f8	 mov	 edx, DWORD PTR _this$[ebp]
  00393	8b 42 04	 mov	 eax, DWORD PTR [edx+4]
  00396	50		 push	 eax
  00397	8b 4d f8	 mov	 ecx, DWORD PTR _this$[ebp]
  0039a	8b 11		 mov	 edx, DWORD PTR [ecx]
  0039c	52		 push	 edx
  0039d	8d 85 20 ff ff
	ff		 lea	 eax, DWORD PTR _matTrans2$[ebp]
  003a3	50		 push	 eax
  003a4	e8 00 00 00 00	 call	 _D3DXMatrixTranslation@16

; 270  : 			D3DXMatrixMultiply(&matRes, &matTrans1, &matRot) ;

  003a9	8d 45 b0	 lea	 eax, DWORD PTR _matRot$[ebp]
  003ac	50		 push	 eax
  003ad	8d 8d 68 ff ff
	ff		 lea	 ecx, DWORD PTR _matTrans1$[ebp]
  003b3	51		 push	 ecx
  003b4	8d 95 d8 fe ff
	ff		 lea	 edx, DWORD PTR _matRes$[ebp]
  003ba	52		 push	 edx
  003bb	e8 00 00 00 00	 call	 _D3DXMatrixMultiply@12

; 271  : 			D3DXMatrixMultiply(&matRes, &matRes, &matTrans2) ;

  003c0	8d 85 20 ff ff
	ff		 lea	 eax, DWORD PTR _matTrans2$[ebp]
  003c6	50		 push	 eax
  003c7	8d 8d d8 fe ff
	ff		 lea	 ecx, DWORD PTR _matRes$[ebp]
  003cd	51		 push	 ecx
  003ce	8d 95 d8 fe ff
	ff		 lea	 edx, DWORD PTR _matRes$[ebp]
  003d4	52		 push	 edx
  003d5	e8 00 00 00 00	 call	 _D3DXMatrixMultiply@12

; 272  : 			D3DXVec3Transform(&vRes, &m_vLookAtPt, &matRes) ;

  003da	8d 85 d8 fe ff
	ff		 lea	 eax, DWORD PTR _matRes$[ebp]
  003e0	50		 push	 eax
  003e1	8b 4d f8	 mov	 ecx, DWORD PTR _this$[ebp]
  003e4	83 c1 0c	 add	 ecx, 12			; 0000000cH
  003e7	51		 push	 ecx
  003e8	8d 95 c0 fe ff
	ff		 lea	 edx, DWORD PTR _vRes$[ebp]
  003ee	52		 push	 edx
  003ef	e8 00 00 00 00	 call	 _D3DXVec3Transform@12

; 273  : 			m_vLookAtPt.x = vRes.x ;

  003f4	8b 45 f8	 mov	 eax, DWORD PTR _this$[ebp]
  003f7	8b 8d c0 fe ff
	ff		 mov	 ecx, DWORD PTR _vRes$[ebp]
  003fd	89 48 0c	 mov	 DWORD PTR [eax+12], ecx

; 274  : 			m_vLookAtPt.z = vRes.z ;

  00400	8b 45 f8	 mov	 eax, DWORD PTR _this$[ebp]
  00403	8b 8d c8 fe ff
	ff		 mov	 ecx, DWORD PTR _vRes$[ebp+8]
  00409	89 48 14	 mov	 DWORD PTR [eax+20], ecx

; 275  : 			m_vLookAtPt.y = vRes.y ;

  0040c	8b 45 f8	 mov	 eax, DWORD PTR _this$[ebp]
  0040f	8b 8d c4 fe ff
	ff		 mov	 ecx, DWORD PTR _vRes$[ebp+4]
  00415	89 48 10	 mov	 DWORD PTR [eax+16], ecx

; 276  : 			
; 277  : 			bChanges = TRUE ;

  00418	c7 85 b4 fe ff
	ff 01 00 00 00	 mov	 DWORD PTR _bChanges$[ebp], 1

; 278  : 
; 279  : 		//
; 280  : 		// Update the camera's relative X axis:
; 281  : 		//
; 282  : 			D3DXMatrixRotationY(&matRot, d) ;

  00422	8b 85 80 fe ff
	ff		 mov	 eax, DWORD PTR _d$84807[ebp]
  00428	50		 push	 eax
  00429	8d 4d b0	 lea	 ecx, DWORD PTR _matRot$[ebp]
  0042c	51		 push	 ecx
  0042d	e8 00 00 00 00	 call	 _D3DXMatrixRotationY@8

; 283  : 			D3DXVec3Transform(&vRes, &m_vMouseRelativeXAxis, &matRot) ;

  00432	8d 45 b0	 lea	 eax, DWORD PTR _matRot$[ebp]
  00435	50		 push	 eax
  00436	8b 4d f8	 mov	 ecx, DWORD PTR _this$[ebp]
  00439	83 c1 70	 add	 ecx, 112		; 00000070H
  0043c	51		 push	 ecx
  0043d	8d 95 c0 fe ff
	ff		 lea	 edx, DWORD PTR _vRes$[ebp]
  00443	52		 push	 edx
  00444	e8 00 00 00 00	 call	 _D3DXVec3Transform@12

; 284  : 			m_vMouseRelativeXAxis.x = vRes.x ;

  00449	8b 45 f8	 mov	 eax, DWORD PTR _this$[ebp]
  0044c	8b 8d c0 fe ff
	ff		 mov	 ecx, DWORD PTR _vRes$[ebp]
  00452	89 48 70	 mov	 DWORD PTR [eax+112], ecx

; 285  : 			m_vMouseRelativeXAxis.z = vRes.z ;

  00455	8b 45 f8	 mov	 eax, DWORD PTR _this$[ebp]
  00458	8b 8d c8 fe ff
	ff		 mov	 ecx, DWORD PTR _vRes$[ebp+8]
  0045e	89 48 78	 mov	 DWORD PTR [eax+120], ecx

; 286  : 			m_vMouseRelativeXAxis.y = vRes.y ;

  00461	8b 45 f8	 mov	 eax, DWORD PTR _this$[ebp]
  00464	8b 8d c4 fe ff
	ff		 mov	 ecx, DWORD PTR _vRes$[ebp+4]
  0046a	89 48 74	 mov	 DWORD PTR [eax+116], ecx
$L84806:

; 287  : 		}
; 288  : 		
; 289  : 		if (pInput->m_fMouseY != 0)

  0046d	8b 45 0c	 mov	 eax, DWORD PTR _pInput$[ebp]
  00470	d9 80 58 06 00
	00		 fld	 DWORD PTR [eax+1624]
  00476	d8 1d 00 00 00
	00		 fcomp	 DWORD PTR __real@00000000
  0047c	df e0		 fnstsw	 ax
  0047e	f6 c4 44	 test	 ah, 68			; 00000044H
  00481	0f 8b 1f 02 00
	00		 jnp	 $L84808

; 290  : 		{
; 291  : 			float fMaxRot = g_PI_DIV_2 * 0.999f /*g_PI * 0.49f*/ ;

  00487	d9 05 00 00 00
	00		 fld	 DWORD PTR _g_PI_DIV_2
  0048d	d8 0d 00 00 00
	00		 fmul	 DWORD PTR __real@3f7fbe77
  00493	d9 9d 74 fe ff
	ff		 fstp	 DWORD PTR _fMaxRot$84809[ebp]

; 292  : 			
; 293  : 
; 294  : 			if (m_fMouseLockCurRot >= -fMaxRot && m_fMouseLockCurRot <= +fMaxRot)

  00499	d9 85 74 fe ff
	ff		 fld	 DWORD PTR _fMaxRot$84809[ebp]
  0049f	d9 e0		 fchs
  004a1	8b 45 f8	 mov	 eax, DWORD PTR _this$[ebp]
  004a4	d8 98 88 00 00
	00		 fcomp	 DWORD PTR [eax+136]
  004aa	df e0		 fnstsw	 ax
  004ac	f6 c4 41	 test	 ah, 65			; 00000041H
  004af	0f 8a f1 01 00
	00		 jp	 $L84808
  004b5	8b 45 f8	 mov	 eax, DWORD PTR _this$[ebp]
  004b8	d9 80 88 00 00
	00		 fld	 DWORD PTR [eax+136]
  004be	d8 9d 74 fe ff
	ff		 fcomp	 DWORD PTR _fMaxRot$84809[ebp]
  004c4	df e0		 fnstsw	 ax
  004c6	f6 c4 41	 test	 ah, 65			; 00000041H
  004c9	0f 8a d7 01 00
	00		 jp	 $L84808

; 295  : 			{
; 296  : 				float d = (pInput->m_fMouseY / 250.0f) * (60.0f / fFPS) ;

  004cf	8b 45 0c	 mov	 eax, DWORD PTR _pInput$[ebp]
  004d2	d9 80 58 06 00
	00		 fld	 DWORD PTR [eax+1624]
  004d8	d8 35 00 00 00
	00		 fdiv	 DWORD PTR __real@437a0000
  004de	d9 05 00 00 00
	00		 fld	 DWORD PTR __real@42700000
  004e4	d8 75 10	 fdiv	 DWORD PTR _fFPS$[ebp]
  004e7	de c9		 fmulp	 ST(1), ST(0)
  004e9	d9 9d 68 fe ff
	ff		 fstp	 DWORD PTR _d$84811[ebp]

; 297  : 				
; 298  : 			//
; 299  : 			// Clamp the rotation:
; 300  : 			//
; 301  : 				if (m_fMouseLockCurRot + d > +fMaxRot)

  004ef	8b 45 f8	 mov	 eax, DWORD PTR _this$[ebp]
  004f2	d9 85 68 fe ff
	ff		 fld	 DWORD PTR _d$84811[ebp]
  004f8	d8 80 88 00 00
	00		 fadd	 DWORD PTR [eax+136]
  004fe	d8 9d 74 fe ff
	ff		 fcomp	 DWORD PTR _fMaxRot$84809[ebp]
  00504	df e0		 fnstsw	 ax
  00506	f6 c4 41	 test	 ah, 65			; 00000041H
  00509	75 15		 jne	 SHORT $L84812

; 302  : 					d = +fMaxRot - m_fMouseLockCurRot ;

  0050b	8b 45 f8	 mov	 eax, DWORD PTR _this$[ebp]
  0050e	d9 85 74 fe ff
	ff		 fld	 DWORD PTR _fMaxRot$84809[ebp]
  00514	d8 a0 88 00 00
	00		 fsub	 DWORD PTR [eax+136]
  0051a	d9 9d 68 fe ff
	ff		 fstp	 DWORD PTR _d$84811[ebp]
$L84812:

; 303  : 				if (m_fMouseLockCurRot + d < -fMaxRot)

  00520	8b 45 f8	 mov	 eax, DWORD PTR _this$[ebp]
  00523	d9 85 68 fe ff
	ff		 fld	 DWORD PTR _d$84811[ebp]
  00529	d8 80 88 00 00
	00		 fadd	 DWORD PTR [eax+136]
  0052f	d9 85 74 fe ff
	ff		 fld	 DWORD PTR _fMaxRot$84809[ebp]
  00535	d9 e0		 fchs
  00537	de d9		 fcompp
  00539	df e0		 fnstsw	 ax
  0053b	f6 c4 41	 test	 ah, 65			; 00000041H
  0053e	75 17		 jne	 SHORT $L84813

; 304  : 					d = -fMaxRot - m_fMouseLockCurRot ;

  00540	d9 85 74 fe ff
	ff		 fld	 DWORD PTR _fMaxRot$84809[ebp]
  00546	d9 e0		 fchs
  00548	8b 45 f8	 mov	 eax, DWORD PTR _this$[ebp]
  0054b	d8 a0 88 00 00
	00		 fsub	 DWORD PTR [eax+136]
  00551	d9 9d 68 fe ff
	ff		 fstp	 DWORD PTR _d$84811[ebp]
$L84813:

; 305  : 				
; 306  : 			//
; 307  : 			// Apply the rotation to the mouse's relative X axis:
; 308  : 			//
; 309  : 				m_fMouseLockCurRot += d ;

  00557	8b 45 f8	 mov	 eax, DWORD PTR _this$[ebp]
  0055a	d9 85 68 fe ff
	ff		 fld	 DWORD PTR _d$84811[ebp]
  00560	d8 80 88 00 00
	00		 fadd	 DWORD PTR [eax+136]
  00566	8b 4d f8	 mov	 ecx, DWORD PTR _this$[ebp]
  00569	d9 99 88 00 00
	00		 fstp	 DWORD PTR [ecx+136]

; 310  : 
; 311  : 				D3DXMatrixTranslation(&matTrans1, -m_vEyePt.x, -m_vEyePt.y, -m_vEyePt.z) ;

  0056f	8b 45 f8	 mov	 eax, DWORD PTR _this$[ebp]
  00572	d9 40 08	 fld	 DWORD PTR [eax+8]
  00575	d9 e0		 fchs
  00577	51		 push	 ecx
  00578	d9 1c 24	 fstp	 DWORD PTR [esp]
  0057b	8b 4d f8	 mov	 ecx, DWORD PTR _this$[ebp]
  0057e	d9 41 04	 fld	 DWORD PTR [ecx+4]
  00581	d9 e0		 fchs
  00583	51		 push	 ecx
  00584	d9 1c 24	 fstp	 DWORD PTR [esp]
  00587	8b 55 f8	 mov	 edx, DWORD PTR _this$[ebp]
  0058a	d9 02		 fld	 DWORD PTR [edx]
  0058c	d9 e0		 fchs
  0058e	51		 push	 ecx
  0058f	d9 1c 24	 fstp	 DWORD PTR [esp]
  00592	8d 85 68 ff ff
	ff		 lea	 eax, DWORD PTR _matTrans1$[ebp]
  00598	50		 push	 eax
  00599	e8 00 00 00 00	 call	 _D3DXMatrixTranslation@16

; 312  : 				D3DXMatrixRotationAxis(&matRot, &m_vMouseRelativeXAxis, d) ;	

  0059e	8b 85 68 fe ff
	ff		 mov	 eax, DWORD PTR _d$84811[ebp]
  005a4	50		 push	 eax
  005a5	8b 4d f8	 mov	 ecx, DWORD PTR _this$[ebp]
  005a8	83 c1 70	 add	 ecx, 112		; 00000070H
  005ab	51		 push	 ecx
  005ac	8d 55 b0	 lea	 edx, DWORD PTR _matRot$[ebp]
  005af	52		 push	 edx
  005b0	e8 00 00 00 00	 call	 _D3DXMatrixRotationAxis@12

; 313  : 				D3DXMatrixTranslation(&matTrans2, +m_vEyePt.x, +m_vEyePt.y, +m_vEyePt.z) ;

  005b5	8b 45 f8	 mov	 eax, DWORD PTR _this$[ebp]
  005b8	8b 48 08	 mov	 ecx, DWORD PTR [eax+8]
  005bb	51		 push	 ecx
  005bc	8b 55 f8	 mov	 edx, DWORD PTR _this$[ebp]
  005bf	8b 42 04	 mov	 eax, DWORD PTR [edx+4]
  005c2	50		 push	 eax
  005c3	8b 4d f8	 mov	 ecx, DWORD PTR _this$[ebp]
  005c6	8b 11		 mov	 edx, DWORD PTR [ecx]
  005c8	52		 push	 edx
  005c9	8d 85 20 ff ff
	ff		 lea	 eax, DWORD PTR _matTrans2$[ebp]
  005cf	50		 push	 eax
  005d0	e8 00 00 00 00	 call	 _D3DXMatrixTranslation@16

; 314  : 				D3DXMatrixMultiply(&matRes, &matTrans1, &matRot) ;

  005d5	8d 45 b0	 lea	 eax, DWORD PTR _matRot$[ebp]
  005d8	50		 push	 eax
  005d9	8d 8d 68 ff ff
	ff		 lea	 ecx, DWORD PTR _matTrans1$[ebp]
  005df	51		 push	 ecx
  005e0	8d 95 d8 fe ff
	ff		 lea	 edx, DWORD PTR _matRes$[ebp]
  005e6	52		 push	 edx
  005e7	e8 00 00 00 00	 call	 _D3DXMatrixMultiply@12

; 315  : 				D3DXMatrixMultiply(&matRes, &matRes, &matTrans2) ;

  005ec	8d 85 20 ff ff
	ff		 lea	 eax, DWORD PTR _matTrans2$[ebp]
  005f2	50		 push	 eax
  005f3	8d 8d d8 fe ff
	ff		 lea	 ecx, DWORD PTR _matRes$[ebp]
  005f9	51		 push	 ecx
  005fa	8d 95 d8 fe ff
	ff		 lea	 edx, DWORD PTR _matRes$[ebp]
  00600	52		 push	 edx
  00601	e8 00 00 00 00	 call	 _D3DXMatrixMultiply@12

; 316  : 				D3DXVec3Transform(&vRes, &m_vLookAtPt, &matRes) ;

  00606	8d 85 d8 fe ff
	ff		 lea	 eax, DWORD PTR _matRes$[ebp]
  0060c	50		 push	 eax
  0060d	8b 4d f8	 mov	 ecx, DWORD PTR _this$[ebp]
  00610	83 c1 0c	 add	 ecx, 12			; 0000000cH
  00613	51		 push	 ecx
  00614	8d 95 c0 fe ff
	ff		 lea	 edx, DWORD PTR _vRes$[ebp]
  0061a	52		 push	 edx
  0061b	e8 00 00 00 00	 call	 _D3DXVec3Transform@12

; 317  : 				m_vLookAtPt.x = vRes.x ;

  00620	8b 45 f8	 mov	 eax, DWORD PTR _this$[ebp]
  00623	8b 8d c0 fe ff
	ff		 mov	 ecx, DWORD PTR _vRes$[ebp]
  00629	89 48 0c	 mov	 DWORD PTR [eax+12], ecx

; 318  : 				m_vLookAtPt.z = vRes.z ;

  0062c	8b 45 f8	 mov	 eax, DWORD PTR _this$[ebp]
  0062f	8b 8d c8 fe ff
	ff		 mov	 ecx, DWORD PTR _vRes$[ebp+8]
  00635	89 48 14	 mov	 DWORD PTR [eax+20], ecx

; 319  : 				m_vLookAtPt.y = vRes.y ;

  00638	8b 45 f8	 mov	 eax, DWORD PTR _this$[ebp]
  0063b	8b 8d c4 fe ff
	ff		 mov	 ecx, DWORD PTR _vRes$[ebp+4]
  00641	89 48 10	 mov	 DWORD PTR [eax+16], ecx

; 320  : 
; 321  : 			//
; 322  : 			// Update the camera's relative Y axis:
; 323  : 			//
; 324  : 				D3DXMatrixRotationAxis(&matRot, &m_vMouseRelativeXAxis, d) ;

  00644	8b 85 68 fe ff
	ff		 mov	 eax, DWORD PTR _d$84811[ebp]
  0064a	50		 push	 eax
  0064b	8b 4d f8	 mov	 ecx, DWORD PTR _this$[ebp]
  0064e	83 c1 70	 add	 ecx, 112		; 00000070H
  00651	51		 push	 ecx
  00652	8d 55 b0	 lea	 edx, DWORD PTR _matRot$[ebp]
  00655	52		 push	 edx
  00656	e8 00 00 00 00	 call	 _D3DXMatrixRotationAxis@12

; 325  : 				D3DXVec3Transform(&vRes, &m_vMouseRelativeYAxis, &matRot) ;

  0065b	8d 45 b0	 lea	 eax, DWORD PTR _matRot$[ebp]
  0065e	50		 push	 eax
  0065f	8b 4d f8	 mov	 ecx, DWORD PTR _this$[ebp]
  00662	83 c1 7c	 add	 ecx, 124		; 0000007cH
  00665	51		 push	 ecx
  00666	8d 95 c0 fe ff
	ff		 lea	 edx, DWORD PTR _vRes$[ebp]
  0066c	52		 push	 edx
  0066d	e8 00 00 00 00	 call	 _D3DXVec3Transform@12

; 326  : 				m_vMouseRelativeYAxis.x = vRes.x ;

  00672	8b 45 f8	 mov	 eax, DWORD PTR _this$[ebp]
  00675	8b 8d c0 fe ff
	ff		 mov	 ecx, DWORD PTR _vRes$[ebp]
  0067b	89 48 7c	 mov	 DWORD PTR [eax+124], ecx

; 327  : 				m_vMouseRelativeYAxis.z = vRes.z ;

  0067e	8b 45 f8	 mov	 eax, DWORD PTR _this$[ebp]
  00681	8b 8d c8 fe ff
	ff		 mov	 ecx, DWORD PTR _vRes$[ebp+8]
  00687	89 88 84 00 00
	00		 mov	 DWORD PTR [eax+132], ecx

; 328  : 				m_vMouseRelativeYAxis.y = vRes.y ;

  0068d	8b 45 f8	 mov	 eax, DWORD PTR _this$[ebp]
  00690	8b 8d c4 fe ff
	ff		 mov	 ecx, DWORD PTR _vRes$[ebp+4]
  00696	89 88 80 00 00
	00		 mov	 DWORD PTR [eax+128], ecx

; 329  : 				
; 330  : 				bChanges = TRUE ;

  0069c	c7 85 b4 fe ff
	ff 01 00 00 00	 mov	 DWORD PTR _bChanges$[ebp], 1
$L84808:

; 331  : 			}
; 332  : 		}
; 333  : 		
; 334  : 		if (bChanges)

  006a6	83 bd b4 fe ff
	ff 00		 cmp	 DWORD PTR _bChanges$[ebp], 0
  006ad	74 0e		 je	 SHORT $L84784

; 335  : 			SetViewMatrix(pDev, FALSE) ;

  006af	6a 00		 push	 0
  006b1	8b 45 08	 mov	 eax, DWORD PTR _pDev$[ebp]
  006b4	50		 push	 eax
  006b5	8b 4d f8	 mov	 ecx, DWORD PTR _this$[ebp]
  006b8	e8 00 00 00 00	 call	 ?SetViewMatrix@CCamera@@QAEHPAUIDirect3DDevice8@@H@Z ; CCamera::SetViewMatrix
$L84784:

; 336  : 	}

  006bd	52		 push	 edx
  006be	8b cd		 mov	 ecx, ebp
  006c0	50		 push	 eax
  006c1	8d 15 00 00 00
	00		 lea	 edx, DWORD PTR $L84952
  006c7	e8 00 00 00 00	 call	 @_RTC_CheckStackVars@8
  006cc	58		 pop	 eax
  006cd	5a		 pop	 edx
  006ce	5f		 pop	 edi
  006cf	5e		 pop	 esi
  006d0	5b		 pop	 ebx
  006d1	81 c4 84 02 00
	00		 add	 esp, 644		; 00000284H
  006d7	3b ec		 cmp	 ebp, esp
  006d9	e8 00 00 00 00	 call	 __RTC_CheckEsp
  006de	8b e5		 mov	 esp, ebp
  006e0	5d		 pop	 ebp
  006e1	c2 10 00	 ret	 16			; 00000010H
$L84952:
  006e4	07 00 00 00	 DD	 7
  006e8	00 00 00 00	 DD	 $L84951
$L84951:
  006ec	b0 ff ff ff	 DD	 -80			; ffffffb0H
  006f0	40 00 00 00	 DD	 64			; 00000040H
  006f4	00 00 00 00	 DD	 $L84944
  006f8	68 ff ff ff	 DD	 -152			; ffffff68H
  006fc	40 00 00 00	 DD	 64			; 00000040H
  00700	00 00 00 00	 DD	 $L84945
  00704	20 ff ff ff	 DD	 -224			; ffffff20H
  00708	40 00 00 00	 DD	 64			; 00000040H
  0070c	00 00 00 00	 DD	 $L84946
  00710	d8 fe ff ff	 DD	 -296			; fffffed8H
  00714	40 00 00 00	 DD	 64			; 00000040H
  00718	00 00 00 00	 DD	 $L84947
  0071c	c0 fe ff ff	 DD	 -320			; fffffec0H
  00720	10 00 00 00	 DD	 16			; 00000010H
  00724	00 00 00 00	 DD	 $L84948
  00728	a0 fe ff ff	 DD	 -352			; fffffea0H
  0072c	0c 00 00 00	 DD	 12			; 0000000cH
  00730	00 00 00 00	 DD	 $L84949
  00734	8c fe ff ff	 DD	 -372			; fffffe8cH
  00738	0c 00 00 00	 DD	 12			; 0000000cH
  0073c	00 00 00 00	 DD	 $L84950
$L84950:
  00740	76		 DB	 118			; 00000076H
  00741	44		 DB	 68			; 00000044H
  00742	69		 DB	 105			; 00000069H
  00743	72		 DB	 114			; 00000072H
  00744	00		 DB	 0
$L84949:
  00745	76		 DB	 118			; 00000076H
  00746	44		 DB	 68			; 00000044H
  00747	69		 DB	 105			; 00000069H
  00748	72		 DB	 114			; 00000072H
  00749	00		 DB	 0
$L84948:
  0074a	76		 DB	 118			; 00000076H
  0074b	52		 DB	 82			; 00000052H
  0074c	65		 DB	 101			; 00000065H
  0074d	73		 DB	 115			; 00000073H
  0074e	00		 DB	 0
$L84947:
  0074f	6d		 DB	 109			; 0000006dH
  00750	61		 DB	 97			; 00000061H
  00751	74		 DB	 116			; 00000074H
  00752	52		 DB	 82			; 00000052H
  00753	65		 DB	 101			; 00000065H
  00754	73		 DB	 115			; 00000073H
  00755	00		 DB	 0
$L84946:
  00756	6d		 DB	 109			; 0000006dH
  00757	61		 DB	 97			; 00000061H
  00758	74		 DB	 116			; 00000074H
  00759	54		 DB	 84			; 00000054H
  0075a	72		 DB	 114			; 00000072H
  0075b	61		 DB	 97			; 00000061H
  0075c	6e		 DB	 110			; 0000006eH
  0075d	73		 DB	 115			; 00000073H
  0075e	32		 DB	 50			; 00000032H
  0075f	00		 DB	 0
$L84945:
  00760	6d		 DB	 109			; 0000006dH
  00761	61		 DB	 97			; 00000061H
  00762	74		 DB	 116			; 00000074H
  00763	54		 DB	 84			; 00000054H
  00764	72		 DB	 114			; 00000072H
  00765	61		 DB	 97			; 00000061H
  00766	6e		 DB	 110			; 0000006eH
  00767	73		 DB	 115			; 00000073H
  00768	31		 DB	 49			; 00000031H
  00769	00		 DB	 0
$L84944:
  0076a	6d		 DB	 109			; 0000006dH
  0076b	61		 DB	 97			; 00000061H
  0076c	74		 DB	 116			; 00000074H
  0076d	52		 DB	 82			; 00000052H
  0076e	6f		 DB	 111			; 0000006fH
  0076f	74		 DB	 116			; 00000074H
  00770	00		 DB	 0
?SetManualFromInput@CCamera@@QAEHPAUIDirect3DDevice8@@PAVCUserInput@@MM@Z ENDP ; CCamera::SetManualFromInput
_TEXT	ENDS
PUBLIC	?SetPresetFromInput@CCamera@@QAEHPAUIDirect3DDevice8@@PAVCUserInput@@@Z ; CCamera::SetPresetFromInput
; Function compile flags: /Odt /RTCsu /ZI
;	COMDAT ?SetPresetFromInput@CCamera@@QAEHPAUIDirect3DDevice8@@PAVCUserInput@@@Z
_TEXT	SEGMENT
$T84979 = -680
$T84978 = -660
$T84977 = -640
$T84976 = -620
$T84975 = -600
$T84974 = -580
$T84973 = -560
$T84972 = -540
$T84971 = -520
$T84970 = -500
$T84969 = -480
$T84968 = -460
$T84967 = -440
$T84966 = -420
$T84965 = -400
$T84964 = -380
$T84963 = -360
$T84962 = -340
$T84961 = -320
$T84960 = -300
$T84959 = -280
$T84958 = -260
$T84957 = -240
$T84956 = -220
_this$ = -8
_pDev$ = 8
_pInput$ = 12
?SetPresetFromInput@CCamera@@QAEHPAUIDirect3DDevice8@@PAVCUserInput@@@Z PROC NEAR ; CCamera::SetPresetFromInput, COMDAT
; _this$ = ecx

; 344  : 	{

  00000	55		 push	 ebp
  00001	8b ec		 mov	 ebp, esp
  00003	81 ec ac 02 00
	00		 sub	 esp, 684		; 000002acH
  00009	53		 push	 ebx
  0000a	56		 push	 esi
  0000b	57		 push	 edi
  0000c	51		 push	 ecx
  0000d	8d bd 54 fd ff
	ff		 lea	 edi, DWORD PTR [ebp-684]
  00013	b9 ab 00 00 00	 mov	 ecx, 171		; 000000abH
  00018	b8 cc cc cc cc	 mov	 eax, -858993460		; ccccccccH
  0001d	f3 ab		 rep stosd
  0001f	59		 pop	 ecx
  00020	89 4d f8	 mov	 DWORD PTR _this$[ebp], ecx

; 345  : 		if (pInput->m_bF5)

  00023	8b 45 0c	 mov	 eax, DWORD PTR _pInput$[ebp]
  00026	83 b8 1c 06 00
	00 00		 cmp	 DWORD PTR [eax+1564], 0
  0002d	0f 84 17 01 00
	00		 je	 $L84820

; 346  : 		{
; 347  : 			m_vEyePt = xVec3(0.0f, 200.0f, 0.0f) ;

  00033	6a 00		 push	 0
  00035	68 00 00 48 43	 push	 1128792064		; 43480000H
  0003a	6a 00		 push	 0
  0003c	8d 8d 24 ff ff
	ff		 lea	 ecx, DWORD PTR $T84956[ebp]
  00042	e8 00 00 00 00	 call	 ??0D3DXVECTOR3@@QAE@MMM@Z ; D3DXVECTOR3::D3DXVECTOR3
  00047	8b 4d f8	 mov	 ecx, DWORD PTR _this$[ebp]
  0004a	8b 10		 mov	 edx, DWORD PTR [eax]
  0004c	89 11		 mov	 DWORD PTR [ecx], edx
  0004e	8b 50 04	 mov	 edx, DWORD PTR [eax+4]
  00051	89 51 04	 mov	 DWORD PTR [ecx+4], edx
  00054	8b 40 08	 mov	 eax, DWORD PTR [eax+8]
  00057	89 41 08	 mov	 DWORD PTR [ecx+8], eax

; 348  : 			m_vLookAtPt = xVec3(0.0f, 200.0f, DIST_FROM_EYE_TO_LOOKAT) ;

  0005a	68 00 00 80 3f	 push	 1065353216		; 3f800000H
  0005f	68 00 00 48 43	 push	 1128792064		; 43480000H
  00064	6a 00		 push	 0
  00066	8d 8d 10 ff ff
	ff		 lea	 ecx, DWORD PTR $T84957[ebp]
  0006c	e8 00 00 00 00	 call	 ??0D3DXVECTOR3@@QAE@MMM@Z ; D3DXVECTOR3::D3DXVECTOR3
  00071	8b 4d f8	 mov	 ecx, DWORD PTR _this$[ebp]
  00074	83 c1 0c	 add	 ecx, 12			; 0000000cH
  00077	8b 10		 mov	 edx, DWORD PTR [eax]
  00079	89 11		 mov	 DWORD PTR [ecx], edx
  0007b	8b 50 04	 mov	 edx, DWORD PTR [eax+4]
  0007e	89 51 04	 mov	 DWORD PTR [ecx+4], edx
  00081	8b 40 08	 mov	 eax, DWORD PTR [eax+8]
  00084	89 41 08	 mov	 DWORD PTR [ecx+8], eax

; 349  : 			m_vUpVec = xVec3(0.0f, 1.0f, 0.0f) ;

  00087	6a 00		 push	 0
  00089	68 00 00 80 3f	 push	 1065353216		; 3f800000H
  0008e	6a 00		 push	 0
  00090	8d 8d fc fe ff
	ff		 lea	 ecx, DWORD PTR $T84958[ebp]
  00096	e8 00 00 00 00	 call	 ??0D3DXVECTOR3@@QAE@MMM@Z ; D3DXVECTOR3::D3DXVECTOR3
  0009b	8b 4d f8	 mov	 ecx, DWORD PTR _this$[ebp]
  0009e	83 c1 18	 add	 ecx, 24			; 00000018H
  000a1	8b 10		 mov	 edx, DWORD PTR [eax]
  000a3	89 11		 mov	 DWORD PTR [ecx], edx
  000a5	8b 50 04	 mov	 edx, DWORD PTR [eax+4]
  000a8	89 51 04	 mov	 DWORD PTR [ecx+4], edx
  000ab	8b 40 08	 mov	 eax, DWORD PTR [eax+8]
  000ae	89 41 08	 mov	 DWORD PTR [ecx+8], eax

; 350  : 			m_vOrientation = xVec3(0.0f, 0.0f, 1.0f) ;

  000b1	68 00 00 80 3f	 push	 1065353216		; 3f800000H
  000b6	6a 00		 push	 0
  000b8	6a 00		 push	 0
  000ba	8d 8d e8 fe ff
	ff		 lea	 ecx, DWORD PTR $T84959[ebp]
  000c0	e8 00 00 00 00	 call	 ??0D3DXVECTOR3@@QAE@MMM@Z ; D3DXVECTOR3::D3DXVECTOR3
  000c5	8b 4d f8	 mov	 ecx, DWORD PTR _this$[ebp]
  000c8	83 c1 24	 add	 ecx, 36			; 00000024H
  000cb	8b 10		 mov	 edx, DWORD PTR [eax]
  000cd	89 11		 mov	 DWORD PTR [ecx], edx
  000cf	8b 50 04	 mov	 edx, DWORD PTR [eax+4]
  000d2	89 51 04	 mov	 DWORD PTR [ecx+4], edx
  000d5	8b 40 08	 mov	 eax, DWORD PTR [eax+8]
  000d8	89 41 08	 mov	 DWORD PTR [ecx+8], eax

; 351  : 			m_vMouseRelativeXAxis = xVec3(1.0f, 0.0f, 0.0f) ;

  000db	6a 00		 push	 0
  000dd	6a 00		 push	 0
  000df	68 00 00 80 3f	 push	 1065353216		; 3f800000H
  000e4	8d 8d d4 fe ff
	ff		 lea	 ecx, DWORD PTR $T84960[ebp]
  000ea	e8 00 00 00 00	 call	 ??0D3DXVECTOR3@@QAE@MMM@Z ; D3DXVECTOR3::D3DXVECTOR3
  000ef	8b 4d f8	 mov	 ecx, DWORD PTR _this$[ebp]
  000f2	83 c1 70	 add	 ecx, 112		; 00000070H
  000f5	8b 10		 mov	 edx, DWORD PTR [eax]
  000f7	89 11		 mov	 DWORD PTR [ecx], edx
  000f9	8b 50 04	 mov	 edx, DWORD PTR [eax+4]
  000fc	89 51 04	 mov	 DWORD PTR [ecx+4], edx
  000ff	8b 40 08	 mov	 eax, DWORD PTR [eax+8]
  00102	89 41 08	 mov	 DWORD PTR [ecx+8], eax

; 352  : 			m_fMouseLockCurRot = 0.0f ;

  00105	8b 45 f8	 mov	 eax, DWORD PTR _this$[ebp]
  00108	c7 80 88 00 00
	00 00 00 00 00	 mov	 DWORD PTR [eax+136], 0

; 353  : 			m_vMouseRelativeYAxis = xVec3(0.0f, 1.0f, 0.0f) ;

  00112	6a 00		 push	 0
  00114	68 00 00 80 3f	 push	 1065353216		; 3f800000H
  00119	6a 00		 push	 0
  0011b	8d 8d c0 fe ff
	ff		 lea	 ecx, DWORD PTR $T84961[ebp]
  00121	e8 00 00 00 00	 call	 ??0D3DXVECTOR3@@QAE@MMM@Z ; D3DXVECTOR3::D3DXVECTOR3
  00126	8b 4d f8	 mov	 ecx, DWORD PTR _this$[ebp]
  00129	83 c1 7c	 add	 ecx, 124		; 0000007cH
  0012c	8b 10		 mov	 edx, DWORD PTR [eax]
  0012e	89 11		 mov	 DWORD PTR [ecx], edx
  00130	8b 50 04	 mov	 edx, DWORD PTR [eax+4]
  00133	89 51 04	 mov	 DWORD PTR [ecx+4], edx
  00136	8b 40 08	 mov	 eax, DWORD PTR [eax+8]
  00139	89 41 08	 mov	 DWORD PTR [ecx+8], eax

; 354  : 			SetViewMatrix(pDev, FALSE) ;

  0013c	6a 00		 push	 0
  0013e	8b 45 08	 mov	 eax, DWORD PTR _pDev$[ebp]
  00141	50		 push	 eax
  00142	8b 4d f8	 mov	 ecx, DWORD PTR _this$[ebp]
  00145	e8 00 00 00 00	 call	 ?SetViewMatrix@CCamera@@QAEHPAUIDirect3DDevice8@@H@Z ; CCamera::SetViewMatrix
$L84820:

; 355  : 		}
; 356  : 		if (pInput->m_bF6)

  0014a	8b 45 0c	 mov	 eax, DWORD PTR _pInput$[ebp]
  0014d	83 b8 20 06 00
	00 00		 cmp	 DWORD PTR [eax+1568], 0
  00154	0f 84 17 01 00
	00		 je	 $L84827

; 357  : 		{
; 358  : 			m_vEyePt = xVec3(0.0f, 9000.0f, 0.0f) ;

  0015a	6a 00		 push	 0
  0015c	68 00 a0 0c 46	 push	 1175232512		; 460ca000H
  00161	6a 00		 push	 0
  00163	8d 8d ac fe ff
	ff		 lea	 ecx, DWORD PTR $T84962[ebp]
  00169	e8 00 00 00 00	 call	 ??0D3DXVECTOR3@@QAE@MMM@Z ; D3DXVECTOR3::D3DXVECTOR3
  0016e	8b 4d f8	 mov	 ecx, DWORD PTR _this$[ebp]
  00171	8b 10		 mov	 edx, DWORD PTR [eax]
  00173	89 11		 mov	 DWORD PTR [ecx], edx
  00175	8b 50 04	 mov	 edx, DWORD PTR [eax+4]
  00178	89 51 04	 mov	 DWORD PTR [ecx+4], edx
  0017b	8b 40 08	 mov	 eax, DWORD PTR [eax+8]
  0017e	89 41 08	 mov	 DWORD PTR [ecx+8], eax

; 359  : 			m_vLookAtPt = xVec3(0.0f, 9000.0f, DIST_FROM_EYE_TO_LOOKAT) ;

  00181	68 00 00 80 3f	 push	 1065353216		; 3f800000H
  00186	68 00 a0 0c 46	 push	 1175232512		; 460ca000H
  0018b	6a 00		 push	 0
  0018d	8d 8d 98 fe ff
	ff		 lea	 ecx, DWORD PTR $T84963[ebp]
  00193	e8 00 00 00 00	 call	 ??0D3DXVECTOR3@@QAE@MMM@Z ; D3DXVECTOR3::D3DXVECTOR3
  00198	8b 4d f8	 mov	 ecx, DWORD PTR _this$[ebp]
  0019b	83 c1 0c	 add	 ecx, 12			; 0000000cH
  0019e	8b 10		 mov	 edx, DWORD PTR [eax]
  001a0	89 11		 mov	 DWORD PTR [ecx], edx
  001a2	8b 50 04	 mov	 edx, DWORD PTR [eax+4]
  001a5	89 51 04	 mov	 DWORD PTR [ecx+4], edx
  001a8	8b 40 08	 mov	 eax, DWORD PTR [eax+8]
  001ab	89 41 08	 mov	 DWORD PTR [ecx+8], eax

; 360  : 			m_vUpVec = xVec3(0, 1, 0) ;

  001ae	6a 00		 push	 0
  001b0	68 00 00 80 3f	 push	 1065353216		; 3f800000H
  001b5	6a 00		 push	 0
  001b7	8d 8d 84 fe ff
	ff		 lea	 ecx, DWORD PTR $T84964[ebp]
  001bd	e8 00 00 00 00	 call	 ??0D3DXVECTOR3@@QAE@MMM@Z ; D3DXVECTOR3::D3DXVECTOR3
  001c2	8b 4d f8	 mov	 ecx, DWORD PTR _this$[ebp]
  001c5	83 c1 18	 add	 ecx, 24			; 00000018H
  001c8	8b 10		 mov	 edx, DWORD PTR [eax]
  001ca	89 11		 mov	 DWORD PTR [ecx], edx
  001cc	8b 50 04	 mov	 edx, DWORD PTR [eax+4]
  001cf	89 51 04	 mov	 DWORD PTR [ecx+4], edx
  001d2	8b 40 08	 mov	 eax, DWORD PTR [eax+8]
  001d5	89 41 08	 mov	 DWORD PTR [ecx+8], eax

; 361  : 			m_vOrientation = xVec3(0.0f, 0.0f, 1.0f) ;

  001d8	68 00 00 80 3f	 push	 1065353216		; 3f800000H
  001dd	6a 00		 push	 0
  001df	6a 00		 push	 0
  001e1	8d 8d 70 fe ff
	ff		 lea	 ecx, DWORD PTR $T84965[ebp]
  001e7	e8 00 00 00 00	 call	 ??0D3DXVECTOR3@@QAE@MMM@Z ; D3DXVECTOR3::D3DXVECTOR3
  001ec	8b 4d f8	 mov	 ecx, DWORD PTR _this$[ebp]
  001ef	83 c1 24	 add	 ecx, 36			; 00000024H
  001f2	8b 10		 mov	 edx, DWORD PTR [eax]
  001f4	89 11		 mov	 DWORD PTR [ecx], edx
  001f6	8b 50 04	 mov	 edx, DWORD PTR [eax+4]
  001f9	89 51 04	 mov	 DWORD PTR [ecx+4], edx
  001fc	8b 40 08	 mov	 eax, DWORD PTR [eax+8]
  001ff	89 41 08	 mov	 DWORD PTR [ecx+8], eax

; 362  : 			m_vMouseRelativeXAxis = xVec3(1.0f, 0.0f, 0.0f) ;

  00202	6a 00		 push	 0
  00204	6a 00		 push	 0
  00206	68 00 00 80 3f	 push	 1065353216		; 3f800000H
  0020b	8d 8d 5c fe ff
	ff		 lea	 ecx, DWORD PTR $T84966[ebp]
  00211	e8 00 00 00 00	 call	 ??0D3DXVECTOR3@@QAE@MMM@Z ; D3DXVECTOR3::D3DXVECTOR3
  00216	8b 4d f8	 mov	 ecx, DWORD PTR _this$[ebp]
  00219	83 c1 70	 add	 ecx, 112		; 00000070H
  0021c	8b 10		 mov	 edx, DWORD PTR [eax]
  0021e	89 11		 mov	 DWORD PTR [ecx], edx
  00220	8b 50 04	 mov	 edx, DWORD PTR [eax+4]
  00223	89 51 04	 mov	 DWORD PTR [ecx+4], edx
  00226	8b 40 08	 mov	 eax, DWORD PTR [eax+8]
  00229	89 41 08	 mov	 DWORD PTR [ecx+8], eax

; 363  : 			m_fMouseLockCurRot = 0.0f ;

  0022c	8b 45 f8	 mov	 eax, DWORD PTR _this$[ebp]
  0022f	c7 80 88 00 00
	00 00 00 00 00	 mov	 DWORD PTR [eax+136], 0

; 364  : 			m_vMouseRelativeYAxis = xVec3(0.0f, 1.0f, 0.0f) ;

  00239	6a 00		 push	 0
  0023b	68 00 00 80 3f	 push	 1065353216		; 3f800000H
  00240	6a 00		 push	 0
  00242	8d 8d 48 fe ff
	ff		 lea	 ecx, DWORD PTR $T84967[ebp]
  00248	e8 00 00 00 00	 call	 ??0D3DXVECTOR3@@QAE@MMM@Z ; D3DXVECTOR3::D3DXVECTOR3
  0024d	8b 4d f8	 mov	 ecx, DWORD PTR _this$[ebp]
  00250	83 c1 7c	 add	 ecx, 124		; 0000007cH
  00253	8b 10		 mov	 edx, DWORD PTR [eax]
  00255	89 11		 mov	 DWORD PTR [ecx], edx
  00257	8b 50 04	 mov	 edx, DWORD PTR [eax+4]
  0025a	89 51 04	 mov	 DWORD PTR [ecx+4], edx
  0025d	8b 40 08	 mov	 eax, DWORD PTR [eax+8]
  00260	89 41 08	 mov	 DWORD PTR [ecx+8], eax

; 365  : 			SetViewMatrix(pDev, FALSE) ;

  00263	6a 00		 push	 0
  00265	8b 45 08	 mov	 eax, DWORD PTR _pDev$[ebp]
  00268	50		 push	 eax
  00269	8b 4d f8	 mov	 ecx, DWORD PTR _this$[ebp]
  0026c	e8 00 00 00 00	 call	 ?SetViewMatrix@CCamera@@QAEHPAUIDirect3DDevice8@@H@Z ; CCamera::SetViewMatrix
$L84827:

; 366  : 		}
; 367  : 		if (pInput->m_bF7)

  00271	8b 45 0c	 mov	 eax, DWORD PTR _pInput$[ebp]
  00274	83 b8 24 06 00
	00 00		 cmp	 DWORD PTR [eax+1572], 0
  0027b	0f 84 17 01 00
	00		 je	 $L84834

; 368  : 		{
; 369  : 			m_vEyePt = xVec3(0.0f, 100000.0f, 0.0f) ;

  00281	6a 00		 push	 0
  00283	68 00 50 c3 47	 push	 1203982336		; 47c35000H
  00288	6a 00		 push	 0
  0028a	8d 8d 34 fe ff
	ff		 lea	 ecx, DWORD PTR $T84968[ebp]
  00290	e8 00 00 00 00	 call	 ??0D3DXVECTOR3@@QAE@MMM@Z ; D3DXVECTOR3::D3DXVECTOR3
  00295	8b 4d f8	 mov	 ecx, DWORD PTR _this$[ebp]
  00298	8b 10		 mov	 edx, DWORD PTR [eax]
  0029a	89 11		 mov	 DWORD PTR [ecx], edx
  0029c	8b 50 04	 mov	 edx, DWORD PTR [eax+4]
  0029f	89 51 04	 mov	 DWORD PTR [ecx+4], edx
  002a2	8b 40 08	 mov	 eax, DWORD PTR [eax+8]
  002a5	89 41 08	 mov	 DWORD PTR [ecx+8], eax

; 370  : 			m_vLookAtPt = xVec3(0.0f, 100000.0f, DIST_FROM_EYE_TO_LOOKAT) ;

  002a8	68 00 00 80 3f	 push	 1065353216		; 3f800000H
  002ad	68 00 50 c3 47	 push	 1203982336		; 47c35000H
  002b2	6a 00		 push	 0
  002b4	8d 8d 20 fe ff
	ff		 lea	 ecx, DWORD PTR $T84969[ebp]
  002ba	e8 00 00 00 00	 call	 ??0D3DXVECTOR3@@QAE@MMM@Z ; D3DXVECTOR3::D3DXVECTOR3
  002bf	8b 4d f8	 mov	 ecx, DWORD PTR _this$[ebp]
  002c2	83 c1 0c	 add	 ecx, 12			; 0000000cH
  002c5	8b 10		 mov	 edx, DWORD PTR [eax]
  002c7	89 11		 mov	 DWORD PTR [ecx], edx
  002c9	8b 50 04	 mov	 edx, DWORD PTR [eax+4]
  002cc	89 51 04	 mov	 DWORD PTR [ecx+4], edx
  002cf	8b 40 08	 mov	 eax, DWORD PTR [eax+8]
  002d2	89 41 08	 mov	 DWORD PTR [ecx+8], eax

; 371  : 			m_vUpVec = xVec3(0.0f, 1.0f, 0.0f) ;

  002d5	6a 00		 push	 0
  002d7	68 00 00 80 3f	 push	 1065353216		; 3f800000H
  002dc	6a 00		 push	 0
  002de	8d 8d 0c fe ff
	ff		 lea	 ecx, DWORD PTR $T84970[ebp]
  002e4	e8 00 00 00 00	 call	 ??0D3DXVECTOR3@@QAE@MMM@Z ; D3DXVECTOR3::D3DXVECTOR3
  002e9	8b 4d f8	 mov	 ecx, DWORD PTR _this$[ebp]
  002ec	83 c1 18	 add	 ecx, 24			; 00000018H
  002ef	8b 10		 mov	 edx, DWORD PTR [eax]
  002f1	89 11		 mov	 DWORD PTR [ecx], edx
  002f3	8b 50 04	 mov	 edx, DWORD PTR [eax+4]
  002f6	89 51 04	 mov	 DWORD PTR [ecx+4], edx
  002f9	8b 40 08	 mov	 eax, DWORD PTR [eax+8]
  002fc	89 41 08	 mov	 DWORD PTR [ecx+8], eax

; 372  : 			m_vOrientation = xVec3(0.0f, 0.0f, 1.0f) ;

  002ff	68 00 00 80 3f	 push	 1065353216		; 3f800000H
  00304	6a 00		 push	 0
  00306	6a 00		 push	 0
  00308	8d 8d f8 fd ff
	ff		 lea	 ecx, DWORD PTR $T84971[ebp]
  0030e	e8 00 00 00 00	 call	 ??0D3DXVECTOR3@@QAE@MMM@Z ; D3DXVECTOR3::D3DXVECTOR3
  00313	8b 4d f8	 mov	 ecx, DWORD PTR _this$[ebp]
  00316	83 c1 24	 add	 ecx, 36			; 00000024H
  00319	8b 10		 mov	 edx, DWORD PTR [eax]
  0031b	89 11		 mov	 DWORD PTR [ecx], edx
  0031d	8b 50 04	 mov	 edx, DWORD PTR [eax+4]
  00320	89 51 04	 mov	 DWORD PTR [ecx+4], edx
  00323	8b 40 08	 mov	 eax, DWORD PTR [eax+8]
  00326	89 41 08	 mov	 DWORD PTR [ecx+8], eax

; 373  : 			m_vMouseRelativeXAxis = xVec3(1.0f, 0.0f, 0.0f) ;

  00329	6a 00		 push	 0
  0032b	6a 00		 push	 0
  0032d	68 00 00 80 3f	 push	 1065353216		; 3f800000H
  00332	8d 8d e4 fd ff
	ff		 lea	 ecx, DWORD PTR $T84972[ebp]
  00338	e8 00 00 00 00	 call	 ??0D3DXVECTOR3@@QAE@MMM@Z ; D3DXVECTOR3::D3DXVECTOR3
  0033d	8b 4d f8	 mov	 ecx, DWORD PTR _this$[ebp]
  00340	83 c1 70	 add	 ecx, 112		; 00000070H
  00343	8b 10		 mov	 edx, DWORD PTR [eax]
  00345	89 11		 mov	 DWORD PTR [ecx], edx
  00347	8b 50 04	 mov	 edx, DWORD PTR [eax+4]
  0034a	89 51 04	 mov	 DWORD PTR [ecx+4], edx
  0034d	8b 40 08	 mov	 eax, DWORD PTR [eax+8]
  00350	89 41 08	 mov	 DWORD PTR [ecx+8], eax

; 374  : 			m_fMouseLockCurRot = 0.0f ;

  00353	8b 45 f8	 mov	 eax, DWORD PTR _this$[ebp]
  00356	c7 80 88 00 00
	00 00 00 00 00	 mov	 DWORD PTR [eax+136], 0

; 375  : 			m_vMouseRelativeYAxis = xVec3(0.0f, 1.0f, 0.0f) ;

  00360	6a 00		 push	 0
  00362	68 00 00 80 3f	 push	 1065353216		; 3f800000H
  00367	6a 00		 push	 0
  00369	8d 8d d0 fd ff
	ff		 lea	 ecx, DWORD PTR $T84973[ebp]
  0036f	e8 00 00 00 00	 call	 ??0D3DXVECTOR3@@QAE@MMM@Z ; D3DXVECTOR3::D3DXVECTOR3
  00374	8b 4d f8	 mov	 ecx, DWORD PTR _this$[ebp]
  00377	83 c1 7c	 add	 ecx, 124		; 0000007cH
  0037a	8b 10		 mov	 edx, DWORD PTR [eax]
  0037c	89 11		 mov	 DWORD PTR [ecx], edx
  0037e	8b 50 04	 mov	 edx, DWORD PTR [eax+4]
  00381	89 51 04	 mov	 DWORD PTR [ecx+4], edx
  00384	8b 40 08	 mov	 eax, DWORD PTR [eax+8]
  00387	89 41 08	 mov	 DWORD PTR [ecx+8], eax

; 376  : 			SetViewMatrix(pDev, FALSE) ;

  0038a	6a 00		 push	 0
  0038c	8b 45 08	 mov	 eax, DWORD PTR _pDev$[ebp]
  0038f	50		 push	 eax
  00390	8b 4d f8	 mov	 ecx, DWORD PTR _this$[ebp]
  00393	e8 00 00 00 00	 call	 ?SetViewMatrix@CCamera@@QAEHPAUIDirect3DDevice8@@H@Z ; CCamera::SetViewMatrix
$L84834:

; 377  : 		}
; 378  : 		if (pInput->m_bF8)

  00398	8b 45 0c	 mov	 eax, DWORD PTR _pInput$[ebp]
  0039b	83 b8 28 06 00
	00 00		 cmp	 DWORD PTR [eax+1576], 0
  003a2	0f 84 14 01 00
	00		 je	 $L84819

; 379  : 		{
; 380  : 			m_vEyePt = xVec3(0.0f, 0.0f, -2.0f) ;

  003a8	68 00 00 00 c0	 push	 -1073741824		; c0000000H
  003ad	6a 00		 push	 0
  003af	6a 00		 push	 0
  003b1	8d 8d bc fd ff
	ff		 lea	 ecx, DWORD PTR $T84974[ebp]
  003b7	e8 00 00 00 00	 call	 ??0D3DXVECTOR3@@QAE@MMM@Z ; D3DXVECTOR3::D3DXVECTOR3
  003bc	8b 4d f8	 mov	 ecx, DWORD PTR _this$[ebp]
  003bf	8b 10		 mov	 edx, DWORD PTR [eax]
  003c1	89 11		 mov	 DWORD PTR [ecx], edx
  003c3	8b 50 04	 mov	 edx, DWORD PTR [eax+4]
  003c6	89 51 04	 mov	 DWORD PTR [ecx+4], edx
  003c9	8b 40 08	 mov	 eax, DWORD PTR [eax+8]
  003cc	89 41 08	 mov	 DWORD PTR [ecx+8], eax

; 381  : 			m_vLookAtPt = xVec3(0.0f, 0.0f, -2.0f + DIST_FROM_EYE_TO_LOOKAT) ;

  003cf	68 00 00 80 bf	 push	 -1082130432		; bf800000H
  003d4	6a 00		 push	 0
  003d6	6a 00		 push	 0
  003d8	8d 8d a8 fd ff
	ff		 lea	 ecx, DWORD PTR $T84975[ebp]
  003de	e8 00 00 00 00	 call	 ??0D3DXVECTOR3@@QAE@MMM@Z ; D3DXVECTOR3::D3DXVECTOR3
  003e3	8b 4d f8	 mov	 ecx, DWORD PTR _this$[ebp]
  003e6	83 c1 0c	 add	 ecx, 12			; 0000000cH
  003e9	8b 10		 mov	 edx, DWORD PTR [eax]
  003eb	89 11		 mov	 DWORD PTR [ecx], edx
  003ed	8b 50 04	 mov	 edx, DWORD PTR [eax+4]
  003f0	89 51 04	 mov	 DWORD PTR [ecx+4], edx
  003f3	8b 40 08	 mov	 eax, DWORD PTR [eax+8]
  003f6	89 41 08	 mov	 DWORD PTR [ecx+8], eax

; 382  : 			m_vUpVec = xVec3(0.0f, 1.0f, 0.0f) ;

  003f9	6a 00		 push	 0
  003fb	68 00 00 80 3f	 push	 1065353216		; 3f800000H
  00400	6a 00		 push	 0
  00402	8d 8d 94 fd ff
	ff		 lea	 ecx, DWORD PTR $T84976[ebp]
  00408	e8 00 00 00 00	 call	 ??0D3DXVECTOR3@@QAE@MMM@Z ; D3DXVECTOR3::D3DXVECTOR3
  0040d	8b 4d f8	 mov	 ecx, DWORD PTR _this$[ebp]
  00410	83 c1 18	 add	 ecx, 24			; 00000018H
  00413	8b 10		 mov	 edx, DWORD PTR [eax]
  00415	89 11		 mov	 DWORD PTR [ecx], edx
  00417	8b 50 04	 mov	 edx, DWORD PTR [eax+4]
  0041a	89 51 04	 mov	 DWORD PTR [ecx+4], edx
  0041d	8b 40 08	 mov	 eax, DWORD PTR [eax+8]
  00420	89 41 08	 mov	 DWORD PTR [ecx+8], eax

; 383  : 			m_vOrientation = xVec3(0.0f, 0.0f, 1.0f) ;

  00423	68 00 00 80 3f	 push	 1065353216		; 3f800000H
  00428	6a 00		 push	 0
  0042a	6a 00		 push	 0
  0042c	8d 8d 80 fd ff
	ff		 lea	 ecx, DWORD PTR $T84977[ebp]
  00432	e8 00 00 00 00	 call	 ??0D3DXVECTOR3@@QAE@MMM@Z ; D3DXVECTOR3::D3DXVECTOR3
  00437	8b 4d f8	 mov	 ecx, DWORD PTR _this$[ebp]
  0043a	83 c1 24	 add	 ecx, 36			; 00000024H
  0043d	8b 10		 mov	 edx, DWORD PTR [eax]
  0043f	89 11		 mov	 DWORD PTR [ecx], edx
  00441	8b 50 04	 mov	 edx, DWORD PTR [eax+4]
  00444	89 51 04	 mov	 DWORD PTR [ecx+4], edx
  00447	8b 40 08	 mov	 eax, DWORD PTR [eax+8]
  0044a	89 41 08	 mov	 DWORD PTR [ecx+8], eax

; 384  : 			m_vMouseRelativeXAxis = xVec3(1.0f, 0.0f, 0.0f) ;

  0044d	6a 00		 push	 0
  0044f	6a 00		 push	 0
  00451	68 00 00 80 3f	 push	 1065353216		; 3f800000H
  00456	8d 8d 6c fd ff
	ff		 lea	 ecx, DWORD PTR $T84978[ebp]
  0045c	e8 00 00 00 00	 call	 ??0D3DXVECTOR3@@QAE@MMM@Z ; D3DXVECTOR3::D3DXVECTOR3
  00461	8b 4d f8	 mov	 ecx, DWORD PTR _this$[ebp]
  00464	83 c1 70	 add	 ecx, 112		; 00000070H
  00467	8b 10		 mov	 edx, DWORD PTR [eax]
  00469	89 11		 mov	 DWORD PTR [ecx], edx
  0046b	8b 50 04	 mov	 edx, DWORD PTR [eax+4]
  0046e	89 51 04	 mov	 DWORD PTR [ecx+4], edx
  00471	8b 40 08	 mov	 eax, DWORD PTR [eax+8]
  00474	89 41 08	 mov	 DWORD PTR [ecx+8], eax

; 385  : 			m_fMouseLockCurRot = 0.0f ;

  00477	8b 45 f8	 mov	 eax, DWORD PTR _this$[ebp]
  0047a	c7 80 88 00 00
	00 00 00 00 00	 mov	 DWORD PTR [eax+136], 0

; 386  : 			m_vMouseRelativeYAxis = xVec3(0.0f, 1.0f, 0.0f) ;

  00484	6a 00		 push	 0
  00486	68 00 00 80 3f	 push	 1065353216		; 3f800000H
  0048b	6a 00		 push	 0
  0048d	8d 8d 58 fd ff
	ff		 lea	 ecx, DWORD PTR $T84979[ebp]
  00493	e8 00 00 00 00	 call	 ??0D3DXVECTOR3@@QAE@MMM@Z ; D3DXVECTOR3::D3DXVECTOR3
  00498	8b 4d f8	 mov	 ecx, DWORD PTR _this$[ebp]
  0049b	83 c1 7c	 add	 ecx, 124		; 0000007cH
  0049e	8b 10		 mov	 edx, DWORD PTR [eax]
  004a0	89 11		 mov	 DWORD PTR [ecx], edx
  004a2	8b 50 04	 mov	 edx, DWORD PTR [eax+4]
  004a5	89 51 04	 mov	 DWORD PTR [ecx+4], edx
  004a8	8b 40 08	 mov	 eax, DWORD PTR [eax+8]
  004ab	89 41 08	 mov	 DWORD PTR [ecx+8], eax

; 387  : 			SetViewMatrix(pDev, FALSE) ;

  004ae	6a 00		 push	 0
  004b0	8b 45 08	 mov	 eax, DWORD PTR _pDev$[ebp]
  004b3	50		 push	 eax
  004b4	8b 4d f8	 mov	 ecx, DWORD PTR _this$[ebp]
  004b7	e8 00 00 00 00	 call	 ?SetViewMatrix@CCamera@@QAEHPAUIDirect3DDevice8@@H@Z ; CCamera::SetViewMatrix
$L84819:

; 388  : 		}
; 389  : 	}

  004bc	5f		 pop	 edi
  004bd	5e		 pop	 esi
  004be	5b		 pop	 ebx
  004bf	81 c4 ac 02 00
	00		 add	 esp, 684		; 000002acH
  004c5	3b ec		 cmp	 ebp, esp
  004c7	e8 00 00 00 00	 call	 __RTC_CheckEsp
  004cc	8b e5		 mov	 esp, ebp
  004ce	5d		 pop	 ebp
  004cf	c2 08 00	 ret	 8
?SetPresetFromInput@CCamera@@QAEHPAUIDirect3DDevice8@@PAVCUserInput@@@Z ENDP ; CCamera::SetPresetFromInput
_TEXT	ENDS
PUBLIC	?SetShowoff@CCamera@@QAEHPAUIDirect3DDevice8@@PAUD3DXVECTOR3@@MMMMM@Z ; CCamera::SetShowoff
PUBLIC	??DD3DXVECTOR3@@QBE?AU0@M@Z			; D3DXVECTOR3::operator*
EXTRN	_D3DXMatrixRotationYawPitchRoll@16:NEAR
_BSS	SEGMENT
?vOrientation@?1??SetShowoff@CCamera@@QAEHPAUIDirect3DDevice8@@PAUD3DXVECTOR3@@MMMMM@Z@4U4@A DB 0cH DUP (?) ; `CCamera::SetShowoff'::`2'::vOrientation
?$S2@?1??SetShowoff@CCamera@@QAEHPAUIDirect3DDevice8@@PAUD3DXVECTOR3@@MMMMM@Z@4IA DD 01H DUP (?) ; `CCamera::SetShowoff'::`2'::$S2
; Function compile flags: /Odt /RTCsu /ZI
_BSS	ENDS
;	COMDAT ?SetShowoff@CCamera@@QAEHPAUIDirect3DDevice8@@PAUD3DXVECTOR3@@MMMMM@Z
_TEXT	SEGMENT
$T84983 = -336
$T84982 = -316
_v$ = -104
_matRot$ = -80
_this$ = -8
_pDev$ = 8
_vCenter$ = 12
_fRadius$ = 16
_fFPS$ = 20
_fYaw$ = 24
_fPitch$ = 28
_fRoll$ = 32
?SetShowoff@CCamera@@QAEHPAUIDirect3DDevice8@@PAUD3DXVECTOR3@@MMMMM@Z PROC NEAR ; CCamera::SetShowoff, COMDAT
; _this$ = ecx

; 397  : 	{

  00000	55		 push	 ebp
  00001	8b ec		 mov	 ebp, esp
  00003	81 ec 54 01 00
	00		 sub	 esp, 340		; 00000154H
  00009	53		 push	 ebx
  0000a	56		 push	 esi
  0000b	57		 push	 edi
  0000c	51		 push	 ecx
  0000d	8d bd ac fe ff
	ff		 lea	 edi, DWORD PTR [ebp-340]
  00013	b9 55 00 00 00	 mov	 ecx, 85			; 00000055H
  00018	b8 cc cc cc cc	 mov	 eax, -858993460		; ccccccccH
  0001d	f3 ab		 rep stosd
  0001f	59		 pop	 ecx
  00020	89 4d f8	 mov	 DWORD PTR _this$[ebp], ecx

; 398  : 		xMat matRot ;

  00023	8d 4d b0	 lea	 ecx, DWORD PTR _matRot$[ebp]
  00026	e8 00 00 00 00	 call	 ??0D3DXMATRIX@@QAE@XZ	; D3DXMATRIX::D3DXMATRIX

; 399  : 		xVec4 v ;

  0002b	8d 4d 98	 lea	 ecx, DWORD PTR _v$[ebp]
  0002e	e8 00 00 00 00	 call	 ??0D3DXVECTOR4@@QAE@XZ	; D3DXVECTOR4::D3DXVECTOR4

; 400  : 		static xVec3 vOrientation = xVec3(0.0f, 0.0f, -1.0f) ;

  00033	a1 00 00 00 00	 mov	 eax, DWORD PTR ?$S2@?1??SetShowoff@CCamera@@QAEHPAUIDirect3DDevice8@@PAUD3DXVECTOR3@@MMMMM@Z@4IA
  00038	83 e0 01	 and	 eax, 1
  0003b	85 c0		 test	 eax, eax
  0003d	75 20		 jne	 SHORT $L84865
  0003f	a1 00 00 00 00	 mov	 eax, DWORD PTR ?$S2@?1??SetShowoff@CCamera@@QAEHPAUIDirect3DDevice8@@PAUD3DXVECTOR3@@MMMMM@Z@4IA
  00044	83 c8 01	 or	 eax, 1
  00047	a3 00 00 00 00	 mov	 DWORD PTR ?$S2@?1??SetShowoff@CCamera@@QAEHPAUIDirect3DDevice8@@PAUD3DXVECTOR3@@MMMMM@Z@4IA, eax
  0004c	68 00 00 80 bf	 push	 -1082130432		; bf800000H
  00051	6a 00		 push	 0
  00053	6a 00		 push	 0
  00055	b9 00 00 00 00	 mov	 ecx, OFFSET FLAT:?vOrientation@?1??SetShowoff@CCamera@@QAEHPAUIDirect3DDevice8@@PAUD3DXVECTOR3@@MMMMM@Z@4U4@A
  0005a	e8 00 00 00 00	 call	 ??0D3DXVECTOR3@@QAE@MMM@Z ; D3DXVECTOR3::D3DXVECTOR3
$L84865:

; 401  : 
; 402  : 		D3DXMatrixRotationYawPitchRoll(&matRot, fYaw * (60.0f / fFPS), fPitch * (60.0f / fFPS), fRoll * (60.0f / fFPS)) ;

  0005f	d9 05 00 00 00
	00		 fld	 DWORD PTR __real@42700000
  00065	d8 75 14	 fdiv	 DWORD PTR _fFPS$[ebp]
  00068	d8 4d 20	 fmul	 DWORD PTR _fRoll$[ebp]
  0006b	51		 push	 ecx
  0006c	d9 1c 24	 fstp	 DWORD PTR [esp]
  0006f	d9 05 00 00 00
	00		 fld	 DWORD PTR __real@42700000
  00075	d8 75 14	 fdiv	 DWORD PTR _fFPS$[ebp]
  00078	d8 4d 1c	 fmul	 DWORD PTR _fPitch$[ebp]
  0007b	51		 push	 ecx
  0007c	d9 1c 24	 fstp	 DWORD PTR [esp]
  0007f	d9 05 00 00 00
	00		 fld	 DWORD PTR __real@42700000
  00085	d8 75 14	 fdiv	 DWORD PTR _fFPS$[ebp]
  00088	d8 4d 18	 fmul	 DWORD PTR _fYaw$[ebp]
  0008b	51		 push	 ecx
  0008c	d9 1c 24	 fstp	 DWORD PTR [esp]
  0008f	8d 45 b0	 lea	 eax, DWORD PTR _matRot$[ebp]
  00092	50		 push	 eax
  00093	e8 00 00 00 00	 call	 _D3DXMatrixRotationYawPitchRoll@16

; 403  : 
; 404  : 		m_vLookAtPt = *vCenter ;

  00098	8b 45 0c	 mov	 eax, DWORD PTR _vCenter$[ebp]
  0009b	8b 4d f8	 mov	 ecx, DWORD PTR _this$[ebp]
  0009e	83 c1 0c	 add	 ecx, 12			; 0000000cH
  000a1	8b 10		 mov	 edx, DWORD PTR [eax]
  000a3	89 11		 mov	 DWORD PTR [ecx], edx
  000a5	8b 50 04	 mov	 edx, DWORD PTR [eax+4]
  000a8	89 51 04	 mov	 DWORD PTR [ecx+4], edx
  000ab	8b 40 08	 mov	 eax, DWORD PTR [eax+8]
  000ae	89 41 08	 mov	 DWORD PTR [ecx+8], eax

; 405  : 		m_vEyePt = *vCenter - ( vOrientation * fRadius );

  000b1	8b 45 10	 mov	 eax, DWORD PTR _fRadius$[ebp]
  000b4	50		 push	 eax
  000b5	8d 8d c4 fe ff
	ff		 lea	 ecx, DWORD PTR $T84982[ebp]
  000bb	51		 push	 ecx
  000bc	b9 00 00 00 00	 mov	 ecx, OFFSET FLAT:?vOrientation@?1??SetShowoff@CCamera@@QAEHPAUIDirect3DDevice8@@PAUD3DXVECTOR3@@MMMMM@Z@4U4@A
  000c1	e8 00 00 00 00	 call	 ??DD3DXVECTOR3@@QBE?AU0@M@Z ; D3DXVECTOR3::operator*
  000c6	50		 push	 eax
  000c7	8d 95 b0 fe ff
	ff		 lea	 edx, DWORD PTR $T84983[ebp]
  000cd	52		 push	 edx
  000ce	8b 4d 0c	 mov	 ecx, DWORD PTR _vCenter$[ebp]
  000d1	e8 00 00 00 00	 call	 ??GD3DXVECTOR3@@QBE?AU0@ABU0@@Z ; D3DXVECTOR3::operator-
  000d6	8b 4d f8	 mov	 ecx, DWORD PTR _this$[ebp]
  000d9	8b 10		 mov	 edx, DWORD PTR [eax]
  000db	89 11		 mov	 DWORD PTR [ecx], edx
  000dd	8b 50 04	 mov	 edx, DWORD PTR [eax+4]
  000e0	89 51 04	 mov	 DWORD PTR [ecx+4], edx
  000e3	8b 40 08	 mov	 eax, DWORD PTR [eax+8]
  000e6	89 41 08	 mov	 DWORD PTR [ecx+8], eax

; 406  : 
; 407  : 		D3DXVec3Transform(&v, &vOrientation, &matRot) ;

  000e9	8d 45 b0	 lea	 eax, DWORD PTR _matRot$[ebp]
  000ec	50		 push	 eax
  000ed	68 00 00 00 00	 push	 OFFSET FLAT:?vOrientation@?1??SetShowoff@CCamera@@QAEHPAUIDirect3DDevice8@@PAUD3DXVECTOR3@@MMMMM@Z@4U4@A
  000f2	8d 4d 98	 lea	 ecx, DWORD PTR _v$[ebp]
  000f5	51		 push	 ecx
  000f6	e8 00 00 00 00	 call	 _D3DXVec3Transform@12

; 408  : 		vOrientation.x = v.x ; vOrientation.y = v.y ; vOrientation.z = v.z ;

  000fb	8b 45 98	 mov	 eax, DWORD PTR _v$[ebp]
  000fe	a3 00 00 00 00	 mov	 DWORD PTR ?vOrientation@?1??SetShowoff@CCamera@@QAEHPAUIDirect3DDevice8@@PAUD3DXVECTOR3@@MMMMM@Z@4U4@A, eax
  00103	8b 45 9c	 mov	 eax, DWORD PTR _v$[ebp+4]
  00106	a3 04 00 00 00	 mov	 DWORD PTR ?vOrientation@?1??SetShowoff@CCamera@@QAEHPAUIDirect3DDevice8@@PAUD3DXVECTOR3@@MMMMM@Z@4U4@A+4, eax
  0010b	8b 45 a0	 mov	 eax, DWORD PTR _v$[ebp+8]
  0010e	a3 08 00 00 00	 mov	 DWORD PTR ?vOrientation@?1??SetShowoff@CCamera@@QAEHPAUIDirect3DDevice8@@PAUD3DXVECTOR3@@MMMMM@Z@4U4@A+8, eax

; 409  : 
; 410  : 		SetViewMatrix(pDev, FALSE) ;

  00113	6a 00		 push	 0
  00115	8b 45 08	 mov	 eax, DWORD PTR _pDev$[ebp]
  00118	50		 push	 eax
  00119	8b 4d f8	 mov	 ecx, DWORD PTR _this$[ebp]
  0011c	e8 00 00 00 00	 call	 ?SetViewMatrix@CCamera@@QAEHPAUIDirect3DDevice8@@H@Z ; CCamera::SetViewMatrix

; 411  : 	}

  00121	52		 push	 edx
  00122	8b cd		 mov	 ecx, ebp
  00124	50		 push	 eax
  00125	8d 15 00 00 00
	00		 lea	 edx, DWORD PTR $L84987
  0012b	e8 00 00 00 00	 call	 @_RTC_CheckStackVars@8
  00130	58		 pop	 eax
  00131	5a		 pop	 edx
  00132	5f		 pop	 edi
  00133	5e		 pop	 esi
  00134	5b		 pop	 ebx
  00135	81 c4 54 01 00
	00		 add	 esp, 340		; 00000154H
  0013b	3b ec		 cmp	 ebp, esp
  0013d	e8 00 00 00 00	 call	 __RTC_CheckEsp
  00142	8b e5		 mov	 esp, ebp
  00144	5d		 pop	 ebp
  00145	c2 1c 00	 ret	 28			; 0000001cH
$L84987:
  00148	02 00 00 00	 DD	 2
  0014c	00 00 00 00	 DD	 $L84986
$L84986:
  00150	b0 ff ff ff	 DD	 -80			; ffffffb0H
  00154	40 00 00 00	 DD	 64			; 00000040H
  00158	00 00 00 00	 DD	 $L84984
  0015c	98 ff ff ff	 DD	 -104			; ffffff98H
  00160	10 00 00 00	 DD	 16			; 00000010H
  00164	00 00 00 00	 DD	 $L84985
$L84985:
  00168	76		 DB	 118			; 00000076H
  00169	00		 DB	 0
$L84984:
  0016a	6d		 DB	 109			; 0000006dH
  0016b	61		 DB	 97			; 00000061H
  0016c	74		 DB	 116			; 00000074H
  0016d	52		 DB	 82			; 00000052H
  0016e	6f		 DB	 111			; 0000006fH
  0016f	74		 DB	 116			; 00000074H
  00170	00		 DB	 0
?SetShowoff@CCamera@@QAEHPAUIDirect3DDevice8@@PAUD3DXVECTOR3@@MMMMM@Z ENDP ; CCamera::SetShowoff
; Function compile flags: /Odt /RTCsu /ZI
; File c:\dxsdk\include\d3dx8math.h
_TEXT	ENDS
;	COMDAT ??0D3DXVECTOR3@@QAE@XZ
_TEXT	SEGMENT
_this$ = -8
??0D3DXVECTOR3@@QAE@XZ PROC NEAR			; D3DXVECTOR3::D3DXVECTOR3, COMDAT
; _this$ = ecx

; 89   :     D3DXVECTOR3() {};

  00000	55		 push	 ebp
  00001	8b ec		 mov	 ebp, esp
  00003	81 ec cc 00 00
	00		 sub	 esp, 204		; 000000ccH
  00009	53		 push	 ebx
  0000a	56		 push	 esi
  0000b	57		 push	 edi
  0000c	51		 push	 ecx
  0000d	8d bd 34 ff ff
	ff		 lea	 edi, DWORD PTR [ebp-204]
  00013	b9 33 00 00 00	 mov	 ecx, 51			; 00000033H
  00018	b8 cc cc cc cc	 mov	 eax, -858993460		; ccccccccH
  0001d	f3 ab		 rep stosd
  0001f	59		 pop	 ecx
  00020	89 4d f8	 mov	 DWORD PTR _this$[ebp], ecx
  00023	8b 45 f8	 mov	 eax, DWORD PTR _this$[ebp]
  00026	5f		 pop	 edi
  00027	5e		 pop	 esi
  00028	5b		 pop	 ebx
  00029	8b e5		 mov	 esp, ebp
  0002b	5d		 pop	 ebp
  0002c	c3		 ret	 0
??0D3DXVECTOR3@@QAE@XZ ENDP				; D3DXVECTOR3::D3DXVECTOR3
; Function compile flags: /Odt /RTCsu /ZI
_TEXT	ENDS
;	COMDAT ??0D3DXVECTOR4@@QAE@XZ
_TEXT	SEGMENT
_this$ = -8
??0D3DXVECTOR4@@QAE@XZ PROC NEAR			; D3DXVECTOR4::D3DXVECTOR4, COMDAT
; _this$ = ecx

; 133  :     D3DXVECTOR4() {};

  00000	55		 push	 ebp
  00001	8b ec		 mov	 ebp, esp
  00003	81 ec cc 00 00
	00		 sub	 esp, 204		; 000000ccH
  00009	53		 push	 ebx
  0000a	56		 push	 esi
  0000b	57		 push	 edi
  0000c	51		 push	 ecx
  0000d	8d bd 34 ff ff
	ff		 lea	 edi, DWORD PTR [ebp-204]
  00013	b9 33 00 00 00	 mov	 ecx, 51			; 00000033H
  00018	b8 cc cc cc cc	 mov	 eax, -858993460		; ccccccccH
  0001d	f3 ab		 rep stosd
  0001f	59		 pop	 ecx
  00020	89 4d f8	 mov	 DWORD PTR _this$[ebp], ecx
  00023	8b 45 f8	 mov	 eax, DWORD PTR _this$[ebp]
  00026	5f		 pop	 edi
  00027	5e		 pop	 esi
  00028	5b		 pop	 ebx
  00029	8b e5		 mov	 esp, ebp
  0002b	5d		 pop	 ebp
  0002c	c3		 ret	 0
??0D3DXVECTOR4@@QAE@XZ ENDP				; D3DXVECTOR4::D3DXVECTOR4
; Function compile flags: /Odt /RTCsu /ZI
_TEXT	ENDS
;	COMDAT ??0D3DXMATRIX@@QAE@XZ
_TEXT	SEGMENT
_this$ = -8
??0D3DXMATRIX@@QAE@XZ PROC NEAR				; D3DXMATRIX::D3DXMATRIX, COMDAT
; _this$ = ecx

; 177  :     D3DXMATRIX() {};

  00000	55		 push	 ebp
  00001	8b ec		 mov	 ebp, esp
  00003	81 ec cc 00 00
	00		 sub	 esp, 204		; 000000ccH
  00009	53		 push	 ebx
  0000a	56		 push	 esi
  0000b	57		 push	 edi
  0000c	51		 push	 ecx
  0000d	8d bd 34 ff ff
	ff		 lea	 edi, DWORD PTR [ebp-204]
  00013	b9 33 00 00 00	 mov	 ecx, 51			; 00000033H
  00018	b8 cc cc cc cc	 mov	 eax, -858993460		; ccccccccH
  0001d	f3 ab		 rep stosd
  0001f	59		 pop	 ecx
  00020	89 4d f8	 mov	 DWORD PTR _this$[ebp], ecx
  00023	8b 45 f8	 mov	 eax, DWORD PTR _this$[ebp]
  00026	5f		 pop	 edi
  00027	5e		 pop	 esi
  00028	5b		 pop	 ebx
  00029	8b e5		 mov	 esp, ebp
  0002b	5d		 pop	 ebp
  0002c	c3		 ret	 0
??0D3DXMATRIX@@QAE@XZ ENDP				; D3DXMATRIX::D3DXMATRIX
; Function compile flags: /Odt /RTCsu /ZI
; File c:\dxsdk\include\d3dx8math.inl
_TEXT	ENDS
;	COMDAT ??0D3DXVECTOR3@@QAE@MMM@Z
_TEXT	SEGMENT
_this$ = -8
_fx$ = 8
_fy$ = 12
_fz$ = 16
??0D3DXVECTOR3@@QAE@MMM@Z PROC NEAR			; D3DXVECTOR3::D3DXVECTOR3, COMDAT
; _this$ = ecx

; 179  : {

  00000	55		 push	 ebp
  00001	8b ec		 mov	 ebp, esp
  00003	81 ec cc 00 00
	00		 sub	 esp, 204		; 000000ccH
  00009	53		 push	 ebx
  0000a	56		 push	 esi
  0000b	57		 push	 edi
  0000c	51		 push	 ecx
  0000d	8d bd 34 ff ff
	ff		 lea	 edi, DWORD PTR [ebp-204]
  00013	b9 33 00 00 00	 mov	 ecx, 51			; 00000033H
  00018	b8 cc cc cc cc	 mov	 eax, -858993460		; ccccccccH
  0001d	f3 ab		 rep stosd
  0001f	59		 pop	 ecx
  00020	89 4d f8	 mov	 DWORD PTR _this$[ebp], ecx

; 180  :     x = fx;

  00023	8b 45 f8	 mov	 eax, DWORD PTR _this$[ebp]
  00026	8b 4d 08	 mov	 ecx, DWORD PTR _fx$[ebp]
  00029	89 08		 mov	 DWORD PTR [eax], ecx

; 181  :     y = fy;

  0002b	8b 45 f8	 mov	 eax, DWORD PTR _this$[ebp]
  0002e	8b 4d 0c	 mov	 ecx, DWORD PTR _fy$[ebp]
  00031	89 48 04	 mov	 DWORD PTR [eax+4], ecx

; 182  :     z = fz;

  00034	8b 45 f8	 mov	 eax, DWORD PTR _this$[ebp]
  00037	8b 4d 10	 mov	 ecx, DWORD PTR _fz$[ebp]
  0003a	89 48 08	 mov	 DWORD PTR [eax+8], ecx

; 183  : }

  0003d	8b 45 f8	 mov	 eax, DWORD PTR _this$[ebp]
  00040	5f		 pop	 edi
  00041	5e		 pop	 esi
  00042	5b		 pop	 ebx
  00043	8b e5		 mov	 esp, ebp
  00045	5d		 pop	 ebp
  00046	c2 0c 00	 ret	 12			; 0000000cH
??0D3DXVECTOR3@@QAE@MMM@Z ENDP				; D3DXVECTOR3::D3DXVECTOR3
; Function compile flags: /Odt /RTCsu /ZI
_TEXT	ENDS
;	COMDAT ??XD3DXVECTOR3@@QAEAAU0@M@Z
_TEXT	SEGMENT
_this$ = -8
_f$ = 8
??XD3DXVECTOR3@@QAEAAU0@M@Z PROC NEAR			; D3DXVECTOR3::operator*=, COMDAT
; _this$ = ecx

; 221  : {

  00000	55		 push	 ebp
  00001	8b ec		 mov	 ebp, esp
  00003	81 ec cc 00 00
	00		 sub	 esp, 204		; 000000ccH
  00009	53		 push	 ebx
  0000a	56		 push	 esi
  0000b	57		 push	 edi
  0000c	51		 push	 ecx
  0000d	8d bd 34 ff ff
	ff		 lea	 edi, DWORD PTR [ebp-204]
  00013	b9 33 00 00 00	 mov	 ecx, 51			; 00000033H
  00018	b8 cc cc cc cc	 mov	 eax, -858993460		; ccccccccH
  0001d	f3 ab		 rep stosd
  0001f	59		 pop	 ecx
  00020	89 4d f8	 mov	 DWORD PTR _this$[ebp], ecx

; 222  :     x *= f;

  00023	8b 45 f8	 mov	 eax, DWORD PTR _this$[ebp]
  00026	d9 45 08	 fld	 DWORD PTR _f$[ebp]
  00029	d8 08		 fmul	 DWORD PTR [eax]
  0002b	8b 4d f8	 mov	 ecx, DWORD PTR _this$[ebp]
  0002e	d9 19		 fstp	 DWORD PTR [ecx]

; 223  :     y *= f;

  00030	8b 45 f8	 mov	 eax, DWORD PTR _this$[ebp]
  00033	d9 45 08	 fld	 DWORD PTR _f$[ebp]
  00036	d8 48 04	 fmul	 DWORD PTR [eax+4]
  00039	8b 4d f8	 mov	 ecx, DWORD PTR _this$[ebp]
  0003c	d9 59 04	 fstp	 DWORD PTR [ecx+4]

; 224  :     z *= f;

  0003f	8b 45 f8	 mov	 eax, DWORD PTR _this$[ebp]
  00042	d9 45 08	 fld	 DWORD PTR _f$[ebp]
  00045	d8 48 08	 fmul	 DWORD PTR [eax+8]
  00048	8b 4d f8	 mov	 ecx, DWORD PTR _this$[ebp]
  0004b	d9 59 08	 fstp	 DWORD PTR [ecx+8]

; 225  :     return *this;

  0004e	8b 45 f8	 mov	 eax, DWORD PTR _this$[ebp]

; 226  : }

  00051	5f		 pop	 edi
  00052	5e		 pop	 esi
  00053	5b		 pop	 ebx
  00054	8b e5		 mov	 esp, ebp
  00056	5d		 pop	 ebp
  00057	c2 04 00	 ret	 4
??XD3DXVECTOR3@@QAEAAU0@M@Z ENDP			; D3DXVECTOR3::operator*=
; Function compile flags: /Odt /RTCsu /ZI
_TEXT	ENDS
;	COMDAT ??GD3DXVECTOR3@@QBE?AU0@ABU0@@Z
_TEXT	SEGMENT
_this$ = -8
___$ReturnUdt$ = 8
_v$ = 12
??GD3DXVECTOR3@@QBE?AU0@ABU0@@Z PROC NEAR		; D3DXVECTOR3::operator-, COMDAT
; _this$ = ecx

; 262  : {

  00000	55		 push	 ebp
  00001	8b ec		 mov	 ebp, esp
  00003	81 ec cc 00 00
	00		 sub	 esp, 204		; 000000ccH
  00009	53		 push	 ebx
  0000a	56		 push	 esi
  0000b	57		 push	 edi
  0000c	51		 push	 ecx
  0000d	8d bd 34 ff ff
	ff		 lea	 edi, DWORD PTR [ebp-204]
  00013	b9 33 00 00 00	 mov	 ecx, 51			; 00000033H
  00018	b8 cc cc cc cc	 mov	 eax, -858993460		; ccccccccH
  0001d	f3 ab		 rep stosd
  0001f	59		 pop	 ecx
  00020	89 4d f8	 mov	 DWORD PTR _this$[ebp], ecx

; 263  :     return D3DXVECTOR3(x - v.x, y - v.y, z - v.z);

  00023	8b 45 f8	 mov	 eax, DWORD PTR _this$[ebp]
  00026	8b 4d 0c	 mov	 ecx, DWORD PTR _v$[ebp]
  00029	d9 40 08	 fld	 DWORD PTR [eax+8]
  0002c	d8 61 08	 fsub	 DWORD PTR [ecx+8]
  0002f	51		 push	 ecx
  00030	d9 1c 24	 fstp	 DWORD PTR [esp]
  00033	8b 55 f8	 mov	 edx, DWORD PTR _this$[ebp]
  00036	8b 45 0c	 mov	 eax, DWORD PTR _v$[ebp]
  00039	d9 42 04	 fld	 DWORD PTR [edx+4]
  0003c	d8 60 04	 fsub	 DWORD PTR [eax+4]
  0003f	51		 push	 ecx
  00040	d9 1c 24	 fstp	 DWORD PTR [esp]
  00043	8b 4d f8	 mov	 ecx, DWORD PTR _this$[ebp]
  00046	8b 55 0c	 mov	 edx, DWORD PTR _v$[ebp]
  00049	d9 01		 fld	 DWORD PTR [ecx]
  0004b	d8 22		 fsub	 DWORD PTR [edx]
  0004d	51		 push	 ecx
  0004e	d9 1c 24	 fstp	 DWORD PTR [esp]
  00051	8b 4d 08	 mov	 ecx, DWORD PTR ___$ReturnUdt$[ebp]
  00054	e8 00 00 00 00	 call	 ??0D3DXVECTOR3@@QAE@MMM@Z ; D3DXVECTOR3::D3DXVECTOR3
  00059	8b 45 08	 mov	 eax, DWORD PTR ___$ReturnUdt$[ebp]

; 264  : }

  0005c	5f		 pop	 edi
  0005d	5e		 pop	 esi
  0005e	5b		 pop	 ebx
  0005f	81 c4 cc 00 00
	00		 add	 esp, 204		; 000000ccH
  00065	3b ec		 cmp	 ebp, esp
  00067	e8 00 00 00 00	 call	 __RTC_CheckEsp
  0006c	8b e5		 mov	 esp, ebp
  0006e	5d		 pop	 ebp
  0006f	c2 08 00	 ret	 8
??GD3DXVECTOR3@@QBE?AU0@ABU0@@Z ENDP			; D3DXVECTOR3::operator-
; Function compile flags: /Odt /RTCsu /ZI
_TEXT	ENDS
;	COMDAT ??DD3DXVECTOR3@@QBE?AU0@M@Z
_TEXT	SEGMENT
_this$ = -8
___$ReturnUdt$ = 8
_f$ = 12
??DD3DXVECTOR3@@QBE?AU0@M@Z PROC NEAR			; D3DXVECTOR3::operator*, COMDAT
; _this$ = ecx

; 268  : {

  00000	55		 push	 ebp
  00001	8b ec		 mov	 ebp, esp
  00003	81 ec cc 00 00
	00		 sub	 esp, 204		; 000000ccH
  00009	53		 push	 ebx
  0000a	56		 push	 esi
  0000b	57		 push	 edi
  0000c	51		 push	 ecx
  0000d	8d bd 34 ff ff
	ff		 lea	 edi, DWORD PTR [ebp-204]
  00013	b9 33 00 00 00	 mov	 ecx, 51			; 00000033H
  00018	b8 cc cc cc cc	 mov	 eax, -858993460		; ccccccccH
  0001d	f3 ab		 rep stosd
  0001f	59		 pop	 ecx
  00020	89 4d f8	 mov	 DWORD PTR _this$[ebp], ecx

; 269  :     return D3DXVECTOR3(x * f, y * f, z * f);

  00023	8b 45 f8	 mov	 eax, DWORD PTR _this$[ebp]
  00026	d9 45 0c	 fld	 DWORD PTR _f$[ebp]
  00029	d8 48 08	 fmul	 DWORD PTR [eax+8]
  0002c	51		 push	 ecx
  0002d	d9 1c 24	 fstp	 DWORD PTR [esp]
  00030	8b 4d f8	 mov	 ecx, DWORD PTR _this$[ebp]
  00033	d9 45 0c	 fld	 DWORD PTR _f$[ebp]
  00036	d8 49 04	 fmul	 DWORD PTR [ecx+4]
  00039	51		 push	 ecx
  0003a	d9 1c 24	 fstp	 DWORD PTR [esp]
  0003d	8b 55 f8	 mov	 edx, DWORD PTR _this$[ebp]
  00040	d9 45 0c	 fld	 DWORD PTR _f$[ebp]
  00043	d8 0a		 fmul	 DWORD PTR [edx]
  00045	51		 push	 ecx
  00046	d9 1c 24	 fstp	 DWORD PTR [esp]
  00049	8b 4d 08	 mov	 ecx, DWORD PTR ___$ReturnUdt$[ebp]
  0004c	e8 00 00 00 00	 call	 ??0D3DXVECTOR3@@QAE@MMM@Z ; D3DXVECTOR3::D3DXVECTOR3
  00051	8b 45 08	 mov	 eax, DWORD PTR ___$ReturnUdt$[ebp]

; 270  : }

  00054	5f		 pop	 edi
  00055	5e		 pop	 esi
  00056	5b		 pop	 ebx
  00057	81 c4 cc 00 00
	00		 add	 esp, 204		; 000000ccH
  0005d	3b ec		 cmp	 ebp, esp
  0005f	e8 00 00 00 00	 call	 __RTC_CheckEsp
  00064	8b e5		 mov	 esp, ebp
  00066	5d		 pop	 ebp
  00067	c2 08 00	 ret	 8
??DD3DXVECTOR3@@QBE?AU0@M@Z ENDP			; D3DXVECTOR3::operator*
_TEXT	ENDS
END
