; Listing generated by Microsoft (R) Optimizing Compiler Version 13.00.9466 

	TITLE	CExplosion.cpp
	.386P
include listing.inc
if @Version gt 510
.model FLAT
else
_TEXT	SEGMENT PARA USE32 PUBLIC 'CODE'
_TEXT	ENDS
_DATA	SEGMENT DWORD USE32 PUBLIC 'DATA'
_DATA	ENDS
CONST	SEGMENT DWORD USE32 PUBLIC 'CONST'
CONST	ENDS
_BSS	SEGMENT DWORD USE32 PUBLIC 'BSS'
_BSS	ENDS
$$SYMBOLS	SEGMENT BYTE USE32 'DEBSYM'
$$SYMBOLS	ENDS
$$TYPES	SEGMENT BYTE USE32 'DEBTYP'
$$TYPES	ENDS
_TLS	SEGMENT DWORD USE32 PUBLIC 'TLS'
_TLS	ENDS
;	COMDAT ??_C@_0EM@NHDLOCGA@c?3?2documents?5and?5settings?2dom?2my@
CONST	SEGMENT DWORD USE32 PUBLIC 'CONST'
CONST	ENDS
;	COMDAT ??_C@_05JKHKMOHH@m_pBB?$AA@
CONST	SEGMENT DWORD USE32 PUBLIC 'CONST'
CONST	ENDS
;	COMDAT ??_C@_0BA@BNFOOJEL@m_pBB_Shockwave?$AA@
CONST	SEGMENT DWORD USE32 PUBLIC 'CONST'
CONST	ENDS
;	COMDAT ??_C@_0BA@NALNDGPE@m_pPS_Explosion?$AA@
CONST	SEGMENT DWORD USE32 PUBLIC 'CONST'
CONST	ENDS
;	COMDAT ??_C@_0CD@KJPAJMNI@m_nSubExps?5?$DM?5MAX_EXPLOSION_SUBEX@
CONST	SEGMENT DWORD USE32 PUBLIC 'CONST'
CONST	ENDS
;	COMDAT ??_C@_0CC@CHDNDCHC@CExplosion?3?3RestoreDeviceObjects@
CONST	SEGMENT DWORD USE32 PUBLIC 'CONST'
CONST	ENDS
;	COMDAT _IsEqualGUID
_TEXT	SEGMENT PARA USE32 PUBLIC 'CODE'
_TEXT	ENDS
;	COMDAT _==
_TEXT	SEGMENT PARA USE32 PUBLIC 'CODE'
_TEXT	ENDS
;	COMDAT _sqrtf
_TEXT	SEGMENT PARA USE32 PUBLIC 'CODE'
_TEXT	ENDS
;	COMDAT ??0D3DXVECTOR2@@QAE@XZ
_TEXT	SEGMENT PARA USE32 PUBLIC 'CODE'
_TEXT	ENDS
;	COMDAT ??0D3DXVECTOR3@@QAE@XZ
_TEXT	SEGMENT PARA USE32 PUBLIC 'CODE'
_TEXT	ENDS
;	COMDAT ??0D3DXMATRIX@@QAE@XZ
_TEXT	SEGMENT PARA USE32 PUBLIC 'CODE'
_TEXT	ENDS
;	COMDAT ??0D3DXQUATERNION@@QAE@XZ
_TEXT	SEGMENT PARA USE32 PUBLIC 'CODE'
_TEXT	ENDS
;	COMDAT ??0D3DXVECTOR2@@QAE@MM@Z
_TEXT	SEGMENT PARA USE32 PUBLIC 'CODE'
_TEXT	ENDS
;	COMDAT ??0D3DXVECTOR3@@QAE@MMM@Z
_TEXT	SEGMENT PARA USE32 PUBLIC 'CODE'
_TEXT	ENDS
;	COMDAT ??D@YA?AUD3DXVECTOR3@@MABU0@@Z
_TEXT	SEGMENT PARA USE32 PUBLIC 'CODE'
_TEXT	ENDS
;	COMDAT ??0D3DXVECTOR4@@QAE@MMMM@Z
_TEXT	SEGMENT PARA USE32 PUBLIC 'CODE'
_TEXT	ENDS
;	COMDAT ??0D3DXMATRIX@@QAE@PBM@Z
_TEXT	SEGMENT PARA USE32 PUBLIC 'CODE'
_TEXT	ENDS
;	COMDAT ??0D3DXMATRIX@@QAE@ABU_D3DMATRIX@@@Z
_TEXT	SEGMENT PARA USE32 PUBLIC 'CODE'
_TEXT	ENDS
;	COMDAT ??0D3DXMATRIX@@QAE@MMMMMMMMMMMMMMMM@Z
_TEXT	SEGMENT PARA USE32 PUBLIC 'CODE'
_TEXT	ENDS
;	COMDAT ??0D3DXQUATERNION@@QAE@MMMM@Z
_TEXT	SEGMENT PARA USE32 PUBLIC 'CODE'
_TEXT	ENDS
;	COMDAT ??0D3DXPLANE@@QAE@MMMM@Z
_TEXT	SEGMENT PARA USE32 PUBLIC 'CODE'
_TEXT	ENDS
;	COMDAT ??0D3DXCOLOR@@QAE@MMMM@Z
_TEXT	SEGMENT PARA USE32 PUBLIC 'CODE'
_TEXT	ENDS
;	COMDAT ?D3DXVec3Lerp@@YAPAUD3DXVECTOR3@@PAU1@PBU1@1M@Z
_TEXT	SEGMENT PARA USE32 PUBLIC 'CODE'
_TEXT	ENDS
;	COMDAT ??0CExplosion@@QAE@MHHH@Z
_TEXT	SEGMENT PARA USE32 PUBLIC 'CODE'
_TEXT	ENDS
;	COMDAT ??0SUBEXPLOSION@CExplosion@@QAE@XZ
_TEXT	SEGMENT PARA USE32 PUBLIC 'CODE'
_TEXT	ENDS
;	COMDAT ??_H@YGXPAXIHP6EPAX0@Z@Z
_TEXT	SEGMENT PARA USE32 PUBLIC 'CODE'
_TEXT	ENDS
;	COMDAT ??1CExplosion@@QAE@XZ
_TEXT	SEGMENT PARA USE32 PUBLIC 'CODE'
_TEXT	ENDS
;	COMDAT ??_GCBillboard@@QAEPAXI@Z
_TEXT	SEGMENT PARA USE32 PUBLIC 'CODE'
_TEXT	ENDS
;	COMDAT ??_GCParticleSystem@@QAEPAXI@Z
_TEXT	SEGMENT PARA USE32 PUBLIC 'CODE'
_TEXT	ENDS
;	COMDAT ?InitSubExplosion@CExplosion@@QAEHW4e_ExpTypes@@MMMPAUD3DXVECTOR2@@@Z
_TEXT	SEGMENT PARA USE32 PUBLIC 'CODE'
_TEXT	ENDS
;	COMDAT ?Reset@CExplosion@@QAEHXZ
_TEXT	SEGMENT PARA USE32 PUBLIC 'CODE'
_TEXT	ENDS
;	COMDAT ?RestoreDeviceObjects@CExplosion@@QAEJPAUIDirect3DDevice8@@@Z
_TEXT	SEGMENT PARA USE32 PUBLIC 'CODE'
_TEXT	ENDS
;	COMDAT ?InvalidateDeviceObjects@CExplosion@@QAEJXZ
_TEXT	SEGMENT PARA USE32 PUBLIC 'CODE'
_TEXT	ENDS
;	COMDAT ?FrameMove@CExplosion@@QAEJPAUIDirect3DDevice8@@MPAUD3DXVECTOR3@@1@Z
_TEXT	SEGMENT PARA USE32 PUBLIC 'CODE'
_TEXT	ENDS
;	COMDAT ?Render@CExplosion@@QAEJPAUIDirect3DDevice8@@PAVCTextures@@PAKPAVCCamera@@MPAUD3DXVECTOR3@@MPAUIDirect3DVertexBuffer8@@HH@Z
_TEXT	SEGMENT PARA USE32 PUBLIC 'CODE'
_TEXT	ENDS
;	COMDAT ?__LINE__Var@?1??InitSubExplosion@CExplosion@@QAEHW4e_ExpTypes@@MMMPAUD3DXVECTOR2@@@Z@4JA
_DATA	SEGMENT DWORD USE32 PUBLIC 'DATA'
_DATA	ENDS
;	COMDAT ?__LINE__Var@?1???0CExplosion@@QAE@MHHH@Z@4JA
_DATA	SEGMENT DWORD USE32 PUBLIC 'DATA'
_DATA	ENDS
FLAT	GROUP _DATA, CONST, _BSS
	ASSUME	CS: FLAT, DS: FLAT, SS: FLAT
endif

INCLUDELIB LIBCMTD
INCLUDELIB OLDNAMES

PUBLIC	?g_Explosions@@3PAUEXPLOSION_TYPE_DETAILS@@A	; g_Explosions
_DATA	SEGMENT
?g_Explosions@@3PAUEXPLOSION_TYPE_DETAILS@@A DD 012cH	; g_Explosions
	DD	022H
	DD	0faH
	DD	0fH
_DATA	ENDS
PUBLIC	??_H@YGXPAXIHP6EPAX0@Z@Z			; `vector constructor iterator'
PUBLIC	??0D3DXCOLOR@@QAE@MMMM@Z			; D3DXCOLOR::D3DXCOLOR
PUBLIC	??0CExplosion@@QAE@MHHH@Z			; CExplosion::CExplosion
PUBLIC	??0SUBEXPLOSION@CExplosion@@QAE@XZ		; CExplosion::SUBEXPLOSION::SUBEXPLOSION
PUBLIC	?InitSubExplosion@CExplosion@@QAEHW4e_ExpTypes@@MMMPAUD3DXVECTOR2@@@Z ; CExplosion::InitSubExplosion
PUBLIC	?__LINE__Var@?1???0CExplosion@@QAE@MHHH@Z@4JA	; `CExplosion::CExplosion'::`2'::__LINE__Var
PUBLIC	??_C@_0EM@NHDLOCGA@c?3?2documents?5and?5settings?2dom?2my@ ; `string'
PUBLIC	??_C@_05JKHKMOHH@m_pBB?$AA@			; `string'
PUBLIC	??_C@_0BA@BNFOOJEL@m_pBB_Shockwave?$AA@		; `string'
PUBLIC	??_C@_0BA@NALNDGPE@m_pPS_Explosion?$AA@		; `string'
PUBLIC	__real@3f000000
PUBLIC	__real@3f800000
PUBLIC	??0D3DXVECTOR2@@QAE@MM@Z			; D3DXVECTOR2::D3DXVECTOR2
EXTRN	??0CParticleSystem@@QAE@KKM@Z:NEAR		; CParticleSystem::CParticleSystem
EXTRN	??2@YAPAXI@Z:NEAR				; operator new
EXTRN	__assert:NEAR
EXTRN	?rnd@@YAMXZ:NEAR				; rnd
EXTRN	__RTC_InitBase:NEAR
EXTRN	__RTC_Shutdown:NEAR
EXTRN	__RTC_CheckEsp:NEAR
EXTRN	__fltused:NEAR
EXTRN	??0CBillboard@@QAE@MMHPAUD3DXCOLOR@@@Z:NEAR	; CBillboard::CBillboard
;	COMDAT rtc$IMZ
; File c:\documents and settings\dom\my documents\_dev\ae\xlr8a\x7g\cexplosion.cpp
rtc$IMZ	SEGMENT
__RTC_InitBase.rtc$IMZ DD FLAT:__RTC_InitBase
rtc$IMZ	ENDS
;	COMDAT rtc$TMZ
rtc$TMZ	SEGMENT
__RTC_Shutdown.rtc$TMZ DD FLAT:__RTC_Shutdown
rtc$TMZ	ENDS
;	COMDAT __real@3f000000
CONST	SEGMENT
__real@3f000000 DD 03f000000r			; 0.5
CONST	ENDS
;	COMDAT __real@3f800000
CONST	SEGMENT
__real@3f800000 DD 03f800000r			; 1
CONST	ENDS
;	COMDAT ?__LINE__Var@?1???0CExplosion@@QAE@MHHH@Z@4JA
_DATA	SEGMENT
?__LINE__Var@?1???0CExplosion@@QAE@MHHH@Z@4JA DD 0fH	; `CExplosion::CExplosion'::`2'::__LINE__Var
_DATA	ENDS
;	COMDAT ??_C@_0EM@NHDLOCGA@c?3?2documents?5and?5settings?2dom?2my@
CONST	SEGMENT
??_C@_0EM@NHDLOCGA@c?3?2documents?5and?5settings?2dom?2my@ DB 'c:\documen'
	DB	'ts and settings\dom\my documents\_dev\ae\xlr8a\x7g\cexplosion'
	DB	'.cpp', 00H					; `string'
CONST	ENDS
;	COMDAT ??_C@_05JKHKMOHH@m_pBB?$AA@
CONST	SEGMENT
??_C@_05JKHKMOHH@m_pBB?$AA@ DB 'm_pBB', 00H		; `string'
CONST	ENDS
;	COMDAT ??_C@_0BA@BNFOOJEL@m_pBB_Shockwave?$AA@
CONST	SEGMENT
??_C@_0BA@BNFOOJEL@m_pBB_Shockwave?$AA@ DB 'm_pBB_Shockwave', 00H ; `string'
CONST	ENDS
;	COMDAT ??_C@_0BA@NALNDGPE@m_pPS_Explosion?$AA@
CONST	SEGMENT
??_C@_0BA@NALNDGPE@m_pPS_Explosion?$AA@ DB 'm_pPS_Explosion', 00H ; `string'
; Function compile flags: /Odt /RTCsu /ZI
CONST	ENDS
;	COMDAT ??0CExplosion@@QAE@MHHH@Z
_TEXT	SEGMENT
tv206 = -336
tv187 = -336
tv161 = -336
tv143 = -336
$T85660 = -328
$T85656 = -316
$T85655 = -292
$T85651 = -280
$T85650 = -256
$T85647 = -244
$T85646 = -228
_i$85464 = -20
_this$ = -8
_fLifespan$ = 8
_bShockwave$ = 12
_bParticles$ = 16
_nSubexplosions$ = 20
??0CExplosion@@QAE@MHHH@Z PROC NEAR			; CExplosion::CExplosion, COMDAT
; _this$ = ecx

; 15   : 	{

  00000	55		 push	 ebp
  00001	8b ec		 mov	 ebp, esp
  00003	81 ec 50 01 00
	00		 sub	 esp, 336		; 00000150H
  00009	53		 push	 ebx
  0000a	56		 push	 esi
  0000b	57		 push	 edi
  0000c	51		 push	 ecx
  0000d	8d bd b0 fe ff
	ff		 lea	 edi, DWORD PTR [ebp-336]
  00013	b9 54 00 00 00	 mov	 ecx, 84			; 00000054H
  00018	b8 cc cc cc cc	 mov	 eax, -858993460		; ccccccccH
  0001d	f3 ab		 rep stosd
  0001f	59		 pop	 ecx
  00020	89 4d f8	 mov	 DWORD PTR _this$[ebp], ecx
  00023	68 00 00 00 00	 push	 OFFSET FLAT:??0SUBEXPLOSION@CExplosion@@QAE@XZ
  00028	6a 10		 push	 16			; 00000010H
  0002a	6a 28		 push	 40			; 00000028H
  0002c	8b 45 f8	 mov	 eax, DWORD PTR _this$[ebp]
  0002f	83 c0 08	 add	 eax, 8
  00032	50		 push	 eax
  00033	e8 00 00 00 00	 call	 ??_H@YGXPAXIHP6EPAX0@Z@Z

; 16   : 		m_fLifespan = fLifespan ;

  00038	8b 45 f8	 mov	 eax, DWORD PTR _this$[ebp]
  0003b	8b 4d 08	 mov	 ecx, DWORD PTR _fLifespan$[ebp]
  0003e	89 08		 mov	 DWORD PTR [eax], ecx

; 17   : 		m_nSubExps = 0 ;

  00040	8b 45 f8	 mov	 eax, DWORD PTR _this$[ebp]
  00043	c7 80 88 02 00
	00 00 00 00 00	 mov	 DWORD PTR [eax+648], 0

; 18   : 		m_fAge = 0.0f ;

  0004d	8b 45 f8	 mov	 eax, DWORD PTR _this$[ebp]
  00050	c7 40 04 00 00
	00 00		 mov	 DWORD PTR [eax+4], 0

; 19   : 
; 20   : 		InitSubExplosion( ET_ALPHA, fLifespan * 1.00f, 0.5f + rnd() * 0.5f, 0.0f, &xVec2( 0.0f, 0.0f ) );

  00057	6a 00		 push	 0
  00059	6a 00		 push	 0
  0005b	8d 8d 1c ff ff
	ff		 lea	 ecx, DWORD PTR $T85646[ebp]
  00061	e8 00 00 00 00	 call	 ??0D3DXVECTOR2@@QAE@MM@Z ; D3DXVECTOR2::D3DXVECTOR2
  00066	50		 push	 eax
  00067	6a 00		 push	 0
  00069	e8 00 00 00 00	 call	 ?rnd@@YAMXZ		; rnd
  0006e	d8 0d 00 00 00
	00		 fmul	 DWORD PTR __real@3f000000
  00074	d8 05 00 00 00
	00		 fadd	 DWORD PTR __real@3f000000
  0007a	51		 push	 ecx
  0007b	d9 1c 24	 fstp	 DWORD PTR [esp]
  0007e	d9 45 08	 fld	 DWORD PTR _fLifespan$[ebp]
  00081	d8 0d 00 00 00
	00		 fmul	 DWORD PTR __real@3f800000
  00087	51		 push	 ecx
  00088	d9 1c 24	 fstp	 DWORD PTR [esp]
  0008b	6a 00		 push	 0
  0008d	8b 4d f8	 mov	 ecx, DWORD PTR _this$[ebp]
  00090	e8 00 00 00 00	 call	 ?InitSubExplosion@CExplosion@@QAEHW4e_ExpTypes@@MMMPAUD3DXVECTOR2@@@Z ; CExplosion::InitSubExplosion

; 21   : 		
; 22   : 		for( int i=0 ; i<nSubexplosions ; i++ )

  00095	c7 45 ec 00 00
	00 00		 mov	 DWORD PTR _i$85464[ebp], 0
  0009c	eb 09		 jmp	 SHORT $L85465
$L85466:
  0009e	8b 45 ec	 mov	 eax, DWORD PTR _i$85464[ebp]
  000a1	83 c0 01	 add	 eax, 1
  000a4	89 45 ec	 mov	 DWORD PTR _i$85464[ebp], eax
$L85465:
  000a7	8b 45 ec	 mov	 eax, DWORD PTR _i$85464[ebp]
  000aa	3b 45 14	 cmp	 eax, DWORD PTR _nSubexplosions$[ebp]
  000ad	0f 8d 99 00 00
	00		 jge	 $L85467

; 23   : 			InitSubExplosion(
; 24   : 							  rnd() < 0.5f ? ET_ALPHA : ET_BETA,
; 25   : 							  rnd() * fLifespan * 0.5f,					// lifespan
; 26   : 							  rnd() * 0.5f,								// size
; 27   : 							  rnd() * fLifespan * 0.5f,					// delay
; 28   : 							  &xVec2( rnd()-0.5f, rnd()-0.5f )	// positional offset; -0.5 to +0.5
; 29   : 							);

  000b3	e8 00 00 00 00	 call	 ?rnd@@YAMXZ		; rnd
  000b8	d8 1d 00 00 00
	00		 fcomp	 DWORD PTR __real@3f000000
  000be	df e0		 fnstsw	 ax
  000c0	f6 c4 05	 test	 ah, 5
  000c3	7a 0c		 jp	 SHORT $L85648
  000c5	c7 85 b0 fe ff
	ff 00 00 00 00	 mov	 DWORD PTR tv143[ebp], 0
  000cf	eb 0a		 jmp	 SHORT $L85649
$L85648:
  000d1	c7 85 b0 fe ff
	ff 01 00 00 00	 mov	 DWORD PTR tv143[ebp], 1
$L85649:
  000db	e8 00 00 00 00	 call	 ?rnd@@YAMXZ		; rnd
  000e0	d8 25 00 00 00
	00		 fsub	 DWORD PTR __real@3f000000
  000e6	51		 push	 ecx
  000e7	d9 1c 24	 fstp	 DWORD PTR [esp]
  000ea	e8 00 00 00 00	 call	 ?rnd@@YAMXZ		; rnd
  000ef	d8 25 00 00 00
	00		 fsub	 DWORD PTR __real@3f000000
  000f5	51		 push	 ecx
  000f6	d9 1c 24	 fstp	 DWORD PTR [esp]
  000f9	8d 8d 0c ff ff
	ff		 lea	 ecx, DWORD PTR $T85647[ebp]
  000ff	e8 00 00 00 00	 call	 ??0D3DXVECTOR2@@QAE@MM@Z ; D3DXVECTOR2::D3DXVECTOR2
  00104	50		 push	 eax
  00105	e8 00 00 00 00	 call	 ?rnd@@YAMXZ		; rnd
  0010a	d8 4d 08	 fmul	 DWORD PTR _fLifespan$[ebp]
  0010d	d8 0d 00 00 00
	00		 fmul	 DWORD PTR __real@3f000000
  00113	51		 push	 ecx
  00114	d9 1c 24	 fstp	 DWORD PTR [esp]
  00117	e8 00 00 00 00	 call	 ?rnd@@YAMXZ		; rnd
  0011c	d8 0d 00 00 00
	00		 fmul	 DWORD PTR __real@3f000000
  00122	51		 push	 ecx
  00123	d9 1c 24	 fstp	 DWORD PTR [esp]
  00126	e8 00 00 00 00	 call	 ?rnd@@YAMXZ		; rnd
  0012b	d8 4d 08	 fmul	 DWORD PTR _fLifespan$[ebp]
  0012e	d8 0d 00 00 00
	00		 fmul	 DWORD PTR __real@3f000000
  00134	51		 push	 ecx
  00135	d9 1c 24	 fstp	 DWORD PTR [esp]
  00138	8b 85 b0 fe ff
	ff		 mov	 eax, DWORD PTR tv143[ebp]
  0013e	50		 push	 eax
  0013f	8b 4d f8	 mov	 ecx, DWORD PTR _this$[ebp]
  00142	e8 00 00 00 00	 call	 ?InitSubExplosion@CExplosion@@QAEHW4e_ExpTypes@@MMMPAUD3DXVECTOR2@@@Z ; CExplosion::InitSubExplosion
  00147	e9 52 ff ff ff	 jmp	 $L85466
$L85467:

; 30   : 
; 31   : 		m_pBB = NULL ;

  0014c	8b 45 f8	 mov	 eax, DWORD PTR _this$[ebp]
  0014f	c7 80 8c 02 00
	00 00 00 00 00	 mov	 DWORD PTR [eax+652], 0

; 32   : 		m_pBB = new CBillboard( 1.0f, 1.0f, FALSE, &D3DXCOLOR( 1.0f, 1.0f, 1.0f, 1.0f) );

  00159	68 cc 00 00 00	 push	 204			; 000000ccH
  0015e	e8 00 00 00 00	 call	 ??2@YAPAXI@Z		; operator new
  00163	83 c4 04	 add	 esp, 4
  00166	89 85 00 ff ff
	ff		 mov	 DWORD PTR $T85650[ebp], eax
  0016c	83 bd 00 ff ff
	ff 00		 cmp	 DWORD PTR $T85650[ebp], 0
  00173	74 3f		 je	 SHORT $L85652
  00175	68 00 00 80 3f	 push	 1065353216		; 3f800000H
  0017a	68 00 00 80 3f	 push	 1065353216		; 3f800000H
  0017f	68 00 00 80 3f	 push	 1065353216		; 3f800000H
  00184	68 00 00 80 3f	 push	 1065353216		; 3f800000H
  00189	8d 8d e8 fe ff
	ff		 lea	 ecx, DWORD PTR $T85651[ebp]
  0018f	e8 00 00 00 00	 call	 ??0D3DXCOLOR@@QAE@MMMM@Z ; D3DXCOLOR::D3DXCOLOR
  00194	50		 push	 eax
  00195	6a 00		 push	 0
  00197	68 00 00 80 3f	 push	 1065353216		; 3f800000H
  0019c	68 00 00 80 3f	 push	 1065353216		; 3f800000H
  001a1	8b 8d 00 ff ff
	ff		 mov	 ecx, DWORD PTR $T85650[ebp]
  001a7	e8 00 00 00 00	 call	 ??0CBillboard@@QAE@MMHPAUD3DXCOLOR@@@Z ; CBillboard::CBillboard
  001ac	89 85 b0 fe ff
	ff		 mov	 DWORD PTR tv161[ebp], eax
  001b2	eb 0a		 jmp	 SHORT $L85653
$L85652:
  001b4	c7 85 b0 fe ff
	ff 00 00 00 00	 mov	 DWORD PTR tv161[ebp], 0
$L85653:
  001be	8b 45 f8	 mov	 eax, DWORD PTR _this$[ebp]
  001c1	8b 8d b0 fe ff
	ff		 mov	 ecx, DWORD PTR tv161[ebp]
  001c7	89 88 8c 02 00
	00		 mov	 DWORD PTR [eax+652], ecx

; 33   : 		assert( m_pBB );

  001cd	8b 45 f8	 mov	 eax, DWORD PTR _this$[ebp]
  001d0	83 b8 8c 02 00
	00 00		 cmp	 DWORD PTR [eax+652], 0
  001d7	75 1c		 jne	 SHORT $L85654
  001d9	8b 0d 00 00 00
	00		 mov	 ecx, DWORD PTR ?__LINE__Var@?1???0CExplosion@@QAE@MHHH@Z@4JA
  001df	83 c1 12	 add	 ecx, 18			; 00000012H
  001e2	51		 push	 ecx
  001e3	68 00 00 00 00	 push	 OFFSET FLAT:??_C@_0EM@NHDLOCGA@c?3?2documents?5and?5settings?2dom?2my@
  001e8	68 00 00 00 00	 push	 OFFSET FLAT:??_C@_05JKHKMOHH@m_pBB?$AA@
  001ed	e8 00 00 00 00	 call	 __assert
  001f2	83 c4 0c	 add	 esp, 12			; 0000000cH
$L85654:

; 34   : 
; 35   : 		m_pBB_Shockwave = NULL ;

  001f5	8b 45 f8	 mov	 eax, DWORD PTR _this$[ebp]
  001f8	c7 80 90 02 00
	00 00 00 00 00	 mov	 DWORD PTR [eax+656], 0

; 36   : 		if( bShockwave )

  00202	83 7d 0c 00	 cmp	 DWORD PTR _bShockwave$[ebp], 0
  00206	0f 84 9c 00 00
	00		 je	 $L85476

; 37   : 		{
; 38   : 			m_pBB_Shockwave = new CBillboard( 1.0f, 1.0f, TRUE, &D3DXCOLOR( 1.0f, 1.0f, 1.0f, 0.1f) );

  0020c	68 cc 00 00 00	 push	 204			; 000000ccH
  00211	e8 00 00 00 00	 call	 ??2@YAPAXI@Z		; operator new
  00216	83 c4 04	 add	 esp, 4
  00219	89 85 dc fe ff
	ff		 mov	 DWORD PTR $T85655[ebp], eax
  0021f	83 bd dc fe ff
	ff 00		 cmp	 DWORD PTR $T85655[ebp], 0
  00226	74 3f		 je	 SHORT $L85657
  00228	68 cd cc cc 3d	 push	 1036831949		; 3dcccccdH
  0022d	68 00 00 80 3f	 push	 1065353216		; 3f800000H
  00232	68 00 00 80 3f	 push	 1065353216		; 3f800000H
  00237	68 00 00 80 3f	 push	 1065353216		; 3f800000H
  0023c	8d 8d c4 fe ff
	ff		 lea	 ecx, DWORD PTR $T85656[ebp]
  00242	e8 00 00 00 00	 call	 ??0D3DXCOLOR@@QAE@MMMM@Z ; D3DXCOLOR::D3DXCOLOR
  00247	50		 push	 eax
  00248	6a 01		 push	 1
  0024a	68 00 00 80 3f	 push	 1065353216		; 3f800000H
  0024f	68 00 00 80 3f	 push	 1065353216		; 3f800000H
  00254	8b 8d dc fe ff
	ff		 mov	 ecx, DWORD PTR $T85655[ebp]
  0025a	e8 00 00 00 00	 call	 ??0CBillboard@@QAE@MMHPAUD3DXCOLOR@@@Z ; CBillboard::CBillboard
  0025f	89 85 b0 fe ff
	ff		 mov	 DWORD PTR tv187[ebp], eax
  00265	eb 0a		 jmp	 SHORT $L85658
$L85657:
  00267	c7 85 b0 fe ff
	ff 00 00 00 00	 mov	 DWORD PTR tv187[ebp], 0
$L85658:
  00271	8b 45 f8	 mov	 eax, DWORD PTR _this$[ebp]
  00274	8b 8d b0 fe ff
	ff		 mov	 ecx, DWORD PTR tv187[ebp]
  0027a	89 88 90 02 00
	00		 mov	 DWORD PTR [eax+656], ecx

; 39   : 			assert( m_pBB_Shockwave );

  00280	8b 45 f8	 mov	 eax, DWORD PTR _this$[ebp]
  00283	83 b8 90 02 00
	00 00		 cmp	 DWORD PTR [eax+656], 0
  0028a	75 1c		 jne	 SHORT $L85476
  0028c	8b 0d 00 00 00
	00		 mov	 ecx, DWORD PTR ?__LINE__Var@?1???0CExplosion@@QAE@MHHH@Z@4JA
  00292	83 c1 18	 add	 ecx, 24			; 00000018H
  00295	51		 push	 ecx
  00296	68 00 00 00 00	 push	 OFFSET FLAT:??_C@_0EM@NHDLOCGA@c?3?2documents?5and?5settings?2dom?2my@
  0029b	68 00 00 00 00	 push	 OFFSET FLAT:??_C@_0BA@BNFOOJEL@m_pBB_Shockwave?$AA@
  002a0	e8 00 00 00 00	 call	 __assert
  002a5	83 c4 0c	 add	 esp, 12			; 0000000cH
$L85476:

; 40   : 		}
; 41   : 		
; 42   : 		m_pPS_Explosion = NULL ;

  002a8	8b 45 f8	 mov	 eax, DWORD PTR _this$[ebp]
  002ab	c7 80 94 02 00
	00 00 00 00 00	 mov	 DWORD PTR [eax+660], 0

; 43   : 		if( bParticles )

  002b5	83 7d 10 00	 cmp	 DWORD PTR _bParticles$[ebp], 0
  002b9	74 79		 je	 SHORT $L85461

; 44   : 		{
; 45   : 			m_pPS_Explosion = new CParticleSystem( 512, 2048, 0.0f );

  002bb	6a 3c		 push	 60			; 0000003cH
  002bd	e8 00 00 00 00	 call	 ??2@YAPAXI@Z		; operator new
  002c2	83 c4 04	 add	 esp, 4
  002c5	89 85 b8 fe ff
	ff		 mov	 DWORD PTR $T85660[ebp], eax
  002cb	83 bd b8 fe ff
	ff 00		 cmp	 DWORD PTR $T85660[ebp], 0
  002d2	74 1f		 je	 SHORT $L85661
  002d4	6a 00		 push	 0
  002d6	68 00 08 00 00	 push	 2048			; 00000800H
  002db	68 00 02 00 00	 push	 512			; 00000200H
  002e0	8b 8d b8 fe ff
	ff		 mov	 ecx, DWORD PTR $T85660[ebp]
  002e6	e8 00 00 00 00	 call	 ??0CParticleSystem@@QAE@KKM@Z ; CParticleSystem::CParticleSystem
  002eb	89 85 b0 fe ff
	ff		 mov	 DWORD PTR tv206[ebp], eax
  002f1	eb 0a		 jmp	 SHORT $L85662
$L85661:
  002f3	c7 85 b0 fe ff
	ff 00 00 00 00	 mov	 DWORD PTR tv206[ebp], 0
$L85662:
  002fd	8b 45 f8	 mov	 eax, DWORD PTR _this$[ebp]
  00300	8b 8d b0 fe ff
	ff		 mov	 ecx, DWORD PTR tv206[ebp]
  00306	89 88 94 02 00
	00		 mov	 DWORD PTR [eax+660], ecx

; 46   : 			assert( m_pPS_Explosion );

  0030c	8b 45 f8	 mov	 eax, DWORD PTR _this$[ebp]
  0030f	83 b8 94 02 00
	00 00		 cmp	 DWORD PTR [eax+660], 0
  00316	75 1c		 jne	 SHORT $L85461
  00318	8b 0d 00 00 00
	00		 mov	 ecx, DWORD PTR ?__LINE__Var@?1???0CExplosion@@QAE@MHHH@Z@4JA
  0031e	83 c1 1f	 add	 ecx, 31			; 0000001fH
  00321	51		 push	 ecx
  00322	68 00 00 00 00	 push	 OFFSET FLAT:??_C@_0EM@NHDLOCGA@c?3?2documents?5and?5settings?2dom?2my@
  00327	68 00 00 00 00	 push	 OFFSET FLAT:??_C@_0BA@NALNDGPE@m_pPS_Explosion?$AA@
  0032c	e8 00 00 00 00	 call	 __assert
  00331	83 c4 0c	 add	 esp, 12			; 0000000cH
$L85461:

; 47   : 		}
; 48   : 	}

  00334	8b 45 f8	 mov	 eax, DWORD PTR _this$[ebp]
  00337	5f		 pop	 edi
  00338	5e		 pop	 esi
  00339	5b		 pop	 ebx
  0033a	81 c4 50 01 00
	00		 add	 esp, 336		; 00000150H
  00340	3b ec		 cmp	 ebp, esp
  00342	e8 00 00 00 00	 call	 __RTC_CheckEsp
  00347	8b e5		 mov	 esp, ebp
  00349	5d		 pop	 ebp
  0034a	c2 10 00	 ret	 16			; 00000010H
??0CExplosion@@QAE@MHHH@Z ENDP				; CExplosion::CExplosion
_TEXT	ENDS
PUBLIC	??0D3DXVECTOR2@@QAE@XZ				; D3DXVECTOR2::D3DXVECTOR2
; Function compile flags: /Odt /RTCsu /ZI
;	COMDAT ??0SUBEXPLOSION@CExplosion@@QAE@XZ
_TEXT	SEGMENT
_this$ = -8
??0SUBEXPLOSION@CExplosion@@QAE@XZ PROC NEAR		; CExplosion::SUBEXPLOSION::SUBEXPLOSION, COMDAT
; _this$ = ecx
  00000	55		 push	 ebp
  00001	8b ec		 mov	 ebp, esp
  00003	81 ec cc 00 00
	00		 sub	 esp, 204		; 000000ccH
  00009	53		 push	 ebx
  0000a	56		 push	 esi
  0000b	57		 push	 edi
  0000c	51		 push	 ecx
  0000d	8d bd 34 ff ff
	ff		 lea	 edi, DWORD PTR [ebp-204]
  00013	b9 33 00 00 00	 mov	 ecx, 51			; 00000033H
  00018	b8 cc cc cc cc	 mov	 eax, -858993460		; ccccccccH
  0001d	f3 ab		 rep stosd
  0001f	59		 pop	 ecx
  00020	89 4d f8	 mov	 DWORD PTR _this$[ebp], ecx
  00023	8b 4d f8	 mov	 ecx, DWORD PTR _this$[ebp]
  00026	83 c1 04	 add	 ecx, 4
  00029	e8 00 00 00 00	 call	 ??0D3DXVECTOR2@@QAE@XZ	; D3DXVECTOR2::D3DXVECTOR2
  0002e	8b 45 f8	 mov	 eax, DWORD PTR _this$[ebp]
  00031	5f		 pop	 edi
  00032	5e		 pop	 esi
  00033	5b		 pop	 ebx
  00034	81 c4 cc 00 00
	00		 add	 esp, 204		; 000000ccH
  0003a	3b ec		 cmp	 ebp, esp
  0003c	e8 00 00 00 00	 call	 __RTC_CheckEsp
  00041	8b e5		 mov	 esp, ebp
  00043	5d		 pop	 ebp
  00044	c3		 ret	 0
??0SUBEXPLOSION@CExplosion@@QAE@XZ ENDP			; CExplosion::SUBEXPLOSION::SUBEXPLOSION
; Function compile flags: /Odt /RTCsu /ZI
_TEXT	ENDS
;	COMDAT ??_H@YGXPAXIHP6EPAX0@Z@Z
_TEXT	SEGMENT
___t$ = 8
___s$ = 12
___n$ = 16
___f$ = 20
??_H@YGXPAXIHP6EPAX0@Z@Z PROC NEAR			; `vector constructor iterator', COMDAT
  00000	55		 push	 ebp
  00001	8b ec		 mov	 ebp, esp
  00003	81 ec c0 00 00
	00		 sub	 esp, 192		; 000000c0H
  00009	53		 push	 ebx
  0000a	56		 push	 esi
  0000b	57		 push	 edi
  0000c	8d bd 40 ff ff
	ff		 lea	 edi, DWORD PTR [ebp-192]
  00012	b9 30 00 00 00	 mov	 ecx, 48			; 00000030H
  00017	b8 cc cc cc cc	 mov	 eax, -858993460		; ccccccccH
  0001c	f3 ab		 rep stosd
$L85497:
  0001e	8b 45 10	 mov	 eax, DWORD PTR ___n$[ebp]
  00021	83 e8 01	 sub	 eax, 1
  00024	89 45 10	 mov	 DWORD PTR ___n$[ebp], eax
  00027	83 7d 10 00	 cmp	 DWORD PTR ___n$[ebp], 0
  0002b	7c 1a		 jl	 SHORT $L85495
  0002d	8b f4		 mov	 esi, esp
  0002f	8b 4d 08	 mov	 ecx, DWORD PTR ___t$[ebp]
  00032	ff 55 14	 call	 DWORD PTR ___f$[ebp]
  00035	3b f4		 cmp	 esi, esp
  00037	e8 00 00 00 00	 call	 __RTC_CheckEsp
  0003c	8b 45 08	 mov	 eax, DWORD PTR ___t$[ebp]
  0003f	03 45 0c	 add	 eax, DWORD PTR ___s$[ebp]
  00042	89 45 08	 mov	 DWORD PTR ___t$[ebp], eax
  00045	eb d7		 jmp	 SHORT $L85497
$L85495:
  00047	5f		 pop	 edi
  00048	5e		 pop	 esi
  00049	5b		 pop	 ebx
  0004a	81 c4 c0 00 00
	00		 add	 esp, 192		; 000000c0H
  00050	3b ec		 cmp	 ebp, esp
  00052	e8 00 00 00 00	 call	 __RTC_CheckEsp
  00057	8b e5		 mov	 esp, ebp
  00059	5d		 pop	 ebp
  0005a	c2 10 00	 ret	 16			; 00000010H
??_H@YGXPAXIHP6EPAX0@Z@Z ENDP				; `vector constructor iterator'
_TEXT	ENDS
PUBLIC	??_GCParticleSystem@@QAEPAXI@Z			; CParticleSystem::`scalar deleting destructor'
PUBLIC	??1CExplosion@@QAE@XZ				; CExplosion::~CExplosion
PUBLIC	??_GCBillboard@@QAEPAXI@Z			; CBillboard::`scalar deleting destructor'
; Function compile flags: /Odt /RTCsu /ZI
;	COMDAT ??1CExplosion@@QAE@XZ
_TEXT	SEGMENT
tv89 = -280
tv80 = -280
tv71 = -280
$T85693 = -272
$T85692 = -260
$T85689 = -248
$T85688 = -236
$T85685 = -224
$T85684 = -212
_this$ = -8
??1CExplosion@@QAE@XZ PROC NEAR				; CExplosion::~CExplosion, COMDAT
; _this$ = ecx

; 50   : 	{

  00000	55		 push	 ebp
  00001	8b ec		 mov	 ebp, esp
  00003	81 ec 18 01 00
	00		 sub	 esp, 280		; 00000118H
  00009	53		 push	 ebx
  0000a	56		 push	 esi
  0000b	57		 push	 edi
  0000c	51		 push	 ecx
  0000d	8d bd e8 fe ff
	ff		 lea	 edi, DWORD PTR [ebp-280]
  00013	b9 46 00 00 00	 mov	 ecx, 70			; 00000046H
  00018	b8 cc cc cc cc	 mov	 eax, -858993460		; ccccccccH
  0001d	f3 ab		 rep stosd
  0001f	59		 pop	 ecx
  00020	89 4d f8	 mov	 DWORD PTR _this$[ebp], ecx

; 51   : 		SAFE_DELETE( m_pBB )

  00023	8b 45 f8	 mov	 eax, DWORD PTR _this$[ebp]
  00026	83 b8 8c 02 00
	00 00		 cmp	 DWORD PTR [eax+652], 0
  0002d	74 50		 je	 SHORT $L85503
  0002f	8b 45 f8	 mov	 eax, DWORD PTR _this$[ebp]
  00032	8b 88 8c 02 00
	00		 mov	 ecx, DWORD PTR [eax+652]
  00038	89 8d 20 ff ff
	ff		 mov	 DWORD PTR $T85685[ebp], ecx
  0003e	8b 95 20 ff ff
	ff		 mov	 edx, DWORD PTR $T85685[ebp]
  00044	89 95 2c ff ff
	ff		 mov	 DWORD PTR $T85684[ebp], edx
  0004a	83 bd 2c ff ff
	ff 00		 cmp	 DWORD PTR $T85684[ebp], 0
  00051	74 15		 je	 SHORT $L85686
  00053	6a 01		 push	 1
  00055	8b 8d 2c ff ff
	ff		 mov	 ecx, DWORD PTR $T85684[ebp]
  0005b	e8 00 00 00 00	 call	 ??_GCBillboard@@QAEPAXI@Z
  00060	89 85 e8 fe ff
	ff		 mov	 DWORD PTR tv71[ebp], eax
  00066	eb 0a		 jmp	 SHORT $L85687
$L85686:
  00068	c7 85 e8 fe ff
	ff 00 00 00 00	 mov	 DWORD PTR tv71[ebp], 0
$L85687:
  00072	8b 45 f8	 mov	 eax, DWORD PTR _this$[ebp]
  00075	c7 80 8c 02 00
	00 00 00 00 00	 mov	 DWORD PTR [eax+652], 0
$L85503:

; 52   : 		SAFE_DELETE( m_pPS_Explosion )

  0007f	8b 45 f8	 mov	 eax, DWORD PTR _this$[ebp]
  00082	83 b8 94 02 00
	00 00		 cmp	 DWORD PTR [eax+660], 0
  00089	74 50		 je	 SHORT $L85506
  0008b	8b 45 f8	 mov	 eax, DWORD PTR _this$[ebp]
  0008e	8b 88 94 02 00
	00		 mov	 ecx, DWORD PTR [eax+660]
  00094	89 8d 08 ff ff
	ff		 mov	 DWORD PTR $T85689[ebp], ecx
  0009a	8b 95 08 ff ff
	ff		 mov	 edx, DWORD PTR $T85689[ebp]
  000a0	89 95 14 ff ff
	ff		 mov	 DWORD PTR $T85688[ebp], edx
  000a6	83 bd 14 ff ff
	ff 00		 cmp	 DWORD PTR $T85688[ebp], 0
  000ad	74 15		 je	 SHORT $L85690
  000af	6a 01		 push	 1
  000b1	8b 8d 14 ff ff
	ff		 mov	 ecx, DWORD PTR $T85688[ebp]
  000b7	e8 00 00 00 00	 call	 ??_GCParticleSystem@@QAEPAXI@Z
  000bc	89 85 e8 fe ff
	ff		 mov	 DWORD PTR tv80[ebp], eax
  000c2	eb 0a		 jmp	 SHORT $L85691
$L85690:
  000c4	c7 85 e8 fe ff
	ff 00 00 00 00	 mov	 DWORD PTR tv80[ebp], 0
$L85691:
  000ce	8b 45 f8	 mov	 eax, DWORD PTR _this$[ebp]
  000d1	c7 80 94 02 00
	00 00 00 00 00	 mov	 DWORD PTR [eax+660], 0
$L85506:

; 53   : 		SAFE_DELETE( m_pBB_Shockwave )

  000db	8b 45 f8	 mov	 eax, DWORD PTR _this$[ebp]
  000de	83 b8 90 02 00
	00 00		 cmp	 DWORD PTR [eax+656], 0
  000e5	74 50		 je	 SHORT $L85502
  000e7	8b 45 f8	 mov	 eax, DWORD PTR _this$[ebp]
  000ea	8b 88 90 02 00
	00		 mov	 ecx, DWORD PTR [eax+656]
  000f0	89 8d f0 fe ff
	ff		 mov	 DWORD PTR $T85693[ebp], ecx
  000f6	8b 95 f0 fe ff
	ff		 mov	 edx, DWORD PTR $T85693[ebp]
  000fc	89 95 fc fe ff
	ff		 mov	 DWORD PTR $T85692[ebp], edx
  00102	83 bd fc fe ff
	ff 00		 cmp	 DWORD PTR $T85692[ebp], 0
  00109	74 15		 je	 SHORT $L85694
  0010b	6a 01		 push	 1
  0010d	8b 8d fc fe ff
	ff		 mov	 ecx, DWORD PTR $T85692[ebp]
  00113	e8 00 00 00 00	 call	 ??_GCBillboard@@QAEPAXI@Z
  00118	89 85 e8 fe ff
	ff		 mov	 DWORD PTR tv89[ebp], eax
  0011e	eb 0a		 jmp	 SHORT $L85695
$L85694:
  00120	c7 85 e8 fe ff
	ff 00 00 00 00	 mov	 DWORD PTR tv89[ebp], 0
$L85695:
  0012a	8b 45 f8	 mov	 eax, DWORD PTR _this$[ebp]
  0012d	c7 80 90 02 00
	00 00 00 00 00	 mov	 DWORD PTR [eax+656], 0
$L85502:

; 54   : 	}

  00137	5f		 pop	 edi
  00138	5e		 pop	 esi
  00139	5b		 pop	 ebx
  0013a	81 c4 18 01 00
	00		 add	 esp, 280		; 00000118H
  00140	3b ec		 cmp	 ebp, esp
  00142	e8 00 00 00 00	 call	 __RTC_CheckEsp
  00147	8b e5		 mov	 esp, ebp
  00149	5d		 pop	 ebp
  0014a	c3		 ret	 0
??1CExplosion@@QAE@XZ ENDP				; CExplosion::~CExplosion
_TEXT	ENDS
EXTRN	??3@YAXPAX@Z:NEAR				; operator delete
EXTRN	??1CBillboard@@QAE@XZ:NEAR			; CBillboard::~CBillboard
; Function compile flags: /Odt /RTCsu /ZI
;	COMDAT ??_GCBillboard@@QAEPAXI@Z
_TEXT	SEGMENT
_this$ = -8
___flags$ = 8
??_GCBillboard@@QAEPAXI@Z PROC NEAR			; CBillboard::`scalar deleting destructor', COMDAT
; _this$ = ecx
  00000	55		 push	 ebp
  00001	8b ec		 mov	 ebp, esp
  00003	81 ec cc 00 00
	00		 sub	 esp, 204		; 000000ccH
  00009	53		 push	 ebx
  0000a	56		 push	 esi
  0000b	57		 push	 edi
  0000c	51		 push	 ecx
  0000d	8d bd 34 ff ff
	ff		 lea	 edi, DWORD PTR [ebp-204]
  00013	b9 33 00 00 00	 mov	 ecx, 51			; 00000033H
  00018	b8 cc cc cc cc	 mov	 eax, -858993460		; ccccccccH
  0001d	f3 ab		 rep stosd
  0001f	59		 pop	 ecx
  00020	89 4d f8	 mov	 DWORD PTR _this$[ebp], ecx
  00023	8b 4d f8	 mov	 ecx, DWORD PTR _this$[ebp]
  00026	e8 00 00 00 00	 call	 ??1CBillboard@@QAE@XZ	; CBillboard::~CBillboard
  0002b	8b 45 08	 mov	 eax, DWORD PTR ___flags$[ebp]
  0002e	83 e0 01	 and	 eax, 1
  00031	85 c0		 test	 eax, eax
  00033	74 0c		 je	 SHORT $L85516
  00035	8b 45 f8	 mov	 eax, DWORD PTR _this$[ebp]
  00038	50		 push	 eax
  00039	e8 00 00 00 00	 call	 ??3@YAXPAX@Z		; operator delete
  0003e	83 c4 04	 add	 esp, 4
$L85516:
  00041	8b 45 f8	 mov	 eax, DWORD PTR _this$[ebp]
  00044	5f		 pop	 edi
  00045	5e		 pop	 esi
  00046	5b		 pop	 ebx
  00047	81 c4 cc 00 00
	00		 add	 esp, 204		; 000000ccH
  0004d	3b ec		 cmp	 ebp, esp
  0004f	e8 00 00 00 00	 call	 __RTC_CheckEsp
  00054	8b e5		 mov	 esp, ebp
  00056	5d		 pop	 ebp
  00057	c2 04 00	 ret	 4
??_GCBillboard@@QAEPAXI@Z ENDP				; CBillboard::`scalar deleting destructor'
_TEXT	ENDS
EXTRN	??1CParticleSystem@@QAE@XZ:NEAR			; CParticleSystem::~CParticleSystem
; Function compile flags: /Odt /RTCsu /ZI
;	COMDAT ??_GCParticleSystem@@QAEPAXI@Z
_TEXT	SEGMENT
_this$ = -8
___flags$ = 8
??_GCParticleSystem@@QAEPAXI@Z PROC NEAR		; CParticleSystem::`scalar deleting destructor', COMDAT
; _this$ = ecx
  00000	55		 push	 ebp
  00001	8b ec		 mov	 ebp, esp
  00003	81 ec cc 00 00
	00		 sub	 esp, 204		; 000000ccH
  00009	53		 push	 ebx
  0000a	56		 push	 esi
  0000b	57		 push	 edi
  0000c	51		 push	 ecx
  0000d	8d bd 34 ff ff
	ff		 lea	 edi, DWORD PTR [ebp-204]
  00013	b9 33 00 00 00	 mov	 ecx, 51			; 00000033H
  00018	b8 cc cc cc cc	 mov	 eax, -858993460		; ccccccccH
  0001d	f3 ab		 rep stosd
  0001f	59		 pop	 ecx
  00020	89 4d f8	 mov	 DWORD PTR _this$[ebp], ecx
  00023	8b 4d f8	 mov	 ecx, DWORD PTR _this$[ebp]
  00026	e8 00 00 00 00	 call	 ??1CParticleSystem@@QAE@XZ ; CParticleSystem::~CParticleSystem
  0002b	8b 45 08	 mov	 eax, DWORD PTR ___flags$[ebp]
  0002e	83 e0 01	 and	 eax, 1
  00031	85 c0		 test	 eax, eax
  00033	74 0c		 je	 SHORT $L85519
  00035	8b 45 f8	 mov	 eax, DWORD PTR _this$[ebp]
  00038	50		 push	 eax
  00039	e8 00 00 00 00	 call	 ??3@YAXPAX@Z		; operator delete
  0003e	83 c4 04	 add	 esp, 4
$L85519:
  00041	8b 45 f8	 mov	 eax, DWORD PTR _this$[ebp]
  00044	5f		 pop	 edi
  00045	5e		 pop	 esi
  00046	5b		 pop	 ebx
  00047	81 c4 cc 00 00
	00		 add	 esp, 204		; 000000ccH
  0004d	3b ec		 cmp	 ebp, esp
  0004f	e8 00 00 00 00	 call	 __RTC_CheckEsp
  00054	8b e5		 mov	 esp, ebp
  00056	5d		 pop	 ebp
  00057	c2 04 00	 ret	 4
??_GCParticleSystem@@QAEPAXI@Z ENDP			; CParticleSystem::`scalar deleting destructor'
_TEXT	ENDS
PUBLIC	?__LINE__Var@?1??InitSubExplosion@CExplosion@@QAEHW4e_ExpTypes@@MMMPAUD3DXVECTOR2@@@Z@4JA ; `CExplosion::InitSubExplosion'::`2'::__LINE__Var
PUBLIC	??_C@_0CD@KJPAJMNI@m_nSubExps?5?$DM?5MAX_EXPLOSION_SUBEX@ ; `string'
;	COMDAT ?__LINE__Var@?1??InitSubExplosion@CExplosion@@QAEHW4e_ExpTypes@@MMMPAUD3DXVECTOR2@@@Z@4JA
_DATA	SEGMENT
?__LINE__Var@?1??InitSubExplosion@CExplosion@@QAEHW4e_ExpTypes@@MMMPAUD3DXVECTOR2@@@Z@4JA DD 039H ; `CExplosion::InitSubExplosion'::`2'::__LINE__Var
_DATA	ENDS
;	COMDAT ??_C@_0CD@KJPAJMNI@m_nSubExps?5?$DM?5MAX_EXPLOSION_SUBEX@
CONST	SEGMENT
??_C@_0CD@KJPAJMNI@m_nSubExps?5?$DM?5MAX_EXPLOSION_SUBEX@ DB 'm_nSubExps '
	DB	'< MAX_EXPLOSION_SUBEXPS', 00H		; `string'
; Function compile flags: /Odt /RTCsu /ZI
CONST	ENDS
;	COMDAT ?InitSubExplosion@CExplosion@@QAEHW4e_ExpTypes@@MMMPAUD3DXVECTOR2@@@Z
_TEXT	SEGMENT
_this$ = -8
_Type$ = 8
_fLifespan$ = 12
_fRelSize$ = 16
_fDelay$ = 20
_pvRelCenter$ = 24
?InitSubExplosion@CExplosion@@QAEHW4e_ExpTypes@@MMMPAUD3DXVECTOR2@@@Z PROC NEAR ; CExplosion::InitSubExplosion, COMDAT
; _this$ = ecx

; 57   : 	{

  00000	55		 push	 ebp
  00001	8b ec		 mov	 ebp, esp
  00003	81 ec cc 00 00
	00		 sub	 esp, 204		; 000000ccH
  00009	53		 push	 ebx
  0000a	56		 push	 esi
  0000b	57		 push	 edi
  0000c	51		 push	 ecx
  0000d	8d bd 34 ff ff
	ff		 lea	 edi, DWORD PTR [ebp-204]
  00013	b9 33 00 00 00	 mov	 ecx, 51			; 00000033H
  00018	b8 cc cc cc cc	 mov	 eax, -858993460		; ccccccccH
  0001d	f3 ab		 rep stosd
  0001f	59		 pop	 ecx
  00020	89 4d f8	 mov	 DWORD PTR _this$[ebp], ecx

; 58   : 		assert( m_nSubExps < MAX_EXPLOSION_SUBEXPS );

  00023	8b 45 f8	 mov	 eax, DWORD PTR _this$[ebp]
  00026	83 b8 88 02 00
	00 10		 cmp	 DWORD PTR [eax+648], 16	; 00000010H
  0002d	7c 1c		 jl	 SHORT $L85702
  0002f	8b 0d 00 00 00
	00		 mov	 ecx, DWORD PTR ?__LINE__Var@?1??InitSubExplosion@CExplosion@@QAEHW4e_ExpTypes@@MMMPAUD3DXVECTOR2@@@Z@4JA
  00035	83 c1 01	 add	 ecx, 1
  00038	51		 push	 ecx
  00039	68 00 00 00 00	 push	 OFFSET FLAT:??_C@_0EM@NHDLOCGA@c?3?2documents?5and?5settings?2dom?2my@
  0003e	68 00 00 00 00	 push	 OFFSET FLAT:??_C@_0CD@KJPAJMNI@m_nSubExps?5?$DM?5MAX_EXPLOSION_SUBEX@
  00043	e8 00 00 00 00	 call	 __assert
  00048	83 c4 0c	 add	 esp, 12			; 0000000cH
$L85702:

; 59   : 
; 60   : 		m_SubExp[ m_nSubExps ].fDelay = fDelay ;

  0004b	8b 45 f8	 mov	 eax, DWORD PTR _this$[ebp]
  0004e	8b 88 88 02 00
	00		 mov	 ecx, DWORD PTR [eax+648]
  00054	6b c9 28	 imul	 ecx, 40			; 00000028H
  00057	8b 55 f8	 mov	 edx, DWORD PTR _this$[ebp]
  0005a	8b 45 14	 mov	 eax, DWORD PTR _fDelay$[ebp]
  0005d	89 44 0a 2c	 mov	 DWORD PTR [edx+ecx+44], eax

; 61   : 		m_SubExp[ m_nSubExps ].bActive = FALSE ;

  00061	8b 45 f8	 mov	 eax, DWORD PTR _this$[ebp]
  00064	8b 88 88 02 00
	00		 mov	 ecx, DWORD PTR [eax+648]
  0006a	6b c9 28	 imul	 ecx, 40			; 00000028H
  0006d	8b 55 f8	 mov	 edx, DWORD PTR _this$[ebp]
  00070	c7 44 0a 08 00
	00 00 00	 mov	 DWORD PTR [edx+ecx+8], 0

; 62   : 		m_SubExp[ m_nSubExps ].vRelCenter = *pvRelCenter ;

  00078	8b 45 18	 mov	 eax, DWORD PTR _pvRelCenter$[ebp]
  0007b	8b 08		 mov	 ecx, DWORD PTR [eax]
  0007d	8b 50 04	 mov	 edx, DWORD PTR [eax+4]
  00080	8b 45 f8	 mov	 eax, DWORD PTR _this$[ebp]
  00083	8b 80 88 02 00
	00		 mov	 eax, DWORD PTR [eax+648]
  00089	6b c0 28	 imul	 eax, 40			; 00000028H
  0008c	8b 75 f8	 mov	 esi, DWORD PTR _this$[ebp]
  0008f	89 4c 06 0c	 mov	 DWORD PTR [esi+eax+12], ecx
  00093	89 54 06 10	 mov	 DWORD PTR [esi+eax+16], edx

; 63   : 		m_SubExp[ m_nSubExps ].fRelSize = fRelSize ;

  00097	8b 45 f8	 mov	 eax, DWORD PTR _this$[ebp]
  0009a	8b 88 88 02 00
	00		 mov	 ecx, DWORD PTR [eax+648]
  000a0	6b c9 28	 imul	 ecx, 40			; 00000028H
  000a3	8b 55 f8	 mov	 edx, DWORD PTR _this$[ebp]
  000a6	8b 45 10	 mov	 eax, DWORD PTR _fRelSize$[ebp]
  000a9	89 44 0a 14	 mov	 DWORD PTR [edx+ecx+20], eax

; 64   : 		m_SubExp[ m_nSubExps ].ndxTex = g_Explosions[ Type ].ndxTex ;

  000ad	8b 45 f8	 mov	 eax, DWORD PTR _this$[ebp]
  000b0	8b 88 88 02 00
	00		 mov	 ecx, DWORD PTR [eax+648]
  000b6	6b c9 28	 imul	 ecx, 40			; 00000028H
  000b9	8b 55 f8	 mov	 edx, DWORD PTR _this$[ebp]
  000bc	8b 45 08	 mov	 eax, DWORD PTR _Type$[ebp]
  000bf	8b 04 c5 00 00
	00 00		 mov	 eax, DWORD PTR ?g_Explosions@@3PAUEXPLOSION_TYPE_DETAILS@@A[eax*8]
  000c6	89 44 0a 18	 mov	 DWORD PTR [edx+ecx+24], eax

; 65   : 		m_SubExp[ m_nSubExps ].ndxMaxTexFrame = g_Explosions[ Type ].ndxMaxTex ;

  000ca	8b 45 f8	 mov	 eax, DWORD PTR _this$[ebp]
  000cd	8b 88 88 02 00
	00		 mov	 ecx, DWORD PTR [eax+648]
  000d3	6b c9 28	 imul	 ecx, 40			; 00000028H
  000d6	8b 55 f8	 mov	 edx, DWORD PTR _this$[ebp]
  000d9	8b 45 08	 mov	 eax, DWORD PTR _Type$[ebp]
  000dc	8b 04 c5 04 00
	00 00		 mov	 eax, DWORD PTR ?g_Explosions@@3PAUEXPLOSION_TYPE_DETAILS@@A[eax*8+4]
  000e3	89 44 0a 1c	 mov	 DWORD PTR [edx+ecx+28], eax

; 66   : 		m_SubExp[ m_nSubExps ].ndxCurTexFrame = 0 ;

  000e7	8b 45 f8	 mov	 eax, DWORD PTR _this$[ebp]
  000ea	8b 88 88 02 00
	00		 mov	 ecx, DWORD PTR [eax+648]
  000f0	6b c9 28	 imul	 ecx, 40			; 00000028H
  000f3	8b 55 f8	 mov	 edx, DWORD PTR _this$[ebp]
  000f6	c7 44 0a 20 00
	00 00 00	 mov	 DWORD PTR [edx+ecx+32], 0

; 67   : 		m_SubExp[ m_nSubExps ].fLifespan = fLifespan ;

  000fe	8b 45 f8	 mov	 eax, DWORD PTR _this$[ebp]
  00101	8b 88 88 02 00
	00		 mov	 ecx, DWORD PTR [eax+648]
  00107	6b c9 28	 imul	 ecx, 40			; 00000028H
  0010a	8b 55 f8	 mov	 edx, DWORD PTR _this$[ebp]
  0010d	8b 45 0c	 mov	 eax, DWORD PTR _fLifespan$[ebp]
  00110	89 44 0a 24	 mov	 DWORD PTR [edx+ecx+36], eax

; 68   : 		m_SubExp[ m_nSubExps ].fCurFrameAge = 0.0f ;

  00114	8b 45 f8	 mov	 eax, DWORD PTR _this$[ebp]
  00117	8b 88 88 02 00
	00		 mov	 ecx, DWORD PTR [eax+648]
  0011d	6b c9 28	 imul	 ecx, 40			; 00000028H
  00120	8b 55 f8	 mov	 edx, DWORD PTR _this$[ebp]
  00123	c7 44 0a 28 00
	00 00 00	 mov	 DWORD PTR [edx+ecx+40], 0

; 69   : 		m_nSubExps++ ;

  0012b	8b 45 f8	 mov	 eax, DWORD PTR _this$[ebp]
  0012e	8b 88 88 02 00
	00		 mov	 ecx, DWORD PTR [eax+648]
  00134	83 c1 01	 add	 ecx, 1
  00137	8b 55 f8	 mov	 edx, DWORD PTR _this$[ebp]
  0013a	89 8a 88 02 00
	00		 mov	 DWORD PTR [edx+648], ecx

; 70   : 	}

  00140	5f		 pop	 edi
  00141	5e		 pop	 esi
  00142	5b		 pop	 ebx
  00143	81 c4 cc 00 00
	00		 add	 esp, 204		; 000000ccH
  00149	3b ec		 cmp	 ebp, esp
  0014b	e8 00 00 00 00	 call	 __RTC_CheckEsp
  00150	8b e5		 mov	 esp, ebp
  00152	5d		 pop	 ebp
  00153	c2 14 00	 ret	 20			; 00000014H
?InitSubExplosion@CExplosion@@QAEHW4e_ExpTypes@@MMMPAUD3DXVECTOR2@@@Z ENDP ; CExplosion::InitSubExplosion
_TEXT	ENDS
PUBLIC	?Reset@CExplosion@@QAEHXZ			; CExplosion::Reset
EXTRN	?Clear@CParticleSystem@@QAEHXZ:NEAR		; CParticleSystem::Clear
; Function compile flags: /Odt /RTCsu /ZI
;	COMDAT ?Reset@CExplosion@@QAEHXZ
_TEXT	SEGMENT
$T85705 = -228
_i$85534 = -20
_this$ = -8
?Reset@CExplosion@@QAEHXZ PROC NEAR			; CExplosion::Reset, COMDAT
; _this$ = ecx

; 73   : 	{

  00000	55		 push	 ebp
  00001	8b ec		 mov	 ebp, esp
  00003	81 ec e8 00 00
	00		 sub	 esp, 232		; 000000e8H
  00009	53		 push	 ebx
  0000a	56		 push	 esi
  0000b	57		 push	 edi
  0000c	51		 push	 ecx
  0000d	8d bd 18 ff ff
	ff		 lea	 edi, DWORD PTR [ebp-232]
  00013	b9 3a 00 00 00	 mov	 ecx, 58			; 0000003aH
  00018	b8 cc cc cc cc	 mov	 eax, -858993460		; ccccccccH
  0001d	f3 ab		 rep stosd
  0001f	59		 pop	 ecx
  00020	89 4d f8	 mov	 DWORD PTR _this$[ebp], ecx

; 74   : 	// resets size, position, lifetime and delay of subexplosions
; 75   : 	// note that the number of type of subexplosions is fixed in the constructor
; 76   : 		m_fAge = 0.0f ;

  00023	8b 45 f8	 mov	 eax, DWORD PTR _this$[ebp]
  00026	c7 40 04 00 00
	00 00		 mov	 DWORD PTR [eax+4], 0

; 77   : 		for( int i=0 ; i < m_nSubExps ; i++ )

  0002d	c7 45 ec 00 00
	00 00		 mov	 DWORD PTR _i$85534[ebp], 0
  00034	eb 09		 jmp	 SHORT $L85535
$L85536:
  00036	8b 45 ec	 mov	 eax, DWORD PTR _i$85534[ebp]
  00039	83 c0 01	 add	 eax, 1
  0003c	89 45 ec	 mov	 DWORD PTR _i$85534[ebp], eax
$L85535:
  0003f	8b 45 f8	 mov	 eax, DWORD PTR _this$[ebp]
  00042	8b 4d ec	 mov	 ecx, DWORD PTR _i$85534[ebp]
  00045	3b 88 88 02 00
	00		 cmp	 ecx, DWORD PTR [eax+648]
  0004b	0f 8d f7 00 00
	00		 jge	 $L85537

; 78   : 		{
; 79   : 			if( 0==i )

  00051	83 7d ec 00	 cmp	 DWORD PTR _i$85534[ebp], 0
  00055	75 1e		 jne	 SHORT $L85538

; 80   : 			{	// ensure primary is larger
; 81   : 				m_SubExp[ i ].fRelSize = 0.5f + rnd() * 0.5f ;

  00057	e8 00 00 00 00	 call	 ?rnd@@YAMXZ		; rnd
  0005c	d8 0d 00 00 00
	00		 fmul	 DWORD PTR __real@3f000000
  00062	d8 05 00 00 00
	00		 fadd	 DWORD PTR __real@3f000000
  00068	8b 45 ec	 mov	 eax, DWORD PTR _i$85534[ebp]
  0006b	6b c0 28	 imul	 eax, 40			; 00000028H
  0006e	8b 4d f8	 mov	 ecx, DWORD PTR _this$[ebp]
  00071	d9 5c 01 14	 fstp	 DWORD PTR [ecx+eax+20]
$L85538:

; 82   : 			}
; 83   : 			if( i > 0 )

  00075	83 7d ec 00	 cmp	 DWORD PTR _i$85534[ebp], 0
  00079	0f 8e 91 00 00
	00		 jle	 $L85539

; 84   : 			{
; 85   : 				m_SubExp[ i ].fRelSize = rnd() * 0.5f ;

  0007f	e8 00 00 00 00	 call	 ?rnd@@YAMXZ		; rnd
  00084	d8 0d 00 00 00
	00		 fmul	 DWORD PTR __real@3f000000
  0008a	8b 45 ec	 mov	 eax, DWORD PTR _i$85534[ebp]
  0008d	6b c0 28	 imul	 eax, 40			; 00000028H
  00090	8b 4d f8	 mov	 ecx, DWORD PTR _this$[ebp]
  00093	d9 5c 01 14	 fstp	 DWORD PTR [ecx+eax+20]

; 86   : 				m_SubExp[ i ].fLifespan = rnd() * m_fLifespan * 0.5f ;

  00097	e8 00 00 00 00	 call	 ?rnd@@YAMXZ		; rnd
  0009c	8b 45 f8	 mov	 eax, DWORD PTR _this$[ebp]
  0009f	d8 08		 fmul	 DWORD PTR [eax]
  000a1	d8 0d 00 00 00
	00		 fmul	 DWORD PTR __real@3f000000
  000a7	8b 4d ec	 mov	 ecx, DWORD PTR _i$85534[ebp]
  000aa	6b c9 28	 imul	 ecx, 40			; 00000028H
  000ad	8b 55 f8	 mov	 edx, DWORD PTR _this$[ebp]
  000b0	d9 5c 0a 24	 fstp	 DWORD PTR [edx+ecx+36]

; 87   : 				m_SubExp[ i ].fDelay = rnd() * m_fLifespan * 0.5f ;

  000b4	e8 00 00 00 00	 call	 ?rnd@@YAMXZ		; rnd
  000b9	8b 45 f8	 mov	 eax, DWORD PTR _this$[ebp]
  000bc	d8 08		 fmul	 DWORD PTR [eax]
  000be	d8 0d 00 00 00
	00		 fmul	 DWORD PTR __real@3f000000
  000c4	8b 4d ec	 mov	 ecx, DWORD PTR _i$85534[ebp]
  000c7	6b c9 28	 imul	 ecx, 40			; 00000028H
  000ca	8b 55 f8	 mov	 edx, DWORD PTR _this$[ebp]
  000cd	d9 5c 0a 2c	 fstp	 DWORD PTR [edx+ecx+44]

; 88   : 				m_SubExp[ i ].vRelCenter = xVec2( rnd()-0.5f, rnd()-0.5f );

  000d1	e8 00 00 00 00	 call	 ?rnd@@YAMXZ		; rnd
  000d6	d8 25 00 00 00
	00		 fsub	 DWORD PTR __real@3f000000
  000dc	51		 push	 ecx
  000dd	d9 1c 24	 fstp	 DWORD PTR [esp]
  000e0	e8 00 00 00 00	 call	 ?rnd@@YAMXZ		; rnd
  000e5	d8 25 00 00 00
	00		 fsub	 DWORD PTR __real@3f000000
  000eb	51		 push	 ecx
  000ec	d9 1c 24	 fstp	 DWORD PTR [esp]
  000ef	8d 8d 1c ff ff
	ff		 lea	 ecx, DWORD PTR $T85705[ebp]
  000f5	e8 00 00 00 00	 call	 ??0D3DXVECTOR2@@QAE@MM@Z ; D3DXVECTOR2::D3DXVECTOR2
  000fa	8b 08		 mov	 ecx, DWORD PTR [eax]
  000fc	8b 50 04	 mov	 edx, DWORD PTR [eax+4]
  000ff	8b 45 ec	 mov	 eax, DWORD PTR _i$85534[ebp]
  00102	6b c0 28	 imul	 eax, 40			; 00000028H
  00105	8b 75 f8	 mov	 esi, DWORD PTR _this$[ebp]
  00108	89 4c 06 0c	 mov	 DWORD PTR [esi+eax+12], ecx
  0010c	89 54 06 10	 mov	 DWORD PTR [esi+eax+16], edx
$L85539:

; 89   : 			}
; 90   : 			m_SubExp[ i ].ndxCurTexFrame = 0 ;

  00110	8b 45 ec	 mov	 eax, DWORD PTR _i$85534[ebp]
  00113	6b c0 28	 imul	 eax, 40			; 00000028H
  00116	8b 4d f8	 mov	 ecx, DWORD PTR _this$[ebp]
  00119	c7 44 01 20 00
	00 00 00	 mov	 DWORD PTR [ecx+eax+32], 0

; 91   : 			m_SubExp[ i ].fCurFrameAge = 0.0f ;

  00121	8b 45 ec	 mov	 eax, DWORD PTR _i$85534[ebp]
  00124	6b c0 28	 imul	 eax, 40			; 00000028H
  00127	8b 4d f8	 mov	 ecx, DWORD PTR _this$[ebp]
  0012a	c7 44 01 28 00
	00 00 00	 mov	 DWORD PTR [ecx+eax+40], 0

; 92   : 			m_SubExp[ i ].bActive = FALSE ;

  00132	8b 45 ec	 mov	 eax, DWORD PTR _i$85534[ebp]
  00135	6b c0 28	 imul	 eax, 40			; 00000028H
  00138	8b 4d f8	 mov	 ecx, DWORD PTR _this$[ebp]
  0013b	c7 44 01 08 00
	00 00 00	 mov	 DWORD PTR [ecx+eax+8], 0

; 93   : 		}

  00143	e9 ee fe ff ff	 jmp	 $L85536
$L85537:

; 94   : 
; 95   : 		if( m_pPS_Explosion )

  00148	8b 45 f8	 mov	 eax, DWORD PTR _this$[ebp]
  0014b	83 b8 94 02 00
	00 00		 cmp	 DWORD PTR [eax+660], 0
  00152	74 0e		 je	 SHORT $L85533

; 96   : 			m_pPS_Explosion->Clear() ;

  00154	8b 45 f8	 mov	 eax, DWORD PTR _this$[ebp]
  00157	8b 88 94 02 00
	00		 mov	 ecx, DWORD PTR [eax+660]
  0015d	e8 00 00 00 00	 call	 ?Clear@CParticleSystem@@QAEHXZ ; CParticleSystem::Clear
$L85533:

; 97   : 	}

  00162	5f		 pop	 edi
  00163	5e		 pop	 esi
  00164	5b		 pop	 ebx
  00165	81 c4 e8 00 00
	00		 add	 esp, 232		; 000000e8H
  0016b	3b ec		 cmp	 ebp, esp
  0016d	e8 00 00 00 00	 call	 __RTC_CheckEsp
  00172	8b e5		 mov	 esp, ebp
  00174	5d		 pop	 ebp
  00175	c3		 ret	 0
?Reset@CExplosion@@QAEHXZ ENDP				; CExplosion::Reset
_TEXT	ENDS
PUBLIC	?RestoreDeviceObjects@CExplosion@@QAEJPAUIDirect3DDevice8@@@Z ; CExplosion::RestoreDeviceObjects
PUBLIC	??_C@_0CC@CHDNDCHC@CExplosion?3?3RestoreDeviceObjects@ ; `string'
EXTRN	?ods@@YAXPADZZ:NEAR				; ods
EXTRN	?RestoreDeviceObjects@CBillboard@@QAEJQAUIDirect3DDevice8@@@Z:NEAR ; CBillboard::RestoreDeviceObjects
;	COMDAT ??_C@_0CC@CHDNDCHC@CExplosion?3?3RestoreDeviceObjects@
CONST	SEGMENT
??_C@_0CC@CHDNDCHC@CExplosion?3?3RestoreDeviceObjects@ DB 'CExplosion::Re'
	DB	'storeDeviceObjects', 0aH, 00H		; `string'
; Function compile flags: /Odt /RTCsu /ZI
CONST	ENDS
;	COMDAT ?RestoreDeviceObjects@CExplosion@@QAEJPAUIDirect3DDevice8@@@Z
_TEXT	SEGMENT
_this$ = -8
_pDev$ = 8
?RestoreDeviceObjects@CExplosion@@QAEJPAUIDirect3DDevice8@@@Z PROC NEAR ; CExplosion::RestoreDeviceObjects, COMDAT
; _this$ = ecx

; 105  : 	{

  00000	55		 push	 ebp
  00001	8b ec		 mov	 ebp, esp
  00003	81 ec cc 00 00
	00		 sub	 esp, 204		; 000000ccH
  00009	53		 push	 ebx
  0000a	56		 push	 esi
  0000b	57		 push	 edi
  0000c	51		 push	 ecx
  0000d	8d bd 34 ff ff
	ff		 lea	 edi, DWORD PTR [ebp-204]
  00013	b9 33 00 00 00	 mov	 ecx, 51			; 00000033H
  00018	b8 cc cc cc cc	 mov	 eax, -858993460		; ccccccccH
  0001d	f3 ab		 rep stosd
  0001f	59		 pop	 ecx
  00020	89 4d f8	 mov	 DWORD PTR _this$[ebp], ecx

; 106  : 		ods( "CExplosion::RestoreDeviceObjects\n" );

  00023	68 00 00 00 00	 push	 OFFSET FLAT:??_C@_0CC@CHDNDCHC@CExplosion?3?3RestoreDeviceObjects@
  00028	e8 00 00 00 00	 call	 ?ods@@YAXPADZZ		; ods
  0002d	83 c4 04	 add	 esp, 4

; 107  : 
; 108  : 		m_pBB->RestoreDeviceObjects( pDev );

  00030	8b 45 08	 mov	 eax, DWORD PTR _pDev$[ebp]
  00033	50		 push	 eax
  00034	8b 4d f8	 mov	 ecx, DWORD PTR _this$[ebp]
  00037	8b 89 8c 02 00
	00		 mov	 ecx, DWORD PTR [ecx+652]
  0003d	e8 00 00 00 00	 call	 ?RestoreDeviceObjects@CBillboard@@QAEJQAUIDirect3DDevice8@@@Z ; CBillboard::RestoreDeviceObjects

; 109  : 		if( m_pBB_Shockwave )

  00042	8b 45 f8	 mov	 eax, DWORD PTR _this$[ebp]
  00045	83 b8 90 02 00
	00 00		 cmp	 DWORD PTR [eax+656], 0
  0004c	74 12		 je	 SHORT $L85547

; 110  : 			m_pBB_Shockwave->RestoreDeviceObjects( pDev );

  0004e	8b 45 08	 mov	 eax, DWORD PTR _pDev$[ebp]
  00051	50		 push	 eax
  00052	8b 4d f8	 mov	 ecx, DWORD PTR _this$[ebp]
  00055	8b 89 90 02 00
	00		 mov	 ecx, DWORD PTR [ecx+656]
  0005b	e8 00 00 00 00	 call	 ?RestoreDeviceObjects@CBillboard@@QAEJQAUIDirect3DDevice8@@@Z ; CBillboard::RestoreDeviceObjects
$L85547:

; 111  : 
; 112  : 		return S_OK ;

  00060	33 c0		 xor	 eax, eax

; 113  : 	}

  00062	5f		 pop	 edi
  00063	5e		 pop	 esi
  00064	5b		 pop	 ebx
  00065	81 c4 cc 00 00
	00		 add	 esp, 204		; 000000ccH
  0006b	3b ec		 cmp	 ebp, esp
  0006d	e8 00 00 00 00	 call	 __RTC_CheckEsp
  00072	8b e5		 mov	 esp, ebp
  00074	5d		 pop	 ebp
  00075	c2 04 00	 ret	 4
?RestoreDeviceObjects@CExplosion@@QAEJPAUIDirect3DDevice8@@@Z ENDP ; CExplosion::RestoreDeviceObjects
_TEXT	ENDS
PUBLIC	?InvalidateDeviceObjects@CExplosion@@QAEJXZ	; CExplosion::InvalidateDeviceObjects
EXTRN	?InvalidateDeviceObjects@CBillboard@@QAEJXZ:NEAR ; CBillboard::InvalidateDeviceObjects
; Function compile flags: /Odt /RTCsu /ZI
;	COMDAT ?InvalidateDeviceObjects@CExplosion@@QAEJXZ
_TEXT	SEGMENT
_this$ = -8
?InvalidateDeviceObjects@CExplosion@@QAEJXZ PROC NEAR	; CExplosion::InvalidateDeviceObjects, COMDAT
; _this$ = ecx

; 115  : 	{

  00000	55		 push	 ebp
  00001	8b ec		 mov	 ebp, esp
  00003	81 ec cc 00 00
	00		 sub	 esp, 204		; 000000ccH
  00009	53		 push	 ebx
  0000a	56		 push	 esi
  0000b	57		 push	 edi
  0000c	51		 push	 ecx
  0000d	8d bd 34 ff ff
	ff		 lea	 edi, DWORD PTR [ebp-204]
  00013	b9 33 00 00 00	 mov	 ecx, 51			; 00000033H
  00018	b8 cc cc cc cc	 mov	 eax, -858993460		; ccccccccH
  0001d	f3 ab		 rep stosd
  0001f	59		 pop	 ecx
  00020	89 4d f8	 mov	 DWORD PTR _this$[ebp], ecx

; 116  : 		m_pBB->InvalidateDeviceObjects();

  00023	8b 45 f8	 mov	 eax, DWORD PTR _this$[ebp]
  00026	8b 88 8c 02 00
	00		 mov	 ecx, DWORD PTR [eax+652]
  0002c	e8 00 00 00 00	 call	 ?InvalidateDeviceObjects@CBillboard@@QAEJXZ ; CBillboard::InvalidateDeviceObjects

; 117  : 		if( m_pBB_Shockwave )

  00031	8b 45 f8	 mov	 eax, DWORD PTR _this$[ebp]
  00034	83 b8 90 02 00
	00 00		 cmp	 DWORD PTR [eax+656], 0
  0003b	74 0e		 je	 SHORT $L85552

; 118  : 			m_pBB_Shockwave->InvalidateDeviceObjects() ;

  0003d	8b 45 f8	 mov	 eax, DWORD PTR _this$[ebp]
  00040	8b 88 90 02 00
	00		 mov	 ecx, DWORD PTR [eax+656]
  00046	e8 00 00 00 00	 call	 ?InvalidateDeviceObjects@CBillboard@@QAEJXZ ; CBillboard::InvalidateDeviceObjects
$L85552:

; 119  : 
; 120  : 		return S_OK ;

  0004b	33 c0		 xor	 eax, eax

; 121  : 	}

  0004d	5f		 pop	 edi
  0004e	5e		 pop	 esi
  0004f	5b		 pop	 ebx
  00050	81 c4 cc 00 00
	00		 add	 esp, 204		; 000000ccH
  00056	3b ec		 cmp	 ebp, esp
  00058	e8 00 00 00 00	 call	 __RTC_CheckEsp
  0005d	8b e5		 mov	 esp, ebp
  0005f	5d		 pop	 ebp
  00060	c3		 ret	 0
?InvalidateDeviceObjects@CExplosion@@QAEJXZ ENDP	; CExplosion::InvalidateDeviceObjects
_TEXT	ENDS
PUBLIC	?FrameMove@CExplosion@@QAEJPAUIDirect3DDevice8@@MPAUD3DXVECTOR3@@1@Z ; CExplosion::FrameMove
PUBLIC	__real@42700000
PUBLIC	__real@41700000
PUBLIC	__real@41a00000
PUBLIC	__real@40400000
PUBLIC	__real@3e800000
PUBLIC	??0D3DXVECTOR3@@QAE@MMM@Z			; D3DXVECTOR3::D3DXVECTOR3
PUBLIC	??D@YA?AUD3DXVECTOR3@@MABU0@@Z			; operator*
EXTRN	?g_ParticleColor@@3PAUD3DXCOLOR@@A:BYTE		; g_ParticleColor
EXTRN	?g_ParticleColorFade@@3PAUD3DXCOLOR@@A:BYTE	; g_ParticleColorFade
EXTRN	?FrameMove@CParticleSystem@@QAEJMPAUD3DXVECTOR3@@MKMHABUD3DXCOLOR@@100HMH@Z:NEAR ; CParticleSystem::FrameMove
EXTRN	__ftol2:NEAR
;	COMDAT __real@42700000
CONST	SEGMENT
__real@42700000 DD 042700000r			; 60
CONST	ENDS
;	COMDAT __real@41700000
CONST	SEGMENT
__real@41700000 DD 041700000r			; 15
CONST	ENDS
;	COMDAT __real@41a00000
CONST	SEGMENT
__real@41a00000 DD 041a00000r			; 20
CONST	ENDS
;	COMDAT __real@40400000
CONST	SEGMENT
__real@40400000 DD 040400000r			; 3
CONST	ENDS
;	COMDAT __real@3e800000
CONST	SEGMENT
__real@3e800000 DD 03e800000r			; 0.25
; Function compile flags: /Odt /RTCsu /ZI
CONST	ENDS
;	COMDAT ?FrameMove@CExplosion@@QAEJPAUIDirect3DDevice8@@MPAUD3DXVECTOR3@@1@Z
_TEXT	SEGMENT
tv265 = -260
tv229 = -260
$T85713 = -252
$T85712 = -232
_i$85561 = -20
_this$ = -8
_pDev$ = 8
_fFPS$ = 12
_pvSourceVelocity$ = 16
_pvSource$ = 20
?FrameMove@CExplosion@@QAEJPAUIDirect3DDevice8@@MPAUD3DXVECTOR3@@1@Z PROC NEAR ; CExplosion::FrameMove, COMDAT
; _this$ = ecx

; 123  : 	{

  00000	55		 push	 ebp
  00001	8b ec		 mov	 ebp, esp
  00003	81 ec 04 01 00
	00		 sub	 esp, 260		; 00000104H
  00009	53		 push	 ebx
  0000a	56		 push	 esi
  0000b	57		 push	 edi
  0000c	51		 push	 ecx
  0000d	8d bd fc fe ff
	ff		 lea	 edi, DWORD PTR [ebp-260]
  00013	b9 41 00 00 00	 mov	 ecx, 65			; 00000041H
  00018	b8 cc cc cc cc	 mov	 eax, -858993460		; ccccccccH
  0001d	f3 ab		 rep stosd
  0001f	59		 pop	 ecx
  00020	89 4d f8	 mov	 DWORD PTR _this$[ebp], ecx

; 124  : 		m_fAge += ( 1.0f / fFPS );

  00023	d9 05 00 00 00
	00		 fld	 DWORD PTR __real@3f800000
  00029	d8 75 0c	 fdiv	 DWORD PTR _fFPS$[ebp]
  0002c	8b 45 f8	 mov	 eax, DWORD PTR _this$[ebp]
  0002f	d8 40 04	 fadd	 DWORD PTR [eax+4]
  00032	8b 4d f8	 mov	 ecx, DWORD PTR _this$[ebp]
  00035	d9 59 04	 fstp	 DWORD PTR [ecx+4]

; 125  : 
; 126  : 	// advance sub-explosion animations
; 127  : 		for( int i=0 ; i < m_nSubExps ; i++ )

  00038	c7 45 ec 00 00
	00 00		 mov	 DWORD PTR _i$85561[ebp], 0
  0003f	eb 09		 jmp	 SHORT $L85562
$L85563:
  00041	8b 45 ec	 mov	 eax, DWORD PTR _i$85561[ebp]
  00044	83 c0 01	 add	 eax, 1
  00047	89 45 ec	 mov	 DWORD PTR _i$85561[ebp], eax
$L85562:
  0004a	8b 45 f8	 mov	 eax, DWORD PTR _this$[ebp]
  0004d	8b 4d ec	 mov	 ecx, DWORD PTR _i$85561[ebp]
  00050	3b 88 88 02 00
	00		 cmp	 ecx, DWORD PTR [eax+648]
  00056	0f 8d 16 01 00
	00		 jge	 $L85564

; 128  : 		{
; 129  : 			if( m_fAge > m_SubExp[i].fDelay )

  0005c	8b 45 ec	 mov	 eax, DWORD PTR _i$85561[ebp]
  0005f	6b c0 28	 imul	 eax, 40			; 00000028H
  00062	8b 4d f8	 mov	 ecx, DWORD PTR _this$[ebp]
  00065	8b 55 f8	 mov	 edx, DWORD PTR _this$[ebp]
  00068	d9 41 04	 fld	 DWORD PTR [ecx+4]
  0006b	d8 5c 02 2c	 fcomp	 DWORD PTR [edx+eax+44]
  0006f	df e0		 fnstsw	 ax
  00071	f6 c4 41	 test	 ah, 65			; 00000041H
  00074	75 11		 jne	 SHORT $L85565

; 130  : 				m_SubExp[i].bActive = TRUE ;

  00076	8b 45 ec	 mov	 eax, DWORD PTR _i$85561[ebp]
  00079	6b c0 28	 imul	 eax, 40			; 00000028H
  0007c	8b 4d f8	 mov	 ecx, DWORD PTR _this$[ebp]
  0007f	c7 44 01 08 01
	00 00 00	 mov	 DWORD PTR [ecx+eax+8], 1
$L85565:

; 131  : 
; 132  : 			if( m_SubExp[i].ndxCurTexFrame != -1 && m_SubExp[i].bActive)

  00087	8b 45 ec	 mov	 eax, DWORD PTR _i$85561[ebp]
  0008a	6b c0 28	 imul	 eax, 40			; 00000028H
  0008d	8b 4d f8	 mov	 ecx, DWORD PTR _this$[ebp]
  00090	83 7c 01 20 ff	 cmp	 DWORD PTR [ecx+eax+32], -1
  00095	0f 84 d2 00 00
	00		 je	 $L85566
  0009b	8b 45 ec	 mov	 eax, DWORD PTR _i$85561[ebp]
  0009e	6b c0 28	 imul	 eax, 40			; 00000028H
  000a1	8b 4d f8	 mov	 ecx, DWORD PTR _this$[ebp]
  000a4	83 7c 01 08 00	 cmp	 DWORD PTR [ecx+eax+8], 0
  000a9	0f 84 be 00 00
	00		 je	 $L85566

; 133  : 			{
; 134  : 				m_SubExp[i].fCurFrameAge += ( 1.0f / fFPS );

  000af	8b 45 ec	 mov	 eax, DWORD PTR _i$85561[ebp]
  000b2	6b c0 28	 imul	 eax, 40			; 00000028H
  000b5	d9 05 00 00 00
	00		 fld	 DWORD PTR __real@3f800000
  000bb	d8 75 0c	 fdiv	 DWORD PTR _fFPS$[ebp]
  000be	8b 4d f8	 mov	 ecx, DWORD PTR _this$[ebp]
  000c1	d8 44 01 28	 fadd	 DWORD PTR [ecx+eax+40]
  000c5	8b 55 ec	 mov	 edx, DWORD PTR _i$85561[ebp]
  000c8	6b d2 28	 imul	 edx, 40			; 00000028H
  000cb	8b 45 f8	 mov	 eax, DWORD PTR _this$[ebp]
  000ce	d9 5c 10 28	 fstp	 DWORD PTR [eax+edx+40]

; 135  : 				if( m_SubExp[i].fCurFrameAge >=
; 136  : 						(m_SubExp[i].fLifespan / (m_SubExp[i].ndxMaxTexFrame + 1) ))

  000d2	8b 45 ec	 mov	 eax, DWORD PTR _i$85561[ebp]
  000d5	6b c0 28	 imul	 eax, 40			; 00000028H
  000d8	8b 4d ec	 mov	 ecx, DWORD PTR _i$85561[ebp]
  000db	6b c9 28	 imul	 ecx, 40			; 00000028H
  000de	8b 55 ec	 mov	 edx, DWORD PTR _i$85561[ebp]
  000e1	6b d2 28	 imul	 edx, 40			; 00000028H
  000e4	8b 75 f8	 mov	 esi, DWORD PTR _this$[ebp]
  000e7	8b 54 16 1c	 mov	 edx, DWORD PTR [esi+edx+28]
  000eb	83 c2 01	 add	 edx, 1
  000ee	89 95 fc fe ff
	ff		 mov	 DWORD PTR tv265[ebp], edx
  000f4	db 85 fc fe ff
	ff		 fild	 DWORD PTR tv265[ebp]
  000fa	8b 55 f8	 mov	 edx, DWORD PTR _this$[ebp]
  000fd	d8 7c 0a 24	 fdivr	 DWORD PTR [edx+ecx+36]
  00101	8b 4d f8	 mov	 ecx, DWORD PTR _this$[ebp]
  00104	d8 5c 01 28	 fcomp	 DWORD PTR [ecx+eax+40]
  00108	df e0		 fnstsw	 ax
  0010a	f6 c4 41	 test	 ah, 65			; 00000041H
  0010d	7a 5e		 jp	 SHORT $L85566

; 137  : 				{
; 138  : 					m_SubExp[i].fCurFrameAge = 0.0f ;

  0010f	8b 45 ec	 mov	 eax, DWORD PTR _i$85561[ebp]
  00112	6b c0 28	 imul	 eax, 40			; 00000028H
  00115	8b 4d f8	 mov	 ecx, DWORD PTR _this$[ebp]
  00118	c7 44 01 28 00
	00 00 00	 mov	 DWORD PTR [ecx+eax+40], 0

; 139  : 					if( ++m_SubExp[i].ndxCurTexFrame == m_SubExp[i].ndxMaxTexFrame - 1 )

  00120	8b 45 ec	 mov	 eax, DWORD PTR _i$85561[ebp]
  00123	6b c0 28	 imul	 eax, 40			; 00000028H
  00126	8b 4d f8	 mov	 ecx, DWORD PTR _this$[ebp]
  00129	8b 54 01 20	 mov	 edx, DWORD PTR [ecx+eax+32]
  0012d	83 c2 01	 add	 edx, 1
  00130	8b 45 ec	 mov	 eax, DWORD PTR _i$85561[ebp]
  00133	6b c0 28	 imul	 eax, 40			; 00000028H
  00136	8b 4d f8	 mov	 ecx, DWORD PTR _this$[ebp]
  00139	89 54 01 20	 mov	 DWORD PTR [ecx+eax+32], edx
  0013d	8b 55 ec	 mov	 edx, DWORD PTR _i$85561[ebp]
  00140	6b d2 28	 imul	 edx, 40			; 00000028H
  00143	8b 45 ec	 mov	 eax, DWORD PTR _i$85561[ebp]
  00146	6b c0 28	 imul	 eax, 40			; 00000028H
  00149	8b 4d f8	 mov	 ecx, DWORD PTR _this$[ebp]
  0014c	8b 44 01 1c	 mov	 eax, DWORD PTR [ecx+eax+28]
  00150	83 e8 01	 sub	 eax, 1
  00153	8b 4d f8	 mov	 ecx, DWORD PTR _this$[ebp]
  00156	39 44 11 20	 cmp	 DWORD PTR [ecx+edx+32], eax
  0015a	75 11		 jne	 SHORT $L85566

; 140  : 						m_SubExp[i].ndxCurTexFrame = -1 ;

  0015c	8b 45 ec	 mov	 eax, DWORD PTR _i$85561[ebp]
  0015f	6b c0 28	 imul	 eax, 40			; 00000028H
  00162	8b 4d f8	 mov	 ecx, DWORD PTR _this$[ebp]
  00165	c7 44 01 20 ff
	ff ff ff	 mov	 DWORD PTR [ecx+eax+32], -1
$L85566:

; 141  : 				}
; 142  : 			}
; 143  : 		}

  0016d	e9 cf fe ff ff	 jmp	 $L85563
$L85564:

; 144  : 
; 145  : 	// advance particles
; 146  : 		if( m_pPS_Explosion )

  00172	8b 45 f8	 mov	 eax, DWORD PTR _this$[ebp]
  00175	83 b8 94 02 00
	00 00		 cmp	 DWORD PTR [eax+660], 0
  0017c	0f 84 fe 00 00
	00		 je	 $L85569

; 147  : 			m_pPS_Explosion->FrameMove( fFPS,
; 148  : 										pvSourceVelocity,
; 149  : 										m_fAge,
; 150  : 										(m_fAge > m_fLifespan * 0.5f) ? 0 : (int)(15.0f * (60.0f/fFPS)),
; 151  : 										m_fLifespan * 0.25f,
; 152  : 										FALSE,
; 153  : 										g_ParticleColor[ (int)(rnd()*3) ],
; 154  : 										g_ParticleColorFade[ (int)(rnd()*3) ],
; 155  : 										(xVec3*)&( ( 20.0f * (1.0f/fFPS) * xVec3( rnd() - 0.5f, 0.0f, rnd() - 0.5f ) ) ),
; 156  : 										pvSource,
; 157  : 										TRUE,
; 158  : 										0.0f,
; 159  : 										FALSE );

  00182	8b 45 f8	 mov	 eax, DWORD PTR _this$[ebp]
  00185	d9 00		 fld	 DWORD PTR [eax]
  00187	d8 0d 00 00 00
	00		 fmul	 DWORD PTR __real@3f000000
  0018d	8b 4d f8	 mov	 ecx, DWORD PTR _this$[ebp]
  00190	d8 59 04	 fcomp	 DWORD PTR [ecx+4]
  00193	df e0		 fnstsw	 ax
  00195	f6 c4 05	 test	 ah, 5
  00198	7a 0c		 jp	 SHORT $L85714
  0019a	c7 85 fc fe ff
	ff 00 00 00 00	 mov	 DWORD PTR tv229[ebp], 0
  001a4	eb 1a		 jmp	 SHORT $L85715
$L85714:
  001a6	d9 05 00 00 00
	00		 fld	 DWORD PTR __real@42700000
  001ac	d8 75 0c	 fdiv	 DWORD PTR _fFPS$[ebp]
  001af	d8 0d 00 00 00
	00		 fmul	 DWORD PTR __real@41700000
  001b5	e8 00 00 00 00	 call	 __ftol2
  001ba	89 85 fc fe ff
	ff		 mov	 DWORD PTR tv229[ebp], eax
$L85715:
  001c0	6a 00		 push	 0
  001c2	6a 00		 push	 0
  001c4	6a 01		 push	 1
  001c6	8b 55 14	 mov	 edx, DWORD PTR _pvSource$[ebp]
  001c9	52		 push	 edx
  001ca	e8 00 00 00 00	 call	 ?rnd@@YAMXZ		; rnd
  001cf	d8 25 00 00 00
	00		 fsub	 DWORD PTR __real@3f000000
  001d5	51		 push	 ecx
  001d6	d9 1c 24	 fstp	 DWORD PTR [esp]
  001d9	6a 00		 push	 0
  001db	e8 00 00 00 00	 call	 ?rnd@@YAMXZ		; rnd
  001e0	d8 25 00 00 00
	00		 fsub	 DWORD PTR __real@3f000000
  001e6	51		 push	 ecx
  001e7	d9 1c 24	 fstp	 DWORD PTR [esp]
  001ea	8d 8d 18 ff ff
	ff		 lea	 ecx, DWORD PTR $T85712[ebp]
  001f0	e8 00 00 00 00	 call	 ??0D3DXVECTOR3@@QAE@MMM@Z ; D3DXVECTOR3::D3DXVECTOR3
  001f5	50		 push	 eax
  001f6	d9 05 00 00 00
	00		 fld	 DWORD PTR __real@3f800000
  001fc	d8 75 0c	 fdiv	 DWORD PTR _fFPS$[ebp]
  001ff	d8 0d 00 00 00
	00		 fmul	 DWORD PTR __real@41a00000
  00205	51		 push	 ecx
  00206	d9 1c 24	 fstp	 DWORD PTR [esp]
  00209	8d 85 04 ff ff
	ff		 lea	 eax, DWORD PTR $T85713[ebp]
  0020f	50		 push	 eax
  00210	e8 00 00 00 00	 call	 ??D@YA?AUD3DXVECTOR3@@MABU0@@Z ; operator*
  00215	83 c4 0c	 add	 esp, 12			; 0000000cH
  00218	50		 push	 eax
  00219	e8 00 00 00 00	 call	 ?rnd@@YAMXZ		; rnd
  0021e	d8 0d 00 00 00
	00		 fmul	 DWORD PTR __real@40400000
  00224	e8 00 00 00 00	 call	 __ftol2
  00229	c1 e0 04	 shl	 eax, 4
  0022c	05 00 00 00 00	 add	 eax, OFFSET FLAT:?g_ParticleColorFade@@3PAUD3DXCOLOR@@A ; g_ParticleColorFade
  00231	50		 push	 eax
  00232	e8 00 00 00 00	 call	 ?rnd@@YAMXZ		; rnd
  00237	d8 0d 00 00 00
	00		 fmul	 DWORD PTR __real@40400000
  0023d	e8 00 00 00 00	 call	 __ftol2
  00242	c1 e0 04	 shl	 eax, 4
  00245	05 00 00 00 00	 add	 eax, OFFSET FLAT:?g_ParticleColor@@3PAUD3DXCOLOR@@A ; g_ParticleColor
  0024a	50		 push	 eax
  0024b	6a 00		 push	 0
  0024d	8b 4d f8	 mov	 ecx, DWORD PTR _this$[ebp]
  00250	d9 01		 fld	 DWORD PTR [ecx]
  00252	d8 0d 00 00 00
	00		 fmul	 DWORD PTR __real@3e800000
  00258	51		 push	 ecx
  00259	d9 1c 24	 fstp	 DWORD PTR [esp]
  0025c	8b 95 fc fe ff
	ff		 mov	 edx, DWORD PTR tv229[ebp]
  00262	52		 push	 edx
  00263	8b 45 f8	 mov	 eax, DWORD PTR _this$[ebp]
  00266	8b 48 04	 mov	 ecx, DWORD PTR [eax+4]
  00269	51		 push	 ecx
  0026a	8b 55 10	 mov	 edx, DWORD PTR _pvSourceVelocity$[ebp]
  0026d	52		 push	 edx
  0026e	8b 45 0c	 mov	 eax, DWORD PTR _fFPS$[ebp]
  00271	50		 push	 eax
  00272	8b 4d f8	 mov	 ecx, DWORD PTR _this$[ebp]
  00275	8b 89 94 02 00
	00		 mov	 ecx, DWORD PTR [ecx+660]
  0027b	e8 00 00 00 00	 call	 ?FrameMove@CParticleSystem@@QAEJMPAUD3DXVECTOR3@@MKMHABUD3DXCOLOR@@100HMH@Z ; CParticleSystem::FrameMove
$L85569:

; 160  : 
; 161  : 		return S_OK ;

  00280	33 c0		 xor	 eax, eax

; 162  : 	}

  00282	5f		 pop	 edi
  00283	5e		 pop	 esi
  00284	5b		 pop	 ebx
  00285	81 c4 04 01 00
	00		 add	 esp, 260		; 00000104H
  0028b	3b ec		 cmp	 ebp, esp
  0028d	e8 00 00 00 00	 call	 __RTC_CheckEsp
  00292	8b e5		 mov	 esp, ebp
  00294	5d		 pop	 ebp
  00295	c2 10 00	 ret	 16			; 00000010H
?FrameMove@CExplosion@@QAEJPAUIDirect3DDevice8@@MPAUD3DXVECTOR3@@1@Z ENDP ; CExplosion::FrameMove
_TEXT	ENDS
PUBLIC	?D3DXVec3Lerp@@YAPAUD3DXVECTOR3@@PAU1@PBU1@1M@Z	; D3DXVec3Lerp
PUBLIC	?Render@CExplosion@@QAEJPAUIDirect3DDevice8@@PAVCTextures@@PAKPAVCCamera@@MPAUD3DXVECTOR3@@MPAUIDirect3DVertexBuffer8@@HH@Z ; CExplosion::Render
PUBLIC	__real@3c23d70a
PUBLIC	__real@40800000
PUBLIC	??0D3DXVECTOR3@@QAE@XZ				; D3DXVECTOR3::D3DXVECTOR3
EXTRN	?Render@CParticleSystem@@QAEJPAUIDirect3DDevice8@@MPAKPAUIDirect3DVertexBuffer8@@PAUD3DXMATRIX@@H3@Z:NEAR ; CParticleSystem::Render
EXTRN	@_RTC_CheckStackVars@8:NEAR
EXTRN	?Render@CBillboard@@QAEJPAUIDirect3DDevice8@@PAKPAUD3DXVECTOR3@@PAVCCamera@@MH@Z:NEAR ; CBillboard::Render
;	COMDAT __real@3c23d70a
CONST	SEGMENT
__real@3c23d70a DD 03c23d70ar			; 0.01
CONST	ENDS
;	COMDAT __real@40800000
CONST	SEGMENT
__real@40800000 DD 040800000r			; 4
; Function compile flags: /Odt /RTCsu /ZI
CONST	ENDS
;	COMDAT ?Render@CExplosion@@QAEJPAUIDirect3DDevice8@@PAVCTextures@@PAKPAVCCamera@@MPAUD3DXVECTOR3@@MPAUIDirect3DVertexBuffer8@@HH@Z
_TEXT	SEGMENT
_i$85599 = -52
_vPos$85595 = -40
_i$85590 = -20
_this$ = -8
_pDev$ = 8
_pTex$ = 12
_pulPolyCount$ = 16
_pCam$ = 20
_fSize$ = 24
_pvCenter$ = 28
_fShockwaveRadius$ = 32
_pSharedParticleSystemVB$ = 36
_SB$ = 40
_DB$ = 44
?Render@CExplosion@@QAEJPAUIDirect3DDevice8@@PAVCTextures@@PAKPAVCCamera@@MPAUD3DXVECTOR3@@MPAUIDirect3DVertexBuffer8@@HH@Z PROC NEAR ; CExplosion::Render, COMDAT
; _this$ = ecx

; 170  : 	{

  00000	55		 push	 ebp
  00001	8b ec		 mov	 ebp, esp
  00003	81 ec f8 00 00
	00		 sub	 esp, 248		; 000000f8H
  00009	53		 push	 ebx
  0000a	56		 push	 esi
  0000b	57		 push	 edi
  0000c	51		 push	 ecx
  0000d	8d bd 08 ff ff
	ff		 lea	 edi, DWORD PTR [ebp-248]
  00013	b9 3e 00 00 00	 mov	 ecx, 62			; 0000003eH
  00018	b8 cc cc cc cc	 mov	 eax, -858993460		; ccccccccH
  0001d	f3 ab		 rep stosd
  0001f	59		 pop	 ecx
  00020	89 4d f8	 mov	 DWORD PTR _this$[ebp], ecx

; 171  : 		pDev->SetRenderState( D3DRS_ZFUNC, D3DCMP_ALWAYS );

  00023	8b f4		 mov	 esi, esp
  00025	6a 08		 push	 8
  00027	6a 17		 push	 23			; 00000017H
  00029	8b 45 08	 mov	 eax, DWORD PTR _pDev$[ebp]
  0002c	8b 08		 mov	 ecx, DWORD PTR [eax]
  0002e	8b 55 08	 mov	 edx, DWORD PTR _pDev$[ebp]
  00031	52		 push	 edx
  00032	ff 91 c8 00 00
	00		 call	 DWORD PTR [ecx+200]
  00038	3b f4		 cmp	 esi, esp
  0003a	e8 00 00 00 00	 call	 __RTC_CheckEsp

; 172  : 		pDev->SetRenderState( D3DRS_SRCBLEND,  D3DBLEND_SRCCOLOR );	

  0003f	8b f4		 mov	 esi, esp
  00041	6a 03		 push	 3
  00043	6a 13		 push	 19			; 00000013H
  00045	8b 45 08	 mov	 eax, DWORD PTR _pDev$[ebp]
  00048	8b 08		 mov	 ecx, DWORD PTR [eax]
  0004a	8b 55 08	 mov	 edx, DWORD PTR _pDev$[ebp]
  0004d	52		 push	 edx
  0004e	ff 91 c8 00 00
	00		 call	 DWORD PTR [ecx+200]
  00054	3b f4		 cmp	 esi, esp
  00056	e8 00 00 00 00	 call	 __RTC_CheckEsp

; 173  : 		pDev->SetRenderState( D3DRS_DESTBLEND, D3DBLEND_INVSRCCOLOR );

  0005b	8b f4		 mov	 esi, esp
  0005d	6a 04		 push	 4
  0005f	6a 14		 push	 20			; 00000014H
  00061	8b 45 08	 mov	 eax, DWORD PTR _pDev$[ebp]
  00064	8b 08		 mov	 ecx, DWORD PTR [eax]
  00066	8b 55 08	 mov	 edx, DWORD PTR _pDev$[ebp]
  00069	52		 push	 edx
  0006a	ff 91 c8 00 00
	00		 call	 DWORD PTR [ecx+200]
  00070	3b f4		 cmp	 esi, esp
  00072	e8 00 00 00 00	 call	 __RTC_CheckEsp

; 174  : 
; 175  : 	// render subexplosions at specified positions and sizes
; 176  : 		for( int i=0 ; i < m_nSubExps ; i++ )

  00077	c7 45 ec 00 00
	00 00		 mov	 DWORD PTR _i$85590[ebp], 0
  0007e	eb 09		 jmp	 SHORT $L85591
$L85592:
  00080	8b 45 ec	 mov	 eax, DWORD PTR _i$85590[ebp]
  00083	83 c0 01	 add	 eax, 1
  00086	89 45 ec	 mov	 DWORD PTR _i$85590[ebp], eax
$L85591:
  00089	8b 45 f8	 mov	 eax, DWORD PTR _this$[ebp]
  0008c	8b 4d ec	 mov	 ecx, DWORD PTR _i$85590[ebp]
  0008f	3b 88 88 02 00
	00		 cmp	 ecx, DWORD PTR [eax+648]
  00095	0f 8d 1a 01 00
	00		 jge	 $L85593

; 177  : 		{
; 178  : 			if( m_SubExp[i].ndxCurTexFrame != -1 && m_SubExp[i].bActive )

  0009b	8b 45 ec	 mov	 eax, DWORD PTR _i$85590[ebp]
  0009e	6b c0 28	 imul	 eax, 40			; 00000028H
  000a1	8b 4d f8	 mov	 ecx, DWORD PTR _this$[ebp]
  000a4	83 7c 01 20 ff	 cmp	 DWORD PTR [ecx+eax+32], -1
  000a9	0f 84 01 01 00
	00		 je	 $L85594
  000af	8b 45 ec	 mov	 eax, DWORD PTR _i$85590[ebp]
  000b2	6b c0 28	 imul	 eax, 40			; 00000028H
  000b5	8b 4d f8	 mov	 ecx, DWORD PTR _this$[ebp]
  000b8	83 7c 01 08 00	 cmp	 DWORD PTR [ecx+eax+8], 0
  000bd	0f 84 ed 00 00
	00		 je	 $L85594

; 179  : 			{
; 180  : 				xVec3 vPos ;

  000c3	8d 4d d8	 lea	 ecx, DWORD PTR _vPos$85595[ebp]
  000c6	e8 00 00 00 00	 call	 ??0D3DXVECTOR3@@QAE@XZ	; D3DXVECTOR3::D3DXVECTOR3

; 181  : 				D3DXVec3Lerp( &vPos, pvCenter, &pCam->m_vEyePt, 0.01f * i );

  000cb	db 45 ec	 fild	 DWORD PTR _i$85590[ebp]
  000ce	d8 0d 00 00 00
	00		 fmul	 DWORD PTR __real@3c23d70a
  000d4	51		 push	 ecx
  000d5	d9 1c 24	 fstp	 DWORD PTR [esp]
  000d8	8b 45 14	 mov	 eax, DWORD PTR _pCam$[ebp]
  000db	50		 push	 eax
  000dc	8b 4d 1c	 mov	 ecx, DWORD PTR _pvCenter$[ebp]
  000df	51		 push	 ecx
  000e0	8d 55 d8	 lea	 edx, DWORD PTR _vPos$85595[ebp]
  000e3	52		 push	 edx
  000e4	e8 00 00 00 00	 call	 ?D3DXVec3Lerp@@YAPAUD3DXVECTOR3@@PAU1@PBU1@1M@Z ; D3DXVec3Lerp
  000e9	83 c4 10	 add	 esp, 16			; 00000010H

; 182  : 				vPos.x -= m_SubExp[i].vRelCenter.x * fSize * 0.25f ;

  000ec	8b 45 ec	 mov	 eax, DWORD PTR _i$85590[ebp]
  000ef	6b c0 28	 imul	 eax, 40			; 00000028H
  000f2	8b 4d f8	 mov	 ecx, DWORD PTR _this$[ebp]
  000f5	d9 45 18	 fld	 DWORD PTR _fSize$[ebp]
  000f8	d8 4c 01 0c	 fmul	 DWORD PTR [ecx+eax+12]
  000fc	d8 0d 00 00 00
	00		 fmul	 DWORD PTR __real@3e800000
  00102	d8 6d d8	 fsubr	 DWORD PTR _vPos$85595[ebp]
  00105	d9 5d d8	 fstp	 DWORD PTR _vPos$85595[ebp]

; 183  : 				vPos.z -= m_SubExp[i].vRelCenter.x * fSize * 0.25f ;

  00108	8b 45 ec	 mov	 eax, DWORD PTR _i$85590[ebp]
  0010b	6b c0 28	 imul	 eax, 40			; 00000028H
  0010e	8b 4d f8	 mov	 ecx, DWORD PTR _this$[ebp]
  00111	d9 45 18	 fld	 DWORD PTR _fSize$[ebp]
  00114	d8 4c 01 0c	 fmul	 DWORD PTR [ecx+eax+12]
  00118	d8 0d 00 00 00
	00		 fmul	 DWORD PTR __real@3e800000
  0011e	d8 6d e0	 fsubr	 DWORD PTR _vPos$85595[ebp+8]
  00121	d9 5d e0	 fstp	 DWORD PTR _vPos$85595[ebp+8]

; 184  : 				vPos.y -= m_SubExp[i].vRelCenter.y * fSize * 0.25f ;

  00124	8b 45 ec	 mov	 eax, DWORD PTR _i$85590[ebp]
  00127	6b c0 28	 imul	 eax, 40			; 00000028H
  0012a	8b 4d f8	 mov	 ecx, DWORD PTR _this$[ebp]
  0012d	d9 45 18	 fld	 DWORD PTR _fSize$[ebp]
  00130	d8 4c 01 10	 fmul	 DWORD PTR [ecx+eax+16]
  00134	d8 0d 00 00 00
	00		 fmul	 DWORD PTR __real@3e800000
  0013a	d8 6d dc	 fsubr	 DWORD PTR _vPos$85595[ebp+4]
  0013d	d9 5d dc	 fstp	 DWORD PTR _vPos$85595[ebp+4]

; 185  : 
; 186  : 				pDev->SetTexture( 0, pTex->m_pTex[ m_SubExp[i].ndxTex + m_SubExp[i].ndxCurTexFrame ] );

  00140	8b 45 ec	 mov	 eax, DWORD PTR _i$85590[ebp]
  00143	6b c0 28	 imul	 eax, 40			; 00000028H
  00146	8b 4d ec	 mov	 ecx, DWORD PTR _i$85590[ebp]
  00149	6b c9 28	 imul	 ecx, 40			; 00000028H
  0014c	8b 55 f8	 mov	 edx, DWORD PTR _this$[ebp]
  0014f	8b 44 02 18	 mov	 eax, DWORD PTR [edx+eax+24]
  00153	8b 55 f8	 mov	 edx, DWORD PTR _this$[ebp]
  00156	03 44 0a 20	 add	 eax, DWORD PTR [edx+ecx+32]
  0015a	8b f4		 mov	 esi, esp
  0015c	8b 4d 0c	 mov	 ecx, DWORD PTR _pTex$[ebp]
  0015f	8b 54 81 1c	 mov	 edx, DWORD PTR [ecx+eax*4+28]
  00163	52		 push	 edx
  00164	6a 00		 push	 0
  00166	8b 45 08	 mov	 eax, DWORD PTR _pDev$[ebp]
  00169	8b 08		 mov	 ecx, DWORD PTR [eax]
  0016b	8b 55 08	 mov	 edx, DWORD PTR _pDev$[ebp]
  0016e	52		 push	 edx
  0016f	ff 91 f4 00 00
	00		 call	 DWORD PTR [ecx+244]
  00175	3b f4		 cmp	 esi, esp
  00177	e8 00 00 00 00	 call	 __RTC_CheckEsp

; 187  : 				
; 188  : 				/*if( i > 0 ) {
; 189  : 					pDev->SetRenderState( D3DRS_SRCBLEND,  D3DBLEND_DESTCOLOR );	
; 190  : 					pDev->SetRenderState( D3DRS_DESTBLEND, D3DBLEND_INVSRCCOLOR );
; 191  : 				}*/
; 192  : 
; 193  : 				m_pBB->Render( pDev,
; 194  : 							   pulPolyCount,
; 195  : 							   (xVec3*)&vPos,
; 196  : 							   pCam,
; 197  : 							   fSize * m_SubExp[ i ].fRelSize ,
; 198  : 							   TRUE );

  0017c	6a 01		 push	 1
  0017e	8b 45 ec	 mov	 eax, DWORD PTR _i$85590[ebp]
  00181	6b c0 28	 imul	 eax, 40			; 00000028H
  00184	8b 4d f8	 mov	 ecx, DWORD PTR _this$[ebp]
  00187	d9 45 18	 fld	 DWORD PTR _fSize$[ebp]
  0018a	d8 4c 01 14	 fmul	 DWORD PTR [ecx+eax+20]
  0018e	51		 push	 ecx
  0018f	d9 1c 24	 fstp	 DWORD PTR [esp]
  00192	8b 55 14	 mov	 edx, DWORD PTR _pCam$[ebp]
  00195	52		 push	 edx
  00196	8d 45 d8	 lea	 eax, DWORD PTR _vPos$85595[ebp]
  00199	50		 push	 eax
  0019a	8b 4d 10	 mov	 ecx, DWORD PTR _pulPolyCount$[ebp]
  0019d	51		 push	 ecx
  0019e	8b 55 08	 mov	 edx, DWORD PTR _pDev$[ebp]
  001a1	52		 push	 edx
  001a2	8b 45 f8	 mov	 eax, DWORD PTR _this$[ebp]
  001a5	8b 88 8c 02 00
	00		 mov	 ecx, DWORD PTR [eax+652]
  001ab	e8 00 00 00 00	 call	 ?Render@CBillboard@@QAEJPAUIDirect3DDevice8@@PAKPAUD3DXVECTOR3@@PAVCCamera@@MH@Z ; CBillboard::Render
$L85594:

; 199  : 			}
; 200  : 		}

  001b0	e9 cb fe ff ff	 jmp	 $L85592
$L85593:

; 201  : 
; 202  : 	// particles
; 203  : 		if( m_pPS_Explosion )

  001b5	8b 45 f8	 mov	 eax, DWORD PTR _this$[ebp]
  001b8	83 b8 94 02 00
	00 00		 cmp	 DWORD PTR [eax+660], 0
  001bf	74 51		 je	 SHORT $L85597

; 204  : 		{
; 205  : 			pDev->SetTexture( 0, pTex->m_pTex[ PARTICLE_TEX_START+0 ] );

  001c1	8b f4		 mov	 esi, esp
  001c3	8b 45 0c	 mov	 eax, DWORD PTR _pTex$[ebp]
  001c6	8b 88 44 0a 00
	00		 mov	 ecx, DWORD PTR [eax+2628]
  001cc	51		 push	 ecx
  001cd	6a 00		 push	 0
  001cf	8b 55 08	 mov	 edx, DWORD PTR _pDev$[ebp]
  001d2	8b 02		 mov	 eax, DWORD PTR [edx]
  001d4	8b 4d 08	 mov	 ecx, DWORD PTR _pDev$[ebp]
  001d7	51		 push	 ecx
  001d8	ff 90 f4 00 00
	00		 call	 DWORD PTR [eax+244]
  001de	3b f4		 cmp	 esi, esp
  001e0	e8 00 00 00 00	 call	 __RTC_CheckEsp

; 206  : 			m_pPS_Explosion->Render( pDev, fSize / 4.0f, pulPolyCount, pSharedParticleSystemVB, NULL, TRUE, NULL );

  001e5	6a 00		 push	 0
  001e7	6a 01		 push	 1
  001e9	6a 00		 push	 0
  001eb	8b 45 24	 mov	 eax, DWORD PTR _pSharedParticleSystemVB$[ebp]
  001ee	50		 push	 eax
  001ef	8b 4d 10	 mov	 ecx, DWORD PTR _pulPolyCount$[ebp]
  001f2	51		 push	 ecx
  001f3	d9 45 18	 fld	 DWORD PTR _fSize$[ebp]
  001f6	d8 35 00 00 00
	00		 fdiv	 DWORD PTR __real@40800000
  001fc	51		 push	 ecx
  001fd	d9 1c 24	 fstp	 DWORD PTR [esp]
  00200	8b 55 08	 mov	 edx, DWORD PTR _pDev$[ebp]
  00203	52		 push	 edx
  00204	8b 45 f8	 mov	 eax, DWORD PTR _this$[ebp]
  00207	8b 88 94 02 00
	00		 mov	 ecx, DWORD PTR [eax+660]
  0020d	e8 00 00 00 00	 call	 ?Render@CParticleSystem@@QAEJPAUIDirect3DDevice8@@MPAKPAUIDirect3DVertexBuffer8@@PAUD3DXMATRIX@@H3@Z ; CParticleSystem::Render
$L85597:

; 207  : 		}
; 208  : 
; 209  : 	// shockwave, rendered with gadget blender;
; 210  : 		if( m_pBB_Shockwave )

  00212	8b 45 f8	 mov	 eax, DWORD PTR _this$[ebp]
  00215	83 b8 90 02 00
	00 00		 cmp	 DWORD PTR [eax+656], 0
  0021c	0f 84 94 00 00
	00		 je	 $L85598

; 211  : 		{
; 212  : 			float i = m_fAge / m_fLifespan ;

  00222	8b 45 f8	 mov	 eax, DWORD PTR _this$[ebp]
  00225	8b 4d f8	 mov	 ecx, DWORD PTR _this$[ebp]
  00228	d9 40 04	 fld	 DWORD PTR [eax+4]
  0022b	d8 31		 fdiv	 DWORD PTR [ecx]
  0022d	d9 5d cc	 fstp	 DWORD PTR _i$85599[ebp]

; 213  : 			pDev->SetRenderState( D3DRS_SRCBLEND,  D3DBLEND_DESTCOLOR );

  00230	8b f4		 mov	 esi, esp
  00232	6a 09		 push	 9
  00234	6a 13		 push	 19			; 00000013H
  00236	8b 45 08	 mov	 eax, DWORD PTR _pDev$[ebp]
  00239	8b 08		 mov	 ecx, DWORD PTR [eax]
  0023b	8b 55 08	 mov	 edx, DWORD PTR _pDev$[ebp]
  0023e	52		 push	 edx
  0023f	ff 91 c8 00 00
	00		 call	 DWORD PTR [ecx+200]
  00245	3b f4		 cmp	 esi, esp
  00247	e8 00 00 00 00	 call	 __RTC_CheckEsp

; 214  : 			pDev->SetRenderState( D3DRS_DESTBLEND, D3DBLEND_DESTALPHA );

  0024c	8b f4		 mov	 esi, esp
  0024e	6a 07		 push	 7
  00250	6a 14		 push	 20			; 00000014H
  00252	8b 45 08	 mov	 eax, DWORD PTR _pDev$[ebp]
  00255	8b 08		 mov	 ecx, DWORD PTR [eax]
  00257	8b 55 08	 mov	 edx, DWORD PTR _pDev$[ebp]
  0025a	52		 push	 edx
  0025b	ff 91 c8 00 00
	00		 call	 DWORD PTR [ecx+200]
  00261	3b f4		 cmp	 esi, esp
  00263	e8 00 00 00 00	 call	 __RTC_CheckEsp

; 215  : 			pDev->SetTexture( 0, pTex->m_pTex[ EXP_TEX_START+17 ] );

  00268	8b f4		 mov	 esi, esp
  0026a	8b 45 0c	 mov	 eax, DWORD PTR _pTex$[ebp]
  0026d	8b 88 48 04 00
	00		 mov	 ecx, DWORD PTR [eax+1096]
  00273	51		 push	 ecx
  00274	6a 00		 push	 0
  00276	8b 55 08	 mov	 edx, DWORD PTR _pDev$[ebp]
  00279	8b 02		 mov	 eax, DWORD PTR [edx]
  0027b	8b 4d 08	 mov	 ecx, DWORD PTR _pDev$[ebp]
  0027e	51		 push	 ecx
  0027f	ff 90 f4 00 00
	00		 call	 DWORD PTR [eax+244]
  00285	3b f4		 cmp	 esi, esp
  00287	e8 00 00 00 00	 call	 __RTC_CheckEsp

; 216  : 			m_pBB_Shockwave->Render( pDev, pulPolyCount, (xVec3*)pvCenter, pCam, fShockwaveRadius * i, FALSE );

  0028c	6a 00		 push	 0
  0028e	d9 45 20	 fld	 DWORD PTR _fShockwaveRadius$[ebp]
  00291	d8 4d cc	 fmul	 DWORD PTR _i$85599[ebp]
  00294	51		 push	 ecx
  00295	d9 1c 24	 fstp	 DWORD PTR [esp]
  00298	8b 45 14	 mov	 eax, DWORD PTR _pCam$[ebp]
  0029b	50		 push	 eax
  0029c	8b 4d 1c	 mov	 ecx, DWORD PTR _pvCenter$[ebp]
  0029f	51		 push	 ecx
  002a0	8b 55 10	 mov	 edx, DWORD PTR _pulPolyCount$[ebp]
  002a3	52		 push	 edx
  002a4	8b 45 08	 mov	 eax, DWORD PTR _pDev$[ebp]
  002a7	50		 push	 eax
  002a8	8b 4d f8	 mov	 ecx, DWORD PTR _this$[ebp]
  002ab	8b 89 90 02 00
	00		 mov	 ecx, DWORD PTR [ecx+656]
  002b1	e8 00 00 00 00	 call	 ?Render@CBillboard@@QAEJPAUIDirect3DDevice8@@PAKPAUD3DXVECTOR3@@PAVCCamera@@MH@Z ; CBillboard::Render
$L85598:

; 217  : 		}
; 218  : 
; 219  : 	// all done
; 220  : 		pDev->SetRenderState( D3DRS_ZFUNC, D3DCMP_LESSEQUAL );

  002b6	8b f4		 mov	 esi, esp
  002b8	6a 04		 push	 4
  002ba	6a 17		 push	 23			; 00000017H
  002bc	8b 45 08	 mov	 eax, DWORD PTR _pDev$[ebp]
  002bf	8b 08		 mov	 ecx, DWORD PTR [eax]
  002c1	8b 55 08	 mov	 edx, DWORD PTR _pDev$[ebp]
  002c4	52		 push	 edx
  002c5	ff 91 c8 00 00
	00		 call	 DWORD PTR [ecx+200]
  002cb	3b f4		 cmp	 esi, esp
  002cd	e8 00 00 00 00	 call	 __RTC_CheckEsp

; 221  : 		return S_OK ;

  002d2	33 c0		 xor	 eax, eax

; 222  : 	}

  002d4	52		 push	 edx
  002d5	8b cd		 mov	 ecx, ebp
  002d7	50		 push	 eax
  002d8	8d 15 00 00 00
	00		 lea	 edx, DWORD PTR $L85735
  002de	e8 00 00 00 00	 call	 @_RTC_CheckStackVars@8
  002e3	58		 pop	 eax
  002e4	5a		 pop	 edx
  002e5	5f		 pop	 edi
  002e6	5e		 pop	 esi
  002e7	5b		 pop	 ebx
  002e8	81 c4 f8 00 00
	00		 add	 esp, 248		; 000000f8H
  002ee	3b ec		 cmp	 ebp, esp
  002f0	e8 00 00 00 00	 call	 __RTC_CheckEsp
  002f5	8b e5		 mov	 esp, ebp
  002f7	5d		 pop	 ebp
  002f8	c2 28 00	 ret	 40			; 00000028H
$L85735:
  002fb	01 00 00 00	 DD	 1
  002ff	00 00 00 00	 DD	 $L85734
$L85734:
  00303	d8 ff ff ff	 DD	 -40			; ffffffd8H
  00307	0c 00 00 00	 DD	 12			; 0000000cH
  0030b	00 00 00 00	 DD	 $L85733
$L85733:
  0030f	76		 DB	 118			; 00000076H
  00310	50		 DB	 80			; 00000050H
  00311	6f		 DB	 111			; 0000006fH
  00312	73		 DB	 115			; 00000073H
  00313	00		 DB	 0
?Render@CExplosion@@QAEJPAUIDirect3DDevice8@@PAVCTextures@@PAKPAVCCamera@@MPAUD3DXVECTOR3@@MPAUIDirect3DVertexBuffer8@@HH@Z ENDP ; CExplosion::Render
; Function compile flags: /Odt /RTCsu /ZI
; File c:\dxsdk\include\d3dx8math.h
_TEXT	ENDS
;	COMDAT ??0D3DXVECTOR2@@QAE@XZ
_TEXT	SEGMENT
_this$ = -8
??0D3DXVECTOR2@@QAE@XZ PROC NEAR			; D3DXVECTOR2::D3DXVECTOR2, COMDAT
; _this$ = ecx

; 46   :     D3DXVECTOR2() {};

  00000	55		 push	 ebp
  00001	8b ec		 mov	 ebp, esp
  00003	81 ec cc 00 00
	00		 sub	 esp, 204		; 000000ccH
  00009	53		 push	 ebx
  0000a	56		 push	 esi
  0000b	57		 push	 edi
  0000c	51		 push	 ecx
  0000d	8d bd 34 ff ff
	ff		 lea	 edi, DWORD PTR [ebp-204]
  00013	b9 33 00 00 00	 mov	 ecx, 51			; 00000033H
  00018	b8 cc cc cc cc	 mov	 eax, -858993460		; ccccccccH
  0001d	f3 ab		 rep stosd
  0001f	59		 pop	 ecx
  00020	89 4d f8	 mov	 DWORD PTR _this$[ebp], ecx
  00023	8b 45 f8	 mov	 eax, DWORD PTR _this$[ebp]
  00026	5f		 pop	 edi
  00027	5e		 pop	 esi
  00028	5b		 pop	 ebx
  00029	8b e5		 mov	 esp, ebp
  0002b	5d		 pop	 ebp
  0002c	c3		 ret	 0
??0D3DXVECTOR2@@QAE@XZ ENDP				; D3DXVECTOR2::D3DXVECTOR2
; Function compile flags: /Odt /RTCsu /ZI
_TEXT	ENDS
;	COMDAT ??0D3DXVECTOR3@@QAE@XZ
_TEXT	SEGMENT
_this$ = -8
??0D3DXVECTOR3@@QAE@XZ PROC NEAR			; D3DXVECTOR3::D3DXVECTOR3, COMDAT
; _this$ = ecx

; 89   :     D3DXVECTOR3() {};

  00000	55		 push	 ebp
  00001	8b ec		 mov	 ebp, esp
  00003	81 ec cc 00 00
	00		 sub	 esp, 204		; 000000ccH
  00009	53		 push	 ebx
  0000a	56		 push	 esi
  0000b	57		 push	 edi
  0000c	51		 push	 ecx
  0000d	8d bd 34 ff ff
	ff		 lea	 edi, DWORD PTR [ebp-204]
  00013	b9 33 00 00 00	 mov	 ecx, 51			; 00000033H
  00018	b8 cc cc cc cc	 mov	 eax, -858993460		; ccccccccH
  0001d	f3 ab		 rep stosd
  0001f	59		 pop	 ecx
  00020	89 4d f8	 mov	 DWORD PTR _this$[ebp], ecx
  00023	8b 45 f8	 mov	 eax, DWORD PTR _this$[ebp]
  00026	5f		 pop	 edi
  00027	5e		 pop	 esi
  00028	5b		 pop	 ebx
  00029	8b e5		 mov	 esp, ebp
  0002b	5d		 pop	 ebp
  0002c	c3		 ret	 0
??0D3DXVECTOR3@@QAE@XZ ENDP				; D3DXVECTOR3::D3DXVECTOR3
; Function compile flags: /Odt /RTCsu /ZI
; File c:\dxsdk\include\d3dx8math.inl
_TEXT	ENDS
;	COMDAT ??0D3DXVECTOR2@@QAE@MM@Z
_TEXT	SEGMENT
_this$ = -8
_fx$ = 8
_fy$ = 12
??0D3DXVECTOR2@@QAE@MM@Z PROC NEAR			; D3DXVECTOR2::D3DXVECTOR2, COMDAT
; _this$ = ecx

; 40   : {

  00000	55		 push	 ebp
  00001	8b ec		 mov	 ebp, esp
  00003	81 ec cc 00 00
	00		 sub	 esp, 204		; 000000ccH
  00009	53		 push	 ebx
  0000a	56		 push	 esi
  0000b	57		 push	 edi
  0000c	51		 push	 ecx
  0000d	8d bd 34 ff ff
	ff		 lea	 edi, DWORD PTR [ebp-204]
  00013	b9 33 00 00 00	 mov	 ecx, 51			; 00000033H
  00018	b8 cc cc cc cc	 mov	 eax, -858993460		; ccccccccH
  0001d	f3 ab		 rep stosd
  0001f	59		 pop	 ecx
  00020	89 4d f8	 mov	 DWORD PTR _this$[ebp], ecx

; 41   :     x = fx;

  00023	8b 45 f8	 mov	 eax, DWORD PTR _this$[ebp]
  00026	8b 4d 08	 mov	 ecx, DWORD PTR _fx$[ebp]
  00029	89 08		 mov	 DWORD PTR [eax], ecx

; 42   :     y = fy;

  0002b	8b 45 f8	 mov	 eax, DWORD PTR _this$[ebp]
  0002e	8b 4d 0c	 mov	 ecx, DWORD PTR _fy$[ebp]
  00031	89 48 04	 mov	 DWORD PTR [eax+4], ecx

; 43   : }

  00034	8b 45 f8	 mov	 eax, DWORD PTR _this$[ebp]
  00037	5f		 pop	 edi
  00038	5e		 pop	 esi
  00039	5b		 pop	 ebx
  0003a	8b e5		 mov	 esp, ebp
  0003c	5d		 pop	 ebp
  0003d	c2 08 00	 ret	 8
??0D3DXVECTOR2@@QAE@MM@Z ENDP				; D3DXVECTOR2::D3DXVECTOR2
; Function compile flags: /Odt /RTCsu /ZI
_TEXT	ENDS
;	COMDAT ??0D3DXVECTOR3@@QAE@MMM@Z
_TEXT	SEGMENT
_this$ = -8
_fx$ = 8
_fy$ = 12
_fz$ = 16
??0D3DXVECTOR3@@QAE@MMM@Z PROC NEAR			; D3DXVECTOR3::D3DXVECTOR3, COMDAT
; _this$ = ecx

; 179  : {

  00000	55		 push	 ebp
  00001	8b ec		 mov	 ebp, esp
  00003	81 ec cc 00 00
	00		 sub	 esp, 204		; 000000ccH
  00009	53		 push	 ebx
  0000a	56		 push	 esi
  0000b	57		 push	 edi
  0000c	51		 push	 ecx
  0000d	8d bd 34 ff ff
	ff		 lea	 edi, DWORD PTR [ebp-204]
  00013	b9 33 00 00 00	 mov	 ecx, 51			; 00000033H
  00018	b8 cc cc cc cc	 mov	 eax, -858993460		; ccccccccH
  0001d	f3 ab		 rep stosd
  0001f	59		 pop	 ecx
  00020	89 4d f8	 mov	 DWORD PTR _this$[ebp], ecx

; 180  :     x = fx;

  00023	8b 45 f8	 mov	 eax, DWORD PTR _this$[ebp]
  00026	8b 4d 08	 mov	 ecx, DWORD PTR _fx$[ebp]
  00029	89 08		 mov	 DWORD PTR [eax], ecx

; 181  :     y = fy;

  0002b	8b 45 f8	 mov	 eax, DWORD PTR _this$[ebp]
  0002e	8b 4d 0c	 mov	 ecx, DWORD PTR _fy$[ebp]
  00031	89 48 04	 mov	 DWORD PTR [eax+4], ecx

; 182  :     z = fz;

  00034	8b 45 f8	 mov	 eax, DWORD PTR _this$[ebp]
  00037	8b 4d 10	 mov	 ecx, DWORD PTR _fz$[ebp]
  0003a	89 48 08	 mov	 DWORD PTR [eax+8], ecx

; 183  : }

  0003d	8b 45 f8	 mov	 eax, DWORD PTR _this$[ebp]
  00040	5f		 pop	 edi
  00041	5e		 pop	 esi
  00042	5b		 pop	 ebx
  00043	8b e5		 mov	 esp, ebp
  00045	5d		 pop	 ebp
  00046	c2 0c 00	 ret	 12			; 0000000cH
??0D3DXVECTOR3@@QAE@MMM@Z ENDP				; D3DXVECTOR3::D3DXVECTOR3
; Function compile flags: /Odt /RTCsu /ZI
_TEXT	ENDS
;	COMDAT ??D@YA?AUD3DXVECTOR3@@MABU0@@Z
_TEXT	SEGMENT
___$ReturnUdt$ = 8
_f$ = 12
_v$ = 16
??D@YA?AUD3DXVECTOR3@@MABU0@@Z PROC NEAR		; operator*, COMDAT

; 282  : {

  00000	55		 push	 ebp
  00001	8b ec		 mov	 ebp, esp
  00003	81 ec c0 00 00
	00		 sub	 esp, 192		; 000000c0H
  00009	53		 push	 ebx
  0000a	56		 push	 esi
  0000b	57		 push	 edi
  0000c	8d bd 40 ff ff
	ff		 lea	 edi, DWORD PTR [ebp-192]
  00012	b9 30 00 00 00	 mov	 ecx, 48			; 00000030H
  00017	b8 cc cc cc cc	 mov	 eax, -858993460		; ccccccccH
  0001c	f3 ab		 rep stosd

; 283  :     return D3DXVECTOR3(f * v.x, f * v.y, f * v.z);

  0001e	8b 45 10	 mov	 eax, DWORD PTR _v$[ebp]
  00021	d9 45 0c	 fld	 DWORD PTR _f$[ebp]
  00024	d8 48 08	 fmul	 DWORD PTR [eax+8]
  00027	51		 push	 ecx
  00028	d9 1c 24	 fstp	 DWORD PTR [esp]
  0002b	8b 4d 10	 mov	 ecx, DWORD PTR _v$[ebp]
  0002e	d9 45 0c	 fld	 DWORD PTR _f$[ebp]
  00031	d8 49 04	 fmul	 DWORD PTR [ecx+4]
  00034	51		 push	 ecx
  00035	d9 1c 24	 fstp	 DWORD PTR [esp]
  00038	8b 55 10	 mov	 edx, DWORD PTR _v$[ebp]
  0003b	d9 45 0c	 fld	 DWORD PTR _f$[ebp]
  0003e	d8 0a		 fmul	 DWORD PTR [edx]
  00040	51		 push	 ecx
  00041	d9 1c 24	 fstp	 DWORD PTR [esp]
  00044	8b 4d 08	 mov	 ecx, DWORD PTR ___$ReturnUdt$[ebp]
  00047	e8 00 00 00 00	 call	 ??0D3DXVECTOR3@@QAE@MMM@Z ; D3DXVECTOR3::D3DXVECTOR3
  0004c	8b 45 08	 mov	 eax, DWORD PTR ___$ReturnUdt$[ebp]

; 284  : }

  0004f	5f		 pop	 edi
  00050	5e		 pop	 esi
  00051	5b		 pop	 ebx
  00052	81 c4 c0 00 00
	00		 add	 esp, 192		; 000000c0H
  00058	3b ec		 cmp	 ebp, esp
  0005a	e8 00 00 00 00	 call	 __RTC_CheckEsp
  0005f	8b e5		 mov	 esp, ebp
  00061	5d		 pop	 ebp
  00062	c3		 ret	 0
??D@YA?AUD3DXVECTOR3@@MABU0@@Z ENDP			; operator*
; Function compile flags: /Odt /RTCsu /ZI
_TEXT	ENDS
;	COMDAT ??0D3DXCOLOR@@QAE@MMMM@Z
_TEXT	SEGMENT
_this$ = -8
_fr$ = 8
_fg$ = 12
_fb$ = 16
_fa$ = 20
??0D3DXCOLOR@@QAE@MMMM@Z PROC NEAR			; D3DXCOLOR::D3DXCOLOR, COMDAT
; _this$ = ecx

; 919  : {

  00000	55		 push	 ebp
  00001	8b ec		 mov	 ebp, esp
  00003	81 ec cc 00 00
	00		 sub	 esp, 204		; 000000ccH
  00009	53		 push	 ebx
  0000a	56		 push	 esi
  0000b	57		 push	 edi
  0000c	51		 push	 ecx
  0000d	8d bd 34 ff ff
	ff		 lea	 edi, DWORD PTR [ebp-204]
  00013	b9 33 00 00 00	 mov	 ecx, 51			; 00000033H
  00018	b8 cc cc cc cc	 mov	 eax, -858993460		; ccccccccH
  0001d	f3 ab		 rep stosd
  0001f	59		 pop	 ecx
  00020	89 4d f8	 mov	 DWORD PTR _this$[ebp], ecx

; 920  :     r = fr;

  00023	8b 45 f8	 mov	 eax, DWORD PTR _this$[ebp]
  00026	8b 4d 08	 mov	 ecx, DWORD PTR _fr$[ebp]
  00029	89 08		 mov	 DWORD PTR [eax], ecx

; 921  :     g = fg;

  0002b	8b 45 f8	 mov	 eax, DWORD PTR _this$[ebp]
  0002e	8b 4d 0c	 mov	 ecx, DWORD PTR _fg$[ebp]
  00031	89 48 04	 mov	 DWORD PTR [eax+4], ecx

; 922  :     b = fb;

  00034	8b 45 f8	 mov	 eax, DWORD PTR _this$[ebp]
  00037	8b 4d 10	 mov	 ecx, DWORD PTR _fb$[ebp]
  0003a	89 48 08	 mov	 DWORD PTR [eax+8], ecx

; 923  :     a = fa;

  0003d	8b 45 f8	 mov	 eax, DWORD PTR _this$[ebp]
  00040	8b 4d 14	 mov	 ecx, DWORD PTR _fa$[ebp]
  00043	89 48 0c	 mov	 DWORD PTR [eax+12], ecx

; 924  : }

  00046	8b 45 f8	 mov	 eax, DWORD PTR _this$[ebp]
  00049	5f		 pop	 edi
  0004a	5e		 pop	 esi
  0004b	5b		 pop	 ebx
  0004c	8b e5		 mov	 esp, ebp
  0004e	5d		 pop	 ebp
  0004f	c2 10 00	 ret	 16			; 00000010H
??0D3DXCOLOR@@QAE@MMMM@Z ENDP				; D3DXCOLOR::D3DXCOLOR
; Function compile flags: /Odt /RTCsu /ZI
_TEXT	ENDS
;	COMDAT ?D3DXVec3Lerp@@YAPAUD3DXVECTOR3@@PAU1@PBU1@1M@Z
_TEXT	SEGMENT
_pOut$ = 8
_pV1$ = 12
_pV2$ = 16
_s$ = 20
?D3DXVec3Lerp@@YAPAUD3DXVECTOR3@@PAU1@PBU1@1M@Z PROC NEAR ; D3DXVec3Lerp, COMDAT

; 1358 : {

  00000	55		 push	 ebp
  00001	8b ec		 mov	 ebp, esp
  00003	81 ec c0 00 00
	00		 sub	 esp, 192		; 000000c0H
  00009	53		 push	 ebx
  0000a	56		 push	 esi
  0000b	57		 push	 edi
  0000c	8d bd 40 ff ff
	ff		 lea	 edi, DWORD PTR [ebp-192]
  00012	b9 30 00 00 00	 mov	 ecx, 48			; 00000030H
  00017	b8 cc cc cc cc	 mov	 eax, -858993460		; ccccccccH
  0001c	f3 ab		 rep stosd

; 1359 : #ifdef D3DX_DEBUG
; 1360 :     if(!pOut || !pV1 || !pV2)
; 1361 :         return NULL;
; 1362 : #endif
; 1363 : 
; 1364 :     pOut->x = pV1->x + s * (pV2->x - pV1->x);

  0001e	8b 45 10	 mov	 eax, DWORD PTR _pV2$[ebp]
  00021	8b 4d 0c	 mov	 ecx, DWORD PTR _pV1$[ebp]
  00024	d9 00		 fld	 DWORD PTR [eax]
  00026	d8 21		 fsub	 DWORD PTR [ecx]
  00028	d8 4d 14	 fmul	 DWORD PTR _s$[ebp]
  0002b	8b 55 0c	 mov	 edx, DWORD PTR _pV1$[ebp]
  0002e	d8 02		 fadd	 DWORD PTR [edx]
  00030	8b 45 08	 mov	 eax, DWORD PTR _pOut$[ebp]
  00033	d9 18		 fstp	 DWORD PTR [eax]

; 1365 :     pOut->y = pV1->y + s * (pV2->y - pV1->y);

  00035	8b 45 10	 mov	 eax, DWORD PTR _pV2$[ebp]
  00038	8b 4d 0c	 mov	 ecx, DWORD PTR _pV1$[ebp]
  0003b	d9 40 04	 fld	 DWORD PTR [eax+4]
  0003e	d8 61 04	 fsub	 DWORD PTR [ecx+4]
  00041	d8 4d 14	 fmul	 DWORD PTR _s$[ebp]
  00044	8b 55 0c	 mov	 edx, DWORD PTR _pV1$[ebp]
  00047	d8 42 04	 fadd	 DWORD PTR [edx+4]
  0004a	8b 45 08	 mov	 eax, DWORD PTR _pOut$[ebp]
  0004d	d9 58 04	 fstp	 DWORD PTR [eax+4]

; 1366 :     pOut->z = pV1->z + s * (pV2->z - pV1->z);

  00050	8b 45 10	 mov	 eax, DWORD PTR _pV2$[ebp]
  00053	8b 4d 0c	 mov	 ecx, DWORD PTR _pV1$[ebp]
  00056	d9 40 08	 fld	 DWORD PTR [eax+8]
  00059	d8 61 08	 fsub	 DWORD PTR [ecx+8]
  0005c	d8 4d 14	 fmul	 DWORD PTR _s$[ebp]
  0005f	8b 55 0c	 mov	 edx, DWORD PTR _pV1$[ebp]
  00062	d8 42 08	 fadd	 DWORD PTR [edx+8]
  00065	8b 45 08	 mov	 eax, DWORD PTR _pOut$[ebp]
  00068	d9 58 08	 fstp	 DWORD PTR [eax+8]

; 1367 :     return pOut;

  0006b	8b 45 08	 mov	 eax, DWORD PTR _pOut$[ebp]

; 1368 : }

  0006e	5f		 pop	 edi
  0006f	5e		 pop	 esi
  00070	5b		 pop	 ebx
  00071	8b e5		 mov	 esp, ebp
  00073	5d		 pop	 ebp
  00074	c3		 ret	 0
?D3DXVec3Lerp@@YAPAUD3DXVECTOR3@@PAU1@PBU1@1M@Z ENDP	; D3DXVec3Lerp
_TEXT	ENDS
END
