; Listing generated by Microsoft (R) Optimizing Compiler Version 13.00.9466 

	TITLE	CFighter.cpp
	.386P
include listing.inc
if @Version gt 510
.model FLAT
else
_TEXT	SEGMENT PARA USE32 PUBLIC 'CODE'
_TEXT	ENDS
_DATA	SEGMENT DWORD USE32 PUBLIC 'DATA'
_DATA	ENDS
CONST	SEGMENT DWORD USE32 PUBLIC 'CONST'
CONST	ENDS
_BSS	SEGMENT DWORD USE32 PUBLIC 'BSS'
_BSS	ENDS
$$SYMBOLS	SEGMENT BYTE USE32 'DEBSYM'
$$SYMBOLS	ENDS
$$TYPES	SEGMENT BYTE USE32 'DEBTYP'
$$TYPES	ENDS
_TLS	SEGMENT DWORD USE32 PUBLIC 'TLS'
_TLS	ENDS
;	COMDAT ??_C@_0BE@ENNHPANK@?4?4?2resource?2mod0?2?$CFs?$AA@
CONST	SEGMENT DWORD USE32 PUBLIC 'CONST'
CONST	ENDS
;	COMDAT ??_C@_0EK@DPEDPJFN@c?3?2documents?5and?5settings?2dom?2my@
CONST	SEGMENT DWORD USE32 PUBLIC 'CONST'
CONST	ENDS
;	COMDAT ??_C@_06CKFOPJLM@m_pFRO?$AA@
CONST	SEGMENT DWORD USE32 PUBLIC 'CONST'
CONST	ENDS
;	COMDAT ??_C@_0BF@FJHLKCDO@m_pPS_Contrails?$FL?5i?5?$FN?$AA@
CONST	SEGMENT DWORD USE32 PUBLIC 'CONST'
CONST	ENDS
;	COMDAT ??_C@_04LOIPFCGH@TC?$CB?6?$AA@
CONST	SEGMENT DWORD USE32 PUBLIC 'CONST'
CONST	ENDS
;	COMDAT ??_C@_0BJ@HIGIHBDO@vnAvg?$DN?$CF0?41f?0?$CF0?41f?0?$CF0?41f?6?$AA@
CONST	SEGMENT DWORD USE32 PUBLIC 'CONST'
CONST	ENDS
;	COMDAT ??_C@_0BF@MFABKEMN@X?$DN?$CF0?41f?0?$CF0?41f?0?$CF0?41f?6?$AA@
CONST	SEGMENT DWORD USE32 PUBLIC 'CONST'
CONST	ENDS
;	COMDAT ??_C@_01EEMJAFIK@?6?$AA@
CONST	SEGMENT DWORD USE32 PUBLIC 'CONST'
CONST	ENDS
;	COMDAT ??_C@_0CA@FBEECCKO@CFighter?3?3RestoreDeviceObjects?6?$AA@
CONST	SEGMENT DWORD USE32 PUBLIC 'CONST'
CONST	ENDS
;	COMDAT ??_C@_0L@KJLEIMLM@D3D_OK?$DN?$DNhr?$AA@
CONST	SEGMENT DWORD USE32 PUBLIC 'CONST'
CONST	ENDS
;	COMDAT _IsEqualGUID
_TEXT	SEGMENT PARA USE32 PUBLIC 'CODE'
_TEXT	ENDS
;	COMDAT _==
_TEXT	SEGMENT PARA USE32 PUBLIC 'CODE'
_TEXT	ENDS
;	COMDAT _fabsf
_TEXT	SEGMENT PARA USE32 PUBLIC 'CODE'
_TEXT	ENDS
;	COMDAT _sqrtf
_TEXT	SEGMENT PARA USE32 PUBLIC 'CODE'
_TEXT	ENDS
;	COMDAT ??0D3DXVECTOR3@@QAE@XZ
_TEXT	SEGMENT PARA USE32 PUBLIC 'CODE'
_TEXT	ENDS
;	COMDAT ??0D3DXVECTOR4@@QAE@XZ
_TEXT	SEGMENT PARA USE32 PUBLIC 'CODE'
_TEXT	ENDS
;	COMDAT ??0D3DXMATRIX@@QAE@XZ
_TEXT	SEGMENT PARA USE32 PUBLIC 'CODE'
_TEXT	ENDS
;	COMDAT ??0D3DXQUATERNION@@QAE@XZ
_TEXT	SEGMENT PARA USE32 PUBLIC 'CODE'
_TEXT	ENDS
;	COMDAT ??0D3DXCOLOR@@QAE@XZ
_TEXT	SEGMENT PARA USE32 PUBLIC 'CODE'
_TEXT	ENDS
;	COMDAT ??0D3DXVECTOR2@@QAE@MM@Z
_TEXT	SEGMENT PARA USE32 PUBLIC 'CODE'
_TEXT	ENDS
;	COMDAT ??0D3DXVECTOR3@@QAE@ABU_D3DVECTOR@@@Z
_TEXT	SEGMENT PARA USE32 PUBLIC 'CODE'
_TEXT	ENDS
;	COMDAT ??0D3DXVECTOR3@@QAE@MMM@Z
_TEXT	SEGMENT PARA USE32 PUBLIC 'CODE'
_TEXT	ENDS
;	COMDAT ??YD3DXVECTOR3@@QAEAAU0@ABU0@@Z
_TEXT	SEGMENT PARA USE32 PUBLIC 'CODE'
_TEXT	ENDS
;	COMDAT ??XD3DXVECTOR3@@QAEAAU0@M@Z
_TEXT	SEGMENT PARA USE32 PUBLIC 'CODE'
_TEXT	ENDS
;	COMDAT ??HD3DXVECTOR3@@QBE?AU0@ABU0@@Z
_TEXT	SEGMENT PARA USE32 PUBLIC 'CODE'
_TEXT	ENDS
;	COMDAT ??GD3DXVECTOR3@@QBE?AU0@ABU0@@Z
_TEXT	SEGMENT PARA USE32 PUBLIC 'CODE'
_TEXT	ENDS
;	COMDAT ??DD3DXVECTOR3@@QBE?AU0@M@Z
_TEXT	SEGMENT PARA USE32 PUBLIC 'CODE'
_TEXT	ENDS
;	COMDAT ??D@YA?AUD3DXVECTOR3@@MABU0@@Z
_TEXT	SEGMENT PARA USE32 PUBLIC 'CODE'
_TEXT	ENDS
;	COMDAT ??8D3DXVECTOR3@@QBEHABU0@@Z
_TEXT	SEGMENT PARA USE32 PUBLIC 'CODE'
_TEXT	ENDS
;	COMDAT ??0D3DXVECTOR4@@QAE@MMMM@Z
_TEXT	SEGMENT PARA USE32 PUBLIC 'CODE'
_TEXT	ENDS
;	COMDAT ??0D3DXMATRIX@@QAE@PBM@Z
_TEXT	SEGMENT PARA USE32 PUBLIC 'CODE'
_TEXT	ENDS
;	COMDAT ??0D3DXMATRIX@@QAE@ABU_D3DMATRIX@@@Z
_TEXT	SEGMENT PARA USE32 PUBLIC 'CODE'
_TEXT	ENDS
;	COMDAT ??0D3DXMATRIX@@QAE@MMMMMMMMMMMMMMMM@Z
_TEXT	SEGMENT PARA USE32 PUBLIC 'CODE'
_TEXT	ENDS
;	COMDAT ??0D3DXQUATERNION@@QAE@MMMM@Z
_TEXT	SEGMENT PARA USE32 PUBLIC 'CODE'
_TEXT	ENDS
;	COMDAT ??0D3DXPLANE@@QAE@MMMM@Z
_TEXT	SEGMENT PARA USE32 PUBLIC 'CODE'
_TEXT	ENDS
;	COMDAT ??0D3DXCOLOR@@QAE@MMMM@Z
_TEXT	SEGMENT PARA USE32 PUBLIC 'CODE'
_TEXT	ENDS
;	COMDAT ?D3DXVec3Length@@YAMPBUD3DXVECTOR3@@@Z
_TEXT	SEGMENT PARA USE32 PUBLIC 'CODE'
_TEXT	ENDS
;	COMDAT ?D3DXVec3Cross@@YAPAUD3DXVECTOR3@@PAU1@PBU1@1@Z
_TEXT	SEGMENT PARA USE32 PUBLIC 'CODE'
_TEXT	ENDS
;	COMDAT ?D3DXVec3Subtract@@YAPAUD3DXVECTOR3@@PAU1@PBU1@1@Z
_TEXT	SEGMENT PARA USE32 PUBLIC 'CODE'
_TEXT	ENDS
;	COMDAT ?D3DXColorLerp@@YAPAUD3DXCOLOR@@PAU1@PBU1@1M@Z
_TEXT	SEGMENT PARA USE32 PUBLIC 'CODE'
_TEXT	ENDS
;	COMDAT ??0CFighter@@QAE@MHMPAURENDER_DATA_INFO@CFileRenderObject@@H@Z
_TEXT	SEGMENT PARA USE32 PUBLIC 'CODE'
_TEXT	ENDS
;	COMDAT ??_H@YGXPAXIHP6EPAX0@Z@Z
_TEXT	SEGMENT PARA USE32 PUBLIC 'CODE'
_TEXT	ENDS
;	COMDAT ??1CFighter@@QAE@XZ
_TEXT	SEGMENT PARA USE32 PUBLIC 'CODE'
_TEXT	ENDS
;	COMDAT ??_GCFileRenderObject@@QAEPAXI@Z
_TEXT	SEGMENT PARA USE32 PUBLIC 'CODE'
_TEXT	ENDS
;	COMDAT ??_GCParticleSystem@@QAEPAXI@Z
_TEXT	SEGMENT PARA USE32 PUBLIC 'CODE'
_TEXT	ENDS
;	COMDAT ??_GCExplosion@@QAEPAXI@Z
_TEXT	SEGMENT PARA USE32 PUBLIC 'CODE'
_TEXT	ENDS
;	COMDAT ??_GCBoundingBox@@QAEPAXI@Z
_TEXT	SEGMENT PARA USE32 PUBLIC 'CODE'
_TEXT	ENDS
;	COMDAT ?ProcessPhysicsFromFlightControls@CFighter@@QAEXPAUFLIGHT_CONTROLS@@MPAVCTerrain@@HPAVCRace@@PAUIDirect3DDevice8@@MPAM@Z
_TEXT	SEGMENT PARA USE32 PUBLIC 'CODE'
_TEXT	ENDS
;	COMDAT ?LaunchProjectile@CFighter@@QAEXPAUIDirect3DDevice8@@MMHPAVCRace@@@Z
_TEXT	SEGMENT PARA USE32 PUBLIC 'CODE'
_TEXT	ENDS
;	COMDAT ??0FIGHTER_PROJECTILE@CFighter@@QAE@XZ
_TEXT	SEGMENT PARA USE32 PUBLIC 'CODE'
_TEXT	ENDS
;	COMDAT ?AnimateProjectiles@CFighter@@QAEXMMPAVCTerrain@@PAVCRace@@@Z
_TEXT	SEGMENT PARA USE32 PUBLIC 'CODE'
_TEXT	ENDS
;	COMDAT ?KillProjectile@CFighter@@QAEPAUFIGHTER_PROJECTILE@1@PAU21@@Z
_TEXT	SEGMENT PARA USE32 PUBLIC 'CODE'
_TEXT	ENDS
;	COMDAT ?SetPositionFromValues@CFighter@@QAEXMMM@Z
_TEXT	SEGMENT PARA USE32 PUBLIC 'CODE'
_TEXT	ENDS
;	COMDAT ?DetectAndHandleTerrainCollision@CFighter@@QAEHPAUD3DXVECTOR4@@PAVCTerrain@@PAVCRace@@@Z
_TEXT	SEGMENT PARA USE32 PUBLIC 'CODE'
_TEXT	ENDS
;	COMDAT ?ManageCamera@CFighter@@QAEXPAUIDirect3DDevice8@@PAVCCamera@@PAVCUserInput@@H@Z
_TEXT	SEGMENT PARA USE32 PUBLIC 'CODE'
_TEXT	ENDS
;	COMDAT ?PreFrameMove@CFighter@@QAEXPAVCRace@@@Z
_TEXT	SEGMENT PARA USE32 PUBLIC 'CODE'
_TEXT	ENDS
;	COMDAT ?FrameMove@CFighter@@QAEHPAUIDirect3DDevice8@@PAVCUserInput@@MPAVCCamera@@PAUD3DXMATRIX@@PAU_D3DVIEWPORT8@@HPAVCTerrain@@HMPAVCRace@@@Z
_TEXT	SEGMENT PARA USE32 PUBLIC 'CODE'
_TEXT	ENDS
;	COMDAT ?RestoreDeviceObjects@CFighter@@QAEJPAUIDirect3D8@@PAUIDirect3DDevice8@@PAVCScreenOverlayManager@@PAVCTextures@@M@Z
_TEXT	SEGMENT PARA USE32 PUBLIC 'CODE'
_TEXT	ENDS
;	COMDAT ?InvalidateDeviceObjects@CFighter@@QAEJPAUIDirect3DDevice8@@@Z
_TEXT	SEGMENT PARA USE32 PUBLIC 'CODE'
_TEXT	ENDS
;	COMDAT ?Respawn@CFighter@@QAEXPAVCTerrain@@@Z
_TEXT	SEGMENT PARA USE32 PUBLIC 'CODE'
_TEXT	ENDS
;	COMDAT ?Render@CFighter@@QAEHPAUIDirect3DDevice8@@PAVCTextures@@PAKPAVCCamera@@PAUD3DXMATRIX@@PAU_D3DVIEWPORT8@@4ABU5@6MABUD3DXVECTOR3@@@Z
_TEXT	SEGMENT PARA USE32 PUBLIC 'CODE'
_TEXT	ENDS
;	COMDAT ?RenderFX_Weapons@CFighter@@QAEHPAUIDirect3DDevice8@@PAVCTextures@@PAKHPAUD3DXMATRIX@@PAVCCamera@@3PAU_D3DVIEWPORT8@@PAVCTerrain@@PAUIDirect3DVertexBuffer8@@MPAHH@Z
_TEXT	SEGMENT PARA USE32 PUBLIC 'CODE'
_TEXT	ENDS
;	COMDAT ?RenderFX_Contrails@CFighter@@QAEJPAUIDirect3DDevice8@@PAVCTextures@@PAKHPAUD3DXMATRIX@@PAVCCamera@@3PAU_D3DVIEWPORT8@@PAVCTerrain@@PAUIDirect3DVertexBuffer8@@MHH@Z
_TEXT	SEGMENT PARA USE32 PUBLIC 'CODE'
_TEXT	ENDS
;	COMDAT ?StartExplosionEffect@CFighter@@QAEXPAVCRace@@@Z
_TEXT	SEGMENT PARA USE32 PUBLIC 'CODE'
_TEXT	ENDS
;	COMDAT ?RenderFX_Explosion@CFighter@@QAEJPAUIDirect3DDevice8@@PAVCTextures@@PAKHPAUD3DXMATRIX@@PAVCCamera@@3PAU_D3DVIEWPORT8@@PAVCTerrain@@PAUIDirect3DVertexBuffer8@@MHH@Z
_TEXT	SEGMENT PARA USE32 PUBLIC 'CODE'
_TEXT	ENDS
;	COMDAT ?StartShieldEffect@CFighter@@QAEXMPAVCRace@@@Z
_TEXT	SEGMENT PARA USE32 PUBLIC 'CODE'
_TEXT	ENDS
;	COMDAT ?RenderFX_Shield@CFighter@@QAEJPAUIDirect3DDevice8@@PAVCTextures@@PAKHPAUD3DXMATRIX@@PAVCCamera@@3PAU_D3DVIEWPORT8@@PAVCTerrain@@PAUIDirect3DVertexBuffer8@@MHH@Z
_TEXT	SEGMENT PARA USE32 PUBLIC 'CODE'
_TEXT	ENDS
;	COMDAT ?GetFighterAbsPosFromRelative@CFighter@@QAEHPAUD3DXVECTOR3@@0@Z
_TEXT	SEGMENT PARA USE32 PUBLIC 'CODE'
_TEXT	ENDS
;	COMDAT ?GetAvgNormalFrom4TerrainVerts@CFighter@@QAEHPAUD3DXVECTOR3@@0@Z
_TEXT	SEGMENT PARA USE32 PUBLIC 'CODE'
_TEXT	ENDS
;	COMDAT ?__LINE__Var@?1??RenderFX_Shield@CFighter@@QAEJPAUIDirect3DDevice8@@PAVCTextures@@PAKHPAUD3DXMATRIX@@PAVCCamera@@3PAU_D3DVIEWPORT8@@PAVCTerrain@@PAUIDirect3DVertexBuffer8@@MHH@Z@4JA
_DATA	SEGMENT DWORD USE32 PUBLIC 'DATA'
_DATA	ENDS
;	COMDAT ?__LINE__Var@?1???0CFighter@@QAE@MHMPAURENDER_DATA_INFO@CFileRenderObject@@H@Z@4JA
_DATA	SEGMENT DWORD USE32 PUBLIC 'DATA'
_DATA	ENDS
FLAT	GROUP _DATA, CONST, _BSS
	ASSUME	CS: FLAT, DS: FLAT, SS: FLAT
endif

INCLUDELIB LIBCMTD
INCLUDELIB OLDNAMES

PUBLIC	?g_Fighters@@3PAUFIGHTER_TYPE_DETAILS@@A	; g_Fighters
PUBLIC	?g_Weapons@@3PAUWEAPON_TYPE_DETAILS@@A		; g_Weapons
_BSS	SEGMENT
?X@?3??RenderFX_Shield@CFighter@@QAEJPAUIDirect3DDevice8@@PAVCTextures@@PAKHPAUD3DXMATRIX@@PAVCCamera@@3PAU_D3DVIEWPORT8@@PAVCTerrain@@PAUIDirect3DVertexBuffer8@@MHH@Z@4MA DD 01H DUP (?) ; `CFighter::RenderFX_Shield'::`4'::X
?Y@?3??RenderFX_Shield@CFighter@@QAEJPAUIDirect3DDevice8@@PAVCTextures@@PAKHPAUD3DXMATRIX@@PAVCCamera@@3PAU_D3DVIEWPORT8@@PAVCTerrain@@PAUIDirect3DVertexBuffer8@@MHH@Z@4MA DD 01H DUP (?) ; `CFighter::RenderFX_Shield'::`4'::Y
?Z@?3??RenderFX_Shield@CFighter@@QAEJPAUIDirect3DDevice8@@PAVCTextures@@PAKHPAUD3DXMATRIX@@PAVCCamera@@3PAU_D3DVIEWPORT8@@PAVCTerrain@@PAUIDirect3DVertexBuffer8@@MHH@Z@4MA DD 01H DUP (?) ; `CFighter::RenderFX_Shield'::`4'::Z
_BSS	ENDS
CONST	SEGMENT
_g_PI	DD	040490fdbr			; 3.14159
CONST	ENDS
_DATA	SEGMENT
?g_Weapons@@3PAUWEAPON_TYPE_DETAILS@@A DD 03e4ccccdr ; 0.2 ; g_Weapons
	DD	040400000r			; 3
	DD	03f19999ar			; 0.6
	DD	02H
	DD	03dcccccdr			; 0.1
	DD	040400000r			; 3
	DD	03f000000r			; 0.5
	DD	06H
	DD	03d4ccccdr			; 0.05
	DD	040400000r			; 3
	DD	03e99999ar			; 0.3
	DD	0bH
?g_Fighters@@3PAUFIGHTER_TYPE_DETAILS@@A DD 00H		; g_Fighters
	DB	'BigShip1.X', 00H
	ORG $+117
	DD	04H
	DD	03f800000r			; 1
	DD	0bf000000r			; -0.5
	DD	0bf000000r			; -0.5
	DD	0bf000000r			; -0.5
	DD	03f000000r			; 0.5
	DD	0bf000000r			; -0.5
	DD	0bf000000r			; -0.5
	DD	03f000000r			; 0.5
	DD	03f000000r			; 0.5
	DD	0bf000000r			; -0.5
	DD	0bf000000r			; -0.5
	DD	03f000000r			; 0.5
	DD	0bf000000r			; -0.5
	ORG $+144
	DD	02H
	DD	03fc00000r			; 1.5
	DD	0bdcccccdr			; -0.1
	DD	000000000r			; 0
	DD	03f170a3dr			; 0.59
	DD	03dcccccdr			; 0.1
	DD	000000000r			; 0
	DD	03f170a3dr			; 0.59
	ORG $+24
	DD	00H
	DB	'Fighter.X', 00H
	ORG $+118
	DD	01H
	DD	03f800000r			; 1
	DD	000000000r			; 0
	DD	000000000r			; 0
	DD	000000000r			; 0
	ORG $+180
	DD	02H
	DD	03fc00000r			; 1.5
	DD	0be19999ar			; -0.15
	DD	03d4ccccdr			; 0.05
	DD	03f19999ar			; 0.6
	DD	03e19999ar			; 0.15
	DD	03d4ccccdr			; 0.05
	DD	03f19999ar			; 0.6
	ORG $+24
	DD	00H
	DB	'Storm.X', 00H
	ORG $+120
	DD	02H
	DD	03f800000r			; 1
	DD	0bf4ccccdr			; -0.8
	DD	000000000r			; 0
	DD	0bf4ccccdr			; -0.8
	DD	03f4ccccdr			; 0.8
	DD	000000000r			; 0
	DD	0bf4ccccdr			; -0.8
	ORG $+168
	DD	04H
	DD	03f000000r			; 0.5
	DD	0bd8f5c29r			; -0.07
	DD	000000000r			; 0
	DD	03f266666r			; 0.65
	DD	03d8f5c29r			; 0.07
	DD	000000000r			; 0
	DD	03f266666r			; 0.65
	DD	000000000r			; 0
	DD	0bd8f5c29r			; -0.07
	DD	03f266666r			; 0.65
	DD	000000000r			; 0
	DD	03d8f5c29r			; 0.07
	DD	03f266666r			; 0.65
	DD	00H
	DB	'Fighter1.X', 00H
	ORG $+117
	DD	01H
	DD	03f800000r			; 1
	DD	000000000r			; 0
	DD	000000000r			; 0
	DD	000000000r			; 0
	ORG $+180
	DD	01H
	DD	040000000r			; 2
	DD	000000000r			; 0
	DD	000000000r			; 0
	DD	000000000r			; 0
	ORG $+36
	DD	00H
	DB	'Fighter2.X', 00H
	ORG $+117
	DD	01H
	DD	03f800000r			; 1
	DD	000000000r			; 0
	DD	000000000r			; 0
	DD	000000000r			; 0
	ORG $+180
	DD	01H
	DD	040000000r			; 2
	DD	000000000r			; 0
	DD	000000000r			; 0
	DD	000000000r			; 0
	ORG $+36
	DD	00H
	DB	'Lyrax.X', 00H
	ORG $+120
	DD	01H
	DD	03f800000r			; 1
	DD	000000000r			; 0
	DD	000000000r			; 0
	DD	000000000r			; 0
	ORG $+180
	DD	01H
	DD	040000000r			; 2
	DD	000000000r			; 0
	DD	000000000r			; 0
	DD	03f400000r			; 0.75
	ORG $+36
_DATA	ENDS
PUBLIC	??0D3DXMATRIX@@QAE@XZ				; D3DXMATRIX::D3DXMATRIX
PUBLIC	??_H@YGXPAXIHP6EPAX0@Z@Z			; `vector constructor iterator'
PUBLIC	??0CFighter@@QAE@MHMPAURENDER_DATA_INFO@CFileRenderObject@@H@Z ; CFighter::CFighter
PUBLIC	??0D3DXCOLOR@@QAE@XZ				; D3DXCOLOR::D3DXCOLOR
PUBLIC	??0D3DXCOLOR@@QAE@MMMM@Z			; D3DXCOLOR::D3DXCOLOR
PUBLIC	__real@3dcccccd
PUBLIC	__real@3f800000
PUBLIC	__real@41000000
PUBLIC	__real@40000000
PUBLIC	??_C@_0BE@ENNHPANK@?4?4?2resource?2mod0?2?$CFs?$AA@ ; `string'
PUBLIC	?__LINE__Var@?1???0CFighter@@QAE@MHMPAURENDER_DATA_INFO@CFileRenderObject@@H@Z@4JA ; `CFighter::CFighter'::`2'::__LINE__Var
PUBLIC	??_C@_0EK@DPEDPJFN@c?3?2documents?5and?5settings?2dom?2my@ ; `string'
PUBLIC	??_C@_06CKFOPJLM@m_pFRO?$AA@			; `string'
PUBLIC	??_C@_0BF@FJHLKCDO@m_pPS_Contrails?$FL?5i?5?$FN?$AA@ ; `string'
PUBLIC	??0D3DXVECTOR3@@QAE@XZ				; D3DXVECTOR3::D3DXVECTOR3
PUBLIC	??0D3DXVECTOR3@@QAE@ABU_D3DVECTOR@@@Z		; D3DXVECTOR3::D3DXVECTOR3
PUBLIC	??0D3DXVECTOR3@@QAE@MMM@Z			; D3DXVECTOR3::D3DXVECTOR3
EXTRN	??2@YAPAXI@Z:NEAR				; operator new
EXTRN	_sprintf:NEAR
EXTRN	__RTC_InitBase:NEAR
EXTRN	__RTC_Shutdown:NEAR
EXTRN	___security_cookie:DWORD
EXTRN	@_RTC_CheckStackVars@8:NEAR
EXTRN	@__security_check_cookie@4:NEAR
EXTRN	__RTC_CheckEsp:NEAR
EXTRN	__fltused:NEAR
EXTRN	??0CFileRenderObject@@QAE@PADHPAURENDER_DATA_INFO@0@@Z:NEAR ; CFileRenderObject::CFileRenderObject
EXTRN	??0CParticleSystem@@QAE@KKM@Z:NEAR		; CParticleSystem::CParticleSystem
EXTRN	__assert:NEAR
EXTRN	?g_matIdent@@3UD3DXMATRIX@@A:BYTE		; g_matIdent
EXTRN	?rnd@@YAMXZ:NEAR				; rnd
EXTRN	??0CExplosion@@QAE@MHHH@Z:NEAR			; CExplosion::CExplosion
;	COMDAT rtc$IMZ
; File c:\documents and settings\dom\my documents\_dev\ae\xlr8a\x7g\cfighter.cpp
rtc$IMZ	SEGMENT
__RTC_InitBase.rtc$IMZ DD FLAT:__RTC_InitBase
rtc$IMZ	ENDS
;	COMDAT rtc$TMZ
rtc$TMZ	SEGMENT
__RTC_Shutdown.rtc$TMZ DD FLAT:__RTC_Shutdown
rtc$TMZ	ENDS
;	COMDAT ??_C@_0BE@ENNHPANK@?4?4?2resource?2mod0?2?$CFs?$AA@
CONST	SEGMENT
??_C@_0BE@ENNHPANK@?4?4?2resource?2mod0?2?$CFs?$AA@ DB '..\resource\mod0\'
	DB	'%s', 00H					; `string'
CONST	ENDS
;	COMDAT ?__LINE__Var@?1???0CFighter@@QAE@MHMPAURENDER_DATA_INFO@CFileRenderObject@@H@Z@4JA
_DATA	SEGMENT
?__LINE__Var@?1???0CFighter@@QAE@MHMPAURENDER_DATA_INFO@CFileRenderObject@@H@Z@4JA DD 010H ; `CFighter::CFighter'::`2'::__LINE__Var
_DATA	ENDS
;	COMDAT ??_C@_0EK@DPEDPJFN@c?3?2documents?5and?5settings?2dom?2my@
CONST	SEGMENT
??_C@_0EK@DPEDPJFN@c?3?2documents?5and?5settings?2dom?2my@ DB 'c:\documen'
	DB	'ts and settings\dom\my documents\_dev\ae\xlr8a\x7g\cfighter.c'
	DB	'pp', 00H					; `string'
CONST	ENDS
;	COMDAT ??_C@_06CKFOPJLM@m_pFRO?$AA@
CONST	SEGMENT
??_C@_06CKFOPJLM@m_pFRO?$AA@ DB 'm_pFRO', 00H		; `string'
CONST	ENDS
;	COMDAT ??_C@_0BF@FJHLKCDO@m_pPS_Contrails?$FL?5i?5?$FN?$AA@
CONST	SEGMENT
??_C@_0BF@FJHLKCDO@m_pPS_Contrails?$FL?5i?5?$FN?$AA@ DB 'm_pPS_Contrails['
	DB	' i ]', 00H					; `string'
CONST	ENDS
;	COMDAT __real@3dcccccd
CONST	SEGMENT
__real@3dcccccd DD 03dcccccdr			; 0.1
CONST	ENDS
;	COMDAT __real@3f800000
CONST	SEGMENT
__real@3f800000 DD 03f800000r			; 1
CONST	ENDS
;	COMDAT __real@41000000
CONST	SEGMENT
__real@41000000 DD 041000000r			; 8
CONST	ENDS
;	COMDAT __real@40000000
CONST	SEGMENT
__real@40000000 DD 040000000r			; 2
; Function compile flags: /Odt /RTCsu /ZI
CONST	ENDS
;	COMDAT ??0CFighter@@QAE@MHMPAURENDER_DATA_INFO@CFileRenderObject@@H@Z
_TEXT	SEGMENT
tv216 = -1028
tv178 = -1028
tv155 = -1028
$T94526 = -1020
$T94525 = -1000
$T94524 = -980
$T94523 = -960
$T94522 = -940
$T94521 = -920
$T94520 = -900
$T94519 = -880
$T94518 = -856
$T94516 = -832
$T94515 = -812
$T94512 = -792
$T94511 = -780
$T94508 = -760
$T94504 = -748
_szRelativePath$ = -544
_i$ = -24
_this$ = -12
__$ArrayPad$ = -4
__$ReturnAddr$ = 4
_fSkill$ = 8
_ftType$ = 12
_fMyBSRadius$ = 16
_pSharedRenderData$ = 20
_bContrails$ = 24
??0CFighter@@QAE@MHMPAURENDER_DATA_INFO@CFileRenderObject@@H@Z PROC NEAR ; CFighter::CFighter, COMDAT
; _this$ = ecx

; 16   : 	{

  00000	55		 push	 ebp
  00001	8b ec		 mov	 ebp, esp
  00003	81 ec 04 04 00
	00		 sub	 esp, 1028		; 00000404H
  00009	53		 push	 ebx
  0000a	56		 push	 esi
  0000b	57		 push	 edi
  0000c	51		 push	 ecx
  0000d	8d bd fc fb ff
	ff		 lea	 edi, DWORD PTR [ebp-1028]
  00013	b9 01 01 00 00	 mov	 ecx, 257		; 00000101H
  00018	b8 cc cc cc cc	 mov	 eax, -858993460		; ccccccccH
  0001d	f3 ab		 rep stosd
  0001f	59		 pop	 ecx
  00020	a1 00 00 00 00	 mov	 eax, DWORD PTR ___security_cookie
  00025	33 45 04	 xor	 eax, DWORD PTR __$ReturnAddr$[ebp]
  00028	89 45 fc	 mov	 DWORD PTR __$ArrayPad$[ebp], eax
  0002b	89 4d f4	 mov	 DWORD PTR _this$[ebp], ecx
  0002e	8b 4d f4	 mov	 ecx, DWORD PTR _this$[ebp]
  00031	83 c1 10	 add	 ecx, 16			; 00000010H
  00034	e8 00 00 00 00	 call	 ??0D3DXVECTOR3@@QAE@XZ	; D3DXVECTOR3::D3DXVECTOR3
  00039	8b 4d f4	 mov	 ecx, DWORD PTR _this$[ebp]
  0003c	83 c1 1c	 add	 ecx, 28			; 0000001cH
  0003f	e8 00 00 00 00	 call	 ??0D3DXVECTOR3@@QAE@XZ	; D3DXVECTOR3::D3DXVECTOR3
  00044	68 00 00 00 00	 push	 OFFSET FLAT:??0D3DXVECTOR3@@QAE@XZ ; D3DXVECTOR3::D3DXVECTOR3
  00049	6a 04		 push	 4
  0004b	6a 0c		 push	 12			; 0000000cH
  0004d	8b 45 f4	 mov	 eax, DWORD PTR _this$[ebp]
  00050	83 c0 44	 add	 eax, 68			; 00000044H
  00053	50		 push	 eax
  00054	e8 00 00 00 00	 call	 ??_H@YGXPAXIHP6EPAX0@Z@Z
  00059	8b 4d f4	 mov	 ecx, DWORD PTR _this$[ebp]
  0005c	81 c1 94 00 00
	00		 add	 ecx, 148		; 00000094H
  00062	e8 00 00 00 00	 call	 ??0D3DXCOLOR@@QAE@XZ	; D3DXCOLOR::D3DXCOLOR
  00067	8b 4d f4	 mov	 ecx, DWORD PTR _this$[ebp]
  0006a	81 c1 a4 00 00
	00		 add	 ecx, 164		; 000000a4H
  00070	e8 00 00 00 00	 call	 ??0D3DXCOLOR@@QAE@XZ	; D3DXCOLOR::D3DXCOLOR
  00075	68 00 00 00 00	 push	 OFFSET FLAT:??0D3DXVECTOR3@@QAE@XZ ; D3DXVECTOR3::D3DXVECTOR3
  0007a	6a 10		 push	 16			; 00000010H
  0007c	6a 0c		 push	 12			; 0000000cH
  0007e	8b 45 f4	 mov	 eax, DWORD PTR _this$[ebp]
  00081	05 cc 00 00 00	 add	 eax, 204		; 000000ccH
  00086	50		 push	 eax
  00087	e8 00 00 00 00	 call	 ??_H@YGXPAXIHP6EPAX0@Z@Z
  0008c	8b 4d f4	 mov	 ecx, DWORD PTR _this$[ebp]
  0008f	81 c1 c0 01 00
	00		 add	 ecx, 448		; 000001c0H
  00095	e8 00 00 00 00	 call	 ??0D3DXVECTOR3@@QAE@XZ	; D3DXVECTOR3::D3DXVECTOR3
  0009a	8b 4d f4	 mov	 ecx, DWORD PTR _this$[ebp]
  0009d	81 c1 cc 01 00
	00		 add	 ecx, 460		; 000001ccH
  000a3	e8 00 00 00 00	 call	 ??0D3DXVECTOR3@@QAE@XZ	; D3DXVECTOR3::D3DXVECTOR3
  000a8	8b 4d f4	 mov	 ecx, DWORD PTR _this$[ebp]
  000ab	81 c1 d8 01 00
	00		 add	 ecx, 472		; 000001d8H
  000b1	e8 00 00 00 00	 call	 ??0D3DXVECTOR3@@QAE@XZ	; D3DXVECTOR3::D3DXVECTOR3
  000b6	8b 4d f4	 mov	 ecx, DWORD PTR _this$[ebp]
  000b9	81 c1 e4 01 00
	00		 add	 ecx, 484		; 000001e4H
  000bf	e8 00 00 00 00	 call	 ??0D3DXVECTOR3@@QAE@XZ	; D3DXVECTOR3::D3DXVECTOR3
  000c4	8b 4d f4	 mov	 ecx, DWORD PTR _this$[ebp]
  000c7	81 c1 f0 01 00
	00		 add	 ecx, 496		; 000001f0H
  000cd	e8 00 00 00 00	 call	 ??0D3DXVECTOR3@@QAE@XZ	; D3DXVECTOR3::D3DXVECTOR3
  000d2	8b 4d f4	 mov	 ecx, DWORD PTR _this$[ebp]
  000d5	81 c1 fc 01 00
	00		 add	 ecx, 508		; 000001fcH
  000db	e8 00 00 00 00	 call	 ??0D3DXVECTOR3@@QAE@XZ	; D3DXVECTOR3::D3DXVECTOR3
  000e0	8b 4d f4	 mov	 ecx, DWORD PTR _this$[ebp]
  000e3	81 c1 08 02 00
	00		 add	 ecx, 520		; 00000208H
  000e9	e8 00 00 00 00	 call	 ??0D3DXVECTOR3@@QAE@XZ	; D3DXVECTOR3::D3DXVECTOR3
  000ee	8b 4d f4	 mov	 ecx, DWORD PTR _this$[ebp]
  000f1	81 c1 24 02 00
	00		 add	 ecx, 548		; 00000224H
  000f7	e8 00 00 00 00	 call	 ??0D3DXMATRIX@@QAE@XZ	; D3DXMATRIX::D3DXMATRIX
  000fc	8b 4d f4	 mov	 ecx, DWORD PTR _this$[ebp]
  000ff	81 c1 64 02 00
	00		 add	 ecx, 612		; 00000264H
  00105	e8 00 00 00 00	 call	 ??0D3DXMATRIX@@QAE@XZ	; D3DXMATRIX::D3DXMATRIX
  0010a	8b 4d f4	 mov	 ecx, DWORD PTR _this$[ebp]
  0010d	81 c1 a4 02 00
	00		 add	 ecx, 676		; 000002a4H
  00113	e8 00 00 00 00	 call	 ??0D3DXMATRIX@@QAE@XZ	; D3DXMATRIX::D3DXMATRIX
  00118	8b 4d f4	 mov	 ecx, DWORD PTR _this$[ebp]
  0011b	81 c1 ec 02 00
	00		 add	 ecx, 748		; 000002ecH
  00121	e8 00 00 00 00	 call	 ??0D3DXVECTOR3@@QAE@XZ	; D3DXVECTOR3::D3DXVECTOR3

; 17   : 		int i ;
; 18   : 		m_Type = ftType ;

  00126	8b 45 f4	 mov	 eax, DWORD PTR _this$[ebp]
  00129	8b 4d 0c	 mov	 ecx, DWORD PTR _ftType$[ebp]
  0012c	89 08		 mov	 DWORD PTR [eax], ecx

; 19   : 		m_dwID = 0 ;	// internal dbg use only

  0012e	8b 45 f4	 mov	 eax, DWORD PTR _this$[ebp]
  00131	c7 40 0c 00 00
	00 00		 mov	 DWORD PTR [eax+12], 0

; 20   : 
; 21   : 		m_bUserFighter = FALSE ;

  00138	8b 45 f4	 mov	 eax, DWORD PTR _this$[ebp]
  0013b	c7 80 1c 03 00
	00 00 00 00 00	 mov	 DWORD PTR [eax+796], 0

; 22   : 
; 23   : 	//
; 24   : 	// Skill Modifier:
; 25   : 	//
; 26   : 		m_fSkill = fSkill ;

  00145	8b 45 f4	 mov	 eax, DWORD PTR _this$[ebp]
  00148	8b 4d 08	 mov	 ecx, DWORD PTR _fSkill$[ebp]
  0014b	89 48 28	 mov	 DWORD PTR [eax+40], ecx

; 27   : 
; 28   : 	//
; 29   : 	// Render Object Instantiation:
; 30   : 	//
; 31   : 		m_pFRO = NULL ;

  0014e	8b 45 f4	 mov	 eax, DWORD PTR _this$[ebp]
  00151	c7 40 2c 00 00
	00 00		 mov	 DWORD PTR [eax+44], 0

; 32   : #ifdef LOAD_RES_FROM_FILE
; 33   : 		char szRelativePath[ 512 ];
; 34   : 		sprintf( szRelativePath, "..\\resource\\mod0\\%s", g_Fighters[ ftType ].szFilename );

  00158	8b 45 0c	 mov	 eax, DWORD PTR _ftType$[ebp]
  0015b	69 c0 84 01 00
	00		 imul	 eax, 388		; 00000184H
  00161	05 04 00 00 00	 add	 eax, OFFSET FLAT:?g_Fighters@@3PAUFIGHTER_TYPE_DETAILS@@A+4
  00166	50		 push	 eax
  00167	68 00 00 00 00	 push	 OFFSET FLAT:??_C@_0BE@ENNHPANK@?4?4?2resource?2mod0?2?$CFs?$AA@
  0016c	8d 8d e0 fd ff
	ff		 lea	 ecx, DWORD PTR _szRelativePath$[ebp]
  00172	51		 push	 ecx
  00173	e8 00 00 00 00	 call	 _sprintf
  00178	83 c4 0c	 add	 esp, 12			; 0000000cH

; 35   : 		m_pFRO = new CFileRenderObject( szRelativePath,	0, pSharedRenderData );

  0017b	68 1c 01 00 00	 push	 284			; 0000011cH
  00180	e8 00 00 00 00	 call	 ??2@YAPAXI@Z		; operator new
  00185	83 c4 04	 add	 esp, 4
  00188	89 85 14 fd ff
	ff		 mov	 DWORD PTR $T94504[ebp], eax
  0018e	83 bd 14 fd ff
	ff 00		 cmp	 DWORD PTR $T94504[ebp], 0
  00195	74 20		 je	 SHORT $L94505
  00197	8b 45 14	 mov	 eax, DWORD PTR _pSharedRenderData$[ebp]
  0019a	50		 push	 eax
  0019b	6a 00		 push	 0
  0019d	8d 8d e0 fd ff
	ff		 lea	 ecx, DWORD PTR _szRelativePath$[ebp]
  001a3	51		 push	 ecx
  001a4	8b 8d 14 fd ff
	ff		 mov	 ecx, DWORD PTR $T94504[ebp]
  001aa	e8 00 00 00 00	 call	 ??0CFileRenderObject@@QAE@PADHPAURENDER_DATA_INFO@0@@Z ; CFileRenderObject::CFileRenderObject
  001af	89 85 fc fb ff
	ff		 mov	 DWORD PTR tv155[ebp], eax
  001b5	eb 0a		 jmp	 SHORT $L94506
$L94505:
  001b7	c7 85 fc fb ff
	ff 00 00 00 00	 mov	 DWORD PTR tv155[ebp], 0
$L94506:
  001c1	8b 55 f4	 mov	 edx, DWORD PTR _this$[ebp]
  001c4	8b 85 fc fb ff
	ff		 mov	 eax, DWORD PTR tv155[ebp]
  001ca	89 42 2c	 mov	 DWORD PTR [edx+44], eax

; 36   : #else
; 37   : 		m_pFRO = new CFileRenderObject( NULL, g_Fighters[ ftType ].nResID, pSharedRenderData );
; 38   : #endif
; 39   : 		assert( m_pFRO );

  001cd	8b 45 f4	 mov	 eax, DWORD PTR _this$[ebp]
  001d0	83 78 2c 00	 cmp	 DWORD PTR [eax+44], 0
  001d4	75 1c		 jne	 SHORT $L94507
  001d6	8b 0d 00 00 00
	00		 mov	 ecx, DWORD PTR ?__LINE__Var@?1???0CFighter@@QAE@MHMPAURENDER_DATA_INFO@CFileRenderObject@@H@Z@4JA
  001dc	83 c1 17	 add	 ecx, 23			; 00000017H
  001df	51		 push	 ecx
  001e0	68 00 00 00 00	 push	 OFFSET FLAT:??_C@_0EK@DPEDPJFN@c?3?2documents?5and?5settings?2dom?2my@
  001e5	68 00 00 00 00	 push	 OFFSET FLAT:??_C@_06CKFOPJLM@m_pFRO?$AA@
  001ea	e8 00 00 00 00	 call	 __assert
  001ef	83 c4 0c	 add	 esp, 12			; 0000000cH
$L94507:

; 40   : 
; 41   : 	//
; 42   : 	// Fighter Render Option:
; 43   : 	//
; 44   : 		m_rtFighterMode = /*FRT_NORMAL*/FRT_GLASS ;

  001f2	8b 45 f4	 mov	 eax, DWORD PTR _this$[ebp]
  001f5	c7 40 08 02 00
	00 00		 mov	 DWORD PTR [eax+8], 2

; 45   : 
; 46   : 	//
; 47   : 	// Explosion FX System:
; 48   : 	//
; 49   : 		m_fExpLifespan = 1.5f ;

  001fc	8b 45 f4	 mov	 eax, DWORD PTR _this$[ebp]
  001ff	c7 40 38 00 00
	c0 3f		 mov	 DWORD PTR [eax+56], 1069547520 ; 3fc00000H

; 50   : 		m_fExpAge = 0 ;

  00206	8b 45 f4	 mov	 eax, DWORD PTR _this$[ebp]
  00209	c7 40 3c 00 00
	00 00		 mov	 DWORD PTR [eax+60], 0

; 51   : 		m_pExp = NULL ;

  00210	8b 45 f4	 mov	 eax, DWORD PTR _this$[ebp]
  00213	c7 40 34 00 00
	00 00		 mov	 DWORD PTR [eax+52], 0

; 52   : 		m_pExp = new CExplosion( m_fExpLifespan, TRUE, FALSE, 5 );

  0021a	68 98 02 00 00	 push	 664			; 00000298H
  0021f	e8 00 00 00 00	 call	 ??2@YAPAXI@Z		; operator new
  00224	83 c4 04	 add	 esp, 4
  00227	89 85 08 fd ff
	ff		 mov	 DWORD PTR $T94508[ebp], eax
  0022d	83 bd 08 fd ff
	ff 00		 cmp	 DWORD PTR $T94508[ebp], 0
  00234	74 20		 je	 SHORT $L94509
  00236	6a 05		 push	 5
  00238	6a 00		 push	 0
  0023a	6a 01		 push	 1
  0023c	8b 45 f4	 mov	 eax, DWORD PTR _this$[ebp]
  0023f	8b 48 38	 mov	 ecx, DWORD PTR [eax+56]
  00242	51		 push	 ecx
  00243	8b 8d 08 fd ff
	ff		 mov	 ecx, DWORD PTR $T94508[ebp]
  00249	e8 00 00 00 00	 call	 ??0CExplosion@@QAE@MHHH@Z ; CExplosion::CExplosion
  0024e	89 85 fc fb ff
	ff		 mov	 DWORD PTR tv178[ebp], eax
  00254	eb 0a		 jmp	 SHORT $L94510
$L94509:
  00256	c7 85 fc fb ff
	ff 00 00 00 00	 mov	 DWORD PTR tv178[ebp], 0
$L94510:
  00260	8b 55 f4	 mov	 edx, DWORD PTR _this$[ebp]
  00263	8b 85 fc fb ff
	ff		 mov	 eax, DWORD PTR tv178[ebp]
  00269	89 42 34	 mov	 DWORD PTR [edx+52], eax

; 53   : 
; 54   : 	//
; 55   : 	// Contrail FX System:
; 56   : 	//
; 57   : 		if( bContrails )

  0026c	83 7d 18 00	 cmp	 DWORD PTR _bContrails$[ebp], 0
  00270	0f 84 4e 02 00
	00		 je	 $L93688

; 58   : 		{
; 59   : 			m_nContrailEmitters = g_Fighters[ ftType ].nContrailEmitters ;

  00276	8b 45 0c	 mov	 eax, DWORD PTR _ftType$[ebp]
  00279	69 c0 84 01 00
	00		 imul	 eax, 388		; 00000184H
  0027f	8b 4d f4	 mov	 ecx, DWORD PTR _this$[ebp]
  00282	8b 90 4c 01 00
	00		 mov	 edx, DWORD PTR ?g_Fighters@@3PAUFIGHTER_TYPE_DETAILS@@A[eax+332]
  00288	89 51 40	 mov	 DWORD PTR [ecx+64], edx

; 60   : 			for( i=0 ; i < m_nContrailEmitters ; i++ )

  0028b	c7 45 e8 00 00
	00 00		 mov	 DWORD PTR _i$[ebp], 0
  00292	eb 09		 jmp	 SHORT $L93689
$L93690:
  00294	8b 45 e8	 mov	 eax, DWORD PTR _i$[ebp]
  00297	83 c0 01	 add	 eax, 1
  0029a	89 45 e8	 mov	 DWORD PTR _i$[ebp], eax
$L93689:
  0029d	8b 45 f4	 mov	 eax, DWORD PTR _this$[ebp]
  002a0	8b 4d e8	 mov	 ecx, DWORD PTR _i$[ebp]
  002a3	3b 48 40	 cmp	 ecx, DWORD PTR [eax+64]
  002a6	7d 10		 jge	 SHORT $L93691

; 61   : 				m_pPS_Contrails[ i ] = NULL ;

  002a8	8b 45 e8	 mov	 eax, DWORD PTR _i$[ebp]
  002ab	8b 4d f4	 mov	 ecx, DWORD PTR _this$[ebp]
  002ae	c7 44 81 74 00
	00 00 00	 mov	 DWORD PTR [ecx+eax*4+116], 0
  002b6	eb dc		 jmp	 SHORT $L93690
$L93691:

; 62   : 			for( i=0 ; i < m_nContrailEmitters ; i++ )

  002b8	c7 45 e8 00 00
	00 00		 mov	 DWORD PTR _i$[ebp], 0
  002bf	eb 09		 jmp	 SHORT $L93692
$L93693:
  002c1	8b 45 e8	 mov	 eax, DWORD PTR _i$[ebp]
  002c4	83 c0 01	 add	 eax, 1
  002c7	89 45 e8	 mov	 DWORD PTR _i$[ebp], eax
$L93692:
  002ca	8b 45 f4	 mov	 eax, DWORD PTR _this$[ebp]
  002cd	8b 4d e8	 mov	 ecx, DWORD PTR _i$[ebp]
  002d0	3b 48 40	 cmp	 ecx, DWORD PTR [eax+64]
  002d3	0f 8d 1b 01 00
	00		 jge	 $L93694

; 63   : 			{
; 64   : 				m_vContrailEmitters[ i ] = (xVec3)g_Fighters[ ftType ].vContrailEmitters[ i ];

  002d9	8b 45 0c	 mov	 eax, DWORD PTR _ftType$[ebp]
  002dc	69 c0 84 01 00
	00		 imul	 eax, 388		; 00000184H
  002e2	8b 4d e8	 mov	 ecx, DWORD PTR _i$[ebp]
  002e5	6b c9 0c	 imul	 ecx, 12			; 0000000cH
  002e8	8d 94 08 54 01
	00 00		 lea	 edx, DWORD PTR ?g_Fighters@@3PAUFIGHTER_TYPE_DETAILS@@A[eax+ecx+340]
  002ef	52		 push	 edx
  002f0	8d 8d f4 fc ff
	ff		 lea	 ecx, DWORD PTR $T94511[ebp]
  002f6	e8 00 00 00 00	 call	 ??0D3DXVECTOR3@@QAE@ABU_D3DVECTOR@@@Z ; D3DXVECTOR3::D3DXVECTOR3
  002fb	8b 4d e8	 mov	 ecx, DWORD PTR _i$[ebp]
  002fe	6b c9 0c	 imul	 ecx, 12			; 0000000cH
  00301	8b 55 f4	 mov	 edx, DWORD PTR _this$[ebp]
  00304	8d 4c 0a 44	 lea	 ecx, DWORD PTR [edx+ecx+68]
  00308	8b 10		 mov	 edx, DWORD PTR [eax]
  0030a	89 11		 mov	 DWORD PTR [ecx], edx
  0030c	8b 50 04	 mov	 edx, DWORD PTR [eax+4]
  0030f	89 51 04	 mov	 DWORD PTR [ecx+4], edx
  00312	8b 40 08	 mov	 eax, DWORD PTR [eax+8]
  00315	89 41 08	 mov	 DWORD PTR [ecx+8], eax

; 65   : 				m_pPS_Contrails[ i ] = new CParticleSystem( 512, 2048, 0 );

  00318	6a 3c		 push	 60			; 0000003cH
  0031a	e8 00 00 00 00	 call	 ??2@YAPAXI@Z		; operator new
  0031f	83 c4 04	 add	 esp, 4
  00322	89 85 e8 fc ff
	ff		 mov	 DWORD PTR $T94512[ebp], eax
  00328	83 bd e8 fc ff
	ff 00		 cmp	 DWORD PTR $T94512[ebp], 0
  0032f	74 1f		 je	 SHORT $L94513
  00331	6a 00		 push	 0
  00333	68 00 08 00 00	 push	 2048			; 00000800H
  00338	68 00 02 00 00	 push	 512			; 00000200H
  0033d	8b 8d e8 fc ff
	ff		 mov	 ecx, DWORD PTR $T94512[ebp]
  00343	e8 00 00 00 00	 call	 ??0CParticleSystem@@QAE@KKM@Z ; CParticleSystem::CParticleSystem
  00348	89 85 fc fb ff
	ff		 mov	 DWORD PTR tv216[ebp], eax
  0034e	eb 0a		 jmp	 SHORT $L94514
$L94513:
  00350	c7 85 fc fb ff
	ff 00 00 00 00	 mov	 DWORD PTR tv216[ebp], 0
$L94514:
  0035a	8b 45 e8	 mov	 eax, DWORD PTR _i$[ebp]
  0035d	8b 4d f4	 mov	 ecx, DWORD PTR _this$[ebp]
  00360	8b 95 fc fb ff
	ff		 mov	 edx, DWORD PTR tv216[ebp]
  00366	89 54 81 74	 mov	 DWORD PTR [ecx+eax*4+116], edx

; 66   : 
; 67   : 				m_pPS_Contrails[ i ]->m_vMin = xVec3( 0,0,0 );

  0036a	6a 00		 push	 0
  0036c	6a 00		 push	 0
  0036e	6a 00		 push	 0
  00370	8d 8d d4 fc ff
	ff		 lea	 ecx, DWORD PTR $T94515[ebp]
  00376	e8 00 00 00 00	 call	 ??0D3DXVECTOR3@@QAE@MMM@Z ; D3DXVECTOR3::D3DXVECTOR3
  0037b	8b 4d e8	 mov	 ecx, DWORD PTR _i$[ebp]
  0037e	8b 55 f4	 mov	 edx, DWORD PTR _this$[ebp]
  00381	8b 4c 8a 74	 mov	 ecx, DWORD PTR [edx+ecx*4+116]
  00385	83 c1 20	 add	 ecx, 32			; 00000020H
  00388	8b 10		 mov	 edx, DWORD PTR [eax]
  0038a	89 11		 mov	 DWORD PTR [ecx], edx
  0038c	8b 50 04	 mov	 edx, DWORD PTR [eax+4]
  0038f	89 51 04	 mov	 DWORD PTR [ecx+4], edx
  00392	8b 40 08	 mov	 eax, DWORD PTR [eax+8]
  00395	89 41 08	 mov	 DWORD PTR [ecx+8], eax

; 68   : 				m_pPS_Contrails[ i ]->m_vMax = xVec3( 0,0,0 );

  00398	6a 00		 push	 0
  0039a	6a 00		 push	 0
  0039c	6a 00		 push	 0
  0039e	8d 8d c0 fc ff
	ff		 lea	 ecx, DWORD PTR $T94516[ebp]
  003a4	e8 00 00 00 00	 call	 ??0D3DXVECTOR3@@QAE@MMM@Z ; D3DXVECTOR3::D3DXVECTOR3
  003a9	8b 4d e8	 mov	 ecx, DWORD PTR _i$[ebp]
  003ac	8b 55 f4	 mov	 edx, DWORD PTR _this$[ebp]
  003af	8b 4c 8a 74	 mov	 ecx, DWORD PTR [edx+ecx*4+116]
  003b3	83 c1 2c	 add	 ecx, 44			; 0000002cH
  003b6	8b 10		 mov	 edx, DWORD PTR [eax]
  003b8	89 11		 mov	 DWORD PTR [ecx], edx
  003ba	8b 50 04	 mov	 edx, DWORD PTR [eax+4]
  003bd	89 51 04	 mov	 DWORD PTR [ecx+4], edx
  003c0	8b 40 08	 mov	 eax, DWORD PTR [eax+8]
  003c3	89 41 08	 mov	 DWORD PTR [ecx+8], eax

; 69   : 
; 70   : 				assert( m_pPS_Contrails[ i ] );

  003c6	8b 45 e8	 mov	 eax, DWORD PTR _i$[ebp]
  003c9	8b 4d f4	 mov	 ecx, DWORD PTR _this$[ebp]
  003cc	83 7c 81 74 00	 cmp	 DWORD PTR [ecx+eax*4+116], 0
  003d1	75 1c		 jne	 SHORT $L94517
  003d3	8b 15 00 00 00
	00		 mov	 edx, DWORD PTR ?__LINE__Var@?1???0CFighter@@QAE@MHMPAURENDER_DATA_INFO@CFileRenderObject@@H@Z@4JA
  003d9	83 c2 36	 add	 edx, 54			; 00000036H
  003dc	52		 push	 edx
  003dd	68 00 00 00 00	 push	 OFFSET FLAT:??_C@_0EK@DPEDPJFN@c?3?2documents?5and?5settings?2dom?2my@
  003e2	68 00 00 00 00	 push	 OFFSET FLAT:??_C@_0BF@FJHLKCDO@m_pPS_Contrails?$FL?5i?5?$FN?$AA@
  003e7	e8 00 00 00 00	 call	 __assert
  003ec	83 c4 0c	 add	 esp, 12			; 0000000cH
$L94517:

; 71   : 			}

  003ef	e9 cd fe ff ff	 jmp	 $L93693
$L93694:

; 72   : 			m_clrContrailEmitColour = D3DXCOLOR( rnd(), rnd(), rnd(), rnd() * 0.1f + 0.1f );

  003f4	e8 00 00 00 00	 call	 ?rnd@@YAMXZ		; rnd
  003f9	d8 0d 00 00 00
	00		 fmul	 DWORD PTR __real@3dcccccd
  003ff	d8 05 00 00 00
	00		 fadd	 DWORD PTR __real@3dcccccd
  00405	51		 push	 ecx
  00406	d9 1c 24	 fstp	 DWORD PTR [esp]
  00409	e8 00 00 00 00	 call	 ?rnd@@YAMXZ		; rnd
  0040e	51		 push	 ecx
  0040f	d9 1c 24	 fstp	 DWORD PTR [esp]
  00412	e8 00 00 00 00	 call	 ?rnd@@YAMXZ		; rnd
  00417	51		 push	 ecx
  00418	d9 1c 24	 fstp	 DWORD PTR [esp]
  0041b	e8 00 00 00 00	 call	 ?rnd@@YAMXZ		; rnd
  00420	51		 push	 ecx
  00421	d9 1c 24	 fstp	 DWORD PTR [esp]
  00424	8d 8d a8 fc ff
	ff		 lea	 ecx, DWORD PTR $T94518[ebp]
  0042a	e8 00 00 00 00	 call	 ??0D3DXCOLOR@@QAE@MMMM@Z ; D3DXCOLOR::D3DXCOLOR
  0042f	8b 4d f4	 mov	 ecx, DWORD PTR _this$[ebp]
  00432	81 c1 94 00 00
	00		 add	 ecx, 148		; 00000094H
  00438	8b 10		 mov	 edx, DWORD PTR [eax]
  0043a	89 11		 mov	 DWORD PTR [ecx], edx
  0043c	8b 50 04	 mov	 edx, DWORD PTR [eax+4]
  0043f	89 51 04	 mov	 DWORD PTR [ecx+4], edx
  00442	8b 50 08	 mov	 edx, DWORD PTR [eax+8]
  00445	89 51 08	 mov	 DWORD PTR [ecx+8], edx
  00448	8b 40 0c	 mov	 eax, DWORD PTR [eax+12]
  0044b	89 41 0c	 mov	 DWORD PTR [ecx+12], eax

; 73   : 			m_clrContrailFadeColour = D3DXCOLOR( rnd(), rnd(), rnd(), 0.05f );

  0044e	68 cd cc 4c 3d	 push	 1028443341		; 3d4ccccdH
  00453	e8 00 00 00 00	 call	 ?rnd@@YAMXZ		; rnd
  00458	51		 push	 ecx
  00459	d9 1c 24	 fstp	 DWORD PTR [esp]
  0045c	e8 00 00 00 00	 call	 ?rnd@@YAMXZ		; rnd
  00461	51		 push	 ecx
  00462	d9 1c 24	 fstp	 DWORD PTR [esp]
  00465	e8 00 00 00 00	 call	 ?rnd@@YAMXZ		; rnd
  0046a	51		 push	 ecx
  0046b	d9 1c 24	 fstp	 DWORD PTR [esp]
  0046e	8d 8d 90 fc ff
	ff		 lea	 ecx, DWORD PTR $T94519[ebp]
  00474	e8 00 00 00 00	 call	 ??0D3DXCOLOR@@QAE@MMMM@Z ; D3DXCOLOR::D3DXCOLOR
  00479	8b 4d f4	 mov	 ecx, DWORD PTR _this$[ebp]
  0047c	81 c1 a4 00 00
	00		 add	 ecx, 164		; 000000a4H
  00482	8b 10		 mov	 edx, DWORD PTR [eax]
  00484	89 11		 mov	 DWORD PTR [ecx], edx
  00486	8b 50 04	 mov	 edx, DWORD PTR [eax+4]
  00489	89 51 04	 mov	 DWORD PTR [ecx+4], edx
  0048c	8b 50 08	 mov	 edx, DWORD PTR [eax+8]
  0048f	89 51 08	 mov	 DWORD PTR [ecx+8], edx
  00492	8b 40 0c	 mov	 eax, DWORD PTR [eax+12]
  00495	89 41 0c	 mov	 DWORD PTR [ecx+12], eax

; 74   : 			m_fContrailSize = 1 ; //0.5f + rnd() ;

  00498	8b 45 f4	 mov	 eax, DWORD PTR _this$[ebp]
  0049b	c7 80 b4 00 00
	00 00 00 80 3f	 mov	 DWORD PTR [eax+180], 1065353216 ; 3f800000H

; 75   : 			m_fContrailScatter = 1 + rnd() * m_fContrailSize ;

  004a5	e8 00 00 00 00	 call	 ?rnd@@YAMXZ		; rnd
  004aa	8b 45 f4	 mov	 eax, DWORD PTR _this$[ebp]
  004ad	d8 88 b4 00 00
	00		 fmul	 DWORD PTR [eax+180]
  004b3	d8 05 00 00 00
	00		 fadd	 DWORD PTR __real@3f800000
  004b9	8b 4d f4	 mov	 ecx, DWORD PTR _this$[ebp]
  004bc	d9 99 b8 00 00
	00		 fstp	 DWORD PTR [ecx+184]

; 76   : 		}
; 77   : 		else

  004c2	eb 0a		 jmp	 SHORT $L93705
$L93688:

; 78   : 			m_nContrailEmitters = 0 ;

  004c4	8b 45 f4	 mov	 eax, DWORD PTR _this$[ebp]
  004c7	c7 40 40 00 00
	00 00		 mov	 DWORD PTR [eax+64], 0
$L93705:

; 79   : 
; 80   : 	//
; 81   : 	// Weapons & Projectiles System:
; 82   : 	//
; 83   : 		m_Weapon = WT_GREENLASER ;

  004ce	8b 45 f4	 mov	 eax, DWORD PTR _this$[ebp]
  004d1	c7 40 04 00 00
	00 00		 mov	 DWORD PTR [eax+4], 0

; 84   : 		m_nWeaponEmitters = g_Fighters[ ftType ].nWeaponEmitters ;

  004d8	8b 45 0c	 mov	 eax, DWORD PTR _ftType$[ebp]
  004db	69 c0 84 01 00
	00		 imul	 eax, 388		; 00000184H
  004e1	8b 4d f4	 mov	 ecx, DWORD PTR _this$[ebp]
  004e4	8b 90 84 00 00
	00		 mov	 edx, DWORD PTR ?g_Fighters@@3PAUFIGHTER_TYPE_DETAILS@@A[eax+132]
  004ea	89 91 bc 00 00
	00		 mov	 DWORD PTR [ecx+188], edx

; 85   : 		m_fBaseWeaponEmmisionSpeedModifier = g_Fighters[ ftType ].fBaseWeaponEmmisionSpeedModifier ;

  004f0	8b 45 0c	 mov	 eax, DWORD PTR _ftType$[ebp]
  004f3	69 c0 84 01 00
	00		 imul	 eax, 388		; 00000184H
  004f9	8b 4d f4	 mov	 ecx, DWORD PTR _this$[ebp]
  004fc	8b 90 88 00 00
	00		 mov	 edx, DWORD PTR ?g_Fighters@@3PAUFIGHTER_TYPE_DETAILS@@A[eax+136]
  00502	89 91 c0 00 00
	00		 mov	 DWORD PTR [ecx+192], edx

; 86   : 		m_fLastProjectileEmmitedTime = 0.0f ;

  00508	8b 45 f4	 mov	 eax, DWORD PTR _this$[ebp]
  0050b	c7 80 c4 00 00
	00 00 00 00 00	 mov	 DWORD PTR [eax+196], 0

; 87   : 		m_ndxCurWeaponEmitter = 0 ;

  00515	8b 45 f4	 mov	 eax, DWORD PTR _this$[ebp]
  00518	c7 80 c8 00 00
	00 00 00 00 00	 mov	 DWORD PTR [eax+200], 0

; 88   : 		for( i=0 ; i < m_nWeaponEmitters ; i++ )

  00522	c7 45 e8 00 00
	00 00		 mov	 DWORD PTR _i$[ebp], 0
  00529	eb 09		 jmp	 SHORT $L93706
$L93707:
  0052b	8b 45 e8	 mov	 eax, DWORD PTR _i$[ebp]
  0052e	83 c0 01	 add	 eax, 1
  00531	89 45 e8	 mov	 DWORD PTR _i$[ebp], eax
$L93706:
  00534	8b 45 f4	 mov	 eax, DWORD PTR _this$[ebp]
  00537	8b 4d e8	 mov	 ecx, DWORD PTR _i$[ebp]
  0053a	3b 88 bc 00 00
	00		 cmp	 ecx, DWORD PTR [eax+188]
  00540	7d 44		 jge	 SHORT $L93708

; 89   : 			m_vWeaponEmitters[ i ] = (xVec3)g_Fighters[ ftType ].vWeaponEmitters[ i ];

  00542	8b 45 0c	 mov	 eax, DWORD PTR _ftType$[ebp]
  00545	69 c0 84 01 00
	00		 imul	 eax, 388		; 00000184H
  0054b	8b 4d e8	 mov	 ecx, DWORD PTR _i$[ebp]
  0054e	6b c9 0c	 imul	 ecx, 12			; 0000000cH
  00551	8d 94 08 8c 00
	00 00		 lea	 edx, DWORD PTR ?g_Fighters@@3PAUFIGHTER_TYPE_DETAILS@@A[eax+ecx+140]
  00558	52		 push	 edx
  00559	8d 8d 7c fc ff
	ff		 lea	 ecx, DWORD PTR $T94520[ebp]
  0055f	e8 00 00 00 00	 call	 ??0D3DXVECTOR3@@QAE@ABU_D3DVECTOR@@@Z ; D3DXVECTOR3::D3DXVECTOR3
  00564	8b 4d e8	 mov	 ecx, DWORD PTR _i$[ebp]
  00567	6b c9 0c	 imul	 ecx, 12			; 0000000cH
  0056a	8b 55 f4	 mov	 edx, DWORD PTR _this$[ebp]
  0056d	8d 8c 0a cc 00
	00 00		 lea	 ecx, DWORD PTR [edx+ecx+204]
  00574	8b 10		 mov	 edx, DWORD PTR [eax]
  00576	89 11		 mov	 DWORD PTR [ecx], edx
  00578	8b 50 04	 mov	 edx, DWORD PTR [eax+4]
  0057b	89 51 04	 mov	 DWORD PTR [ecx+4], edx
  0057e	8b 40 08	 mov	 eax, DWORD PTR [eax+8]
  00581	89 41 08	 mov	 DWORD PTR [ecx+8], eax
  00584	eb a5		 jmp	 SHORT $L93707
$L93708:

; 90   : 		m_pProjectiles = NULL ;

  00586	8b 45 f4	 mov	 eax, DWORD PTR _this$[ebp]
  00589	c7 80 8c 01 00
	00 00 00 00 00	 mov	 DWORD PTR [eax+396], 0

; 91   : 		m_nProjectiles = 0 ;

  00593	8b 45 f4	 mov	 eax, DWORD PTR _this$[ebp]
  00596	c7 80 90 01 00
	00 00 00 00 00	 mov	 DWORD PTR [eax+400], 0

; 92   : 
; 93   : 	//
; 94   : 	// Shield:
; 95   : 	//
; 96   : 		m_bShowingShieldEffect = FALSE ;

  005a0	8b 45 f4	 mov	 eax, DWORD PTR _this$[ebp]
  005a3	c7 80 94 01 00
	00 00 00 00 00	 mov	 DWORD PTR [eax+404], 0

; 97   : 		m_fShieldEffectLifetime = 0.0f ;

  005ad	8b 45 f4	 mov	 eax, DWORD PTR _this$[ebp]
  005b0	c7 80 98 01 00
	00 00 00 00 00	 mov	 DWORD PTR [eax+408], 0

; 98   : 		m_fShieldEffectAge = 0.0f ;

  005ba	8b 45 f4	 mov	 eax, DWORD PTR _this$[ebp]
  005bd	c7 80 9c 01 00
	00 00 00 00 00	 mov	 DWORD PTR [eax+412], 0

; 99   : 		m_bShieldLevelChanged = FALSE ;

  005c7	8b 45 f4	 mov	 eax, DWORD PTR _this$[ebp]
  005ca	c7 80 14 03 00
	00 00 00 00 00	 mov	 DWORD PTR [eax+788], 0

; 100  : 		m_bJustFinishedExploding = FALSE ;

  005d4	8b 45 f4	 mov	 eax, DWORD PTR _this$[ebp]
  005d7	c7 80 18 03 00
	00 00 00 00 00	 mov	 DWORD PTR [eax+792], 0

; 101  : 
; 102  : 	//
; 103  : 	// Physics & initial orientation & position:
; 104  : 	//
; 105  : 		m_fsState = FS_NORMAL ;

  005e1	8b 45 f4	 mov	 eax, DWORD PTR _this$[ebp]
  005e4	c7 80 a0 01 00
	00 00 00 00 00	 mov	 DWORD PTR [eax+416], 0

; 106  : 		m_fSpeed = 0.0f ;

  005ee	8b 45 f4	 mov	 eax, DWORD PTR _this$[ebp]
  005f1	c7 80 a4 01 00
	00 00 00 00 00	 mov	 DWORD PTR [eax+420], 0

; 107  : 
; 108  : 		//m_fMaxThrustMag = fTerrainLenSQ / 500.0f ;
; 109  : 		//m_fThrustDelta = ( fTerrainLenSQ / 100000.0f ) * 60.0f ;
; 110  : 		m_fMaxThrustMag = fMyBSRadius * 8 ;

  005fb	d9 45 10	 fld	 DWORD PTR _fMyBSRadius$[ebp]
  005fe	d8 0d 00 00 00
	00		 fmul	 DWORD PTR __real@41000000
  00604	8b 45 f4	 mov	 eax, DWORD PTR _this$[ebp]
  00607	d9 98 b4 01 00
	00		 fstp	 DWORD PTR [eax+436]

; 111  : 		m_fThrustDelta = m_fMaxThrustMag / 2 ;

  0060d	8b 45 f4	 mov	 eax, DWORD PTR _this$[ebp]
  00610	d9 80 b4 01 00
	00		 fld	 DWORD PTR [eax+436]
  00616	d8 35 00 00 00
	00		 fdiv	 DWORD PTR __real@40000000
  0061c	8b 4d f4	 mov	 ecx, DWORD PTR _this$[ebp]
  0061f	d9 99 a8 01 00
	00		 fstp	 DWORD PTR [ecx+424]

; 112  : 		m_fThrustMag = 0 ;

  00625	8b 45 f4	 mov	 eax, DWORD PTR _this$[ebp]
  00628	c7 80 ac 01 00
	00 00 00 00 00	 mov	 DWORD PTR [eax+428], 0

; 113  : 		m_fStrafeThrustMag = 0 ;

  00632	8b 45 f4	 mov	 eax, DWORD PTR _this$[ebp]
  00635	c7 80 b0 01 00
	00 00 00 00 00	 mov	 DWORD PTR [eax+432], 0

; 114  : 
; 115  : 		m_vOrientation = xVec3(0.0f, 0.0f, -1.0f) ;

  0063f	68 00 00 80 bf	 push	 -1082130432		; bf800000H
  00644	6a 00		 push	 0
  00646	6a 00		 push	 0
  00648	8d 8d 68 fc ff
	ff		 lea	 ecx, DWORD PTR $T94521[ebp]
  0064e	e8 00 00 00 00	 call	 ??0D3DXVECTOR3@@QAE@MMM@Z ; D3DXVECTOR3::D3DXVECTOR3
  00653	8b 4d f4	 mov	 ecx, DWORD PTR _this$[ebp]
  00656	81 c1 c0 01 00
	00		 add	 ecx, 448		; 000001c0H
  0065c	8b 10		 mov	 edx, DWORD PTR [eax]
  0065e	89 11		 mov	 DWORD PTR [ecx], edx
  00660	8b 50 04	 mov	 edx, DWORD PTR [eax+4]
  00663	89 51 04	 mov	 DWORD PTR [ecx+4], edx
  00666	8b 40 08	 mov	 eax, DWORD PTR [eax+8]
  00669	89 41 08	 mov	 DWORD PTR [ecx+8], eax

; 116  : 		m_vUp = xVec3( 0,1,0 );

  0066c	6a 00		 push	 0
  0066e	68 00 00 80 3f	 push	 1065353216		; 3f800000H
  00673	6a 00		 push	 0
  00675	8d 8d 54 fc ff
	ff		 lea	 ecx, DWORD PTR $T94522[ebp]
  0067b	e8 00 00 00 00	 call	 ??0D3DXVECTOR3@@QAE@MMM@Z ; D3DXVECTOR3::D3DXVECTOR3
  00680	8b 4d f4	 mov	 ecx, DWORD PTR _this$[ebp]
  00683	81 c1 e4 01 00
	00		 add	 ecx, 484		; 000001e4H
  00689	8b 10		 mov	 edx, DWORD PTR [eax]
  0068b	89 11		 mov	 DWORD PTR [ecx], edx
  0068d	8b 50 04	 mov	 edx, DWORD PTR [eax+4]
  00690	89 51 04	 mov	 DWORD PTR [ecx+4], edx
  00693	8b 40 08	 mov	 eax, DWORD PTR [eax+8]
  00696	89 41 08	 mov	 DWORD PTR [ecx+8], eax

; 117  : 		m_vInitialOrientation = xVec3(0.0f, 0.0f, -1.0f) ;

  00699	68 00 00 80 bf	 push	 -1082130432		; bf800000H
  0069e	6a 00		 push	 0
  006a0	6a 00		 push	 0
  006a2	8d 8d 40 fc ff
	ff		 lea	 ecx, DWORD PTR $T94523[ebp]
  006a8	e8 00 00 00 00	 call	 ??0D3DXVECTOR3@@QAE@MMM@Z ; D3DXVECTOR3::D3DXVECTOR3
  006ad	8b 4d f4	 mov	 ecx, DWORD PTR _this$[ebp]
  006b0	81 c1 cc 01 00
	00		 add	 ecx, 460		; 000001ccH
  006b6	8b 10		 mov	 edx, DWORD PTR [eax]
  006b8	89 11		 mov	 DWORD PTR [ecx], edx
  006ba	8b 50 04	 mov	 edx, DWORD PTR [eax+4]
  006bd	89 51 04	 mov	 DWORD PTR [ecx+4], edx
  006c0	8b 40 08	 mov	 eax, DWORD PTR [eax+8]
  006c3	89 41 08	 mov	 DWORD PTR [ecx+8], eax

; 118  : 
; 119  : 		m_vDirectionOfTravel = xVec3(0.0f, 0.0f, 0.0f) ;

  006c6	6a 00		 push	 0
  006c8	6a 00		 push	 0
  006ca	6a 00		 push	 0
  006cc	8d 8d 2c fc ff
	ff		 lea	 ecx, DWORD PTR $T94524[ebp]
  006d2	e8 00 00 00 00	 call	 ??0D3DXVECTOR3@@QAE@MMM@Z ; D3DXVECTOR3::D3DXVECTOR3
  006d7	8b 4d f4	 mov	 ecx, DWORD PTR _this$[ebp]
  006da	81 c1 d8 01 00
	00		 add	 ecx, 472		; 000001d8H
  006e0	8b 10		 mov	 edx, DWORD PTR [eax]
  006e2	89 11		 mov	 DWORD PTR [ecx], edx
  006e4	8b 50 04	 mov	 edx, DWORD PTR [eax+4]
  006e7	89 51 04	 mov	 DWORD PTR [ecx+4], edx
  006ea	8b 40 08	 mov	 eax, DWORD PTR [eax+8]
  006ed	89 41 08	 mov	 DWORD PTR [ecx+8], eax

; 120  : 
; 121  : 		m_bJustBouncedOffTerrain = FALSE ;

  006f0	8b 45 f4	 mov	 eax, DWORD PTR _this$[ebp]
  006f3	c7 80 14 02 00
	00 00 00 00 00	 mov	 DWORD PTR [eax+532], 0

; 122  : 
; 123  : 		m_fSteeringSensitivity = 6.0f ;

  006fd	8b 45 f4	 mov	 eax, DWORD PTR _this$[ebp]
  00700	c7 80 b8 01 00
	00 00 00 c0 40	 mov	 DWORD PTR [eax+440], 1086324736 ; 40c00000H

; 124  : 		m_fRollSensitivity = 3.0f ;

  0070a	8b 45 f4	 mov	 eax, DWORD PTR _this$[ebp]
  0070d	c7 80 bc 01 00
	00 00 00 40 40	 mov	 DWORD PTR [eax+444], 1077936128 ; 40400000H

; 125  : 
; 126  : 		m_vExternalForce = xVec3(0.0f, 0.0f, 0.0f) ;

  00717	6a 00		 push	 0
  00719	6a 00		 push	 0
  0071b	6a 00		 push	 0
  0071d	8d 8d 18 fc ff
	ff		 lea	 ecx, DWORD PTR $T94525[ebp]
  00723	e8 00 00 00 00	 call	 ??0D3DXVECTOR3@@QAE@MMM@Z ; D3DXVECTOR3::D3DXVECTOR3
  00728	8b 4d f4	 mov	 ecx, DWORD PTR _this$[ebp]
  0072b	81 c1 08 02 00
	00		 add	 ecx, 520		; 00000208H
  00731	8b 10		 mov	 edx, DWORD PTR [eax]
  00733	89 11		 mov	 DWORD PTR [ecx], edx
  00735	8b 50 04	 mov	 edx, DWORD PTR [eax+4]
  00738	89 51 04	 mov	 DWORD PTR [ecx+4], edx
  0073b	8b 40 08	 mov	 eax, DWORD PTR [eax+8]
  0073e	89 41 08	 mov	 DWORD PTR [ecx+8], eax

; 127  : 
; 128  : 		m_vPosition = xVec3(0.0f, 0.0f, 0.0f) ;

  00741	6a 00		 push	 0
  00743	6a 00		 push	 0
  00745	6a 00		 push	 0
  00747	8d 8d 04 fc ff
	ff		 lea	 ecx, DWORD PTR $T94526[ebp]
  0074d	e8 00 00 00 00	 call	 ??0D3DXVECTOR3@@QAE@MMM@Z ; D3DXVECTOR3::D3DXVECTOR3
  00752	8b 4d f4	 mov	 ecx, DWORD PTR _this$[ebp]
  00755	81 c1 fc 01 00
	00		 add	 ecx, 508		; 000001fcH
  0075b	8b 10		 mov	 edx, DWORD PTR [eax]
  0075d	89 11		 mov	 DWORD PTR [ecx], edx
  0075f	8b 50 04	 mov	 edx, DWORD PTR [eax+4]
  00762	89 51 04	 mov	 DWORD PTR [ecx+4], edx
  00765	8b 40 08	 mov	 eax, DWORD PTR [eax+8]
  00768	89 41 08	 mov	 DWORD PTR [ecx+8], eax

; 129  : 
; 130  : 		m_fPitch = m_fYaw = m_fRoll = 0.0f ;

  0076b	8b 45 f4	 mov	 eax, DWORD PTR _this$[ebp]
  0076e	c7 80 20 02 00
	00 00 00 00 00	 mov	 DWORD PTR [eax+544], 0
  00778	8b 4d f4	 mov	 ecx, DWORD PTR _this$[ebp]
  0077b	c7 81 1c 02 00
	00 00 00 00 00	 mov	 DWORD PTR [ecx+540], 0
  00785	8b 55 f4	 mov	 edx, DWORD PTR _this$[ebp]
  00788	c7 82 18 02 00
	00 00 00 00 00	 mov	 DWORD PTR [edx+536], 0

; 131  : 		m_matTrans = g_matIdent ;

  00792	8b 7d f4	 mov	 edi, DWORD PTR _this$[ebp]
  00795	81 c7 24 02 00
	00		 add	 edi, 548		; 00000224H
  0079b	b9 10 00 00 00	 mov	 ecx, 16			; 00000010H
  007a0	be 00 00 00 00	 mov	 esi, OFFSET FLAT:?g_matIdent@@3UD3DXMATRIX@@A ; g_matIdent
  007a5	f3 a5		 rep movsd

; 132  : 		m_matRot = g_matIdent ;

  007a7	8b 7d f4	 mov	 edi, DWORD PTR _this$[ebp]
  007aa	81 c7 64 02 00
	00		 add	 edi, 612		; 00000264H
  007b0	b9 10 00 00 00	 mov	 ecx, 16			; 00000010H
  007b5	be 00 00 00 00	 mov	 esi, OFFSET FLAT:?g_matIdent@@3UD3DXMATRIX@@A ; g_matIdent
  007ba	f3 a5		 rep movsd

; 133  : 
; 134  : 		m_fDistanceToGround = -1 ;

  007bc	8b 45 f4	 mov	 eax, DWORD PTR _this$[ebp]
  007bf	c7 80 e4 02 00
	00 00 00 80 bf	 mov	 DWORD PTR [eax+740], -1082130432 ; bf800000H

; 135  : 
; 136  : 	//
; 137  : 	// Terrain Force:
; 138  : 	//
; 139  : 		m_fMaxTerrainForce = 0 ;				// zero for no terrain force! CUserFighter overrides this.

  007c9	8b 45 f4	 mov	 eax, DWORD PTR _this$[ebp]
  007cc	c7 80 00 03 00
	00 00 00 00 00	 mov	 DWORD PTR [eax+768], 0

; 140  : 		m_fTerrainForceBalanceAltitude = 0 ;

  007d6	8b 45 f4	 mov	 eax, DWORD PTR _this$[ebp]
  007d9	c7 80 04 03 00
	00 00 00 00 00	 mov	 DWORD PTR [eax+772], 0

; 141  : 		m_fTerrainForce = 0 ;

  007e3	8b 45 f4	 mov	 eax, DWORD PTR _this$[ebp]
  007e6	c7 80 fc 02 00
	00 00 00 00 00	 mov	 DWORD PTR [eax+764], 0

; 142  : 
; 143  : 	//
; 144  : 	// Systems:
; 145  : 	//
; 146  : 		m_fShieldLevel = 1.0f ;

  007f0	8b 45 f4	 mov	 eax, DWORD PTR _this$[ebp]
  007f3	c7 80 08 03 00
	00 00 00 80 3f	 mov	 DWORD PTR [eax+776], 1065353216 ; 3f800000H

; 147  : 		m_fWeaponsLevel = 0.1f ;

  007fd	8b 45 f4	 mov	 eax, DWORD PTR _this$[ebp]
  00800	c7 80 0c 03 00
	00 cd cc cc 3d	 mov	 DWORD PTR [eax+780], 1036831949 ; 3dcccccdH

; 148  : 		m_fEngineLevel = 0.1f ;

  0080a	8b 45 f4	 mov	 eax, DWORD PTR _this$[ebp]
  0080d	c7 80 10 03 00
	00 cd cc cc 3d	 mov	 DWORD PTR [eax+784], 1036831949 ; 3dcccccdH

; 149  : 
; 150  : 	//
; 151  : 	// Dynamic Camera:
; 152  : 	//
; 153  : 		for( i=0 ; i<THRUSTMAG_HISTORY_BUF ; i++ )

  00817	c7 45 e8 00 00
	00 00		 mov	 DWORD PTR _i$[ebp], 0
  0081e	eb 09		 jmp	 SHORT $L93717
$L93718:
  00820	8b 45 e8	 mov	 eax, DWORD PTR _i$[ebp]
  00823	83 c0 01	 add	 eax, 1
  00826	89 45 e8	 mov	 DWORD PTR _i$[ebp], eax
$L93717:
  00829	83 7d e8 0a	 cmp	 DWORD PTR _i$[ebp], 10	; 0000000aH
  0082d	7d 13		 jge	 SHORT $L93674

; 154  : 			m_fThrustMagHistory[ i ] = 0 ;

  0082f	8b 45 e8	 mov	 eax, DWORD PTR _i$[ebp]
  00832	8b 4d f4	 mov	 ecx, DWORD PTR _this$[ebp]
  00835	c7 84 81 20 03
	00 00 00 00 00
	00		 mov	 DWORD PTR [ecx+eax*4+800], 0
  00840	eb de		 jmp	 SHORT $L93718
$L93674:

; 155  : 	}

  00842	8b 45 f4	 mov	 eax, DWORD PTR _this$[ebp]
  00845	52		 push	 edx
  00846	8b cd		 mov	 ecx, ebp
  00848	50		 push	 eax
  00849	8d 15 00 00 00
	00		 lea	 edx, DWORD PTR $L94545
  0084f	e8 00 00 00 00	 call	 @_RTC_CheckStackVars@8
  00854	58		 pop	 eax
  00855	5a		 pop	 edx
  00856	8b 4d fc	 mov	 ecx, DWORD PTR __$ArrayPad$[ebp]
  00859	33 4d 04	 xor	 ecx, DWORD PTR __$ReturnAddr$[ebp]
  0085c	e8 00 00 00 00	 call	 @__security_check_cookie@4
  00861	5f		 pop	 edi
  00862	5e		 pop	 esi
  00863	5b		 pop	 ebx
  00864	81 c4 04 04 00
	00		 add	 esp, 1028		; 00000404H
  0086a	3b ec		 cmp	 ebp, esp
  0086c	e8 00 00 00 00	 call	 __RTC_CheckEsp
  00871	8b e5		 mov	 esp, ebp
  00873	5d		 pop	 ebp
  00874	c2 14 00	 ret	 20			; 00000014H
$L94545:
  00877	01 00 00 00	 DD	 1
  0087b	00 00 00 00	 DD	 $L94544
$L94544:
  0087f	e0 fd ff ff	 DD	 -544			; fffffde0H
  00883	00 02 00 00	 DD	 512			; 00000200H
  00887	00 00 00 00	 DD	 $L94541
$L94541:
  0088b	73		 DB	 115			; 00000073H
  0088c	7a		 DB	 122			; 0000007aH
  0088d	52		 DB	 82			; 00000052H
  0088e	65		 DB	 101			; 00000065H
  0088f	6c		 DB	 108			; 0000006cH
  00890	61		 DB	 97			; 00000061H
  00891	74		 DB	 116			; 00000074H
  00892	69		 DB	 105			; 00000069H
  00893	76		 DB	 118			; 00000076H
  00894	65		 DB	 101			; 00000065H
  00895	50		 DB	 80			; 00000050H
  00896	61		 DB	 97			; 00000061H
  00897	74		 DB	 116			; 00000074H
  00898	68		 DB	 104			; 00000068H
  00899	00		 DB	 0
??0CFighter@@QAE@MHMPAURENDER_DATA_INFO@CFileRenderObject@@H@Z ENDP ; CFighter::CFighter
; Function compile flags: /Odt /RTCsu /ZI
_TEXT	ENDS
;	COMDAT ??_H@YGXPAXIHP6EPAX0@Z@Z
_TEXT	SEGMENT
___t$ = 8
___s$ = 12
___n$ = 16
___f$ = 20
??_H@YGXPAXIHP6EPAX0@Z@Z PROC NEAR			; `vector constructor iterator', COMDAT
  00000	55		 push	 ebp
  00001	8b ec		 mov	 ebp, esp
  00003	81 ec c0 00 00
	00		 sub	 esp, 192		; 000000c0H
  00009	53		 push	 ebx
  0000a	56		 push	 esi
  0000b	57		 push	 edi
  0000c	8d bd 40 ff ff
	ff		 lea	 edi, DWORD PTR [ebp-192]
  00012	b9 30 00 00 00	 mov	 ecx, 48			; 00000030H
  00017	b8 cc cc cc cc	 mov	 eax, -858993460		; ccccccccH
  0001c	f3 ab		 rep stosd
$L93728:
  0001e	8b 45 10	 mov	 eax, DWORD PTR ___n$[ebp]
  00021	83 e8 01	 sub	 eax, 1
  00024	89 45 10	 mov	 DWORD PTR ___n$[ebp], eax
  00027	83 7d 10 00	 cmp	 DWORD PTR ___n$[ebp], 0
  0002b	7c 1a		 jl	 SHORT $L93726
  0002d	8b f4		 mov	 esi, esp
  0002f	8b 4d 08	 mov	 ecx, DWORD PTR ___t$[ebp]
  00032	ff 55 14	 call	 DWORD PTR ___f$[ebp]
  00035	3b f4		 cmp	 esi, esp
  00037	e8 00 00 00 00	 call	 __RTC_CheckEsp
  0003c	8b 45 08	 mov	 eax, DWORD PTR ___t$[ebp]
  0003f	03 45 0c	 add	 eax, DWORD PTR ___s$[ebp]
  00042	89 45 08	 mov	 DWORD PTR ___t$[ebp], eax
  00045	eb d7		 jmp	 SHORT $L93728
$L93726:
  00047	5f		 pop	 edi
  00048	5e		 pop	 esi
  00049	5b		 pop	 ebx
  0004a	81 c4 c0 00 00
	00		 add	 esp, 192		; 000000c0H
  00050	3b ec		 cmp	 ebp, esp
  00052	e8 00 00 00 00	 call	 __RTC_CheckEsp
  00057	8b e5		 mov	 esp, ebp
  00059	5d		 pop	 ebp
  0005a	c2 10 00	 ret	 16			; 00000010H
??_H@YGXPAXIHP6EPAX0@Z@Z ENDP				; `vector constructor iterator'
_TEXT	ENDS
PUBLIC	??1CFighter@@QAE@XZ				; CFighter::~CFighter
PUBLIC	??_GCBoundingBox@@QAEPAXI@Z			; CBoundingBox::`scalar deleting destructor'
PUBLIC	??_GCFileRenderObject@@QAEPAXI@Z		; CFileRenderObject::`scalar deleting destructor'
PUBLIC	??_GCParticleSystem@@QAEPAXI@Z			; CParticleSystem::`scalar deleting destructor'
PUBLIC	??_GCExplosion@@QAEPAXI@Z			; CExplosion::`scalar deleting destructor'
EXTRN	??3@YAXPAX@Z:NEAR				; operator delete
; Function compile flags: /Odt /RTCsu /ZI
;	COMDAT ??1CFighter@@QAE@XZ
_TEXT	SEGMENT
tv151 = -376
tv142 = -376
tv130 = -376
tv87 = -376
tv71 = -376
$T94576 = -368
$T94573 = -356
$T94572 = -344
$T94569 = -332
$T94568 = -320
$T94565 = -308
$T94564 = -296
$T94561 = -284
$T94560 = -272
$T94557 = -260
$T94556 = -248
_pDeletedProjectile$ = -44
_pProjectile$ = -32
_i$93737 = -20
_this$ = -8
??1CFighter@@QAE@XZ PROC NEAR				; CFighter::~CFighter, COMDAT
; _this$ = ecx

; 157  : 	{

  00000	55		 push	 ebp
  00001	8b ec		 mov	 ebp, esp
  00003	81 ec 78 01 00
	00		 sub	 esp, 376		; 00000178H
  00009	53		 push	 ebx
  0000a	56		 push	 esi
  0000b	57		 push	 edi
  0000c	51		 push	 ecx
  0000d	8d bd 88 fe ff
	ff		 lea	 edi, DWORD PTR [ebp-376]
  00013	b9 5e 00 00 00	 mov	 ecx, 94			; 0000005eH
  00018	b8 cc cc cc cc	 mov	 eax, -858993460		; ccccccccH
  0001d	f3 ab		 rep stosd
  0001f	59		 pop	 ecx
  00020	89 4d f8	 mov	 DWORD PTR _this$[ebp], ecx

; 158  : 		SAFE_DELETE( m_pFRO )

  00023	8b 45 f8	 mov	 eax, DWORD PTR _this$[ebp]
  00026	83 78 2c 00	 cmp	 DWORD PTR [eax+44], 0
  0002a	74 4a		 je	 SHORT $L93734
  0002c	8b 45 f8	 mov	 eax, DWORD PTR _this$[ebp]
  0002f	8b 48 2c	 mov	 ecx, DWORD PTR [eax+44]
  00032	89 8d fc fe ff
	ff		 mov	 DWORD PTR $T94557[ebp], ecx
  00038	8b 95 fc fe ff
	ff		 mov	 edx, DWORD PTR $T94557[ebp]
  0003e	89 95 08 ff ff
	ff		 mov	 DWORD PTR $T94556[ebp], edx
  00044	83 bd 08 ff ff
	ff 00		 cmp	 DWORD PTR $T94556[ebp], 0
  0004b	74 15		 je	 SHORT $L94558
  0004d	6a 01		 push	 1
  0004f	8b 8d 08 ff ff
	ff		 mov	 ecx, DWORD PTR $T94556[ebp]
  00055	e8 00 00 00 00	 call	 ??_GCFileRenderObject@@QAEPAXI@Z
  0005a	89 85 88 fe ff
	ff		 mov	 DWORD PTR tv71[ebp], eax
  00060	eb 0a		 jmp	 SHORT $L94559
$L94558:
  00062	c7 85 88 fe ff
	ff 00 00 00 00	 mov	 DWORD PTR tv71[ebp], 0
$L94559:
  0006c	8b 45 f8	 mov	 eax, DWORD PTR _this$[ebp]
  0006f	c7 40 2c 00 00
	00 00		 mov	 DWORD PTR [eax+44], 0
$L93734:

; 159  : 		
; 160  : 		for( int i=0; i<m_nContrailEmitters ; i++ )

  00076	c7 45 ec 00 00
	00 00		 mov	 DWORD PTR _i$93737[ebp], 0
  0007d	eb 09		 jmp	 SHORT $L93738
$L93739:
  0007f	8b 45 ec	 mov	 eax, DWORD PTR _i$93737[ebp]
  00082	83 c0 01	 add	 eax, 1
  00085	89 45 ec	 mov	 DWORD PTR _i$93737[ebp], eax
$L93738:
  00088	8b 45 f8	 mov	 eax, DWORD PTR _this$[ebp]
  0008b	8b 4d ec	 mov	 ecx, DWORD PTR _i$93737[ebp]
  0008e	3b 48 40	 cmp	 ecx, DWORD PTR [eax+64]
  00091	7d 61		 jge	 SHORT $L93740

; 161  : 			SAFE_DELETE( m_pPS_Contrails[ i ] )

  00093	8b 45 ec	 mov	 eax, DWORD PTR _i$93737[ebp]
  00096	8b 4d f8	 mov	 ecx, DWORD PTR _this$[ebp]
  00099	83 7c 81 74 00	 cmp	 DWORD PTR [ecx+eax*4+116], 0
  0009e	74 52		 je	 SHORT $L93741
  000a0	8b 45 ec	 mov	 eax, DWORD PTR _i$93737[ebp]
  000a3	8b 4d f8	 mov	 ecx, DWORD PTR _this$[ebp]
  000a6	8b 54 81 74	 mov	 edx, DWORD PTR [ecx+eax*4+116]
  000aa	89 95 e4 fe ff
	ff		 mov	 DWORD PTR $T94561[ebp], edx
  000b0	8b 85 e4 fe ff
	ff		 mov	 eax, DWORD PTR $T94561[ebp]
  000b6	89 85 f0 fe ff
	ff		 mov	 DWORD PTR $T94560[ebp], eax
  000bc	83 bd f0 fe ff
	ff 00		 cmp	 DWORD PTR $T94560[ebp], 0
  000c3	74 15		 je	 SHORT $L94562
  000c5	6a 01		 push	 1
  000c7	8b 8d f0 fe ff
	ff		 mov	 ecx, DWORD PTR $T94560[ebp]
  000cd	e8 00 00 00 00	 call	 ??_GCParticleSystem@@QAEPAXI@Z
  000d2	89 85 88 fe ff
	ff		 mov	 DWORD PTR tv87[ebp], eax
  000d8	eb 0a		 jmp	 SHORT $L94563
$L94562:
  000da	c7 85 88 fe ff
	ff 00 00 00 00	 mov	 DWORD PTR tv87[ebp], 0
$L94563:
  000e4	8b 45 ec	 mov	 eax, DWORD PTR _i$93737[ebp]
  000e7	8b 4d f8	 mov	 ecx, DWORD PTR _this$[ebp]
  000ea	c7 44 81 74 00
	00 00 00	 mov	 DWORD PTR [ecx+eax*4+116], 0
$L93741:
  000f2	eb 8b		 jmp	 SHORT $L93739
$L93740:

; 162  : 
; 163  : 		SAFE_DELETE( m_pExp )

  000f4	8b 45 f8	 mov	 eax, DWORD PTR _this$[ebp]
  000f7	83 78 34 00	 cmp	 DWORD PTR [eax+52], 0
  000fb	74 4a		 je	 SHORT $L93744
  000fd	8b 45 f8	 mov	 eax, DWORD PTR _this$[ebp]
  00100	8b 48 34	 mov	 ecx, DWORD PTR [eax+52]
  00103	89 8d cc fe ff
	ff		 mov	 DWORD PTR $T94565[ebp], ecx
  00109	8b 95 cc fe ff
	ff		 mov	 edx, DWORD PTR $T94565[ebp]
  0010f	89 95 d8 fe ff
	ff		 mov	 DWORD PTR $T94564[ebp], edx
  00115	83 bd d8 fe ff
	ff 00		 cmp	 DWORD PTR $T94564[ebp], 0
  0011c	74 15		 je	 SHORT $L94566
  0011e	6a 01		 push	 1
  00120	8b 8d d8 fe ff
	ff		 mov	 ecx, DWORD PTR $T94564[ebp]
  00126	e8 00 00 00 00	 call	 ??_GCExplosion@@QAEPAXI@Z
  0012b	89 85 88 fe ff
	ff		 mov	 DWORD PTR tv130[ebp], eax
  00131	eb 0a		 jmp	 SHORT $L94567
$L94566:
  00133	c7 85 88 fe ff
	ff 00 00 00 00	 mov	 DWORD PTR tv130[ebp], 0
$L94567:
  0013d	8b 45 f8	 mov	 eax, DWORD PTR _this$[ebp]
  00140	c7 40 34 00 00
	00 00		 mov	 DWORD PTR [eax+52], 0
$L93744:

; 164  : 
; 165  : 		//Msg2( "deleting %d projectiles", m_nProjectiles );
; 166  : 		FIGHTER_PROJECTILE* pProjectile, *pDeletedProjectile ;
; 167  : 		pProjectile = m_pProjectiles ;

  00147	8b 45 f8	 mov	 eax, DWORD PTR _this$[ebp]
  0014a	8b 88 8c 01 00
	00		 mov	 ecx, DWORD PTR [eax+396]
  00150	89 4d e0	 mov	 DWORD PTR _pProjectile$[ebp], ecx
$L93750:

; 168  : 		while( pProjectile )

  00153	83 7d e0 00	 cmp	 DWORD PTR _pProjectile$[ebp], 0
  00157	0f 84 de 00 00
	00		 je	 $L93751

; 169  : 		{
; 170  : 			pDeletedProjectile = pProjectile ;

  0015d	8b 45 e0	 mov	 eax, DWORD PTR _pProjectile$[ebp]
  00160	89 45 d4	 mov	 DWORD PTR _pDeletedProjectile$[ebp], eax

; 171  : 			pProjectile = pProjectile->pNext ;

  00163	8b 45 e0	 mov	 eax, DWORD PTR _pProjectile$[ebp]
  00166	8b 88 ac 00 00
	00		 mov	 ecx, DWORD PTR [eax+172]
  0016c	89 4d e0	 mov	 DWORD PTR _pProjectile$[ebp], ecx

; 172  : 			SAFE_DELETE( pDeletedProjectile->pPS )

  0016f	8b 45 d4	 mov	 eax, DWORD PTR _pDeletedProjectile$[ebp]
  00172	83 b8 84 00 00
	00 00		 cmp	 DWORD PTR [eax+132], 0
  00179	74 50		 je	 SHORT $L93752
  0017b	8b 45 d4	 mov	 eax, DWORD PTR _pDeletedProjectile$[ebp]
  0017e	8b 88 84 00 00
	00		 mov	 ecx, DWORD PTR [eax+132]
  00184	89 8d b4 fe ff
	ff		 mov	 DWORD PTR $T94569[ebp], ecx
  0018a	8b 95 b4 fe ff
	ff		 mov	 edx, DWORD PTR $T94569[ebp]
  00190	89 95 c0 fe ff
	ff		 mov	 DWORD PTR $T94568[ebp], edx
  00196	83 bd c0 fe ff
	ff 00		 cmp	 DWORD PTR $T94568[ebp], 0
  0019d	74 15		 je	 SHORT $L94570
  0019f	6a 01		 push	 1
  001a1	8b 8d c0 fe ff
	ff		 mov	 ecx, DWORD PTR $T94568[ebp]
  001a7	e8 00 00 00 00	 call	 ??_GCParticleSystem@@QAEPAXI@Z
  001ac	89 85 88 fe ff
	ff		 mov	 DWORD PTR tv142[ebp], eax
  001b2	eb 0a		 jmp	 SHORT $L94571
$L94570:
  001b4	c7 85 88 fe ff
	ff 00 00 00 00	 mov	 DWORD PTR tv142[ebp], 0
$L94571:
  001be	8b 45 d4	 mov	 eax, DWORD PTR _pDeletedProjectile$[ebp]
  001c1	c7 80 84 00 00
	00 00 00 00 00	 mov	 DWORD PTR [eax+132], 0
$L93752:

; 173  : 			SAFE_DELETE( pDeletedProjectile->pBBox )

  001cb	8b 45 d4	 mov	 eax, DWORD PTR _pDeletedProjectile$[ebp]
  001ce	83 78 3c 00	 cmp	 DWORD PTR [eax+60], 0
  001d2	74 4a		 je	 SHORT $L93755
  001d4	8b 45 d4	 mov	 eax, DWORD PTR _pDeletedProjectile$[ebp]
  001d7	8b 48 3c	 mov	 ecx, DWORD PTR [eax+60]
  001da	89 8d 9c fe ff
	ff		 mov	 DWORD PTR $T94573[ebp], ecx
  001e0	8b 95 9c fe ff
	ff		 mov	 edx, DWORD PTR $T94573[ebp]
  001e6	89 95 a8 fe ff
	ff		 mov	 DWORD PTR $T94572[ebp], edx
  001ec	83 bd a8 fe ff
	ff 00		 cmp	 DWORD PTR $T94572[ebp], 0
  001f3	74 15		 je	 SHORT $L94574
  001f5	6a 01		 push	 1
  001f7	8b 8d a8 fe ff
	ff		 mov	 ecx, DWORD PTR $T94572[ebp]
  001fd	e8 00 00 00 00	 call	 ??_GCBoundingBox@@QAEPAXI@Z
  00202	89 85 88 fe ff
	ff		 mov	 DWORD PTR tv151[ebp], eax
  00208	eb 0a		 jmp	 SHORT $L94575
$L94574:
  0020a	c7 85 88 fe ff
	ff 00 00 00 00	 mov	 DWORD PTR tv151[ebp], 0
$L94575:
  00214	8b 45 d4	 mov	 eax, DWORD PTR _pDeletedProjectile$[ebp]
  00217	c7 40 3c 00 00
	00 00		 mov	 DWORD PTR [eax+60], 0
$L93755:

; 174  : 			delete pDeletedProjectile ;

  0021e	8b 45 d4	 mov	 eax, DWORD PTR _pDeletedProjectile$[ebp]
  00221	89 85 90 fe ff
	ff		 mov	 DWORD PTR $T94576[ebp], eax
  00227	8b 8d 90 fe ff
	ff		 mov	 ecx, DWORD PTR $T94576[ebp]
  0022d	51		 push	 ecx
  0022e	e8 00 00 00 00	 call	 ??3@YAXPAX@Z		; operator delete
  00233	83 c4 04	 add	 esp, 4

; 175  : 		}

  00236	e9 18 ff ff ff	 jmp	 $L93750
$L93751:

; 176  : 		m_pProjectiles = NULL ;

  0023b	8b 45 f8	 mov	 eax, DWORD PTR _this$[ebp]
  0023e	c7 80 8c 01 00
	00 00 00 00 00	 mov	 DWORD PTR [eax+396], 0

; 177  : 		m_nProjectiles = 0 ;

  00248	8b 45 f8	 mov	 eax, DWORD PTR _this$[ebp]
  0024b	c7 80 90 01 00
	00 00 00 00 00	 mov	 DWORD PTR [eax+400], 0

; 178  : 	}

  00255	5f		 pop	 edi
  00256	5e		 pop	 esi
  00257	5b		 pop	 ebx
  00258	81 c4 78 01 00
	00		 add	 esp, 376		; 00000178H
  0025e	3b ec		 cmp	 ebp, esp
  00260	e8 00 00 00 00	 call	 __RTC_CheckEsp
  00265	8b e5		 mov	 esp, ebp
  00267	5d		 pop	 ebp
  00268	c3		 ret	 0
??1CFighter@@QAE@XZ ENDP				; CFighter::~CFighter
_TEXT	ENDS
EXTRN	??1CFileRenderObject@@QAE@XZ:NEAR		; CFileRenderObject::~CFileRenderObject
; Function compile flags: /Odt /RTCsu /ZI
;	COMDAT ??_GCFileRenderObject@@QAEPAXI@Z
_TEXT	SEGMENT
_this$ = -8
___flags$ = 8
??_GCFileRenderObject@@QAEPAXI@Z PROC NEAR		; CFileRenderObject::`scalar deleting destructor', COMDAT
; _this$ = ecx
  00000	55		 push	 ebp
  00001	8b ec		 mov	 ebp, esp
  00003	81 ec cc 00 00
	00		 sub	 esp, 204		; 000000ccH
  00009	53		 push	 ebx
  0000a	56		 push	 esi
  0000b	57		 push	 edi
  0000c	51		 push	 ecx
  0000d	8d bd 34 ff ff
	ff		 lea	 edi, DWORD PTR [ebp-204]
  00013	b9 33 00 00 00	 mov	 ecx, 51			; 00000033H
  00018	b8 cc cc cc cc	 mov	 eax, -858993460		; ccccccccH
  0001d	f3 ab		 rep stosd
  0001f	59		 pop	 ecx
  00020	89 4d f8	 mov	 DWORD PTR _this$[ebp], ecx
  00023	8b 4d f8	 mov	 ecx, DWORD PTR _this$[ebp]
  00026	e8 00 00 00 00	 call	 ??1CFileRenderObject@@QAE@XZ ; CFileRenderObject::~CFileRenderObject
  0002b	8b 45 08	 mov	 eax, DWORD PTR ___flags$[ebp]
  0002e	83 e0 01	 and	 eax, 1
  00031	85 c0		 test	 eax, eax
  00033	74 0c		 je	 SHORT $L93765
  00035	8b 45 f8	 mov	 eax, DWORD PTR _this$[ebp]
  00038	50		 push	 eax
  00039	e8 00 00 00 00	 call	 ??3@YAXPAX@Z		; operator delete
  0003e	83 c4 04	 add	 esp, 4
$L93765:
  00041	8b 45 f8	 mov	 eax, DWORD PTR _this$[ebp]
  00044	5f		 pop	 edi
  00045	5e		 pop	 esi
  00046	5b		 pop	 ebx
  00047	81 c4 cc 00 00
	00		 add	 esp, 204		; 000000ccH
  0004d	3b ec		 cmp	 ebp, esp
  0004f	e8 00 00 00 00	 call	 __RTC_CheckEsp
  00054	8b e5		 mov	 esp, ebp
  00056	5d		 pop	 ebp
  00057	c2 04 00	 ret	 4
??_GCFileRenderObject@@QAEPAXI@Z ENDP			; CFileRenderObject::`scalar deleting destructor'
_TEXT	ENDS
EXTRN	??1CParticleSystem@@QAE@XZ:NEAR			; CParticleSystem::~CParticleSystem
; Function compile flags: /Odt /RTCsu /ZI
;	COMDAT ??_GCParticleSystem@@QAEPAXI@Z
_TEXT	SEGMENT
_this$ = -8
___flags$ = 8
??_GCParticleSystem@@QAEPAXI@Z PROC NEAR		; CParticleSystem::`scalar deleting destructor', COMDAT
; _this$ = ecx
  00000	55		 push	 ebp
  00001	8b ec		 mov	 ebp, esp
  00003	81 ec cc 00 00
	00		 sub	 esp, 204		; 000000ccH
  00009	53		 push	 ebx
  0000a	56		 push	 esi
  0000b	57		 push	 edi
  0000c	51		 push	 ecx
  0000d	8d bd 34 ff ff
	ff		 lea	 edi, DWORD PTR [ebp-204]
  00013	b9 33 00 00 00	 mov	 ecx, 51			; 00000033H
  00018	b8 cc cc cc cc	 mov	 eax, -858993460		; ccccccccH
  0001d	f3 ab		 rep stosd
  0001f	59		 pop	 ecx
  00020	89 4d f8	 mov	 DWORD PTR _this$[ebp], ecx
  00023	8b 4d f8	 mov	 ecx, DWORD PTR _this$[ebp]
  00026	e8 00 00 00 00	 call	 ??1CParticleSystem@@QAE@XZ ; CParticleSystem::~CParticleSystem
  0002b	8b 45 08	 mov	 eax, DWORD PTR ___flags$[ebp]
  0002e	83 e0 01	 and	 eax, 1
  00031	85 c0		 test	 eax, eax
  00033	74 0c		 je	 SHORT $L93768
  00035	8b 45 f8	 mov	 eax, DWORD PTR _this$[ebp]
  00038	50		 push	 eax
  00039	e8 00 00 00 00	 call	 ??3@YAXPAX@Z		; operator delete
  0003e	83 c4 04	 add	 esp, 4
$L93768:
  00041	8b 45 f8	 mov	 eax, DWORD PTR _this$[ebp]
  00044	5f		 pop	 edi
  00045	5e		 pop	 esi
  00046	5b		 pop	 ebx
  00047	81 c4 cc 00 00
	00		 add	 esp, 204		; 000000ccH
  0004d	3b ec		 cmp	 ebp, esp
  0004f	e8 00 00 00 00	 call	 __RTC_CheckEsp
  00054	8b e5		 mov	 esp, ebp
  00056	5d		 pop	 ebp
  00057	c2 04 00	 ret	 4
??_GCParticleSystem@@QAEPAXI@Z ENDP			; CParticleSystem::`scalar deleting destructor'
_TEXT	ENDS
EXTRN	??1CExplosion@@QAE@XZ:NEAR			; CExplosion::~CExplosion
; Function compile flags: /Odt /RTCsu /ZI
;	COMDAT ??_GCExplosion@@QAEPAXI@Z
_TEXT	SEGMENT
_this$ = -8
___flags$ = 8
??_GCExplosion@@QAEPAXI@Z PROC NEAR			; CExplosion::`scalar deleting destructor', COMDAT
; _this$ = ecx
  00000	55		 push	 ebp
  00001	8b ec		 mov	 ebp, esp
  00003	81 ec cc 00 00
	00		 sub	 esp, 204		; 000000ccH
  00009	53		 push	 ebx
  0000a	56		 push	 esi
  0000b	57		 push	 edi
  0000c	51		 push	 ecx
  0000d	8d bd 34 ff ff
	ff		 lea	 edi, DWORD PTR [ebp-204]
  00013	b9 33 00 00 00	 mov	 ecx, 51			; 00000033H
  00018	b8 cc cc cc cc	 mov	 eax, -858993460		; ccccccccH
  0001d	f3 ab		 rep stosd
  0001f	59		 pop	 ecx
  00020	89 4d f8	 mov	 DWORD PTR _this$[ebp], ecx
  00023	8b 4d f8	 mov	 ecx, DWORD PTR _this$[ebp]
  00026	e8 00 00 00 00	 call	 ??1CExplosion@@QAE@XZ	; CExplosion::~CExplosion
  0002b	8b 45 08	 mov	 eax, DWORD PTR ___flags$[ebp]
  0002e	83 e0 01	 and	 eax, 1
  00031	85 c0		 test	 eax, eax
  00033	74 0c		 je	 SHORT $L93771
  00035	8b 45 f8	 mov	 eax, DWORD PTR _this$[ebp]
  00038	50		 push	 eax
  00039	e8 00 00 00 00	 call	 ??3@YAXPAX@Z		; operator delete
  0003e	83 c4 04	 add	 esp, 4
$L93771:
  00041	8b 45 f8	 mov	 eax, DWORD PTR _this$[ebp]
  00044	5f		 pop	 edi
  00045	5e		 pop	 esi
  00046	5b		 pop	 ebx
  00047	81 c4 cc 00 00
	00		 add	 esp, 204		; 000000ccH
  0004d	3b ec		 cmp	 ebp, esp
  0004f	e8 00 00 00 00	 call	 __RTC_CheckEsp
  00054	8b e5		 mov	 esp, ebp
  00056	5d		 pop	 ebp
  00057	c2 04 00	 ret	 4
??_GCExplosion@@QAEPAXI@Z ENDP				; CExplosion::`scalar deleting destructor'
_TEXT	ENDS
EXTRN	??1CBoundingBox@@QAE@XZ:NEAR			; CBoundingBox::~CBoundingBox
; Function compile flags: /Odt /RTCsu /ZI
;	COMDAT ??_GCBoundingBox@@QAEPAXI@Z
_TEXT	SEGMENT
_this$ = -8
___flags$ = 8
??_GCBoundingBox@@QAEPAXI@Z PROC NEAR			; CBoundingBox::`scalar deleting destructor', COMDAT
; _this$ = ecx
  00000	55		 push	 ebp
  00001	8b ec		 mov	 ebp, esp
  00003	81 ec cc 00 00
	00		 sub	 esp, 204		; 000000ccH
  00009	53		 push	 ebx
  0000a	56		 push	 esi
  0000b	57		 push	 edi
  0000c	51		 push	 ecx
  0000d	8d bd 34 ff ff
	ff		 lea	 edi, DWORD PTR [ebp-204]
  00013	b9 33 00 00 00	 mov	 ecx, 51			; 00000033H
  00018	b8 cc cc cc cc	 mov	 eax, -858993460		; ccccccccH
  0001d	f3 ab		 rep stosd
  0001f	59		 pop	 ecx
  00020	89 4d f8	 mov	 DWORD PTR _this$[ebp], ecx
  00023	8b 4d f8	 mov	 ecx, DWORD PTR _this$[ebp]
  00026	e8 00 00 00 00	 call	 ??1CBoundingBox@@QAE@XZ	; CBoundingBox::~CBoundingBox
  0002b	8b 45 08	 mov	 eax, DWORD PTR ___flags$[ebp]
  0002e	83 e0 01	 and	 eax, 1
  00031	85 c0		 test	 eax, eax
  00033	74 0c		 je	 SHORT $L93774
  00035	8b 45 f8	 mov	 eax, DWORD PTR _this$[ebp]
  00038	50		 push	 eax
  00039	e8 00 00 00 00	 call	 ??3@YAXPAX@Z		; operator delete
  0003e	83 c4 04	 add	 esp, 4
$L93774:
  00041	8b 45 f8	 mov	 eax, DWORD PTR _this$[ebp]
  00044	5f		 pop	 edi
  00045	5e		 pop	 esi
  00046	5b		 pop	 ebx
  00047	81 c4 cc 00 00
	00		 add	 esp, 204		; 000000ccH
  0004d	3b ec		 cmp	 ebp, esp
  0004f	e8 00 00 00 00	 call	 __RTC_CheckEsp
  00054	8b e5		 mov	 esp, ebp
  00056	5d		 pop	 ebp
  00057	c2 04 00	 ret	 4
??_GCBoundingBox@@QAEPAXI@Z ENDP			; CBoundingBox::`scalar deleting destructor'
_TEXT	ENDS
PUBLIC	?ProcessPhysicsFromFlightControls@CFighter@@QAEXPAUFLIGHT_CONTROLS@@MPAVCTerrain@@HPAVCRace@@PAUIDirect3DDevice8@@MPAM@Z ; CFighter::ProcessPhysicsFromFlightControls
PUBLIC	?LaunchProjectile@CFighter@@QAEXPAUIDirect3DDevice8@@MMHPAVCRace@@@Z ; CFighter::LaunchProjectile
PUBLIC	?DetectAndHandleTerrainCollision@CFighter@@QAEHPAUD3DXVECTOR4@@PAVCTerrain@@PAVCRace@@@Z ; CFighter::DetectAndHandleTerrainCollision
PUBLIC	__real@3f400000
PUBLIC	__real@3e800000
PUBLIC	__real@42700000
PUBLIC	__real@3ba3d70a
PUBLIC	__real@00000000
PUBLIC	?D3DXVec3Length@@YAMPBUD3DXVECTOR3@@@Z		; D3DXVec3Length
PUBLIC	__real@3c23d70a
PUBLIC	__real@3f4ccccd
PUBLIC	__real@42f00000
PUBLIC	__real@42200000
PUBLIC	__real@41f00000
PUBLIC	??YD3DXVECTOR3@@QAEAAU0@ABU0@@Z			; D3DXVECTOR3::operator+=
PUBLIC	??XD3DXVECTOR3@@QAEAAU0@M@Z			; D3DXVECTOR3::operator*=
PUBLIC	??DD3DXVECTOR3@@QBE?AU0@M@Z			; D3DXVECTOR3::operator*
PUBLIC	??D@YA?AUD3DXVECTOR3@@MABU0@@Z			; operator*
PUBLIC	??0D3DXVECTOR4@@QAE@XZ				; D3DXVECTOR4::D3DXVECTOR4
EXTRN	?WorldSetMatrix@CFileRenderObject@@QAEXPAUD3DXMATRIX@@M@Z:NEAR ; CFileRenderObject::WorldSetMatrix
EXTRN	_D3DXVec3Normalize@8:NEAR
EXTRN	_D3DXVec3Transform@12:NEAR
EXTRN	_D3DXMatrixMultiply@12:NEAR
EXTRN	_D3DXMatrixTranslation@16:NEAR
EXTRN	_D3DXMatrixRotationYawPitchRoll@16:NEAR
;	COMDAT __real@3f400000
CONST	SEGMENT
__real@3f400000 DD 03f400000r			; 0.75
CONST	ENDS
;	COMDAT __real@3e800000
CONST	SEGMENT
__real@3e800000 DD 03e800000r			; 0.25
CONST	ENDS
;	COMDAT __real@42700000
CONST	SEGMENT
__real@42700000 DD 042700000r			; 60
CONST	ENDS
;	COMDAT __real@3ba3d70a
CONST	SEGMENT
__real@3ba3d70a DD 03ba3d70ar			; 0.005
CONST	ENDS
;	COMDAT __real@00000000
CONST	SEGMENT
__real@00000000 DD 000000000r			; 0
CONST	ENDS
;	COMDAT __real@3c23d70a
CONST	SEGMENT
__real@3c23d70a DD 03c23d70ar			; 0.01
CONST	ENDS
;	COMDAT __real@3f4ccccd
CONST	SEGMENT
__real@3f4ccccd DD 03f4ccccdr			; 0.8
CONST	ENDS
;	COMDAT __real@42f00000
CONST	SEGMENT
__real@42f00000 DD 042f00000r			; 120
CONST	ENDS
;	COMDAT __real@42200000
CONST	SEGMENT
__real@42200000 DD 042200000r			; 40
CONST	ENDS
;	COMDAT __real@41f00000
CONST	SEGMENT
__real@41f00000 DD 041f00000r			; 30
; Function compile flags: /Odt /RTCsu /ZI
CONST	ENDS
;	COMDAT ?ProcessPhysicsFromFlightControls@CFighter@@QAEXPAUFLIGHT_CONTROLS@@MPAVCTerrain@@HPAVCRace@@PAUIDirect3DDevice8@@MPAM@Z
_TEXT	SEGMENT
$T94595 = -1268
$T94594 = -1248
$T94593 = -1228
$T94592 = -1208
$T94591 = -1188
$T94590 = -1168
$T94589 = -1148
$T94588 = -1128
$T94587 = -1108
_i$93857 = -896
_fUnrollSpeed$93855 = -884
_fUnrollSpeed$93852 = -872
_vTerrainForce$ = -860
_matTransDelta$ = -840
_vTestBBVerts$ = -768
_fEffectiveMaxThrustMag$ = -632
_fEffectiveSteeringSensitivity$ = -620
_fManualRollDelta$ = -608
_fAutoRollDelta$ = -596
_fYawDelta$ = -584
_fPitchDelta$ = -572
_fRollMod$ = -560
_fYawMod$ = -548
_fPitchMod$ = -536
_fMovementMod$ = -524
_matTestRot$ = -512
_matTestTrans$ = -440
_vTestPosition$ = -368
_vTestOrientation$ = -348
_fTestStrafeThrustMag$ = -328
_fTestThrustMag$ = -316
_fTestRoll$ = -304
_fTestYaw$ = -292
_fTestPitch$ = -280
_v$ = -268
_vDelta$ = -244
_matRes$ = -224
_m1$ = -152
_m0$ = -80
_this$ = -8
_pFC$ = 8
_fFPS$ = 12
_pTerrain$ = 16
_bAcceptInput$ = 20
_pRace$ = 24
_pDev$ = 28
_fElapsedTime$ = 32
_pfYawDelta$ = 36
?ProcessPhysicsFromFlightControls@CFighter@@QAEXPAUFLIGHT_CONTROLS@@MPAVCTerrain@@HPAVCRace@@PAUIDirect3DDevice8@@MPAM@Z PROC NEAR ; CFighter::ProcessPhysicsFromFlightControls, COMDAT
; _this$ = ecx

; 186  : 	{

  00000	55		 push	 ebp
  00001	8b ec		 mov	 ebp, esp
  00003	81 ec f8 04 00
	00		 sub	 esp, 1272		; 000004f8H
  00009	53		 push	 ebx
  0000a	56		 push	 esi
  0000b	57		 push	 edi
  0000c	51		 push	 ecx
  0000d	8d bd 08 fb ff
	ff		 lea	 edi, DWORD PTR [ebp-1272]
  00013	b9 3e 01 00 00	 mov	 ecx, 318		; 0000013eH
  00018	b8 cc cc cc cc	 mov	 eax, -858993460		; ccccccccH
  0001d	f3 ab		 rep stosd
  0001f	59		 pop	 ecx
  00020	89 4d f8	 mov	 DWORD PTR _this$[ebp], ecx

; 187  : 		xMat		m0, m1, matRes ;

  00023	8d 4d b0	 lea	 ecx, DWORD PTR _m0$[ebp]
  00026	e8 00 00 00 00	 call	 ??0D3DXMATRIX@@QAE@XZ	; D3DXMATRIX::D3DXMATRIX
  0002b	8d 8d 68 ff ff
	ff		 lea	 ecx, DWORD PTR _m1$[ebp]
  00031	e8 00 00 00 00	 call	 ??0D3DXMATRIX@@QAE@XZ	; D3DXMATRIX::D3DXMATRIX
  00036	8d 8d 20 ff ff
	ff		 lea	 ecx, DWORD PTR _matRes$[ebp]
  0003c	e8 00 00 00 00	 call	 ??0D3DXMATRIX@@QAE@XZ	; D3DXMATRIX::D3DXMATRIX

; 188  : 		xVec3		vDelta ;

  00041	8d 8d 0c ff ff
	ff		 lea	 ecx, DWORD PTR _vDelta$[ebp]
  00047	e8 00 00 00 00	 call	 ??0D3DXVECTOR3@@QAE@XZ	; D3DXVECTOR3::D3DXVECTOR3

; 189  : 		xVec4		v ;

  0004c	8d 8d f4 fe ff
	ff		 lea	 ecx, DWORD PTR _v$[ebp]
  00052	e8 00 00 00 00	 call	 ??0D3DXVECTOR4@@QAE@XZ	; D3DXVECTOR4::D3DXVECTOR4

; 190  : 		float		fTestPitch = m_fPitch,

  00057	8b 45 f8	 mov	 eax, DWORD PTR _this$[ebp]
  0005a	8b 88 18 02 00
	00		 mov	 ecx, DWORD PTR [eax+536]
  00060	89 8d e8 fe ff
	ff		 mov	 DWORD PTR _fTestPitch$[ebp], ecx

; 191  : 					fTestYaw = m_fYaw,

  00066	8b 45 f8	 mov	 eax, DWORD PTR _this$[ebp]
  00069	8b 88 1c 02 00
	00		 mov	 ecx, DWORD PTR [eax+540]
  0006f	89 8d dc fe ff
	ff		 mov	 DWORD PTR _fTestYaw$[ebp], ecx

; 192  : 					fTestRoll = m_fRoll,

  00075	8b 45 f8	 mov	 eax, DWORD PTR _this$[ebp]
  00078	8b 88 20 02 00
	00		 mov	 ecx, DWORD PTR [eax+544]
  0007e	89 8d d0 fe ff
	ff		 mov	 DWORD PTR _fTestRoll$[ebp], ecx

; 193  : 					fTestThrustMag = m_fThrustMag,

  00084	8b 45 f8	 mov	 eax, DWORD PTR _this$[ebp]
  00087	8b 88 ac 01 00
	00		 mov	 ecx, DWORD PTR [eax+428]
  0008d	89 8d c4 fe ff
	ff		 mov	 DWORD PTR _fTestThrustMag$[ebp], ecx

; 194  : 					fTestStrafeThrustMag = m_fStrafeThrustMag ;

  00093	8b 45 f8	 mov	 eax, DWORD PTR _this$[ebp]
  00096	8b 88 b0 01 00
	00		 mov	 ecx, DWORD PTR [eax+432]
  0009c	89 8d b8 fe ff
	ff		 mov	 DWORD PTR _fTestStrafeThrustMag$[ebp], ecx

; 195  : 		xVec3		vTestOrientation = m_vOrientation ;

  000a2	8b 45 f8	 mov	 eax, DWORD PTR _this$[ebp]
  000a5	05 c0 01 00 00	 add	 eax, 448		; 000001c0H
  000aa	8b 08		 mov	 ecx, DWORD PTR [eax]
  000ac	89 8d a4 fe ff
	ff		 mov	 DWORD PTR _vTestOrientation$[ebp], ecx
  000b2	8b 50 04	 mov	 edx, DWORD PTR [eax+4]
  000b5	89 95 a8 fe ff
	ff		 mov	 DWORD PTR _vTestOrientation$[ebp+4], edx
  000bb	8b 40 08	 mov	 eax, DWORD PTR [eax+8]
  000be	89 85 ac fe ff
	ff		 mov	 DWORD PTR _vTestOrientation$[ebp+8], eax

; 196  : 		xVec3		vTestPosition = m_vPosition ;

  000c4	8b 45 f8	 mov	 eax, DWORD PTR _this$[ebp]
  000c7	05 fc 01 00 00	 add	 eax, 508		; 000001fcH
  000cc	8b 08		 mov	 ecx, DWORD PTR [eax]
  000ce	89 8d 90 fe ff
	ff		 mov	 DWORD PTR _vTestPosition$[ebp], ecx
  000d4	8b 50 04	 mov	 edx, DWORD PTR [eax+4]
  000d7	89 95 94 fe ff
	ff		 mov	 DWORD PTR _vTestPosition$[ebp+4], edx
  000dd	8b 40 08	 mov	 eax, DWORD PTR [eax+8]
  000e0	89 85 98 fe ff
	ff		 mov	 DWORD PTR _vTestPosition$[ebp+8], eax

; 197  : 		xMat		matTestTrans = m_matTrans ;

  000e6	8b 75 f8	 mov	 esi, DWORD PTR _this$[ebp]
  000e9	81 c6 24 02 00
	00		 add	 esi, 548		; 00000224H
  000ef	b9 10 00 00 00	 mov	 ecx, 16			; 00000010H
  000f4	8d bd 48 fe ff
	ff		 lea	 edi, DWORD PTR _matTestTrans$[ebp]
  000fa	f3 a5		 rep movsd

; 198  : 		xMat		matTestRot = m_matRot ;

  000fc	8b 75 f8	 mov	 esi, DWORD PTR _this$[ebp]
  000ff	81 c6 64 02 00
	00		 add	 esi, 612		; 00000264H
  00105	b9 10 00 00 00	 mov	 ecx, 16			; 00000010H
  0010a	8d bd 00 fe ff
	ff		 lea	 edi, DWORD PTR _matTestRot$[ebp]
  00110	f3 a5		 rep movsd

; 199  : 		float		fMovementMod = /*1*/ 0.25f + m_fEngineLevel * 0.75f ;

  00112	8b 45 f8	 mov	 eax, DWORD PTR _this$[ebp]
  00115	d9 80 10 03 00
	00		 fld	 DWORD PTR [eax+784]
  0011b	d8 0d 00 00 00
	00		 fmul	 DWORD PTR __real@3f400000
  00121	d8 05 00 00 00
	00		 fadd	 DWORD PTR __real@3e800000
  00127	d9 9d f4 fd ff
	ff		 fstp	 DWORD PTR _fMovementMod$[ebp]

; 200  : 		float		fPitchMod = 0,

  0012d	c7 85 e8 fd ff
	ff 00 00 00 00	 mov	 DWORD PTR _fPitchMod$[ebp], 0

; 201  : 					fYawMod = 0,

  00137	c7 85 dc fd ff
	ff 00 00 00 00	 mov	 DWORD PTR _fYawMod$[ebp], 0

; 202  : 					fRollMod = 0 ;

  00141	c7 85 d0 fd ff
	ff 00 00 00 00	 mov	 DWORD PTR _fRollMod$[ebp], 0

; 203  : 		float		fPitchDelta = 0,

  0014b	c7 85 c4 fd ff
	ff 00 00 00 00	 mov	 DWORD PTR _fPitchDelta$[ebp], 0

; 204  : 					fYawDelta = 0,

  00155	c7 85 b8 fd ff
	ff 00 00 00 00	 mov	 DWORD PTR _fYawDelta$[ebp], 0

; 205  : 					fAutoRollDelta = 0,

  0015f	c7 85 ac fd ff
	ff 00 00 00 00	 mov	 DWORD PTR _fAutoRollDelta$[ebp], 0

; 206  : 					fManualRollDelta = 0 ;

  00169	c7 85 a0 fd ff
	ff 00 00 00 00	 mov	 DWORD PTR _fManualRollDelta$[ebp], 0

; 207  : 		float		fEffectiveSteeringSensitivity = m_fSteeringSensitivity ;

  00173	8b 45 f8	 mov	 eax, DWORD PTR _this$[ebp]
  00176	8b 88 b8 01 00
	00		 mov	 ecx, DWORD PTR [eax+440]
  0017c	89 8d 94 fd ff
	ff		 mov	 DWORD PTR _fEffectiveSteeringSensitivity$[ebp], ecx

; 208  : 		float		fEffectiveMaxThrustMag = m_fMaxThrustMag * fMovementMod ;

  00182	8b 45 f8	 mov	 eax, DWORD PTR _this$[ebp]
  00185	d9 85 f4 fd ff
	ff		 fld	 DWORD PTR _fMovementMod$[ebp]
  0018b	d8 88 b4 01 00
	00		 fmul	 DWORD PTR [eax+436]
  00191	d9 9d 88 fd ff
	ff		 fstp	 DWORD PTR _fEffectiveMaxThrustMag$[ebp]

; 209  : 		xVec4		vTestBBVerts[ 8 ];

  00197	68 00 00 00 00	 push	 OFFSET FLAT:??0D3DXVECTOR4@@QAE@XZ ; D3DXVECTOR4::D3DXVECTOR4
  0019c	6a 08		 push	 8
  0019e	6a 10		 push	 16			; 00000010H
  001a0	8d 85 00 fd ff
	ff		 lea	 eax, DWORD PTR _vTestBBVerts$[ebp]
  001a6	50		 push	 eax
  001a7	e8 00 00 00 00	 call	 ??_H@YGXPAXIHP6EPAX0@Z@Z

; 210  : 		xMat		matTransDelta ;

  001ac	8d 8d b8 fc ff
	ff		 lea	 ecx, DWORD PTR _matTransDelta$[ebp]
  001b2	e8 00 00 00 00	 call	 ??0D3DXMATRIX@@QAE@XZ	; D3DXMATRIX::D3DXMATRIX

; 211  : 
; 212  : 		m_matLastTransDelta = g_matIdent ;

  001b7	8b 7d f8	 mov	 edi, DWORD PTR _this$[ebp]
  001ba	81 c7 a4 02 00
	00		 add	 edi, 676		; 000002a4H
  001c0	b9 10 00 00 00	 mov	 ecx, 16			; 00000010H
  001c5	be 00 00 00 00	 mov	 esi, OFFSET FLAT:?g_matIdent@@3UD3DXMATRIX@@A ; g_matIdent
  001ca	f3 a5		 rep movsd

; 213  : 
; 214  : 	//
; 215  : 	// (FLIGHT_CONTROLS) Update thrust mag: (friction & input)
; 216  : 	//
; 217  : 		if( bAcceptInput )

  001cc	83 7d 14 00	 cmp	 DWORD PTR _bAcceptInput$[ebp], 0
  001d0	0f 84 e1 00 00
	00		 je	 $L93813

; 218  : 		{
; 219  : 			fTestThrustMag *= 1.0f - (0.005f * (60.0f / fFPS)) ;

  001d6	d9 05 00 00 00
	00		 fld	 DWORD PTR __real@42700000
  001dc	d8 75 0c	 fdiv	 DWORD PTR _fFPS$[ebp]
  001df	d8 0d 00 00 00
	00		 fmul	 DWORD PTR __real@3ba3d70a
  001e5	d8 2d 00 00 00
	00		 fsubr	 DWORD PTR __real@3f800000
  001eb	d8 8d c4 fe ff
	ff		 fmul	 DWORD PTR _fTestThrustMag$[ebp]
  001f1	d9 9d c4 fe ff
	ff		 fstp	 DWORD PTR _fTestThrustMag$[ebp]

; 220  : 			if( pFC->fAccelerate != 0 )

  001f7	8b 45 08	 mov	 eax, DWORD PTR _pFC$[ebp]
  001fa	d9 00		 fld	 DWORD PTR [eax]
  001fc	d8 1d 00 00 00
	00		 fcomp	 DWORD PTR __real@00000000
  00202	df e0		 fnstsw	 ax
  00204	f6 c4 44	 test	 ah, 68			; 00000044H
  00207	7b 4a		 jnp	 SHORT $L93814

; 221  : 			{
; 222  : 				fTestThrustMag += pFC->fAccelerate * m_fThrustDelta * (1.0f / fFPS) ;

  00209	8b 45 08	 mov	 eax, DWORD PTR _pFC$[ebp]
  0020c	8b 4d f8	 mov	 ecx, DWORD PTR _this$[ebp]
  0020f	d9 00		 fld	 DWORD PTR [eax]
  00211	d8 89 a8 01 00
	00		 fmul	 DWORD PTR [ecx+424]
  00217	d9 05 00 00 00
	00		 fld	 DWORD PTR __real@3f800000
  0021d	d8 75 0c	 fdiv	 DWORD PTR _fFPS$[ebp]
  00220	de c9		 fmulp	 ST(1), ST(0)
  00222	d8 85 c4 fe ff
	ff		 fadd	 DWORD PTR _fTestThrustMag$[ebp]
  00228	d9 9d c4 fe ff
	ff		 fstp	 DWORD PTR _fTestThrustMag$[ebp]

; 223  : 				if (fTestThrustMag > +m_fMaxThrustMag/*fEffectiveMaxThrustMag*/)

  0022e	8b 45 f8	 mov	 eax, DWORD PTR _this$[ebp]
  00231	d9 85 c4 fe ff
	ff		 fld	 DWORD PTR _fTestThrustMag$[ebp]
  00237	d8 98 b4 01 00
	00		 fcomp	 DWORD PTR [eax+436]
  0023d	df e0		 fnstsw	 ax
  0023f	f6 c4 41	 test	 ah, 65			; 00000041H
  00242	75 0f		 jne	 SHORT $L93814

; 224  : 					fTestThrustMag = +m_fMaxThrustMag/*fEffectiveMaxThrustMag*/ ;

  00244	8b 45 f8	 mov	 eax, DWORD PTR _this$[ebp]
  00247	8b 88 b4 01 00
	00		 mov	 ecx, DWORD PTR [eax+436]
  0024d	89 8d c4 fe ff
	ff		 mov	 DWORD PTR _fTestThrustMag$[ebp], ecx
$L93814:

; 225  : 			}
; 226  : 			if( pFC->fBrake != 0 )

  00253	8b 45 08	 mov	 eax, DWORD PTR _pFC$[ebp]
  00256	d9 40 04	 fld	 DWORD PTR [eax+4]
  00259	d8 1d 00 00 00
	00		 fcomp	 DWORD PTR __real@00000000
  0025f	df e0		 fnstsw	 ax
  00261	f6 c4 44	 test	 ah, 68			; 00000044H
  00264	7b 51		 jnp	 SHORT $L93813

; 227  : 			{
; 228  : 				fTestThrustMag -= pFC->fBrake * m_fThrustDelta * (1.0f / fFPS) * 2.0f ;

  00266	8b 45 08	 mov	 eax, DWORD PTR _pFC$[ebp]
  00269	8b 4d f8	 mov	 ecx, DWORD PTR _this$[ebp]
  0026c	d9 40 04	 fld	 DWORD PTR [eax+4]
  0026f	d8 89 a8 01 00
	00		 fmul	 DWORD PTR [ecx+424]
  00275	d9 05 00 00 00
	00		 fld	 DWORD PTR __real@3f800000
  0027b	d8 75 0c	 fdiv	 DWORD PTR _fFPS$[ebp]
  0027e	de c9		 fmulp	 ST(1), ST(0)
  00280	dc c0		 fadd	 ST(0), ST(0)
  00282	d8 ad c4 fe ff
	ff		 fsubr	 DWORD PTR _fTestThrustMag$[ebp]
  00288	d9 9d c4 fe ff
	ff		 fstp	 DWORD PTR _fTestThrustMag$[ebp]

; 229  : 				if (fTestThrustMag < -m_fMaxThrustMag/*-fEffectiveMaxThrustMag*/)

  0028e	8b 45 f8	 mov	 eax, DWORD PTR _this$[ebp]
  00291	d9 80 b4 01 00
	00		 fld	 DWORD PTR [eax+436]
  00297	d9 e0		 fchs
  00299	d8 9d c4 fe ff
	ff		 fcomp	 DWORD PTR _fTestThrustMag$[ebp]
  0029f	df e0		 fnstsw	 ax
  002a1	f6 c4 41	 test	 ah, 65			; 00000041H
  002a4	75 11		 jne	 SHORT $L93813

; 230  : 					fTestThrustMag = -m_fMaxThrustMag/*-fEffectiveMaxThrustMag*/ ;

  002a6	8b 45 f8	 mov	 eax, DWORD PTR _this$[ebp]
  002a9	d9 80 b4 01 00
	00		 fld	 DWORD PTR [eax+436]
  002af	d9 e0		 fchs
  002b1	d9 9d c4 fe ff
	ff		 fstp	 DWORD PTR _fTestThrustMag$[ebp]
$L93813:

; 231  : 			}
; 232  : 		}
; 233  : 
; 234  : 	//
; 235  : 	// (FLIGHT_CONTROLS) Update strafe thrust mag: (friction & input)
; 236  : 	//
; 237  : 		if( bAcceptInput )

  002b7	83 7d 14 00	 cmp	 DWORD PTR _bAcceptInput$[ebp], 0
  002bb	0f 84 65 01 00
	00		 je	 $L93818

; 238  : 		{
; 239  : 			fTestStrafeThrustMag *= 1.0f - (0.005f * (60.0f / fFPS)) ;

  002c1	d9 05 00 00 00
	00		 fld	 DWORD PTR __real@42700000
  002c7	d8 75 0c	 fdiv	 DWORD PTR _fFPS$[ebp]
  002ca	d8 0d 00 00 00
	00		 fmul	 DWORD PTR __real@3ba3d70a
  002d0	d8 2d 00 00 00
	00		 fsubr	 DWORD PTR __real@3f800000
  002d6	d8 8d b8 fe ff
	ff		 fmul	 DWORD PTR _fTestStrafeThrustMag$[ebp]
  002dc	d9 9d b8 fe ff
	ff		 fstp	 DWORD PTR _fTestStrafeThrustMag$[ebp]

; 240  : 			if( pFC->fStrafeLeft != 0)

  002e2	8b 45 08	 mov	 eax, DWORD PTR _pFC$[ebp]
  002e5	d9 40 20	 fld	 DWORD PTR [eax+32]
  002e8	d8 1d 00 00 00
	00		 fcomp	 DWORD PTR __real@00000000
  002ee	df e0		 fnstsw	 ax
  002f0	f6 c4 44	 test	 ah, 68			; 00000044H
  002f3	0f 8b 89 00 00
	00		 jnp	 $L93819

; 241  : 			{
; 242  : 				if( fTestStrafeThrustMag < 0 )

  002f9	d9 85 b8 fe ff
	ff		 fld	 DWORD PTR _fTestStrafeThrustMag$[ebp]
  002ff	d8 1d 00 00 00
	00		 fcomp	 DWORD PTR __real@00000000
  00305	df e0		 fnstsw	 ax
  00307	f6 c4 05	 test	 ah, 5
  0030a	7a 0a		 jp	 SHORT $L93820

; 243  : 					fTestStrafeThrustMag = 0 ;

  0030c	c7 85 b8 fe ff
	ff 00 00 00 00	 mov	 DWORD PTR _fTestStrafeThrustMag$[ebp], 0
$L93820:

; 244  : 				fTestStrafeThrustMag += pFC->fStrafeLeft * m_fThrustDelta * (1.0f / fFPS) ;

  00316	8b 45 08	 mov	 eax, DWORD PTR _pFC$[ebp]
  00319	8b 4d f8	 mov	 ecx, DWORD PTR _this$[ebp]
  0031c	d9 40 20	 fld	 DWORD PTR [eax+32]
  0031f	d8 89 a8 01 00
	00		 fmul	 DWORD PTR [ecx+424]
  00325	d9 05 00 00 00
	00		 fld	 DWORD PTR __real@3f800000
  0032b	d8 75 0c	 fdiv	 DWORD PTR _fFPS$[ebp]
  0032e	de c9		 fmulp	 ST(1), ST(0)
  00330	d8 85 b8 fe ff
	ff		 fadd	 DWORD PTR _fTestStrafeThrustMag$[ebp]
  00336	d9 9d b8 fe ff
	ff		 fstp	 DWORD PTR _fTestStrafeThrustMag$[ebp]

; 245  : 				if( fTestStrafeThrustMag > +m_fMaxThrustMag/*fEffectiveMaxThrustMag*/ )

  0033c	8b 45 f8	 mov	 eax, DWORD PTR _this$[ebp]
  0033f	d9 85 b8 fe ff
	ff		 fld	 DWORD PTR _fTestStrafeThrustMag$[ebp]
  00345	d8 98 b4 01 00
	00		 fcomp	 DWORD PTR [eax+436]
  0034b	df e0		 fnstsw	 ax
  0034d	f6 c4 41	 test	 ah, 65			; 00000041H
  00350	75 0f		 jne	 SHORT $L93821

; 246  : 					fTestStrafeThrustMag = +m_fMaxThrustMag/*fEffectiveMaxThrustMag*/ ;

  00352	8b 45 f8	 mov	 eax, DWORD PTR _this$[ebp]
  00355	8b 88 b4 01 00
	00		 mov	 ecx, DWORD PTR [eax+436]
  0035b	89 8d b8 fe ff
	ff		 mov	 DWORD PTR _fTestStrafeThrustMag$[ebp], ecx
$L93821:

; 247  : 
; 248  : 				fTestThrustMag *= 1.0f - (0.01f * (60.0f / fFPS)) ;

  00361	d9 05 00 00 00
	00		 fld	 DWORD PTR __real@42700000
  00367	d8 75 0c	 fdiv	 DWORD PTR _fFPS$[ebp]
  0036a	d8 0d 00 00 00
	00		 fmul	 DWORD PTR __real@3c23d70a
  00370	d8 2d 00 00 00
	00		 fsubr	 DWORD PTR __real@3f800000
  00376	d8 8d c4 fe ff
	ff		 fmul	 DWORD PTR _fTestThrustMag$[ebp]
  0037c	d9 9d c4 fe ff
	ff		 fstp	 DWORD PTR _fTestThrustMag$[ebp]
$L93819:

; 249  : 			}
; 250  : 			if( pFC->fStrafeRight != 0)

  00382	8b 45 08	 mov	 eax, DWORD PTR _pFC$[ebp]
  00385	d9 40 24	 fld	 DWORD PTR [eax+36]
  00388	d8 1d 00 00 00
	00		 fcomp	 DWORD PTR __real@00000000
  0038e	df e0		 fnstsw	 ax
  00390	f6 c4 44	 test	 ah, 68			; 00000044H
  00393	0f 8b 8d 00 00
	00		 jnp	 $L93818

; 251  : 			{
; 252  : 				if( fTestStrafeThrustMag > 0 )

  00399	d9 85 b8 fe ff
	ff		 fld	 DWORD PTR _fTestStrafeThrustMag$[ebp]
  0039f	d8 1d 00 00 00
	00		 fcomp	 DWORD PTR __real@00000000
  003a5	df e0		 fnstsw	 ax
  003a7	f6 c4 41	 test	 ah, 65			; 00000041H
  003aa	75 0a		 jne	 SHORT $L93823

; 253  : 					fTestStrafeThrustMag = 0 ;

  003ac	c7 85 b8 fe ff
	ff 00 00 00 00	 mov	 DWORD PTR _fTestStrafeThrustMag$[ebp], 0
$L93823:

; 254  : 				fTestStrafeThrustMag -= pFC->fStrafeRight * m_fThrustDelta * (1.0f / fFPS) ;

  003b6	8b 45 08	 mov	 eax, DWORD PTR _pFC$[ebp]
  003b9	8b 4d f8	 mov	 ecx, DWORD PTR _this$[ebp]
  003bc	d9 40 24	 fld	 DWORD PTR [eax+36]
  003bf	d8 89 a8 01 00
	00		 fmul	 DWORD PTR [ecx+424]
  003c5	d9 05 00 00 00
	00		 fld	 DWORD PTR __real@3f800000
  003cb	d8 75 0c	 fdiv	 DWORD PTR _fFPS$[ebp]
  003ce	de c9		 fmulp	 ST(1), ST(0)
  003d0	d8 ad b8 fe ff
	ff		 fsubr	 DWORD PTR _fTestStrafeThrustMag$[ebp]
  003d6	d9 9d b8 fe ff
	ff		 fstp	 DWORD PTR _fTestStrafeThrustMag$[ebp]

; 255  : 				if( fTestStrafeThrustMag < -m_fMaxThrustMag/*fEffectiveMaxThrustMag*/ )

  003dc	8b 45 f8	 mov	 eax, DWORD PTR _this$[ebp]
  003df	d9 80 b4 01 00
	00		 fld	 DWORD PTR [eax+436]
  003e5	d9 e0		 fchs
  003e7	d8 9d b8 fe ff
	ff		 fcomp	 DWORD PTR _fTestStrafeThrustMag$[ebp]
  003ed	df e0		 fnstsw	 ax
  003ef	f6 c4 41	 test	 ah, 65			; 00000041H
  003f2	75 11		 jne	 SHORT $L93824

; 256  : 					fTestStrafeThrustMag = -m_fMaxThrustMag/*fEffectiveMaxThrustMag*/ ;

  003f4	8b 45 f8	 mov	 eax, DWORD PTR _this$[ebp]
  003f7	d9 80 b4 01 00
	00		 fld	 DWORD PTR [eax+436]
  003fd	d9 e0		 fchs
  003ff	d9 9d b8 fe ff
	ff		 fstp	 DWORD PTR _fTestStrafeThrustMag$[ebp]
$L93824:

; 257  : 
; 258  : 				fTestThrustMag *= 1.0f - (0.01f * (60.0f / fFPS)) ;

  00405	d9 05 00 00 00
	00		 fld	 DWORD PTR __real@42700000
  0040b	d8 75 0c	 fdiv	 DWORD PTR _fFPS$[ebp]
  0040e	d8 0d 00 00 00
	00		 fmul	 DWORD PTR __real@3c23d70a
  00414	d8 2d 00 00 00
	00		 fsubr	 DWORD PTR __real@3f800000
  0041a	d8 8d c4 fe ff
	ff		 fmul	 DWORD PTR _fTestThrustMag$[ebp]
  00420	d9 9d c4 fe ff
	ff		 fstp	 DWORD PTR _fTestThrustMag$[ebp]
$L93818:

; 259  : 			}
; 260  : 		}
; 261  : 
; 262  : 	//
; 263  : 	// Update external force: (friction only)
; 264  : 	//
; 265  : 		m_vExternalForce *= 1.0f - (0.005f * (60.0f / fFPS)) ;

  00426	d9 05 00 00 00
	00		 fld	 DWORD PTR __real@42700000
  0042c	d8 75 0c	 fdiv	 DWORD PTR _fFPS$[ebp]
  0042f	d8 0d 00 00 00
	00		 fmul	 DWORD PTR __real@3ba3d70a
  00435	d8 2d 00 00 00
	00		 fsubr	 DWORD PTR __real@3f800000
  0043b	51		 push	 ecx
  0043c	d9 1c 24	 fstp	 DWORD PTR [esp]
  0043f	8b 4d f8	 mov	 ecx, DWORD PTR _this$[ebp]
  00442	81 c1 08 02 00
	00		 add	 ecx, 520		; 00000208H
  00448	e8 00 00 00 00	 call	 ??XD3DXVECTOR3@@QAEAAU0@M@Z ; D3DXVECTOR3::operator*=

; 266  : 
; 267  : 	//
; 268  : 	// Terrain Force:
; 269  : 	//
; 270  : 		xVec3 vTerrainForce( 0,0,0 );

  0044d	6a 00		 push	 0
  0044f	6a 00		 push	 0
  00451	6a 00		 push	 0
  00453	8d 8d a4 fc ff
	ff		 lea	 ecx, DWORD PTR _vTerrainForce$[ebp]
  00459	e8 00 00 00 00	 call	 ??0D3DXVECTOR3@@QAE@MMM@Z ; D3DXVECTOR3::D3DXVECTOR3

; 271  : 		
; 272  : 		//pFC->fDive = pFC->fClimb = 0 ;	// Dbg
; 273  : 		/*if( m_fMaxTerrainForce != 0 )
; 274  : 		{
; 275  : 			if( m_fDistanceToGround != -1 )
; 276  : 			{
; 277  : 				//if( m_fDistanceToGround > m_fTerrainForceBalanceAltitude * 2 )
; 278  : 					;
; 279  : 				//else
; 280  : 				{
; 281  : 				// grav
; 282  : 					//if( m_fDistanceToGround > m_fTerrainForceBalanceAltitude )
; 283  : 					{
; 284  : 						float i = m_fDistanceToGround / m_fTerrainForceBalanceAltitude * 2 ;
; 285  : 						if( i > 1 ) i=1 ;
; 286  : 						m_fTerrainForce -= m_fMaxTerrainForce * i * ( 1 / fFPS );
; 287  : 					}
; 288  : 					
; 289  : 				// antigrav
; 290  : 					//if( m_fDistanceToGround < m_fTerrainForceBalanceAltitude )
; 291  : 					{
; 292  : 						float i = 1 - ( m_fDistanceToGround / m_fTerrainForceBalanceAltitude );
; 293  : 						if( i < 0 ) i=0 ;
; 294  : 						m_fTerrainForce += m_fMaxTerrainForce * i * ( 1 / fFPS );
; 295  : 					}
; 296  : 
; 297  : 					vTerrainForce = xVec3( 0, m_fTerrainForce, 0 );
; 298  : 				}
; 299  : 			}
; 300  : 		}*/
; 301  : 
; 302  : 	//
; 303  : 	// Apply test movement vector, build trans. matrix:
; 304  : 	//
; 305  : 		vDelta =  fMovementMod * fTestThrustMag * m_vOrientation * (60 / fFPS) ;

  0045e	d9 05 00 00 00
	00		 fld	 DWORD PTR __real@42700000
  00464	d8 75 0c	 fdiv	 DWORD PTR _fFPS$[ebp]
  00467	51		 push	 ecx
  00468	d9 1c 24	 fstp	 DWORD PTR [esp]
  0046b	8d 85 98 fb ff
	ff		 lea	 eax, DWORD PTR $T94588[ebp]
  00471	50		 push	 eax
  00472	8b 4d f8	 mov	 ecx, DWORD PTR _this$[ebp]
  00475	81 c1 c0 01 00
	00		 add	 ecx, 448		; 000001c0H
  0047b	51		 push	 ecx
  0047c	d9 85 f4 fd ff
	ff		 fld	 DWORD PTR _fMovementMod$[ebp]
  00482	d8 8d c4 fe ff
	ff		 fmul	 DWORD PTR _fTestThrustMag$[ebp]
  00488	51		 push	 ecx
  00489	d9 1c 24	 fstp	 DWORD PTR [esp]
  0048c	8d 95 ac fb ff
	ff		 lea	 edx, DWORD PTR $T94587[ebp]
  00492	52		 push	 edx
  00493	e8 00 00 00 00	 call	 ??D@YA?AUD3DXVECTOR3@@MABU0@@Z ; operator*
  00498	83 c4 0c	 add	 esp, 12			; 0000000cH
  0049b	8b c8		 mov	 ecx, eax
  0049d	e8 00 00 00 00	 call	 ??DD3DXVECTOR3@@QBE?AU0@M@Z ; D3DXVECTOR3::operator*
  004a2	8b 08		 mov	 ecx, DWORD PTR [eax]
  004a4	89 8d 0c ff ff
	ff		 mov	 DWORD PTR _vDelta$[ebp], ecx
  004aa	8b 50 04	 mov	 edx, DWORD PTR [eax+4]
  004ad	89 95 10 ff ff
	ff		 mov	 DWORD PTR _vDelta$[ebp+4], edx
  004b3	8b 40 08	 mov	 eax, DWORD PTR [eax+8]
  004b6	89 85 14 ff ff
	ff		 mov	 DWORD PTR _vDelta$[ebp+8], eax

; 306  : 		vDelta += fMovementMod * fTestStrafeThrustMag * m_vLeft * (60 / fFPS) ;

  004bc	d9 05 00 00 00
	00		 fld	 DWORD PTR __real@42700000
  004c2	d8 75 0c	 fdiv	 DWORD PTR _fFPS$[ebp]
  004c5	51		 push	 ecx
  004c6	d9 1c 24	 fstp	 DWORD PTR [esp]
  004c9	8d 85 70 fb ff
	ff		 lea	 eax, DWORD PTR $T94590[ebp]
  004cf	50		 push	 eax
  004d0	8b 4d f8	 mov	 ecx, DWORD PTR _this$[ebp]
  004d3	81 c1 f0 01 00
	00		 add	 ecx, 496		; 000001f0H
  004d9	51		 push	 ecx
  004da	d9 85 f4 fd ff
	ff		 fld	 DWORD PTR _fMovementMod$[ebp]
  004e0	d8 8d b8 fe ff
	ff		 fmul	 DWORD PTR _fTestStrafeThrustMag$[ebp]
  004e6	51		 push	 ecx
  004e7	d9 1c 24	 fstp	 DWORD PTR [esp]
  004ea	8d 95 84 fb ff
	ff		 lea	 edx, DWORD PTR $T94589[ebp]
  004f0	52		 push	 edx
  004f1	e8 00 00 00 00	 call	 ??D@YA?AUD3DXVECTOR3@@MABU0@@Z ; operator*
  004f6	83 c4 0c	 add	 esp, 12			; 0000000cH
  004f9	8b c8		 mov	 ecx, eax
  004fb	e8 00 00 00 00	 call	 ??DD3DXVECTOR3@@QBE?AU0@M@Z ; D3DXVECTOR3::operator*
  00500	50		 push	 eax
  00501	8d 8d 0c ff ff
	ff		 lea	 ecx, DWORD PTR _vDelta$[ebp]
  00507	e8 00 00 00 00	 call	 ??YD3DXVECTOR3@@QAEAAU0@ABU0@@Z ; D3DXVECTOR3::operator+=

; 307  : 		vDelta += m_vExternalForce * (60 / fFPS) ;

  0050c	d9 05 00 00 00
	00		 fld	 DWORD PTR __real@42700000
  00512	d8 75 0c	 fdiv	 DWORD PTR _fFPS$[ebp]
  00515	51		 push	 ecx
  00516	d9 1c 24	 fstp	 DWORD PTR [esp]
  00519	8d 85 5c fb ff
	ff		 lea	 eax, DWORD PTR $T94591[ebp]
  0051f	50		 push	 eax
  00520	8b 4d f8	 mov	 ecx, DWORD PTR _this$[ebp]
  00523	81 c1 08 02 00
	00		 add	 ecx, 520		; 00000208H
  00529	e8 00 00 00 00	 call	 ??DD3DXVECTOR3@@QBE?AU0@M@Z ; D3DXVECTOR3::operator*
  0052e	50		 push	 eax
  0052f	8d 8d 0c ff ff
	ff		 lea	 ecx, DWORD PTR _vDelta$[ebp]
  00535	e8 00 00 00 00	 call	 ??YD3DXVECTOR3@@QAEAAU0@ABU0@@Z ; D3DXVECTOR3::operator+=

; 308  : 		vDelta += vTerrainForce * (60 / fFPS) ; 

  0053a	d9 05 00 00 00
	00		 fld	 DWORD PTR __real@42700000
  00540	d8 75 0c	 fdiv	 DWORD PTR _fFPS$[ebp]
  00543	51		 push	 ecx
  00544	d9 1c 24	 fstp	 DWORD PTR [esp]
  00547	8d 85 48 fb ff
	ff		 lea	 eax, DWORD PTR $T94592[ebp]
  0054d	50		 push	 eax
  0054e	8d 8d a4 fc ff
	ff		 lea	 ecx, DWORD PTR _vTerrainForce$[ebp]
  00554	e8 00 00 00 00	 call	 ??DD3DXVECTOR3@@QBE?AU0@M@Z ; D3DXVECTOR3::operator*
  00559	50		 push	 eax
  0055a	8d 8d 0c ff ff
	ff		 lea	 ecx, DWORD PTR _vDelta$[ebp]
  00560	e8 00 00 00 00	 call	 ??YD3DXVECTOR3@@QAEAAU0@ABU0@@Z ; D3DXVECTOR3::operator+=

; 309  : 		vTestPosition += vDelta ;

  00565	8d 85 0c ff ff
	ff		 lea	 eax, DWORD PTR _vDelta$[ebp]
  0056b	50		 push	 eax
  0056c	8d 8d 90 fe ff
	ff		 lea	 ecx, DWORD PTR _vTestPosition$[ebp]
  00572	e8 00 00 00 00	 call	 ??YD3DXVECTOR3@@QAEAAU0@ABU0@@Z ; D3DXVECTOR3::operator+=

; 310  : 		D3DXMatrixTranslation( &matTestTrans, vTestPosition.x, vTestPosition.y, vTestPosition.z );

  00577	8b 85 98 fe ff
	ff		 mov	 eax, DWORD PTR _vTestPosition$[ebp+8]
  0057d	50		 push	 eax
  0057e	8b 8d 94 fe ff
	ff		 mov	 ecx, DWORD PTR _vTestPosition$[ebp+4]
  00584	51		 push	 ecx
  00585	8b 95 90 fe ff
	ff		 mov	 edx, DWORD PTR _vTestPosition$[ebp]
  0058b	52		 push	 edx
  0058c	8d 85 48 fe ff
	ff		 lea	 eax, DWORD PTR _matTestTrans$[ebp]
  00592	50		 push	 eax
  00593	e8 00 00 00 00	 call	 _D3DXMatrixTranslation@16

; 311  : 		
; 312  : 	//
; 313  : 	// (FLIGHT_CONTROLS) Update pitch, yaw and roll:
; 314  : 	//
; 315  : 		if( bAcceptInput )

  00598	83 7d 14 00	 cmp	 DWORD PTR _bAcceptInput$[ebp], 0
  0059c	0f 84 37 04 00
	00		 je	 $L93832

; 316  : 		{
; 317  : 		// read FLIGHT_CONTROLS;
; 318  : 			if( pFC->fSteerLeft != 0 )		fYawMod -= pFC->fSteerLeft ;

  005a2	8b 45 08	 mov	 eax, DWORD PTR _pFC$[ebp]
  005a5	d9 40 08	 fld	 DWORD PTR [eax+8]
  005a8	d8 1d 00 00 00
	00		 fcomp	 DWORD PTR __real@00000000
  005ae	df e0		 fnstsw	 ax
  005b0	f6 c4 44	 test	 ah, 68			; 00000044H
  005b3	7b 12		 jnp	 SHORT $L93833
  005b5	8b 45 08	 mov	 eax, DWORD PTR _pFC$[ebp]
  005b8	d9 85 dc fd ff
	ff		 fld	 DWORD PTR _fYawMod$[ebp]
  005be	d8 60 08	 fsub	 DWORD PTR [eax+8]
  005c1	d9 9d dc fd ff
	ff		 fstp	 DWORD PTR _fYawMod$[ebp]
$L93833:

; 319  : 			if( pFC->fSteerRight != 0 )		fYawMod += pFC->fSteerRight ;

  005c7	8b 45 08	 mov	 eax, DWORD PTR _pFC$[ebp]
  005ca	d9 40 0c	 fld	 DWORD PTR [eax+12]
  005cd	d8 1d 00 00 00
	00		 fcomp	 DWORD PTR __real@00000000
  005d3	df e0		 fnstsw	 ax
  005d5	f6 c4 44	 test	 ah, 68			; 00000044H
  005d8	7b 12		 jnp	 SHORT $L93834
  005da	8b 45 08	 mov	 eax, DWORD PTR _pFC$[ebp]
  005dd	d9 85 dc fd ff
	ff		 fld	 DWORD PTR _fYawMod$[ebp]
  005e3	d8 40 0c	 fadd	 DWORD PTR [eax+12]
  005e6	d9 9d dc fd ff
	ff		 fstp	 DWORD PTR _fYawMod$[ebp]
$L93834:

; 320  : 
; 321  : 			if( pFC->fDive != 0 )			fPitchMod -= pFC->fDive ;

  005ec	8b 45 08	 mov	 eax, DWORD PTR _pFC$[ebp]
  005ef	d9 40 10	 fld	 DWORD PTR [eax+16]
  005f2	d8 1d 00 00 00
	00		 fcomp	 DWORD PTR __real@00000000
  005f8	df e0		 fnstsw	 ax
  005fa	f6 c4 44	 test	 ah, 68			; 00000044H
  005fd	7b 12		 jnp	 SHORT $L93835
  005ff	8b 45 08	 mov	 eax, DWORD PTR _pFC$[ebp]
  00602	d9 85 e8 fd ff
	ff		 fld	 DWORD PTR _fPitchMod$[ebp]
  00608	d8 60 10	 fsub	 DWORD PTR [eax+16]
  0060b	d9 9d e8 fd ff
	ff		 fstp	 DWORD PTR _fPitchMod$[ebp]
$L93835:

; 322  : 			if( pFC->fClimb != 0 )			fPitchMod += pFC->fClimb ;

  00611	8b 45 08	 mov	 eax, DWORD PTR _pFC$[ebp]
  00614	d9 40 14	 fld	 DWORD PTR [eax+20]
  00617	d8 1d 00 00 00
	00		 fcomp	 DWORD PTR __real@00000000
  0061d	df e0		 fnstsw	 ax
  0061f	f6 c4 44	 test	 ah, 68			; 00000044H
  00622	7b 12		 jnp	 SHORT $L93836
  00624	8b 45 08	 mov	 eax, DWORD PTR _pFC$[ebp]
  00627	d9 85 e8 fd ff
	ff		 fld	 DWORD PTR _fPitchMod$[ebp]
  0062d	d8 40 14	 fadd	 DWORD PTR [eax+20]
  00630	d9 9d e8 fd ff
	ff		 fstp	 DWORD PTR _fPitchMod$[ebp]
$L93836:

; 323  : 	
; 324  : 			if( pFC->fRollLeft != 0 )		fRollMod -= pFC->fRollLeft ;

  00636	8b 45 08	 mov	 eax, DWORD PTR _pFC$[ebp]
  00639	d9 40 18	 fld	 DWORD PTR [eax+24]
  0063c	d8 1d 00 00 00
	00		 fcomp	 DWORD PTR __real@00000000
  00642	df e0		 fnstsw	 ax
  00644	f6 c4 44	 test	 ah, 68			; 00000044H
  00647	7b 12		 jnp	 SHORT $L93837
  00649	8b 45 08	 mov	 eax, DWORD PTR _pFC$[ebp]
  0064c	d9 85 d0 fd ff
	ff		 fld	 DWORD PTR _fRollMod$[ebp]
  00652	d8 60 18	 fsub	 DWORD PTR [eax+24]
  00655	d9 9d d0 fd ff
	ff		 fstp	 DWORD PTR _fRollMod$[ebp]
$L93837:

; 325  : 			if( pFC->fRollRight != 0 )		fRollMod += pFC->fRollRight ;

  0065b	8b 45 08	 mov	 eax, DWORD PTR _pFC$[ebp]
  0065e	d9 40 1c	 fld	 DWORD PTR [eax+28]
  00661	d8 1d 00 00 00
	00		 fcomp	 DWORD PTR __real@00000000
  00667	df e0		 fnstsw	 ax
  00669	f6 c4 44	 test	 ah, 68			; 00000044H
  0066c	7b 12		 jnp	 SHORT $L93838
  0066e	8b 45 08	 mov	 eax, DWORD PTR _pFC$[ebp]
  00671	d9 85 d0 fd ff
	ff		 fld	 DWORD PTR _fRollMod$[ebp]
  00677	d8 40 1c	 fadd	 DWORD PTR [eax+28]
  0067a	d9 9d d0 fd ff
	ff		 fstp	 DWORD PTR _fRollMod$[ebp]
$L93838:

; 326  : 
; 327  : 			// Dropped the SHIFT / joystick rotate modifier for rolling, more realistic.
; 328  : 			//
; 329  : 			// This REALLY fucks up the bots FC_AlignWithTarget fn., so only allow
; 330  : 			// it for the user fighter.
; 331  : 			//
; 332  : 			if( /*pFC->bSteerAndRoll*/ m_bUserFighter )

  00680	8b 45 f8	 mov	 eax, DWORD PTR _this$[ebp]
  00683	83 b8 1c 03 00
	00 00		 cmp	 DWORD PTR [eax+796], 0
  0068a	74 4a		 je	 SHORT $L93839

; 333  : 			{
; 334  : 				if( pFC->fSteerLeft != 0 )  fRollMod -= pFC->fSteerLeft ;

  0068c	8b 45 08	 mov	 eax, DWORD PTR _pFC$[ebp]
  0068f	d9 40 08	 fld	 DWORD PTR [eax+8]
  00692	d8 1d 00 00 00
	00		 fcomp	 DWORD PTR __real@00000000
  00698	df e0		 fnstsw	 ax
  0069a	f6 c4 44	 test	 ah, 68			; 00000044H
  0069d	7b 12		 jnp	 SHORT $L93840
  0069f	8b 45 08	 mov	 eax, DWORD PTR _pFC$[ebp]
  006a2	d9 85 d0 fd ff
	ff		 fld	 DWORD PTR _fRollMod$[ebp]
  006a8	d8 60 08	 fsub	 DWORD PTR [eax+8]
  006ab	d9 9d d0 fd ff
	ff		 fstp	 DWORD PTR _fRollMod$[ebp]
$L93840:

; 335  : 				if( pFC->fSteerRight != 0 ) fRollMod += pFC->fSteerRight ;

  006b1	8b 45 08	 mov	 eax, DWORD PTR _pFC$[ebp]
  006b4	d9 40 0c	 fld	 DWORD PTR [eax+12]
  006b7	d8 1d 00 00 00
	00		 fcomp	 DWORD PTR __real@00000000
  006bd	df e0		 fnstsw	 ax
  006bf	f6 c4 44	 test	 ah, 68			; 00000044H
  006c2	7b 12		 jnp	 SHORT $L93839
  006c4	8b 45 08	 mov	 eax, DWORD PTR _pFC$[ebp]
  006c7	d9 85 d0 fd ff
	ff		 fld	 DWORD PTR _fRollMod$[ebp]
  006cd	d8 40 0c	 fadd	 DWORD PTR [eax+12]
  006d0	d9 9d d0 fd ff
	ff		 fstp	 DWORD PTR _fRollMod$[ebp]
$L93839:

; 336  : 			}
; 337  : 
; 338  : 		// allow quicker turning when manual roll is applied;
; 339  : 			if( fRollMod != 0 ) fEffectiveSteeringSensitivity *= 0.8f ;

  006d6	d9 85 d0 fd ff
	ff		 fld	 DWORD PTR _fRollMod$[ebp]
  006dc	d8 1d 00 00 00
	00		 fcomp	 DWORD PTR __real@00000000
  006e2	df e0		 fnstsw	 ax
  006e4	f6 c4 44	 test	 ah, 68			; 00000044H
  006e7	7b 12		 jnp	 SHORT $L93842
  006e9	d9 85 94 fd ff
	ff		 fld	 DWORD PTR _fEffectiveSteeringSensitivity$[ebp]
  006ef	d8 0d 00 00 00
	00		 fmul	 DWORD PTR __real@3f4ccccd
  006f5	d9 9d 94 fd ff
	ff		 fstp	 DWORD PTR _fEffectiveSteeringSensitivity$[ebp]
$L93842:

; 340  : 
; 341  : 		// *********** MAIN ROTATION DELTAS
; 342  : 		// derive deltas;
; 343  : 			fPitchDelta		= fMovementMod * (fPitchMod / (fEffectiveSteeringSensitivity * 120)) * (60 / fFPS) ;

  006fb	d9 85 94 fd ff
	ff		 fld	 DWORD PTR _fEffectiveSteeringSensitivity$[ebp]
  00701	d8 0d 00 00 00
	00		 fmul	 DWORD PTR __real@42f00000
  00707	d8 bd e8 fd ff
	ff		 fdivr	 DWORD PTR _fPitchMod$[ebp]
  0070d	d8 8d f4 fd ff
	ff		 fmul	 DWORD PTR _fMovementMod$[ebp]
  00713	d9 05 00 00 00
	00		 fld	 DWORD PTR __real@42700000
  00719	d8 75 0c	 fdiv	 DWORD PTR _fFPS$[ebp]
  0071c	de c9		 fmulp	 ST(1), ST(0)
  0071e	d9 9d c4 fd ff
	ff		 fstp	 DWORD PTR _fPitchDelta$[ebp]

; 344  : 			fYawDelta		= fMovementMod * (fYawMod	/ (fEffectiveSteeringSensitivity * 120)) * (60 / fFPS) ;

  00724	d9 85 94 fd ff
	ff		 fld	 DWORD PTR _fEffectiveSteeringSensitivity$[ebp]
  0072a	d8 0d 00 00 00
	00		 fmul	 DWORD PTR __real@42f00000
  00730	d8 bd dc fd ff
	ff		 fdivr	 DWORD PTR _fYawMod$[ebp]
  00736	d8 8d f4 fd ff
	ff		 fmul	 DWORD PTR _fMovementMod$[ebp]
  0073c	d9 05 00 00 00
	00		 fld	 DWORD PTR __real@42700000
  00742	d8 75 0c	 fdiv	 DWORD PTR _fFPS$[ebp]
  00745	de c9		 fmulp	 ST(1), ST(0)
  00747	d9 9d b8 fd ff
	ff		 fstp	 DWORD PTR _fYawDelta$[ebp]

; 345  : 			fAutoRollDelta 	= fMovementMod * (fYawMod	/ (2.0f							 * 30))  * (60 / fFPS) ;

  0074d	d9 85 dc fd ff
	ff		 fld	 DWORD PTR _fYawMod$[ebp]
  00753	d8 35 00 00 00
	00		 fdiv	 DWORD PTR __real@42700000
  00759	d8 8d f4 fd ff
	ff		 fmul	 DWORD PTR _fMovementMod$[ebp]
  0075f	d9 05 00 00 00
	00		 fld	 DWORD PTR __real@42700000
  00765	d8 75 0c	 fdiv	 DWORD PTR _fFPS$[ebp]
  00768	de c9		 fmulp	 ST(1), ST(0)
  0076a	d9 9d ac fd ff
	ff		 fstp	 DWORD PTR _fAutoRollDelta$[ebp]

; 346  : 			fManualRollDelta= fMovementMod * (fRollMod  / (m_fRollSensitivity			 * 40))	 * (60 / fFPS) ;

  00770	8b 45 f8	 mov	 eax, DWORD PTR _this$[ebp]
  00773	d9 80 bc 01 00
	00		 fld	 DWORD PTR [eax+444]
  00779	d8 0d 00 00 00
	00		 fmul	 DWORD PTR __real@42200000
  0077f	d8 bd d0 fd ff
	ff		 fdivr	 DWORD PTR _fRollMod$[ebp]
  00785	d8 8d f4 fd ff
	ff		 fmul	 DWORD PTR _fMovementMod$[ebp]
  0078b	d9 05 00 00 00
	00		 fld	 DWORD PTR __real@42700000
  00791	d8 75 0c	 fdiv	 DWORD PTR _fFPS$[ebp]
  00794	de c9		 fmulp	 ST(1), ST(0)
  00796	d9 9d a0 fd ff
	ff		 fstp	 DWORD PTR _fManualRollDelta$[ebp]

; 347  : 			
; 348  : 		// trap very large inputs; these cause problems;
; 349  : 			if( fPitchDelta > g_PI || fYawDelta > g_PI ) return ;

  0079c	d9 85 c4 fd ff
	ff		 fld	 DWORD PTR _fPitchDelta$[ebp]
  007a2	d8 1d 00 00 00
	00		 fcomp	 DWORD PTR _g_PI
  007a8	df e0		 fnstsw	 ax
  007aa	f6 c4 41	 test	 ah, 65			; 00000041H
  007ad	74 13		 je	 SHORT $L93844
  007af	d9 85 b8 fd ff
	ff		 fld	 DWORD PTR _fYawDelta$[ebp]
  007b5	d8 1d 00 00 00
	00		 fcomp	 DWORD PTR _g_PI
  007bb	df e0		 fnstsw	 ax
  007bd	f6 c4 41	 test	 ah, 65			; 00000041H
  007c0	75 05		 jne	 SHORT $L93843
$L93844:
  007c2	e9 a8 06 00 00	 jmp	 $L93785
$L93843:

; 350  : 			
; 351  : 		// apply pitch & yaw;
; 352  : 			fTestPitch  += fPitchDelta ;

  007c7	d9 85 e8 fe ff
	ff		 fld	 DWORD PTR _fTestPitch$[ebp]
  007cd	d8 85 c4 fd ff
	ff		 fadd	 DWORD PTR _fPitchDelta$[ebp]
  007d3	d9 9d e8 fe ff
	ff		 fstp	 DWORD PTR _fTestPitch$[ebp]

; 353  : 			fTestYaw	+= fYawDelta ;

  007d9	d9 85 dc fe ff
	ff		 fld	 DWORD PTR _fTestYaw$[ebp]
  007df	d8 85 b8 fd ff
	ff		 fadd	 DWORD PTR _fYawDelta$[ebp]
  007e5	d9 9d dc fe ff
	ff		 fstp	 DWORD PTR _fTestYaw$[ebp]

; 354  : 
; 355  : 		// apply ManualRoll value;
; 356  : 			fTestRoll += fManualRollDelta ;

  007eb	d9 85 d0 fe ff
	ff		 fld	 DWORD PTR _fTestRoll$[ebp]
  007f1	d8 85 a0 fd ff
	ff		 fadd	 DWORD PTR _fManualRollDelta$[ebp]
  007f7	d9 9d d0 fe ff
	ff		 fstp	 DWORD PTR _fTestRoll$[ebp]

; 357  : 
; 358  : 		// cap yaw, pitch & roll angles;
; 359  : 			if (fTestRoll > +g_PI * 2.0f) fTestRoll -= +g_PI * 2.0f ;

  007fd	d9 05 00 00 00
	00		 fld	 DWORD PTR _g_PI
  00803	dc c0		 fadd	 ST(0), ST(0)
  00805	d8 9d d0 fe ff
	ff		 fcomp	 DWORD PTR _fTestRoll$[ebp]
  0080b	df e0		 fnstsw	 ax
  0080d	f6 c4 05	 test	 ah, 5
  00810	7a 14		 jp	 SHORT $L93845
  00812	d9 05 00 00 00
	00		 fld	 DWORD PTR _g_PI
  00818	dc c0		 fadd	 ST(0), ST(0)
  0081a	d8 ad d0 fe ff
	ff		 fsubr	 DWORD PTR _fTestRoll$[ebp]
  00820	d9 9d d0 fe ff
	ff		 fstp	 DWORD PTR _fTestRoll$[ebp]
$L93845:

; 360  : 			if (fTestRoll < -g_PI * 2.0f) fTestRoll -= -g_PI * 2.0f ;

  00826	d9 05 00 00 00
	00		 fld	 DWORD PTR _g_PI
  0082c	d9 e0		 fchs
  0082e	dc c0		 fadd	 ST(0), ST(0)
  00830	d8 9d d0 fe ff
	ff		 fcomp	 DWORD PTR _fTestRoll$[ebp]
  00836	df e0		 fnstsw	 ax
  00838	f6 c4 41	 test	 ah, 65			; 00000041H
  0083b	75 16		 jne	 SHORT $L93846
  0083d	d9 05 00 00 00
	00		 fld	 DWORD PTR _g_PI
  00843	d9 e0		 fchs
  00845	dc c0		 fadd	 ST(0), ST(0)
  00847	d8 ad d0 fe ff
	ff		 fsubr	 DWORD PTR _fTestRoll$[ebp]
  0084d	d9 9d d0 fe ff
	ff		 fstp	 DWORD PTR _fTestRoll$[ebp]
$L93846:

; 361  : 			///float fMaxRoll = g_PI * 0.75f ;
; 362  : 			//if( fTestRoll > +fMaxRoll ) fTestRoll = +fMaxRoll ;
; 363  : 			//if( fTestRoll < -fMaxRoll ) fTestRoll = -fMaxRoll ;
; 364  : 
; 365  : 			if (fTestPitch > +g_PI * 2.0f) fTestPitch -= +g_PI * 2.0f ;

  00853	d9 05 00 00 00
	00		 fld	 DWORD PTR _g_PI
  00859	dc c0		 fadd	 ST(0), ST(0)
  0085b	d8 9d e8 fe ff
	ff		 fcomp	 DWORD PTR _fTestPitch$[ebp]
  00861	df e0		 fnstsw	 ax
  00863	f6 c4 05	 test	 ah, 5
  00866	7a 14		 jp	 SHORT $L93847
  00868	d9 05 00 00 00
	00		 fld	 DWORD PTR _g_PI
  0086e	dc c0		 fadd	 ST(0), ST(0)
  00870	d8 ad e8 fe ff
	ff		 fsubr	 DWORD PTR _fTestPitch$[ebp]
  00876	d9 9d e8 fe ff
	ff		 fstp	 DWORD PTR _fTestPitch$[ebp]
$L93847:

; 366  : 			if (fTestPitch < -g_PI * 2.0f) fTestPitch -= -g_PI * 2.0f ;

  0087c	d9 05 00 00 00
	00		 fld	 DWORD PTR _g_PI
  00882	d9 e0		 fchs
  00884	dc c0		 fadd	 ST(0), ST(0)
  00886	d8 9d e8 fe ff
	ff		 fcomp	 DWORD PTR _fTestPitch$[ebp]
  0088c	df e0		 fnstsw	 ax
  0088e	f6 c4 41	 test	 ah, 65			; 00000041H
  00891	75 16		 jne	 SHORT $L93848
  00893	d9 05 00 00 00
	00		 fld	 DWORD PTR _g_PI
  00899	d9 e0		 fchs
  0089b	dc c0		 fadd	 ST(0), ST(0)
  0089d	d8 ad e8 fe ff
	ff		 fsubr	 DWORD PTR _fTestPitch$[ebp]
  008a3	d9 9d e8 fe ff
	ff		 fstp	 DWORD PTR _fTestPitch$[ebp]
$L93848:

; 367  : 
; 368  : 			if (fTestYaw > +g_PI * 2.0f) fTestYaw -= +g_PI * 2.0f ;

  008a9	d9 05 00 00 00
	00		 fld	 DWORD PTR _g_PI
  008af	dc c0		 fadd	 ST(0), ST(0)
  008b1	d8 9d dc fe ff
	ff		 fcomp	 DWORD PTR _fTestYaw$[ebp]
  008b7	df e0		 fnstsw	 ax
  008b9	f6 c4 05	 test	 ah, 5
  008bc	7a 14		 jp	 SHORT $L93849
  008be	d9 05 00 00 00
	00		 fld	 DWORD PTR _g_PI
  008c4	dc c0		 fadd	 ST(0), ST(0)
  008c6	d8 ad dc fe ff
	ff		 fsubr	 DWORD PTR _fTestYaw$[ebp]
  008cc	d9 9d dc fe ff
	ff		 fstp	 DWORD PTR _fTestYaw$[ebp]
$L93849:

; 369  : 			if (fTestYaw < -g_PI * 2.0f) fTestYaw -= -g_PI * 2.0f ;

  008d2	d9 05 00 00 00
	00		 fld	 DWORD PTR _g_PI
  008d8	d9 e0		 fchs
  008da	dc c0		 fadd	 ST(0), ST(0)
  008dc	d8 9d dc fe ff
	ff		 fcomp	 DWORD PTR _fTestYaw$[ebp]
  008e2	df e0		 fnstsw	 ax
  008e4	f6 c4 41	 test	 ah, 65			; 00000041H
  008e7	75 16		 jne	 SHORT $L93850
  008e9	d9 05 00 00 00
	00		 fld	 DWORD PTR _g_PI
  008ef	d9 e0		 fchs
  008f1	dc c0		 fadd	 ST(0), ST(0)
  008f3	d8 ad dc fe ff
	ff		 fsubr	 DWORD PTR _fTestYaw$[ebp]
  008f9	d9 9d dc fe ff
	ff		 fstp	 DWORD PTR _fTestYaw$[ebp]
$L93850:

; 370  : 
; 371  : 		// apply AutoRoll;
; 372  : 			/*if( fTestRoll > -g_PI * 0.1f && fTestRoll < +g_PI * 0.1f )
; 373  : 			{
; 374  : 				fTestRoll += fAutoRollDelta ;
; 375  : 				//if( fTestRoll > +g_PI * 0.1f ) fTestRoll -= fAutoRollDelta ;
; 376  : 				//if( fTestRoll < -g_PI * 0.1f ) fTestRoll += fAutoRollDelta ;
; 377  : 			}*/
; 378  : 
; 379  : 		// unroll over time;
; 380  : 			//if( fAutoRollDelta == 0 )
; 381  : 			{
; 382  : 				if( fTestRoll > 0 )

  008ff	d9 85 d0 fe ff
	ff		 fld	 DWORD PTR _fTestRoll$[ebp]
  00905	d8 1d 00 00 00
	00		 fcomp	 DWORD PTR __real@00000000
  0090b	df e0		 fnstsw	 ax
  0090d	f6 c4 41	 test	 ah, 65			; 00000041H
  00910	75 5a		 jne	 SHORT $L93851

; 383  : 				{
; 384  : 					float fUnrollSpeed = 0.5f ;

  00912	c7 85 98 fc ff
	ff 00 00 00 3f	 mov	 DWORD PTR _fUnrollSpeed$93852[ebp], 1056964608 ; 3f000000H

; 385  : 					fTestRoll -= fMovementMod * 1.0f / (fUnrollSpeed * 2.0f * 30.0f) * (60.0f / fFPS) ;

  0091c	d9 85 f4 fd ff
	ff		 fld	 DWORD PTR _fMovementMod$[ebp]
  00922	d8 0d 00 00 00
	00		 fmul	 DWORD PTR __real@3f800000
  00928	d9 85 98 fc ff
	ff		 fld	 DWORD PTR _fUnrollSpeed$93852[ebp]
  0092e	dc c0		 fadd	 ST(0), ST(0)
  00930	d8 0d 00 00 00
	00		 fmul	 DWORD PTR __real@41f00000
  00936	de f9		 fdivp	 ST(1), ST(0)
  00938	d9 05 00 00 00
	00		 fld	 DWORD PTR __real@42700000
  0093e	d8 75 0c	 fdiv	 DWORD PTR _fFPS$[ebp]
  00941	de c9		 fmulp	 ST(1), ST(0)
  00943	d8 ad d0 fe ff
	ff		 fsubr	 DWORD PTR _fTestRoll$[ebp]
  00949	d9 9d d0 fe ff
	ff		 fstp	 DWORD PTR _fTestRoll$[ebp]

; 386  : 					if (fTestRoll < 0.0f) fTestRoll = 0 ;

  0094f	d9 85 d0 fe ff
	ff		 fld	 DWORD PTR _fTestRoll$[ebp]
  00955	d8 1d 00 00 00
	00		 fcomp	 DWORD PTR __real@00000000
  0095b	df e0		 fnstsw	 ax
  0095d	f6 c4 05	 test	 ah, 5
  00960	7a 0a		 jp	 SHORT $L93851
  00962	c7 85 d0 fe ff
	ff 00 00 00 00	 mov	 DWORD PTR _fTestRoll$[ebp], 0
$L93851:

; 387  : 				}
; 388  : 				if( fTestRoll < 0 )

  0096c	d9 85 d0 fe ff
	ff		 fld	 DWORD PTR _fTestRoll$[ebp]
  00972	d8 1d 00 00 00
	00		 fcomp	 DWORD PTR __real@00000000
  00978	df e0		 fnstsw	 ax
  0097a	f6 c4 05	 test	 ah, 5
  0097d	7a 5a		 jp	 SHORT $L93832

; 389  : 				{
; 390  : 					float fUnrollSpeed = 0.5f ;

  0097f	c7 85 8c fc ff
	ff 00 00 00 3f	 mov	 DWORD PTR _fUnrollSpeed$93855[ebp], 1056964608 ; 3f000000H

; 391  : 					fTestRoll += fMovementMod * 1.0f / (fUnrollSpeed * 2.0f * 30.0f) * (60.0f / fFPS) ;

  00989	d9 85 f4 fd ff
	ff		 fld	 DWORD PTR _fMovementMod$[ebp]
  0098f	d8 0d 00 00 00
	00		 fmul	 DWORD PTR __real@3f800000
  00995	d9 85 8c fc ff
	ff		 fld	 DWORD PTR _fUnrollSpeed$93855[ebp]
  0099b	dc c0		 fadd	 ST(0), ST(0)
  0099d	d8 0d 00 00 00
	00		 fmul	 DWORD PTR __real@41f00000
  009a3	de f9		 fdivp	 ST(1), ST(0)
  009a5	d9 05 00 00 00
	00		 fld	 DWORD PTR __real@42700000
  009ab	d8 75 0c	 fdiv	 DWORD PTR _fFPS$[ebp]
  009ae	de c9		 fmulp	 ST(1), ST(0)
  009b0	d8 85 d0 fe ff
	ff		 fadd	 DWORD PTR _fTestRoll$[ebp]
  009b6	d9 9d d0 fe ff
	ff		 fstp	 DWORD PTR _fTestRoll$[ebp]

; 392  : 					if (fTestRoll > 0.0f) fTestRoll = 0 ;

  009bc	d9 85 d0 fe ff
	ff		 fld	 DWORD PTR _fTestRoll$[ebp]
  009c2	d8 1d 00 00 00
	00		 fcomp	 DWORD PTR __real@00000000
  009c8	df e0		 fnstsw	 ax
  009ca	f6 c4 41	 test	 ah, 65			; 00000041H
  009cd	75 0a		 jne	 SHORT $L93832
  009cf	c7 85 d0 fe ff
	ff 00 00 00 00	 mov	 DWORD PTR _fTestRoll$[ebp], 0
$L93832:

; 393  : 				}
; 394  : 			}
; 395  : 		}
; 396  : 
; 397  : 	//
; 398  : 	// Build the correct world matrix (scale, rot. around origin, then translation):
; 399  : 	//
; 400  : 		matRes = g_matIdent ;

  009d9	b9 10 00 00 00	 mov	 ecx, 16			; 00000010H
  009de	be 00 00 00 00	 mov	 esi, OFFSET FLAT:?g_matIdent@@3UD3DXMATRIX@@A ; g_matIdent
  009e3	8d bd 20 ff ff
	ff		 lea	 edi, DWORD PTR _matRes$[ebp]
  009e9	f3 a5		 rep movsd

; 401  : 		D3DXMatrixRotationYawPitchRoll( &matTestRot, fTestYaw, fTestPitch, fTestRoll );

  009eb	8b 85 d0 fe ff
	ff		 mov	 eax, DWORD PTR _fTestRoll$[ebp]
  009f1	50		 push	 eax
  009f2	8b 8d e8 fe ff
	ff		 mov	 ecx, DWORD PTR _fTestPitch$[ebp]
  009f8	51		 push	 ecx
  009f9	8b 95 dc fe ff
	ff		 mov	 edx, DWORD PTR _fTestYaw$[ebp]
  009ff	52		 push	 edx
  00a00	8d 85 00 fe ff
	ff		 lea	 eax, DWORD PTR _matTestRot$[ebp]
  00a06	50		 push	 eax
  00a07	e8 00 00 00 00	 call	 _D3DXMatrixRotationYawPitchRoll@16

; 402  : #ifdef FULL_DBG_TRACE
; 403  : 	ods( "\t\tPPFC 1\n" );
; 404  : #endif
; 405  : 		D3DXMatrixMultiply( &matRes, &matRes, &m_pFRO->m_matScale );		

  00a0c	8b 45 f8	 mov	 eax, DWORD PTR _this$[ebp]
  00a0f	8b 48 2c	 mov	 ecx, DWORD PTR [eax+44]
  00a12	81 c1 8c 00 00
	00		 add	 ecx, 140		; 0000008cH
  00a18	51		 push	 ecx
  00a19	8d 95 20 ff ff
	ff		 lea	 edx, DWORD PTR _matRes$[ebp]
  00a1f	52		 push	 edx
  00a20	8d 85 20 ff ff
	ff		 lea	 eax, DWORD PTR _matRes$[ebp]
  00a26	50		 push	 eax
  00a27	e8 00 00 00 00	 call	 _D3DXMatrixMultiply@12

; 406  : 		//xMat _m1, _m2 ;
; 407  : 		//_m1 = matRes ; _m2 = m_pFRO->m_matScale ;
; 408  : 		//D3DXMatrixMultiply( &_m1, &_m1, &_m2 );
; 409  : 		//matRes = _m1 ;
; 410  : 
; 411  : #ifdef FULL_DBG_TRACE
; 412  : 	ods( "\t\tPPFC 2\n" );
; 413  : #endif
; 414  : 		D3DXMatrixMultiply( &matRes, &matRes, &matTestRot );

  00a2c	8d 85 00 fe ff
	ff		 lea	 eax, DWORD PTR _matTestRot$[ebp]
  00a32	50		 push	 eax
  00a33	8d 8d 20 ff ff
	ff		 lea	 ecx, DWORD PTR _matRes$[ebp]
  00a39	51		 push	 ecx
  00a3a	8d 95 20 ff ff
	ff		 lea	 edx, DWORD PTR _matRes$[ebp]
  00a40	52		 push	 edx
  00a41	e8 00 00 00 00	 call	 _D3DXMatrixMultiply@12

; 415  : #ifdef FULL_DBG_TRACE
; 416  : 	ods( "\t\tPPFC 3\n" );
; 417  : #endif
; 418  : 		D3DXMatrixMultiply( &matRes, &matRes, &matTestTrans );

  00a46	8d 85 48 fe ff
	ff		 lea	 eax, DWORD PTR _matTestTrans$[ebp]
  00a4c	50		 push	 eax
  00a4d	8d 8d 20 ff ff
	ff		 lea	 ecx, DWORD PTR _matRes$[ebp]
  00a53	51		 push	 ecx
  00a54	8d 95 20 ff ff
	ff		 lea	 edx, DWORD PTR _matRes$[ebp]
  00a5a	52		 push	 edx
  00a5b	e8 00 00 00 00	 call	 _D3DXMatrixMultiply@12

; 419  : #ifdef FULL_DBG_TRACE
; 420  : 	ods( "\t\tPPFC 4\n" );
; 421  : #endif
; 422  : 	// also build an *incremental* translation-only matrix;
; 423  : 		D3DXMatrixTranslation( &matTransDelta, vDelta.x, vDelta.y, vDelta.z );

  00a60	8b 85 14 ff ff
	ff		 mov	 eax, DWORD PTR _vDelta$[ebp+8]
  00a66	50		 push	 eax
  00a67	8b 8d 10 ff ff
	ff		 mov	 ecx, DWORD PTR _vDelta$[ebp+4]
  00a6d	51		 push	 ecx
  00a6e	8b 95 0c ff ff
	ff		 mov	 edx, DWORD PTR _vDelta$[ebp]
  00a74	52		 push	 edx
  00a75	8d 85 b8 fc ff
	ff		 lea	 eax, DWORD PTR _matTransDelta$[ebp]
  00a7b	50		 push	 eax
  00a7c	e8 00 00 00 00	 call	 _D3DXMatrixTranslation@16

; 424  : #ifdef FULL_DBG_TRACE
; 425  : 	ods( "\t\tPPFC 5\n" );
; 426  : #endif
; 427  : 
; 428  : 	//
; 429  : 	// Test the updated bounding volume for terrain collision:
; 430  : 	//
; 431  : 		for( int i = 0 ; i < 8 ; i++ )

  00a81	c7 85 80 fc ff
	ff 00 00 00 00	 mov	 DWORD PTR _i$93857[ebp], 0
  00a8b	eb 0f		 jmp	 SHORT $L93858
$L93859:
  00a8d	8b 85 80 fc ff
	ff		 mov	 eax, DWORD PTR _i$93857[ebp]
  00a93	83 c0 01	 add	 eax, 1
  00a96	89 85 80 fc ff
	ff		 mov	 DWORD PTR _i$93857[ebp], eax
$L93858:
  00a9c	83 bd 80 fc ff
	ff 08		 cmp	 DWORD PTR _i$93857[ebp], 8
  00aa3	7d 39		 jge	 SHORT $L93860

; 432  : 			D3DXVec3Transform( &vTestBBVerts[i], &m_pFRO->m_pBBox->m_vInitialVerts[i], &matRes );

  00aa5	8d 85 20 ff ff
	ff		 lea	 eax, DWORD PTR _matRes$[ebp]
  00aab	50		 push	 eax
  00aac	8b 4d f8	 mov	 ecx, DWORD PTR _this$[ebp]
  00aaf	8b 51 2c	 mov	 edx, DWORD PTR [ecx+44]
  00ab2	8b 42 08	 mov	 eax, DWORD PTR [edx+8]
  00ab5	8b 8d 80 fc ff
	ff		 mov	 ecx, DWORD PTR _i$93857[ebp]
  00abb	6b c9 0c	 imul	 ecx, 12			; 0000000cH
  00abe	8d 94 08 9c 00
	00 00		 lea	 edx, DWORD PTR [eax+ecx+156]
  00ac5	52		 push	 edx
  00ac6	8b 85 80 fc ff
	ff		 mov	 eax, DWORD PTR _i$93857[ebp]
  00acc	c1 e0 04	 shl	 eax, 4
  00acf	8d 8c 05 00 fd
	ff ff		 lea	 ecx, DWORD PTR _vTestBBVerts$[ebp+eax]
  00ad6	51		 push	 ecx
  00ad7	e8 00 00 00 00	 call	 _D3DXVec3Transform@12
  00adc	eb af		 jmp	 SHORT $L93859
$L93860:

; 433  : 		if( !DetectAndHandleTerrainCollision( vTestBBVerts, pTerrain, pRace ) )

  00ade	8b 45 18	 mov	 eax, DWORD PTR _pRace$[ebp]
  00ae1	50		 push	 eax
  00ae2	8b 4d 10	 mov	 ecx, DWORD PTR _pTerrain$[ebp]
  00ae5	51		 push	 ecx
  00ae6	8d 95 00 fd ff
	ff		 lea	 edx, DWORD PTR _vTestBBVerts$[ebp]
  00aec	52		 push	 edx
  00aed	8b 4d f8	 mov	 ecx, DWORD PTR _this$[ebp]
  00af0	e8 00 00 00 00	 call	 ?DetectAndHandleTerrainCollision@CFighter@@QAEHPAUD3DXVECTOR4@@PAVCTerrain@@PAVCRace@@@Z ; CFighter::DetectAndHandleTerrainCollision
  00af5	85 c0		 test	 eax, eax
  00af7	0f 85 8c 02 00
	00		 jne	 $L93861

; 434  : 		{
; 435  : 		// update globals
; 436  : 			m_fPitch = fTestPitch ;

  00afd	8b 45 f8	 mov	 eax, DWORD PTR _this$[ebp]
  00b00	8b 8d e8 fe ff
	ff		 mov	 ecx, DWORD PTR _fTestPitch$[ebp]
  00b06	89 88 18 02 00
	00		 mov	 DWORD PTR [eax+536], ecx

; 437  : 			m_fRoll = fTestRoll ;

  00b0c	8b 45 f8	 mov	 eax, DWORD PTR _this$[ebp]
  00b0f	8b 8d d0 fe ff
	ff		 mov	 ecx, DWORD PTR _fTestRoll$[ebp]
  00b15	89 88 20 02 00
	00		 mov	 DWORD PTR [eax+544], ecx

; 438  : 			m_fYaw = fTestYaw ;

  00b1b	8b 45 f8	 mov	 eax, DWORD PTR _this$[ebp]
  00b1e	8b 8d dc fe ff
	ff		 mov	 ecx, DWORD PTR _fTestYaw$[ebp]
  00b24	89 88 1c 02 00
	00		 mov	 DWORD PTR [eax+540], ecx

; 439  : 			m_fThrustMag = fTestThrustMag ;

  00b2a	8b 45 f8	 mov	 eax, DWORD PTR _this$[ebp]
  00b2d	8b 8d c4 fe ff
	ff		 mov	 ecx, DWORD PTR _fTestThrustMag$[ebp]
  00b33	89 88 ac 01 00
	00		 mov	 DWORD PTR [eax+428], ecx

; 440  : 			m_fStrafeThrustMag = fTestStrafeThrustMag ;

  00b39	8b 45 f8	 mov	 eax, DWORD PTR _this$[ebp]
  00b3c	8b 8d b8 fe ff
	ff		 mov	 ecx, DWORD PTR _fTestStrafeThrustMag$[ebp]
  00b42	89 88 b0 01 00
	00		 mov	 DWORD PTR [eax+432], ecx

; 441  : 			m_vPosition = vTestPosition ;

  00b48	8b 45 f8	 mov	 eax, DWORD PTR _this$[ebp]
  00b4b	05 fc 01 00 00	 add	 eax, 508		; 000001fcH
  00b50	8b 8d 90 fe ff
	ff		 mov	 ecx, DWORD PTR _vTestPosition$[ebp]
  00b56	89 08		 mov	 DWORD PTR [eax], ecx
  00b58	8b 95 94 fe ff
	ff		 mov	 edx, DWORD PTR _vTestPosition$[ebp+4]
  00b5e	89 50 04	 mov	 DWORD PTR [eax+4], edx
  00b61	8b 8d 98 fe ff
	ff		 mov	 ecx, DWORD PTR _vTestPosition$[ebp+8]
  00b67	89 48 08	 mov	 DWORD PTR [eax+8], ecx

; 442  : 			m_vOrientation = vTestOrientation ;

  00b6a	8b 45 f8	 mov	 eax, DWORD PTR _this$[ebp]
  00b6d	05 c0 01 00 00	 add	 eax, 448		; 000001c0H
  00b72	8b 8d a4 fe ff
	ff		 mov	 ecx, DWORD PTR _vTestOrientation$[ebp]
  00b78	89 08		 mov	 DWORD PTR [eax], ecx
  00b7a	8b 95 a8 fe ff
	ff		 mov	 edx, DWORD PTR _vTestOrientation$[ebp+4]
  00b80	89 50 04	 mov	 DWORD PTR [eax+4], edx
  00b83	8b 8d ac fe ff
	ff		 mov	 ecx, DWORD PTR _vTestOrientation$[ebp+8]
  00b89	89 48 08	 mov	 DWORD PTR [eax+8], ecx

; 443  : 			m_matTrans = matTestTrans ;

  00b8c	8b 7d f8	 mov	 edi, DWORD PTR _this$[ebp]
  00b8f	81 c7 24 02 00
	00		 add	 edi, 548		; 00000224H
  00b95	b9 10 00 00 00	 mov	 ecx, 16			; 00000010H
  00b9a	8d b5 48 fe ff
	ff		 lea	 esi, DWORD PTR _matTestTrans$[ebp]
  00ba0	f3 a5		 rep movsd

; 444  : 			m_matRot = matTestRot ;

  00ba2	8b 7d f8	 mov	 edi, DWORD PTR _this$[ebp]
  00ba5	81 c7 64 02 00
	00		 add	 edi, 612		; 00000264H
  00bab	b9 10 00 00 00	 mov	 ecx, 16			; 00000010H
  00bb0	8d b5 00 fe ff
	ff		 lea	 esi, DWORD PTR _matTestRot$[ebp]
  00bb6	f3 a5		 rep movsd

; 445  : 			m_fSpeed = D3DXVec3Length( &vDelta );

  00bb8	8d 85 0c ff ff
	ff		 lea	 eax, DWORD PTR _vDelta$[ebp]
  00bbe	50		 push	 eax
  00bbf	e8 00 00 00 00	 call	 ?D3DXVec3Length@@YAMPBUD3DXVECTOR3@@@Z ; D3DXVec3Length
  00bc4	83 c4 04	 add	 esp, 4
  00bc7	8b 4d f8	 mov	 ecx, DWORD PTR _this$[ebp]
  00bca	d9 99 a4 01 00
	00		 fstp	 DWORD PTR [ecx+420]

; 446  : 			if( pfYawDelta ) *pfYawDelta = fYawDelta ;

  00bd0	83 7d 24 00	 cmp	 DWORD PTR _pfYawDelta$[ebp], 0
  00bd4	74 0b		 je	 SHORT $L93862
  00bd6	8b 45 24	 mov	 eax, DWORD PTR _pfYawDelta$[ebp]
  00bd9	8b 8d b8 fd ff
	ff		 mov	 ecx, DWORD PTR _fYawDelta$[ebp]
  00bdf	89 08		 mov	 DWORD PTR [eax], ecx
$L93862:

; 447  : 			D3DXVec3Normalize( &m_vDirectionOfTravel, &vDelta );

  00be1	8d 85 0c ff ff
	ff		 lea	 eax, DWORD PTR _vDelta$[ebp]
  00be7	50		 push	 eax
  00be8	8b 4d f8	 mov	 ecx, DWORD PTR _this$[ebp]
  00beb	81 c1 d8 01 00
	00		 add	 ecx, 472		; 000001d8H
  00bf1	51		 push	 ecx
  00bf2	e8 00 00 00 00	 call	 _D3DXVec3Normalize@8

; 448  : 			m_matLastTransDelta = matTransDelta ;

  00bf7	8b 7d f8	 mov	 edi, DWORD PTR _this$[ebp]
  00bfa	81 c7 a4 02 00
	00		 add	 edi, 676		; 000002a4H
  00c00	b9 10 00 00 00	 mov	 ecx, 16			; 00000010H
  00c05	8d b5 b8 fc ff
	ff		 lea	 esi, DWORD PTR _matTransDelta$[ebp]
  00c0b	f3 a5		 rep movsd

; 449  : 
; 450  : 		// velocity in m/s
; 451  : 			m_vVelocityMS = vDelta * pRace->m_fWorldSpaceToM ;	// m/frame

  00c0d	8b 45 18	 mov	 eax, DWORD PTR _pRace$[ebp]
  00c10	8b 88 f4 00 00
	00		 mov	 ecx, DWORD PTR [eax+244]
  00c16	51		 push	 ecx
  00c17	8d 95 34 fb ff
	ff		 lea	 edx, DWORD PTR $T94593[ebp]
  00c1d	52		 push	 edx
  00c1e	8d 8d 0c ff ff
	ff		 lea	 ecx, DWORD PTR _vDelta$[ebp]
  00c24	e8 00 00 00 00	 call	 ??DD3DXVECTOR3@@QBE?AU0@M@Z ; D3DXVECTOR3::operator*
  00c29	8b 4d f8	 mov	 ecx, DWORD PTR _this$[ebp]
  00c2c	81 c1 ec 02 00
	00		 add	 ecx, 748		; 000002ecH
  00c32	8b 10		 mov	 edx, DWORD PTR [eax]
  00c34	89 11		 mov	 DWORD PTR [ecx], edx
  00c36	8b 50 04	 mov	 edx, DWORD PTR [eax+4]
  00c39	89 51 04	 mov	 DWORD PTR [ecx+4], edx
  00c3c	8b 40 08	 mov	 eax, DWORD PTR [eax+8]
  00c3f	89 41 08	 mov	 DWORD PTR [ecx+8], eax

; 452  : 			m_vVelocityMS *= fFPS ;								// m/s

  00c42	8b 45 0c	 mov	 eax, DWORD PTR _fFPS$[ebp]
  00c45	50		 push	 eax
  00c46	8b 4d f8	 mov	 ecx, DWORD PTR _this$[ebp]
  00c49	81 c1 ec 02 00
	00		 add	 ecx, 748		; 000002ecH
  00c4f	e8 00 00 00 00	 call	 ??XD3DXVECTOR3@@QAEAAU0@M@Z ; D3DXVECTOR3::operator*=

; 453  : 			m_fSpeedMS = D3DXVec3Length( &m_vVelocityMS );

  00c54	8b 45 f8	 mov	 eax, DWORD PTR _this$[ebp]
  00c57	05 ec 02 00 00	 add	 eax, 748		; 000002ecH
  00c5c	50		 push	 eax
  00c5d	e8 00 00 00 00	 call	 ?D3DXVec3Length@@YAMPBUD3DXVECTOR3@@@Z ; D3DXVec3Length
  00c62	83 c4 04	 add	 esp, 4
  00c65	8b 4d f8	 mov	 ecx, DWORD PTR _this$[ebp]
  00c68	d9 99 f8 02 00
	00		 fstp	 DWORD PTR [ecx+760]

; 454  : 
; 455  : 		// apply to render object
; 456  : 			m_pFRO->WorldSetMatrix( &matRes, m_pFRO->m_fScale );

  00c6e	8b 45 f8	 mov	 eax, DWORD PTR _this$[ebp]
  00c71	8b 48 2c	 mov	 ecx, DWORD PTR [eax+44]
  00c74	8b 91 d4 00 00
	00		 mov	 edx, DWORD PTR [ecx+212]
  00c7a	52		 push	 edx
  00c7b	8d 85 20 ff ff
	ff		 lea	 eax, DWORD PTR _matRes$[ebp]
  00c81	50		 push	 eax
  00c82	8b 4d f8	 mov	 ecx, DWORD PTR _this$[ebp]
  00c85	8b 49 2c	 mov	 ecx, DWORD PTR [ecx+44]
  00c88	e8 00 00 00 00	 call	 ?WorldSetMatrix@CFileRenderObject@@QAEXPAUD3DXMATRIX@@M@Z ; CFileRenderObject::WorldSetMatrix

; 457  : 
; 458  : 		// apply rotation matrix to unit orientation vector
; 459  : 			D3DXVec3Transform(&v, &m_vInitialOrientation, &m_matRot) ;

  00c8d	8b 45 f8	 mov	 eax, DWORD PTR _this$[ebp]
  00c90	05 64 02 00 00	 add	 eax, 612		; 00000264H
  00c95	50		 push	 eax
  00c96	8b 4d f8	 mov	 ecx, DWORD PTR _this$[ebp]
  00c99	81 c1 cc 01 00
	00		 add	 ecx, 460		; 000001ccH
  00c9f	51		 push	 ecx
  00ca0	8d 95 f4 fe ff
	ff		 lea	 edx, DWORD PTR _v$[ebp]
  00ca6	52		 push	 edx
  00ca7	e8 00 00 00 00	 call	 _D3DXVec3Transform@12

; 460  : 			m_vOrientation.x = v.x ; m_vOrientation.y = v.y ; m_vOrientation.z = v.z ;

  00cac	8b 45 f8	 mov	 eax, DWORD PTR _this$[ebp]
  00caf	8b 8d f4 fe ff
	ff		 mov	 ecx, DWORD PTR _v$[ebp]
  00cb5	89 88 c0 01 00
	00		 mov	 DWORD PTR [eax+448], ecx
  00cbb	8b 45 f8	 mov	 eax, DWORD PTR _this$[ebp]
  00cbe	8b 8d f8 fe ff
	ff		 mov	 ecx, DWORD PTR _v$[ebp+4]
  00cc4	89 88 c4 01 00
	00		 mov	 DWORD PTR [eax+452], ecx
  00cca	8b 45 f8	 mov	 eax, DWORD PTR _this$[ebp]
  00ccd	8b 8d fc fe ff
	ff		 mov	 ecx, DWORD PTR _v$[ebp+8]
  00cd3	89 88 c8 01 00
	00		 mov	 DWORD PTR [eax+456], ecx

; 461  : 
; 462  : 		// apply rot. to unit up vec.
; 463  : 			D3DXVec3Transform( &v, &xVec3( 0,1,0 ), &m_matRot );

  00cd9	8b 45 f8	 mov	 eax, DWORD PTR _this$[ebp]
  00cdc	05 64 02 00 00	 add	 eax, 612		; 00000264H
  00ce1	50		 push	 eax
  00ce2	6a 00		 push	 0
  00ce4	68 00 00 80 3f	 push	 1065353216		; 3f800000H
  00ce9	6a 00		 push	 0
  00ceb	8d 8d 20 fb ff
	ff		 lea	 ecx, DWORD PTR $T94594[ebp]
  00cf1	e8 00 00 00 00	 call	 ??0D3DXVECTOR3@@QAE@MMM@Z ; D3DXVECTOR3::D3DXVECTOR3
  00cf6	50		 push	 eax
  00cf7	8d 8d f4 fe ff
	ff		 lea	 ecx, DWORD PTR _v$[ebp]
  00cfd	51		 push	 ecx
  00cfe	e8 00 00 00 00	 call	 _D3DXVec3Transform@12

; 464  : 			m_vUp.x = v.x ; m_vUp.y = v.y ; m_vUp.z = v.z ;

  00d03	8b 45 f8	 mov	 eax, DWORD PTR _this$[ebp]
  00d06	8b 8d f4 fe ff
	ff		 mov	 ecx, DWORD PTR _v$[ebp]
  00d0c	89 88 e4 01 00
	00		 mov	 DWORD PTR [eax+484], ecx
  00d12	8b 45 f8	 mov	 eax, DWORD PTR _this$[ebp]
  00d15	8b 8d f8 fe ff
	ff		 mov	 ecx, DWORD PTR _v$[ebp+4]
  00d1b	89 88 e8 01 00
	00		 mov	 DWORD PTR [eax+488], ecx
  00d21	8b 45 f8	 mov	 eax, DWORD PTR _this$[ebp]
  00d24	8b 8d fc fe ff
	ff		 mov	 ecx, DWORD PTR _v$[ebp+8]
  00d2a	89 88 ec 01 00
	00		 mov	 DWORD PTR [eax+492], ecx

; 465  : 
; 466  : 		// appy rot. to unit right vec.
; 467  : 			D3DXVec3Transform( &v, &xVec3( 1,0,0 ), &m_matRot );

  00d30	8b 45 f8	 mov	 eax, DWORD PTR _this$[ebp]
  00d33	05 64 02 00 00	 add	 eax, 612		; 00000264H
  00d38	50		 push	 eax
  00d39	6a 00		 push	 0
  00d3b	6a 00		 push	 0
  00d3d	68 00 00 80 3f	 push	 1065353216		; 3f800000H
  00d42	8d 8d 0c fb ff
	ff		 lea	 ecx, DWORD PTR $T94595[ebp]
  00d48	e8 00 00 00 00	 call	 ??0D3DXVECTOR3@@QAE@MMM@Z ; D3DXVECTOR3::D3DXVECTOR3
  00d4d	50		 push	 eax
  00d4e	8d 8d f4 fe ff
	ff		 lea	 ecx, DWORD PTR _v$[ebp]
  00d54	51		 push	 ecx
  00d55	e8 00 00 00 00	 call	 _D3DXVec3Transform@12

; 468  : 			m_vLeft.x = v.x ; m_vLeft.y = v.y ; m_vLeft.z = v.z ;

  00d5a	8b 45 f8	 mov	 eax, DWORD PTR _this$[ebp]
  00d5d	8b 8d f4 fe ff
	ff		 mov	 ecx, DWORD PTR _v$[ebp]
  00d63	89 88 f0 01 00
	00		 mov	 DWORD PTR [eax+496], ecx
  00d69	8b 45 f8	 mov	 eax, DWORD PTR _this$[ebp]
  00d6c	8b 8d f8 fe ff
	ff		 mov	 ecx, DWORD PTR _v$[ebp+4]
  00d72	89 88 f4 01 00
	00		 mov	 DWORD PTR [eax+500], ecx
  00d78	8b 45 f8	 mov	 eax, DWORD PTR _this$[ebp]
  00d7b	8b 8d fc fe ff
	ff		 mov	 ecx, DWORD PTR _v$[ebp+8]
  00d81	89 88 f8 01 00
	00		 mov	 DWORD PTR [eax+504], ecx

; 469  : 		}
; 470  : 		else

  00d87	eb 36		 jmp	 SHORT $L93866
$L93861:

; 471  : 		{
; 472  : 			m_fThrustMag = 0 ;

  00d89	8b 45 f8	 mov	 eax, DWORD PTR _this$[ebp]
  00d8c	c7 80 ac 01 00
	00 00 00 00 00	 mov	 DWORD PTR [eax+428], 0

; 473  : 			m_fStrafeThrustMag = 0 ;

  00d96	8b 45 f8	 mov	 eax, DWORD PTR _this$[ebp]
  00d99	c7 80 b0 01 00
	00 00 00 00 00	 mov	 DWORD PTR [eax+432], 0

; 474  : 			m_fSpeed = 0 ;	// KLUDGE; stops contrail going strange when colliding.

  00da3	8b 45 f8	 mov	 eax, DWORD PTR _this$[ebp]
  00da6	c7 80 a4 01 00
	00 00 00 00 00	 mov	 DWORD PTR [eax+420], 0

; 475  : 			if( pfYawDelta ) *pfYawDelta = 0 ;

  00db0	83 7d 24 00	 cmp	 DWORD PTR _pfYawDelta$[ebp], 0
  00db4	74 09		 je	 SHORT $L93866
  00db6	8b 45 24	 mov	 eax, DWORD PTR _pfYawDelta$[ebp]
  00db9	c7 00 00 00 00
	00		 mov	 DWORD PTR [eax], 0
$L93866:

; 476  : 		}
; 477  : 
; 478  : 	//
; 479  : 	// Reduce external force one full tick after we've reacted to a terrain collision:
; 480  : 	//
; 481  : 		if( m_bJustBouncedOffTerrain )

  00dbf	8b 45 f8	 mov	 eax, DWORD PTR _this$[ebp]
  00dc2	83 b8 14 02 00
	00 00		 cmp	 DWORD PTR [eax+532], 0
  00dc9	74 20		 je	 SHORT $L93868

; 482  : 		{
; 483  : 			m_vExternalForce *= 0.15f ;

  00dcb	68 9a 99 19 3e	 push	 1041865114		; 3e19999aH
  00dd0	8b 4d f8	 mov	 ecx, DWORD PTR _this$[ebp]
  00dd3	81 c1 08 02 00
	00		 add	 ecx, 520		; 00000208H
  00dd9	e8 00 00 00 00	 call	 ??XD3DXVECTOR3@@QAEAAU0@M@Z ; D3DXVECTOR3::operator*=

; 484  : 			m_bJustBouncedOffTerrain = FALSE ;

  00dde	8b 45 f8	 mov	 eax, DWORD PTR _this$[ebp]
  00de1	c7 80 14 02 00
	00 00 00 00 00	 mov	 DWORD PTR [eax+532], 0
$L93868:

; 485  : 		}
; 486  : 
; 487  : 	//
; 488  : 	// (FLIGHT_CONTROLS) Handle weapons systems:
; 489  : 	//
; 490  : 		if( bAcceptInput )

  00deb	83 7d 14 00	 cmp	 DWORD PTR _bAcceptInput$[ebp], 0
  00def	74 7e		 je	 SHORT $L93785

; 491  : 		{
; 492  : 		// cycle;
; 493  : 			if( pFC->bNextWeapon )

  00df1	8b 45 08	 mov	 eax, DWORD PTR _pFC$[ebp]
  00df4	83 78 2c 00	 cmp	 DWORD PTR [eax+44], 0
  00df8	74 22		 je	 SHORT $L93870

; 494  : 				if( ++m_Weapon == MAX_WEAPON_TYPES ) m_Weapon = 0 ;

  00dfa	8b 45 f8	 mov	 eax, DWORD PTR _this$[ebp]
  00dfd	8b 48 04	 mov	 ecx, DWORD PTR [eax+4]
  00e00	83 c1 01	 add	 ecx, 1
  00e03	8b 55 f8	 mov	 edx, DWORD PTR _this$[ebp]
  00e06	89 4a 04	 mov	 DWORD PTR [edx+4], ecx
  00e09	8b 45 f8	 mov	 eax, DWORD PTR _this$[ebp]
  00e0c	83 78 04 03	 cmp	 DWORD PTR [eax+4], 3
  00e10	75 0a		 jne	 SHORT $L93870
  00e12	8b 45 f8	 mov	 eax, DWORD PTR _this$[ebp]
  00e15	c7 40 04 00 00
	00 00		 mov	 DWORD PTR [eax+4], 0
$L93870:

; 495  : 			if( pFC->bPrevWeapon )

  00e1c	8b 45 08	 mov	 eax, DWORD PTR _pFC$[ebp]
  00e1f	83 78 30 00	 cmp	 DWORD PTR [eax+48], 0
  00e23	74 22		 je	 SHORT $L93872

; 496  : 				if( --m_Weapon == -1 ) m_Weapon = MAX_WEAPON_TYPES - 1 ;

  00e25	8b 45 f8	 mov	 eax, DWORD PTR _this$[ebp]
  00e28	8b 48 04	 mov	 ecx, DWORD PTR [eax+4]
  00e2b	83 e9 01	 sub	 ecx, 1
  00e2e	8b 55 f8	 mov	 edx, DWORD PTR _this$[ebp]
  00e31	89 4a 04	 mov	 DWORD PTR [edx+4], ecx
  00e34	8b 45 f8	 mov	 eax, DWORD PTR _this$[ebp]
  00e37	83 78 04 ff	 cmp	 DWORD PTR [eax+4], -1
  00e3b	75 0a		 jne	 SHORT $L93872
  00e3d	8b 45 f8	 mov	 eax, DWORD PTR _this$[ebp]
  00e40	c7 40 04 02 00
	00 00		 mov	 DWORD PTR [eax+4], 2
$L93872:

; 497  : 
; 498  : 		// fire;
; 499  : 			if( pFC->bFireA )

  00e47	8b 45 08	 mov	 eax, DWORD PTR _pFC$[ebp]
  00e4a	83 78 34 00	 cmp	 DWORD PTR [eax+52], 0
  00e4e	74 1f		 je	 SHORT $L93785

; 500  : 				LaunchProjectile( pDev, fFPS, fElapsedTime, (e_WeaponTypes)m_Weapon, pRace );

  00e50	8b 45 18	 mov	 eax, DWORD PTR _pRace$[ebp]
  00e53	50		 push	 eax
  00e54	8b 4d f8	 mov	 ecx, DWORD PTR _this$[ebp]
  00e57	8b 51 04	 mov	 edx, DWORD PTR [ecx+4]
  00e5a	52		 push	 edx
  00e5b	8b 45 20	 mov	 eax, DWORD PTR _fElapsedTime$[ebp]
  00e5e	50		 push	 eax
  00e5f	8b 4d 0c	 mov	 ecx, DWORD PTR _fFPS$[ebp]
  00e62	51		 push	 ecx
  00e63	8b 55 1c	 mov	 edx, DWORD PTR _pDev$[ebp]
  00e66	52		 push	 edx
  00e67	8b 4d f8	 mov	 ecx, DWORD PTR _this$[ebp]
  00e6a	e8 00 00 00 00	 call	 ?LaunchProjectile@CFighter@@QAEXPAUIDirect3DDevice8@@MMHPAVCRace@@@Z ; CFighter::LaunchProjectile
$L93785:

; 501  : 		}
; 502  : 	}

  00e6f	52		 push	 edx
  00e70	8b cd		 mov	 ecx, ebp
  00e72	50		 push	 eax
  00e73	8d 15 00 00 00
	00		 lea	 edx, DWORD PTR $L94629
  00e79	e8 00 00 00 00	 call	 @_RTC_CheckStackVars@8
  00e7e	58		 pop	 eax
  00e7f	5a		 pop	 edx
  00e80	5f		 pop	 edi
  00e81	5e		 pop	 esi
  00e82	5b		 pop	 ebx
  00e83	81 c4 f8 04 00
	00		 add	 esp, 1272		; 000004f8H
  00e89	3b ec		 cmp	 ebp, esp
  00e8b	e8 00 00 00 00	 call	 __RTC_CheckEsp
  00e90	8b e5		 mov	 esp, ebp
  00e92	5d		 pop	 ebp
  00e93	c2 20 00	 ret	 32			; 00000020H
$L94629:
  00e96	0c 00 00 00	 DD	 12			; 0000000cH
  00e9a	00 00 00 00	 DD	 $L94628
$L94628:
  00e9e	b0 ff ff ff	 DD	 -80			; ffffffb0H
  00ea2	40 00 00 00	 DD	 64			; 00000040H
  00ea6	00 00 00 00	 DD	 $L94616
  00eaa	68 ff ff ff	 DD	 -152			; ffffff68H
  00eae	40 00 00 00	 DD	 64			; 00000040H
  00eb2	00 00 00 00	 DD	 $L94617
  00eb6	20 ff ff ff	 DD	 -224			; ffffff20H
  00eba	40 00 00 00	 DD	 64			; 00000040H
  00ebe	00 00 00 00	 DD	 $L94618
  00ec2	0c ff ff ff	 DD	 -244			; ffffff0cH
  00ec6	0c 00 00 00	 DD	 12			; 0000000cH
  00eca	00 00 00 00	 DD	 $L94619
  00ece	f4 fe ff ff	 DD	 -268			; fffffef4H
  00ed2	10 00 00 00	 DD	 16			; 00000010H
  00ed6	00 00 00 00	 DD	 $L94620
  00eda	a4 fe ff ff	 DD	 -348			; fffffea4H
  00ede	0c 00 00 00	 DD	 12			; 0000000cH
  00ee2	00 00 00 00	 DD	 $L94621
  00ee6	90 fe ff ff	 DD	 -368			; fffffe90H
  00eea	0c 00 00 00	 DD	 12			; 0000000cH
  00eee	00 00 00 00	 DD	 $L94622
  00ef2	48 fe ff ff	 DD	 -440			; fffffe48H
  00ef6	40 00 00 00	 DD	 64			; 00000040H
  00efa	00 00 00 00	 DD	 $L94623
  00efe	00 fe ff ff	 DD	 -512			; fffffe00H
  00f02	40 00 00 00	 DD	 64			; 00000040H
  00f06	00 00 00 00	 DD	 $L94624
  00f0a	00 fd ff ff	 DD	 -768			; fffffd00H
  00f0e	80 00 00 00	 DD	 128			; 00000080H
  00f12	00 00 00 00	 DD	 $L94625
  00f16	b8 fc ff ff	 DD	 -840			; fffffcb8H
  00f1a	40 00 00 00	 DD	 64			; 00000040H
  00f1e	00 00 00 00	 DD	 $L94626
  00f22	a4 fc ff ff	 DD	 -860			; fffffca4H
  00f26	0c 00 00 00	 DD	 12			; 0000000cH
  00f2a	00 00 00 00	 DD	 $L94627
$L94627:
  00f2e	76		 DB	 118			; 00000076H
  00f2f	54		 DB	 84			; 00000054H
  00f30	65		 DB	 101			; 00000065H
  00f31	72		 DB	 114			; 00000072H
  00f32	72		 DB	 114			; 00000072H
  00f33	61		 DB	 97			; 00000061H
  00f34	69		 DB	 105			; 00000069H
  00f35	6e		 DB	 110			; 0000006eH
  00f36	46		 DB	 70			; 00000046H
  00f37	6f		 DB	 111			; 0000006fH
  00f38	72		 DB	 114			; 00000072H
  00f39	63		 DB	 99			; 00000063H
  00f3a	65		 DB	 101			; 00000065H
  00f3b	00		 DB	 0
$L94626:
  00f3c	6d		 DB	 109			; 0000006dH
  00f3d	61		 DB	 97			; 00000061H
  00f3e	74		 DB	 116			; 00000074H
  00f3f	54		 DB	 84			; 00000054H
  00f40	72		 DB	 114			; 00000072H
  00f41	61		 DB	 97			; 00000061H
  00f42	6e		 DB	 110			; 0000006eH
  00f43	73		 DB	 115			; 00000073H
  00f44	44		 DB	 68			; 00000044H
  00f45	65		 DB	 101			; 00000065H
  00f46	6c		 DB	 108			; 0000006cH
  00f47	74		 DB	 116			; 00000074H
  00f48	61		 DB	 97			; 00000061H
  00f49	00		 DB	 0
$L94625:
  00f4a	76		 DB	 118			; 00000076H
  00f4b	54		 DB	 84			; 00000054H
  00f4c	65		 DB	 101			; 00000065H
  00f4d	73		 DB	 115			; 00000073H
  00f4e	74		 DB	 116			; 00000074H
  00f4f	42		 DB	 66			; 00000042H
  00f50	42		 DB	 66			; 00000042H
  00f51	56		 DB	 86			; 00000056H
  00f52	65		 DB	 101			; 00000065H
  00f53	72		 DB	 114			; 00000072H
  00f54	74		 DB	 116			; 00000074H
  00f55	73		 DB	 115			; 00000073H
  00f56	00		 DB	 0
$L94624:
  00f57	6d		 DB	 109			; 0000006dH
  00f58	61		 DB	 97			; 00000061H
  00f59	74		 DB	 116			; 00000074H
  00f5a	54		 DB	 84			; 00000054H
  00f5b	65		 DB	 101			; 00000065H
  00f5c	73		 DB	 115			; 00000073H
  00f5d	74		 DB	 116			; 00000074H
  00f5e	52		 DB	 82			; 00000052H
  00f5f	6f		 DB	 111			; 0000006fH
  00f60	74		 DB	 116			; 00000074H
  00f61	00		 DB	 0
$L94623:
  00f62	6d		 DB	 109			; 0000006dH
  00f63	61		 DB	 97			; 00000061H
  00f64	74		 DB	 116			; 00000074H
  00f65	54		 DB	 84			; 00000054H
  00f66	65		 DB	 101			; 00000065H
  00f67	73		 DB	 115			; 00000073H
  00f68	74		 DB	 116			; 00000074H
  00f69	54		 DB	 84			; 00000054H
  00f6a	72		 DB	 114			; 00000072H
  00f6b	61		 DB	 97			; 00000061H
  00f6c	6e		 DB	 110			; 0000006eH
  00f6d	73		 DB	 115			; 00000073H
  00f6e	00		 DB	 0
$L94622:
  00f6f	76		 DB	 118			; 00000076H
  00f70	54		 DB	 84			; 00000054H
  00f71	65		 DB	 101			; 00000065H
  00f72	73		 DB	 115			; 00000073H
  00f73	74		 DB	 116			; 00000074H
  00f74	50		 DB	 80			; 00000050H
  00f75	6f		 DB	 111			; 0000006fH
  00f76	73		 DB	 115			; 00000073H
  00f77	69		 DB	 105			; 00000069H
  00f78	74		 DB	 116			; 00000074H
  00f79	69		 DB	 105			; 00000069H
  00f7a	6f		 DB	 111			; 0000006fH
  00f7b	6e		 DB	 110			; 0000006eH
  00f7c	00		 DB	 0
$L94621:
  00f7d	76		 DB	 118			; 00000076H
  00f7e	54		 DB	 84			; 00000054H
  00f7f	65		 DB	 101			; 00000065H
  00f80	73		 DB	 115			; 00000073H
  00f81	74		 DB	 116			; 00000074H
  00f82	4f		 DB	 79			; 0000004fH
  00f83	72		 DB	 114			; 00000072H
  00f84	69		 DB	 105			; 00000069H
  00f85	65		 DB	 101			; 00000065H
  00f86	6e		 DB	 110			; 0000006eH
  00f87	74		 DB	 116			; 00000074H
  00f88	61		 DB	 97			; 00000061H
  00f89	74		 DB	 116			; 00000074H
  00f8a	69		 DB	 105			; 00000069H
  00f8b	6f		 DB	 111			; 0000006fH
  00f8c	6e		 DB	 110			; 0000006eH
  00f8d	00		 DB	 0
$L94620:
  00f8e	76		 DB	 118			; 00000076H
  00f8f	00		 DB	 0
$L94619:
  00f90	76		 DB	 118			; 00000076H
  00f91	44		 DB	 68			; 00000044H
  00f92	65		 DB	 101			; 00000065H
  00f93	6c		 DB	 108			; 0000006cH
  00f94	74		 DB	 116			; 00000074H
  00f95	61		 DB	 97			; 00000061H
  00f96	00		 DB	 0
$L94618:
  00f97	6d		 DB	 109			; 0000006dH
  00f98	61		 DB	 97			; 00000061H
  00f99	74		 DB	 116			; 00000074H
  00f9a	52		 DB	 82			; 00000052H
  00f9b	65		 DB	 101			; 00000065H
  00f9c	73		 DB	 115			; 00000073H
  00f9d	00		 DB	 0
$L94617:
  00f9e	6d		 DB	 109			; 0000006dH
  00f9f	31		 DB	 49			; 00000031H
  00fa0	00		 DB	 0
$L94616:
  00fa1	6d		 DB	 109			; 0000006dH
  00fa2	30		 DB	 48			; 00000030H
  00fa3	00		 DB	 0
?ProcessPhysicsFromFlightControls@CFighter@@QAEXPAUFLIGHT_CONTROLS@@MPAVCTerrain@@HPAVCRace@@PAUIDirect3DDevice8@@MPAM@Z ENDP ; CFighter::ProcessPhysicsFromFlightControls
; Function compile flags: /Odt /RTCsu /ZI
; File c:\dxsdk\include\d3dx8math.h
_TEXT	ENDS
;	COMDAT ??0D3DXVECTOR3@@QAE@XZ
_TEXT	SEGMENT
_this$ = -8
??0D3DXVECTOR3@@QAE@XZ PROC NEAR			; D3DXVECTOR3::D3DXVECTOR3, COMDAT
; _this$ = ecx

; 89   :     D3DXVECTOR3() {};

  00000	55		 push	 ebp
  00001	8b ec		 mov	 ebp, esp
  00003	81 ec cc 00 00
	00		 sub	 esp, 204		; 000000ccH
  00009	53		 push	 ebx
  0000a	56		 push	 esi
  0000b	57		 push	 edi
  0000c	51		 push	 ecx
  0000d	8d bd 34 ff ff
	ff		 lea	 edi, DWORD PTR [ebp-204]
  00013	b9 33 00 00 00	 mov	 ecx, 51			; 00000033H
  00018	b8 cc cc cc cc	 mov	 eax, -858993460		; ccccccccH
  0001d	f3 ab		 rep stosd
  0001f	59		 pop	 ecx
  00020	89 4d f8	 mov	 DWORD PTR _this$[ebp], ecx
  00023	8b 45 f8	 mov	 eax, DWORD PTR _this$[ebp]
  00026	5f		 pop	 edi
  00027	5e		 pop	 esi
  00028	5b		 pop	 ebx
  00029	8b e5		 mov	 esp, ebp
  0002b	5d		 pop	 ebp
  0002c	c3		 ret	 0
??0D3DXVECTOR3@@QAE@XZ ENDP				; D3DXVECTOR3::D3DXVECTOR3
; Function compile flags: /Odt /RTCsu /ZI
_TEXT	ENDS
;	COMDAT ??0D3DXVECTOR4@@QAE@XZ
_TEXT	SEGMENT
_this$ = -8
??0D3DXVECTOR4@@QAE@XZ PROC NEAR			; D3DXVECTOR4::D3DXVECTOR4, COMDAT
; _this$ = ecx

; 133  :     D3DXVECTOR4() {};

  00000	55		 push	 ebp
  00001	8b ec		 mov	 ebp, esp
  00003	81 ec cc 00 00
	00		 sub	 esp, 204		; 000000ccH
  00009	53		 push	 ebx
  0000a	56		 push	 esi
  0000b	57		 push	 edi
  0000c	51		 push	 ecx
  0000d	8d bd 34 ff ff
	ff		 lea	 edi, DWORD PTR [ebp-204]
  00013	b9 33 00 00 00	 mov	 ecx, 51			; 00000033H
  00018	b8 cc cc cc cc	 mov	 eax, -858993460		; ccccccccH
  0001d	f3 ab		 rep stosd
  0001f	59		 pop	 ecx
  00020	89 4d f8	 mov	 DWORD PTR _this$[ebp], ecx
  00023	8b 45 f8	 mov	 eax, DWORD PTR _this$[ebp]
  00026	5f		 pop	 edi
  00027	5e		 pop	 esi
  00028	5b		 pop	 ebx
  00029	8b e5		 mov	 esp, ebp
  0002b	5d		 pop	 ebp
  0002c	c3		 ret	 0
??0D3DXVECTOR4@@QAE@XZ ENDP				; D3DXVECTOR4::D3DXVECTOR4
; Function compile flags: /Odt /RTCsu /ZI
_TEXT	ENDS
;	COMDAT ??0D3DXMATRIX@@QAE@XZ
_TEXT	SEGMENT
_this$ = -8
??0D3DXMATRIX@@QAE@XZ PROC NEAR				; D3DXMATRIX::D3DXMATRIX, COMDAT
; _this$ = ecx

; 177  :     D3DXMATRIX() {};

  00000	55		 push	 ebp
  00001	8b ec		 mov	 ebp, esp
  00003	81 ec cc 00 00
	00		 sub	 esp, 204		; 000000ccH
  00009	53		 push	 ebx
  0000a	56		 push	 esi
  0000b	57		 push	 edi
  0000c	51		 push	 ecx
  0000d	8d bd 34 ff ff
	ff		 lea	 edi, DWORD PTR [ebp-204]
  00013	b9 33 00 00 00	 mov	 ecx, 51			; 00000033H
  00018	b8 cc cc cc cc	 mov	 eax, -858993460		; ccccccccH
  0001d	f3 ab		 rep stosd
  0001f	59		 pop	 ecx
  00020	89 4d f8	 mov	 DWORD PTR _this$[ebp], ecx
  00023	8b 45 f8	 mov	 eax, DWORD PTR _this$[ebp]
  00026	5f		 pop	 edi
  00027	5e		 pop	 esi
  00028	5b		 pop	 ebx
  00029	8b e5		 mov	 esp, ebp
  0002b	5d		 pop	 ebp
  0002c	c3		 ret	 0
??0D3DXMATRIX@@QAE@XZ ENDP				; D3DXMATRIX::D3DXMATRIX
; Function compile flags: /Odt /RTCsu /ZI
_TEXT	ENDS
;	COMDAT ??0D3DXCOLOR@@QAE@XZ
_TEXT	SEGMENT
_this$ = -8
??0D3DXCOLOR@@QAE@XZ PROC NEAR				; D3DXCOLOR::D3DXCOLOR, COMDAT
; _this$ = ecx

; 409  :     D3DXCOLOR() {}

  00000	55		 push	 ebp
  00001	8b ec		 mov	 ebp, esp
  00003	81 ec cc 00 00
	00		 sub	 esp, 204		; 000000ccH
  00009	53		 push	 ebx
  0000a	56		 push	 esi
  0000b	57		 push	 edi
  0000c	51		 push	 ecx
  0000d	8d bd 34 ff ff
	ff		 lea	 edi, DWORD PTR [ebp-204]
  00013	b9 33 00 00 00	 mov	 ecx, 51			; 00000033H
  00018	b8 cc cc cc cc	 mov	 eax, -858993460		; ccccccccH
  0001d	f3 ab		 rep stosd
  0001f	59		 pop	 ecx
  00020	89 4d f8	 mov	 DWORD PTR _this$[ebp], ecx
  00023	8b 45 f8	 mov	 eax, DWORD PTR _this$[ebp]
  00026	5f		 pop	 edi
  00027	5e		 pop	 esi
  00028	5b		 pop	 ebx
  00029	8b e5		 mov	 esp, ebp
  0002b	5d		 pop	 ebp
  0002c	c3		 ret	 0
??0D3DXCOLOR@@QAE@XZ ENDP				; D3DXCOLOR::D3DXCOLOR
_TEXT	ENDS
PUBLIC	??0FIGHTER_PROJECTILE@CFighter@@QAE@XZ		; CFighter::FIGHTER_PROJECTILE::FIGHTER_PROJECTILE
PUBLIC	?GetFighterAbsPosFromRelative@CFighter@@QAEHPAUD3DXVECTOR3@@0@Z ; CFighter::GetFighterAbsPosFromRelative
PUBLIC	__real@41200000
PUBLIC	__real@40a00000
PUBLIC	__real@41700000
PUBLIC	__real@41a00000
PUBLIC	?D3DXColorLerp@@YAPAUD3DXCOLOR@@PAU1@PBU1@1M@Z	; D3DXColorLerp
PUBLIC	??HD3DXVECTOR3@@QBE?AU0@ABU0@@Z			; D3DXVECTOR3::operator+
EXTRN	??0CBoundingBox@@QAE@PAUD3DXVECTOR3@@@Z:NEAR	; CBoundingBox::CBoundingBox
EXTRN	?ApplyMatrix@CBoundingBox@@QAEXPAUD3DXMATRIX@@@Z:NEAR ; CBoundingBox::ApplyMatrix
EXTRN	?RestoreDeviceObjects@CBoundingBox@@QAEJPAUIDirect3DDevice8@@@Z:NEAR ; CBoundingBox::RestoreDeviceObjects
EXTRN	?PlaySFX3D@CSoundManager@@QAEHHPAUD3DXVECTOR3@@0M@Z:NEAR ; CSoundManager::PlaySFX3D
EXTRN	__RTC_UninitUse:NEAR
EXTRN	?FrameMove@CParticleSystem@@QAEJMPAUD3DXVECTOR3@@MKMHABUD3DXCOLOR@@100HMH@Z:NEAR ; CParticleSystem::FrameMove
;	COMDAT __real@41200000
; File c:\documents and settings\dom\my documents\_dev\ae\xlr8a\x7g\cfighter.cpp
CONST	SEGMENT
__real@41200000 DD 041200000r			; 10
CONST	ENDS
;	COMDAT __real@40a00000
CONST	SEGMENT
__real@40a00000 DD 040a00000r			; 5
CONST	ENDS
;	COMDAT __real@41700000
CONST	SEGMENT
__real@41700000 DD 041700000r			; 15
CONST	ENDS
;	COMDAT __real@41a00000
CONST	SEGMENT
__real@41a00000 DD 041a00000r			; 20
; Function compile flags: /Odt /RTCsu /ZI
CONST	ENDS
;	COMDAT ?LaunchProjectile@CFighter@@QAEXPAUIDirect3DDevice8@@MMHPAVCRace@@@Z
_TEXT	SEGMENT
tv633 = -1356
tv619 = -1356
tv188 = -1356
tv150 = -1356
tv135 = -1356
$T94684 = -1345
$T94683 = -1333
$T94682 = -1321
$T94679 = -1312
$T94678 = -1300
$T94677 = -1280
$T94676 = -1260
$T94675 = -1240
$T94674 = -1220
$T94673 = -1200
$T94672 = -1180
$T94671 = -1160
$T94670 = -1140
$T94669 = -1120
$T94668 = -1100
$T94667 = -1080
$T94666 = -1060
$T94665 = -1040
$T94664 = -1020
$T94663 = -1000
$T94662 = -980
$T94661 = -960
$T94660 = -940
$T94659 = -920
$T94658 = -900
$T94657 = -880
$T94656 = -856
$T94655 = -832
$T94654 = -808
$T94653 = -784
$T94652 = -760
$T94649 = -736
$T94648 = -724
$T94647 = -704
$T94644 = -684
$T94641 = -672
$T94640 = -660
_fAddStraight$93940 = -448
_vParticlePos$93939 = -436
_vEmitterRotatedPos$93938 = -416
_vAdd$93937 = -396
_i$93934 = -376
_intI$93930 = -364
_vOBBox$ = -352
_mT$93927 = -248
_fMultiplier$ = -172
_col$ = -160
_colB$ = -136
_colA$ = -112
_fSpeed$ = -88
_pLastProjectile$ = -76
_pNewProjectile$ = -64
_vEmitterPos$ = -52
_nParticles$ = -32
_fSize$ = -20
_this$ = -8
_pDev$ = 8
_fFPS$ = 12
_fElapsedTime$ = 16
_Type$ = 20
_pRace$ = 24
?LaunchProjectile@CFighter@@QAEXPAUIDirect3DDevice8@@MMHPAVCRace@@@Z PROC NEAR ; CFighter::LaunchProjectile, COMDAT
; _this$ = ecx

; 511  : 	{

  00000	55		 push	 ebp
  00001	8b ec		 mov	 ebp, esp
  00003	81 ec 4c 05 00
	00		 sub	 esp, 1356		; 0000054cH
  00009	53		 push	 ebx
  0000a	56		 push	 esi
  0000b	57		 push	 edi
  0000c	51		 push	 ecx
  0000d	8d bd b4 fa ff
	ff		 lea	 edi, DWORD PTR [ebp-1356]
  00013	b9 53 01 00 00	 mov	 ecx, 339		; 00000153H
  00018	b8 cc cc cc cc	 mov	 eax, -858993460		; ccccccccH
  0001d	f3 ab		 rep stosd
  0001f	59		 pop	 ecx
  00020	89 4d f8	 mov	 DWORD PTR _this$[ebp], ecx
  00023	c6 85 cb fa ff
	ff 00		 mov	 BYTE PTR $T94683[ebp], 0
  0002a	c6 85 d7 fa ff
	ff 00		 mov	 BYTE PTR $T94682[ebp], 0
  00031	c6 85 bf fa ff
	ff 00		 mov	 BYTE PTR $T94684[ebp], 0

; 512  : 		float fSize ;
; 513  : 		int nParticles ;
; 514  : 
; 515  : 	// make sure that we don't fire too fast;
; 516  : 		if( m_nProjectiles > 0 )

  00038	8b 45 f8	 mov	 eax, DWORD PTR _this$[ebp]
  0003b	83 b8 90 01 00
	00 00		 cmp	 DWORD PTR [eax+400], 0
  00042	7e 2f		 jle	 SHORT $L93886

; 517  : 			if( fElapsedTime - m_fLastProjectileEmmitedTime
; 518  : 					<
; 519  : 				g_Weapons[ Type ].fEmmisionMinInterval * m_fBaseWeaponEmmisionSpeedModifier )

  00044	8b 45 f8	 mov	 eax, DWORD PTR _this$[ebp]
  00047	d9 45 10	 fld	 DWORD PTR _fElapsedTime$[ebp]
  0004a	d8 a0 c4 00 00
	00		 fsub	 DWORD PTR [eax+196]
  00050	8b 4d 14	 mov	 ecx, DWORD PTR _Type$[ebp]
  00053	c1 e1 04	 shl	 ecx, 4
  00056	8b 55 f8	 mov	 edx, DWORD PTR _this$[ebp]
  00059	d9 81 00 00 00
	00		 fld	 DWORD PTR ?g_Weapons@@3PAUWEAPON_TYPE_DETAILS@@A[ecx]
  0005f	d8 8a c0 00 00
	00		 fmul	 DWORD PTR [edx+192]
  00065	de d9		 fcompp
  00067	df e0		 fnstsw	 ax
  00069	f6 c4 41	 test	 ah, 65			; 00000041H
  0006c	75 05		 jne	 SHORT $L93886

; 520  : 				return ;

  0006e	e9 b5 0e 00 00	 jmp	 $L93883
$L93886:

; 521  : 
; 522  : 		m_fLastProjectileEmmitedTime = fElapsedTime ;

  00073	8b 45 f8	 mov	 eax, DWORD PTR _this$[ebp]
  00076	8b 4d 10	 mov	 ecx, DWORD PTR _fElapsedTime$[ebp]
  00079	89 88 c4 00 00
	00		 mov	 DWORD PTR [eax+196], ecx

; 523  : 
; 524  : 	// cycle through emision points;
; 525  : 		xVec3 vEmitterPos ;

  0007f	8d 4d cc	 lea	 ecx, DWORD PTR _vEmitterPos$[ebp]
  00082	e8 00 00 00 00	 call	 ??0D3DXVECTOR3@@QAE@XZ	; D3DXVECTOR3::D3DXVECTOR3

; 526  : 		vEmitterPos = m_vWeaponEmitters[ m_ndxCurWeaponEmitter ] * m_pFRO->m_pRenderData->m_fBSphereRadius ;

  00087	8b 45 f8	 mov	 eax, DWORD PTR _this$[ebp]
  0008a	8b 48 2c	 mov	 ecx, DWORD PTR [eax+44]
  0008d	8b 11		 mov	 edx, DWORD PTR [ecx]
  0008f	8b 82 38 01 00
	00		 mov	 eax, DWORD PTR [edx+312]
  00095	50		 push	 eax
  00096	8d 8d 6c fd ff
	ff		 lea	 ecx, DWORD PTR $T94640[ebp]
  0009c	51		 push	 ecx
  0009d	8b 55 f8	 mov	 edx, DWORD PTR _this$[ebp]
  000a0	8b 82 c8 00 00
	00		 mov	 eax, DWORD PTR [edx+200]
  000a6	6b c0 0c	 imul	 eax, 12			; 0000000cH
  000a9	8b 4d f8	 mov	 ecx, DWORD PTR _this$[ebp]
  000ac	8d 8c 01 cc 00
	00 00		 lea	 ecx, DWORD PTR [ecx+eax+204]
  000b3	e8 00 00 00 00	 call	 ??DD3DXVECTOR3@@QBE?AU0@M@Z ; D3DXVECTOR3::operator*
  000b8	8b 10		 mov	 edx, DWORD PTR [eax]
  000ba	89 55 cc	 mov	 DWORD PTR _vEmitterPos$[ebp], edx
  000bd	8b 48 04	 mov	 ecx, DWORD PTR [eax+4]
  000c0	89 4d d0	 mov	 DWORD PTR _vEmitterPos$[ebp+4], ecx
  000c3	8b 50 08	 mov	 edx, DWORD PTR [eax+8]
  000c6	89 55 d4	 mov	 DWORD PTR _vEmitterPos$[ebp+8], edx

; 527  : 		m_ndxCurWeaponEmitter++ ;

  000c9	8b 45 f8	 mov	 eax, DWORD PTR _this$[ebp]
  000cc	8b 88 c8 00 00
	00		 mov	 ecx, DWORD PTR [eax+200]
  000d2	83 c1 01	 add	 ecx, 1
  000d5	8b 55 f8	 mov	 edx, DWORD PTR _this$[ebp]
  000d8	89 8a c8 00 00
	00		 mov	 DWORD PTR [edx+200], ecx

; 528  : 		if( m_ndxCurWeaponEmitter == m_nWeaponEmitters )

  000de	8b 45 f8	 mov	 eax, DWORD PTR _this$[ebp]
  000e1	8b 4d f8	 mov	 ecx, DWORD PTR _this$[ebp]
  000e4	8b 90 c8 00 00
	00		 mov	 edx, DWORD PTR [eax+200]
  000ea	3b 91 bc 00 00
	00		 cmp	 edx, DWORD PTR [ecx+188]
  000f0	75 0d		 jne	 SHORT $L93890

; 529  : 			m_ndxCurWeaponEmitter = 0 ;

  000f2	8b 45 f8	 mov	 eax, DWORD PTR _this$[ebp]
  000f5	c7 80 c8 00 00
	00 00 00 00 00	 mov	 DWORD PTR [eax+200], 0
$L93890:

; 530  : 
; 531  : 	// create new projectile info struct
; 532  : 		FIGHTER_PROJECTILE* pNewProjectile ;
; 533  : 		FIGHTER_PROJECTILE* pLastProjectile ;
; 534  : 		if( 0==m_nProjectiles )

  000ff	8b 45 f8	 mov	 eax, DWORD PTR _this$[ebp]
  00102	83 b8 90 01 00
	00 00		 cmp	 DWORD PTR [eax+400], 0
  00109	75 7f		 jne	 SHORT $L93893

; 535  : 		{
; 536  : 			m_pProjectiles = new FIGHTER_PROJECTILE ;

  0010b	68 b0 00 00 00	 push	 176			; 000000b0H
  00110	e8 00 00 00 00	 call	 ??2@YAPAXI@Z		; operator new
  00115	83 c4 04	 add	 esp, 4
  00118	89 85 60 fd ff
	ff		 mov	 DWORD PTR $T94641[ebp], eax
  0011e	83 bd 60 fd ff
	ff 00		 cmp	 DWORD PTR $T94641[ebp], 0
  00125	74 13		 je	 SHORT $L94642
  00127	8b 8d 60 fd ff
	ff		 mov	 ecx, DWORD PTR $T94641[ebp]
  0012d	e8 00 00 00 00	 call	 ??0FIGHTER_PROJECTILE@CFighter@@QAE@XZ
  00132	89 85 b4 fa ff
	ff		 mov	 DWORD PTR tv135[ebp], eax
  00138	eb 0a		 jmp	 SHORT $L94643
$L94642:
  0013a	c7 85 b4 fa ff
	ff 00 00 00 00	 mov	 DWORD PTR tv135[ebp], 0
$L94643:
  00144	8b 45 f8	 mov	 eax, DWORD PTR _this$[ebp]
  00147	8b 8d b4 fa ff
	ff		 mov	 ecx, DWORD PTR tv135[ebp]
  0014d	89 88 8c 01 00
	00		 mov	 DWORD PTR [eax+396], ecx

; 537  : 			m_pProjectiles->pPrev = NULL ;

  00153	8b 45 f8	 mov	 eax, DWORD PTR _this$[ebp]
  00156	8b 88 8c 01 00
	00		 mov	 ecx, DWORD PTR [eax+396]
  0015c	c7 81 a8 00 00
	00 00 00 00 00	 mov	 DWORD PTR [ecx+168], 0

; 538  : 			m_pProjectiles->pNext = NULL ;

  00166	8b 45 f8	 mov	 eax, DWORD PTR _this$[ebp]
  00169	8b 88 8c 01 00
	00		 mov	 ecx, DWORD PTR [eax+396]
  0016f	c7 81 ac 00 00
	00 00 00 00 00	 mov	 DWORD PTR [ecx+172], 0

; 539  : 			pNewProjectile = m_pProjectiles ;

  00179	8b 45 f8	 mov	 eax, DWORD PTR _this$[ebp]
  0017c	8b 88 8c 01 00
	00		 mov	 ecx, DWORD PTR [eax+396]
  00182	89 4d c0	 mov	 DWORD PTR _pNewProjectile$[ebp], ecx

; 540  : 		}
; 541  : 		else

  00185	e9 8d 00 00 00	 jmp	 $L93896
$L93893:

; 542  : 		{
; 543  : 			pLastProjectile = m_pProjectiles ;

  0018a	8b 45 f8	 mov	 eax, DWORD PTR _this$[ebp]
  0018d	8b 88 8c 01 00
	00		 mov	 ecx, DWORD PTR [eax+396]
  00193	89 4d b4	 mov	 DWORD PTR _pLastProjectile$[ebp], ecx
$L93898:

; 544  : 			while( pLastProjectile->pNext )

  00196	8b 45 b4	 mov	 eax, DWORD PTR _pLastProjectile$[ebp]
  00199	83 b8 ac 00 00
	00 00		 cmp	 DWORD PTR [eax+172], 0
  001a0	74 0e		 je	 SHORT $L93899

; 545  : 				pLastProjectile = pLastProjectile->pNext ;

  001a2	8b 45 b4	 mov	 eax, DWORD PTR _pLastProjectile$[ebp]
  001a5	8b 88 ac 00 00
	00		 mov	 ecx, DWORD PTR [eax+172]
  001ab	89 4d b4	 mov	 DWORD PTR _pLastProjectile$[ebp], ecx
  001ae	eb e6		 jmp	 SHORT $L93898
$L93899:

; 546  : 
; 547  : 			pNewProjectile = new FIGHTER_PROJECTILE ;

  001b0	68 b0 00 00 00	 push	 176			; 000000b0H
  001b5	e8 00 00 00 00	 call	 ??2@YAPAXI@Z		; operator new
  001ba	83 c4 04	 add	 esp, 4
  001bd	89 85 54 fd ff
	ff		 mov	 DWORD PTR $T94644[ebp], eax
  001c3	83 bd 54 fd ff
	ff 00		 cmp	 DWORD PTR $T94644[ebp], 0
  001ca	74 13		 je	 SHORT $L94645
  001cc	8b 8d 54 fd ff
	ff		 mov	 ecx, DWORD PTR $T94644[ebp]
  001d2	e8 00 00 00 00	 call	 ??0FIGHTER_PROJECTILE@CFighter@@QAE@XZ
  001d7	89 85 b4 fa ff
	ff		 mov	 DWORD PTR tv150[ebp], eax
  001dd	eb 0a		 jmp	 SHORT $L94646
$L94645:
  001df	c7 85 b4 fa ff
	ff 00 00 00 00	 mov	 DWORD PTR tv150[ebp], 0
$L94646:
  001e9	8b 85 b4 fa ff
	ff		 mov	 eax, DWORD PTR tv150[ebp]
  001ef	89 45 c0	 mov	 DWORD PTR _pNewProjectile$[ebp], eax

; 548  : 			pLastProjectile->pNext = pNewProjectile ;

  001f2	8b 45 b4	 mov	 eax, DWORD PTR _pLastProjectile$[ebp]
  001f5	8b 4d c0	 mov	 ecx, DWORD PTR _pNewProjectile$[ebp]
  001f8	89 88 ac 00 00
	00		 mov	 DWORD PTR [eax+172], ecx

; 549  : 			pNewProjectile->pPrev = pLastProjectile ;

  001fe	8b 45 c0	 mov	 eax, DWORD PTR _pNewProjectile$[ebp]
  00201	8b 4d b4	 mov	 ecx, DWORD PTR _pLastProjectile$[ebp]
  00204	89 88 a8 00 00
	00		 mov	 DWORD PTR [eax+168], ecx

; 550  : 			pNewProjectile->pNext = NULL ;

  0020a	8b 45 c0	 mov	 eax, DWORD PTR _pNewProjectile$[ebp]
  0020d	c7 80 ac 00 00
	00 00 00 00 00	 mov	 DWORD PTR [eax+172], 0
$L93896:

; 551  : 		}
; 552  : 
; 553  : 		pNewProjectile->Type = (e_WeaponTypes)Type ;

  00217	8b 45 c0	 mov	 eax, DWORD PTR _pNewProjectile$[ebp]
  0021a	8b 4d 14	 mov	 ecx, DWORD PTR _Type$[ebp]
  0021d	89 08		 mov	 DWORD PTR [eax], ecx

; 554  : 
; 555  : 		float fSpeed ;
; 556  : 	// init. struct def. values
; 557  : 		pNewProjectile->bStaticPS = TRUE ;

  0021f	8b 45 c0	 mov	 eax, DWORD PTR _pNewProjectile$[ebp]
  00222	c7 40 40 01 00
	00 00		 mov	 DWORD PTR [eax+64], 1

; 558  : 		pNewProjectile->fAge = 0.0f ;

  00229	8b 45 c0	 mov	 eax, DWORD PTR _pNewProjectile$[ebp]
  0022c	c7 40 08 00 00
	00 00		 mov	 DWORD PTR [eax+8], 0

; 559  : 		pNewProjectile->fDamage = 1.0f ;								// overridden below

  00233	8b 45 c0	 mov	 eax, DWORD PTR _pNewProjectile$[ebp]
  00236	c7 40 04 00 00
	80 3f		 mov	 DWORD PTR [eax+4], 1065353216 ; 3f800000H

; 560  : 		pNewProjectile->fRenderSize = 0.0f ;							// overridden below

  0023d	8b 45 c0	 mov	 eax, DWORD PTR _pNewProjectile$[ebp]
  00240	c7 80 88 00 00
	00 00 00 00 00	 mov	 DWORD PTR [eax+136], 0

; 561  : 		pNewProjectile->fRenderSizeWhenImpacting = 0.0f ;				// overridden below

  0024a	8b 45 c0	 mov	 eax, DWORD PTR _pNewProjectile$[ebp]
  0024d	c7 80 8c 00 00
	00 00 00 00 00	 mov	 DWORD PTR [eax+140], 0

; 562  : 		pNewProjectile->fLifetime = 1.0f ;								// overridden below

  00257	8b 45 c0	 mov	 eax, DWORD PTR _pNewProjectile$[ebp]
  0025a	c7 40 0c 00 00
	80 3f		 mov	 DWORD PTR [eax+12], 1065353216 ; 3f800000H

; 563  : 		pNewProjectile->vLeadingPos = xVec3( 0,0,0 );				// overridden below

  00261	6a 00		 push	 0
  00263	6a 00		 push	 0
  00265	6a 00		 push	 0
  00267	8d 8d 40 fd ff
	ff		 lea	 ecx, DWORD PTR $T94647[ebp]
  0026d	e8 00 00 00 00	 call	 ??0D3DXVECTOR3@@QAE@MMM@Z ; D3DXVECTOR3::D3DXVECTOR3
  00272	8b 4d c0	 mov	 ecx, DWORD PTR _pNewProjectile$[ebp]
  00275	83 c1 10	 add	 ecx, 16			; 00000010H
  00278	8b 10		 mov	 edx, DWORD PTR [eax]
  0027a	89 11		 mov	 DWORD PTR [ecx], edx
  0027c	8b 50 04	 mov	 edx, DWORD PTR [eax+4]
  0027f	89 51 04	 mov	 DWORD PTR [ecx+4], edx
  00282	8b 40 08	 mov	 eax, DWORD PTR [eax+8]
  00285	89 41 08	 mov	 DWORD PTR [ecx+8], eax

; 564  : 		pNewProjectile->vTrailingPos = xVec3( 0,0,0 );			// overridden below

  00288	6a 00		 push	 0
  0028a	6a 00		 push	 0
  0028c	6a 00		 push	 0
  0028e	8d 8d 2c fd ff
	ff		 lea	 ecx, DWORD PTR $T94648[ebp]
  00294	e8 00 00 00 00	 call	 ??0D3DXVECTOR3@@QAE@MMM@Z ; D3DXVECTOR3::D3DXVECTOR3
  00299	8b 4d c0	 mov	 ecx, DWORD PTR _pNewProjectile$[ebp]
  0029c	83 c1 1c	 add	 ecx, 28			; 0000001cH
  0029f	8b 10		 mov	 edx, DWORD PTR [eax]
  002a1	89 11		 mov	 DWORD PTR [ecx], edx
  002a3	8b 50 04	 mov	 edx, DWORD PTR [eax+4]
  002a6	89 51 04	 mov	 DWORD PTR [ecx+4], edx
  002a9	8b 40 08	 mov	 eax, DWORD PTR [eax+8]
  002ac	89 41 08	 mov	 DWORD PTR [ecx+8], eax

; 565  : 		pNewProjectile->fLength = 0.0f ;								// overridden below

  002af	8b 45 c0	 mov	 eax, DWORD PTR _pNewProjectile$[ebp]
  002b2	c7 40 28 00 00
	00 00		 mov	 DWORD PTR [eax+40], 0

; 566  : 		pNewProjectile->fImpactFXLifetime = 0.0f ;						// overridden below

  002b9	8b 45 c0	 mov	 eax, DWORD PTR _pNewProjectile$[ebp]
  002bc	c7 80 94 00 00
	00 00 00 00 00	 mov	 DWORD PTR [eax+148], 0

; 567  : 		pNewProjectile->fImpactFXSpeed = 0.0f ;							// overridden below

  002c6	8b 45 c0	 mov	 eax, DWORD PTR _pNewProjectile$[ebp]
  002c9	c7 80 98 00 00
	00 00 00 00 00	 mov	 DWORD PTR [eax+152], 0

; 568  : 
; 569  : 		pNewProjectile->bImpacting = FALSE ;

  002d3	8b 45 c0	 mov	 eax, DWORD PTR _pNewProjectile$[ebp]
  002d6	c7 80 90 00 00
	00 00 00 00 00	 mov	 DWORD PTR [eax+144], 0

; 570  : 		pNewProjectile->fImpactFXAge = 0.0f ;

  002e0	8b 45 c0	 mov	 eax, DWORD PTR _pNewProjectile$[ebp]
  002e3	c7 80 9c 00 00
	00 00 00 00 00	 mov	 DWORD PTR [eax+156], 0

; 571  : 
; 572  : 	// init. particle system
; 573  : 		pNewProjectile->pPS = new CParticleSystem( 512, 2048, 0.0f );

  002ed	6a 3c		 push	 60			; 0000003cH
  002ef	e8 00 00 00 00	 call	 ??2@YAPAXI@Z		; operator new
  002f4	83 c4 04	 add	 esp, 4
  002f7	89 85 20 fd ff
	ff		 mov	 DWORD PTR $T94649[ebp], eax
  002fd	83 bd 20 fd ff
	ff 00		 cmp	 DWORD PTR $T94649[ebp], 0
  00304	74 1f		 je	 SHORT $L94650
  00306	6a 00		 push	 0
  00308	68 00 08 00 00	 push	 2048			; 00000800H
  0030d	68 00 02 00 00	 push	 512			; 00000200H
  00312	8b 8d 20 fd ff
	ff		 mov	 ecx, DWORD PTR $T94649[ebp]
  00318	e8 00 00 00 00	 call	 ??0CParticleSystem@@QAE@KKM@Z ; CParticleSystem::CParticleSystem
  0031d	89 85 b4 fa ff
	ff		 mov	 DWORD PTR tv188[ebp], eax
  00323	eb 0a		 jmp	 SHORT $L94651
$L94650:
  00325	c7 85 b4 fa ff
	ff 00 00 00 00	 mov	 DWORD PTR tv188[ebp], 0
$L94651:
  0032f	8b 45 c0	 mov	 eax, DWORD PTR _pNewProjectile$[ebp]
  00332	8b 8d b4 fa ff
	ff		 mov	 ecx, DWORD PTR tv188[ebp]
  00338	89 88 84 00 00
	00		 mov	 DWORD PTR [eax+132], ecx

; 574  : 
; 575  : 	// define type-specfic data
; 576  : 		pNewProjectile->fDamage = g_Weapons[ Type ].fDamage ;

  0033e	8b 45 14	 mov	 eax, DWORD PTR _Type$[ebp]
  00341	c1 e0 04	 shl	 eax, 4
  00344	8b 4d c0	 mov	 ecx, DWORD PTR _pNewProjectile$[ebp]
  00347	8b 90 08 00 00
	00		 mov	 edx, DWORD PTR ?g_Weapons@@3PAUWEAPON_TYPE_DETAILS@@A[eax+8]
  0034d	89 51 04	 mov	 DWORD PTR [ecx+4], edx

; 577  : 		pNewProjectile->fLifetime = g_Weapons[ Type ].fLifetime ;

  00350	8b 45 14	 mov	 eax, DWORD PTR _Type$[ebp]
  00353	c1 e0 04	 shl	 eax, 4
  00356	8b 4d c0	 mov	 ecx, DWORD PTR _pNewProjectile$[ebp]
  00359	8b 90 04 00 00
	00		 mov	 edx, DWORD PTR ?g_Weapons@@3PAUWEAPON_TYPE_DETAILS@@A[eax+4]
  0035f	89 51 0c	 mov	 DWORD PTR [ecx+12], edx

; 578  : 		D3DXCOLOR colA, colB, col ;

  00362	8d 4d 90	 lea	 ecx, DWORD PTR _colA$[ebp]
  00365	e8 00 00 00 00	 call	 ??0D3DXCOLOR@@QAE@XZ	; D3DXCOLOR::D3DXCOLOR
  0036a	8d 8d 78 ff ff
	ff		 lea	 ecx, DWORD PTR _colB$[ebp]
  00370	e8 00 00 00 00	 call	 ??0D3DXCOLOR@@QAE@XZ	; D3DXCOLOR::D3DXCOLOR
  00375	8d 8d 60 ff ff
	ff		 lea	 ecx, DWORD PTR _col$[ebp]
  0037b	e8 00 00 00 00	 call	 ??0D3DXCOLOR@@QAE@XZ	; D3DXCOLOR::D3DXCOLOR

; 579  : 		if( WT_GREENLASER==Type )

  00380	83 7d 14 00	 cmp	 DWORD PTR _Type$[ebp], 0
  00384	0f 85 f3 00 00
	00		 jne	 $L93911

; 580  : 		{
; 581  : 			colA = D3DXCOLOR( 0.1f, 0.9f, 0.1f, 0.15f );

  0038a	68 9a 99 19 3e	 push	 1041865114		; 3e19999aH
  0038f	68 cd cc cc 3d	 push	 1036831949		; 3dcccccdH
  00394	68 66 66 66 3f	 push	 1063675494		; 3f666666H
  00399	68 cd cc cc 3d	 push	 1036831949		; 3dcccccdH
  0039e	8d 8d 08 fd ff
	ff		 lea	 ecx, DWORD PTR $T94652[ebp]
  003a4	e8 00 00 00 00	 call	 ??0D3DXCOLOR@@QAE@MMMM@Z ; D3DXCOLOR::D3DXCOLOR
  003a9	8b 08		 mov	 ecx, DWORD PTR [eax]
  003ab	89 4d 90	 mov	 DWORD PTR _colA$[ebp], ecx
  003ae	8b 50 04	 mov	 edx, DWORD PTR [eax+4]
  003b1	89 55 94	 mov	 DWORD PTR _colA$[ebp+4], edx
  003b4	8b 48 08	 mov	 ecx, DWORD PTR [eax+8]
  003b7	89 4d 98	 mov	 DWORD PTR _colA$[ebp+8], ecx
  003ba	8b 50 0c	 mov	 edx, DWORD PTR [eax+12]
  003bd	89 55 9c	 mov	 DWORD PTR _colA$[ebp+12], edx

; 582  : 			colB = D3DXCOLOR( 0.1f, 0.9f, 0.1f, 0.15f );

  003c0	68 9a 99 19 3e	 push	 1041865114		; 3e19999aH
  003c5	68 cd cc cc 3d	 push	 1036831949		; 3dcccccdH
  003ca	68 66 66 66 3f	 push	 1063675494		; 3f666666H
  003cf	68 cd cc cc 3d	 push	 1036831949		; 3dcccccdH
  003d4	8d 8d f0 fc ff
	ff		 lea	 ecx, DWORD PTR $T94653[ebp]
  003da	e8 00 00 00 00	 call	 ??0D3DXCOLOR@@QAE@MMMM@Z ; D3DXCOLOR::D3DXCOLOR
  003df	8b 08		 mov	 ecx, DWORD PTR [eax]
  003e1	89 8d 78 ff ff
	ff		 mov	 DWORD PTR _colB$[ebp], ecx
  003e7	8b 50 04	 mov	 edx, DWORD PTR [eax+4]
  003ea	89 95 7c ff ff
	ff		 mov	 DWORD PTR _colB$[ebp+4], edx
  003f0	8b 48 08	 mov	 ecx, DWORD PTR [eax+8]
  003f3	89 4d 80	 mov	 DWORD PTR _colB$[ebp+8], ecx
  003f6	8b 50 0c	 mov	 edx, DWORD PTR [eax+12]
  003f9	89 55 84	 mov	 DWORD PTR _colB$[ebp+12], edx

; 583  : 			pNewProjectile->fRenderSize = m_pFRO->m_fScaledLargestSide / 10 ;

  003fc	8b 45 f8	 mov	 eax, DWORD PTR _this$[ebp]
  003ff	8b 48 2c	 mov	 ecx, DWORD PTR [eax+44]
  00402	d9 81 d0 00 00
	00		 fld	 DWORD PTR [ecx+208]
  00408	d8 35 00 00 00
	00		 fdiv	 DWORD PTR __real@41200000
  0040e	8b 55 c0	 mov	 edx, DWORD PTR _pNewProjectile$[ebp]
  00411	d9 9a 88 00 00
	00		 fstp	 DWORD PTR [edx+136]

; 584  : 			pNewProjectile->fRenderSizeWhenImpacting = pNewProjectile->fRenderSize * 10 /*3*/ ;

  00417	8b 45 c0	 mov	 eax, DWORD PTR _pNewProjectile$[ebp]
  0041a	d9 80 88 00 00
	00		 fld	 DWORD PTR [eax+136]
  00420	d8 0d 00 00 00
	00		 fmul	 DWORD PTR __real@41200000
  00426	8b 4d c0	 mov	 ecx, DWORD PTR _pNewProjectile$[ebp]
  00429	d9 99 8c 00 00
	00		 fstp	 DWORD PTR [ecx+140]

; 585  : 			
; 586  : 			pNewProjectile->fImpactFXLifetime = 2.5f ;

  0042f	8b 45 c0	 mov	 eax, DWORD PTR _pNewProjectile$[ebp]
  00432	c7 80 94 00 00
	00 00 00 20 40	 mov	 DWORD PTR [eax+148], 1075838976 ; 40200000H

; 587  : 			pNewProjectile->fImpactFXSpeed = 80/*10*/ ;

  0043c	8b 45 c0	 mov	 eax, DWORD PTR _pNewProjectile$[ebp]
  0043f	c7 80 98 00 00
	00 00 00 a0 42	 mov	 DWORD PTR [eax+152], 1117782016 ; 42a00000H

; 588  : 
; 589  : 			pNewProjectile->fAccel = 0.0f ; //1.0f / 50.0f ;

  00449	8b 45 c0	 mov	 eax, DWORD PTR _pNewProjectile$[ebp]
  0044c	c7 40 38 00 00
	00 00		 mov	 DWORD PTR [eax+56], 0

; 590  : 			fSize = 30.0f ;

  00453	c6 85 d7 fa ff
	ff 01		 mov	 BYTE PTR $T94682[ebp], 1
  0045a	c7 45 ec 00 00
	f0 41		 mov	 DWORD PTR _fSize$[ebp], 1106247680 ; 41f00000H

; 591  : 			fSpeed = 0.5f ;

  00461	c6 85 cb fa ff
	ff 01		 mov	 BYTE PTR $T94683[ebp], 1
  00468	c7 45 a8 00 00
	00 3f		 mov	 DWORD PTR _fSpeed$[ebp], 1056964608 ; 3f000000H

; 592  : 			nParticles = 75 ;

  0046f	c6 85 bf fa ff
	ff 01		 mov	 BYTE PTR $T94684[ebp], 1
  00476	c7 45 e0 4b 00
	00 00		 mov	 DWORD PTR _nParticles$[ebp], 75 ; 0000004bH
$L93911:

; 593  : 		}
; 594  : 		if( WT_BLUELASER==Type )

  0047d	83 7d 14 01	 cmp	 DWORD PTR _Type$[ebp], 1
  00481	0f 85 f3 00 00
	00		 jne	 $L93914

; 595  : 		{
; 596  : 			colA = D3DXCOLOR( 0.1f, 0.1f, 0.9f, 0.15f );

  00487	68 9a 99 19 3e	 push	 1041865114		; 3e19999aH
  0048c	68 66 66 66 3f	 push	 1063675494		; 3f666666H
  00491	68 cd cc cc 3d	 push	 1036831949		; 3dcccccdH
  00496	68 cd cc cc 3d	 push	 1036831949		; 3dcccccdH
  0049b	8d 8d d8 fc ff
	ff		 lea	 ecx, DWORD PTR $T94654[ebp]
  004a1	e8 00 00 00 00	 call	 ??0D3DXCOLOR@@QAE@MMMM@Z ; D3DXCOLOR::D3DXCOLOR
  004a6	8b 08		 mov	 ecx, DWORD PTR [eax]
  004a8	89 4d 90	 mov	 DWORD PTR _colA$[ebp], ecx
  004ab	8b 50 04	 mov	 edx, DWORD PTR [eax+4]
  004ae	89 55 94	 mov	 DWORD PTR _colA$[ebp+4], edx
  004b1	8b 48 08	 mov	 ecx, DWORD PTR [eax+8]
  004b4	89 4d 98	 mov	 DWORD PTR _colA$[ebp+8], ecx
  004b7	8b 50 0c	 mov	 edx, DWORD PTR [eax+12]
  004ba	89 55 9c	 mov	 DWORD PTR _colA$[ebp+12], edx

; 597  : 			colB = D3DXCOLOR( 0.1f, 0.1f, 0.9f, 0.15f );

  004bd	68 9a 99 19 3e	 push	 1041865114		; 3e19999aH
  004c2	68 66 66 66 3f	 push	 1063675494		; 3f666666H
  004c7	68 cd cc cc 3d	 push	 1036831949		; 3dcccccdH
  004cc	68 cd cc cc 3d	 push	 1036831949		; 3dcccccdH
  004d1	8d 8d c0 fc ff
	ff		 lea	 ecx, DWORD PTR $T94655[ebp]
  004d7	e8 00 00 00 00	 call	 ??0D3DXCOLOR@@QAE@MMMM@Z ; D3DXCOLOR::D3DXCOLOR
  004dc	8b 08		 mov	 ecx, DWORD PTR [eax]
  004de	89 8d 78 ff ff
	ff		 mov	 DWORD PTR _colB$[ebp], ecx
  004e4	8b 50 04	 mov	 edx, DWORD PTR [eax+4]
  004e7	89 95 7c ff ff
	ff		 mov	 DWORD PTR _colB$[ebp+4], edx
  004ed	8b 48 08	 mov	 ecx, DWORD PTR [eax+8]
  004f0	89 4d 80	 mov	 DWORD PTR _colB$[ebp+8], ecx
  004f3	8b 50 0c	 mov	 edx, DWORD PTR [eax+12]
  004f6	89 55 84	 mov	 DWORD PTR _colB$[ebp+12], edx

; 598  : 			pNewProjectile->fRenderSize = m_pFRO->m_fScaledLargestSide / 5 ;

  004f9	8b 45 f8	 mov	 eax, DWORD PTR _this$[ebp]
  004fc	8b 48 2c	 mov	 ecx, DWORD PTR [eax+44]
  004ff	d9 81 d0 00 00
	00		 fld	 DWORD PTR [ecx+208]
  00505	d8 35 00 00 00
	00		 fdiv	 DWORD PTR __real@40a00000
  0050b	8b 55 c0	 mov	 edx, DWORD PTR _pNewProjectile$[ebp]
  0050e	d9 9a 88 00 00
	00		 fstp	 DWORD PTR [edx+136]

; 599  : 			pNewProjectile->fRenderSizeWhenImpacting = pNewProjectile->fRenderSize * 15 /*3*/ ;

  00514	8b 45 c0	 mov	 eax, DWORD PTR _pNewProjectile$[ebp]
  00517	d9 80 88 00 00
	00		 fld	 DWORD PTR [eax+136]
  0051d	d8 0d 00 00 00
	00		 fmul	 DWORD PTR __real@41700000
  00523	8b 4d c0	 mov	 ecx, DWORD PTR _pNewProjectile$[ebp]
  00526	d9 99 8c 00 00
	00		 fstp	 DWORD PTR [ecx+140]

; 600  : 			
; 601  : 			pNewProjectile->fImpactFXLifetime = 2.5f ;

  0052c	8b 45 c0	 mov	 eax, DWORD PTR _pNewProjectile$[ebp]
  0052f	c7 80 94 00 00
	00 00 00 20 40	 mov	 DWORD PTR [eax+148], 1075838976 ; 40200000H

; 602  : 			pNewProjectile->fImpactFXSpeed = 150/*10*/ ;

  00539	8b 45 c0	 mov	 eax, DWORD PTR _pNewProjectile$[ebp]
  0053c	c7 80 98 00 00
	00 00 00 16 43	 mov	 DWORD PTR [eax+152], 1125515264 ; 43160000H

; 603  : 
; 604  : 			pNewProjectile->fAccel = 0.0f ; //1.0f / 50.0f ;

  00546	8b 45 c0	 mov	 eax, DWORD PTR _pNewProjectile$[ebp]
  00549	c7 40 38 00 00
	00 00		 mov	 DWORD PTR [eax+56], 0

; 605  : 			fSize = 30.0f ;

  00550	c6 85 d7 fa ff
	ff 01		 mov	 BYTE PTR $T94682[ebp], 1
  00557	c7 45 ec 00 00
	f0 41		 mov	 DWORD PTR _fSize$[ebp], 1106247680 ; 41f00000H

; 606  : 			fSpeed = 0.75f ;

  0055e	c6 85 cb fa ff
	ff 01		 mov	 BYTE PTR $T94683[ebp], 1
  00565	c7 45 a8 00 00
	40 3f		 mov	 DWORD PTR _fSpeed$[ebp], 1061158912 ; 3f400000H

; 607  : 			nParticles = 100 ;

  0056c	c6 85 bf fa ff
	ff 01		 mov	 BYTE PTR $T94684[ebp], 1
  00573	c7 45 e0 64 00
	00 00		 mov	 DWORD PTR _nParticles$[ebp], 100 ; 00000064H
$L93914:

; 608  : 		}
; 609  : 		if( WT_BULLET==Type )

  0057a	83 7d 14 02	 cmp	 DWORD PTR _Type$[ebp], 2
  0057e	0f 85 ed 00 00
	00		 jne	 $L93917

; 610  : 		{
; 611  : 			colA = D3DXCOLOR( 1.0f, 1.0f, 1.0f, 0.0f );

  00584	6a 00		 push	 0
  00586	68 00 00 80 3f	 push	 1065353216		; 3f800000H
  0058b	68 00 00 80 3f	 push	 1065353216		; 3f800000H
  00590	68 00 00 80 3f	 push	 1065353216		; 3f800000H
  00595	8d 8d a8 fc ff
	ff		 lea	 ecx, DWORD PTR $T94656[ebp]
  0059b	e8 00 00 00 00	 call	 ??0D3DXCOLOR@@QAE@MMMM@Z ; D3DXCOLOR::D3DXCOLOR
  005a0	8b 08		 mov	 ecx, DWORD PTR [eax]
  005a2	89 4d 90	 mov	 DWORD PTR _colA$[ebp], ecx
  005a5	8b 50 04	 mov	 edx, DWORD PTR [eax+4]
  005a8	89 55 94	 mov	 DWORD PTR _colA$[ebp+4], edx
  005ab	8b 48 08	 mov	 ecx, DWORD PTR [eax+8]
  005ae	89 4d 98	 mov	 DWORD PTR _colA$[ebp+8], ecx
  005b1	8b 50 0c	 mov	 edx, DWORD PTR [eax+12]
  005b4	89 55 9c	 mov	 DWORD PTR _colA$[ebp+12], edx

; 612  : 			colB = D3DXCOLOR( 0.8f, 0.4f, 0.2f, 0.1f );

  005b7	68 cd cc cc 3d	 push	 1036831949		; 3dcccccdH
  005bc	68 cd cc 4c 3e	 push	 1045220557		; 3e4ccccdH
  005c1	68 cd cc cc 3e	 push	 1053609165		; 3ecccccdH
  005c6	68 cd cc 4c 3f	 push	 1061997773		; 3f4ccccdH
  005cb	8d 8d 90 fc ff
	ff		 lea	 ecx, DWORD PTR $T94657[ebp]
  005d1	e8 00 00 00 00	 call	 ??0D3DXCOLOR@@QAE@MMMM@Z ; D3DXCOLOR::D3DXCOLOR
  005d6	8b 08		 mov	 ecx, DWORD PTR [eax]
  005d8	89 8d 78 ff ff
	ff		 mov	 DWORD PTR _colB$[ebp], ecx
  005de	8b 50 04	 mov	 edx, DWORD PTR [eax+4]
  005e1	89 95 7c ff ff
	ff		 mov	 DWORD PTR _colB$[ebp+4], edx
  005e7	8b 48 08	 mov	 ecx, DWORD PTR [eax+8]
  005ea	89 4d 80	 mov	 DWORD PTR _colB$[ebp+8], ecx
  005ed	8b 50 0c	 mov	 edx, DWORD PTR [eax+12]
  005f0	89 55 84	 mov	 DWORD PTR _colB$[ebp+12], edx

; 613  : 			pNewProjectile->fRenderSize = m_pFRO->m_fScaledLargestSide / 20 ;

  005f3	8b 45 f8	 mov	 eax, DWORD PTR _this$[ebp]
  005f6	8b 48 2c	 mov	 ecx, DWORD PTR [eax+44]
  005f9	d9 81 d0 00 00
	00		 fld	 DWORD PTR [ecx+208]
  005ff	d8 35 00 00 00
	00		 fdiv	 DWORD PTR __real@41a00000
  00605	8b 55 c0	 mov	 edx, DWORD PTR _pNewProjectile$[ebp]
  00608	d9 9a 88 00 00
	00		 fstp	 DWORD PTR [edx+136]

; 614  : 			pNewProjectile->fRenderSizeWhenImpacting = m_pFRO->m_fScaledLargestSide ;

  0060e	8b 45 f8	 mov	 eax, DWORD PTR _this$[ebp]
  00611	8b 48 2c	 mov	 ecx, DWORD PTR [eax+44]
  00614	8b 55 c0	 mov	 edx, DWORD PTR _pNewProjectile$[ebp]
  00617	8b 81 d0 00 00
	00		 mov	 eax, DWORD PTR [ecx+208]
  0061d	89 82 8c 00 00
	00		 mov	 DWORD PTR [edx+140], eax

; 615  : 
; 616  : 			pNewProjectile->fImpactFXLifetime = 2.5f ;

  00623	8b 45 c0	 mov	 eax, DWORD PTR _pNewProjectile$[ebp]
  00626	c7 80 94 00 00
	00 00 00 20 40	 mov	 DWORD PTR [eax+148], 1075838976 ; 40200000H

; 617  : 			pNewProjectile->fImpactFXSpeed = 100/*10*/  ;

  00630	8b 45 c0	 mov	 eax, DWORD PTR _pNewProjectile$[ebp]
  00633	c7 80 98 00 00
	00 00 00 c8 42	 mov	 DWORD PTR [eax+152], 1120403456 ; 42c80000H

; 618  : 
; 619  : 			pNewProjectile->fAccel = 0.0f ;

  0063d	8b 45 c0	 mov	 eax, DWORD PTR _pNewProjectile$[ebp]
  00640	c7 40 38 00 00
	00 00		 mov	 DWORD PTR [eax+56], 0

; 620  : 			fSize = 30.0f ;

  00647	c6 85 d7 fa ff
	ff 01		 mov	 BYTE PTR $T94682[ebp], 1
  0064e	c7 45 ec 00 00
	f0 41		 mov	 DWORD PTR _fSize$[ebp], 1106247680 ; 41f00000H

; 621  : 			fSpeed = 1.5f ;

  00655	c6 85 cb fa ff
	ff 01		 mov	 BYTE PTR $T94683[ebp], 1
  0065c	c7 45 a8 00 00
	c0 3f		 mov	 DWORD PTR _fSpeed$[ebp], 1069547520 ; 3fc00000H

; 622  : 			nParticles = 75 ;

  00663	c6 85 bf fa ff
	ff 01		 mov	 BYTE PTR $T94684[ebp], 1
  0066a	c7 45 e0 4b 00
	00 00		 mov	 DWORD PTR _nParticles$[ebp], 75 ; 0000004bH
$L93917:

; 623  : 		}
; 624  : 
; 625  : 		pNewProjectile->vVel = ( m_fSpeed * m_vOrientation ) +			// projectile speed
; 626  : 							   m_vOrientation * ( m_fMaxThrustMag * fSpeed * (60.0f / fFPS) ) + 
; 627  : 							   m_vExternalForce * (60.0f / fFPS );

  00671	80 bd cb fa ff
	ff 00		 cmp	 BYTE PTR $T94683[ebp], 0
  00678	75 0d		 jne	 SHORT $L94685
  0067a	68 00 00 00 00	 push	 OFFSET FLAT:$L94686
  0067f	e8 00 00 00 00	 call	 __RTC_UninitUse
  00684	83 c4 04	 add	 esp, 4
$L94685:
  00687	d9 05 00 00 00
	00		 fld	 DWORD PTR __real@42700000
  0068d	d8 75 0c	 fdiv	 DWORD PTR _fFPS$[ebp]
  00690	51		 push	 ecx
  00691	d9 1c 24	 fstp	 DWORD PTR [esp]
  00694	8d 85 40 fc ff
	ff		 lea	 eax, DWORD PTR $T94661[ebp]
  0069a	50		 push	 eax
  0069b	8b 4d f8	 mov	 ecx, DWORD PTR _this$[ebp]
  0069e	81 c1 08 02 00
	00		 add	 ecx, 520		; 00000208H
  006a4	e8 00 00 00 00	 call	 ??DD3DXVECTOR3@@QBE?AU0@M@Z ; D3DXVECTOR3::operator*
  006a9	50		 push	 eax
  006aa	8d 8d 2c fc ff
	ff		 lea	 ecx, DWORD PTR $T94662[ebp]
  006b0	51		 push	 ecx
  006b1	8b 55 f8	 mov	 edx, DWORD PTR _this$[ebp]
  006b4	d9 45 a8	 fld	 DWORD PTR _fSpeed$[ebp]
  006b7	d8 8a b4 01 00
	00		 fmul	 DWORD PTR [edx+436]
  006bd	d9 05 00 00 00
	00		 fld	 DWORD PTR __real@42700000
  006c3	d8 75 0c	 fdiv	 DWORD PTR _fFPS$[ebp]
  006c6	de c9		 fmulp	 ST(1), ST(0)
  006c8	51		 push	 ecx
  006c9	d9 1c 24	 fstp	 DWORD PTR [esp]
  006cc	8d 85 68 fc ff
	ff		 lea	 eax, DWORD PTR $T94659[ebp]
  006d2	50		 push	 eax
  006d3	8b 4d f8	 mov	 ecx, DWORD PTR _this$[ebp]
  006d6	81 c1 c0 01 00
	00		 add	 ecx, 448		; 000001c0H
  006dc	e8 00 00 00 00	 call	 ??DD3DXVECTOR3@@QBE?AU0@M@Z ; D3DXVECTOR3::operator*
  006e1	50		 push	 eax
  006e2	8d 8d 54 fc ff
	ff		 lea	 ecx, DWORD PTR $T94660[ebp]
  006e8	51		 push	 ecx
  006e9	8b 55 f8	 mov	 edx, DWORD PTR _this$[ebp]
  006ec	81 c2 c0 01 00
	00		 add	 edx, 448		; 000001c0H
  006f2	52		 push	 edx
  006f3	8b 45 f8	 mov	 eax, DWORD PTR _this$[ebp]
  006f6	8b 88 a4 01 00
	00		 mov	 ecx, DWORD PTR [eax+420]
  006fc	51		 push	 ecx
  006fd	8d 95 7c fc ff
	ff		 lea	 edx, DWORD PTR $T94658[ebp]
  00703	52		 push	 edx
  00704	e8 00 00 00 00	 call	 ??D@YA?AUD3DXVECTOR3@@MABU0@@Z ; operator*
  00709	83 c4 0c	 add	 esp, 12			; 0000000cH
  0070c	8b c8		 mov	 ecx, eax
  0070e	e8 00 00 00 00	 call	 ??HD3DXVECTOR3@@QBE?AU0@ABU0@@Z ; D3DXVECTOR3::operator+
  00713	8b c8		 mov	 ecx, eax
  00715	e8 00 00 00 00	 call	 ??HD3DXVECTOR3@@QBE?AU0@ABU0@@Z ; D3DXVECTOR3::operator+
  0071a	8b 4d c0	 mov	 ecx, DWORD PTR _pNewProjectile$[ebp]
  0071d	83 c1 2c	 add	 ecx, 44			; 0000002cH
  00720	8b 10		 mov	 edx, DWORD PTR [eax]
  00722	89 11		 mov	 DWORD PTR [ecx], edx
  00724	8b 50 04	 mov	 edx, DWORD PTR [eax+4]
  00727	89 51 04	 mov	 DWORD PTR [ecx+4], edx
  0072a	8b 40 08	 mov	 eax, DWORD PTR [eax+8]
  0072d	89 41 08	 mov	 DWORD PTR [ecx+8], eax

; 628  : 		//ods(" pNewProjectile->vVel: %0.1f\n", D3DXVec3Length( &pNewProjectile->vVel ) );
; 629  : 	
; 630  : 	//
; 631  : 	// Scale all projectile parameters according to fighter's core weapon level:
; 632  : 	//
; 633  : 		float fMultiplier = ( m_fWeaponsLevel / 0.1f ) ;	// 2.5 times, at max weapons level

  00730	8b 45 f8	 mov	 eax, DWORD PTR _this$[ebp]
  00733	d9 80 0c 03 00
	00		 fld	 DWORD PTR [eax+780]
  00739	d8 35 00 00 00
	00		 fdiv	 DWORD PTR __real@3dcccccd
  0073f	d9 9d 54 ff ff
	ff		 fstp	 DWORD PTR _fMultiplier$[ebp]

; 634  : 		pNewProjectile->fDamage *= fMultiplier ;

  00745	8b 45 c0	 mov	 eax, DWORD PTR _pNewProjectile$[ebp]
  00748	d9 85 54 ff ff
	ff		 fld	 DWORD PTR _fMultiplier$[ebp]
  0074e	d8 48 04	 fmul	 DWORD PTR [eax+4]
  00751	8b 4d c0	 mov	 ecx, DWORD PTR _pNewProjectile$[ebp]
  00754	d9 59 04	 fstp	 DWORD PTR [ecx+4]

; 635  : 		pNewProjectile->fRenderSize *= fMultiplier ;

  00757	8b 45 c0	 mov	 eax, DWORD PTR _pNewProjectile$[ebp]
  0075a	d9 85 54 ff ff
	ff		 fld	 DWORD PTR _fMultiplier$[ebp]
  00760	d8 88 88 00 00
	00		 fmul	 DWORD PTR [eax+136]
  00766	8b 4d c0	 mov	 ecx, DWORD PTR _pNewProjectile$[ebp]
  00769	d9 99 88 00 00
	00		 fstp	 DWORD PTR [ecx+136]

; 636  : 		pNewProjectile->fRenderSizeWhenImpacting *= fMultiplier ;

  0076f	8b 45 c0	 mov	 eax, DWORD PTR _pNewProjectile$[ebp]
  00772	d9 85 54 ff ff
	ff		 fld	 DWORD PTR _fMultiplier$[ebp]
  00778	d8 88 8c 00 00
	00		 fmul	 DWORD PTR [eax+140]
  0077e	8b 4d c0	 mov	 ecx, DWORD PTR _pNewProjectile$[ebp]
  00781	d9 99 8c 00 00
	00		 fstp	 DWORD PTR [ecx+140]

; 637  : 		pNewProjectile->fImpactFXLifetime *= fMultiplier ;

  00787	8b 45 c0	 mov	 eax, DWORD PTR _pNewProjectile$[ebp]
  0078a	d9 85 54 ff ff
	ff		 fld	 DWORD PTR _fMultiplier$[ebp]
  00790	d8 88 94 00 00
	00		 fmul	 DWORD PTR [eax+148]
  00796	8b 4d c0	 mov	 ecx, DWORD PTR _pNewProjectile$[ebp]
  00799	d9 99 94 00 00
	00		 fstp	 DWORD PTR [ecx+148]

; 638  : 		pNewProjectile->fImpactFXSpeed /= fMultiplier ;

  0079f	8b 45 c0	 mov	 eax, DWORD PTR _pNewProjectile$[ebp]
  007a2	d9 80 98 00 00
	00		 fld	 DWORD PTR [eax+152]
  007a8	d8 b5 54 ff ff
	ff		 fdiv	 DWORD PTR _fMultiplier$[ebp]
  007ae	8b 4d c0	 mov	 ecx, DWORD PTR _pNewProjectile$[ebp]
  007b1	d9 99 98 00 00
	00		 fstp	 DWORD PTR [ecx+152]

; 639  : 		fSize *= fMultiplier ;

  007b7	80 bd d7 fa ff
	ff 00		 cmp	 BYTE PTR $T94682[ebp], 0
  007be	75 0d		 jne	 SHORT $L94688
  007c0	68 00 00 00 00	 push	 OFFSET FLAT:$L94689
  007c5	e8 00 00 00 00	 call	 __RTC_UninitUse
  007ca	83 c4 04	 add	 esp, 4
$L94688:
  007cd	d9 45 ec	 fld	 DWORD PTR _fSize$[ebp]
  007d0	d8 8d 54 ff ff
	ff		 fmul	 DWORD PTR _fMultiplier$[ebp]
  007d6	c6 85 d7 fa ff
	ff 01		 mov	 BYTE PTR $T94682[ebp], 1
  007dd	d9 5d ec	 fstp	 DWORD PTR _fSize$[ebp]

; 640  : 		fSpeed *= fMultiplier ;

  007e0	80 bd cb fa ff
	ff 00		 cmp	 BYTE PTR $T94683[ebp], 0
  007e7	75 0d		 jne	 SHORT $L94690
  007e9	68 00 00 00 00	 push	 OFFSET FLAT:$L94686
  007ee	e8 00 00 00 00	 call	 __RTC_UninitUse
  007f3	83 c4 04	 add	 esp, 4
$L94690:
  007f6	d9 45 a8	 fld	 DWORD PTR _fSpeed$[ebp]
  007f9	d8 8d 54 ff ff
	ff		 fmul	 DWORD PTR _fMultiplier$[ebp]
  007ff	c6 85 cb fa ff
	ff 01		 mov	 BYTE PTR $T94683[ebp], 1
  00806	d9 5d a8	 fstp	 DWORD PTR _fSpeed$[ebp]

; 641  : 		
; 642  : 	// projectiles with 'static'-type particle systems need a base world matrix defined;
; 643  : 		if( pNewProjectile->bStaticPS )

  00809	8b 45 c0	 mov	 eax, DWORD PTR _pNewProjectile$[ebp]
  0080c	83 78 40 00	 cmp	 DWORD PTR [eax+64], 0
  00810	0f 84 83 00 00
	00		 je	 $L93926

; 644  : 		{
; 645  : 			xMat mT ;

  00816	8d 8d 08 ff ff
	ff		 lea	 ecx, DWORD PTR _mT$93927[ebp]
  0081c	e8 00 00 00 00	 call	 ??0D3DXMATRIX@@QAE@XZ	; D3DXMATRIX::D3DXMATRIX

; 646  : 			
; 647  : 			D3DXMatrixTranslation( &pNewProjectile->matWorld, vEmitterPos.x, vEmitterPos.y, vEmitterPos.z );

  00821	8b 45 d4	 mov	 eax, DWORD PTR _vEmitterPos$[ebp+8]
  00824	50		 push	 eax
  00825	8b 4d d0	 mov	 ecx, DWORD PTR _vEmitterPos$[ebp+4]
  00828	51		 push	 ecx
  00829	8b 55 cc	 mov	 edx, DWORD PTR _vEmitterPos$[ebp]
  0082c	52		 push	 edx
  0082d	8b 45 c0	 mov	 eax, DWORD PTR _pNewProjectile$[ebp]
  00830	83 c0 44	 add	 eax, 68			; 00000044H
  00833	50		 push	 eax
  00834	e8 00 00 00 00	 call	 _D3DXMatrixTranslation@16

; 648  : 			D3DXMatrixMultiply( &pNewProjectile->matWorld, &pNewProjectile->matWorld, &m_matRot );

  00839	8b 45 f8	 mov	 eax, DWORD PTR _this$[ebp]
  0083c	05 64 02 00 00	 add	 eax, 612		; 00000264H
  00841	50		 push	 eax
  00842	8b 4d c0	 mov	 ecx, DWORD PTR _pNewProjectile$[ebp]
  00845	83 c1 44	 add	 ecx, 68			; 00000044H
  00848	51		 push	 ecx
  00849	8b 55 c0	 mov	 edx, DWORD PTR _pNewProjectile$[ebp]
  0084c	83 c2 44	 add	 edx, 68			; 00000044H
  0084f	52		 push	 edx
  00850	e8 00 00 00 00	 call	 _D3DXMatrixMultiply@12

; 649  : 				
; 650  : 			D3DXMatrixTranslation( &mT, m_vPosition.x, m_vPosition.y, m_vPosition.z );

  00855	8b 45 f8	 mov	 eax, DWORD PTR _this$[ebp]
  00858	8b 88 04 02 00
	00		 mov	 ecx, DWORD PTR [eax+516]
  0085e	51		 push	 ecx
  0085f	8b 55 f8	 mov	 edx, DWORD PTR _this$[ebp]
  00862	8b 82 00 02 00
	00		 mov	 eax, DWORD PTR [edx+512]
  00868	50		 push	 eax
  00869	8b 4d f8	 mov	 ecx, DWORD PTR _this$[ebp]
  0086c	8b 91 fc 01 00
	00		 mov	 edx, DWORD PTR [ecx+508]
  00872	52		 push	 edx
  00873	8d 85 08 ff ff
	ff		 lea	 eax, DWORD PTR _mT$93927[ebp]
  00879	50		 push	 eax
  0087a	e8 00 00 00 00	 call	 _D3DXMatrixTranslation@16

; 651  : 			D3DXMatrixMultiply( &pNewProjectile->matWorld, &pNewProjectile->matWorld, &mT );

  0087f	8d 85 08 ff ff
	ff		 lea	 eax, DWORD PTR _mT$93927[ebp]
  00885	50		 push	 eax
  00886	8b 4d c0	 mov	 ecx, DWORD PTR _pNewProjectile$[ebp]
  00889	83 c1 44	 add	 ecx, 68			; 00000044H
  0088c	51		 push	 ecx
  0088d	8b 55 c0	 mov	 edx, DWORD PTR _pNewProjectile$[ebp]
  00890	83 c2 44	 add	 edx, 68			; 00000044H
  00893	52		 push	 edx
  00894	e8 00 00 00 00	 call	 _D3DXMatrixMultiply@12
$L93926:

; 652  : 		}
; 653  : 
; 654  : 	// build projectile particle system;
; 655  : 		xVec3 vOBBox[ 8 ];

  00899	68 00 00 00 00	 push	 OFFSET FLAT:??0D3DXVECTOR3@@QAE@XZ ; D3DXVECTOR3::D3DXVECTOR3
  0089e	6a 08		 push	 8
  008a0	6a 0c		 push	 12			; 0000000cH
  008a2	8d 85 a0 fe ff
	ff		 lea	 eax, DWORD PTR _vOBBox$[ebp]
  008a8	50		 push	 eax
  008a9	e8 00 00 00 00	 call	 ??_H@YGXPAXIHP6EPAX0@Z@Z

; 656  : 
; 657  : 		for( int intI=0; intI<=nParticles; intI++ )

  008ae	c7 85 94 fe ff
	ff 00 00 00 00	 mov	 DWORD PTR _intI$93930[ebp], 0
  008b8	eb 0f		 jmp	 SHORT $L93931
$L93932:
  008ba	8b 85 94 fe ff
	ff		 mov	 eax, DWORD PTR _intI$93930[ebp]
  008c0	83 c0 01	 add	 eax, 1
  008c3	89 85 94 fe ff
	ff		 mov	 DWORD PTR _intI$93930[ebp], eax
$L93931:
  008c9	80 bd bf fa ff
	ff 00		 cmp	 BYTE PTR $T94684[ebp], 0
  008d0	75 0d		 jne	 SHORT $L94691
  008d2	68 00 00 00 00	 push	 OFFSET FLAT:$L94692
  008d7	e8 00 00 00 00	 call	 __RTC_UninitUse
  008dc	83 c4 04	 add	 esp, 4
$L94691:
  008df	8b 85 94 fe ff
	ff		 mov	 eax, DWORD PTR _intI$93930[ebp]
  008e5	3b 45 e0	 cmp	 eax, DWORD PTR _nParticles$[ebp]
  008e8	0f 8f 09 05 00
	00		 jg	 $L93933

; 658  : 		{	float i = (float)intI / (float)nParticles ;

  008ee	80 bd bf fa ff
	ff 00		 cmp	 BYTE PTR $T94684[ebp], 0
  008f5	75 0d		 jne	 SHORT $L94693
  008f7	68 00 00 00 00	 push	 OFFSET FLAT:$L94692
  008fc	e8 00 00 00 00	 call	 __RTC_UninitUse
  00901	83 c4 04	 add	 esp, 4
$L94693:
  00904	db 85 94 fe ff
	ff		 fild	 DWORD PTR _intI$93930[ebp]
  0090a	da 75 e0	 fidiv	 DWORD PTR _nParticles$[ebp]
  0090d	d9 9d 88 fe ff
	ff		 fstp	 DWORD PTR _i$93934[ebp]

; 659  : 
; 660  : 		// lerp between start and end colors
; 661  : 			D3DXColorLerp( &col, &colA, &colB, i );

  00913	8b 85 88 fe ff
	ff		 mov	 eax, DWORD PTR _i$93934[ebp]
  00919	50		 push	 eax
  0091a	8d 8d 78 ff ff
	ff		 lea	 ecx, DWORD PTR _colB$[ebp]
  00920	51		 push	 ecx
  00921	8d 55 90	 lea	 edx, DWORD PTR _colA$[ebp]
  00924	52		 push	 edx
  00925	8d 85 60 ff ff
	ff		 lea	 eax, DWORD PTR _col$[ebp]
  0092b	50		 push	 eax
  0092c	e8 00 00 00 00	 call	 ?D3DXColorLerp@@YAPAUD3DXCOLOR@@PAU1@PBU1@1M@Z ; D3DXColorLerp
  00931	83 c4 10	 add	 esp, 16			; 00000010H

; 662  : 
; 663  : 		// determine where to spawn the particle
; 664  : 		// NOTE: the difference between the 'dynamic' and 'static' -type particle systems here;
; 665  : 		// 'static' particle systems spawn from the world-origin, and extend _straight_ into the z plane
; 666  : 		// 'dynamic' particle systems spawn from the absolute emmiter position
; 667  : 			xVec3 vAdd, vEmitterRotatedPos, vParticlePos ;

  00934	8d 8d 74 fe ff
	ff		 lea	 ecx, DWORD PTR _vAdd$93937[ebp]
  0093a	e8 00 00 00 00	 call	 ??0D3DXVECTOR3@@QAE@XZ	; D3DXVECTOR3::D3DXVECTOR3
  0093f	8d 8d 60 fe ff
	ff		 lea	 ecx, DWORD PTR _vEmitterRotatedPos$93938[ebp]
  00945	e8 00 00 00 00	 call	 ??0D3DXVECTOR3@@QAE@XZ	; D3DXVECTOR3::D3DXVECTOR3
  0094a	8d 8d 4c fe ff
	ff		 lea	 ecx, DWORD PTR _vParticlePos$93939[ebp]
  00950	e8 00 00 00 00	 call	 ??0D3DXVECTOR3@@QAE@XZ	; D3DXVECTOR3::D3DXVECTOR3

; 668  : 			float fAddStraight ;
; 669  : 			fAddStraight = m_pFRO->m_pRenderData->m_fBSphereRadius * i * fSize ;

  00955	80 bd d7 fa ff
	ff 00		 cmp	 BYTE PTR $T94682[ebp], 0
  0095c	75 0d		 jne	 SHORT $L94694
  0095e	68 00 00 00 00	 push	 OFFSET FLAT:$L94689
  00963	e8 00 00 00 00	 call	 __RTC_UninitUse
  00968	83 c4 04	 add	 esp, 4
$L94694:
  0096b	8b 45 f8	 mov	 eax, DWORD PTR _this$[ebp]
  0096e	8b 48 2c	 mov	 ecx, DWORD PTR [eax+44]
  00971	8b 11		 mov	 edx, DWORD PTR [ecx]
  00973	d9 85 88 fe ff
	ff		 fld	 DWORD PTR _i$93934[ebp]
  00979	d8 8a 38 01 00
	00		 fmul	 DWORD PTR [edx+312]
  0097f	d8 4d ec	 fmul	 DWORD PTR _fSize$[ebp]
  00982	d9 9d 40 fe ff
	ff		 fstp	 DWORD PTR _fAddStraight$93940[ebp]

; 670  : 			vAdd = fAddStraight * m_vOrientation ;

  00988	8b 45 f8	 mov	 eax, DWORD PTR _this$[ebp]
  0098b	05 c0 01 00 00	 add	 eax, 448		; 000001c0H
  00990	50		 push	 eax
  00991	8b 8d 40 fe ff
	ff		 mov	 ecx, DWORD PTR _fAddStraight$93940[ebp]
  00997	51		 push	 ecx
  00998	8d 95 18 fc ff
	ff		 lea	 edx, DWORD PTR $T94663[ebp]
  0099e	52		 push	 edx
  0099f	e8 00 00 00 00	 call	 ??D@YA?AUD3DXVECTOR3@@MABU0@@Z ; operator*
  009a4	83 c4 0c	 add	 esp, 12			; 0000000cH
  009a7	8b 08		 mov	 ecx, DWORD PTR [eax]
  009a9	89 8d 74 fe ff
	ff		 mov	 DWORD PTR _vAdd$93937[ebp], ecx
  009af	8b 50 04	 mov	 edx, DWORD PTR [eax+4]
  009b2	89 95 78 fe ff
	ff		 mov	 DWORD PTR _vAdd$93937[ebp+4], edx
  009b8	8b 40 08	 mov	 eax, DWORD PTR [eax+8]
  009bb	89 85 7c fe ff
	ff		 mov	 DWORD PTR _vAdd$93937[ebp+8], eax

; 671  : 			
; 672  : 			GetFighterAbsPosFromRelative( (xVec3*)&(vEmitterPos + m_vPosition), &vEmitterRotatedPos );

  009c1	8d 85 60 fe ff
	ff		 lea	 eax, DWORD PTR _vEmitterRotatedPos$93938[ebp]
  009c7	50		 push	 eax
  009c8	8b 4d f8	 mov	 ecx, DWORD PTR _this$[ebp]
  009cb	81 c1 fc 01 00
	00		 add	 ecx, 508		; 000001fcH
  009d1	51		 push	 ecx
  009d2	8d 95 04 fc ff
	ff		 lea	 edx, DWORD PTR $T94664[ebp]
  009d8	52		 push	 edx
  009d9	8d 4d cc	 lea	 ecx, DWORD PTR _vEmitterPos$[ebp]
  009dc	e8 00 00 00 00	 call	 ??HD3DXVECTOR3@@QBE?AU0@ABU0@@Z ; D3DXVECTOR3::operator+
  009e1	50		 push	 eax
  009e2	8b 4d f8	 mov	 ecx, DWORD PTR _this$[ebp]
  009e5	e8 00 00 00 00	 call	 ?GetFighterAbsPosFromRelative@CFighter@@QAEHPAUD3DXVECTOR3@@0@Z ; CFighter::GetFighterAbsPosFromRelative

; 673  : 
; 674  : 			if( pNewProjectile->bStaticPS )

  009ea	8b 45 c0	 mov	 eax, DWORD PTR _pNewProjectile$[ebp]
  009ed	83 78 40 00	 cmp	 DWORD PTR [eax+64], 0
  009f1	74 37		 je	 SHORT $L93944

; 675  : 				vParticlePos = xVec3( 0, 0, -fAddStraight );

  009f3	d9 85 40 fe ff
	ff		 fld	 DWORD PTR _fAddStraight$93940[ebp]
  009f9	d9 e0		 fchs
  009fb	51		 push	 ecx
  009fc	d9 1c 24	 fstp	 DWORD PTR [esp]
  009ff	6a 00		 push	 0
  00a01	6a 00		 push	 0
  00a03	8d 8d f0 fb ff
	ff		 lea	 ecx, DWORD PTR $T94665[ebp]
  00a09	e8 00 00 00 00	 call	 ??0D3DXVECTOR3@@QAE@MMM@Z ; D3DXVECTOR3::D3DXVECTOR3
  00a0e	8b 08		 mov	 ecx, DWORD PTR [eax]
  00a10	89 8d 4c fe ff
	ff		 mov	 DWORD PTR _vParticlePos$93939[ebp], ecx
  00a16	8b 50 04	 mov	 edx, DWORD PTR [eax+4]
  00a19	89 95 50 fe ff
	ff		 mov	 DWORD PTR _vParticlePos$93939[ebp+4], edx
  00a1f	8b 40 08	 mov	 eax, DWORD PTR [eax+8]
  00a22	89 85 54 fe ff
	ff		 mov	 DWORD PTR _vParticlePos$93939[ebp+8], eax

; 676  : 			else

  00a28	eb 33		 jmp	 SHORT $L93946
$L93944:

; 677  : 				vParticlePos = vEmitterRotatedPos + vAdd ;

  00a2a	8d 85 74 fe ff
	ff		 lea	 eax, DWORD PTR _vAdd$93937[ebp]
  00a30	50		 push	 eax
  00a31	8d 8d dc fb ff
	ff		 lea	 ecx, DWORD PTR $T94666[ebp]
  00a37	51		 push	 ecx
  00a38	8d 8d 60 fe ff
	ff		 lea	 ecx, DWORD PTR _vEmitterRotatedPos$93938[ebp]
  00a3e	e8 00 00 00 00	 call	 ??HD3DXVECTOR3@@QBE?AU0@ABU0@@Z ; D3DXVECTOR3::operator+
  00a43	8b 10		 mov	 edx, DWORD PTR [eax]
  00a45	89 95 4c fe ff
	ff		 mov	 DWORD PTR _vParticlePos$93939[ebp], edx
  00a4b	8b 48 04	 mov	 ecx, DWORD PTR [eax+4]
  00a4e	89 8d 50 fe ff
	ff		 mov	 DWORD PTR _vParticlePos$93939[ebp+4], ecx
  00a54	8b 50 08	 mov	 edx, DWORD PTR [eax+8]
  00a57	89 95 54 fe ff
	ff		 mov	 DWORD PTR _vParticlePos$93939[ebp+8], edx
$L93946:

; 678  : 
; 679  : 		// keep track of the effect's bounding volume, length and leading & trailing points
; 680  : 			if( i==0.0f )

  00a5d	d9 85 88 fe ff
	ff		 fld	 DWORD PTR _i$93934[ebp]
  00a63	d8 1d 00 00 00
	00		 fcomp	 DWORD PTR __real@00000000
  00a69	df e0		 fnstsw	 ax
  00a6b	f6 c4 44	 test	 ah, 68			; 00000044H
  00a6e	0f 8a 6b 01 00
	00		 jp	 $L93948

; 681  : 			{
; 682  : 				vOBBox[ 0 ] = xVec3( -pNewProjectile->fRenderSize / 2.0f, -pNewProjectile->fRenderSize / 2.0f, 0 );

  00a74	6a 00		 push	 0
  00a76	8b 45 c0	 mov	 eax, DWORD PTR _pNewProjectile$[ebp]
  00a79	d9 80 88 00 00
	00		 fld	 DWORD PTR [eax+136]
  00a7f	d9 e0		 fchs
  00a81	d8 35 00 00 00
	00		 fdiv	 DWORD PTR __real@40000000
  00a87	51		 push	 ecx
  00a88	d9 1c 24	 fstp	 DWORD PTR [esp]
  00a8b	8b 4d c0	 mov	 ecx, DWORD PTR _pNewProjectile$[ebp]
  00a8e	d9 81 88 00 00
	00		 fld	 DWORD PTR [ecx+136]
  00a94	d9 e0		 fchs
  00a96	d8 35 00 00 00
	00		 fdiv	 DWORD PTR __real@40000000
  00a9c	51		 push	 ecx
  00a9d	d9 1c 24	 fstp	 DWORD PTR [esp]
  00aa0	8d 8d c8 fb ff
	ff		 lea	 ecx, DWORD PTR $T94667[ebp]
  00aa6	e8 00 00 00 00	 call	 ??0D3DXVECTOR3@@QAE@MMM@Z ; D3DXVECTOR3::D3DXVECTOR3
  00aab	8b 10		 mov	 edx, DWORD PTR [eax]
  00aad	89 95 a0 fe ff
	ff		 mov	 DWORD PTR _vOBBox$[ebp], edx
  00ab3	8b 48 04	 mov	 ecx, DWORD PTR [eax+4]
  00ab6	89 8d a4 fe ff
	ff		 mov	 DWORD PTR _vOBBox$[ebp+4], ecx
  00abc	8b 50 08	 mov	 edx, DWORD PTR [eax+8]
  00abf	89 95 a8 fe ff
	ff		 mov	 DWORD PTR _vOBBox$[ebp+8], edx

; 683  : 				vOBBox[ 1 ] = xVec3( +pNewProjectile->fRenderSize / 2.0f, -pNewProjectile->fRenderSize / 2.0f, 0 );

  00ac5	6a 00		 push	 0
  00ac7	8b 45 c0	 mov	 eax, DWORD PTR _pNewProjectile$[ebp]
  00aca	d9 80 88 00 00
	00		 fld	 DWORD PTR [eax+136]
  00ad0	d9 e0		 fchs
  00ad2	d8 35 00 00 00
	00		 fdiv	 DWORD PTR __real@40000000
  00ad8	51		 push	 ecx
  00ad9	d9 1c 24	 fstp	 DWORD PTR [esp]
  00adc	8b 4d c0	 mov	 ecx, DWORD PTR _pNewProjectile$[ebp]
  00adf	d9 81 88 00 00
	00		 fld	 DWORD PTR [ecx+136]
  00ae5	d8 35 00 00 00
	00		 fdiv	 DWORD PTR __real@40000000
  00aeb	51		 push	 ecx
  00aec	d9 1c 24	 fstp	 DWORD PTR [esp]
  00aef	8d 8d b4 fb ff
	ff		 lea	 ecx, DWORD PTR $T94668[ebp]
  00af5	e8 00 00 00 00	 call	 ??0D3DXVECTOR3@@QAE@MMM@Z ; D3DXVECTOR3::D3DXVECTOR3
  00afa	8b 10		 mov	 edx, DWORD PTR [eax]
  00afc	89 95 ac fe ff
	ff		 mov	 DWORD PTR _vOBBox$[ebp+12], edx
  00b02	8b 48 04	 mov	 ecx, DWORD PTR [eax+4]
  00b05	89 8d b0 fe ff
	ff		 mov	 DWORD PTR _vOBBox$[ebp+16], ecx
  00b0b	8b 50 08	 mov	 edx, DWORD PTR [eax+8]
  00b0e	89 95 b4 fe ff
	ff		 mov	 DWORD PTR _vOBBox$[ebp+20], edx

; 684  : 				vOBBox[ 2 ] = xVec3( -pNewProjectile->fRenderSize / 2.0f, +pNewProjectile->fRenderSize / 2.0f, 0 );

  00b14	6a 00		 push	 0
  00b16	8b 45 c0	 mov	 eax, DWORD PTR _pNewProjectile$[ebp]
  00b19	d9 80 88 00 00
	00		 fld	 DWORD PTR [eax+136]
  00b1f	d8 35 00 00 00
	00		 fdiv	 DWORD PTR __real@40000000
  00b25	51		 push	 ecx
  00b26	d9 1c 24	 fstp	 DWORD PTR [esp]
  00b29	8b 4d c0	 mov	 ecx, DWORD PTR _pNewProjectile$[ebp]
  00b2c	d9 81 88 00 00
	00		 fld	 DWORD PTR [ecx+136]
  00b32	d9 e0		 fchs
  00b34	d8 35 00 00 00
	00		 fdiv	 DWORD PTR __real@40000000
  00b3a	51		 push	 ecx
  00b3b	d9 1c 24	 fstp	 DWORD PTR [esp]
  00b3e	8d 8d a0 fb ff
	ff		 lea	 ecx, DWORD PTR $T94669[ebp]
  00b44	e8 00 00 00 00	 call	 ??0D3DXVECTOR3@@QAE@MMM@Z ; D3DXVECTOR3::D3DXVECTOR3
  00b49	8b 10		 mov	 edx, DWORD PTR [eax]
  00b4b	89 95 b8 fe ff
	ff		 mov	 DWORD PTR _vOBBox$[ebp+24], edx
  00b51	8b 48 04	 mov	 ecx, DWORD PTR [eax+4]
  00b54	89 8d bc fe ff
	ff		 mov	 DWORD PTR _vOBBox$[ebp+28], ecx
  00b5a	8b 50 08	 mov	 edx, DWORD PTR [eax+8]
  00b5d	89 95 c0 fe ff
	ff		 mov	 DWORD PTR _vOBBox$[ebp+32], edx

; 685  : 				vOBBox[ 3 ] = xVec3( +pNewProjectile->fRenderSize / 2.0f, +pNewProjectile->fRenderSize / 2.0f, 0 );

  00b63	6a 00		 push	 0
  00b65	8b 45 c0	 mov	 eax, DWORD PTR _pNewProjectile$[ebp]
  00b68	d9 80 88 00 00
	00		 fld	 DWORD PTR [eax+136]
  00b6e	d8 35 00 00 00
	00		 fdiv	 DWORD PTR __real@40000000
  00b74	51		 push	 ecx
  00b75	d9 1c 24	 fstp	 DWORD PTR [esp]
  00b78	8b 4d c0	 mov	 ecx, DWORD PTR _pNewProjectile$[ebp]
  00b7b	d9 81 88 00 00
	00		 fld	 DWORD PTR [ecx+136]
  00b81	d8 35 00 00 00
	00		 fdiv	 DWORD PTR __real@40000000
  00b87	51		 push	 ecx
  00b88	d9 1c 24	 fstp	 DWORD PTR [esp]
  00b8b	8d 8d 8c fb ff
	ff		 lea	 ecx, DWORD PTR $T94670[ebp]
  00b91	e8 00 00 00 00	 call	 ??0D3DXVECTOR3@@QAE@MMM@Z ; D3DXVECTOR3::D3DXVECTOR3
  00b96	8b 10		 mov	 edx, DWORD PTR [eax]
  00b98	89 95 c4 fe ff
	ff		 mov	 DWORD PTR _vOBBox$[ebp+36], edx
  00b9e	8b 48 04	 mov	 ecx, DWORD PTR [eax+4]
  00ba1	89 8d c8 fe ff
	ff		 mov	 DWORD PTR _vOBBox$[ebp+40], ecx
  00ba7	8b 50 08	 mov	 edx, DWORD PTR [eax+8]
  00baa	89 95 cc fe ff
	ff		 mov	 DWORD PTR _vOBBox$[ebp+44], edx

; 686  : 				pNewProjectile->vTrailingPos = vEmitterRotatedPos + vAdd ;

  00bb0	8d 85 74 fe ff
	ff		 lea	 eax, DWORD PTR _vAdd$93937[ebp]
  00bb6	50		 push	 eax
  00bb7	8d 8d 78 fb ff
	ff		 lea	 ecx, DWORD PTR $T94671[ebp]
  00bbd	51		 push	 ecx
  00bbe	8d 8d 60 fe ff
	ff		 lea	 ecx, DWORD PTR _vEmitterRotatedPos$93938[ebp]
  00bc4	e8 00 00 00 00	 call	 ??HD3DXVECTOR3@@QBE?AU0@ABU0@@Z ; D3DXVECTOR3::operator+
  00bc9	8b 55 c0	 mov	 edx, DWORD PTR _pNewProjectile$[ebp]
  00bcc	83 c2 1c	 add	 edx, 28			; 0000001cH
  00bcf	8b 08		 mov	 ecx, DWORD PTR [eax]
  00bd1	89 0a		 mov	 DWORD PTR [edx], ecx
  00bd3	8b 48 04	 mov	 ecx, DWORD PTR [eax+4]
  00bd6	89 4a 04	 mov	 DWORD PTR [edx+4], ecx
  00bd9	8b 40 08	 mov	 eax, DWORD PTR [eax+8]
  00bdc	89 42 08	 mov	 DWORD PTR [edx+8], eax
$L93948:

; 687  : 			}
; 688  : 			if( i==1.0f )

  00bdf	81 bd 88 fe ff
	ff 00 00 80 3f	 cmp	 DWORD PTR _i$93934[ebp], 1065353216 ; 3f800000H
  00be9	0f 85 9f 01 00
	00		 jne	 $L93954

; 689  : 			{
; 690  : 				vOBBox[ 4 ] = xVec3( -pNewProjectile->fRenderSize / 2.0f, -pNewProjectile->fRenderSize / 2.0f, -fAddStraight );

  00bef	d9 85 40 fe ff
	ff		 fld	 DWORD PTR _fAddStraight$93940[ebp]
  00bf5	d9 e0		 fchs
  00bf7	51		 push	 ecx
  00bf8	d9 1c 24	 fstp	 DWORD PTR [esp]
  00bfb	8b 45 c0	 mov	 eax, DWORD PTR _pNewProjectile$[ebp]
  00bfe	d9 80 88 00 00
	00		 fld	 DWORD PTR [eax+136]
  00c04	d9 e0		 fchs
  00c06	d8 35 00 00 00
	00		 fdiv	 DWORD PTR __real@40000000
  00c0c	51		 push	 ecx
  00c0d	d9 1c 24	 fstp	 DWORD PTR [esp]
  00c10	8b 4d c0	 mov	 ecx, DWORD PTR _pNewProjectile$[ebp]
  00c13	d9 81 88 00 00
	00		 fld	 DWORD PTR [ecx+136]
  00c19	d9 e0		 fchs
  00c1b	d8 35 00 00 00
	00		 fdiv	 DWORD PTR __real@40000000
  00c21	51		 push	 ecx
  00c22	d9 1c 24	 fstp	 DWORD PTR [esp]
  00c25	8d 8d 64 fb ff
	ff		 lea	 ecx, DWORD PTR $T94672[ebp]
  00c2b	e8 00 00 00 00	 call	 ??0D3DXVECTOR3@@QAE@MMM@Z ; D3DXVECTOR3::D3DXVECTOR3
  00c30	8b 10		 mov	 edx, DWORD PTR [eax]
  00c32	89 95 d0 fe ff
	ff		 mov	 DWORD PTR _vOBBox$[ebp+48], edx
  00c38	8b 48 04	 mov	 ecx, DWORD PTR [eax+4]
  00c3b	89 8d d4 fe ff
	ff		 mov	 DWORD PTR _vOBBox$[ebp+52], ecx
  00c41	8b 50 08	 mov	 edx, DWORD PTR [eax+8]
  00c44	89 95 d8 fe ff
	ff		 mov	 DWORD PTR _vOBBox$[ebp+56], edx

; 691  : 				vOBBox[ 5 ] = xVec3( +pNewProjectile->fRenderSize / 2.0f, -pNewProjectile->fRenderSize / 2.0f, -fAddStraight );

  00c4a	d9 85 40 fe ff
	ff		 fld	 DWORD PTR _fAddStraight$93940[ebp]
  00c50	d9 e0		 fchs
  00c52	51		 push	 ecx
  00c53	d9 1c 24	 fstp	 DWORD PTR [esp]
  00c56	8b 45 c0	 mov	 eax, DWORD PTR _pNewProjectile$[ebp]
  00c59	d9 80 88 00 00
	00		 fld	 DWORD PTR [eax+136]
  00c5f	d9 e0		 fchs
  00c61	d8 35 00 00 00
	00		 fdiv	 DWORD PTR __real@40000000
  00c67	51		 push	 ecx
  00c68	d9 1c 24	 fstp	 DWORD PTR [esp]
  00c6b	8b 4d c0	 mov	 ecx, DWORD PTR _pNewProjectile$[ebp]
  00c6e	d9 81 88 00 00
	00		 fld	 DWORD PTR [ecx+136]
  00c74	d8 35 00 00 00
	00		 fdiv	 DWORD PTR __real@40000000
  00c7a	51		 push	 ecx
  00c7b	d9 1c 24	 fstp	 DWORD PTR [esp]
  00c7e	8d 8d 50 fb ff
	ff		 lea	 ecx, DWORD PTR $T94673[ebp]
  00c84	e8 00 00 00 00	 call	 ??0D3DXVECTOR3@@QAE@MMM@Z ; D3DXVECTOR3::D3DXVECTOR3
  00c89	8b 10		 mov	 edx, DWORD PTR [eax]
  00c8b	89 95 dc fe ff
	ff		 mov	 DWORD PTR _vOBBox$[ebp+60], edx
  00c91	8b 48 04	 mov	 ecx, DWORD PTR [eax+4]
  00c94	89 8d e0 fe ff
	ff		 mov	 DWORD PTR _vOBBox$[ebp+64], ecx
  00c9a	8b 50 08	 mov	 edx, DWORD PTR [eax+8]
  00c9d	89 95 e4 fe ff
	ff		 mov	 DWORD PTR _vOBBox$[ebp+68], edx

; 692  : 				vOBBox[ 6 ] = xVec3( -pNewProjectile->fRenderSize / 2.0f, +pNewProjectile->fRenderSize / 2.0f, -fAddStraight );

  00ca3	d9 85 40 fe ff
	ff		 fld	 DWORD PTR _fAddStraight$93940[ebp]
  00ca9	d9 e0		 fchs
  00cab	51		 push	 ecx
  00cac	d9 1c 24	 fstp	 DWORD PTR [esp]
  00caf	8b 45 c0	 mov	 eax, DWORD PTR _pNewProjectile$[ebp]
  00cb2	d9 80 88 00 00
	00		 fld	 DWORD PTR [eax+136]
  00cb8	d8 35 00 00 00
	00		 fdiv	 DWORD PTR __real@40000000
  00cbe	51		 push	 ecx
  00cbf	d9 1c 24	 fstp	 DWORD PTR [esp]
  00cc2	8b 4d c0	 mov	 ecx, DWORD PTR _pNewProjectile$[ebp]
  00cc5	d9 81 88 00 00
	00		 fld	 DWORD PTR [ecx+136]
  00ccb	d9 e0		 fchs
  00ccd	d8 35 00 00 00
	00		 fdiv	 DWORD PTR __real@40000000
  00cd3	51		 push	 ecx
  00cd4	d9 1c 24	 fstp	 DWORD PTR [esp]
  00cd7	8d 8d 3c fb ff
	ff		 lea	 ecx, DWORD PTR $T94674[ebp]
  00cdd	e8 00 00 00 00	 call	 ??0D3DXVECTOR3@@QAE@MMM@Z ; D3DXVECTOR3::D3DXVECTOR3
  00ce2	8b 10		 mov	 edx, DWORD PTR [eax]
  00ce4	89 95 e8 fe ff
	ff		 mov	 DWORD PTR _vOBBox$[ebp+72], edx
  00cea	8b 48 04	 mov	 ecx, DWORD PTR [eax+4]
  00ced	89 8d ec fe ff
	ff		 mov	 DWORD PTR _vOBBox$[ebp+76], ecx
  00cf3	8b 50 08	 mov	 edx, DWORD PTR [eax+8]
  00cf6	89 95 f0 fe ff
	ff		 mov	 DWORD PTR _vOBBox$[ebp+80], edx

; 693  : 				vOBBox[ 7 ] = xVec3( +pNewProjectile->fRenderSize / 2.0f, +pNewProjectile->fRenderSize / 2.0f, -fAddStraight );

  00cfc	d9 85 40 fe ff
	ff		 fld	 DWORD PTR _fAddStraight$93940[ebp]
  00d02	d9 e0		 fchs
  00d04	51		 push	 ecx
  00d05	d9 1c 24	 fstp	 DWORD PTR [esp]
  00d08	8b 45 c0	 mov	 eax, DWORD PTR _pNewProjectile$[ebp]
  00d0b	d9 80 88 00 00
	00		 fld	 DWORD PTR [eax+136]
  00d11	d8 35 00 00 00
	00		 fdiv	 DWORD PTR __real@40000000
  00d17	51		 push	 ecx
  00d18	d9 1c 24	 fstp	 DWORD PTR [esp]
  00d1b	8b 4d c0	 mov	 ecx, DWORD PTR _pNewProjectile$[ebp]
  00d1e	d9 81 88 00 00
	00		 fld	 DWORD PTR [ecx+136]
  00d24	d8 35 00 00 00
	00		 fdiv	 DWORD PTR __real@40000000
  00d2a	51		 push	 ecx
  00d2b	d9 1c 24	 fstp	 DWORD PTR [esp]
  00d2e	8d 8d 28 fb ff
	ff		 lea	 ecx, DWORD PTR $T94675[ebp]
  00d34	e8 00 00 00 00	 call	 ??0D3DXVECTOR3@@QAE@MMM@Z ; D3DXVECTOR3::D3DXVECTOR3
  00d39	8b 10		 mov	 edx, DWORD PTR [eax]
  00d3b	89 95 f4 fe ff
	ff		 mov	 DWORD PTR _vOBBox$[ebp+84], edx
  00d41	8b 48 04	 mov	 ecx, DWORD PTR [eax+4]
  00d44	89 8d f8 fe ff
	ff		 mov	 DWORD PTR _vOBBox$[ebp+88], ecx
  00d4a	8b 50 08	 mov	 edx, DWORD PTR [eax+8]
  00d4d	89 95 fc fe ff
	ff		 mov	 DWORD PTR _vOBBox$[ebp+92], edx

; 694  : 				pNewProjectile->vLeadingPos = vEmitterRotatedPos + vAdd ;

  00d53	8d 85 74 fe ff
	ff		 lea	 eax, DWORD PTR _vAdd$93937[ebp]
  00d59	50		 push	 eax
  00d5a	8d 8d 14 fb ff
	ff		 lea	 ecx, DWORD PTR $T94676[ebp]
  00d60	51		 push	 ecx
  00d61	8d 8d 60 fe ff
	ff		 lea	 ecx, DWORD PTR _vEmitterRotatedPos$93938[ebp]
  00d67	e8 00 00 00 00	 call	 ??HD3DXVECTOR3@@QBE?AU0@ABU0@@Z ; D3DXVECTOR3::operator+
  00d6c	8b 55 c0	 mov	 edx, DWORD PTR _pNewProjectile$[ebp]
  00d6f	83 c2 10	 add	 edx, 16			; 00000010H
  00d72	8b 08		 mov	 ecx, DWORD PTR [eax]
  00d74	89 0a		 mov	 DWORD PTR [edx], ecx
  00d76	8b 48 04	 mov	 ecx, DWORD PTR [eax+4]
  00d79	89 4a 04	 mov	 DWORD PTR [edx+4], ecx
  00d7c	8b 40 08	 mov	 eax, DWORD PTR [eax+8]
  00d7f	89 42 08	 mov	 DWORD PTR [edx+8], eax

; 695  : 				pNewProjectile->fLength = fAddStraight ;

  00d82	8b 45 c0	 mov	 eax, DWORD PTR _pNewProjectile$[ebp]
  00d85	8b 8d 40 fe ff
	ff		 mov	 ecx, DWORD PTR _fAddStraight$93940[ebp]
  00d8b	89 48 28	 mov	 DWORD PTR [eax+40], ecx
$L93954:

; 696  : 			}
; 697  : 
; 698  : 		// spawn the particle in the right place, with the right color, with zero intrinsic velocity;
; 699  : 			pNewProjectile->pPS->FrameMove(	fFPS,
; 700  : 											&xVec3( 0,0,0 ),			// intrinsic vel.
; 701  : 											1.0f / fFPS,
; 702  : 											1,							// no. to emit
; 703  : 											0.0f,						// particle lifetime
; 704  : 											FALSE,						// gravity
; 705  : 											col,
; 706  : 											col,
; 707  : 											&xVec3( 0,0,0 ),			// emit velocity
; 708  : 											&vParticlePos,				// emit position
; 709  : 											FALSE,						// spherical emit
; 710  : 											0.0f,						// scatter
; 711  : 											FALSE						// compute bounding volume
; 712  : 										  );

  00d8e	6a 00		 push	 0
  00d90	6a 00		 push	 0
  00d92	6a 00		 push	 0
  00d94	8d 85 4c fe ff
	ff		 lea	 eax, DWORD PTR _vParticlePos$93939[ebp]
  00d9a	50		 push	 eax
  00d9b	6a 00		 push	 0
  00d9d	6a 00		 push	 0
  00d9f	6a 00		 push	 0
  00da1	8d 8d 00 fb ff
	ff		 lea	 ecx, DWORD PTR $T94677[ebp]
  00da7	e8 00 00 00 00	 call	 ??0D3DXVECTOR3@@QAE@MMM@Z ; D3DXVECTOR3::D3DXVECTOR3
  00dac	50		 push	 eax
  00dad	8d 8d 60 ff ff
	ff		 lea	 ecx, DWORD PTR _col$[ebp]
  00db3	51		 push	 ecx
  00db4	8d 95 60 ff ff
	ff		 lea	 edx, DWORD PTR _col$[ebp]
  00dba	52		 push	 edx
  00dbb	6a 00		 push	 0
  00dbd	6a 00		 push	 0
  00dbf	6a 01		 push	 1
  00dc1	d9 05 00 00 00
	00		 fld	 DWORD PTR __real@3f800000
  00dc7	d8 75 0c	 fdiv	 DWORD PTR _fFPS$[ebp]
  00dca	51		 push	 ecx
  00dcb	d9 1c 24	 fstp	 DWORD PTR [esp]
  00dce	6a 00		 push	 0
  00dd0	6a 00		 push	 0
  00dd2	6a 00		 push	 0
  00dd4	8d 8d ec fa ff
	ff		 lea	 ecx, DWORD PTR $T94678[ebp]
  00dda	e8 00 00 00 00	 call	 ??0D3DXVECTOR3@@QAE@MMM@Z ; D3DXVECTOR3::D3DXVECTOR3
  00ddf	50		 push	 eax
  00de0	8b 45 0c	 mov	 eax, DWORD PTR _fFPS$[ebp]
  00de3	50		 push	 eax
  00de4	8b 4d c0	 mov	 ecx, DWORD PTR _pNewProjectile$[ebp]
  00de7	8b 89 84 00 00
	00		 mov	 ecx, DWORD PTR [ecx+132]
  00ded	e8 00 00 00 00	 call	 ?FrameMove@CParticleSystem@@QAEJMPAUD3DXVECTOR3@@MKMHABUD3DXCOLOR@@100HMH@Z ; CParticleSystem::FrameMove

; 713  : 		}

  00df2	e9 c3 fa ff ff	 jmp	 $L93932
$L93933:

; 714  : 
; 715  : 	// frustrum culling for projectiles;
; 716  : 		pNewProjectile->pBBox = new CBoundingBox( &vOBBox[ 0 ] );

  00df7	68 d8 82 00 00	 push	 33496			; 000082d8H
  00dfc	e8 00 00 00 00	 call	 ??2@YAPAXI@Z		; operator new
  00e01	83 c4 04	 add	 esp, 4
  00e04	89 85 e0 fa ff
	ff		 mov	 DWORD PTR $T94679[ebp], eax
  00e0a	83 bd e0 fa ff
	ff 00		 cmp	 DWORD PTR $T94679[ebp], 0
  00e11	74 1a		 je	 SHORT $L94680
  00e13	8d 85 a0 fe ff
	ff		 lea	 eax, DWORD PTR _vOBBox$[ebp]
  00e19	50		 push	 eax
  00e1a	8b 8d e0 fa ff
	ff		 mov	 ecx, DWORD PTR $T94679[ebp]
  00e20	e8 00 00 00 00	 call	 ??0CBoundingBox@@QAE@PAUD3DXVECTOR3@@@Z ; CBoundingBox::CBoundingBox
  00e25	89 85 b4 fa ff
	ff		 mov	 DWORD PTR tv619[ebp], eax
  00e2b	eb 0a		 jmp	 SHORT $L94681
$L94680:
  00e2d	c7 85 b4 fa ff
	ff 00 00 00 00	 mov	 DWORD PTR tv619[ebp], 0
$L94681:
  00e37	8b 4d c0	 mov	 ecx, DWORD PTR _pNewProjectile$[ebp]
  00e3a	8b 95 b4 fa ff
	ff		 mov	 edx, DWORD PTR tv619[ebp]
  00e40	89 51 3c	 mov	 DWORD PTR [ecx+60], edx

; 717  : 		pNewProjectile->pBBox->RestoreDeviceObjects( pDev );			// NOTE: in release build this does nothing

  00e43	8b 45 08	 mov	 eax, DWORD PTR _pDev$[ebp]
  00e46	50		 push	 eax
  00e47	8b 4d c0	 mov	 ecx, DWORD PTR _pNewProjectile$[ebp]
  00e4a	8b 49 3c	 mov	 ecx, DWORD PTR [ecx+60]
  00e4d	e8 00 00 00 00	 call	 ?RestoreDeviceObjects@CBoundingBox@@QAEJPAUIDirect3DDevice8@@@Z ; CBoundingBox::RestoreDeviceObjects

; 718  : 		pNewProjectile->pBBox->ApplyMatrix( &pNewProjectile->matWorld );

  00e52	8b 45 c0	 mov	 eax, DWORD PTR _pNewProjectile$[ebp]
  00e55	83 c0 44	 add	 eax, 68			; 00000044H
  00e58	50		 push	 eax
  00e59	8b 4d c0	 mov	 ecx, DWORD PTR _pNewProjectile$[ebp]
  00e5c	8b 49 3c	 mov	 ecx, DWORD PTR [ecx+60]
  00e5f	e8 00 00 00 00	 call	 ?ApplyMatrix@CBoundingBox@@QAEXPAUD3DXMATRIX@@@Z ; CBoundingBox::ApplyMatrix

; 719  : 
; 720  : 		m_nProjectiles++ ;

  00e64	8b 45 f8	 mov	 eax, DWORD PTR _this$[ebp]
  00e67	8b 88 90 01 00
	00		 mov	 ecx, DWORD PTR [eax+400]
  00e6d	83 c1 01	 add	 ecx, 1
  00e70	8b 55 f8	 mov	 edx, DWORD PTR _this$[ebp]
  00e73	89 8a 90 01 00
	00		 mov	 DWORD PTR [edx+400], ecx

; 721  : 
; 722  : 	// let there be sound!
; 723  : 	// NOTE: look out for origin-based positions creeping in here. sounds OK at the moment, though!
; 724  : 		//ods( "new proj. sound {%0.1f,%0.1f,%0.1f}\n", pNewProjectile->vTrailingPos.x,pNewProjectile->vTrailingPos.y,pNewProjectile->vTrailingPos.z );
; 725  : 		switch( Type )
; 726  : 		{

  00e79	8b 45 14	 mov	 eax, DWORD PTR _Type$[ebp]
  00e7c	89 85 b4 fa ff
	ff		 mov	 DWORD PTR tv633[ebp], eax
  00e82	83 bd b4 fa ff
	ff 00		 cmp	 DWORD PTR tv633[ebp], 0
  00e89	74 32		 je	 SHORT $L93970
  00e8b	83 bd b4 fa ff
	ff 01		 cmp	 DWORD PTR tv633[ebp], 1
  00e92	74 1a		 je	 SHORT $L93969
  00e94	83 bd b4 fa ff
	ff 02		 cmp	 DWORD PTR tv633[ebp], 2
  00e9b	74 02		 je	 SHORT $L93968
  00e9d	eb 2b		 jmp	 SHORT $L93965
$L93968:

; 727  : 			case WT_BULLET:
; 728  : 				pNewProjectile->fVol = 0.25f ;

  00e9f	8b 45 c0	 mov	 eax, DWORD PTR _pNewProjectile$[ebp]
  00ea2	c7 80 a4 00 00
	00 00 00 80 3e	 mov	 DWORD PTR [eax+164], 1048576000 ; 3e800000H

; 729  : 				break ;

  00eac	eb 1c		 jmp	 SHORT $L93965
$L93969:

; 730  : 			case WT_BLUELASER:
; 731  : 				pNewProjectile->fVol = 0.35f ;

  00eae	8b 45 c0	 mov	 eax, DWORD PTR _pNewProjectile$[ebp]
  00eb1	c7 80 a4 00 00
	00 33 33 b3 3e	 mov	 DWORD PTR [eax+164], 1051931443 ; 3eb33333H

; 732  : 				break ;

  00ebb	eb 0d		 jmp	 SHORT $L93965
$L93970:

; 733  : 			case WT_GREENLASER:
; 734  : 				pNewProjectile->fVol = 0.30f ;

  00ebd	8b 45 c0	 mov	 eax, DWORD PTR _pNewProjectile$[ebp]
  00ec0	c7 80 a4 00 00
	00 9a 99 99 3e	 mov	 DWORD PTR [eax+164], 1050253722 ; 3e99999aH
$L93965:

; 735  : 				break ;
; 736  : 		}
; 737  : 		if( !m_bUserFighter ) 

  00eca	8b 45 f8	 mov	 eax, DWORD PTR _this$[ebp]
  00ecd	83 b8 1c 03 00
	00 00		 cmp	 DWORD PTR [eax+796], 0
  00ed4	75 18		 jne	 SHORT $L93971

; 738  : 			pNewProjectile->fVol /= 2 ;

  00ed6	8b 45 c0	 mov	 eax, DWORD PTR _pNewProjectile$[ebp]
  00ed9	d9 80 a4 00 00
	00		 fld	 DWORD PTR [eax+164]
  00edf	d8 35 00 00 00
	00		 fdiv	 DWORD PTR __real@40000000
  00ee5	8b 4d c0	 mov	 ecx, DWORD PTR _pNewProjectile$[ebp]
  00ee8	d9 99 a4 00 00
	00		 fstp	 DWORD PTR [ecx+164]
$L93971:

; 739  : 		pNewProjectile->nSoundChannel = 
; 740  : 			pRace->m_pX7->m_pSound->PlaySFX3D( g_Weapons[ Type ].sfx,  &pNewProjectile->vTrailingPos, NULL, pNewProjectile->fVol );

  00eee	8b 45 c0	 mov	 eax, DWORD PTR _pNewProjectile$[ebp]
  00ef1	8b 88 a4 00 00
	00		 mov	 ecx, DWORD PTR [eax+164]
  00ef7	51		 push	 ecx
  00ef8	6a 00		 push	 0
  00efa	8b 55 c0	 mov	 edx, DWORD PTR _pNewProjectile$[ebp]
  00efd	83 c2 1c	 add	 edx, 28			; 0000001cH
  00f00	52		 push	 edx
  00f01	8b 45 14	 mov	 eax, DWORD PTR _Type$[ebp]
  00f04	c1 e0 04	 shl	 eax, 4
  00f07	8b 88 0c 00 00
	00		 mov	 ecx, DWORD PTR ?g_Weapons@@3PAUWEAPON_TYPE_DETAILS@@A[eax+12]
  00f0d	51		 push	 ecx
  00f0e	8b 55 18	 mov	 edx, DWORD PTR _pRace$[ebp]
  00f11	8b 42 38	 mov	 eax, DWORD PTR [edx+56]
  00f14	8b 88 00 a9 02
	00		 mov	 ecx, DWORD PTR [eax+174336]
  00f1a	e8 00 00 00 00	 call	 ?PlaySFX3D@CSoundManager@@QAEHHPAUD3DXVECTOR3@@0M@Z ; CSoundManager::PlaySFX3D
  00f1f	8b 4d c0	 mov	 ecx, DWORD PTR _pNewProjectile$[ebp]
  00f22	89 81 a0 00 00
	00		 mov	 DWORD PTR [ecx+160], eax
$L93883:

; 741  : 		
; 742  : 		//ods(" {%0.1f,%0.1f,%0.1f}: {%0.1f,%0.1f,%0.1f}\n",
; 743  : 		//	pNewProjectile->vTrailingPos.x, pNewProjectile->vTrailingPos.y, pNewProjectile->vTrailingPos.z,
; 744  : 		//	m_vPosition.x, m_vPosition.y, m_vPosition.z );
; 745  : 	}

  00f28	52		 push	 edx
  00f29	8b cd		 mov	 ecx, ebp
  00f2b	50		 push	 eax
  00f2c	8d 15 00 00 00
	00		 lea	 edx, DWORD PTR $L94713
  00f32	e8 00 00 00 00	 call	 @_RTC_CheckStackVars@8
  00f37	58		 pop	 eax
  00f38	5a		 pop	 edx
  00f39	5f		 pop	 edi
  00f3a	5e		 pop	 esi
  00f3b	5b		 pop	 ebx
  00f3c	81 c4 4c 05 00
	00		 add	 esp, 1356		; 0000054cH
  00f42	3b ec		 cmp	 ebp, esp
  00f44	e8 00 00 00 00	 call	 __RTC_CheckEsp
  00f49	8b e5		 mov	 esp, ebp
  00f4b	5d		 pop	 ebp
  00f4c	c2 14 00	 ret	 20			; 00000014H
$L94713:
  00f4f	09 00 00 00	 DD	 9
  00f53	00 00 00 00	 DD	 $L94712
$L94712:
  00f57	cc ff ff ff	 DD	 -52			; ffffffccH
  00f5b	0c 00 00 00	 DD	 12			; 0000000cH
  00f5f	00 00 00 00	 DD	 $L94703
  00f63	90 ff ff ff	 DD	 -112			; ffffff90H
  00f67	10 00 00 00	 DD	 16			; 00000010H
  00f6b	00 00 00 00	 DD	 $L94704
  00f6f	78 ff ff ff	 DD	 -136			; ffffff78H
  00f73	10 00 00 00	 DD	 16			; 00000010H
  00f77	00 00 00 00	 DD	 $L94705
  00f7b	60 ff ff ff	 DD	 -160			; ffffff60H
  00f7f	10 00 00 00	 DD	 16			; 00000010H
  00f83	00 00 00 00	 DD	 $L94706
  00f87	08 ff ff ff	 DD	 -248			; ffffff08H
  00f8b	40 00 00 00	 DD	 64			; 00000040H
  00f8f	00 00 00 00	 DD	 $L94707
  00f93	a0 fe ff ff	 DD	 -352			; fffffea0H
  00f97	60 00 00 00	 DD	 96			; 00000060H
  00f9b	00 00 00 00	 DD	 $L94708
  00f9f	74 fe ff ff	 DD	 -396			; fffffe74H
  00fa3	0c 00 00 00	 DD	 12			; 0000000cH
  00fa7	00 00 00 00	 DD	 $L94709
  00fab	60 fe ff ff	 DD	 -416			; fffffe60H
  00faf	0c 00 00 00	 DD	 12			; 0000000cH
  00fb3	00 00 00 00	 DD	 $L94710
  00fb7	4c fe ff ff	 DD	 -436			; fffffe4cH
  00fbb	0c 00 00 00	 DD	 12			; 0000000cH
  00fbf	00 00 00 00	 DD	 $L94711
$L94711:
  00fc3	76		 DB	 118			; 00000076H
  00fc4	50		 DB	 80			; 00000050H
  00fc5	61		 DB	 97			; 00000061H
  00fc6	72		 DB	 114			; 00000072H
  00fc7	74		 DB	 116			; 00000074H
  00fc8	69		 DB	 105			; 00000069H
  00fc9	63		 DB	 99			; 00000063H
  00fca	6c		 DB	 108			; 0000006cH
  00fcb	65		 DB	 101			; 00000065H
  00fcc	50		 DB	 80			; 00000050H
  00fcd	6f		 DB	 111			; 0000006fH
  00fce	73		 DB	 115			; 00000073H
  00fcf	00		 DB	 0
$L94710:
  00fd0	76		 DB	 118			; 00000076H
  00fd1	45		 DB	 69			; 00000045H
  00fd2	6d		 DB	 109			; 0000006dH
  00fd3	69		 DB	 105			; 00000069H
  00fd4	74		 DB	 116			; 00000074H
  00fd5	74		 DB	 116			; 00000074H
  00fd6	65		 DB	 101			; 00000065H
  00fd7	72		 DB	 114			; 00000072H
  00fd8	52		 DB	 82			; 00000052H
  00fd9	6f		 DB	 111			; 0000006fH
  00fda	74		 DB	 116			; 00000074H
  00fdb	61		 DB	 97			; 00000061H
  00fdc	74		 DB	 116			; 00000074H
  00fdd	65		 DB	 101			; 00000065H
  00fde	64		 DB	 100			; 00000064H
  00fdf	50		 DB	 80			; 00000050H
  00fe0	6f		 DB	 111			; 0000006fH
  00fe1	73		 DB	 115			; 00000073H
  00fe2	00		 DB	 0
$L94709:
  00fe3	76		 DB	 118			; 00000076H
  00fe4	41		 DB	 65			; 00000041H
  00fe5	64		 DB	 100			; 00000064H
  00fe6	64		 DB	 100			; 00000064H
  00fe7	00		 DB	 0
$L94708:
  00fe8	76		 DB	 118			; 00000076H
  00fe9	4f		 DB	 79			; 0000004fH
  00fea	42		 DB	 66			; 00000042H
  00feb	42		 DB	 66			; 00000042H
  00fec	6f		 DB	 111			; 0000006fH
  00fed	78		 DB	 120			; 00000078H
  00fee	00		 DB	 0
$L94707:
  00fef	6d		 DB	 109			; 0000006dH
  00ff0	54		 DB	 84			; 00000054H
  00ff1	00		 DB	 0
$L94706:
  00ff2	63		 DB	 99			; 00000063H
  00ff3	6f		 DB	 111			; 0000006fH
  00ff4	6c		 DB	 108			; 0000006cH
  00ff5	00		 DB	 0
$L94705:
  00ff6	63		 DB	 99			; 00000063H
  00ff7	6f		 DB	 111			; 0000006fH
  00ff8	6c		 DB	 108			; 0000006cH
  00ff9	42		 DB	 66			; 00000042H
  00ffa	00		 DB	 0
$L94704:
  00ffb	63		 DB	 99			; 00000063H
  00ffc	6f		 DB	 111			; 0000006fH
  00ffd	6c		 DB	 108			; 0000006cH
  00ffe	41		 DB	 65			; 00000041H
  00fff	00		 DB	 0
$L94703:
  01000	76		 DB	 118			; 00000076H
  01001	45		 DB	 69			; 00000045H
  01002	6d		 DB	 109			; 0000006dH
  01003	69		 DB	 105			; 00000069H
  01004	74		 DB	 116			; 00000074H
  01005	74		 DB	 116			; 00000074H
  01006	65		 DB	 101			; 00000065H
  01007	72		 DB	 114			; 00000072H
  01008	50		 DB	 80			; 00000050H
  01009	6f		 DB	 111			; 0000006fH
  0100a	73		 DB	 115			; 00000073H
  0100b	00		 DB	 0
$L94692:
  0100c	6e		 DB	 110			; 0000006eH
  0100d	50		 DB	 80			; 00000050H
  0100e	61		 DB	 97			; 00000061H
  0100f	72		 DB	 114			; 00000072H
  01010	74		 DB	 116			; 00000074H
  01011	69		 DB	 105			; 00000069H
  01012	63		 DB	 99			; 00000063H
  01013	6c		 DB	 108			; 0000006cH
  01014	65		 DB	 101			; 00000065H
  01015	73		 DB	 115			; 00000073H
  01016	00		 DB	 0
$L94689:
  01017	66		 DB	 102			; 00000066H
  01018	53		 DB	 83			; 00000053H
  01019	69		 DB	 105			; 00000069H
  0101a	7a		 DB	 122			; 0000007aH
  0101b	65		 DB	 101			; 00000065H
  0101c	00		 DB	 0
$L94686:
  0101d	66		 DB	 102			; 00000066H
  0101e	53		 DB	 83			; 00000053H
  0101f	70		 DB	 112			; 00000070H
  01020	65		 DB	 101			; 00000065H
  01021	65		 DB	 101			; 00000065H
  01022	64		 DB	 100			; 00000064H
  01023	00		 DB	 0
?LaunchProjectile@CFighter@@QAEXPAUIDirect3DDevice8@@MMHPAVCRace@@@Z ENDP ; CFighter::LaunchProjectile
; Function compile flags: /Odt /RTCsu /ZI
; File c:\dxsdk\include\d3dx8math.inl
_TEXT	ENDS
;	COMDAT ??0D3DXVECTOR3@@QAE@ABU_D3DVECTOR@@@Z
_TEXT	SEGMENT
_this$ = -8
_v$ = 8
??0D3DXVECTOR3@@QAE@ABU_D3DVECTOR@@@Z PROC NEAR		; D3DXVECTOR3::D3DXVECTOR3, COMDAT
; _this$ = ecx

; 171  : {

  00000	55		 push	 ebp
  00001	8b ec		 mov	 ebp, esp
  00003	81 ec cc 00 00
	00		 sub	 esp, 204		; 000000ccH
  00009	53		 push	 ebx
  0000a	56		 push	 esi
  0000b	57		 push	 edi
  0000c	51		 push	 ecx
  0000d	8d bd 34 ff ff
	ff		 lea	 edi, DWORD PTR [ebp-204]
  00013	b9 33 00 00 00	 mov	 ecx, 51			; 00000033H
  00018	b8 cc cc cc cc	 mov	 eax, -858993460		; ccccccccH
  0001d	f3 ab		 rep stosd
  0001f	59		 pop	 ecx
  00020	89 4d f8	 mov	 DWORD PTR _this$[ebp], ecx

; 172  :     x = v.x;

  00023	8b 45 f8	 mov	 eax, DWORD PTR _this$[ebp]
  00026	8b 4d 08	 mov	 ecx, DWORD PTR _v$[ebp]
  00029	8b 11		 mov	 edx, DWORD PTR [ecx]
  0002b	89 10		 mov	 DWORD PTR [eax], edx

; 173  :     y = v.y;

  0002d	8b 45 f8	 mov	 eax, DWORD PTR _this$[ebp]
  00030	8b 4d 08	 mov	 ecx, DWORD PTR _v$[ebp]
  00033	8b 51 04	 mov	 edx, DWORD PTR [ecx+4]
  00036	89 50 04	 mov	 DWORD PTR [eax+4], edx

; 174  :     z = v.z;

  00039	8b 45 f8	 mov	 eax, DWORD PTR _this$[ebp]
  0003c	8b 4d 08	 mov	 ecx, DWORD PTR _v$[ebp]
  0003f	8b 51 08	 mov	 edx, DWORD PTR [ecx+8]
  00042	89 50 08	 mov	 DWORD PTR [eax+8], edx

; 175  : }

  00045	8b 45 f8	 mov	 eax, DWORD PTR _this$[ebp]
  00048	5f		 pop	 edi
  00049	5e		 pop	 esi
  0004a	5b		 pop	 ebx
  0004b	8b e5		 mov	 esp, ebp
  0004d	5d		 pop	 ebp
  0004e	c2 04 00	 ret	 4
??0D3DXVECTOR3@@QAE@ABU_D3DVECTOR@@@Z ENDP		; D3DXVECTOR3::D3DXVECTOR3
; Function compile flags: /Odt /RTCsu /ZI
_TEXT	ENDS
;	COMDAT ??0D3DXVECTOR3@@QAE@MMM@Z
_TEXT	SEGMENT
_this$ = -8
_fx$ = 8
_fy$ = 12
_fz$ = 16
??0D3DXVECTOR3@@QAE@MMM@Z PROC NEAR			; D3DXVECTOR3::D3DXVECTOR3, COMDAT
; _this$ = ecx

; 179  : {

  00000	55		 push	 ebp
  00001	8b ec		 mov	 ebp, esp
  00003	81 ec cc 00 00
	00		 sub	 esp, 204		; 000000ccH
  00009	53		 push	 ebx
  0000a	56		 push	 esi
  0000b	57		 push	 edi
  0000c	51		 push	 ecx
  0000d	8d bd 34 ff ff
	ff		 lea	 edi, DWORD PTR [ebp-204]
  00013	b9 33 00 00 00	 mov	 ecx, 51			; 00000033H
  00018	b8 cc cc cc cc	 mov	 eax, -858993460		; ccccccccH
  0001d	f3 ab		 rep stosd
  0001f	59		 pop	 ecx
  00020	89 4d f8	 mov	 DWORD PTR _this$[ebp], ecx

; 180  :     x = fx;

  00023	8b 45 f8	 mov	 eax, DWORD PTR _this$[ebp]
  00026	8b 4d 08	 mov	 ecx, DWORD PTR _fx$[ebp]
  00029	89 08		 mov	 DWORD PTR [eax], ecx

; 181  :     y = fy;

  0002b	8b 45 f8	 mov	 eax, DWORD PTR _this$[ebp]
  0002e	8b 4d 0c	 mov	 ecx, DWORD PTR _fy$[ebp]
  00031	89 48 04	 mov	 DWORD PTR [eax+4], ecx

; 182  :     z = fz;

  00034	8b 45 f8	 mov	 eax, DWORD PTR _this$[ebp]
  00037	8b 4d 10	 mov	 ecx, DWORD PTR _fz$[ebp]
  0003a	89 48 08	 mov	 DWORD PTR [eax+8], ecx

; 183  : }

  0003d	8b 45 f8	 mov	 eax, DWORD PTR _this$[ebp]
  00040	5f		 pop	 edi
  00041	5e		 pop	 esi
  00042	5b		 pop	 ebx
  00043	8b e5		 mov	 esp, ebp
  00045	5d		 pop	 ebp
  00046	c2 0c 00	 ret	 12			; 0000000cH
??0D3DXVECTOR3@@QAE@MMM@Z ENDP				; D3DXVECTOR3::D3DXVECTOR3
; Function compile flags: /Odt /RTCsu /ZI
_TEXT	ENDS
;	COMDAT ??YD3DXVECTOR3@@QAEAAU0@ABU0@@Z
_TEXT	SEGMENT
_this$ = -8
_v$ = 8
??YD3DXVECTOR3@@QAEAAU0@ABU0@@Z PROC NEAR		; D3DXVECTOR3::operator+=, COMDAT
; _this$ = ecx

; 203  : {

  00000	55		 push	 ebp
  00001	8b ec		 mov	 ebp, esp
  00003	81 ec cc 00 00
	00		 sub	 esp, 204		; 000000ccH
  00009	53		 push	 ebx
  0000a	56		 push	 esi
  0000b	57		 push	 edi
  0000c	51		 push	 ecx
  0000d	8d bd 34 ff ff
	ff		 lea	 edi, DWORD PTR [ebp-204]
  00013	b9 33 00 00 00	 mov	 ecx, 51			; 00000033H
  00018	b8 cc cc cc cc	 mov	 eax, -858993460		; ccccccccH
  0001d	f3 ab		 rep stosd
  0001f	59		 pop	 ecx
  00020	89 4d f8	 mov	 DWORD PTR _this$[ebp], ecx

; 204  :     x += v.x;

  00023	8b 45 f8	 mov	 eax, DWORD PTR _this$[ebp]
  00026	8b 4d 08	 mov	 ecx, DWORD PTR _v$[ebp]
  00029	d9 00		 fld	 DWORD PTR [eax]
  0002b	d8 01		 fadd	 DWORD PTR [ecx]
  0002d	8b 55 f8	 mov	 edx, DWORD PTR _this$[ebp]
  00030	d9 1a		 fstp	 DWORD PTR [edx]

; 205  :     y += v.y;

  00032	8b 45 f8	 mov	 eax, DWORD PTR _this$[ebp]
  00035	8b 4d 08	 mov	 ecx, DWORD PTR _v$[ebp]
  00038	d9 40 04	 fld	 DWORD PTR [eax+4]
  0003b	d8 41 04	 fadd	 DWORD PTR [ecx+4]
  0003e	8b 55 f8	 mov	 edx, DWORD PTR _this$[ebp]
  00041	d9 5a 04	 fstp	 DWORD PTR [edx+4]

; 206  :     z += v.z;

  00044	8b 45 f8	 mov	 eax, DWORD PTR _this$[ebp]
  00047	8b 4d 08	 mov	 ecx, DWORD PTR _v$[ebp]
  0004a	d9 40 08	 fld	 DWORD PTR [eax+8]
  0004d	d8 41 08	 fadd	 DWORD PTR [ecx+8]
  00050	8b 55 f8	 mov	 edx, DWORD PTR _this$[ebp]
  00053	d9 5a 08	 fstp	 DWORD PTR [edx+8]

; 207  :     return *this;

  00056	8b 45 f8	 mov	 eax, DWORD PTR _this$[ebp]

; 208  : }

  00059	5f		 pop	 edi
  0005a	5e		 pop	 esi
  0005b	5b		 pop	 ebx
  0005c	8b e5		 mov	 esp, ebp
  0005e	5d		 pop	 ebp
  0005f	c2 04 00	 ret	 4
??YD3DXVECTOR3@@QAEAAU0@ABU0@@Z ENDP			; D3DXVECTOR3::operator+=
; Function compile flags: /Odt /RTCsu /ZI
_TEXT	ENDS
;	COMDAT ??XD3DXVECTOR3@@QAEAAU0@M@Z
_TEXT	SEGMENT
_this$ = -8
_f$ = 8
??XD3DXVECTOR3@@QAEAAU0@M@Z PROC NEAR			; D3DXVECTOR3::operator*=, COMDAT
; _this$ = ecx

; 221  : {

  00000	55		 push	 ebp
  00001	8b ec		 mov	 ebp, esp
  00003	81 ec cc 00 00
	00		 sub	 esp, 204		; 000000ccH
  00009	53		 push	 ebx
  0000a	56		 push	 esi
  0000b	57		 push	 edi
  0000c	51		 push	 ecx
  0000d	8d bd 34 ff ff
	ff		 lea	 edi, DWORD PTR [ebp-204]
  00013	b9 33 00 00 00	 mov	 ecx, 51			; 00000033H
  00018	b8 cc cc cc cc	 mov	 eax, -858993460		; ccccccccH
  0001d	f3 ab		 rep stosd
  0001f	59		 pop	 ecx
  00020	89 4d f8	 mov	 DWORD PTR _this$[ebp], ecx

; 222  :     x *= f;

  00023	8b 45 f8	 mov	 eax, DWORD PTR _this$[ebp]
  00026	d9 45 08	 fld	 DWORD PTR _f$[ebp]
  00029	d8 08		 fmul	 DWORD PTR [eax]
  0002b	8b 4d f8	 mov	 ecx, DWORD PTR _this$[ebp]
  0002e	d9 19		 fstp	 DWORD PTR [ecx]

; 223  :     y *= f;

  00030	8b 45 f8	 mov	 eax, DWORD PTR _this$[ebp]
  00033	d9 45 08	 fld	 DWORD PTR _f$[ebp]
  00036	d8 48 04	 fmul	 DWORD PTR [eax+4]
  00039	8b 4d f8	 mov	 ecx, DWORD PTR _this$[ebp]
  0003c	d9 59 04	 fstp	 DWORD PTR [ecx+4]

; 224  :     z *= f;

  0003f	8b 45 f8	 mov	 eax, DWORD PTR _this$[ebp]
  00042	d9 45 08	 fld	 DWORD PTR _f$[ebp]
  00045	d8 48 08	 fmul	 DWORD PTR [eax+8]
  00048	8b 4d f8	 mov	 ecx, DWORD PTR _this$[ebp]
  0004b	d9 59 08	 fstp	 DWORD PTR [ecx+8]

; 225  :     return *this;

  0004e	8b 45 f8	 mov	 eax, DWORD PTR _this$[ebp]

; 226  : }

  00051	5f		 pop	 edi
  00052	5e		 pop	 esi
  00053	5b		 pop	 ebx
  00054	8b e5		 mov	 esp, ebp
  00056	5d		 pop	 ebp
  00057	c2 04 00	 ret	 4
??XD3DXVECTOR3@@QAEAAU0@M@Z ENDP			; D3DXVECTOR3::operator*=
; Function compile flags: /Odt /RTCsu /ZI
_TEXT	ENDS
;	COMDAT ??HD3DXVECTOR3@@QBE?AU0@ABU0@@Z
_TEXT	SEGMENT
_this$ = -8
___$ReturnUdt$ = 8
_v$ = 12
??HD3DXVECTOR3@@QBE?AU0@ABU0@@Z PROC NEAR		; D3DXVECTOR3::operator+, COMDAT
; _this$ = ecx

; 256  : {

  00000	55		 push	 ebp
  00001	8b ec		 mov	 ebp, esp
  00003	81 ec cc 00 00
	00		 sub	 esp, 204		; 000000ccH
  00009	53		 push	 ebx
  0000a	56		 push	 esi
  0000b	57		 push	 edi
  0000c	51		 push	 ecx
  0000d	8d bd 34 ff ff
	ff		 lea	 edi, DWORD PTR [ebp-204]
  00013	b9 33 00 00 00	 mov	 ecx, 51			; 00000033H
  00018	b8 cc cc cc cc	 mov	 eax, -858993460		; ccccccccH
  0001d	f3 ab		 rep stosd
  0001f	59		 pop	 ecx
  00020	89 4d f8	 mov	 DWORD PTR _this$[ebp], ecx

; 257  :     return D3DXVECTOR3(x + v.x, y + v.y, z + v.z);

  00023	8b 45 f8	 mov	 eax, DWORD PTR _this$[ebp]
  00026	8b 4d 0c	 mov	 ecx, DWORD PTR _v$[ebp]
  00029	d9 40 08	 fld	 DWORD PTR [eax+8]
  0002c	d8 41 08	 fadd	 DWORD PTR [ecx+8]
  0002f	51		 push	 ecx
  00030	d9 1c 24	 fstp	 DWORD PTR [esp]
  00033	8b 55 f8	 mov	 edx, DWORD PTR _this$[ebp]
  00036	8b 45 0c	 mov	 eax, DWORD PTR _v$[ebp]
  00039	d9 42 04	 fld	 DWORD PTR [edx+4]
  0003c	d8 40 04	 fadd	 DWORD PTR [eax+4]
  0003f	51		 push	 ecx
  00040	d9 1c 24	 fstp	 DWORD PTR [esp]
  00043	8b 4d f8	 mov	 ecx, DWORD PTR _this$[ebp]
  00046	8b 55 0c	 mov	 edx, DWORD PTR _v$[ebp]
  00049	d9 01		 fld	 DWORD PTR [ecx]
  0004b	d8 02		 fadd	 DWORD PTR [edx]
  0004d	51		 push	 ecx
  0004e	d9 1c 24	 fstp	 DWORD PTR [esp]
  00051	8b 4d 08	 mov	 ecx, DWORD PTR ___$ReturnUdt$[ebp]
  00054	e8 00 00 00 00	 call	 ??0D3DXVECTOR3@@QAE@MMM@Z ; D3DXVECTOR3::D3DXVECTOR3
  00059	8b 45 08	 mov	 eax, DWORD PTR ___$ReturnUdt$[ebp]

; 258  : }

  0005c	5f		 pop	 edi
  0005d	5e		 pop	 esi
  0005e	5b		 pop	 ebx
  0005f	81 c4 cc 00 00
	00		 add	 esp, 204		; 000000ccH
  00065	3b ec		 cmp	 ebp, esp
  00067	e8 00 00 00 00	 call	 __RTC_CheckEsp
  0006c	8b e5		 mov	 esp, ebp
  0006e	5d		 pop	 ebp
  0006f	c2 08 00	 ret	 8
??HD3DXVECTOR3@@QBE?AU0@ABU0@@Z ENDP			; D3DXVECTOR3::operator+
; Function compile flags: /Odt /RTCsu /ZI
_TEXT	ENDS
;	COMDAT ??DD3DXVECTOR3@@QBE?AU0@M@Z
_TEXT	SEGMENT
_this$ = -8
___$ReturnUdt$ = 8
_f$ = 12
??DD3DXVECTOR3@@QBE?AU0@M@Z PROC NEAR			; D3DXVECTOR3::operator*, COMDAT
; _this$ = ecx

; 268  : {

  00000	55		 push	 ebp
  00001	8b ec		 mov	 ebp, esp
  00003	81 ec cc 00 00
	00		 sub	 esp, 204		; 000000ccH
  00009	53		 push	 ebx
  0000a	56		 push	 esi
  0000b	57		 push	 edi
  0000c	51		 push	 ecx
  0000d	8d bd 34 ff ff
	ff		 lea	 edi, DWORD PTR [ebp-204]
  00013	b9 33 00 00 00	 mov	 ecx, 51			; 00000033H
  00018	b8 cc cc cc cc	 mov	 eax, -858993460		; ccccccccH
  0001d	f3 ab		 rep stosd
  0001f	59		 pop	 ecx
  00020	89 4d f8	 mov	 DWORD PTR _this$[ebp], ecx

; 269  :     return D3DXVECTOR3(x * f, y * f, z * f);

  00023	8b 45 f8	 mov	 eax, DWORD PTR _this$[ebp]
  00026	d9 45 0c	 fld	 DWORD PTR _f$[ebp]
  00029	d8 48 08	 fmul	 DWORD PTR [eax+8]
  0002c	51		 push	 ecx
  0002d	d9 1c 24	 fstp	 DWORD PTR [esp]
  00030	8b 4d f8	 mov	 ecx, DWORD PTR _this$[ebp]
  00033	d9 45 0c	 fld	 DWORD PTR _f$[ebp]
  00036	d8 49 04	 fmul	 DWORD PTR [ecx+4]
  00039	51		 push	 ecx
  0003a	d9 1c 24	 fstp	 DWORD PTR [esp]
  0003d	8b 55 f8	 mov	 edx, DWORD PTR _this$[ebp]
  00040	d9 45 0c	 fld	 DWORD PTR _f$[ebp]
  00043	d8 0a		 fmul	 DWORD PTR [edx]
  00045	51		 push	 ecx
  00046	d9 1c 24	 fstp	 DWORD PTR [esp]
  00049	8b 4d 08	 mov	 ecx, DWORD PTR ___$ReturnUdt$[ebp]
  0004c	e8 00 00 00 00	 call	 ??0D3DXVECTOR3@@QAE@MMM@Z ; D3DXVECTOR3::D3DXVECTOR3
  00051	8b 45 08	 mov	 eax, DWORD PTR ___$ReturnUdt$[ebp]

; 270  : }

  00054	5f		 pop	 edi
  00055	5e		 pop	 esi
  00056	5b		 pop	 ebx
  00057	81 c4 cc 00 00
	00		 add	 esp, 204		; 000000ccH
  0005d	3b ec		 cmp	 ebp, esp
  0005f	e8 00 00 00 00	 call	 __RTC_CheckEsp
  00064	8b e5		 mov	 esp, ebp
  00066	5d		 pop	 ebp
  00067	c2 08 00	 ret	 8
??DD3DXVECTOR3@@QBE?AU0@M@Z ENDP			; D3DXVECTOR3::operator*
; Function compile flags: /Odt /RTCsu /ZI
_TEXT	ENDS
;	COMDAT ??D@YA?AUD3DXVECTOR3@@MABU0@@Z
_TEXT	SEGMENT
___$ReturnUdt$ = 8
_f$ = 12
_v$ = 16
??D@YA?AUD3DXVECTOR3@@MABU0@@Z PROC NEAR		; operator*, COMDAT

; 282  : {

  00000	55		 push	 ebp
  00001	8b ec		 mov	 ebp, esp
  00003	81 ec c0 00 00
	00		 sub	 esp, 192		; 000000c0H
  00009	53		 push	 ebx
  0000a	56		 push	 esi
  0000b	57		 push	 edi
  0000c	8d bd 40 ff ff
	ff		 lea	 edi, DWORD PTR [ebp-192]
  00012	b9 30 00 00 00	 mov	 ecx, 48			; 00000030H
  00017	b8 cc cc cc cc	 mov	 eax, -858993460		; ccccccccH
  0001c	f3 ab		 rep stosd

; 283  :     return D3DXVECTOR3(f * v.x, f * v.y, f * v.z);

  0001e	8b 45 10	 mov	 eax, DWORD PTR _v$[ebp]
  00021	d9 45 0c	 fld	 DWORD PTR _f$[ebp]
  00024	d8 48 08	 fmul	 DWORD PTR [eax+8]
  00027	51		 push	 ecx
  00028	d9 1c 24	 fstp	 DWORD PTR [esp]
  0002b	8b 4d 10	 mov	 ecx, DWORD PTR _v$[ebp]
  0002e	d9 45 0c	 fld	 DWORD PTR _f$[ebp]
  00031	d8 49 04	 fmul	 DWORD PTR [ecx+4]
  00034	51		 push	 ecx
  00035	d9 1c 24	 fstp	 DWORD PTR [esp]
  00038	8b 55 10	 mov	 edx, DWORD PTR _v$[ebp]
  0003b	d9 45 0c	 fld	 DWORD PTR _f$[ebp]
  0003e	d8 0a		 fmul	 DWORD PTR [edx]
  00040	51		 push	 ecx
  00041	d9 1c 24	 fstp	 DWORD PTR [esp]
  00044	8b 4d 08	 mov	 ecx, DWORD PTR ___$ReturnUdt$[ebp]
  00047	e8 00 00 00 00	 call	 ??0D3DXVECTOR3@@QAE@MMM@Z ; D3DXVECTOR3::D3DXVECTOR3
  0004c	8b 45 08	 mov	 eax, DWORD PTR ___$ReturnUdt$[ebp]

; 284  : }

  0004f	5f		 pop	 edi
  00050	5e		 pop	 esi
  00051	5b		 pop	 ebx
  00052	81 c4 c0 00 00
	00		 add	 esp, 192		; 000000c0H
  00058	3b ec		 cmp	 ebp, esp
  0005a	e8 00 00 00 00	 call	 __RTC_CheckEsp
  0005f	8b e5		 mov	 esp, ebp
  00061	5d		 pop	 ebp
  00062	c3		 ret	 0
??D@YA?AUD3DXVECTOR3@@MABU0@@Z ENDP			; operator*
; Function compile flags: /Odt /RTCsu /ZI
_TEXT	ENDS
;	COMDAT ??0FIGHTER_PROJECTILE@CFighter@@QAE@XZ
_TEXT	SEGMENT
_this$ = -8
??0FIGHTER_PROJECTILE@CFighter@@QAE@XZ PROC NEAR	; CFighter::FIGHTER_PROJECTILE::FIGHTER_PROJECTILE, COMDAT
; _this$ = ecx
  00000	55		 push	 ebp
  00001	8b ec		 mov	 ebp, esp
  00003	81 ec cc 00 00
	00		 sub	 esp, 204		; 000000ccH
  00009	53		 push	 ebx
  0000a	56		 push	 esi
  0000b	57		 push	 edi
  0000c	51		 push	 ecx
  0000d	8d bd 34 ff ff
	ff		 lea	 edi, DWORD PTR [ebp-204]
  00013	b9 33 00 00 00	 mov	 ecx, 51			; 00000033H
  00018	b8 cc cc cc cc	 mov	 eax, -858993460		; ccccccccH
  0001d	f3 ab		 rep stosd
  0001f	59		 pop	 ecx
  00020	89 4d f8	 mov	 DWORD PTR _this$[ebp], ecx
  00023	8b 4d f8	 mov	 ecx, DWORD PTR _this$[ebp]
  00026	83 c1 10	 add	 ecx, 16			; 00000010H
  00029	e8 00 00 00 00	 call	 ??0D3DXVECTOR3@@QAE@XZ	; D3DXVECTOR3::D3DXVECTOR3
  0002e	8b 4d f8	 mov	 ecx, DWORD PTR _this$[ebp]
  00031	83 c1 1c	 add	 ecx, 28			; 0000001cH
  00034	e8 00 00 00 00	 call	 ??0D3DXVECTOR3@@QAE@XZ	; D3DXVECTOR3::D3DXVECTOR3
  00039	8b 4d f8	 mov	 ecx, DWORD PTR _this$[ebp]
  0003c	83 c1 2c	 add	 ecx, 44			; 0000002cH
  0003f	e8 00 00 00 00	 call	 ??0D3DXVECTOR3@@QAE@XZ	; D3DXVECTOR3::D3DXVECTOR3
  00044	8b 4d f8	 mov	 ecx, DWORD PTR _this$[ebp]
  00047	83 c1 44	 add	 ecx, 68			; 00000044H
  0004a	e8 00 00 00 00	 call	 ??0D3DXMATRIX@@QAE@XZ	; D3DXMATRIX::D3DXMATRIX
  0004f	8b 45 f8	 mov	 eax, DWORD PTR _this$[ebp]
  00052	5f		 pop	 edi
  00053	5e		 pop	 esi
  00054	5b		 pop	 ebx
  00055	81 c4 cc 00 00
	00		 add	 esp, 204		; 000000ccH
  0005b	3b ec		 cmp	 ebp, esp
  0005d	e8 00 00 00 00	 call	 __RTC_CheckEsp
  00062	8b e5		 mov	 esp, ebp
  00064	5d		 pop	 ebp
  00065	c3		 ret	 0
??0FIGHTER_PROJECTILE@CFighter@@QAE@XZ ENDP		; CFighter::FIGHTER_PROJECTILE::FIGHTER_PROJECTILE
_TEXT	ENDS
PUBLIC	?AnimateProjectiles@CFighter@@QAEXMMPAVCTerrain@@PAVCRace@@@Z ; CFighter::AnimateProjectiles
PUBLIC	?KillProjectile@CFighter@@QAEPAUFIGHTER_PROJECTILE@1@PAU21@@Z ; CFighter::KillProjectile
PUBLIC	__real@49742400
PUBLIC	__real@3f000000
EXTRN	?LERPdY@CTerrain@@QAEXMMPAMPAHPAUD3DXVECTOR3@@@Z:NEAR ; CTerrain::LERPdY
EXTRN	?g_ParticleColor@@3PAUD3DXCOLOR@@A:BYTE		; g_ParticleColor
EXTRN	?ImpactTerrain@CParticleSystem@@QAEHPAUD3DXVECTOR3@@MMMM@Z:NEAR ; CParticleSystem::ImpactTerrain
EXTRN	?ImpactFighter@CParticleSystem@@QAEHPAUD3DXVECTOR3@@MMMM0@Z:NEAR ; CParticleSystem::ImpactFighter
EXTRN	?DetectAndHandleProjectileAgainstAllFighters@CRace@@QAEHPAX0PAPAX@Z:NEAR ; CRace::DetectAndHandleProjectileAgainstAllFighters
;	COMDAT __real@49742400
; File c:\documents and settings\dom\my documents\_dev\ae\xlr8a\x7g\cfighter.cpp
CONST	SEGMENT
__real@49742400 DD 049742400r			; 1e+006
CONST	ENDS
;	COMDAT __real@3f000000
CONST	SEGMENT
__real@3f000000 DD 03f000000r			; 0.5
; Function compile flags: /Odt /RTCsu /ZI
CONST	ENDS
;	COMDAT ?AnimateProjectiles@CFighter@@QAEXMMPAVCTerrain@@PAVCRace@@@Z
_TEXT	SEGMENT
tv317 = -800
tv309 = -796
tv301 = -792
tv290 = -788
tv282 = -784
tv274 = -780
$T94751 = -772
$T94750 = -752
$T94749 = -728
$T94742 = -704
$T94735 = -684
$T94734 = -664
$T94733 = -644
$T94732 = -624
_f$94018 = -412
_fTimeRemaining$94017 = -400
_pHit$94005 = -388
_X$ = -376
_N$ = -356
_A$ = -336
_fMinTerrainY$ = -316
_bAboveTerrain$ = -304
_vTerrainVerts$ = -292
_vnAvg$ = -236
_vn2$ = -216
_vn1$ = -196
_vcp$ = -176
_vd2$ = -156
_vd1$ = -136
_bStillEmitting$ = -116
_nParticlesToEmit$ = -104
_pProjectile$ = -92
_m$ = -80
_this$ = -8
_fFPS$ = 8
_fElapsedTime$ = 12
_pTerrain$ = 16
_pRace$ = 20
?AnimateProjectiles@CFighter@@QAEXMMPAVCTerrain@@PAVCRace@@@Z PROC NEAR ; CFighter::AnimateProjectiles, COMDAT
; _this$ = ecx

; 748  : 	{

  00000	55		 push	 ebp
  00001	8b ec		 mov	 ebp, esp
  00003	81 ec 20 03 00
	00		 sub	 esp, 800		; 00000320H
  00009	53		 push	 ebx
  0000a	56		 push	 esi
  0000b	57		 push	 edi
  0000c	51		 push	 ecx
  0000d	8d bd e0 fc ff
	ff		 lea	 edi, DWORD PTR [ebp-800]
  00013	b9 c8 00 00 00	 mov	 ecx, 200		; 000000c8H
  00018	b8 cc cc cc cc	 mov	 eax, -858993460		; ccccccccH
  0001d	f3 ab		 rep stosd
  0001f	59		 pop	 ecx
  00020	89 4d f8	 mov	 DWORD PTR _this$[ebp], ecx

; 749  : 		xMat m ;

  00023	8d 4d b0	 lea	 ecx, DWORD PTR _m$[ebp]
  00026	e8 00 00 00 00	 call	 ??0D3DXMATRIX@@QAE@XZ	; D3DXMATRIX::D3DXMATRIX

; 750  : 		FIGHTER_PROJECTILE* pProjectile = m_pProjectiles ;

  0002b	8b 45 f8	 mov	 eax, DWORD PTR _this$[ebp]
  0002e	8b 88 8c 01 00
	00		 mov	 ecx, DWORD PTR [eax+396]
  00034	89 4d a4	 mov	 DWORD PTR _pProjectile$[ebp], ecx

; 751  : 		int nParticlesToEmit = 0 ;

  00037	c7 45 98 00 00
	00 00		 mov	 DWORD PTR _nParticlesToEmit$[ebp], 0

; 752  : 		BOOL bStillEmitting = FALSE ;

  0003e	c7 45 8c 00 00
	00 00		 mov	 DWORD PTR _bStillEmitting$[ebp], 0

; 753  : 		xVec3 vd1, vd2, vcp, vn1, vn2, vnAvg, vTerrainVerts[4] ;

  00045	8d 8d 78 ff ff
	ff		 lea	 ecx, DWORD PTR _vd1$[ebp]
  0004b	e8 00 00 00 00	 call	 ??0D3DXVECTOR3@@QAE@XZ	; D3DXVECTOR3::D3DXVECTOR3
  00050	8d 8d 64 ff ff
	ff		 lea	 ecx, DWORD PTR _vd2$[ebp]
  00056	e8 00 00 00 00	 call	 ??0D3DXVECTOR3@@QAE@XZ	; D3DXVECTOR3::D3DXVECTOR3
  0005b	8d 8d 50 ff ff
	ff		 lea	 ecx, DWORD PTR _vcp$[ebp]
  00061	e8 00 00 00 00	 call	 ??0D3DXVECTOR3@@QAE@XZ	; D3DXVECTOR3::D3DXVECTOR3
  00066	8d 8d 3c ff ff
	ff		 lea	 ecx, DWORD PTR _vn1$[ebp]
  0006c	e8 00 00 00 00	 call	 ??0D3DXVECTOR3@@QAE@XZ	; D3DXVECTOR3::D3DXVECTOR3
  00071	8d 8d 28 ff ff
	ff		 lea	 ecx, DWORD PTR _vn2$[ebp]
  00077	e8 00 00 00 00	 call	 ??0D3DXVECTOR3@@QAE@XZ	; D3DXVECTOR3::D3DXVECTOR3
  0007c	8d 8d 14 ff ff
	ff		 lea	 ecx, DWORD PTR _vnAvg$[ebp]
  00082	e8 00 00 00 00	 call	 ??0D3DXVECTOR3@@QAE@XZ	; D3DXVECTOR3::D3DXVECTOR3
  00087	68 00 00 00 00	 push	 OFFSET FLAT:??0D3DXVECTOR3@@QAE@XZ ; D3DXVECTOR3::D3DXVECTOR3
  0008c	6a 04		 push	 4
  0008e	6a 0c		 push	 12			; 0000000cH
  00090	8d 85 dc fe ff
	ff		 lea	 eax, DWORD PTR _vTerrainVerts$[ebp]
  00096	50		 push	 eax
  00097	e8 00 00 00 00	 call	 ??_H@YGXPAXIHP6EPAX0@Z@Z

; 754  : 		BOOL bAboveTerrain ;//, bCollision ;
; 755  : 		float fMinTerrainY ;
; 756  : 		xVec3 A, N, X ;

  0009c	8d 8d b0 fe ff
	ff		 lea	 ecx, DWORD PTR _A$[ebp]
  000a2	e8 00 00 00 00	 call	 ??0D3DXVECTOR3@@QAE@XZ	; D3DXVECTOR3::D3DXVECTOR3
  000a7	8d 8d 9c fe ff
	ff		 lea	 ecx, DWORD PTR _N$[ebp]
  000ad	e8 00 00 00 00	 call	 ??0D3DXVECTOR3@@QAE@XZ	; D3DXVECTOR3::D3DXVECTOR3
  000b2	8d 8d 88 fe ff
	ff		 lea	 ecx, DWORD PTR _X$[ebp]
  000b8	e8 00 00 00 00	 call	 ??0D3DXVECTOR3@@QAE@XZ	; D3DXVECTOR3::D3DXVECTOR3
$L93999:

; 757  : 
; 758  : 		while( pProjectile )

  000bd	83 7d a4 00	 cmp	 DWORD PTR _pProjectile$[ebp], 0
  000c1	0f 84 7f 05 00
	00		 je	 $L93980

; 759  : 		{
; 760  : 			if( pProjectile->fAge > 0.0f )

  000c7	8b 45 a4	 mov	 eax, DWORD PTR _pProjectile$[ebp]
  000ca	d9 40 08	 fld	 DWORD PTR [eax+8]
  000cd	d8 1d 00 00 00
	00		 fcomp	 DWORD PTR __real@00000000
  000d3	df e0		 fnstsw	 ax
  000d5	f6 c4 41	 test	 ah, 65			; 00000041H
  000d8	0f 85 42 05 00
	00		 jne	 $L94001

; 761  : 			{
; 762  : 			// test projectile's instantaneous collision-detection point for collisions
; 763  : 				if( !pProjectile->bImpacting )

  000de	8b 45 a4	 mov	 eax, DWORD PTR _pProjectile$[ebp]
  000e1	83 b8 90 00 00
	00 00		 cmp	 DWORD PTR [eax+144], 0
  000e8	0f 85 a0 01 00
	00		 jne	 $L94002

; 764  : 				{
; 765  : 				// terrain collision;
; 766  : 					pTerrain->LERPdY( pProjectile->vLeadingPos.x, pProjectile->vLeadingPos.z, &fMinTerrainY, &bAboveTerrain, vTerrainVerts );

  000ee	8d 85 dc fe ff
	ff		 lea	 eax, DWORD PTR _vTerrainVerts$[ebp]
  000f4	50		 push	 eax
  000f5	8d 8d d0 fe ff
	ff		 lea	 ecx, DWORD PTR _bAboveTerrain$[ebp]
  000fb	51		 push	 ecx
  000fc	8d 95 c4 fe ff
	ff		 lea	 edx, DWORD PTR _fMinTerrainY$[ebp]
  00102	52		 push	 edx
  00103	8b 45 a4	 mov	 eax, DWORD PTR _pProjectile$[ebp]
  00106	8b 48 18	 mov	 ecx, DWORD PTR [eax+24]
  00109	51		 push	 ecx
  0010a	8b 55 a4	 mov	 edx, DWORD PTR _pProjectile$[ebp]
  0010d	8b 42 10	 mov	 eax, DWORD PTR [edx+16]
  00110	50		 push	 eax
  00111	8b 4d 10	 mov	 ecx, DWORD PTR _pTerrain$[ebp]
  00114	e8 00 00 00 00	 call	 ?LERPdY@CTerrain@@QAEXMMPAMPAHPAUD3DXVECTOR3@@@Z ; CTerrain::LERPdY

; 767  : 					if( pProjectile->vLeadingPos.y < fMinTerrainY && bAboveTerrain )

  00119	8b 45 a4	 mov	 eax, DWORD PTR _pProjectile$[ebp]
  0011c	d9 40 14	 fld	 DWORD PTR [eax+20]
  0011f	d8 9d c4 fe ff
	ff		 fcomp	 DWORD PTR _fMinTerrainY$[ebp]
  00125	df e0		 fnstsw	 ax
  00127	f6 c4 05	 test	 ah, 5
  0012a	7a 7e		 jp	 SHORT $L94003
  0012c	83 bd d0 fe ff
	ff 00		 cmp	 DWORD PTR _bAboveTerrain$[ebp], 0
  00133	74 75		 je	 SHORT $L94003

; 768  : 					{
; 769  : 						/*GetAvgNormalFrom4TerrainVerts( &vnAvg, vTerrainVerts );
; 770  : 						D3DXVec3Normalize( &N, &vnAvg );
; 771  : 						D3DXVec3Normalize( &A, &pProjectile->vVel );
; 772  : 						X = (2.0f * N) + A ;*/
; 773  : 
; 774  : 					// play particle system's impact effect;
; 775  : 						X = xVec3( 1,1,1 );

  00135	68 00 00 80 3f	 push	 1065353216		; 3f800000H
  0013a	68 00 00 80 3f	 push	 1065353216		; 3f800000H
  0013f	68 00 00 80 3f	 push	 1065353216		; 3f800000H
  00144	8d 8d 90 fd ff
	ff		 lea	 ecx, DWORD PTR $T94732[ebp]
  0014a	e8 00 00 00 00	 call	 ??0D3DXVECTOR3@@QAE@MMM@Z ; D3DXVECTOR3::D3DXVECTOR3
  0014f	8b 08		 mov	 ecx, DWORD PTR [eax]
  00151	89 8d 88 fe ff
	ff		 mov	 DWORD PTR _X$[ebp], ecx
  00157	8b 50 04	 mov	 edx, DWORD PTR [eax+4]
  0015a	89 95 8c fe ff
	ff		 mov	 DWORD PTR _X$[ebp+4], edx
  00160	8b 40 08	 mov	 eax, DWORD PTR [eax+8]
  00163	89 85 90 fe ff
	ff		 mov	 DWORD PTR _X$[ebp+8], eax

; 776  : 						pProjectile->pPS->ImpactTerrain( &X,
; 777  : 														 fFPS, pTerrain->m_fLenSQ,
; 778  : 														 pProjectile->fImpactFXLifetime,
; 779  : 														 pProjectile->fImpactFXSpeed );

  00169	8b 45 a4	 mov	 eax, DWORD PTR _pProjectile$[ebp]
  0016c	8b 88 98 00 00
	00		 mov	 ecx, DWORD PTR [eax+152]
  00172	51		 push	 ecx
  00173	8b 55 a4	 mov	 edx, DWORD PTR _pProjectile$[ebp]
  00176	8b 82 94 00 00
	00		 mov	 eax, DWORD PTR [edx+148]
  0017c	50		 push	 eax
  0017d	8b 4d 10	 mov	 ecx, DWORD PTR _pTerrain$[ebp]
  00180	8b 51 18	 mov	 edx, DWORD PTR [ecx+24]
  00183	52		 push	 edx
  00184	8b 45 08	 mov	 eax, DWORD PTR _fFPS$[ebp]
  00187	50		 push	 eax
  00188	8d 8d 88 fe ff
	ff		 lea	 ecx, DWORD PTR _X$[ebp]
  0018e	51		 push	 ecx
  0018f	8b 55 a4	 mov	 edx, DWORD PTR _pProjectile$[ebp]
  00192	8b 8a 84 00 00
	00		 mov	 ecx, DWORD PTR [edx+132]
  00198	e8 00 00 00 00	 call	 ?ImpactTerrain@CParticleSystem@@QAEHPAUD3DXVECTOR3@@MMMM@Z ; CParticleSystem::ImpactTerrain

; 780  : 						pProjectile->bImpacting = TRUE ;

  0019d	8b 45 a4	 mov	 eax, DWORD PTR _pProjectile$[ebp]
  001a0	c7 80 90 00 00
	00 01 00 00 00	 mov	 DWORD PTR [eax+144], 1
$L94003:

; 781  : 					}
; 782  : 
; 783  : 				// collisions with other ships;
; 784  : 					CFighter* pHit ;
; 785  : 					if( pRace->DetectAndHandleProjectileAgainstAllFighters( (void*)pProjectile, (void*)this, (void**)&pHit ) )

  001aa	8d 85 7c fe ff
	ff		 lea	 eax, DWORD PTR _pHit$94005[ebp]
  001b0	50		 push	 eax
  001b1	8b 4d f8	 mov	 ecx, DWORD PTR _this$[ebp]
  001b4	51		 push	 ecx
  001b5	8b 55 a4	 mov	 edx, DWORD PTR _pProjectile$[ebp]
  001b8	52		 push	 edx
  001b9	8b 4d 14	 mov	 ecx, DWORD PTR _pRace$[ebp]
  001bc	e8 00 00 00 00	 call	 ?DetectAndHandleProjectileAgainstAllFighters@CRace@@QAEHPAX0PAPAX@Z ; CRace::DetectAndHandleProjectileAgainstAllFighters
  001c1	85 c0		 test	 eax, eax
  001c3	0f 84 c5 00 00
	00		 je	 $L94002

; 786  : 					{
; 787  : 						D3DXVec3Normalize( &X, &pProjectile->vVel );

  001c9	8b 45 a4	 mov	 eax, DWORD PTR _pProjectile$[ebp]
  001cc	83 c0 2c	 add	 eax, 44			; 0000002cH
  001cf	50		 push	 eax
  001d0	8d 8d 88 fe ff
	ff		 lea	 ecx, DWORD PTR _X$[ebp]
  001d6	51		 push	 ecx
  001d7	e8 00 00 00 00	 call	 _D3DXVec3Normalize@8

; 788  : 						X.x = ( X.x + 1 ) / 2;

  001dc	d9 85 88 fe ff
	ff		 fld	 DWORD PTR _X$[ebp]
  001e2	d8 05 00 00 00
	00		 fadd	 DWORD PTR __real@3f800000
  001e8	d8 35 00 00 00
	00		 fdiv	 DWORD PTR __real@40000000
  001ee	d9 9d 88 fe ff
	ff		 fstp	 DWORD PTR _X$[ebp]

; 789  : 						X.y = ( X.y + 1 ) / 2;

  001f4	d9 85 8c fe ff
	ff		 fld	 DWORD PTR _X$[ebp+4]
  001fa	d8 05 00 00 00
	00		 fadd	 DWORD PTR __real@3f800000
  00200	d8 35 00 00 00
	00		 fdiv	 DWORD PTR __real@40000000
  00206	d9 9d 8c fe ff
	ff		 fstp	 DWORD PTR _X$[ebp+4]

; 790  : 						X.z = ( X.z + 1 ) / 2;

  0020c	d9 85 90 fe ff
	ff		 fld	 DWORD PTR _X$[ebp+8]
  00212	d8 05 00 00 00
	00		 fadd	 DWORD PTR __real@3f800000
  00218	d8 35 00 00 00
	00		 fdiv	 DWORD PTR __real@40000000
  0021e	d9 9d 90 fe ff
	ff		 fstp	 DWORD PTR _X$[ebp+8]

; 791  : 
; 792  : 					// play particle system's impact effect;
; 793  : 						pProjectile->pPS->ImpactFighter( &X,
; 794  : 														 fFPS, pTerrain->m_fLenSQ,
; 795  : 														 pProjectile->fImpactFXLifetime,
; 796  : 														 pProjectile->fImpactFXSpeed,
; 797  : 														 (xVec3*)&(pHit->m_fSpeed * pHit->m_vOrientation) );

  00224	8b 85 7c fe ff
	ff		 mov	 eax, DWORD PTR _pHit$94005[ebp]
  0022a	05 c0 01 00 00	 add	 eax, 448		; 000001c0H
  0022f	50		 push	 eax
  00230	8b 8d 7c fe ff
	ff		 mov	 ecx, DWORD PTR _pHit$94005[ebp]
  00236	8b 91 a4 01 00
	00		 mov	 edx, DWORD PTR [ecx+420]
  0023c	52		 push	 edx
  0023d	8d 85 7c fd ff
	ff		 lea	 eax, DWORD PTR $T94733[ebp]
  00243	50		 push	 eax
  00244	e8 00 00 00 00	 call	 ??D@YA?AUD3DXVECTOR3@@MABU0@@Z ; operator*
  00249	83 c4 0c	 add	 esp, 12			; 0000000cH
  0024c	50		 push	 eax
  0024d	8b 4d a4	 mov	 ecx, DWORD PTR _pProjectile$[ebp]
  00250	8b 91 98 00 00
	00		 mov	 edx, DWORD PTR [ecx+152]
  00256	52		 push	 edx
  00257	8b 45 a4	 mov	 eax, DWORD PTR _pProjectile$[ebp]
  0025a	8b 88 94 00 00
	00		 mov	 ecx, DWORD PTR [eax+148]
  00260	51		 push	 ecx
  00261	8b 55 10	 mov	 edx, DWORD PTR _pTerrain$[ebp]
  00264	8b 42 18	 mov	 eax, DWORD PTR [edx+24]
  00267	50		 push	 eax
  00268	8b 4d 08	 mov	 ecx, DWORD PTR _fFPS$[ebp]
  0026b	51		 push	 ecx
  0026c	8d 95 88 fe ff
	ff		 lea	 edx, DWORD PTR _X$[ebp]
  00272	52		 push	 edx
  00273	8b 45 a4	 mov	 eax, DWORD PTR _pProjectile$[ebp]
  00276	8b 88 84 00 00
	00		 mov	 ecx, DWORD PTR [eax+132]
  0027c	e8 00 00 00 00	 call	 ?ImpactFighter@CParticleSystem@@QAEHPAUD3DXVECTOR3@@MMMM0@Z ; CParticleSystem::ImpactFighter

; 798  : 						pProjectile->bImpacting = TRUE ;

  00281	8b 45 a4	 mov	 eax, DWORD PTR _pProjectile$[ebp]
  00284	c7 80 90 00 00
	00 01 00 00 00	 mov	 DWORD PTR [eax+144], 1
$L94002:

; 799  : 					}
; 800  : 				}
; 801  : 
; 802  : 			// kill projectiles after they've finished their impact effect
; 803  : 				if( pProjectile->fImpactFXAge >= pProjectile->fImpactFXLifetime )

  0028e	8b 45 a4	 mov	 eax, DWORD PTR _pProjectile$[ebp]
  00291	8b 4d a4	 mov	 ecx, DWORD PTR _pProjectile$[ebp]
  00294	d9 80 9c 00 00
	00		 fld	 DWORD PTR [eax+156]
  0029a	d8 99 94 00 00
	00		 fcomp	 DWORD PTR [ecx+148]
  002a0	df e0		 fnstsw	 ax
  002a2	f6 c4 01	 test	 ah, 1
  002a5	75 14		 jne	 SHORT $L94012

; 804  : 				{
; 805  : 					pProjectile = KillProjectile( pProjectile );

  002a7	8b 45 a4	 mov	 eax, DWORD PTR _pProjectile$[ebp]
  002aa	50		 push	 eax
  002ab	8b 4d f8	 mov	 ecx, DWORD PTR _this$[ebp]
  002ae	e8 00 00 00 00	 call	 ?KillProjectile@CFighter@@QAEPAUFIGHTER_PROJECTILE@1@PAU21@@Z ; CFighter::KillProjectile
  002b3	89 45 a4	 mov	 DWORD PTR _pProjectile$[ebp], eax

; 806  : 					continue ;

  002b6	e9 02 fe ff ff	 jmp	 $L93999
$L94012:

; 807  : 				}
; 808  : 
; 809  : 			// make all projectiles die without effect after a certain amount of life
; 810  : 				if( pProjectile->fAge > pProjectile->fLifetime )

  002bb	8b 45 a4	 mov	 eax, DWORD PTR _pProjectile$[ebp]
  002be	8b 4d a4	 mov	 ecx, DWORD PTR _pProjectile$[ebp]
  002c1	d9 40 08	 fld	 DWORD PTR [eax+8]
  002c4	d8 59 0c	 fcomp	 DWORD PTR [ecx+12]
  002c7	df e0		 fnstsw	 ax
  002c9	f6 c4 41	 test	 ah, 65			; 00000041H
  002cc	75 14		 jne	 SHORT $L94013

; 811  : 				{
; 812  : 					pProjectile = KillProjectile( pProjectile );

  002ce	8b 45 a4	 mov	 eax, DWORD PTR _pProjectile$[ebp]
  002d1	50		 push	 eax
  002d2	8b 4d f8	 mov	 ecx, DWORD PTR _this$[ebp]
  002d5	e8 00 00 00 00	 call	 ?KillProjectile@CFighter@@QAEPAUFIGHTER_PROJECTILE@1@PAU21@@Z ; CFighter::KillProjectile
  002da	89 45 a4	 mov	 DWORD PTR _pProjectile$[ebp], eax

; 813  : 					continue ;

  002dd	e9 db fd ff ff	 jmp	 $L93999
$L94013:

; 814  : 				}
; 815  : 
; 816  : 			// make all projectiles die without effect when they are a certain distance from the origin.
; 817  : 			// NOTE: this leads to strange 'fast-fire' effects when firing at the extreme of the 'life-zone' for projectiles.
; 818  : 				/*if( fabsf( D3DXVec3Length(&pProjectile->vLeadingPos) ) > pTerrain->m_fLenSQ * 0.5f )
; 819  : 				{
; 820  : 					pProjectile = KillProjectile( pProjectile );
; 821  : 					continue ;
; 822  : 				}*/
; 823  : 
; 824  : 			// advance dynamic particles animation
; 825  : 				if( !pProjectile->bStaticPS )

  002e2	8b 45 a4	 mov	 eax, DWORD PTR _pProjectile$[ebp]
  002e5	83 78 40 00	 cmp	 DWORD PTR [eax+64], 0
  002e9	75 50		 jne	 SHORT $L94014

; 826  : 					pProjectile->pPS->FrameMove( fFPS,
; 827  : 												&pProjectile->vVel,
; 828  : 												1.0f / fFPS,
; 829  : 												0,						// no. to emit
; 830  : 												0.0f,					// particle lifetime
; 831  : 												FALSE,					// gravity
; 832  : 												g_ParticleColor[ 0 ],
; 833  : 												g_ParticleColor[ 0 ],
; 834  : 												&xVec3( 0,0,0 ),	// emit velocity:
; 835  : 												NULL,					// emit position:
; 836  : 												FALSE,					// spherical emit
; 837  : 												0.0f,					// scatter
; 838  : 												FALSE					// compute bounding volume
; 839  : 												);

  002eb	6a 00		 push	 0
  002ed	6a 00		 push	 0
  002ef	6a 00		 push	 0
  002f1	6a 00		 push	 0
  002f3	6a 00		 push	 0
  002f5	6a 00		 push	 0
  002f7	6a 00		 push	 0
  002f9	8d 8d 68 fd ff
	ff		 lea	 ecx, DWORD PTR $T94734[ebp]
  002ff	e8 00 00 00 00	 call	 ??0D3DXVECTOR3@@QAE@MMM@Z ; D3DXVECTOR3::D3DXVECTOR3
  00304	50		 push	 eax
  00305	68 00 00 00 00	 push	 OFFSET FLAT:?g_ParticleColor@@3PAUD3DXCOLOR@@A ; g_ParticleColor
  0030a	68 00 00 00 00	 push	 OFFSET FLAT:?g_ParticleColor@@3PAUD3DXCOLOR@@A ; g_ParticleColor
  0030f	6a 00		 push	 0
  00311	6a 00		 push	 0
  00313	6a 00		 push	 0
  00315	d9 05 00 00 00
	00		 fld	 DWORD PTR __real@3f800000
  0031b	d8 75 08	 fdiv	 DWORD PTR _fFPS$[ebp]
  0031e	51		 push	 ecx
  0031f	d9 1c 24	 fstp	 DWORD PTR [esp]
  00322	8b 45 a4	 mov	 eax, DWORD PTR _pProjectile$[ebp]
  00325	83 c0 2c	 add	 eax, 44			; 0000002cH
  00328	50		 push	 eax
  00329	8b 4d 08	 mov	 ecx, DWORD PTR _fFPS$[ebp]
  0032c	51		 push	 ecx
  0032d	8b 55 a4	 mov	 edx, DWORD PTR _pProjectile$[ebp]
  00330	8b 8a 84 00 00
	00		 mov	 ecx, DWORD PTR [edx+132]
  00336	e8 00 00 00 00	 call	 ?FrameMove@CParticleSystem@@QAEJMPAUD3DXVECTOR3@@MKMHABUD3DXCOLOR@@100HMH@Z ; CParticleSystem::FrameMove
$L94014:

; 840  : 
; 841  : 			// advance impact animation effect
; 842  : 				if( pProjectile->bImpacting )

  0033b	8b 45 a4	 mov	 eax, DWORD PTR _pProjectile$[ebp]
  0033e	83 b8 90 00 00
	00 00		 cmp	 DWORD PTR [eax+144], 0
  00345	0f 84 49 02 00
	00		 je	 $L94016

; 843  : 				{
; 844  : 					float fTimeRemaining = pProjectile->fImpactFXLifetime - pProjectile->fImpactFXAge ;

  0034b	8b 45 a4	 mov	 eax, DWORD PTR _pProjectile$[ebp]
  0034e	8b 4d a4	 mov	 ecx, DWORD PTR _pProjectile$[ebp]
  00351	d9 80 94 00 00
	00		 fld	 DWORD PTR [eax+148]
  00357	d8 a1 9c 00 00
	00		 fsub	 DWORD PTR [ecx+156]
  0035d	d9 9d 70 fe ff
	ff		 fstp	 DWORD PTR _fTimeRemaining$94017[ebp]

; 845  : 					float f = pTerrain->m_fLenSQ / 1000000.0f ;

  00363	8b 45 10	 mov	 eax, DWORD PTR _pTerrain$[ebp]
  00366	d9 40 18	 fld	 DWORD PTR [eax+24]
  00369	d8 35 00 00 00
	00		 fdiv	 DWORD PTR __real@49742400
  0036f	d9 9d 64 fe ff
	ff		 fstp	 DWORD PTR _f$94018[ebp]

; 846  : 					pProjectile->pPS->FrameMove( fFPS,
; 847  : 												&xVec3( 0,0,0 ),
; 848  : 												1.0f / fFPS,
; 849  : 																		// no. to emit
; 850  : 												/*fTimeRemaining > pProjectile->fImpactFXLifetime * 0.8f
; 851  : 													? (DWORD)( 50.0f * ( 60.0f / fFPS ) ) :*/ 0,
; 852  : 
; 853  : 												fTimeRemaining,			// particle lifetime
; 854  : 												FALSE,					// gravity
; 855  : 												D3DXCOLOR(0,1,0,0.5f),
; 856  : 												D3DXCOLOR(1,0,0.75f,0),
; 857  : 																		// emit velocity:
; 858  : 												&xVec3( rnd() * f * ( rnd() > 0.5f ? +1 : -1 ),
; 859  : 															  rnd() * f * ( rnd() > 0.5f ? +1 : -1 ),
; 860  : 															  rnd() * f * ( rnd() > 0.5f ? +1 : -1 ) ),
; 861  : 
; 862  : 																		// emit position:
; 863  : 												&xVec3( rnd() * f * ( rnd() > 0.5f ? +1 : -1 ),
; 864  : 															  rnd() * f * ( rnd() > 0.5f ? +1 : -1 ),
; 865  : 															  rnd() * f * ( rnd() > 0.5f ? +1 : -1 ) ),
; 866  : 
; 867  : 												FALSE,					// spherical emit
; 868  : 												0.01f,					// scatter
; 869  : 												TRUE					// compute bounding volume
; 870  : 												);

  00375	e8 00 00 00 00	 call	 ?rnd@@YAMXZ		; rnd
  0037a	d8 1d 00 00 00
	00		 fcomp	 DWORD PTR __real@3f000000
  00380	df e0		 fnstsw	 ax
  00382	f6 c4 41	 test	 ah, 65			; 00000041H
  00385	75 0c		 jne	 SHORT $L94736
  00387	c7 85 f4 fc ff
	ff 01 00 00 00	 mov	 DWORD PTR tv274[ebp], 1
  00391	eb 0a		 jmp	 SHORT $L94737
$L94736:
  00393	c7 85 f4 fc ff
	ff ff ff ff ff	 mov	 DWORD PTR tv274[ebp], -1
$L94737:
  0039d	e8 00 00 00 00	 call	 ?rnd@@YAMXZ		; rnd
  003a2	d8 1d 00 00 00
	00		 fcomp	 DWORD PTR __real@3f000000
  003a8	df e0		 fnstsw	 ax
  003aa	f6 c4 41	 test	 ah, 65			; 00000041H
  003ad	75 0c		 jne	 SHORT $L94738
  003af	c7 85 f0 fc ff
	ff 01 00 00 00	 mov	 DWORD PTR tv282[ebp], 1
  003b9	eb 0a		 jmp	 SHORT $L94739
$L94738:
  003bb	c7 85 f0 fc ff
	ff ff ff ff ff	 mov	 DWORD PTR tv282[ebp], -1
$L94739:
  003c5	e8 00 00 00 00	 call	 ?rnd@@YAMXZ		; rnd
  003ca	d8 1d 00 00 00
	00		 fcomp	 DWORD PTR __real@3f000000
  003d0	df e0		 fnstsw	 ax
  003d2	f6 c4 41	 test	 ah, 65			; 00000041H
  003d5	75 0c		 jne	 SHORT $L94740
  003d7	c7 85 ec fc ff
	ff 01 00 00 00	 mov	 DWORD PTR tv290[ebp], 1
  003e1	eb 0a		 jmp	 SHORT $L94741
$L94740:
  003e3	c7 85 ec fc ff
	ff ff ff ff ff	 mov	 DWORD PTR tv290[ebp], -1
$L94741:
  003ed	e8 00 00 00 00	 call	 ?rnd@@YAMXZ		; rnd
  003f2	d8 1d 00 00 00
	00		 fcomp	 DWORD PTR __real@3f000000
  003f8	df e0		 fnstsw	 ax
  003fa	f6 c4 41	 test	 ah, 65			; 00000041H
  003fd	75 0c		 jne	 SHORT $L94743
  003ff	c7 85 e8 fc ff
	ff 01 00 00 00	 mov	 DWORD PTR tv301[ebp], 1
  00409	eb 0a		 jmp	 SHORT $L94744
$L94743:
  0040b	c7 85 e8 fc ff
	ff ff ff ff ff	 mov	 DWORD PTR tv301[ebp], -1
$L94744:
  00415	e8 00 00 00 00	 call	 ?rnd@@YAMXZ		; rnd
  0041a	d8 1d 00 00 00
	00		 fcomp	 DWORD PTR __real@3f000000
  00420	df e0		 fnstsw	 ax
  00422	f6 c4 41	 test	 ah, 65			; 00000041H
  00425	75 0c		 jne	 SHORT $L94745
  00427	c7 85 e4 fc ff
	ff 01 00 00 00	 mov	 DWORD PTR tv309[ebp], 1
  00431	eb 0a		 jmp	 SHORT $L94746
$L94745:
  00433	c7 85 e4 fc ff
	ff ff ff ff ff	 mov	 DWORD PTR tv309[ebp], -1
$L94746:
  0043d	e8 00 00 00 00	 call	 ?rnd@@YAMXZ		; rnd
  00442	d8 1d 00 00 00
	00		 fcomp	 DWORD PTR __real@3f000000
  00448	df e0		 fnstsw	 ax
  0044a	f6 c4 41	 test	 ah, 65			; 00000041H
  0044d	75 0c		 jne	 SHORT $L94747
  0044f	c7 85 e0 fc ff
	ff 01 00 00 00	 mov	 DWORD PTR tv317[ebp], 1
  00459	eb 0a		 jmp	 SHORT $L94748
$L94747:
  0045b	c7 85 e0 fc ff
	ff ff ff ff ff	 mov	 DWORD PTR tv317[ebp], -1
$L94748:
  00465	6a 01		 push	 1
  00467	68 0a d7 23 3c	 push	 1008981770		; 3c23d70aH
  0046c	6a 00		 push	 0
  0046e	e8 00 00 00 00	 call	 ?rnd@@YAMXZ		; rnd
  00473	d8 8d 64 fe ff
	ff		 fmul	 DWORD PTR _f$94018[ebp]
  00479	da 8d f4 fc ff
	ff		 fimul	 DWORD PTR tv274[ebp]
  0047f	51		 push	 ecx
  00480	d9 1c 24	 fstp	 DWORD PTR [esp]
  00483	e8 00 00 00 00	 call	 ?rnd@@YAMXZ		; rnd
  00488	d8 8d 64 fe ff
	ff		 fmul	 DWORD PTR _f$94018[ebp]
  0048e	da 8d f0 fc ff
	ff		 fimul	 DWORD PTR tv282[ebp]
  00494	51		 push	 ecx
  00495	d9 1c 24	 fstp	 DWORD PTR [esp]
  00498	e8 00 00 00 00	 call	 ?rnd@@YAMXZ		; rnd
  0049d	d8 8d 64 fe ff
	ff		 fmul	 DWORD PTR _f$94018[ebp]
  004a3	da 8d ec fc ff
	ff		 fimul	 DWORD PTR tv290[ebp]
  004a9	51		 push	 ecx
  004aa	d9 1c 24	 fstp	 DWORD PTR [esp]
  004ad	8d 8d 54 fd ff
	ff		 lea	 ecx, DWORD PTR $T94735[ebp]
  004b3	e8 00 00 00 00	 call	 ??0D3DXVECTOR3@@QAE@MMM@Z ; D3DXVECTOR3::D3DXVECTOR3
  004b8	50		 push	 eax
  004b9	e8 00 00 00 00	 call	 ?rnd@@YAMXZ		; rnd
  004be	d8 8d 64 fe ff
	ff		 fmul	 DWORD PTR _f$94018[ebp]
  004c4	da 8d e8 fc ff
	ff		 fimul	 DWORD PTR tv301[ebp]
  004ca	51		 push	 ecx
  004cb	d9 1c 24	 fstp	 DWORD PTR [esp]
  004ce	e8 00 00 00 00	 call	 ?rnd@@YAMXZ		; rnd
  004d3	d8 8d 64 fe ff
	ff		 fmul	 DWORD PTR _f$94018[ebp]
  004d9	da 8d e4 fc ff
	ff		 fimul	 DWORD PTR tv309[ebp]
  004df	51		 push	 ecx
  004e0	d9 1c 24	 fstp	 DWORD PTR [esp]
  004e3	e8 00 00 00 00	 call	 ?rnd@@YAMXZ		; rnd
  004e8	d8 8d 64 fe ff
	ff		 fmul	 DWORD PTR _f$94018[ebp]
  004ee	da 8d e0 fc ff
	ff		 fimul	 DWORD PTR tv317[ebp]
  004f4	51		 push	 ecx
  004f5	d9 1c 24	 fstp	 DWORD PTR [esp]
  004f8	8d 8d 40 fd ff
	ff		 lea	 ecx, DWORD PTR $T94742[ebp]
  004fe	e8 00 00 00 00	 call	 ??0D3DXVECTOR3@@QAE@MMM@Z ; D3DXVECTOR3::D3DXVECTOR3
  00503	50		 push	 eax
  00504	6a 00		 push	 0
  00506	68 00 00 40 3f	 push	 1061158912		; 3f400000H
  0050b	6a 00		 push	 0
  0050d	68 00 00 80 3f	 push	 1065353216		; 3f800000H
  00512	8d 8d 28 fd ff
	ff		 lea	 ecx, DWORD PTR $T94749[ebp]
  00518	e8 00 00 00 00	 call	 ??0D3DXCOLOR@@QAE@MMMM@Z ; D3DXCOLOR::D3DXCOLOR
  0051d	50		 push	 eax
  0051e	68 00 00 00 3f	 push	 1056964608		; 3f000000H
  00523	6a 00		 push	 0
  00525	68 00 00 80 3f	 push	 1065353216		; 3f800000H
  0052a	6a 00		 push	 0
  0052c	8d 8d 10 fd ff
	ff		 lea	 ecx, DWORD PTR $T94750[ebp]
  00532	e8 00 00 00 00	 call	 ??0D3DXCOLOR@@QAE@MMMM@Z ; D3DXCOLOR::D3DXCOLOR
  00537	50		 push	 eax
  00538	6a 00		 push	 0
  0053a	8b 85 70 fe ff
	ff		 mov	 eax, DWORD PTR _fTimeRemaining$94017[ebp]
  00540	50		 push	 eax
  00541	6a 00		 push	 0
  00543	d9 05 00 00 00
	00		 fld	 DWORD PTR __real@3f800000
  00549	d8 75 08	 fdiv	 DWORD PTR _fFPS$[ebp]
  0054c	51		 push	 ecx
  0054d	d9 1c 24	 fstp	 DWORD PTR [esp]
  00550	6a 00		 push	 0
  00552	6a 00		 push	 0
  00554	6a 00		 push	 0
  00556	8d 8d fc fc ff
	ff		 lea	 ecx, DWORD PTR $T94751[ebp]
  0055c	e8 00 00 00 00	 call	 ??0D3DXVECTOR3@@QAE@MMM@Z ; D3DXVECTOR3::D3DXVECTOR3
  00561	50		 push	 eax
  00562	8b 4d 08	 mov	 ecx, DWORD PTR _fFPS$[ebp]
  00565	51		 push	 ecx
  00566	8b 55 a4	 mov	 edx, DWORD PTR _pProjectile$[ebp]
  00569	8b 8a 84 00 00
	00		 mov	 ecx, DWORD PTR [edx+132]
  0056f	e8 00 00 00 00	 call	 ?FrameMove@CParticleSystem@@QAEJMPAUD3DXVECTOR3@@MKMHABUD3DXCOLOR@@100HMH@Z ; CParticleSystem::FrameMove

; 871  : 					
; 872  : 					pProjectile->fImpactFXAge += ( 1.0f / fFPS );

  00574	d9 05 00 00 00
	00		 fld	 DWORD PTR __real@3f800000
  0057a	d8 75 08	 fdiv	 DWORD PTR _fFPS$[ebp]
  0057d	8b 45 a4	 mov	 eax, DWORD PTR _pProjectile$[ebp]
  00580	d8 80 9c 00 00
	00		 fadd	 DWORD PTR [eax+156]
  00586	8b 4d a4	 mov	 ecx, DWORD PTR _pProjectile$[ebp]
  00589	d9 99 9c 00 00
	00		 fstp	 DWORD PTR [ecx+156]

; 873  : 				}
; 874  : 				else

  0058f	e9 8c 00 00 00	 jmp	 $L94001
$L94016:

; 875  : 				{
; 876  : 				// advance bbox
; 877  : 					D3DXMatrixTranslation( &m, pProjectile->vVel.x, pProjectile->vVel.y, pProjectile->vVel.z );

  00594	8b 45 a4	 mov	 eax, DWORD PTR _pProjectile$[ebp]
  00597	8b 48 34	 mov	 ecx, DWORD PTR [eax+52]
  0059a	51		 push	 ecx
  0059b	8b 55 a4	 mov	 edx, DWORD PTR _pProjectile$[ebp]
  0059e	8b 42 30	 mov	 eax, DWORD PTR [edx+48]
  005a1	50		 push	 eax
  005a2	8b 4d a4	 mov	 ecx, DWORD PTR _pProjectile$[ebp]
  005a5	8b 51 2c	 mov	 edx, DWORD PTR [ecx+44]
  005a8	52		 push	 edx
  005a9	8d 45 b0	 lea	 eax, DWORD PTR _m$[ebp]
  005ac	50		 push	 eax
  005ad	e8 00 00 00 00	 call	 _D3DXMatrixTranslation@16

; 878  : 					pProjectile->pBBox->ApplyMatrix( &m );

  005b2	8d 45 b0	 lea	 eax, DWORD PTR _m$[ebp]
  005b5	50		 push	 eax
  005b6	8b 4d a4	 mov	 ecx, DWORD PTR _pProjectile$[ebp]
  005b9	8b 49 3c	 mov	 ecx, DWORD PTR [ecx+60]
  005bc	e8 00 00 00 00	 call	 ?ApplyMatrix@CBoundingBox@@QAEXPAUD3DXMATRIX@@@Z ; CBoundingBox::ApplyMatrix

; 879  : 
; 880  : 				// projectiles with a 'static'-type particle system also need their world matrix updated;
; 881  : 					D3DXMatrixMultiply( &pProjectile->matWorld, &pProjectile->matWorld, &m );

  005c1	8d 45 b0	 lea	 eax, DWORD PTR _m$[ebp]
  005c4	50		 push	 eax
  005c5	8b 4d a4	 mov	 ecx, DWORD PTR _pProjectile$[ebp]
  005c8	83 c1 44	 add	 ecx, 68			; 00000044H
  005cb	51		 push	 ecx
  005cc	8b 55 a4	 mov	 edx, DWORD PTR _pProjectile$[ebp]
  005cf	83 c2 44	 add	 edx, 68			; 00000044H
  005d2	52		 push	 edx
  005d3	e8 00 00 00 00	 call	 _D3DXMatrixMultiply@12

; 882  : 				
; 883  : 				// advance projectile's instantaneous collision-detection points
; 884  : 					pProjectile->vLeadingPos += pProjectile->vVel ;

  005d8	8b 45 a4	 mov	 eax, DWORD PTR _pProjectile$[ebp]
  005db	83 c0 2c	 add	 eax, 44			; 0000002cH
  005de	50		 push	 eax
  005df	8b 4d a4	 mov	 ecx, DWORD PTR _pProjectile$[ebp]
  005e2	83 c1 10	 add	 ecx, 16			; 00000010H
  005e5	e8 00 00 00 00	 call	 ??YD3DXVECTOR3@@QAEAAU0@ABU0@@Z ; D3DXVECTOR3::operator+=

; 885  : 					pProjectile->vTrailingPos += pProjectile->vVel ;

  005ea	8b 45 a4	 mov	 eax, DWORD PTR _pProjectile$[ebp]
  005ed	83 c0 2c	 add	 eax, 44			; 0000002cH
  005f0	50		 push	 eax
  005f1	8b 4d a4	 mov	 ecx, DWORD PTR _pProjectile$[ebp]
  005f4	83 c1 1c	 add	 ecx, 28			; 0000001cH
  005f7	e8 00 00 00 00	 call	 ??YD3DXVECTOR3@@QAEAAU0@ABU0@@Z ; D3DXVECTOR3::operator+=

; 886  : 
; 887  : 				// accelerate particles (they start off quite slow, so we can actually see as they are launched!)
; 888  : 					pProjectile->vVel *= 1.0f + (( 60.0f / fFPS ) * pProjectile->fAccel );

  005fc	d9 05 00 00 00
	00		 fld	 DWORD PTR __real@42700000
  00602	d8 75 08	 fdiv	 DWORD PTR _fFPS$[ebp]
  00605	8b 45 a4	 mov	 eax, DWORD PTR _pProjectile$[ebp]
  00608	d8 48 38	 fmul	 DWORD PTR [eax+56]
  0060b	d8 05 00 00 00
	00		 fadd	 DWORD PTR __real@3f800000
  00611	51		 push	 ecx
  00612	d9 1c 24	 fstp	 DWORD PTR [esp]
  00615	8b 4d a4	 mov	 ecx, DWORD PTR _pProjectile$[ebp]
  00618	83 c1 2c	 add	 ecx, 44			; 0000002cH
  0061b	e8 00 00 00 00	 call	 ??XD3DXVECTOR3@@QAEAAU0@M@Z ; D3DXVECTOR3::operator*=
$L94001:

; 889  : 
; 890  : 				// update FMOD
; 891  : 					/*pRace->m_pX7->m_pSound->UpdateSFX3D( pProjectile->nSoundChannel,
; 892  : 														 &pProjectile->vTrailingPos,
; 893  : 														 &(pProjectile->vVel * pRace->m_fWorldSpaceToM), // m/s
; 894  : 														 pProjectile->fVol );*/
; 895  : 				}
; 896  : 			}
; 897  : 			pProjectile->fAge += ( 1.0f / fFPS );

  00620	d9 05 00 00 00
	00		 fld	 DWORD PTR __real@3f800000
  00626	d8 75 08	 fdiv	 DWORD PTR _fFPS$[ebp]
  00629	8b 45 a4	 mov	 eax, DWORD PTR _pProjectile$[ebp]
  0062c	d8 40 08	 fadd	 DWORD PTR [eax+8]
  0062f	8b 4d a4	 mov	 ecx, DWORD PTR _pProjectile$[ebp]
  00632	d9 59 08	 fstp	 DWORD PTR [ecx+8]

; 898  : 			pProjectile = pProjectile->pNext ;

  00635	8b 45 a4	 mov	 eax, DWORD PTR _pProjectile$[ebp]
  00638	8b 88 ac 00 00
	00		 mov	 ecx, DWORD PTR [eax+172]
  0063e	89 4d a4	 mov	 DWORD PTR _pProjectile$[ebp], ecx

; 899  : 		}

  00641	e9 77 fa ff ff	 jmp	 $L93999
$L93980:

; 900  : 	}

  00646	52		 push	 edx
  00647	8b cd		 mov	 ecx, ebp
  00649	50		 push	 eax
  0064a	8d 15 00 00 00
	00		 lea	 edx, DWORD PTR $L94773
  00650	e8 00 00 00 00	 call	 @_RTC_CheckStackVars@8
  00655	58		 pop	 eax
  00656	5a		 pop	 edx
  00657	5f		 pop	 edi
  00658	5e		 pop	 esi
  00659	5b		 pop	 ebx
  0065a	81 c4 20 03 00
	00		 add	 esp, 800		; 00000320H
  00660	3b ec		 cmp	 ebp, esp
  00662	e8 00 00 00 00	 call	 __RTC_CheckEsp
  00667	8b e5		 mov	 esp, ebp
  00669	5d		 pop	 ebp
  0066a	c2 10 00	 ret	 16			; 00000010H
$L94773:
  0066d	0e 00 00 00	 DD	 14			; 0000000eH
  00671	00 00 00 00	 DD	 $L94772
$L94772:
  00675	b0 ff ff ff	 DD	 -80			; ffffffb0H
  00679	40 00 00 00	 DD	 64			; 00000040H
  0067d	00 00 00 00	 DD	 $L94758
  00681	78 ff ff ff	 DD	 -136			; ffffff78H
  00685	0c 00 00 00	 DD	 12			; 0000000cH
  00689	00 00 00 00	 DD	 $L94759
  0068d	64 ff ff ff	 DD	 -156			; ffffff64H
  00691	0c 00 00 00	 DD	 12			; 0000000cH
  00695	00 00 00 00	 DD	 $L94760
  00699	50 ff ff ff	 DD	 -176			; ffffff50H
  0069d	0c 00 00 00	 DD	 12			; 0000000cH
  006a1	00 00 00 00	 DD	 $L94761
  006a5	3c ff ff ff	 DD	 -196			; ffffff3cH
  006a9	0c 00 00 00	 DD	 12			; 0000000cH
  006ad	00 00 00 00	 DD	 $L94762
  006b1	28 ff ff ff	 DD	 -216			; ffffff28H
  006b5	0c 00 00 00	 DD	 12			; 0000000cH
  006b9	00 00 00 00	 DD	 $L94763
  006bd	14 ff ff ff	 DD	 -236			; ffffff14H
  006c1	0c 00 00 00	 DD	 12			; 0000000cH
  006c5	00 00 00 00	 DD	 $L94764
  006c9	dc fe ff ff	 DD	 -292			; fffffedcH
  006cd	30 00 00 00	 DD	 48			; 00000030H
  006d1	00 00 00 00	 DD	 $L94765
  006d5	d0 fe ff ff	 DD	 -304			; fffffed0H
  006d9	04 00 00 00	 DD	 4
  006dd	00 00 00 00	 DD	 $L94766
  006e1	c4 fe ff ff	 DD	 -316			; fffffec4H
  006e5	04 00 00 00	 DD	 4
  006e9	00 00 00 00	 DD	 $L94767
  006ed	b0 fe ff ff	 DD	 -336			; fffffeb0H
  006f1	0c 00 00 00	 DD	 12			; 0000000cH
  006f5	00 00 00 00	 DD	 $L94768
  006f9	9c fe ff ff	 DD	 -356			; fffffe9cH
  006fd	0c 00 00 00	 DD	 12			; 0000000cH
  00701	00 00 00 00	 DD	 $L94769
  00705	88 fe ff ff	 DD	 -376			; fffffe88H
  00709	0c 00 00 00	 DD	 12			; 0000000cH
  0070d	00 00 00 00	 DD	 $L94770
  00711	7c fe ff ff	 DD	 -388			; fffffe7cH
  00715	04 00 00 00	 DD	 4
  00719	00 00 00 00	 DD	 $L94771
$L94771:
  0071d	70		 DB	 112			; 00000070H
  0071e	48		 DB	 72			; 00000048H
  0071f	69		 DB	 105			; 00000069H
  00720	74		 DB	 116			; 00000074H
  00721	00		 DB	 0
$L94770:
  00722	58		 DB	 88			; 00000058H
  00723	00		 DB	 0
$L94769:
  00724	4e		 DB	 78			; 0000004eH
  00725	00		 DB	 0
$L94768:
  00726	41		 DB	 65			; 00000041H
  00727	00		 DB	 0
$L94767:
  00728	66		 DB	 102			; 00000066H
  00729	4d		 DB	 77			; 0000004dH
  0072a	69		 DB	 105			; 00000069H
  0072b	6e		 DB	 110			; 0000006eH
  0072c	54		 DB	 84			; 00000054H
  0072d	65		 DB	 101			; 00000065H
  0072e	72		 DB	 114			; 00000072H
  0072f	72		 DB	 114			; 00000072H
  00730	61		 DB	 97			; 00000061H
  00731	69		 DB	 105			; 00000069H
  00732	6e		 DB	 110			; 0000006eH
  00733	59		 DB	 89			; 00000059H
  00734	00		 DB	 0
$L94766:
  00735	62		 DB	 98			; 00000062H
  00736	41		 DB	 65			; 00000041H
  00737	62		 DB	 98			; 00000062H
  00738	6f		 DB	 111			; 0000006fH
  00739	76		 DB	 118			; 00000076H
  0073a	65		 DB	 101			; 00000065H
  0073b	54		 DB	 84			; 00000054H
  0073c	65		 DB	 101			; 00000065H
  0073d	72		 DB	 114			; 00000072H
  0073e	72		 DB	 114			; 00000072H
  0073f	61		 DB	 97			; 00000061H
  00740	69		 DB	 105			; 00000069H
  00741	6e		 DB	 110			; 0000006eH
  00742	00		 DB	 0
$L94765:
  00743	76		 DB	 118			; 00000076H
  00744	54		 DB	 84			; 00000054H
  00745	65		 DB	 101			; 00000065H
  00746	72		 DB	 114			; 00000072H
  00747	72		 DB	 114			; 00000072H
  00748	61		 DB	 97			; 00000061H
  00749	69		 DB	 105			; 00000069H
  0074a	6e		 DB	 110			; 0000006eH
  0074b	56		 DB	 86			; 00000056H
  0074c	65		 DB	 101			; 00000065H
  0074d	72		 DB	 114			; 00000072H
  0074e	74		 DB	 116			; 00000074H
  0074f	73		 DB	 115			; 00000073H
  00750	00		 DB	 0
$L94764:
  00751	76		 DB	 118			; 00000076H
  00752	6e		 DB	 110			; 0000006eH
  00753	41		 DB	 65			; 00000041H
  00754	76		 DB	 118			; 00000076H
  00755	67		 DB	 103			; 00000067H
  00756	00		 DB	 0
$L94763:
  00757	76		 DB	 118			; 00000076H
  00758	6e		 DB	 110			; 0000006eH
  00759	32		 DB	 50			; 00000032H
  0075a	00		 DB	 0
$L94762:
  0075b	76		 DB	 118			; 00000076H
  0075c	6e		 DB	 110			; 0000006eH
  0075d	31		 DB	 49			; 00000031H
  0075e	00		 DB	 0
$L94761:
  0075f	76		 DB	 118			; 00000076H
  00760	63		 DB	 99			; 00000063H
  00761	70		 DB	 112			; 00000070H
  00762	00		 DB	 0
$L94760:
  00763	76		 DB	 118			; 00000076H
  00764	64		 DB	 100			; 00000064H
  00765	32		 DB	 50			; 00000032H
  00766	00		 DB	 0
$L94759:
  00767	76		 DB	 118			; 00000076H
  00768	64		 DB	 100			; 00000064H
  00769	31		 DB	 49			; 00000031H
  0076a	00		 DB	 0
$L94758:
  0076b	6d		 DB	 109			; 0000006dH
  0076c	00		 DB	 0
?AnimateProjectiles@CFighter@@QAEXMMPAVCTerrain@@PAVCRace@@@Z ENDP ; CFighter::AnimateProjectiles
_TEXT	ENDS
EXTRN	?InvalidateDeviceObjects@CBoundingBox@@QAEJXZ:NEAR ; CBoundingBox::InvalidateDeviceObjects
; Function compile flags: /Odt /RTCsu /ZI
;	COMDAT ?KillProjectile@CFighter@@QAEPAUFIGHTER_PROJECTILE@1@PAU21@@Z
_TEXT	SEGMENT
tv130 = -280
tv89 = -280
$T94784 = -272
$T94781 = -260
$T94780 = -248
$T94777 = -236
$T94776 = -224
_pNextProjectile$ = -20
_this$ = -8
_pProjectileToDie$ = 8
?KillProjectile@CFighter@@QAEPAUFIGHTER_PROJECTILE@1@PAU21@@Z PROC NEAR ; CFighter::KillProjectile, COMDAT
; _this$ = ecx

; 904  : 	{

  00000	55		 push	 ebp
  00001	8b ec		 mov	 ebp, esp
  00003	81 ec 18 01 00
	00		 sub	 esp, 280		; 00000118H
  00009	53		 push	 ebx
  0000a	56		 push	 esi
  0000b	57		 push	 edi
  0000c	51		 push	 ecx
  0000d	8d bd e8 fe ff
	ff		 lea	 edi, DWORD PTR [ebp-280]
  00013	b9 46 00 00 00	 mov	 ecx, 70			; 00000046H
  00018	b8 cc cc cc cc	 mov	 eax, -858993460		; ccccccccH
  0001d	f3 ab		 rep stosd
  0001f	59		 pop	 ecx
  00020	89 4d f8	 mov	 DWORD PTR _this$[ebp], ecx

; 905  : 		FIGHTER_PROJECTILE* pNextProjectile = pProjectileToDie->pNext ;

  00023	8b 45 08	 mov	 eax, DWORD PTR _pProjectileToDie$[ebp]
  00026	8b 88 ac 00 00
	00		 mov	 ecx, DWORD PTR [eax+172]
  0002c	89 4d ec	 mov	 DWORD PTR _pNextProjectile$[ebp], ecx

; 906  : 		
; 907  : 	// restitch linked list;
; 908  : 		if( pProjectileToDie->pPrev )

  0002f	8b 45 08	 mov	 eax, DWORD PTR _pProjectileToDie$[ebp]
  00032	83 b8 a8 00 00
	00 00		 cmp	 DWORD PTR [eax+168], 0
  00039	74 1a		 je	 SHORT $L94030

; 909  : 			pProjectileToDie->pPrev->pNext = pProjectileToDie->pNext ;

  0003b	8b 45 08	 mov	 eax, DWORD PTR _pProjectileToDie$[ebp]
  0003e	8b 88 a8 00 00
	00		 mov	 ecx, DWORD PTR [eax+168]
  00044	8b 55 08	 mov	 edx, DWORD PTR _pProjectileToDie$[ebp]
  00047	8b 82 ac 00 00
	00		 mov	 eax, DWORD PTR [edx+172]
  0004d	89 81 ac 00 00
	00		 mov	 DWORD PTR [ecx+172], eax

; 910  : 		else

  00053	eb 12		 jmp	 SHORT $L94031
$L94030:

; 911  : 			m_pProjectiles = pProjectileToDie->pNext ;

  00055	8b 45 f8	 mov	 eax, DWORD PTR _this$[ebp]
  00058	8b 4d 08	 mov	 ecx, DWORD PTR _pProjectileToDie$[ebp]
  0005b	8b 91 ac 00 00
	00		 mov	 edx, DWORD PTR [ecx+172]
  00061	89 90 8c 01 00
	00		 mov	 DWORD PTR [eax+396], edx
$L94031:

; 912  : 		if( pProjectileToDie->pNext )

  00067	8b 45 08	 mov	 eax, DWORD PTR _pProjectileToDie$[ebp]
  0006a	83 b8 ac 00 00
	00 00		 cmp	 DWORD PTR [eax+172], 0
  00071	74 18		 je	 SHORT $L94032

; 913  : 			pProjectileToDie->pNext->pPrev = pProjectileToDie->pPrev ;

  00073	8b 45 08	 mov	 eax, DWORD PTR _pProjectileToDie$[ebp]
  00076	8b 88 ac 00 00
	00		 mov	 ecx, DWORD PTR [eax+172]
  0007c	8b 55 08	 mov	 edx, DWORD PTR _pProjectileToDie$[ebp]
  0007f	8b 82 a8 00 00
	00		 mov	 eax, DWORD PTR [edx+168]
  00085	89 81 a8 00 00
	00		 mov	 DWORD PTR [ecx+168], eax
$L94032:

; 914  : 		
; 915  : 	// delete list entry;
; 916  : 		if( pProjectileToDie->pBBox )

  0008b	8b 45 08	 mov	 eax, DWORD PTR _pProjectileToDie$[ebp]
  0008e	83 78 3c 00	 cmp	 DWORD PTR [eax+60], 0
  00092	74 0b		 je	 SHORT $L94033

; 917  : 			pProjectileToDie->pBBox->InvalidateDeviceObjects() ;			// NOTE: in release build this does nothing

  00094	8b 45 08	 mov	 eax, DWORD PTR _pProjectileToDie$[ebp]
  00097	8b 48 3c	 mov	 ecx, DWORD PTR [eax+60]
  0009a	e8 00 00 00 00	 call	 ?InvalidateDeviceObjects@CBoundingBox@@QAEJXZ ; CBoundingBox::InvalidateDeviceObjects
$L94033:

; 918  : 		SAFE_DELETE( pProjectileToDie->pPS )

  0009f	8b 45 08	 mov	 eax, DWORD PTR _pProjectileToDie$[ebp]
  000a2	83 b8 84 00 00
	00 00		 cmp	 DWORD PTR [eax+132], 0
  000a9	74 50		 je	 SHORT $L94034
  000ab	8b 45 08	 mov	 eax, DWORD PTR _pProjectileToDie$[ebp]
  000ae	8b 88 84 00 00
	00		 mov	 ecx, DWORD PTR [eax+132]
  000b4	89 8d 14 ff ff
	ff		 mov	 DWORD PTR $T94777[ebp], ecx
  000ba	8b 95 14 ff ff
	ff		 mov	 edx, DWORD PTR $T94777[ebp]
  000c0	89 95 20 ff ff
	ff		 mov	 DWORD PTR $T94776[ebp], edx
  000c6	83 bd 20 ff ff
	ff 00		 cmp	 DWORD PTR $T94776[ebp], 0
  000cd	74 15		 je	 SHORT $L94778
  000cf	6a 01		 push	 1
  000d1	8b 8d 20 ff ff
	ff		 mov	 ecx, DWORD PTR $T94776[ebp]
  000d7	e8 00 00 00 00	 call	 ??_GCParticleSystem@@QAEPAXI@Z
  000dc	89 85 e8 fe ff
	ff		 mov	 DWORD PTR tv89[ebp], eax
  000e2	eb 0a		 jmp	 SHORT $L94779
$L94778:
  000e4	c7 85 e8 fe ff
	ff 00 00 00 00	 mov	 DWORD PTR tv89[ebp], 0
$L94779:
  000ee	8b 45 08	 mov	 eax, DWORD PTR _pProjectileToDie$[ebp]
  000f1	c7 80 84 00 00
	00 00 00 00 00	 mov	 DWORD PTR [eax+132], 0
$L94034:

; 919  : 		SAFE_DELETE( pProjectileToDie->pBBox )

  000fb	8b 45 08	 mov	 eax, DWORD PTR _pProjectileToDie$[ebp]
  000fe	83 78 3c 00	 cmp	 DWORD PTR [eax+60], 0
  00102	74 4a		 je	 SHORT $L94037
  00104	8b 45 08	 mov	 eax, DWORD PTR _pProjectileToDie$[ebp]
  00107	8b 48 3c	 mov	 ecx, DWORD PTR [eax+60]
  0010a	89 8d fc fe ff
	ff		 mov	 DWORD PTR $T94781[ebp], ecx
  00110	8b 95 fc fe ff
	ff		 mov	 edx, DWORD PTR $T94781[ebp]
  00116	89 95 08 ff ff
	ff		 mov	 DWORD PTR $T94780[ebp], edx
  0011c	83 bd 08 ff ff
	ff 00		 cmp	 DWORD PTR $T94780[ebp], 0
  00123	74 15		 je	 SHORT $L94782
  00125	6a 01		 push	 1
  00127	8b 8d 08 ff ff
	ff		 mov	 ecx, DWORD PTR $T94780[ebp]
  0012d	e8 00 00 00 00	 call	 ??_GCBoundingBox@@QAEPAXI@Z
  00132	89 85 e8 fe ff
	ff		 mov	 DWORD PTR tv130[ebp], eax
  00138	eb 0a		 jmp	 SHORT $L94783
$L94782:
  0013a	c7 85 e8 fe ff
	ff 00 00 00 00	 mov	 DWORD PTR tv130[ebp], 0
$L94783:
  00144	8b 45 08	 mov	 eax, DWORD PTR _pProjectileToDie$[ebp]
  00147	c7 40 3c 00 00
	00 00		 mov	 DWORD PTR [eax+60], 0
$L94037:

; 920  : 		delete pProjectileToDie ;

  0014e	8b 45 08	 mov	 eax, DWORD PTR _pProjectileToDie$[ebp]
  00151	89 85 f0 fe ff
	ff		 mov	 DWORD PTR $T94784[ebp], eax
  00157	8b 8d f0 fe ff
	ff		 mov	 ecx, DWORD PTR $T94784[ebp]
  0015d	51		 push	 ecx
  0015e	e8 00 00 00 00	 call	 ??3@YAXPAX@Z		; operator delete
  00163	83 c4 04	 add	 esp, 4

; 921  : 
; 922  : 	// return next in list;
; 923  : 		m_nProjectiles-- ;

  00166	8b 45 f8	 mov	 eax, DWORD PTR _this$[ebp]
  00169	8b 88 90 01 00
	00		 mov	 ecx, DWORD PTR [eax+400]
  0016f	83 e9 01	 sub	 ecx, 1
  00172	8b 55 f8	 mov	 edx, DWORD PTR _this$[ebp]
  00175	89 8a 90 01 00
	00		 mov	 DWORD PTR [edx+400], ecx

; 924  : 		return pNextProjectile ;

  0017b	8b 45 ec	 mov	 eax, DWORD PTR _pNextProjectile$[ebp]

; 925  : 	}

  0017e	5f		 pop	 edi
  0017f	5e		 pop	 esi
  00180	5b		 pop	 ebx
  00181	81 c4 18 01 00
	00		 add	 esp, 280		; 00000118H
  00187	3b ec		 cmp	 ebp, esp
  00189	e8 00 00 00 00	 call	 __RTC_CheckEsp
  0018e	8b e5		 mov	 esp, ebp
  00190	5d		 pop	 ebp
  00191	c2 04 00	 ret	 4
?KillProjectile@CFighter@@QAEPAUFIGHTER_PROJECTILE@1@PAU21@@Z ENDP ; CFighter::KillProjectile
_TEXT	ENDS
PUBLIC	?SetPositionFromValues@CFighter@@QAEXMMM@Z	; CFighter::SetPositionFromValues
; Function compile flags: /Odt /RTCsu /ZI
;	COMDAT ?SetPositionFromValues@CFighter@@QAEXMMM@Z
_TEXT	SEGMENT
$T94787 = -220
_this$ = -8
_x$ = 8
_y$ = 12
_z$ = 16
?SetPositionFromValues@CFighter@@QAEXMMM@Z PROC NEAR	; CFighter::SetPositionFromValues, COMDAT
; _this$ = ecx

; 933  : 	{

  00000	55		 push	 ebp
  00001	8b ec		 mov	 ebp, esp
  00003	81 ec e0 00 00
	00		 sub	 esp, 224		; 000000e0H
  00009	53		 push	 ebx
  0000a	56		 push	 esi
  0000b	57		 push	 edi
  0000c	51		 push	 ecx
  0000d	8d bd 20 ff ff
	ff		 lea	 edi, DWORD PTR [ebp-224]
  00013	b9 38 00 00 00	 mov	 ecx, 56			; 00000038H
  00018	b8 cc cc cc cc	 mov	 eax, -858993460		; ccccccccH
  0001d	f3 ab		 rep stosd
  0001f	59		 pop	 ecx
  00020	89 4d f8	 mov	 DWORD PTR _this$[ebp], ecx

; 934  : 		m_vPosition = xVec3(x, y, z) ;

  00023	8b 45 10	 mov	 eax, DWORD PTR _z$[ebp]
  00026	50		 push	 eax
  00027	8b 4d 0c	 mov	 ecx, DWORD PTR _y$[ebp]
  0002a	51		 push	 ecx
  0002b	8b 55 08	 mov	 edx, DWORD PTR _x$[ebp]
  0002e	52		 push	 edx
  0002f	8d 8d 24 ff ff
	ff		 lea	 ecx, DWORD PTR $T94787[ebp]
  00035	e8 00 00 00 00	 call	 ??0D3DXVECTOR3@@QAE@MMM@Z ; D3DXVECTOR3::D3DXVECTOR3
  0003a	8b 4d f8	 mov	 ecx, DWORD PTR _this$[ebp]
  0003d	81 c1 fc 01 00
	00		 add	 ecx, 508		; 000001fcH
  00043	8b 10		 mov	 edx, DWORD PTR [eax]
  00045	89 11		 mov	 DWORD PTR [ecx], edx
  00047	8b 50 04	 mov	 edx, DWORD PTR [eax+4]
  0004a	89 51 04	 mov	 DWORD PTR [ecx+4], edx
  0004d	8b 40 08	 mov	 eax, DWORD PTR [eax+8]
  00050	89 41 08	 mov	 DWORD PTR [ecx+8], eax

; 935  : 		D3DXMatrixTranslation(&m_matTrans, x, y, z) ;

  00053	8b 45 10	 mov	 eax, DWORD PTR _z$[ebp]
  00056	50		 push	 eax
  00057	8b 4d 0c	 mov	 ecx, DWORD PTR _y$[ebp]
  0005a	51		 push	 ecx
  0005b	8b 55 08	 mov	 edx, DWORD PTR _x$[ebp]
  0005e	52		 push	 edx
  0005f	8b 45 f8	 mov	 eax, DWORD PTR _this$[ebp]
  00062	05 24 02 00 00	 add	 eax, 548		; 00000224H
  00067	50		 push	 eax
  00068	e8 00 00 00 00	 call	 _D3DXMatrixTranslation@16

; 936  : 		m_pFRO->WorldSetMatrix(&m_matTrans, m_pFRO->m_fScale) ;

  0006d	8b 45 f8	 mov	 eax, DWORD PTR _this$[ebp]
  00070	8b 48 2c	 mov	 ecx, DWORD PTR [eax+44]
  00073	8b 91 d4 00 00
	00		 mov	 edx, DWORD PTR [ecx+212]
  00079	52		 push	 edx
  0007a	8b 45 f8	 mov	 eax, DWORD PTR _this$[ebp]
  0007d	05 24 02 00 00	 add	 eax, 548		; 00000224H
  00082	50		 push	 eax
  00083	8b 4d f8	 mov	 ecx, DWORD PTR _this$[ebp]
  00086	8b 49 2c	 mov	 ecx, DWORD PTR [ecx+44]
  00089	e8 00 00 00 00	 call	 ?WorldSetMatrix@CFileRenderObject@@QAEXPAUD3DXMATRIX@@M@Z ; CFileRenderObject::WorldSetMatrix

; 937  : 	}

  0008e	5f		 pop	 edi
  0008f	5e		 pop	 esi
  00090	5b		 pop	 ebx
  00091	81 c4 e0 00 00
	00		 add	 esp, 224		; 000000e0H
  00097	3b ec		 cmp	 ebp, esp
  00099	e8 00 00 00 00	 call	 __RTC_CheckEsp
  0009e	8b e5		 mov	 esp, ebp
  000a0	5d		 pop	 ebp
  000a1	c2 0c 00	 ret	 12			; 0000000cH
?SetPositionFromValues@CFighter@@QAEXMMM@Z ENDP		; CFighter::SetPositionFromValues
_TEXT	ENDS
PUBLIC	?StartShieldEffect@CFighter@@QAEXMPAVCRace@@@Z	; CFighter::StartShieldEffect
PUBLIC	?GetAvgNormalFrom4TerrainVerts@CFighter@@QAEHPAUD3DXVECTOR3@@0@Z ; CFighter::GetAvgNormalFrom4TerrainVerts
PUBLIC	??_C@_04LOIPFCGH@TC?$CB?6?$AA@			; `string'
PUBLIC	??_C@_0BJ@HIGIHBDO@vnAvg?$DN?$CF0?41f?0?$CF0?41f?0?$CF0?41f?6?$AA@ ; `string'
PUBLIC	??_C@_0BF@MFABKEMN@X?$DN?$CF0?41f?0?$CF0?41f?0?$CF0?41f?6?$AA@ ; `string'
PUBLIC	??_C@_01EEMJAFIK@?6?$AA@			; `string'
EXTRN	?ods@@YAXPADZZ:NEAR				; ods
;	COMDAT ??_C@_04LOIPFCGH@TC?$CB?6?$AA@
CONST	SEGMENT
??_C@_04LOIPFCGH@TC?$CB?6?$AA@ DB 'TC!', 0aH, 00H	; `string'
CONST	ENDS
;	COMDAT ??_C@_0BJ@HIGIHBDO@vnAvg?$DN?$CF0?41f?0?$CF0?41f?0?$CF0?41f?6?$AA@
CONST	SEGMENT
??_C@_0BJ@HIGIHBDO@vnAvg?$DN?$CF0?41f?0?$CF0?41f?0?$CF0?41f?6?$AA@ DB 'vn'
	DB	'Avg=%0.1f,%0.1f,%0.1f', 0aH, 00H		; `string'
CONST	ENDS
;	COMDAT ??_C@_0BF@MFABKEMN@X?$DN?$CF0?41f?0?$CF0?41f?0?$CF0?41f?6?$AA@
CONST	SEGMENT
??_C@_0BF@MFABKEMN@X?$DN?$CF0?41f?0?$CF0?41f?0?$CF0?41f?6?$AA@ DB 'X=%0.1'
	DB	'f,%0.1f,%0.1f', 0aH, 00H			; `string'
CONST	ENDS
;	COMDAT ??_C@_01EEMJAFIK@?6?$AA@
CONST	SEGMENT
??_C@_01EEMJAFIK@?6?$AA@ DB 0aH, 00H			; `string'
; Function compile flags: /Odt /RTCsu /ZI
CONST	ENDS
;	COMDAT ?DetectAndHandleTerrainCollision@CFighter@@QAEHPAUD3DXVECTOR4@@PAVCTerrain@@PAVCRace@@@Z
_TEXT	SEGMENT
$T94792 = -632
$T94791 = -612
$T94790 = -592
_fDamage$94085 = -380
_fModifier$94083 = -368
_X$94076 = -356
_N$94075 = -336
_A$94074 = -316
_vnAvg$94072 = -296
_vn2$94071 = -276
_vn1$94070 = -256
_vcp$94069 = -236
_vd3$94068 = -216
_vd2$94067 = -196
_vd1$94066 = -176
_i$ = -156
_bAboveTerrain$ = -144
_fMinTerrainY$ = -104
_vTerrainVerts$ = -64
_this$ = -8
_pvTestBBVerts$ = 8
_pTerrain$ = 12
_pRace$ = 16
?DetectAndHandleTerrainCollision@CFighter@@QAEHPAUD3DXVECTOR4@@PAVCTerrain@@PAVCRace@@@Z PROC NEAR ; CFighter::DetectAndHandleTerrainCollision, COMDAT
; _this$ = ecx

; 946  : 	{

  00000	55		 push	 ebp
  00001	8b ec		 mov	 ebp, esp
  00003	81 ec 7c 02 00
	00		 sub	 esp, 636		; 0000027cH
  00009	53		 push	 ebx
  0000a	56		 push	 esi
  0000b	57		 push	 edi
  0000c	51		 push	 ecx
  0000d	8d bd 84 fd ff
	ff		 lea	 edi, DWORD PTR [ebp-636]
  00013	b9 9f 00 00 00	 mov	 ecx, 159		; 0000009fH
  00018	b8 cc cc cc cc	 mov	 eax, -858993460		; ccccccccH
  0001d	f3 ab		 rep stosd
  0001f	59		 pop	 ecx
  00020	89 4d f8	 mov	 DWORD PTR _this$[ebp], ecx

; 947  : 		xVec3 vTerrainVerts[4] ;

  00023	68 00 00 00 00	 push	 OFFSET FLAT:??0D3DXVECTOR3@@QAE@XZ ; D3DXVECTOR3::D3DXVECTOR3
  00028	6a 04		 push	 4
  0002a	6a 0c		 push	 12			; 0000000cH
  0002c	8d 45 c0	 lea	 eax, DWORD PTR _vTerrainVerts$[ebp]
  0002f	50		 push	 eax
  00030	e8 00 00 00 00	 call	 ??_H@YGXPAXIHP6EPAX0@Z@Z

; 948  : 		float fMinTerrainY[8] ;
; 949  : 		BOOL bAboveTerrain[8] ;
; 950  : 		int i ;
; 951  : 
; 952  : 	// test each against heightmap
; 953  : 		for	(i = 0 ; i < 8 ; i ++)

  00035	c7 85 64 ff ff
	ff 00 00 00 00	 mov	 DWORD PTR _i$[ebp], 0
  0003f	eb 0f		 jmp	 SHORT $L94059
$L94060:
  00041	8b 85 64 ff ff
	ff		 mov	 eax, DWORD PTR _i$[ebp]
  00047	83 c0 01	 add	 eax, 1
  0004a	89 85 64 ff ff
	ff		 mov	 DWORD PTR _i$[ebp], eax
$L94059:
  00050	83 bd 64 ff ff
	ff 08		 cmp	 DWORD PTR _i$[ebp], 8
  00057	0f 8d 66 03 00
	00		 jge	 $L94061

; 954  : 		{
; 955  : 			pTerrain->LERPdY(pvTestBBVerts[i].x, pvTestBBVerts[i].z, &fMinTerrainY[i], &bAboveTerrain[i], &vTerrainVerts[0]) ;	

  0005d	8d 45 c0	 lea	 eax, DWORD PTR _vTerrainVerts$[ebp]
  00060	50		 push	 eax
  00061	8b 8d 64 ff ff
	ff		 mov	 ecx, DWORD PTR _i$[ebp]
  00067	8d 94 8d 70 ff
	ff ff		 lea	 edx, DWORD PTR _bAboveTerrain$[ebp+ecx*4]
  0006e	52		 push	 edx
  0006f	8b 85 64 ff ff
	ff		 mov	 eax, DWORD PTR _i$[ebp]
  00075	8d 4c 85 98	 lea	 ecx, DWORD PTR _fMinTerrainY$[ebp+eax*4]
  00079	51		 push	 ecx
  0007a	8b 95 64 ff ff
	ff		 mov	 edx, DWORD PTR _i$[ebp]
  00080	c1 e2 04	 shl	 edx, 4
  00083	8b 45 08	 mov	 eax, DWORD PTR _pvTestBBVerts$[ebp]
  00086	8b 4c 10 08	 mov	 ecx, DWORD PTR [eax+edx+8]
  0008a	51		 push	 ecx
  0008b	8b 95 64 ff ff
	ff		 mov	 edx, DWORD PTR _i$[ebp]
  00091	c1 e2 04	 shl	 edx, 4
  00094	8b 45 08	 mov	 eax, DWORD PTR _pvTestBBVerts$[ebp]
  00097	8b 0c 10	 mov	 ecx, DWORD PTR [eax+edx]
  0009a	51		 push	 ecx
  0009b	8b 4d 0c	 mov	 ecx, DWORD PTR _pTerrain$[ebp]
  0009e	e8 00 00 00 00	 call	 ?LERPdY@CTerrain@@QAEXMMPAMPAHPAUD3DXVECTOR3@@@Z ; CTerrain::LERPdY

; 956  : 
; 957  : 		// save this for future reference!
; 958  : 		// note, not quite accurate, but good enough?
; 959  : 			if( i==0 )

  000a3	83 bd 64 ff ff
	ff 00		 cmp	 DWORD PTR _i$[ebp], 0
  000aa	75 2d		 jne	 SHORT $L94062

; 960  : 				if( bAboveTerrain[ 0 ] )

  000ac	83 bd 70 ff ff
	ff 00		 cmp	 DWORD PTR _bAboveTerrain$[ebp], 0
  000b3	74 17		 je	 SHORT $L94063

; 961  : 					m_fDistanceToGround = m_vPosition.y - fMinTerrainY[ 0 ];

  000b5	8b 45 f8	 mov	 eax, DWORD PTR _this$[ebp]
  000b8	d9 80 00 02 00
	00		 fld	 DWORD PTR [eax+512]
  000be	d8 65 98	 fsub	 DWORD PTR _fMinTerrainY$[ebp]
  000c1	8b 4d f8	 mov	 ecx, DWORD PTR _this$[ebp]
  000c4	d9 99 e4 02 00
	00		 fstp	 DWORD PTR [ecx+740]

; 962  : 				else

  000ca	eb 0d		 jmp	 SHORT $L94062
$L94063:

; 963  : 					m_fDistanceToGround = -1 ;

  000cc	8b 45 f8	 mov	 eax, DWORD PTR _this$[ebp]
  000cf	c7 80 e4 02 00
	00 00 00 80 bf	 mov	 DWORD PTR [eax+740], -1082130432 ; bf800000H
$L94062:

; 964  : 
; 965  : 		// collision
; 966  : 			if (pvTestBBVerts[i].y < fMinTerrainY[i] && bAboveTerrain[i])

  000d9	8b 85 64 ff ff
	ff		 mov	 eax, DWORD PTR _i$[ebp]
  000df	c1 e0 04	 shl	 eax, 4
  000e2	8b 4d 08	 mov	 ecx, DWORD PTR _pvTestBBVerts$[ebp]
  000e5	8b 95 64 ff ff
	ff		 mov	 edx, DWORD PTR _i$[ebp]
  000eb	d9 44 01 04	 fld	 DWORD PTR [ecx+eax+4]
  000ef	d8 5c 95 98	 fcomp	 DWORD PTR _fMinTerrainY$[ebp+edx*4]
  000f3	df e0		 fnstsw	 ax
  000f5	f6 c4 05	 test	 ah, 5
  000f8	0f 8a c0 02 00
	00		 jp	 $L94065
  000fe	8b 85 64 ff ff
	ff		 mov	 eax, DWORD PTR _i$[ebp]
  00104	83 bc 85 70 ff
	ff ff 00	 cmp	 DWORD PTR _bAboveTerrain$[ebp+eax*4], 0
  0010c	0f 84 ac 02 00
	00		 je	 $L94065

; 967  : 			{
; 968  : 				xVec3 vd1, vd2, vd3, vcp, vn1, vn2, vnAvg ;

  00112	8d 8d 50 ff ff
	ff		 lea	 ecx, DWORD PTR _vd1$94066[ebp]
  00118	e8 00 00 00 00	 call	 ??0D3DXVECTOR3@@QAE@XZ	; D3DXVECTOR3::D3DXVECTOR3
  0011d	8d 8d 3c ff ff
	ff		 lea	 ecx, DWORD PTR _vd2$94067[ebp]
  00123	e8 00 00 00 00	 call	 ??0D3DXVECTOR3@@QAE@XZ	; D3DXVECTOR3::D3DXVECTOR3
  00128	8d 8d 28 ff ff
	ff		 lea	 ecx, DWORD PTR _vd3$94068[ebp]
  0012e	e8 00 00 00 00	 call	 ??0D3DXVECTOR3@@QAE@XZ	; D3DXVECTOR3::D3DXVECTOR3
  00133	8d 8d 14 ff ff
	ff		 lea	 ecx, DWORD PTR _vcp$94069[ebp]
  00139	e8 00 00 00 00	 call	 ??0D3DXVECTOR3@@QAE@XZ	; D3DXVECTOR3::D3DXVECTOR3
  0013e	8d 8d 00 ff ff
	ff		 lea	 ecx, DWORD PTR _vn1$94070[ebp]
  00144	e8 00 00 00 00	 call	 ??0D3DXVECTOR3@@QAE@XZ	; D3DXVECTOR3::D3DXVECTOR3
  00149	8d 8d ec fe ff
	ff		 lea	 ecx, DWORD PTR _vn2$94071[ebp]
  0014f	e8 00 00 00 00	 call	 ??0D3DXVECTOR3@@QAE@XZ	; D3DXVECTOR3::D3DXVECTOR3
  00154	8d 8d d8 fe ff
	ff		 lea	 ecx, DWORD PTR _vnAvg$94072[ebp]
  0015a	e8 00 00 00 00	 call	 ??0D3DXVECTOR3@@QAE@XZ	; D3DXVECTOR3::D3DXVECTOR3

; 969  : 
; 970  : 				m_bTerrainCollision = TRUE ;

  0015f	8b 45 f8	 mov	 eax, DWORD PTR _this$[ebp]
  00162	c7 80 e8 02 00
	00 01 00 00 00	 mov	 DWORD PTR [eax+744], 1

; 971  : 				ods("TC!\n") ;

  0016c	68 00 00 00 00	 push	 OFFSET FLAT:??_C@_04LOIPFCGH@TC?$CB?6?$AA@
  00171	e8 00 00 00 00	 call	 ?ods@@YAXPADZZ		; ods
  00176	83 c4 04	 add	 esp, 4

; 972  : 
; 973  : 				/*ods( "vTerrainVerts[0].x=(%0.1f,%0.1f,%0.1f)\n", vTerrainVerts[0].x, vTerrainVerts[0].y, vTerrainVerts[0].z );
; 974  : 				ods( "vTerrainVerts[1].x=(%0.1f,%0.1f,%0.1f)\n", vTerrainVerts[1].x, vTerrainVerts[1].y, vTerrainVerts[1].z );
; 975  : 				ods( "vTerrainVerts[2].x=(%0.1f,%0.1f,%0.1f)\n", vTerrainVerts[2].x, vTerrainVerts[2].y, vTerrainVerts[2].z );
; 976  : 				ods( "vTerrainVerts[3].x=(%0.1f,%0.1f,%0.1f)\n", vTerrainVerts[3].x, vTerrainVerts[3].y, vTerrainVerts[3].z );*/
; 977  : 				GetAvgNormalFrom4TerrainVerts( &vnAvg, vTerrainVerts );

  00179	8d 45 c0	 lea	 eax, DWORD PTR _vTerrainVerts$[ebp]
  0017c	50		 push	 eax
  0017d	8d 8d d8 fe ff
	ff		 lea	 ecx, DWORD PTR _vnAvg$94072[ebp]
  00183	51		 push	 ecx
  00184	8b 4d f8	 mov	 ecx, DWORD PTR _this$[ebp]
  00187	e8 00 00 00 00	 call	 ?GetAvgNormalFrom4TerrainVerts@CFighter@@QAEHPAUD3DXVECTOR3@@0@Z ; CFighter::GetAvgNormalFrom4TerrainVerts

; 978  : 
; 979  : 				/*D3DXVec3Subtract(&vd1, &vTerrainVerts[3], &vTerrainVerts[2]) ;
; 980  : 				D3DXVec3Subtract(&vd2, &vTerrainVerts[3], &vTerrainVerts[1]) ;
; 981  : 				D3DXVec3Cross(&vcp, &vd1, &vd2) ;
; 982  : 				D3DXVec3Normalize(&vn1, &vcp) ;
; 983  : 				D3DXVec3Subtract(&vd1, &vTerrainVerts[4], &vTerrainVerts[3]) ;
; 984  : 				D3DXVec3Subtract(&vd2, &vTerrainVerts[4], &vTerrainVerts[2]) ;
; 985  : 				D3DXVec3Cross(&vcp, &vd1, &vd2) ;
; 986  : 				D3DXVec3Normalize(&vn2, &vcp) ;
; 987  : 				//vnAvg.x = (vn1.z + vn2.z) / 2.0f ;	// must reverse x and z here! -- caused by LERPdY's logic?
; 988  : 				//vnAvg.y = (vn1.y + vn2.y) / 2.0f ;
; 989  : 				//vnAvg.z = (vn1.x + vn2.x) / 2.0f ;
; 990  : 				vnAvg = vn1 ;*/
; 991  : 
; 992  : 			// apply rebound force;
; 993  : 			// FIXME: this sometimes seems to get 'stuck'
; 994  : 				xVec3 A, N, X ;

  0018c	8d 8d c4 fe ff
	ff		 lea	 ecx, DWORD PTR _A$94074[ebp]
  00192	e8 00 00 00 00	 call	 ??0D3DXVECTOR3@@QAE@XZ	; D3DXVECTOR3::D3DXVECTOR3
  00197	8d 8d b0 fe ff
	ff		 lea	 ecx, DWORD PTR _N$94075[ebp]
  0019d	e8 00 00 00 00	 call	 ??0D3DXVECTOR3@@QAE@XZ	; D3DXVECTOR3::D3DXVECTOR3
  001a2	8d 8d 9c fe ff
	ff		 lea	 ecx, DWORD PTR _X$94076[ebp]
  001a8	e8 00 00 00 00	 call	 ??0D3DXVECTOR3@@QAE@XZ	; D3DXVECTOR3::D3DXVECTOR3

; 995  : 				D3DXVec3Normalize( &N, &vnAvg );

  001ad	8d 85 d8 fe ff
	ff		 lea	 eax, DWORD PTR _vnAvg$94072[ebp]
  001b3	50		 push	 eax
  001b4	8d 8d b0 fe ff
	ff		 lea	 ecx, DWORD PTR _N$94075[ebp]
  001ba	51		 push	 ecx
  001bb	e8 00 00 00 00	 call	 _D3DXVec3Normalize@8

; 996  : 				D3DXVec3Normalize( &A, &m_vDirectionOfTravel );

  001c0	8b 45 f8	 mov	 eax, DWORD PTR _this$[ebp]
  001c3	05 d8 01 00 00	 add	 eax, 472		; 000001d8H
  001c8	50		 push	 eax
  001c9	8d 8d c4 fe ff
	ff		 lea	 ecx, DWORD PTR _A$94074[ebp]
  001cf	51		 push	 ecx
  001d0	e8 00 00 00 00	 call	 _D3DXVec3Normalize@8

; 997  : 				X = (2.0f * N) + A ;

  001d5	8d 85 c4 fe ff
	ff		 lea	 eax, DWORD PTR _A$94074[ebp]
  001db	50		 push	 eax
  001dc	8d 8d 9c fd ff
	ff		 lea	 ecx, DWORD PTR $T94791[ebp]
  001e2	51		 push	 ecx
  001e3	8d 95 b0 fe ff
	ff		 lea	 edx, DWORD PTR _N$94075[ebp]
  001e9	52		 push	 edx
  001ea	68 00 00 00 40	 push	 1073741824		; 40000000H
  001ef	8d 85 b0 fd ff
	ff		 lea	 eax, DWORD PTR $T94790[ebp]
  001f5	50		 push	 eax
  001f6	e8 00 00 00 00	 call	 ??D@YA?AUD3DXVECTOR3@@MABU0@@Z ; operator*
  001fb	83 c4 0c	 add	 esp, 12			; 0000000cH
  001fe	8b c8		 mov	 ecx, eax
  00200	e8 00 00 00 00	 call	 ??HD3DXVECTOR3@@QBE?AU0@ABU0@@Z ; D3DXVECTOR3::operator+
  00205	8b 08		 mov	 ecx, DWORD PTR [eax]
  00207	89 8d 9c fe ff
	ff		 mov	 DWORD PTR _X$94076[ebp], ecx
  0020d	8b 50 04	 mov	 edx, DWORD PTR [eax+4]
  00210	89 95 a0 fe ff
	ff		 mov	 DWORD PTR _X$94076[ebp+4], edx
  00216	8b 40 08	 mov	 eax, DWORD PTR [eax+8]
  00219	89 85 a4 fe ff
	ff		 mov	 DWORD PTR _X$94076[ebp+8], eax

; 998  : 				m_vExternalForce = X * m_fSpeed ;

  0021f	8b 45 f8	 mov	 eax, DWORD PTR _this$[ebp]
  00222	8b 88 a4 01 00
	00		 mov	 ecx, DWORD PTR [eax+420]
  00228	51		 push	 ecx
  00229	8d 95 88 fd ff
	ff		 lea	 edx, DWORD PTR $T94792[ebp]
  0022f	52		 push	 edx
  00230	8d 8d 9c fe ff
	ff		 lea	 ecx, DWORD PTR _X$94076[ebp]
  00236	e8 00 00 00 00	 call	 ??DD3DXVECTOR3@@QBE?AU0@M@Z ; D3DXVECTOR3::operator*
  0023b	8b 4d f8	 mov	 ecx, DWORD PTR _this$[ebp]
  0023e	81 c1 08 02 00
	00		 add	 ecx, 520		; 00000208H
  00244	8b 10		 mov	 edx, DWORD PTR [eax]
  00246	89 11		 mov	 DWORD PTR [ecx], edx
  00248	8b 50 04	 mov	 edx, DWORD PTR [eax+4]
  0024b	89 51 04	 mov	 DWORD PTR [ecx+4], edx
  0024e	8b 40 08	 mov	 eax, DWORD PTR [eax+8]
  00251	89 41 08	 mov	 DWORD PTR [ecx+8], eax

; 999  : 				m_bJustBouncedOffTerrain = TRUE ;

  00254	8b 45 f8	 mov	 eax, DWORD PTR _this$[ebp]
  00257	c7 80 14 02 00
	00 01 00 00 00	 mov	 DWORD PTR [eax+532], 1

; 1000 : 
; 1001 : 				m_TCD_vN = vnAvg ;

  00261	8b 45 f8	 mov	 eax, DWORD PTR _this$[ebp]
  00264	83 c0 10	 add	 eax, 16			; 00000010H
  00267	8b 8d d8 fe ff
	ff		 mov	 ecx, DWORD PTR _vnAvg$94072[ebp]
  0026d	89 08		 mov	 DWORD PTR [eax], ecx
  0026f	8b 95 dc fe ff
	ff		 mov	 edx, DWORD PTR _vnAvg$94072[ebp+4]
  00275	89 50 04	 mov	 DWORD PTR [eax+4], edx
  00278	8b 8d e0 fe ff
	ff		 mov	 ecx, DWORD PTR _vnAvg$94072[ebp+8]
  0027e	89 48 08	 mov	 DWORD PTR [eax+8], ecx

; 1002 : 				m_TCD_vA = m_vDirectionOfTravel ;

  00281	8b 45 f8	 mov	 eax, DWORD PTR _this$[ebp]
  00284	05 d8 01 00 00	 add	 eax, 472		; 000001d8H
  00289	8b 4d f8	 mov	 ecx, DWORD PTR _this$[ebp]
  0028c	83 c1 1c	 add	 ecx, 28			; 0000001cH
  0028f	8b 10		 mov	 edx, DWORD PTR [eax]
  00291	89 11		 mov	 DWORD PTR [ecx], edx
  00293	8b 50 04	 mov	 edx, DWORD PTR [eax+4]
  00296	89 51 04	 mov	 DWORD PTR [ecx+4], edx
  00299	8b 40 08	 mov	 eax, DWORD PTR [eax+8]
  0029c	89 41 08	 mov	 DWORD PTR [ecx+8], eax

; 1003 : 
; 1004 : 				ods( "vnAvg=%0.1f,%0.1f,%0.1f\n", vnAvg.x, vnAvg.y, vnAvg.z );

  0029f	d9 85 e0 fe ff
	ff		 fld	 DWORD PTR _vnAvg$94072[ebp+8]
  002a5	83 ec 08	 sub	 esp, 8
  002a8	dd 1c 24	 fstp	 QWORD PTR [esp]
  002ab	d9 85 dc fe ff
	ff		 fld	 DWORD PTR _vnAvg$94072[ebp+4]
  002b1	83 ec 08	 sub	 esp, 8
  002b4	dd 1c 24	 fstp	 QWORD PTR [esp]
  002b7	d9 85 d8 fe ff
	ff		 fld	 DWORD PTR _vnAvg$94072[ebp]
  002bd	83 ec 08	 sub	 esp, 8
  002c0	dd 1c 24	 fstp	 QWORD PTR [esp]
  002c3	68 00 00 00 00	 push	 OFFSET FLAT:??_C@_0BJ@HIGIHBDO@vnAvg?$DN?$CF0?41f?0?$CF0?41f?0?$CF0?41f?6?$AA@
  002c8	e8 00 00 00 00	 call	 ?ods@@YAXPADZZ		; ods
  002cd	83 c4 1c	 add	 esp, 28			; 0000001cH

; 1005 : 				ods( "X=%0.1f,%0.1f,%0.1f\n", X.x, X.y, X.z );

  002d0	d9 85 a4 fe ff
	ff		 fld	 DWORD PTR _X$94076[ebp+8]
  002d6	83 ec 08	 sub	 esp, 8
  002d9	dd 1c 24	 fstp	 QWORD PTR [esp]
  002dc	d9 85 a0 fe ff
	ff		 fld	 DWORD PTR _X$94076[ebp+4]
  002e2	83 ec 08	 sub	 esp, 8
  002e5	dd 1c 24	 fstp	 QWORD PTR [esp]
  002e8	d9 85 9c fe ff
	ff		 fld	 DWORD PTR _X$94076[ebp]
  002ee	83 ec 08	 sub	 esp, 8
  002f1	dd 1c 24	 fstp	 QWORD PTR [esp]
  002f4	68 00 00 00 00	 push	 OFFSET FLAT:??_C@_0BF@MFABKEMN@X?$DN?$CF0?41f?0?$CF0?41f?0?$CF0?41f?6?$AA@
  002f9	e8 00 00 00 00	 call	 ?ods@@YAXPADZZ		; ods
  002fe	83 c4 1c	 add	 esp, 28			; 0000001cH

; 1006 : 				ods( "\n" );

  00301	68 00 00 00 00	 push	 OFFSET FLAT:??_C@_01EEMJAFIK@?6?$AA@
  00306	e8 00 00 00 00	 call	 ?ods@@YAXPADZZ		; ods
  0030b	83 c4 04	 add	 esp, 4

; 1007 : 				
; 1008 : 			// this works in all cases, but isn't as physically accurate
; 1009 : 				/*m_vExternalForce = vnAvg * m_fSpeed * 0.25f ;*/
; 1010 : 
; 1011 : 			//
; 1012 : 			// DO THE DAMAGE!
; 1013 : 			//
; 1014 : 
; 1015 : 			// if this is a user fighter: scale the damage from 0.5 base to 1.5 base according to user's skill level
; 1016 : 			// is this is a bot: set a constant 0.5 base modifier.
; 1017 : 				float fModifier ;
; 1018 : 				fModifier = 0.5f ;

  0030e	c7 85 90 fe ff
	ff 00 00 00 3f	 mov	 DWORD PTR _fModifier$94083[ebp], 1056964608 ; 3f000000H

; 1019 : 				if( m_bUserFighter )

  00318	8b 45 f8	 mov	 eax, DWORD PTR _this$[ebp]
  0031b	83 b8 1c 03 00
	00 00		 cmp	 DWORD PTR [eax+796], 0
  00322	74 18		 je	 SHORT $L94084

; 1020 : 					fModifier = 0.5f + ( 0.5f * m_fSkill );

  00324	8b 45 f8	 mov	 eax, DWORD PTR _this$[ebp]
  00327	d9 05 00 00 00
	00		 fld	 DWORD PTR __real@3f000000
  0032d	d8 48 28	 fmul	 DWORD PTR [eax+40]
  00330	d8 05 00 00 00
	00		 fadd	 DWORD PTR __real@3f000000
  00336	d9 9d 90 fe ff
	ff		 fstp	 DWORD PTR _fModifier$94083[ebp]
$L94084:

; 1021 : 
; 1022 : 				float fDamage = ( m_fThrustMag / m_fMaxThrustMag ) * fModifier ;

  0033c	8b 45 f8	 mov	 eax, DWORD PTR _this$[ebp]
  0033f	8b 4d f8	 mov	 ecx, DWORD PTR _this$[ebp]
  00342	d9 80 ac 01 00
	00		 fld	 DWORD PTR [eax+428]
  00348	d8 b1 b4 01 00
	00		 fdiv	 DWORD PTR [ecx+436]
  0034e	d8 8d 90 fe ff
	ff		 fmul	 DWORD PTR _fModifier$94083[ebp]
  00354	d9 9d 84 fe ff
	ff		 fstp	 DWORD PTR _fDamage$94085[ebp]

; 1023 : 				m_fShieldLevel -= fDamage ;

  0035a	8b 45 f8	 mov	 eax, DWORD PTR _this$[ebp]
  0035d	d9 80 08 03 00
	00		 fld	 DWORD PTR [eax+776]
  00363	d8 a5 84 fe ff
	ff		 fsub	 DWORD PTR _fDamage$94085[ebp]
  00369	8b 4d f8	 mov	 ecx, DWORD PTR _this$[ebp]
  0036c	d9 99 08 03 00
	00		 fstp	 DWORD PTR [ecx+776]

; 1024 : 				if( m_fShieldLevel < 0 )

  00372	8b 45 f8	 mov	 eax, DWORD PTR _this$[ebp]
  00375	d9 80 08 03 00
	00		 fld	 DWORD PTR [eax+776]
  0037b	d8 1d 00 00 00
	00		 fcomp	 DWORD PTR __real@00000000
  00381	df e0		 fnstsw	 ax
  00383	f6 c4 05	 test	 ah, 5
  00386	7a 0f		 jp	 SHORT $L94086

; 1025 : 					m_fShieldLevel = 0 ;

  00388	8b 45 f8	 mov	 eax, DWORD PTR _this$[ebp]
  0038b	c7 80 08 03 00
	00 00 00 00 00	 mov	 DWORD PTR [eax+776], 0

; 1026 : 				else

  00395	eb 13		 jmp	 SHORT $L94087
$L94086:

; 1027 : 					StartShieldEffect( fDamage, pRace );

  00397	8b 45 10	 mov	 eax, DWORD PTR _pRace$[ebp]
  0039a	50		 push	 eax
  0039b	8b 8d 84 fe ff
	ff		 mov	 ecx, DWORD PTR _fDamage$94085[ebp]
  003a1	51		 push	 ecx
  003a2	8b 4d f8	 mov	 ecx, DWORD PTR _this$[ebp]
  003a5	e8 00 00 00 00	 call	 ?StartShieldEffect@CFighter@@QAEXMPAVCRace@@@Z ; CFighter::StartShieldEffect
$L94087:

; 1028 : 				m_bShieldLevelChanged = TRUE ;

  003aa	8b 45 f8	 mov	 eax, DWORD PTR _this$[ebp]
  003ad	c7 80 14 03 00
	00 01 00 00 00	 mov	 DWORD PTR [eax+788], 1

; 1029 : 
; 1030 : 				return TRUE ;

  003b7	b8 01 00 00 00	 mov	 eax, 1
  003bc	eb 14		 jmp	 SHORT $L94053
$L94065:

; 1031 : 			}
; 1032 : 		}

  003be	e9 7e fc ff ff	 jmp	 $L94060
$L94061:

; 1033 : 
; 1034 : 		m_bTerrainCollision = FALSE ;

  003c3	8b 45 f8	 mov	 eax, DWORD PTR _this$[ebp]
  003c6	c7 80 e8 02 00
	00 00 00 00 00	 mov	 DWORD PTR [eax+744], 0

; 1035 : 		return FALSE ;

  003d0	33 c0		 xor	 eax, eax
$L94053:

; 1036 : 	}

  003d2	52		 push	 edx
  003d3	8b cd		 mov	 ecx, ebp
  003d5	50		 push	 eax
  003d6	8d 15 00 00 00
	00		 lea	 edx, DWORD PTR $L94807
  003dc	e8 00 00 00 00	 call	 @_RTC_CheckStackVars@8
  003e1	58		 pop	 eax
  003e2	5a		 pop	 edx
  003e3	5f		 pop	 edi
  003e4	5e		 pop	 esi
  003e5	5b		 pop	 ebx
  003e6	81 c4 7c 02 00
	00		 add	 esp, 636		; 0000027cH
  003ec	3b ec		 cmp	 ebp, esp
  003ee	e8 00 00 00 00	 call	 __RTC_CheckEsp
  003f3	8b e5		 mov	 esp, ebp
  003f5	5d		 pop	 ebp
  003f6	c2 0c 00	 ret	 12			; 0000000cH
$L94807:
  003f9	0d 00 00 00	 DD	 13			; 0000000dH
  003fd	00 00 00 00	 DD	 $L94806
$L94806:
  00401	c0 ff ff ff	 DD	 -64			; ffffffc0H
  00405	30 00 00 00	 DD	 48			; 00000030H
  00409	00 00 00 00	 DD	 $L94793
  0040d	98 ff ff ff	 DD	 -104			; ffffff98H
  00411	20 00 00 00	 DD	 32			; 00000020H
  00415	00 00 00 00	 DD	 $L94794
  00419	70 ff ff ff	 DD	 -144			; ffffff70H
  0041d	20 00 00 00	 DD	 32			; 00000020H
  00421	00 00 00 00	 DD	 $L94795
  00425	50 ff ff ff	 DD	 -176			; ffffff50H
  00429	0c 00 00 00	 DD	 12			; 0000000cH
  0042d	00 00 00 00	 DD	 $L94796
  00431	3c ff ff ff	 DD	 -196			; ffffff3cH
  00435	0c 00 00 00	 DD	 12			; 0000000cH
  00439	00 00 00 00	 DD	 $L94797
  0043d	28 ff ff ff	 DD	 -216			; ffffff28H
  00441	0c 00 00 00	 DD	 12			; 0000000cH
  00445	00 00 00 00	 DD	 $L94798
  00449	14 ff ff ff	 DD	 -236			; ffffff14H
  0044d	0c 00 00 00	 DD	 12			; 0000000cH
  00451	00 00 00 00	 DD	 $L94799
  00455	00 ff ff ff	 DD	 -256			; ffffff00H
  00459	0c 00 00 00	 DD	 12			; 0000000cH
  0045d	00 00 00 00	 DD	 $L94800
  00461	ec fe ff ff	 DD	 -276			; fffffeecH
  00465	0c 00 00 00	 DD	 12			; 0000000cH
  00469	00 00 00 00	 DD	 $L94801
  0046d	d8 fe ff ff	 DD	 -296			; fffffed8H
  00471	0c 00 00 00	 DD	 12			; 0000000cH
  00475	00 00 00 00	 DD	 $L94802
  00479	c4 fe ff ff	 DD	 -316			; fffffec4H
  0047d	0c 00 00 00	 DD	 12			; 0000000cH
  00481	00 00 00 00	 DD	 $L94803
  00485	b0 fe ff ff	 DD	 -336			; fffffeb0H
  00489	0c 00 00 00	 DD	 12			; 0000000cH
  0048d	00 00 00 00	 DD	 $L94804
  00491	9c fe ff ff	 DD	 -356			; fffffe9cH
  00495	0c 00 00 00	 DD	 12			; 0000000cH
  00499	00 00 00 00	 DD	 $L94805
$L94805:
  0049d	58		 DB	 88			; 00000058H
  0049e	00		 DB	 0
$L94804:
  0049f	4e		 DB	 78			; 0000004eH
  004a0	00		 DB	 0
$L94803:
  004a1	41		 DB	 65			; 00000041H
  004a2	00		 DB	 0
$L94802:
  004a3	76		 DB	 118			; 00000076H
  004a4	6e		 DB	 110			; 0000006eH
  004a5	41		 DB	 65			; 00000041H
  004a6	76		 DB	 118			; 00000076H
  004a7	67		 DB	 103			; 00000067H
  004a8	00		 DB	 0
$L94801:
  004a9	76		 DB	 118			; 00000076H
  004aa	6e		 DB	 110			; 0000006eH
  004ab	32		 DB	 50			; 00000032H
  004ac	00		 DB	 0
$L94800:
  004ad	76		 DB	 118			; 00000076H
  004ae	6e		 DB	 110			; 0000006eH
  004af	31		 DB	 49			; 00000031H
  004b0	00		 DB	 0
$L94799:
  004b1	76		 DB	 118			; 00000076H
  004b2	63		 DB	 99			; 00000063H
  004b3	70		 DB	 112			; 00000070H
  004b4	00		 DB	 0
$L94798:
  004b5	76		 DB	 118			; 00000076H
  004b6	64		 DB	 100			; 00000064H
  004b7	33		 DB	 51			; 00000033H
  004b8	00		 DB	 0
$L94797:
  004b9	76		 DB	 118			; 00000076H
  004ba	64		 DB	 100			; 00000064H
  004bb	32		 DB	 50			; 00000032H
  004bc	00		 DB	 0
$L94796:
  004bd	76		 DB	 118			; 00000076H
  004be	64		 DB	 100			; 00000064H
  004bf	31		 DB	 49			; 00000031H
  004c0	00		 DB	 0
$L94795:
  004c1	62		 DB	 98			; 00000062H
  004c2	41		 DB	 65			; 00000041H
  004c3	62		 DB	 98			; 00000062H
  004c4	6f		 DB	 111			; 0000006fH
  004c5	76		 DB	 118			; 00000076H
  004c6	65		 DB	 101			; 00000065H
  004c7	54		 DB	 84			; 00000054H
  004c8	65		 DB	 101			; 00000065H
  004c9	72		 DB	 114			; 00000072H
  004ca	72		 DB	 114			; 00000072H
  004cb	61		 DB	 97			; 00000061H
  004cc	69		 DB	 105			; 00000069H
  004cd	6e		 DB	 110			; 0000006eH
  004ce	00		 DB	 0
$L94794:
  004cf	66		 DB	 102			; 00000066H
  004d0	4d		 DB	 77			; 0000004dH
  004d1	69		 DB	 105			; 00000069H
  004d2	6e		 DB	 110			; 0000006eH
  004d3	54		 DB	 84			; 00000054H
  004d4	65		 DB	 101			; 00000065H
  004d5	72		 DB	 114			; 00000072H
  004d6	72		 DB	 114			; 00000072H
  004d7	61		 DB	 97			; 00000061H
  004d8	69		 DB	 105			; 00000069H
  004d9	6e		 DB	 110			; 0000006eH
  004da	59		 DB	 89			; 00000059H
  004db	00		 DB	 0
$L94793:
  004dc	76		 DB	 118			; 00000076H
  004dd	54		 DB	 84			; 00000054H
  004de	65		 DB	 101			; 00000065H
  004df	72		 DB	 114			; 00000072H
  004e0	72		 DB	 114			; 00000072H
  004e1	61		 DB	 97			; 00000061H
  004e2	69		 DB	 105			; 00000069H
  004e3	6e		 DB	 110			; 0000006eH
  004e4	56		 DB	 86			; 00000056H
  004e5	65		 DB	 101			; 00000065H
  004e6	72		 DB	 114			; 00000072H
  004e7	74		 DB	 116			; 00000074H
  004e8	73		 DB	 115			; 00000073H
  004e9	00		 DB	 0
?DetectAndHandleTerrainCollision@CFighter@@QAEHPAUD3DXVECTOR4@@PAVCTerrain@@PAVCRace@@@Z ENDP ; CFighter::DetectAndHandleTerrainCollision
_TEXT	ENDS
PUBLIC	?ManageCamera@CFighter@@QAEXPAUIDirect3DDevice8@@PAVCCamera@@PAVCUserInput@@H@Z ; CFighter::ManageCamera
PUBLIC	__real@3fc00000
PUBLIC	__real@bf000000
PUBLIC	__real@bfc00000
PUBLIC	??GD3DXVECTOR3@@QBE?AU0@ABU0@@Z			; D3DXVECTOR3::operator-
EXTRN	?SetViewMatrix@CCamera@@QAEHPAUIDirect3DDevice8@@H@Z:NEAR ; CCamera::SetViewMatrix
;	COMDAT __real@3fc00000
CONST	SEGMENT
__real@3fc00000 DD 03fc00000r			; 1.5
CONST	ENDS
;	COMDAT __real@bf000000
CONST	SEGMENT
__real@bf000000 DD 0bf000000r			; -0.5
CONST	ENDS
;	COMDAT __real@bfc00000
CONST	SEGMENT
__real@bfc00000 DD 0bfc00000r			; -1.5
; Function compile flags: /Odt /RTCsu /ZI
CONST	ENDS
;	COMDAT ?ManageCamera@CFighter@@QAEXPAUIDirect3DDevice8@@PAVCCamera@@PAVCUserInput@@H@Z
_TEXT	SEGMENT
$T94838 = -884
$T94837 = -864
$T94836 = -844
$T94835 = -824
$T94834 = -804
$T94833 = -784
$T94832 = -764
$T94831 = -744
$T94830 = -724
$T94829 = -704
$T94828 = -684
$T94827 = -664
$T94826 = -644
$T94825 = -624
$T94824 = -604
$T94823 = -584
$T94822 = -564
$T94821 = -544
$T94820 = -524
$T94819 = -504
$T94818 = -484
$T94817 = -464
$T94816 = -444
$T94815 = -424
$T94814 = -404
$T94813 = -384
$T94812 = -364
$T94811 = -344
$T94810 = -324
_fI$94131 = -112
_fTotalWeight$94122 = -100
_fWeight$94121 = -88
_fA$94120 = -76
_i$94116 = -64
_fI$94115 = -52
_fI$94110 = -40
_vX$ = -28
_this$ = -8
_pDev$ = 8
_pCamera$ = 12
_pIn$ = 16
_ctCamMode$ = 20
?ManageCamera@CFighter@@QAEXPAUIDirect3DDevice8@@PAVCCamera@@PAVCUserInput@@H@Z PROC NEAR ; CFighter::ManageCamera, COMDAT
; _this$ = ecx

; 1044 : 	{

  00000	55		 push	 ebp
  00001	8b ec		 mov	 ebp, esp
  00003	81 ec 78 03 00
	00		 sub	 esp, 888		; 00000378H
  00009	53		 push	 ebx
  0000a	56		 push	 esi
  0000b	57		 push	 edi
  0000c	51		 push	 ecx
  0000d	8d bd 88 fc ff
	ff		 lea	 edi, DWORD PTR [ebp-888]
  00013	b9 de 00 00 00	 mov	 ecx, 222		; 000000deH
  00018	b8 cc cc cc cc	 mov	 eax, -858993460		; ccccccccH
  0001d	f3 ab		 rep stosd
  0001f	59		 pop	 ecx
  00020	89 4d f8	 mov	 DWORD PTR _this$[ebp], ecx

; 1045 : 		xVec3 vX = ( m_vOrientation * m_pFRO->m_pRenderData->m_fBSphereRadius );

  00023	8b 45 f8	 mov	 eax, DWORD PTR _this$[ebp]
  00026	8b 48 2c	 mov	 ecx, DWORD PTR [eax+44]
  00029	8b 11		 mov	 edx, DWORD PTR [ecx]
  0002b	8b 82 38 01 00
	00		 mov	 eax, DWORD PTR [edx+312]
  00031	50		 push	 eax
  00032	8d 4d e4	 lea	 ecx, DWORD PTR _vX$[ebp]
  00035	51		 push	 ecx
  00036	8b 4d f8	 mov	 ecx, DWORD PTR _this$[ebp]
  00039	81 c1 c0 01 00
	00		 add	 ecx, 448		; 000001c0H
  0003f	e8 00 00 00 00	 call	 ??DD3DXVECTOR3@@QBE?AU0@M@Z ; D3DXVECTOR3::operator*

; 1046 : 
; 1047 : 		if (ctCamMode == CT_BEHIND_FIXED1)

  00044	83 7d 14 01	 cmp	 DWORD PTR _ctCamMode$[ebp], 1
  00048	75 72		 jne	 SHORT $L94097

; 1048 : 		{
; 1049 : 			pCamera->m_vEyePt = m_pFRO->m_pBBox->m_vCenter - (vX * 3.0f) ;

  0004a	68 00 00 40 40	 push	 1077936128		; 40400000H
  0004f	8d 85 bc fe ff
	ff		 lea	 eax, DWORD PTR $T94810[ebp]
  00055	50		 push	 eax
  00056	8d 4d e4	 lea	 ecx, DWORD PTR _vX$[ebp]
  00059	e8 00 00 00 00	 call	 ??DD3DXVECTOR3@@QBE?AU0@M@Z ; D3DXVECTOR3::operator*
  0005e	50		 push	 eax
  0005f	8d 8d a8 fe ff
	ff		 lea	 ecx, DWORD PTR $T94811[ebp]
  00065	51		 push	 ecx
  00066	8b 55 f8	 mov	 edx, DWORD PTR _this$[ebp]
  00069	8b 42 2c	 mov	 eax, DWORD PTR [edx+44]
  0006c	8b 48 08	 mov	 ecx, DWORD PTR [eax+8]
  0006f	83 c1 78	 add	 ecx, 120		; 00000078H
  00072	e8 00 00 00 00	 call	 ??GD3DXVECTOR3@@QBE?AU0@ABU0@@Z ; D3DXVECTOR3::operator-
  00077	8b 4d 0c	 mov	 ecx, DWORD PTR _pCamera$[ebp]
  0007a	8b 10		 mov	 edx, DWORD PTR [eax]
  0007c	89 11		 mov	 DWORD PTR [ecx], edx
  0007e	8b 50 04	 mov	 edx, DWORD PTR [eax+4]
  00081	89 51 04	 mov	 DWORD PTR [ecx+4], edx
  00084	8b 40 08	 mov	 eax, DWORD PTR [eax+8]
  00087	89 41 08	 mov	 DWORD PTR [ecx+8], eax

; 1050 : 			pCamera->m_vLookAtPt = m_pFRO->m_pBBox->m_vCenter + (vX) ;

  0008a	8d 45 e4	 lea	 eax, DWORD PTR _vX$[ebp]
  0008d	50		 push	 eax
  0008e	8d 8d 94 fe ff
	ff		 lea	 ecx, DWORD PTR $T94812[ebp]
  00094	51		 push	 ecx
  00095	8b 55 f8	 mov	 edx, DWORD PTR _this$[ebp]
  00098	8b 42 2c	 mov	 eax, DWORD PTR [edx+44]
  0009b	8b 48 08	 mov	 ecx, DWORD PTR [eax+8]
  0009e	83 c1 78	 add	 ecx, 120		; 00000078H
  000a1	e8 00 00 00 00	 call	 ??HD3DXVECTOR3@@QBE?AU0@ABU0@@Z ; D3DXVECTOR3::operator+
  000a6	8b 4d 0c	 mov	 ecx, DWORD PTR _pCamera$[ebp]
  000a9	83 c1 0c	 add	 ecx, 12			; 0000000cH
  000ac	8b 10		 mov	 edx, DWORD PTR [eax]
  000ae	89 11		 mov	 DWORD PTR [ecx], edx
  000b0	8b 50 04	 mov	 edx, DWORD PTR [eax+4]
  000b3	89 51 04	 mov	 DWORD PTR [ecx+4], edx
  000b6	8b 40 08	 mov	 eax, DWORD PTR [eax+8]
  000b9	89 41 08	 mov	 DWORD PTR [ecx+8], eax
$L94097:

; 1051 : 		}
; 1052 : 		if (ctCamMode == CT_BEHIND_FIXED2)

  000bc	83 7d 14 02	 cmp	 DWORD PTR _ctCamMode$[ebp], 2
  000c0	0f 85 92 00 00
	00		 jne	 $L94101

; 1053 : 		{
; 1054 : 			pCamera->m_vEyePt = m_pFRO->m_pBBox->m_vCenter - (vX * 9.0f) ;

  000c6	68 00 00 10 41	 push	 1091567616		; 41100000H
  000cb	8d 85 80 fe ff
	ff		 lea	 eax, DWORD PTR $T94813[ebp]
  000d1	50		 push	 eax
  000d2	8d 4d e4	 lea	 ecx, DWORD PTR _vX$[ebp]
  000d5	e8 00 00 00 00	 call	 ??DD3DXVECTOR3@@QBE?AU0@M@Z ; D3DXVECTOR3::operator*
  000da	50		 push	 eax
  000db	8d 8d 6c fe ff
	ff		 lea	 ecx, DWORD PTR $T94814[ebp]
  000e1	51		 push	 ecx
  000e2	8b 55 f8	 mov	 edx, DWORD PTR _this$[ebp]
  000e5	8b 42 2c	 mov	 eax, DWORD PTR [edx+44]
  000e8	8b 48 08	 mov	 ecx, DWORD PTR [eax+8]
  000eb	83 c1 78	 add	 ecx, 120		; 00000078H
  000ee	e8 00 00 00 00	 call	 ??GD3DXVECTOR3@@QBE?AU0@ABU0@@Z ; D3DXVECTOR3::operator-
  000f3	8b 4d 0c	 mov	 ecx, DWORD PTR _pCamera$[ebp]
  000f6	8b 10		 mov	 edx, DWORD PTR [eax]
  000f8	89 11		 mov	 DWORD PTR [ecx], edx
  000fa	8b 50 04	 mov	 edx, DWORD PTR [eax+4]
  000fd	89 51 04	 mov	 DWORD PTR [ecx+4], edx
  00100	8b 40 08	 mov	 eax, DWORD PTR [eax+8]
  00103	89 41 08	 mov	 DWORD PTR [ecx+8], eax

; 1055 : 			pCamera->m_vEyePt.y += m_pFRO->m_pRenderData->m_fBSphereRadius * 1.5f ;

  00106	8b 45 f8	 mov	 eax, DWORD PTR _this$[ebp]
  00109	8b 48 2c	 mov	 ecx, DWORD PTR [eax+44]
  0010c	8b 11		 mov	 edx, DWORD PTR [ecx]
  0010e	d9 82 38 01 00
	00		 fld	 DWORD PTR [edx+312]
  00114	d8 0d 00 00 00
	00		 fmul	 DWORD PTR __real@3fc00000
  0011a	8b 45 0c	 mov	 eax, DWORD PTR _pCamera$[ebp]
  0011d	d8 40 04	 fadd	 DWORD PTR [eax+4]
  00120	8b 4d 0c	 mov	 ecx, DWORD PTR _pCamera$[ebp]
  00123	d9 59 04	 fstp	 DWORD PTR [ecx+4]

; 1056 : 			pCamera->m_vLookAtPt = m_pFRO->m_pBBox->m_vCenter + (vX) ;

  00126	8d 45 e4	 lea	 eax, DWORD PTR _vX$[ebp]
  00129	50		 push	 eax
  0012a	8d 8d 58 fe ff
	ff		 lea	 ecx, DWORD PTR $T94815[ebp]
  00130	51		 push	 ecx
  00131	8b 55 f8	 mov	 edx, DWORD PTR _this$[ebp]
  00134	8b 42 2c	 mov	 eax, DWORD PTR [edx+44]
  00137	8b 48 08	 mov	 ecx, DWORD PTR [eax+8]
  0013a	83 c1 78	 add	 ecx, 120		; 00000078H
  0013d	e8 00 00 00 00	 call	 ??HD3DXVECTOR3@@QBE?AU0@ABU0@@Z ; D3DXVECTOR3::operator+
  00142	8b 4d 0c	 mov	 ecx, DWORD PTR _pCamera$[ebp]
  00145	83 c1 0c	 add	 ecx, 12			; 0000000cH
  00148	8b 10		 mov	 edx, DWORD PTR [eax]
  0014a	89 11		 mov	 DWORD PTR [ecx], edx
  0014c	8b 50 04	 mov	 edx, DWORD PTR [eax+4]
  0014f	89 51 04	 mov	 DWORD PTR [ecx+4], edx
  00152	8b 40 08	 mov	 eax, DWORD PTR [eax+8]
  00155	89 41 08	 mov	 DWORD PTR [ecx+8], eax
$L94101:

; 1057 : 		}
; 1058 : 		if (ctCamMode == CT_BEHIND_FIXED3)

  00158	83 7d 14 03	 cmp	 DWORD PTR _ctCamMode$[ebp], 3
  0015c	0f 85 92 00 00
	00		 jne	 $L94105

; 1059 : 		{
; 1060 : 			pCamera->m_vEyePt = m_pFRO->m_pBBox->m_vCenter - (vX * 24.0f) ;

  00162	68 00 00 c0 41	 push	 1103101952		; 41c00000H
  00167	8d 85 44 fe ff
	ff		 lea	 eax, DWORD PTR $T94816[ebp]
  0016d	50		 push	 eax
  0016e	8d 4d e4	 lea	 ecx, DWORD PTR _vX$[ebp]
  00171	e8 00 00 00 00	 call	 ??DD3DXVECTOR3@@QBE?AU0@M@Z ; D3DXVECTOR3::operator*
  00176	50		 push	 eax
  00177	8d 8d 30 fe ff
	ff		 lea	 ecx, DWORD PTR $T94817[ebp]
  0017d	51		 push	 ecx
  0017e	8b 55 f8	 mov	 edx, DWORD PTR _this$[ebp]
  00181	8b 42 2c	 mov	 eax, DWORD PTR [edx+44]
  00184	8b 48 08	 mov	 ecx, DWORD PTR [eax+8]
  00187	83 c1 78	 add	 ecx, 120		; 00000078H
  0018a	e8 00 00 00 00	 call	 ??GD3DXVECTOR3@@QBE?AU0@ABU0@@Z ; D3DXVECTOR3::operator-
  0018f	8b 4d 0c	 mov	 ecx, DWORD PTR _pCamera$[ebp]
  00192	8b 10		 mov	 edx, DWORD PTR [eax]
  00194	89 11		 mov	 DWORD PTR [ecx], edx
  00196	8b 50 04	 mov	 edx, DWORD PTR [eax+4]
  00199	89 51 04	 mov	 DWORD PTR [ecx+4], edx
  0019c	8b 40 08	 mov	 eax, DWORD PTR [eax+8]
  0019f	89 41 08	 mov	 DWORD PTR [ecx+8], eax

; 1061 : 			pCamera->m_vEyePt.y += m_pFRO->m_pRenderData->m_fBSphereRadius * 1.5f ;

  001a2	8b 45 f8	 mov	 eax, DWORD PTR _this$[ebp]
  001a5	8b 48 2c	 mov	 ecx, DWORD PTR [eax+44]
  001a8	8b 11		 mov	 edx, DWORD PTR [ecx]
  001aa	d9 82 38 01 00
	00		 fld	 DWORD PTR [edx+312]
  001b0	d8 0d 00 00 00
	00		 fmul	 DWORD PTR __real@3fc00000
  001b6	8b 45 0c	 mov	 eax, DWORD PTR _pCamera$[ebp]
  001b9	d8 40 04	 fadd	 DWORD PTR [eax+4]
  001bc	8b 4d 0c	 mov	 ecx, DWORD PTR _pCamera$[ebp]
  001bf	d9 59 04	 fstp	 DWORD PTR [ecx+4]

; 1062 : 			pCamera->m_vLookAtPt = m_pFRO->m_pBBox->m_vCenter + (vX) ;

  001c2	8d 45 e4	 lea	 eax, DWORD PTR _vX$[ebp]
  001c5	50		 push	 eax
  001c6	8d 8d 1c fe ff
	ff		 lea	 ecx, DWORD PTR $T94818[ebp]
  001cc	51		 push	 ecx
  001cd	8b 55 f8	 mov	 edx, DWORD PTR _this$[ebp]
  001d0	8b 42 2c	 mov	 eax, DWORD PTR [edx+44]
  001d3	8b 48 08	 mov	 ecx, DWORD PTR [eax+8]
  001d6	83 c1 78	 add	 ecx, 120		; 00000078H
  001d9	e8 00 00 00 00	 call	 ??HD3DXVECTOR3@@QBE?AU0@ABU0@@Z ; D3DXVECTOR3::operator+
  001de	8b 4d 0c	 mov	 ecx, DWORD PTR _pCamera$[ebp]
  001e1	83 c1 0c	 add	 ecx, 12			; 0000000cH
  001e4	8b 10		 mov	 edx, DWORD PTR [eax]
  001e6	89 11		 mov	 DWORD PTR [ecx], edx
  001e8	8b 50 04	 mov	 edx, DWORD PTR [eax+4]
  001eb	89 51 04	 mov	 DWORD PTR [ecx+4], edx
  001ee	8b 40 08	 mov	 eax, DWORD PTR [eax+8]
  001f1	89 41 08	 mov	 DWORD PTR [ecx+8], eax
$L94105:

; 1063 : 		}
; 1064 : 
; 1065 : 		if (ctCamMode == CT_BEHIND_VARIABLE1)

  001f4	83 7d 14 04	 cmp	 DWORD PTR _ctCamMode$[ebp], 4
  001f8	0f 85 be 00 00
	00		 jne	 $L94109

; 1066 : 		{
; 1067 : 			float fI = 1.0f - (m_fThrustMag / m_fMaxThrustMag) ;

  001fe	8b 45 f8	 mov	 eax, DWORD PTR _this$[ebp]
  00201	8b 4d f8	 mov	 ecx, DWORD PTR _this$[ebp]
  00204	d9 80 ac 01 00
	00		 fld	 DWORD PTR [eax+428]
  0020a	d8 b1 b4 01 00
	00		 fdiv	 DWORD PTR [ecx+436]
  00210	d8 2d 00 00 00
	00		 fsubr	 DWORD PTR __real@3f800000
  00216	d9 5d d8	 fstp	 DWORD PTR _fI$94110[ebp]

; 1068 : 			pCamera->m_vEyePt = m_pFRO->m_pBBox->m_vCenter - (vX * (1.5f + (5.0f * fI)) ) ;

  00219	d9 05 00 00 00
	00		 fld	 DWORD PTR __real@40a00000
  0021f	d8 4d d8	 fmul	 DWORD PTR _fI$94110[ebp]
  00222	d8 05 00 00 00
	00		 fadd	 DWORD PTR __real@3fc00000
  00228	51		 push	 ecx
  00229	d9 1c 24	 fstp	 DWORD PTR [esp]
  0022c	8d 85 08 fe ff
	ff		 lea	 eax, DWORD PTR $T94819[ebp]
  00232	50		 push	 eax
  00233	8d 4d e4	 lea	 ecx, DWORD PTR _vX$[ebp]
  00236	e8 00 00 00 00	 call	 ??DD3DXVECTOR3@@QBE?AU0@M@Z ; D3DXVECTOR3::operator*
  0023b	50		 push	 eax
  0023c	8d 8d f4 fd ff
	ff		 lea	 ecx, DWORD PTR $T94820[ebp]
  00242	51		 push	 ecx
  00243	8b 55 f8	 mov	 edx, DWORD PTR _this$[ebp]
  00246	8b 42 2c	 mov	 eax, DWORD PTR [edx+44]
  00249	8b 48 08	 mov	 ecx, DWORD PTR [eax+8]
  0024c	83 c1 78	 add	 ecx, 120		; 00000078H
  0024f	e8 00 00 00 00	 call	 ??GD3DXVECTOR3@@QBE?AU0@ABU0@@Z ; D3DXVECTOR3::operator-
  00254	8b 4d 0c	 mov	 ecx, DWORD PTR _pCamera$[ebp]
  00257	8b 10		 mov	 edx, DWORD PTR [eax]
  00259	89 11		 mov	 DWORD PTR [ecx], edx
  0025b	8b 50 04	 mov	 edx, DWORD PTR [eax+4]
  0025e	89 51 04	 mov	 DWORD PTR [ecx+4], edx
  00261	8b 40 08	 mov	 eax, DWORD PTR [eax+8]
  00264	89 41 08	 mov	 DWORD PTR [ecx+8], eax

; 1069 : 			pCamera->m_vEyePt.y += m_pFRO->m_pRenderData->m_fBSphereRadius * (2.0f * fI) ;

  00267	8b 45 f8	 mov	 eax, DWORD PTR _this$[ebp]
  0026a	8b 48 2c	 mov	 ecx, DWORD PTR [eax+44]
  0026d	8b 11		 mov	 edx, DWORD PTR [ecx]
  0026f	d9 05 00 00 00
	00		 fld	 DWORD PTR __real@40000000
  00275	d8 4d d8	 fmul	 DWORD PTR _fI$94110[ebp]
  00278	d8 8a 38 01 00
	00		 fmul	 DWORD PTR [edx+312]
  0027e	8b 45 0c	 mov	 eax, DWORD PTR _pCamera$[ebp]
  00281	d8 40 04	 fadd	 DWORD PTR [eax+4]
  00284	8b 4d 0c	 mov	 ecx, DWORD PTR _pCamera$[ebp]
  00287	d9 59 04	 fstp	 DWORD PTR [ecx+4]

; 1070 : 			pCamera->m_vLookAtPt = m_pFRO->m_pBBox->m_vCenter + (vX) ;

  0028a	8d 45 e4	 lea	 eax, DWORD PTR _vX$[ebp]
  0028d	50		 push	 eax
  0028e	8d 8d e0 fd ff
	ff		 lea	 ecx, DWORD PTR $T94821[ebp]
  00294	51		 push	 ecx
  00295	8b 55 f8	 mov	 edx, DWORD PTR _this$[ebp]
  00298	8b 42 2c	 mov	 eax, DWORD PTR [edx+44]
  0029b	8b 48 08	 mov	 ecx, DWORD PTR [eax+8]
  0029e	83 c1 78	 add	 ecx, 120		; 00000078H
  002a1	e8 00 00 00 00	 call	 ??HD3DXVECTOR3@@QBE?AU0@ABU0@@Z ; D3DXVECTOR3::operator+
  002a6	8b 4d 0c	 mov	 ecx, DWORD PTR _pCamera$[ebp]
  002a9	83 c1 0c	 add	 ecx, 12			; 0000000cH
  002ac	8b 10		 mov	 edx, DWORD PTR [eax]
  002ae	89 11		 mov	 DWORD PTR [ecx], edx
  002b0	8b 50 04	 mov	 edx, DWORD PTR [eax+4]
  002b3	89 51 04	 mov	 DWORD PTR [ecx+4], edx
  002b6	8b 40 08	 mov	 eax, DWORD PTR [eax+8]
  002b9	89 41 08	 mov	 DWORD PTR [ecx+8], eax
$L94109:

; 1071 : 		}
; 1072 : 	
; 1073 : 	// smoothed, variable distance;
; 1074 : 		if (ctCamMode == CT_BEHIND_VARIABLE2)

  002bc	83 7d 14 05	 cmp	 DWORD PTR _ctCamMode$[ebp], 5
  002c0	0f 85 6d 01 00
	00		 jne	 $L94114

; 1075 : 		{
; 1076 : 			float fI = 1.0f - (m_fThrustMag / m_fMaxThrustMag) ;

  002c6	8b 45 f8	 mov	 eax, DWORD PTR _this$[ebp]
  002c9	8b 4d f8	 mov	 ecx, DWORD PTR _this$[ebp]
  002cc	d9 80 ac 01 00
	00		 fld	 DWORD PTR [eax+428]
  002d2	d8 b1 b4 01 00
	00		 fdiv	 DWORD PTR [ecx+436]
  002d8	d8 2d 00 00 00
	00		 fsubr	 DWORD PTR __real@3f800000
  002de	d9 5d cc	 fstp	 DWORD PTR _fI$94115[ebp]

; 1077 : 
; 1078 : 			// move historical data through the buffer
; 1079 : 			for(int i = THRUSTMAG_HISTORY_BUF - 2 ; i >= 0 ; i-- )

  002e1	c7 45 c0 08 00
	00 00		 mov	 DWORD PTR _i$94116[ebp], 8
  002e8	eb 09		 jmp	 SHORT $L94117
$L94118:
  002ea	8b 45 c0	 mov	 eax, DWORD PTR _i$94116[ebp]
  002ed	83 e8 01	 sub	 eax, 1
  002f0	89 45 c0	 mov	 DWORD PTR _i$94116[ebp], eax
$L94117:
  002f3	83 7d c0 00	 cmp	 DWORD PTR _i$94116[ebp], 0
  002f7	7c 1c		 jl	 SHORT $L94119

; 1080 : 				m_fThrustMagHistory[i+1] = m_fThrustMagHistory[i] ;

  002f9	8b 45 c0	 mov	 eax, DWORD PTR _i$94116[ebp]
  002fc	8b 4d f8	 mov	 ecx, DWORD PTR _this$[ebp]
  002ff	8b 55 c0	 mov	 edx, DWORD PTR _i$94116[ebp]
  00302	8b 75 f8	 mov	 esi, DWORD PTR _this$[ebp]
  00305	8b 94 96 20 03
	00 00		 mov	 edx, DWORD PTR [esi+edx*4+800]
  0030c	89 94 81 24 03
	00 00		 mov	 DWORD PTR [ecx+eax*4+804], edx
  00313	eb d5		 jmp	 SHORT $L94118
$L94119:

; 1081 : 
; 1082 : 			// drop the new data into the front of the history buffer
; 1083 : 			m_fThrustMagHistory[0] = fI ;

  00315	8b 45 f8	 mov	 eax, DWORD PTR _this$[ebp]
  00318	8b 4d cc	 mov	 ecx, DWORD PTR _fI$94115[ebp]
  0031b	89 88 20 03 00
	00		 mov	 DWORD PTR [eax+800], ecx

; 1084 : 
; 1085 : 			// get weighted average from the buffer
; 1086 : 			float fA = 0, fWeight = 1, fTotalWeight = 0 ;

  00321	c7 45 b4 00 00
	00 00		 mov	 DWORD PTR _fA$94120[ebp], 0
  00328	c7 45 a8 00 00
	80 3f		 mov	 DWORD PTR _fWeight$94121[ebp], 1065353216 ; 3f800000H
  0032f	c7 45 9c 00 00
	00 00		 mov	 DWORD PTR _fTotalWeight$94122[ebp], 0

; 1087 : 			for( i=0 ; i<THRUSTMAG_HISTORY_BUF ; i++ )

  00336	c7 45 c0 00 00
	00 00		 mov	 DWORD PTR _i$94116[ebp], 0
  0033d	eb 09		 jmp	 SHORT $L94123
$L94124:
  0033f	8b 45 c0	 mov	 eax, DWORD PTR _i$94116[ebp]
  00342	83 c0 01	 add	 eax, 1
  00345	89 45 c0	 mov	 DWORD PTR _i$94116[ebp], eax
$L94123:
  00348	83 7d c0 0a	 cmp	 DWORD PTR _i$94116[ebp], 10 ; 0000000aH
  0034c	7d 2d		 jge	 SHORT $L94125

; 1088 : 			{
; 1089 : 				fA += m_fThrustMagHistory[i] * fWeight ;

  0034e	8b 45 c0	 mov	 eax, DWORD PTR _i$94116[ebp]
  00351	8b 4d f8	 mov	 ecx, DWORD PTR _this$[ebp]
  00354	d9 45 a8	 fld	 DWORD PTR _fWeight$94121[ebp]
  00357	d8 8c 81 20 03
	00 00		 fmul	 DWORD PTR [ecx+eax*4+800]
  0035e	d8 45 b4	 fadd	 DWORD PTR _fA$94120[ebp]
  00361	d9 5d b4	 fstp	 DWORD PTR _fA$94120[ebp]

; 1090 : 				fTotalWeight += fWeight ;

  00364	d9 45 9c	 fld	 DWORD PTR _fTotalWeight$94122[ebp]
  00367	d8 45 a8	 fadd	 DWORD PTR _fWeight$94121[ebp]
  0036a	d9 5d 9c	 fstp	 DWORD PTR _fTotalWeight$94122[ebp]

; 1091 : 				fWeight *= THRUSTMAG_SMOOTH_WEIGHT_D ;

  0036d	d9 45 a8	 fld	 DWORD PTR _fWeight$94121[ebp]
  00370	d8 0d 00 00 00
	00		 fmul	 DWORD PTR __real@3f000000
  00376	d9 5d a8	 fstp	 DWORD PTR _fWeight$94121[ebp]

; 1092 : 			}

  00379	eb c4		 jmp	 SHORT $L94124
$L94125:

; 1093 : 			fA /= fTotalWeight ;

  0037b	d9 45 b4	 fld	 DWORD PTR _fA$94120[ebp]
  0037e	d8 75 9c	 fdiv	 DWORD PTR _fTotalWeight$94122[ebp]
  00381	d9 5d b4	 fstp	 DWORD PTR _fA$94120[ebp]

; 1094 : 
; 1095 : 			pCamera->m_vEyePt = m_pFRO->m_pBBox->m_vCenter - vX - (vX * (5.0f * fA) ) ;

  00384	d9 05 00 00 00
	00		 fld	 DWORD PTR __real@40a00000
  0038a	d8 4d b4	 fmul	 DWORD PTR _fA$94120[ebp]
  0038d	51		 push	 ecx
  0038e	d9 1c 24	 fstp	 DWORD PTR [esp]
  00391	8d 85 b8 fd ff
	ff		 lea	 eax, DWORD PTR $T94823[ebp]
  00397	50		 push	 eax
  00398	8d 4d e4	 lea	 ecx, DWORD PTR _vX$[ebp]
  0039b	e8 00 00 00 00	 call	 ??DD3DXVECTOR3@@QBE?AU0@M@Z ; D3DXVECTOR3::operator*
  003a0	50		 push	 eax
  003a1	8d 8d a4 fd ff
	ff		 lea	 ecx, DWORD PTR $T94824[ebp]
  003a7	51		 push	 ecx
  003a8	8d 55 e4	 lea	 edx, DWORD PTR _vX$[ebp]
  003ab	52		 push	 edx
  003ac	8d 85 cc fd ff
	ff		 lea	 eax, DWORD PTR $T94822[ebp]
  003b2	50		 push	 eax
  003b3	8b 4d f8	 mov	 ecx, DWORD PTR _this$[ebp]
  003b6	8b 51 2c	 mov	 edx, DWORD PTR [ecx+44]
  003b9	8b 4a 08	 mov	 ecx, DWORD PTR [edx+8]
  003bc	83 c1 78	 add	 ecx, 120		; 00000078H
  003bf	e8 00 00 00 00	 call	 ??GD3DXVECTOR3@@QBE?AU0@ABU0@@Z ; D3DXVECTOR3::operator-
  003c4	8b c8		 mov	 ecx, eax
  003c6	e8 00 00 00 00	 call	 ??GD3DXVECTOR3@@QBE?AU0@ABU0@@Z ; D3DXVECTOR3::operator-
  003cb	8b 4d 0c	 mov	 ecx, DWORD PTR _pCamera$[ebp]
  003ce	8b 10		 mov	 edx, DWORD PTR [eax]
  003d0	89 11		 mov	 DWORD PTR [ecx], edx
  003d2	8b 50 04	 mov	 edx, DWORD PTR [eax+4]
  003d5	89 51 04	 mov	 DWORD PTR [ecx+4], edx
  003d8	8b 40 08	 mov	 eax, DWORD PTR [eax+8]
  003db	89 41 08	 mov	 DWORD PTR [ecx+8], eax

; 1096 : 			pCamera->m_vEyePt.y += m_pFRO->m_pRenderData->m_fBSphereRadius * (2.0f * fA) ;

  003de	8b 45 f8	 mov	 eax, DWORD PTR _this$[ebp]
  003e1	8b 48 2c	 mov	 ecx, DWORD PTR [eax+44]
  003e4	8b 11		 mov	 edx, DWORD PTR [ecx]
  003e6	d9 05 00 00 00
	00		 fld	 DWORD PTR __real@40000000
  003ec	d8 4d b4	 fmul	 DWORD PTR _fA$94120[ebp]
  003ef	d8 8a 38 01 00
	00		 fmul	 DWORD PTR [edx+312]
  003f5	8b 45 0c	 mov	 eax, DWORD PTR _pCamera$[ebp]
  003f8	d8 40 04	 fadd	 DWORD PTR [eax+4]
  003fb	8b 4d 0c	 mov	 ecx, DWORD PTR _pCamera$[ebp]
  003fe	d9 59 04	 fstp	 DWORD PTR [ecx+4]

; 1097 : 			pCamera->m_vLookAtPt = m_pFRO->m_pBBox->m_vCenter + (vX) ;

  00401	8d 45 e4	 lea	 eax, DWORD PTR _vX$[ebp]
  00404	50		 push	 eax
  00405	8d 8d 90 fd ff
	ff		 lea	 ecx, DWORD PTR $T94825[ebp]
  0040b	51		 push	 ecx
  0040c	8b 55 f8	 mov	 edx, DWORD PTR _this$[ebp]
  0040f	8b 42 2c	 mov	 eax, DWORD PTR [edx+44]
  00412	8b 48 08	 mov	 ecx, DWORD PTR [eax+8]
  00415	83 c1 78	 add	 ecx, 120		; 00000078H
  00418	e8 00 00 00 00	 call	 ??HD3DXVECTOR3@@QBE?AU0@ABU0@@Z ; D3DXVECTOR3::operator+
  0041d	8b 4d 0c	 mov	 ecx, DWORD PTR _pCamera$[ebp]
  00420	83 c1 0c	 add	 ecx, 12			; 0000000cH
  00423	8b 10		 mov	 edx, DWORD PTR [eax]
  00425	89 11		 mov	 DWORD PTR [ecx], edx
  00427	8b 50 04	 mov	 edx, DWORD PTR [eax+4]
  0042a	89 51 04	 mov	 DWORD PTR [ecx+4], edx
  0042d	8b 40 08	 mov	 eax, DWORD PTR [eax+8]
  00430	89 41 08	 mov	 DWORD PTR [ecx+8], eax
$L94114:

; 1098 : 		}
; 1099 : 
; 1100 : 		if (ctCamMode == CT_BEHIND_VARIABLE3)

  00433	83 7d 14 06	 cmp	 DWORD PTR _ctCamMode$[ebp], 6
  00437	0f 85 be 00 00
	00		 jne	 $L94130

; 1101 : 		{
; 1102 : 			float fI = 1.0f - (m_fThrustMag / m_fMaxThrustMag) ;

  0043d	8b 45 f8	 mov	 eax, DWORD PTR _this$[ebp]
  00440	8b 4d f8	 mov	 ecx, DWORD PTR _this$[ebp]
  00443	d9 80 ac 01 00
	00		 fld	 DWORD PTR [eax+428]
  00449	d8 b1 b4 01 00
	00		 fdiv	 DWORD PTR [ecx+436]
  0044f	d8 2d 00 00 00
	00		 fsubr	 DWORD PTR __real@3f800000
  00455	d9 5d 90	 fstp	 DWORD PTR _fI$94131[ebp]

; 1103 : 			pCamera->m_vEyePt = m_pFRO->m_pBBox->m_vCenter - (vX * (1.5f + (5.0f * fI)) ) ;

  00458	d9 05 00 00 00
	00		 fld	 DWORD PTR __real@40a00000
  0045e	d8 4d 90	 fmul	 DWORD PTR _fI$94131[ebp]
  00461	d8 05 00 00 00
	00		 fadd	 DWORD PTR __real@3fc00000
  00467	51		 push	 ecx
  00468	d9 1c 24	 fstp	 DWORD PTR [esp]
  0046b	8d 85 7c fd ff
	ff		 lea	 eax, DWORD PTR $T94826[ebp]
  00471	50		 push	 eax
  00472	8d 4d e4	 lea	 ecx, DWORD PTR _vX$[ebp]
  00475	e8 00 00 00 00	 call	 ??DD3DXVECTOR3@@QBE?AU0@M@Z ; D3DXVECTOR3::operator*
  0047a	50		 push	 eax
  0047b	8d 8d 68 fd ff
	ff		 lea	 ecx, DWORD PTR $T94827[ebp]
  00481	51		 push	 ecx
  00482	8b 55 f8	 mov	 edx, DWORD PTR _this$[ebp]
  00485	8b 42 2c	 mov	 eax, DWORD PTR [edx+44]
  00488	8b 48 08	 mov	 ecx, DWORD PTR [eax+8]
  0048b	83 c1 78	 add	 ecx, 120		; 00000078H
  0048e	e8 00 00 00 00	 call	 ??GD3DXVECTOR3@@QBE?AU0@ABU0@@Z ; D3DXVECTOR3::operator-
  00493	8b 4d 0c	 mov	 ecx, DWORD PTR _pCamera$[ebp]
  00496	8b 10		 mov	 edx, DWORD PTR [eax]
  00498	89 11		 mov	 DWORD PTR [ecx], edx
  0049a	8b 50 04	 mov	 edx, DWORD PTR [eax+4]
  0049d	89 51 04	 mov	 DWORD PTR [ecx+4], edx
  004a0	8b 40 08	 mov	 eax, DWORD PTR [eax+8]
  004a3	89 41 08	 mov	 DWORD PTR [ecx+8], eax

; 1104 : 			pCamera->m_vEyePt.y += m_pFRO->m_pRenderData->m_fBSphereRadius * (2.0f * fI) ;

  004a6	8b 45 f8	 mov	 eax, DWORD PTR _this$[ebp]
  004a9	8b 48 2c	 mov	 ecx, DWORD PTR [eax+44]
  004ac	8b 11		 mov	 edx, DWORD PTR [ecx]
  004ae	d9 05 00 00 00
	00		 fld	 DWORD PTR __real@40000000
  004b4	d8 4d 90	 fmul	 DWORD PTR _fI$94131[ebp]
  004b7	d8 8a 38 01 00
	00		 fmul	 DWORD PTR [edx+312]
  004bd	8b 45 0c	 mov	 eax, DWORD PTR _pCamera$[ebp]
  004c0	d8 40 04	 fadd	 DWORD PTR [eax+4]
  004c3	8b 4d 0c	 mov	 ecx, DWORD PTR _pCamera$[ebp]
  004c6	d9 59 04	 fstp	 DWORD PTR [ecx+4]

; 1105 : 			pCamera->m_vLookAtPt = m_pFRO->m_pBBox->m_vCenter + (vX) ;

  004c9	8d 45 e4	 lea	 eax, DWORD PTR _vX$[ebp]
  004cc	50		 push	 eax
  004cd	8d 8d 54 fd ff
	ff		 lea	 ecx, DWORD PTR $T94828[ebp]
  004d3	51		 push	 ecx
  004d4	8b 55 f8	 mov	 edx, DWORD PTR _this$[ebp]
  004d7	8b 42 2c	 mov	 eax, DWORD PTR [edx+44]
  004da	8b 48 08	 mov	 ecx, DWORD PTR [eax+8]
  004dd	83 c1 78	 add	 ecx, 120		; 00000078H
  004e0	e8 00 00 00 00	 call	 ??HD3DXVECTOR3@@QBE?AU0@ABU0@@Z ; D3DXVECTOR3::operator+
  004e5	8b 4d 0c	 mov	 ecx, DWORD PTR _pCamera$[ebp]
  004e8	83 c1 0c	 add	 ecx, 12			; 0000000cH
  004eb	8b 10		 mov	 edx, DWORD PTR [eax]
  004ed	89 11		 mov	 DWORD PTR [ecx], edx
  004ef	8b 50 04	 mov	 edx, DWORD PTR [eax+4]
  004f2	89 51 04	 mov	 DWORD PTR [ecx+4], edx
  004f5	8b 40 08	 mov	 eax, DWORD PTR [eax+8]
  004f8	89 41 08	 mov	 DWORD PTR [ecx+8], eax
$L94130:

; 1106 : 		}
; 1107 : 
; 1108 : 		if (ctCamMode == CT_COCKPIT_FIXED)

  004fb	83 7d 14 07	 cmp	 DWORD PTR _ctCamMode$[ebp], 7
  004ff	0f 85 80 00 00
	00		 jne	 $L94135

; 1109 : 		{
; 1110 : 			pCamera->m_vEyePt = m_pFRO->m_pBBox->m_vCenter + (vX * 0.0f) ;

  00505	6a 00		 push	 0
  00507	8d 85 40 fd ff
	ff		 lea	 eax, DWORD PTR $T94829[ebp]
  0050d	50		 push	 eax
  0050e	8d 4d e4	 lea	 ecx, DWORD PTR _vX$[ebp]
  00511	e8 00 00 00 00	 call	 ??DD3DXVECTOR3@@QBE?AU0@M@Z ; D3DXVECTOR3::operator*
  00516	50		 push	 eax
  00517	8d 8d 2c fd ff
	ff		 lea	 ecx, DWORD PTR $T94830[ebp]
  0051d	51		 push	 ecx
  0051e	8b 55 f8	 mov	 edx, DWORD PTR _this$[ebp]
  00521	8b 42 2c	 mov	 eax, DWORD PTR [edx+44]
  00524	8b 48 08	 mov	 ecx, DWORD PTR [eax+8]
  00527	83 c1 78	 add	 ecx, 120		; 00000078H
  0052a	e8 00 00 00 00	 call	 ??HD3DXVECTOR3@@QBE?AU0@ABU0@@Z ; D3DXVECTOR3::operator+
  0052f	8b 4d 0c	 mov	 ecx, DWORD PTR _pCamera$[ebp]
  00532	8b 10		 mov	 edx, DWORD PTR [eax]
  00534	89 11		 mov	 DWORD PTR [ecx], edx
  00536	8b 50 04	 mov	 edx, DWORD PTR [eax+4]
  00539	89 51 04	 mov	 DWORD PTR [ecx+4], edx
  0053c	8b 40 08	 mov	 eax, DWORD PTR [eax+8]
  0053f	89 41 08	 mov	 DWORD PTR [ecx+8], eax

; 1111 : 			pCamera->m_vLookAtPt = m_pFRO->m_pBBox->m_vCenter + (vX * 0.5f) ;

  00542	68 00 00 00 3f	 push	 1056964608		; 3f000000H
  00547	8d 85 18 fd ff
	ff		 lea	 eax, DWORD PTR $T94831[ebp]
  0054d	50		 push	 eax
  0054e	8d 4d e4	 lea	 ecx, DWORD PTR _vX$[ebp]
  00551	e8 00 00 00 00	 call	 ??DD3DXVECTOR3@@QBE?AU0@M@Z ; D3DXVECTOR3::operator*
  00556	50		 push	 eax
  00557	8d 8d 04 fd ff
	ff		 lea	 ecx, DWORD PTR $T94832[ebp]
  0055d	51		 push	 ecx
  0055e	8b 55 f8	 mov	 edx, DWORD PTR _this$[ebp]
  00561	8b 42 2c	 mov	 eax, DWORD PTR [edx+44]
  00564	8b 48 08	 mov	 ecx, DWORD PTR [eax+8]
  00567	83 c1 78	 add	 ecx, 120		; 00000078H
  0056a	e8 00 00 00 00	 call	 ??HD3DXVECTOR3@@QBE?AU0@ABU0@@Z ; D3DXVECTOR3::operator+
  0056f	8b 4d 0c	 mov	 ecx, DWORD PTR _pCamera$[ebp]
  00572	83 c1 0c	 add	 ecx, 12			; 0000000cH
  00575	8b 10		 mov	 edx, DWORD PTR [eax]
  00577	89 11		 mov	 DWORD PTR [ecx], edx
  00579	8b 50 04	 mov	 edx, DWORD PTR [eax+4]
  0057c	89 51 04	 mov	 DWORD PTR [ecx+4], edx
  0057f	8b 40 08	 mov	 eax, DWORD PTR [eax+8]
  00582	89 41 08	 mov	 DWORD PTR [ecx+8], eax
$L94135:

; 1112 : 		}
; 1113 : 		if (ctCamMode == CT_COCKPIT_ROLL)

  00585	83 7d 14 08	 cmp	 DWORD PTR _ctCamMode$[ebp], 8
  00589	0f 85 80 00 00
	00		 jne	 $L94140

; 1114 : 		{
; 1115 : 			pCamera->m_vEyePt = m_pFRO->m_pBBox->m_vCenter + (vX * 0.0f) ;

  0058f	6a 00		 push	 0
  00591	8d 85 f0 fc ff
	ff		 lea	 eax, DWORD PTR $T94833[ebp]
  00597	50		 push	 eax
  00598	8d 4d e4	 lea	 ecx, DWORD PTR _vX$[ebp]
  0059b	e8 00 00 00 00	 call	 ??DD3DXVECTOR3@@QBE?AU0@M@Z ; D3DXVECTOR3::operator*
  005a0	50		 push	 eax
  005a1	8d 8d dc fc ff
	ff		 lea	 ecx, DWORD PTR $T94834[ebp]
  005a7	51		 push	 ecx
  005a8	8b 55 f8	 mov	 edx, DWORD PTR _this$[ebp]
  005ab	8b 42 2c	 mov	 eax, DWORD PTR [edx+44]
  005ae	8b 48 08	 mov	 ecx, DWORD PTR [eax+8]
  005b1	83 c1 78	 add	 ecx, 120		; 00000078H
  005b4	e8 00 00 00 00	 call	 ??HD3DXVECTOR3@@QBE?AU0@ABU0@@Z ; D3DXVECTOR3::operator+
  005b9	8b 4d 0c	 mov	 ecx, DWORD PTR _pCamera$[ebp]
  005bc	8b 10		 mov	 edx, DWORD PTR [eax]
  005be	89 11		 mov	 DWORD PTR [ecx], edx
  005c0	8b 50 04	 mov	 edx, DWORD PTR [eax+4]
  005c3	89 51 04	 mov	 DWORD PTR [ecx+4], edx
  005c6	8b 40 08	 mov	 eax, DWORD PTR [eax+8]
  005c9	89 41 08	 mov	 DWORD PTR [ecx+8], eax

; 1116 : 			pCamera->m_vLookAtPt = m_pFRO->m_pBBox->m_vCenter + (vX * 0.5f) ;

  005cc	68 00 00 00 3f	 push	 1056964608		; 3f000000H
  005d1	8d 85 c8 fc ff
	ff		 lea	 eax, DWORD PTR $T94835[ebp]
  005d7	50		 push	 eax
  005d8	8d 4d e4	 lea	 ecx, DWORD PTR _vX$[ebp]
  005db	e8 00 00 00 00	 call	 ??DD3DXVECTOR3@@QBE?AU0@M@Z ; D3DXVECTOR3::operator*
  005e0	50		 push	 eax
  005e1	8d 8d b4 fc ff
	ff		 lea	 ecx, DWORD PTR $T94836[ebp]
  005e7	51		 push	 ecx
  005e8	8b 55 f8	 mov	 edx, DWORD PTR _this$[ebp]
  005eb	8b 42 2c	 mov	 eax, DWORD PTR [edx+44]
  005ee	8b 48 08	 mov	 ecx, DWORD PTR [eax+8]
  005f1	83 c1 78	 add	 ecx, 120		; 00000078H
  005f4	e8 00 00 00 00	 call	 ??HD3DXVECTOR3@@QBE?AU0@ABU0@@Z ; D3DXVECTOR3::operator+
  005f9	8b 4d 0c	 mov	 ecx, DWORD PTR _pCamera$[ebp]
  005fc	83 c1 0c	 add	 ecx, 12			; 0000000cH
  005ff	8b 10		 mov	 edx, DWORD PTR [eax]
  00601	89 11		 mov	 DWORD PTR [ecx], edx
  00603	8b 50 04	 mov	 edx, DWORD PTR [eax+4]
  00606	89 51 04	 mov	 DWORD PTR [ecx+4], edx
  00609	8b 40 08	 mov	 eax, DWORD PTR [eax+8]
  0060c	89 41 08	 mov	 DWORD PTR [ecx+8], eax
$L94140:

; 1117 : 		}
; 1118 : 
; 1119 : 	// nice!
; 1120 : 		if( (m_fPitch / g_PI < -0.5f && m_fPitch / g_PI > -1.5f) || (m_fPitch / g_PI > +0.5f && m_fPitch / g_PI < +1.5f) )

  0060f	8b 45 f8	 mov	 eax, DWORD PTR _this$[ebp]
  00612	d9 80 18 02 00
	00		 fld	 DWORD PTR [eax+536]
  00618	d8 35 00 00 00
	00		 fdiv	 DWORD PTR _g_PI
  0061e	d8 1d 00 00 00
	00		 fcomp	 DWORD PTR __real@bf000000
  00624	df e0		 fnstsw	 ax
  00626	f6 c4 05	 test	 ah, 5
  00629	7a 1c		 jp	 SHORT $L94147
  0062b	8b 45 f8	 mov	 eax, DWORD PTR _this$[ebp]
  0062e	d9 80 18 02 00
	00		 fld	 DWORD PTR [eax+536]
  00634	d8 35 00 00 00
	00		 fdiv	 DWORD PTR _g_PI
  0063a	d8 1d 00 00 00
	00		 fcomp	 DWORD PTR __real@bfc00000
  00640	df e0		 fnstsw	 ax
  00642	f6 c4 41	 test	 ah, 65			; 00000041H
  00645	74 38		 je	 SHORT $L94146
$L94147:
  00647	8b 45 f8	 mov	 eax, DWORD PTR _this$[ebp]
  0064a	d9 80 18 02 00
	00		 fld	 DWORD PTR [eax+536]
  00650	d8 35 00 00 00
	00		 fdiv	 DWORD PTR _g_PI
  00656	d8 1d 00 00 00
	00		 fcomp	 DWORD PTR __real@3f000000
  0065c	df e0		 fnstsw	 ax
  0065e	f6 c4 41	 test	 ah, 65			; 00000041H
  00661	75 48		 jne	 SHORT $L94145
  00663	8b 45 f8	 mov	 eax, DWORD PTR _this$[ebp]
  00666	d9 80 18 02 00
	00		 fld	 DWORD PTR [eax+536]
  0066c	d8 35 00 00 00
	00		 fdiv	 DWORD PTR _g_PI
  00672	d8 1d 00 00 00
	00		 fcomp	 DWORD PTR __real@3fc00000
  00678	df e0		 fnstsw	 ax
  0067a	f6 c4 05	 test	 ah, 5
  0067d	7a 2c		 jp	 SHORT $L94145
$L94146:

; 1121 : 			pCamera->m_vUpVec = xVec3( 0, -1, 0 );

  0067f	6a 00		 push	 0
  00681	68 00 00 80 bf	 push	 -1082130432		; bf800000H
  00686	6a 00		 push	 0
  00688	8d 8d a0 fc ff
	ff		 lea	 ecx, DWORD PTR $T94837[ebp]
  0068e	e8 00 00 00 00	 call	 ??0D3DXVECTOR3@@QAE@MMM@Z ; D3DXVECTOR3::D3DXVECTOR3
  00693	8b 4d 0c	 mov	 ecx, DWORD PTR _pCamera$[ebp]
  00696	83 c1 18	 add	 ecx, 24			; 00000018H
  00699	8b 10		 mov	 edx, DWORD PTR [eax]
  0069b	89 11		 mov	 DWORD PTR [ecx], edx
  0069d	8b 50 04	 mov	 edx, DWORD PTR [eax+4]
  006a0	89 51 04	 mov	 DWORD PTR [ecx+4], edx
  006a3	8b 40 08	 mov	 eax, DWORD PTR [eax+8]
  006a6	89 41 08	 mov	 DWORD PTR [ecx+8], eax

; 1122 : 		else

  006a9	eb 2a		 jmp	 SHORT $L94149
$L94145:

; 1123 : 			pCamera->m_vUpVec = xVec3( 0, +1, 0 );

  006ab	6a 00		 push	 0
  006ad	68 00 00 80 3f	 push	 1065353216		; 3f800000H
  006b2	6a 00		 push	 0
  006b4	8d 8d 8c fc ff
	ff		 lea	 ecx, DWORD PTR $T94838[ebp]
  006ba	e8 00 00 00 00	 call	 ??0D3DXVECTOR3@@QAE@MMM@Z ; D3DXVECTOR3::D3DXVECTOR3
  006bf	8b 4d 0c	 mov	 ecx, DWORD PTR _pCamera$[ebp]
  006c2	83 c1 18	 add	 ecx, 24			; 00000018H
  006c5	8b 10		 mov	 edx, DWORD PTR [eax]
  006c7	89 11		 mov	 DWORD PTR [ecx], edx
  006c9	8b 50 04	 mov	 edx, DWORD PTR [eax+4]
  006cc	89 51 04	 mov	 DWORD PTR [ecx+4], edx
  006cf	8b 40 08	 mov	 eax, DWORD PTR [eax+8]
  006d2	89 41 08	 mov	 DWORD PTR [ecx+8], eax
$L94149:

; 1124 : 
; 1125 : 		pCamera->SetViewMatrix( pDev, FALSE/*TRUE*/ );

  006d5	6a 00		 push	 0
  006d7	8b 45 08	 mov	 eax, DWORD PTR _pDev$[ebp]
  006da	50		 push	 eax
  006db	8b 4d 0c	 mov	 ecx, DWORD PTR _pCamera$[ebp]
  006de	e8 00 00 00 00	 call	 ?SetViewMatrix@CCamera@@QAEHPAUIDirect3DDevice8@@H@Z ; CCamera::SetViewMatrix

; 1126 : 	}

  006e3	52		 push	 edx
  006e4	8b cd		 mov	 ecx, ebp
  006e6	50		 push	 eax
  006e7	8d 15 00 00 00
	00		 lea	 edx, DWORD PTR $L94847
  006ed	e8 00 00 00 00	 call	 @_RTC_CheckStackVars@8
  006f2	58		 pop	 eax
  006f3	5a		 pop	 edx
  006f4	5f		 pop	 edi
  006f5	5e		 pop	 esi
  006f6	5b		 pop	 ebx
  006f7	81 c4 78 03 00
	00		 add	 esp, 888		; 00000378H
  006fd	3b ec		 cmp	 ebp, esp
  006ff	e8 00 00 00 00	 call	 __RTC_CheckEsp
  00704	8b e5		 mov	 esp, ebp
  00706	5d		 pop	 ebp
  00707	c2 10 00	 ret	 16			; 00000010H
$L94847:
  0070a	01 00 00 00	 DD	 1
  0070e	00 00 00 00	 DD	 $L94846
$L94846:
  00712	e4 ff ff ff	 DD	 -28			; ffffffe4H
  00716	0c 00 00 00	 DD	 12			; 0000000cH
  0071a	00 00 00 00	 DD	 $L94845
$L94845:
  0071e	76		 DB	 118			; 00000076H
  0071f	58		 DB	 88			; 00000058H
  00720	00		 DB	 0
?ManageCamera@CFighter@@QAEXPAUIDirect3DDevice8@@PAVCCamera@@PAVCUserInput@@H@Z ENDP ; CFighter::ManageCamera
; Function compile flags: /Odt /RTCsu /ZI
; File c:\dxsdk\include\d3dx8math.inl
_TEXT	ENDS
;	COMDAT ??GD3DXVECTOR3@@QBE?AU0@ABU0@@Z
_TEXT	SEGMENT
_this$ = -8
___$ReturnUdt$ = 8
_v$ = 12
??GD3DXVECTOR3@@QBE?AU0@ABU0@@Z PROC NEAR		; D3DXVECTOR3::operator-, COMDAT
; _this$ = ecx

; 262  : {

  00000	55		 push	 ebp
  00001	8b ec		 mov	 ebp, esp
  00003	81 ec cc 00 00
	00		 sub	 esp, 204		; 000000ccH
  00009	53		 push	 ebx
  0000a	56		 push	 esi
  0000b	57		 push	 edi
  0000c	51		 push	 ecx
  0000d	8d bd 34 ff ff
	ff		 lea	 edi, DWORD PTR [ebp-204]
  00013	b9 33 00 00 00	 mov	 ecx, 51			; 00000033H
  00018	b8 cc cc cc cc	 mov	 eax, -858993460		; ccccccccH
  0001d	f3 ab		 rep stosd
  0001f	59		 pop	 ecx
  00020	89 4d f8	 mov	 DWORD PTR _this$[ebp], ecx

; 263  :     return D3DXVECTOR3(x - v.x, y - v.y, z - v.z);

  00023	8b 45 f8	 mov	 eax, DWORD PTR _this$[ebp]
  00026	8b 4d 0c	 mov	 ecx, DWORD PTR _v$[ebp]
  00029	d9 40 08	 fld	 DWORD PTR [eax+8]
  0002c	d8 61 08	 fsub	 DWORD PTR [ecx+8]
  0002f	51		 push	 ecx
  00030	d9 1c 24	 fstp	 DWORD PTR [esp]
  00033	8b 55 f8	 mov	 edx, DWORD PTR _this$[ebp]
  00036	8b 45 0c	 mov	 eax, DWORD PTR _v$[ebp]
  00039	d9 42 04	 fld	 DWORD PTR [edx+4]
  0003c	d8 60 04	 fsub	 DWORD PTR [eax+4]
  0003f	51		 push	 ecx
  00040	d9 1c 24	 fstp	 DWORD PTR [esp]
  00043	8b 4d f8	 mov	 ecx, DWORD PTR _this$[ebp]
  00046	8b 55 0c	 mov	 edx, DWORD PTR _v$[ebp]
  00049	d9 01		 fld	 DWORD PTR [ecx]
  0004b	d8 22		 fsub	 DWORD PTR [edx]
  0004d	51		 push	 ecx
  0004e	d9 1c 24	 fstp	 DWORD PTR [esp]
  00051	8b 4d 08	 mov	 ecx, DWORD PTR ___$ReturnUdt$[ebp]
  00054	e8 00 00 00 00	 call	 ??0D3DXVECTOR3@@QAE@MMM@Z ; D3DXVECTOR3::D3DXVECTOR3
  00059	8b 45 08	 mov	 eax, DWORD PTR ___$ReturnUdt$[ebp]

; 264  : }

  0005c	5f		 pop	 edi
  0005d	5e		 pop	 esi
  0005e	5b		 pop	 ebx
  0005f	81 c4 cc 00 00
	00		 add	 esp, 204		; 000000ccH
  00065	3b ec		 cmp	 ebp, esp
  00067	e8 00 00 00 00	 call	 __RTC_CheckEsp
  0006c	8b e5		 mov	 esp, ebp
  0006e	5d		 pop	 ebp
  0006f	c2 08 00	 ret	 8
??GD3DXVECTOR3@@QBE?AU0@ABU0@@Z ENDP			; D3DXVECTOR3::operator-
_TEXT	ENDS
PUBLIC	?PreFrameMove@CFighter@@QAEXPAVCRace@@@Z	; CFighter::PreFrameMove
; Function compile flags: /Odt /RTCsu /ZI
; File c:\documents and settings\dom\my documents\_dev\ae\xlr8a\x7g\cfighter.cpp
;	COMDAT ?PreFrameMove@CFighter@@QAEXPAVCRace@@@Z
_TEXT	SEGMENT
_this$ = -8
_pRace$ = 8
?PreFrameMove@CFighter@@QAEXPAVCRace@@@Z PROC NEAR	; CFighter::PreFrameMove, COMDAT
; _this$ = ecx

; 1134 : 	{

  00000	55		 push	 ebp
  00001	8b ec		 mov	 ebp, esp
  00003	81 ec cc 00 00
	00		 sub	 esp, 204		; 000000ccH
  00009	53		 push	 ebx
  0000a	56		 push	 esi
  0000b	57		 push	 edi
  0000c	51		 push	 ecx
  0000d	8d bd 34 ff ff
	ff		 lea	 edi, DWORD PTR [ebp-204]
  00013	b9 33 00 00 00	 mov	 ecx, 51			; 00000033H
  00018	b8 cc cc cc cc	 mov	 eax, -858993460		; ccccccccH
  0001d	f3 ab		 rep stosd
  0001f	59		 pop	 ecx
  00020	89 4d f8	 mov	 DWORD PTR _this$[ebp], ecx

; 1135 : 		//m_bShieldLevelChanged = FALSE ;
; 1136 : 	}

  00023	5f		 pop	 edi
  00024	5e		 pop	 esi
  00025	5b		 pop	 ebx
  00026	8b e5		 mov	 esp, ebp
  00028	5d		 pop	 ebp
  00029	c2 04 00	 ret	 4
?PreFrameMove@CFighter@@QAEXPAVCRace@@@Z ENDP		; CFighter::PreFrameMove
_TEXT	ENDS
PUBLIC	?StartExplosionEffect@CFighter@@QAEXPAVCRace@@@Z ; CFighter::StartExplosionEffect
PUBLIC	?FrameMove@CFighter@@QAEHPAUIDirect3DDevice8@@PAVCUserInput@@MPAVCCamera@@PAUD3DXMATRIX@@PAU_D3DVIEWPORT8@@HPAVCTerrain@@HMPAVCRace@@@Z ; CFighter::FrameMove
PUBLIC	__real@be4ccccd
PUBLIC	_fabsf
PUBLIC	??8D3DXVECTOR3@@QBEHABU0@@Z			; D3DXVECTOR3::operator==
EXTRN	?CulledFrameMove@CParticleSystem@@QAEHPAUD3DXVECTOR3@@@Z:NEAR ; CParticleSystem::CulledFrameMove
EXTRN	?GetBBoxVisibility@@YAHPAUIDirect3DDevice8@@ABUD3DXMATRIX@@1PAU_D3DVIEWPORT8@@ABUD3DXVECTOR3@@3@Z:NEAR ; GetBBoxVisibility
EXTRN	__ftol2:NEAR
EXTRN	?FrameMove@CExplosion@@QAEJPAUIDirect3DDevice8@@MPAUD3DXVECTOR3@@1@Z:NEAR ; CExplosion::FrameMove
;	COMDAT __real@be4ccccd
CONST	SEGMENT
__real@be4ccccd DD 0be4ccccdr			; -0.2
; Function compile flags: /Odt /RTCsu /ZI
CONST	ENDS
;	COMDAT ?FrameMove@CFighter@@QAEHPAUIDirect3DDevice8@@PAVCUserInput@@MPAVCCamera@@PAUD3DXMATRIX@@PAU_D3DVIEWPORT8@@HPAVCTerrain@@HMPAVCRace@@@Z
_TEXT	SEGMENT
$T94862 = -444
$T94861 = -424
$T94860 = -404
$T94859 = -384
$T94858 = -364
$T94857 = -344
$T94856 = -324
$T94855 = -304
$T94854 = -284
_vEmitterRotatedPos$94183 = -72
_vEmitterPos$94182 = -52
_i$94172 = -32
_ret$ = -20
_this$ = -8
_pDev$ = 8
_pInput$ = 12
_fFPS$ = 16
_pCamera$ = 20
_pmatProj$ = 24
_pVP$ = 28
_bManageCamera$ = 32
_pTerrain$ = 36
_ctCamMode$ = 40
_fElapsedTime$ = 44
_pRace$ = 48
?FrameMove@CFighter@@QAEHPAUIDirect3DDevice8@@PAVCUserInput@@MPAVCCamera@@PAUD3DXMATRIX@@PAU_D3DVIEWPORT8@@HPAVCTerrain@@HMPAVCRace@@@Z PROC NEAR ; CFighter::FrameMove, COMDAT
; _this$ = ecx

; 1149 : 	{

  00000	55		 push	 ebp
  00001	8b ec		 mov	 ebp, esp
  00003	81 ec c0 01 00
	00		 sub	 esp, 448		; 000001c0H
  00009	53		 push	 ebx
  0000a	56		 push	 esi
  0000b	57		 push	 edi
  0000c	51		 push	 ecx
  0000d	8d bd 40 fe ff
	ff		 lea	 edi, DWORD PTR [ebp-448]
  00013	b9 70 00 00 00	 mov	 ecx, 112		; 00000070H
  00018	b8 cc cc cc cc	 mov	 eax, -858993460		; ccccccccH
  0001d	f3 ab		 rep stosd
  0001f	59		 pop	 ecx
  00020	89 4d f8	 mov	 DWORD PTR _this$[ebp], ecx

; 1150 : 		int ret = 0 ;

  00023	c7 45 ec 00 00
	00 00		 mov	 DWORD PTR _ret$[ebp], 0

; 1151 : 
; 1152 : 	//
; 1153 : 	// Check for Death!
; 1154 : 	//
; 1155 : 		if( m_fShieldLevel == 0.0f && m_fsState == FS_NORMAL )

  0002a	8b 45 f8	 mov	 eax, DWORD PTR _this$[ebp]
  0002d	d9 80 08 03 00
	00		 fld	 DWORD PTR [eax+776]
  00033	d8 1d 00 00 00
	00		 fcomp	 DWORD PTR __real@00000000
  00039	df e0		 fnstsw	 ax
  0003b	f6 c4 44	 test	 ah, 68			; 00000044H
  0003e	7a 18		 jp	 SHORT $L94170
  00040	8b 45 f8	 mov	 eax, DWORD PTR _this$[ebp]
  00043	83 b8 a0 01 00
	00 00		 cmp	 DWORD PTR [eax+416], 0
  0004a	75 0c		 jne	 SHORT $L94170

; 1156 : 			StartExplosionEffect( pRace ) ;

  0004c	8b 45 30	 mov	 eax, DWORD PTR _pRace$[ebp]
  0004f	50		 push	 eax
  00050	8b 4d f8	 mov	 ecx, DWORD PTR _this$[ebp]
  00053	e8 00 00 00 00	 call	 ?StartExplosionEffect@CFighter@@QAEXPAVCRace@@@Z ; CFighter::StartExplosionEffect
$L94170:

; 1157 : 
; 1158 : 	//
; 1159 : 	// Weapons & Projectiles:
; 1160 : 	//
; 1161 : 		AnimateProjectiles( fFPS, fElapsedTime, pTerrain, pRace );

  00058	8b 45 30	 mov	 eax, DWORD PTR _pRace$[ebp]
  0005b	50		 push	 eax
  0005c	8b 4d 24	 mov	 ecx, DWORD PTR _pTerrain$[ebp]
  0005f	51		 push	 ecx
  00060	8b 55 2c	 mov	 edx, DWORD PTR _fElapsedTime$[ebp]
  00063	52		 push	 edx
  00064	8b 45 10	 mov	 eax, DWORD PTR _fFPS$[ebp]
  00067	50		 push	 eax
  00068	8b 4d f8	 mov	 ecx, DWORD PTR _this$[ebp]
  0006b	e8 00 00 00 00	 call	 ?AnimateProjectiles@CFighter@@QAEXMMPAVCTerrain@@PAVCRace@@@Z ; CFighter::AnimateProjectiles

; 1162 : 
; 1163 : 	//
; 1164 : 	// Contrail FX:
; 1165 : 	//
; 1166 : 		if( m_fsState == FS_NORMAL )

  00070	8b 45 f8	 mov	 eax, DWORD PTR _this$[ebp]
  00073	83 b8 a0 01 00
	00 00		 cmp	 DWORD PTR [eax+416], 0
  0007a	0f 85 b8 02 00
	00		 jne	 $L94171

; 1167 : 		{
; 1168 : 			for( int i=0; i<m_nContrailEmitters ; i++ )

  00080	c7 45 e0 00 00
	00 00		 mov	 DWORD PTR _i$94172[ebp], 0
  00087	eb 09		 jmp	 SHORT $L94173
$L94174:
  00089	8b 45 e0	 mov	 eax, DWORD PTR _i$94172[ebp]
  0008c	83 c0 01	 add	 eax, 1
  0008f	89 45 e0	 mov	 DWORD PTR _i$94172[ebp], eax
$L94173:
  00092	8b 45 f8	 mov	 eax, DWORD PTR _this$[ebp]
  00095	8b 4d e0	 mov	 ecx, DWORD PTR _i$94172[ebp]
  00098	3b 48 40	 cmp	 ecx, DWORD PTR [eax+64]
  0009b	0f 8d 97 02 00
	00		 jge	 $L94171

; 1169 : 				if( m_pPS_Contrails[ i ] )

  000a1	8b 45 e0	 mov	 eax, DWORD PTR _i$94172[ebp]
  000a4	8b 4d f8	 mov	 ecx, DWORD PTR _this$[ebp]
  000a7	83 7c 81 74 00	 cmp	 DWORD PTR [ecx+eax*4+116], 0
  000ac	0f 84 81 02 00
	00		 je	 $L94176

; 1170 : 				{
; 1171 : 					if( m_pPS_Contrails[ i ]->m_vMin == xVec3( 0,0,0 ) &&
; 1172 : 						m_pPS_Contrails[ i ]->m_vMax == xVec3( 0,0,0 ) )

  000b2	6a 00		 push	 0
  000b4	6a 00		 push	 0
  000b6	6a 00		 push	 0
  000b8	8d 8d e4 fe ff
	ff		 lea	 ecx, DWORD PTR $T94854[ebp]
  000be	e8 00 00 00 00	 call	 ??0D3DXVECTOR3@@QAE@MMM@Z ; D3DXVECTOR3::D3DXVECTOR3
  000c3	50		 push	 eax
  000c4	8b 45 e0	 mov	 eax, DWORD PTR _i$94172[ebp]
  000c7	8b 4d f8	 mov	 ecx, DWORD PTR _this$[ebp]
  000ca	8b 4c 81 74	 mov	 ecx, DWORD PTR [ecx+eax*4+116]
  000ce	83 c1 20	 add	 ecx, 32			; 00000020H
  000d1	e8 00 00 00 00	 call	 ??8D3DXVECTOR3@@QBEHABU0@@Z ; D3DXVECTOR3::operator==
  000d6	85 c0		 test	 eax, eax
  000d8	74 3b		 je	 SHORT $L94179
  000da	6a 00		 push	 0
  000dc	6a 00		 push	 0
  000de	6a 00		 push	 0
  000e0	8d 8d d0 fe ff
	ff		 lea	 ecx, DWORD PTR $T94855[ebp]
  000e6	e8 00 00 00 00	 call	 ??0D3DXVECTOR3@@QAE@MMM@Z ; D3DXVECTOR3::D3DXVECTOR3
  000eb	50		 push	 eax
  000ec	8b 45 e0	 mov	 eax, DWORD PTR _i$94172[ebp]
  000ef	8b 4d f8	 mov	 ecx, DWORD PTR _this$[ebp]
  000f2	8b 4c 81 74	 mov	 ecx, DWORD PTR [ecx+eax*4+116]
  000f6	83 c1 2c	 add	 ecx, 44			; 0000002cH
  000f9	e8 00 00 00 00	 call	 ??8D3DXVECTOR3@@QBEHABU0@@Z ; D3DXVECTOR3::operator==
  000fe	85 c0		 test	 eax, eax
  00100	74 13		 je	 SHORT $L94179

; 1173 : 						m_bContrailVisible[ i ] = TRUE ;

  00102	8b 45 e0	 mov	 eax, DWORD PTR _i$94172[ebp]
  00105	8b 4d f8	 mov	 ecx, DWORD PTR _this$[ebp]
  00108	c7 84 81 84 00
	00 00 01 00 00
	00		 mov	 DWORD PTR [ecx+eax*4+132], 1

; 1174 : 					else

  00113	eb 44		 jmp	 SHORT $L94180
$L94179:

; 1175 : 						m_bContrailVisible[ i ] = GetBBoxVisibility( pDev, *pmatProj, pCamera->m_matView, pVP,
; 1176 : 																	 m_pPS_Contrails[ i ]->m_vMin,
; 1177 : 																	 m_pPS_Contrails[ i ]->m_vMax );

  00115	8b 45 e0	 mov	 eax, DWORD PTR _i$94172[ebp]
  00118	8b 4d f8	 mov	 ecx, DWORD PTR _this$[ebp]
  0011b	8b 54 81 74	 mov	 edx, DWORD PTR [ecx+eax*4+116]
  0011f	83 c2 2c	 add	 edx, 44			; 0000002cH
  00122	52		 push	 edx
  00123	8b 45 e0	 mov	 eax, DWORD PTR _i$94172[ebp]
  00126	8b 4d f8	 mov	 ecx, DWORD PTR _this$[ebp]
  00129	8b 54 81 74	 mov	 edx, DWORD PTR [ecx+eax*4+116]
  0012d	83 c2 20	 add	 edx, 32			; 00000020H
  00130	52		 push	 edx
  00131	8b 45 1c	 mov	 eax, DWORD PTR _pVP$[ebp]
  00134	50		 push	 eax
  00135	8b 4d 14	 mov	 ecx, DWORD PTR _pCamera$[ebp]
  00138	83 c1 30	 add	 ecx, 48			; 00000030H
  0013b	51		 push	 ecx
  0013c	8b 55 18	 mov	 edx, DWORD PTR _pmatProj$[ebp]
  0013f	52		 push	 edx
  00140	8b 45 08	 mov	 eax, DWORD PTR _pDev$[ebp]
  00143	50		 push	 eax
  00144	e8 00 00 00 00	 call	 ?GetBBoxVisibility@@YAHPAUIDirect3DDevice8@@ABUD3DXMATRIX@@1PAU_D3DVIEWPORT8@@ABUD3DXVECTOR3@@3@Z ; GetBBoxVisibility
  00149	83 c4 18	 add	 esp, 24			; 00000018H
  0014c	8b 4d e0	 mov	 ecx, DWORD PTR _i$94172[ebp]
  0014f	8b 55 f8	 mov	 edx, DWORD PTR _this$[ebp]
  00152	89 84 8a 84 00
	00 00		 mov	 DWORD PTR [edx+ecx*4+132], eax
$L94180:

; 1178 : 
; 1179 : 					// HARD CODED, visiblity check disabled for time-being!
; 1180 : 					m_bContrailVisible[ i ] = TRUE ;

  00159	8b 45 e0	 mov	 eax, DWORD PTR _i$94172[ebp]
  0015c	8b 4d f8	 mov	 ecx, DWORD PTR _this$[ebp]
  0015f	c7 84 81 84 00
	00 00 01 00 00
	00		 mov	 DWORD PTR [ecx+eax*4+132], 1

; 1181 : 
; 1182 : 					if( m_bContrailVisible[ i ] )

  0016a	8b 45 e0	 mov	 eax, DWORD PTR _i$94172[ebp]
  0016d	8b 4d f8	 mov	 ecx, DWORD PTR _this$[ebp]
  00170	83 bc 81 84 00
	00 00 00	 cmp	 DWORD PTR [ecx+eax*4+132], 0
  00178	0f 84 7c 01 00
	00		 je	 $L94181

; 1183 : 					{
; 1184 : 					// derive emmision point, duly rotated as per the ship's orientation;
; 1185 : 						xVec3 vEmitterPos, vEmitterRotatedPos ;

  0017e	8d 4d cc	 lea	 ecx, DWORD PTR _vEmitterPos$94182[ebp]
  00181	e8 00 00 00 00	 call	 ??0D3DXVECTOR3@@QAE@XZ	; D3DXVECTOR3::D3DXVECTOR3
  00186	8d 4d b8	 lea	 ecx, DWORD PTR _vEmitterRotatedPos$94183[ebp]
  00189	e8 00 00 00 00	 call	 ??0D3DXVECTOR3@@QAE@XZ	; D3DXVECTOR3::D3DXVECTOR3

; 1186 : 						vEmitterPos = m_vPosition + m_vContrailEmitters[ i ] * m_pFRO->m_pRenderData->m_fBSphereRadius ;

  0018e	8b 45 f8	 mov	 eax, DWORD PTR _this$[ebp]
  00191	8b 48 2c	 mov	 ecx, DWORD PTR [eax+44]
  00194	8b 11		 mov	 edx, DWORD PTR [ecx]
  00196	8b 82 38 01 00
	00		 mov	 eax, DWORD PTR [edx+312]
  0019c	50		 push	 eax
  0019d	8d 8d bc fe ff
	ff		 lea	 ecx, DWORD PTR $T94856[ebp]
  001a3	51		 push	 ecx
  001a4	8b 55 e0	 mov	 edx, DWORD PTR _i$94172[ebp]
  001a7	6b d2 0c	 imul	 edx, 12			; 0000000cH
  001aa	8b 45 f8	 mov	 eax, DWORD PTR _this$[ebp]
  001ad	8d 4c 10 44	 lea	 ecx, DWORD PTR [eax+edx+68]
  001b1	e8 00 00 00 00	 call	 ??DD3DXVECTOR3@@QBE?AU0@M@Z ; D3DXVECTOR3::operator*
  001b6	50		 push	 eax
  001b7	8d 8d a8 fe ff
	ff		 lea	 ecx, DWORD PTR $T94857[ebp]
  001bd	51		 push	 ecx
  001be	8b 4d f8	 mov	 ecx, DWORD PTR _this$[ebp]
  001c1	81 c1 fc 01 00
	00		 add	 ecx, 508		; 000001fcH
  001c7	e8 00 00 00 00	 call	 ??HD3DXVECTOR3@@QBE?AU0@ABU0@@Z ; D3DXVECTOR3::operator+
  001cc	8b 10		 mov	 edx, DWORD PTR [eax]
  001ce	89 55 cc	 mov	 DWORD PTR _vEmitterPos$94182[ebp], edx
  001d1	8b 48 04	 mov	 ecx, DWORD PTR [eax+4]
  001d4	89 4d d0	 mov	 DWORD PTR _vEmitterPos$94182[ebp+4], ecx
  001d7	8b 50 08	 mov	 edx, DWORD PTR [eax+8]
  001da	89 55 d4	 mov	 DWORD PTR _vEmitterPos$94182[ebp+8], edx

; 1187 : 						GetFighterAbsPosFromRelative( &vEmitterPos, &vEmitterRotatedPos );

  001dd	8d 45 b8	 lea	 eax, DWORD PTR _vEmitterRotatedPos$94183[ebp]
  001e0	50		 push	 eax
  001e1	8d 4d cc	 lea	 ecx, DWORD PTR _vEmitterPos$94182[ebp]
  001e4	51		 push	 ecx
  001e5	8b 4d f8	 mov	 ecx, DWORD PTR _this$[ebp]
  001e8	e8 00 00 00 00	 call	 ?GetFighterAbsPosFromRelative@CFighter@@QAEHPAUD3DXVECTOR3@@0@Z ; CFighter::GetFighterAbsPosFromRelative

; 1188 : 
; 1189 : 					// advance particle system and bbox;
; 1190 : 						m_pPS_Contrails[ i ]->FrameMove( fFPS,
; 1191 : 														(xVec3*)&( (m_fSpeed * m_vDirectionOfTravel) ) ,
; 1192 : 														1.0f / fFPS,
; 1193 : 														(int)(20.0f * (60.0f/fFPS)),
; 1194 : 														g_Fighters[ m_Type ].fContrailParticleLifetime,
; 1195 : 														FALSE,
; 1196 : 														m_clrContrailEmitColour/*D3DXCOLOR( 0.25f, 0.25f, 0.75f, 0.1f )*/,
; 1197 : 														m_clrContrailFadeColour/*D3DXCOLOR( 1, 0, 0, 0.05f )*/,
; 1198 : 														(xVec3*)&( m_vOrientation * (-0.2f/fFPS) * (fabsf(m_fThrustMag) / m_fMaxThrustMag) ),
; 1199 : 														&vEmitterRotatedPos,
; 1200 : 														FALSE,
; 1201 : 														m_pFRO->m_pRenderData->m_fBSphereRadius / 8.0f * (1.0f/fFPS) * m_fContrailScatter,
; 1202 : 														TRUE );

  001ed	6a 01		 push	 1
  001ef	8b 45 f8	 mov	 eax, DWORD PTR _this$[ebp]
  001f2	8b 48 2c	 mov	 ecx, DWORD PTR [eax+44]
  001f5	8b 11		 mov	 edx, DWORD PTR [ecx]
  001f7	d9 82 38 01 00
	00		 fld	 DWORD PTR [edx+312]
  001fd	d8 35 00 00 00
	00		 fdiv	 DWORD PTR __real@41000000
  00203	d9 05 00 00 00
	00		 fld	 DWORD PTR __real@3f800000
  00209	d8 75 10	 fdiv	 DWORD PTR _fFPS$[ebp]
  0020c	de c9		 fmulp	 ST(1), ST(0)
  0020e	8b 45 f8	 mov	 eax, DWORD PTR _this$[ebp]
  00211	d8 88 b8 00 00
	00		 fmul	 DWORD PTR [eax+184]
  00217	51		 push	 ecx
  00218	d9 1c 24	 fstp	 DWORD PTR [esp]
  0021b	6a 00		 push	 0
  0021d	8d 4d b8	 lea	 ecx, DWORD PTR _vEmitterRotatedPos$94183[ebp]
  00220	51		 push	 ecx
  00221	8b 55 f8	 mov	 edx, DWORD PTR _this$[ebp]
  00224	8b 82 ac 01 00
	00		 mov	 eax, DWORD PTR [edx+428]
  0022a	50		 push	 eax
  0022b	e8 00 00 00 00	 call	 _fabsf
  00230	83 c4 04	 add	 esp, 4
  00233	8b 4d f8	 mov	 ecx, DWORD PTR _this$[ebp]
  00236	d8 b1 b4 01 00
	00		 fdiv	 DWORD PTR [ecx+436]
  0023c	51		 push	 ecx
  0023d	d9 1c 24	 fstp	 DWORD PTR [esp]
  00240	8d 95 80 fe ff
	ff		 lea	 edx, DWORD PTR $T94859[ebp]
  00246	52		 push	 edx
  00247	d9 05 00 00 00
	00		 fld	 DWORD PTR __real@be4ccccd
  0024d	d8 75 10	 fdiv	 DWORD PTR _fFPS$[ebp]
  00250	51		 push	 ecx
  00251	d9 1c 24	 fstp	 DWORD PTR [esp]
  00254	8d 85 94 fe ff
	ff		 lea	 eax, DWORD PTR $T94858[ebp]
  0025a	50		 push	 eax
  0025b	8b 4d f8	 mov	 ecx, DWORD PTR _this$[ebp]
  0025e	81 c1 c0 01 00
	00		 add	 ecx, 448		; 000001c0H
  00264	e8 00 00 00 00	 call	 ??DD3DXVECTOR3@@QBE?AU0@M@Z ; D3DXVECTOR3::operator*
  00269	8b c8		 mov	 ecx, eax
  0026b	e8 00 00 00 00	 call	 ??DD3DXVECTOR3@@QBE?AU0@M@Z ; D3DXVECTOR3::operator*
  00270	50		 push	 eax
  00271	8b 4d f8	 mov	 ecx, DWORD PTR _this$[ebp]
  00274	81 c1 a4 00 00
	00		 add	 ecx, 164		; 000000a4H
  0027a	51		 push	 ecx
  0027b	8b 55 f8	 mov	 edx, DWORD PTR _this$[ebp]
  0027e	81 c2 94 00 00
	00		 add	 edx, 148		; 00000094H
  00284	52		 push	 edx
  00285	6a 00		 push	 0
  00287	8b 45 f8	 mov	 eax, DWORD PTR _this$[ebp]
  0028a	8b 08		 mov	 ecx, DWORD PTR [eax]
  0028c	69 c9 84 01 00
	00		 imul	 ecx, 388		; 00000184H
  00292	8b 91 50 01 00
	00		 mov	 edx, DWORD PTR ?g_Fighters@@3PAUFIGHTER_TYPE_DETAILS@@A[ecx+336]
  00298	52		 push	 edx
  00299	d9 05 00 00 00
	00		 fld	 DWORD PTR __real@42700000
  0029f	d8 75 10	 fdiv	 DWORD PTR _fFPS$[ebp]
  002a2	d8 0d 00 00 00
	00		 fmul	 DWORD PTR __real@41a00000
  002a8	e8 00 00 00 00	 call	 __ftol2
  002ad	50		 push	 eax
  002ae	d9 05 00 00 00
	00		 fld	 DWORD PTR __real@3f800000
  002b4	d8 75 10	 fdiv	 DWORD PTR _fFPS$[ebp]
  002b7	51		 push	 ecx
  002b8	d9 1c 24	 fstp	 DWORD PTR [esp]
  002bb	8b 45 f8	 mov	 eax, DWORD PTR _this$[ebp]
  002be	05 d8 01 00 00	 add	 eax, 472		; 000001d8H
  002c3	50		 push	 eax
  002c4	8b 4d f8	 mov	 ecx, DWORD PTR _this$[ebp]
  002c7	8b 91 a4 01 00
	00		 mov	 edx, DWORD PTR [ecx+420]
  002cd	52		 push	 edx
  002ce	8d 85 6c fe ff
	ff		 lea	 eax, DWORD PTR $T94860[ebp]
  002d4	50		 push	 eax
  002d5	e8 00 00 00 00	 call	 ??D@YA?AUD3DXVECTOR3@@MABU0@@Z ; operator*
  002da	83 c4 0c	 add	 esp, 12			; 0000000cH
  002dd	50		 push	 eax
  002de	8b 4d 10	 mov	 ecx, DWORD PTR _fFPS$[ebp]
  002e1	51		 push	 ecx
  002e2	8b 55 e0	 mov	 edx, DWORD PTR _i$94172[ebp]
  002e5	8b 45 f8	 mov	 eax, DWORD PTR _this$[ebp]
  002e8	8b 4c 90 74	 mov	 ecx, DWORD PTR [eax+edx*4+116]
  002ec	e8 00 00 00 00	 call	 ?FrameMove@CParticleSystem@@QAEJMPAUD3DXVECTOR3@@MKMHABUD3DXCOLOR@@100HMH@Z ; CParticleSystem::FrameMove

; 1203 : 						ret = 1 ;

  002f1	c7 45 ec 01 00
	00 00		 mov	 DWORD PTR _ret$[ebp], 1

; 1204 : 					}
; 1205 : 					else

  002f8	eb 39		 jmp	 SHORT $L94176
$L94181:

; 1206 : 					{
; 1207 : 					// fast & cheap update of particles & bbox, no new emmisions or deaths;
; 1208 : 						m_pPS_Contrails[ i ]->CulledFrameMove( (xVec3*)&((m_fSpeed * m_vDirectionOfTravel)) ) ;

  002fa	8b 45 f8	 mov	 eax, DWORD PTR _this$[ebp]
  002fd	05 d8 01 00 00	 add	 eax, 472		; 000001d8H
  00302	50		 push	 eax
  00303	8b 4d f8	 mov	 ecx, DWORD PTR _this$[ebp]
  00306	8b 91 a4 01 00
	00		 mov	 edx, DWORD PTR [ecx+420]
  0030c	52		 push	 edx
  0030d	8d 85 58 fe ff
	ff		 lea	 eax, DWORD PTR $T94861[ebp]
  00313	50		 push	 eax
  00314	e8 00 00 00 00	 call	 ??D@YA?AUD3DXVECTOR3@@MABU0@@Z ; operator*
  00319	83 c4 0c	 add	 esp, 12			; 0000000cH
  0031c	50		 push	 eax
  0031d	8b 4d e0	 mov	 ecx, DWORD PTR _i$94172[ebp]
  00320	8b 55 f8	 mov	 edx, DWORD PTR _this$[ebp]
  00323	8b 4c 8a 74	 mov	 ecx, DWORD PTR [edx+ecx*4+116]
  00327	e8 00 00 00 00	 call	 ?CulledFrameMove@CParticleSystem@@QAEHPAUD3DXVECTOR3@@@Z ; CParticleSystem::CulledFrameMove

; 1209 : 						ret = 0 ;

  0032c	c7 45 ec 00 00
	00 00		 mov	 DWORD PTR _ret$[ebp], 0
$L94176:

; 1210 : 					}
; 1211 : 				}
; 1212 : 		}

  00333	e9 51 fd ff ff	 jmp	 $L94174
$L94171:

; 1213 : 
; 1214 : 	//
; 1215 : 	// Explosion FX:
; 1216 : 	//
; 1217 : 		if( m_fsState == FS_EXPLODING )

  00338	8b 45 f8	 mov	 eax, DWORD PTR _this$[ebp]
  0033b	83 b8 a0 01 00
	00 01		 cmp	 DWORD PTR [eax+416], 1
  00342	0f 85 8c 00 00
	00		 jne	 $L94195

; 1218 : 		{
; 1219 : 			m_fExpAge += ( 1.0f / fFPS );

  00348	d9 05 00 00 00
	00		 fld	 DWORD PTR __real@3f800000
  0034e	d8 75 10	 fdiv	 DWORD PTR _fFPS$[ebp]
  00351	8b 45 f8	 mov	 eax, DWORD PTR _this$[ebp]
  00354	d8 40 3c	 fadd	 DWORD PTR [eax+60]
  00357	8b 4d f8	 mov	 ecx, DWORD PTR _this$[ebp]
  0035a	d9 59 3c	 fstp	 DWORD PTR [ecx+60]

; 1220 : 
; 1221 : 		// advance animation to next frame
; 1222 : 			m_pExp->FrameMove( pDev, fFPS, (xVec3*)&(m_fSpeed * m_vDirectionOfTravel), &m_vPosition );

  0035d	8b 45 f8	 mov	 eax, DWORD PTR _this$[ebp]
  00360	05 fc 01 00 00	 add	 eax, 508		; 000001fcH
  00365	50		 push	 eax
  00366	8b 4d f8	 mov	 ecx, DWORD PTR _this$[ebp]
  00369	81 c1 d8 01 00
	00		 add	 ecx, 472		; 000001d8H
  0036f	51		 push	 ecx
  00370	8b 55 f8	 mov	 edx, DWORD PTR _this$[ebp]
  00373	8b 82 a4 01 00
	00		 mov	 eax, DWORD PTR [edx+420]
  00379	50		 push	 eax
  0037a	8d 8d 44 fe ff
	ff		 lea	 ecx, DWORD PTR $T94862[ebp]
  00380	51		 push	 ecx
  00381	e8 00 00 00 00	 call	 ??D@YA?AUD3DXVECTOR3@@MABU0@@Z ; operator*
  00386	83 c4 0c	 add	 esp, 12			; 0000000cH
  00389	50		 push	 eax
  0038a	8b 55 10	 mov	 edx, DWORD PTR _fFPS$[ebp]
  0038d	52		 push	 edx
  0038e	8b 45 08	 mov	 eax, DWORD PTR _pDev$[ebp]
  00391	50		 push	 eax
  00392	8b 4d f8	 mov	 ecx, DWORD PTR _this$[ebp]
  00395	8b 49 34	 mov	 ecx, DWORD PTR [ecx+52]
  00398	e8 00 00 00 00	 call	 ?FrameMove@CExplosion@@QAEJPAUIDirect3DDevice8@@MPAUD3DXVECTOR3@@1@Z ; CExplosion::FrameMove

; 1223 : 
; 1224 : 		// finish explosion FX
; 1225 : 			if( m_fExpAge >= m_fExpLifespan )

  0039d	8b 45 f8	 mov	 eax, DWORD PTR _this$[ebp]
  003a0	8b 4d f8	 mov	 ecx, DWORD PTR _this$[ebp]
  003a3	d9 40 3c	 fld	 DWORD PTR [eax+60]
  003a6	d8 59 38	 fcomp	 DWORD PTR [ecx+56]
  003a9	df e0		 fnstsw	 ax
  003ab	f6 c4 01	 test	 ah, 1
  003ae	75 24		 jne	 SHORT $L94195

; 1226 : 			{
; 1227 : 				m_fsState = FS_NORMAL ;

  003b0	8b 45 f8	 mov	 eax, DWORD PTR _this$[ebp]
  003b3	c7 80 a0 01 00
	00 00 00 00 00	 mov	 DWORD PTR [eax+416], 0

; 1228 : 				m_fExpAge = 0.0f ;

  003bd	8b 45 f8	 mov	 eax, DWORD PTR _this$[ebp]
  003c0	c7 40 3c 00 00
	00 00		 mov	 DWORD PTR [eax+60], 0

; 1229 : 				m_bJustFinishedExploding = TRUE ;

  003c7	8b 45 f8	 mov	 eax, DWORD PTR _this$[ebp]
  003ca	c7 80 18 03 00
	00 01 00 00 00	 mov	 DWORD PTR [eax+792], 1
$L94195:

; 1230 : 			}
; 1231 : 		}
; 1232 : 
; 1233 : 	//
; 1234 : 	// Camera:
; 1235 : 	//
; 1236 : 		if( bManageCamera )

  003d4	83 7d 20 00	 cmp	 DWORD PTR _bManageCamera$[ebp], 0
  003d8	74 18		 je	 SHORT $L94199

; 1237 : 		{
; 1238 : 			ManageCamera( pDev, pCamera, pInput, ctCamMode );

  003da	8b 45 28	 mov	 eax, DWORD PTR _ctCamMode$[ebp]
  003dd	50		 push	 eax
  003de	8b 4d 0c	 mov	 ecx, DWORD PTR _pInput$[ebp]
  003e1	51		 push	 ecx
  003e2	8b 55 14	 mov	 edx, DWORD PTR _pCamera$[ebp]
  003e5	52		 push	 edx
  003e6	8b 45 08	 mov	 eax, DWORD PTR _pDev$[ebp]
  003e9	50		 push	 eax
  003ea	8b 4d f8	 mov	 ecx, DWORD PTR _this$[ebp]
  003ed	e8 00 00 00 00	 call	 ?ManageCamera@CFighter@@QAEXPAUIDirect3DDevice8@@PAVCCamera@@PAVCUserInput@@H@Z ; CFighter::ManageCamera
$L94199:

; 1239 : 		}
; 1240 : 
; 1241 : 		return ret ;

  003f2	8b 45 ec	 mov	 eax, DWORD PTR _ret$[ebp]

; 1242 : 	}

  003f5	52		 push	 edx
  003f6	8b cd		 mov	 ecx, ebp
  003f8	50		 push	 eax
  003f9	8d 15 00 00 00
	00		 lea	 edx, DWORD PTR $L94869
  003ff	e8 00 00 00 00	 call	 @_RTC_CheckStackVars@8
  00404	58		 pop	 eax
  00405	5a		 pop	 edx
  00406	5f		 pop	 edi
  00407	5e		 pop	 esi
  00408	5b		 pop	 ebx
  00409	81 c4 c0 01 00
	00		 add	 esp, 448		; 000001c0H
  0040f	3b ec		 cmp	 ebp, esp
  00411	e8 00 00 00 00	 call	 __RTC_CheckEsp
  00416	8b e5		 mov	 esp, ebp
  00418	5d		 pop	 ebp
  00419	c2 2c 00	 ret	 44			; 0000002cH
$L94869:
  0041c	02 00 00 00	 DD	 2
  00420	00 00 00 00	 DD	 $L94868
$L94868:
  00424	cc ff ff ff	 DD	 -52			; ffffffccH
  00428	0c 00 00 00	 DD	 12			; 0000000cH
  0042c	00 00 00 00	 DD	 $L94866
  00430	b8 ff ff ff	 DD	 -72			; ffffffb8H
  00434	0c 00 00 00	 DD	 12			; 0000000cH
  00438	00 00 00 00	 DD	 $L94867
$L94867:
  0043c	76		 DB	 118			; 00000076H
  0043d	45		 DB	 69			; 00000045H
  0043e	6d		 DB	 109			; 0000006dH
  0043f	69		 DB	 105			; 00000069H
  00440	74		 DB	 116			; 00000074H
  00441	74		 DB	 116			; 00000074H
  00442	65		 DB	 101			; 00000065H
  00443	72		 DB	 114			; 00000072H
  00444	52		 DB	 82			; 00000052H
  00445	6f		 DB	 111			; 0000006fH
  00446	74		 DB	 116			; 00000074H
  00447	61		 DB	 97			; 00000061H
  00448	74		 DB	 116			; 00000074H
  00449	65		 DB	 101			; 00000065H
  0044a	64		 DB	 100			; 00000064H
  0044b	50		 DB	 80			; 00000050H
  0044c	6f		 DB	 111			; 0000006fH
  0044d	73		 DB	 115			; 00000073H
  0044e	00		 DB	 0
$L94866:
  0044f	76		 DB	 118			; 00000076H
  00450	45		 DB	 69			; 00000045H
  00451	6d		 DB	 109			; 0000006dH
  00452	69		 DB	 105			; 00000069H
  00453	74		 DB	 116			; 00000074H
  00454	74		 DB	 116			; 00000074H
  00455	65		 DB	 101			; 00000065H
  00456	72		 DB	 114			; 00000072H
  00457	50		 DB	 80			; 00000050H
  00458	6f		 DB	 111			; 0000006fH
  00459	73		 DB	 115			; 00000073H
  0045a	00		 DB	 0
?FrameMove@CFighter@@QAEHPAUIDirect3DDevice8@@PAVCUserInput@@MPAVCCamera@@PAUD3DXMATRIX@@PAU_D3DVIEWPORT8@@HPAVCTerrain@@HMPAVCRace@@@Z ENDP ; CFighter::FrameMove
_TEXT	ENDS
EXTRN	_fabs:NEAR
; Function compile flags: /Odt /RTCsu /ZI
; File c:\program files\microsoft visual studio .net\vc7\include\math.h
;	COMDAT _fabsf
_TEXT	SEGMENT
tv70 = -196
__X$ = 8
_fabsf	PROC NEAR					; COMDAT

; 450  :         {return ((float)fabs((double)_X)); }

  00000	55		 push	 ebp
  00001	8b ec		 mov	 ebp, esp
  00003	81 ec c4 00 00
	00		 sub	 esp, 196		; 000000c4H
  00009	53		 push	 ebx
  0000a	56		 push	 esi
  0000b	57		 push	 edi
  0000c	8d bd 3c ff ff
	ff		 lea	 edi, DWORD PTR [ebp-196]
  00012	b9 31 00 00 00	 mov	 ecx, 49			; 00000031H
  00017	b8 cc cc cc cc	 mov	 eax, -858993460		; ccccccccH
  0001c	f3 ab		 rep stosd
  0001e	d9 45 08	 fld	 DWORD PTR __X$[ebp]
  00021	83 ec 08	 sub	 esp, 8
  00024	dd 1c 24	 fstp	 QWORD PTR [esp]
  00027	e8 00 00 00 00	 call	 _fabs
  0002c	83 c4 08	 add	 esp, 8
  0002f	d9 95 3c ff ff
	ff		 fst	 DWORD PTR tv70[ebp]
  00035	5f		 pop	 edi
  00036	5e		 pop	 esi
  00037	5b		 pop	 ebx
  00038	81 c4 c4 00 00
	00		 add	 esp, 196		; 000000c4H
  0003e	3b ec		 cmp	 ebp, esp
  00040	e8 00 00 00 00	 call	 __RTC_CheckEsp
  00045	8b e5		 mov	 esp, ebp
  00047	5d		 pop	 ebp
  00048	c3		 ret	 0
_fabsf	ENDP
; Function compile flags: /Odt /RTCsu /ZI
; File c:\dxsdk\include\d3dx8math.inl
_TEXT	ENDS
;	COMDAT ??8D3DXVECTOR3@@QBEHABU0@@Z
_TEXT	SEGMENT
tv71 = -208
_this$ = -8
_v$ = 8
??8D3DXVECTOR3@@QBEHABU0@@Z PROC NEAR			; D3DXVECTOR3::operator==, COMDAT
; _this$ = ecx

; 289  : {

  00000	55		 push	 ebp
  00001	8b ec		 mov	 ebp, esp
  00003	81 ec d0 00 00
	00		 sub	 esp, 208		; 000000d0H
  00009	53		 push	 ebx
  0000a	56		 push	 esi
  0000b	57		 push	 edi
  0000c	51		 push	 ecx
  0000d	8d bd 30 ff ff
	ff		 lea	 edi, DWORD PTR [ebp-208]
  00013	b9 34 00 00 00	 mov	 ecx, 52			; 00000034H
  00018	b8 cc cc cc cc	 mov	 eax, -858993460		; ccccccccH
  0001d	f3 ab		 rep stosd
  0001f	59		 pop	 ecx
  00020	89 4d f8	 mov	 DWORD PTR _this$[ebp], ecx

; 290  :     return x == v.x && y == v.y && z == v.z;

  00023	8b 45 f8	 mov	 eax, DWORD PTR _this$[ebp]
  00026	8b 4d 08	 mov	 ecx, DWORD PTR _v$[ebp]
  00029	d9 00		 fld	 DWORD PTR [eax]
  0002b	d8 19		 fcomp	 DWORD PTR [ecx]
  0002d	df e0		 fnstsw	 ax
  0002f	f6 c4 44	 test	 ah, 68			; 00000044H
  00032	7a 32		 jp	 SHORT $L94874
  00034	8b 55 f8	 mov	 edx, DWORD PTR _this$[ebp]
  00037	8b 45 08	 mov	 eax, DWORD PTR _v$[ebp]
  0003a	d9 42 04	 fld	 DWORD PTR [edx+4]
  0003d	d8 58 04	 fcomp	 DWORD PTR [eax+4]
  00040	df e0		 fnstsw	 ax
  00042	f6 c4 44	 test	 ah, 68			; 00000044H
  00045	7a 1f		 jp	 SHORT $L94874
  00047	8b 4d f8	 mov	 ecx, DWORD PTR _this$[ebp]
  0004a	8b 55 08	 mov	 edx, DWORD PTR _v$[ebp]
  0004d	d9 41 08	 fld	 DWORD PTR [ecx+8]
  00050	d8 5a 08	 fcomp	 DWORD PTR [edx+8]
  00053	df e0		 fnstsw	 ax
  00055	f6 c4 44	 test	 ah, 68			; 00000044H
  00058	7a 0c		 jp	 SHORT $L94874
  0005a	c7 85 30 ff ff
	ff 01 00 00 00	 mov	 DWORD PTR tv71[ebp], 1
  00064	eb 0a		 jmp	 SHORT $L94875
$L94874:
  00066	c7 85 30 ff ff
	ff 00 00 00 00	 mov	 DWORD PTR tv71[ebp], 0
$L94875:
  00070	8b 85 30 ff ff
	ff		 mov	 eax, DWORD PTR tv71[ebp]

; 291  : }

  00076	5f		 pop	 edi
  00077	5e		 pop	 esi
  00078	5b		 pop	 ebx
  00079	8b e5		 mov	 esp, ebp
  0007b	5d		 pop	 ebp
  0007c	c2 04 00	 ret	 4
??8D3DXVECTOR3@@QBEHABU0@@Z ENDP			; D3DXVECTOR3::operator==
_TEXT	ENDS
PUBLIC	??_C@_0CA@FBEECCKO@CFighter?3?3RestoreDeviceObjects?6?$AA@ ; `string'
PUBLIC	?RestoreDeviceObjects@CFighter@@QAEJPAUIDirect3D8@@PAUIDirect3DDevice8@@PAVCScreenOverlayManager@@PAVCTextures@@M@Z ; CFighter::RestoreDeviceObjects
EXTRN	?RestoreDeviceObjects@CFileRenderObject@@QAEJPAUIDirect3D8@@PAUIDirect3DDevice8@@@Z:NEAR ; CFileRenderObject::RestoreDeviceObjects
EXTRN	?RestoreDeviceObjects@CExplosion@@QAEJPAUIDirect3DDevice8@@@Z:NEAR ; CExplosion::RestoreDeviceObjects
;	COMDAT ??_C@_0CA@FBEECCKO@CFighter?3?3RestoreDeviceObjects?6?$AA@
; File c:\documents and settings\dom\my documents\_dev\ae\xlr8a\x7g\cfighter.cpp
CONST	SEGMENT
??_C@_0CA@FBEECCKO@CFighter?3?3RestoreDeviceObjects?6?$AA@ DB 'CFighter::'
	DB	'RestoreDeviceObjects', 0aH, 00H		; `string'
; Function compile flags: /Odt /RTCsu /ZI
CONST	ENDS
;	COMDAT ?RestoreDeviceObjects@CFighter@@QAEJPAUIDirect3D8@@PAUIDirect3DDevice8@@PAVCScreenOverlayManager@@PAVCTextures@@M@Z
_TEXT	SEGMENT
_pProjectile$ = -20
_this$ = -8
_pD3D$ = 8
_pDev$ = 12
_pOM$ = 16
_pTex$ = 20
_fAspect$ = 24
?RestoreDeviceObjects@CFighter@@QAEJPAUIDirect3D8@@PAUIDirect3DDevice8@@PAVCScreenOverlayManager@@PAVCTextures@@M@Z PROC NEAR ; CFighter::RestoreDeviceObjects, COMDAT
; _this$ = ecx

; 1244 : 	{

  00000	55		 push	 ebp
  00001	8b ec		 mov	 ebp, esp
  00003	81 ec d8 00 00
	00		 sub	 esp, 216		; 000000d8H
  00009	53		 push	 ebx
  0000a	56		 push	 esi
  0000b	57		 push	 edi
  0000c	51		 push	 ecx
  0000d	8d bd 28 ff ff
	ff		 lea	 edi, DWORD PTR [ebp-216]
  00013	b9 36 00 00 00	 mov	 ecx, 54			; 00000036H
  00018	b8 cc cc cc cc	 mov	 eax, -858993460		; ccccccccH
  0001d	f3 ab		 rep stosd
  0001f	59		 pop	 ecx
  00020	89 4d f8	 mov	 DWORD PTR _this$[ebp], ecx

; 1245 : 		ods( "CFighter::RestoreDeviceObjects\n" );

  00023	68 00 00 00 00	 push	 OFFSET FLAT:??_C@_0CA@FBEECCKO@CFighter?3?3RestoreDeviceObjects?6?$AA@
  00028	e8 00 00 00 00	 call	 ?ods@@YAXPADZZ		; ods
  0002d	83 c4 04	 add	 esp, 4

; 1246 : 
; 1247 : 		m_pFRO->RestoreDeviceObjects( pD3D, pDev );

  00030	8b 45 0c	 mov	 eax, DWORD PTR _pDev$[ebp]
  00033	50		 push	 eax
  00034	8b 4d 08	 mov	 ecx, DWORD PTR _pD3D$[ebp]
  00037	51		 push	 ecx
  00038	8b 55 f8	 mov	 edx, DWORD PTR _this$[ebp]
  0003b	8b 4a 2c	 mov	 ecx, DWORD PTR [edx+44]
  0003e	e8 00 00 00 00	 call	 ?RestoreDeviceObjects@CFileRenderObject@@QAEJPAUIDirect3D8@@PAUIDirect3DDevice8@@@Z ; CFileRenderObject::RestoreDeviceObjects

; 1248 : 		m_pExp->RestoreDeviceObjects( pDev );

  00043	8b 45 0c	 mov	 eax, DWORD PTR _pDev$[ebp]
  00046	50		 push	 eax
  00047	8b 4d f8	 mov	 ecx, DWORD PTR _this$[ebp]
  0004a	8b 49 34	 mov	 ecx, DWORD PTR [ecx+52]
  0004d	e8 00 00 00 00	 call	 ?RestoreDeviceObjects@CExplosion@@QAEJPAUIDirect3DDevice8@@@Z ; CExplosion::RestoreDeviceObjects

; 1249 : 
; 1250 : 		FIGHTER_PROJECTILE* pProjectile ;
; 1251 : 		pProjectile = m_pProjectiles ;

  00052	8b 45 f8	 mov	 eax, DWORD PTR _this$[ebp]
  00055	8b 88 8c 01 00
	00		 mov	 ecx, DWORD PTR [eax+396]
  0005b	89 4d ec	 mov	 DWORD PTR _pProjectile$[ebp], ecx
$L94211:

; 1252 : 		while( pProjectile )

  0005e	83 7d ec 00	 cmp	 DWORD PTR _pProjectile$[ebp], 0
  00062	74 1d		 je	 SHORT $L94212

; 1253 : 		{
; 1254 : 			pProjectile->pBBox->RestoreDeviceObjects( pDev );

  00064	8b 45 0c	 mov	 eax, DWORD PTR _pDev$[ebp]
  00067	50		 push	 eax
  00068	8b 4d ec	 mov	 ecx, DWORD PTR _pProjectile$[ebp]
  0006b	8b 49 3c	 mov	 ecx, DWORD PTR [ecx+60]
  0006e	e8 00 00 00 00	 call	 ?RestoreDeviceObjects@CBoundingBox@@QAEJPAUIDirect3DDevice8@@@Z ; CBoundingBox::RestoreDeviceObjects

; 1255 : 			pProjectile = pProjectile->pNext ;

  00073	8b 45 ec	 mov	 eax, DWORD PTR _pProjectile$[ebp]
  00076	8b 88 ac 00 00
	00		 mov	 ecx, DWORD PTR [eax+172]
  0007c	89 4d ec	 mov	 DWORD PTR _pProjectile$[ebp], ecx

; 1256 : 		}

  0007f	eb dd		 jmp	 SHORT $L94211
$L94212:

; 1257 : 
; 1258 : 		return S_OK ;

  00081	33 c0		 xor	 eax, eax

; 1259 : 	}

  00083	5f		 pop	 edi
  00084	5e		 pop	 esi
  00085	5b		 pop	 ebx
  00086	81 c4 d8 00 00
	00		 add	 esp, 216		; 000000d8H
  0008c	3b ec		 cmp	 ebp, esp
  0008e	e8 00 00 00 00	 call	 __RTC_CheckEsp
  00093	8b e5		 mov	 esp, ebp
  00095	5d		 pop	 ebp
  00096	c2 14 00	 ret	 20			; 00000014H
?RestoreDeviceObjects@CFighter@@QAEJPAUIDirect3D8@@PAUIDirect3DDevice8@@PAVCScreenOverlayManager@@PAVCTextures@@M@Z ENDP ; CFighter::RestoreDeviceObjects
_TEXT	ENDS
PUBLIC	?InvalidateDeviceObjects@CFighter@@QAEJPAUIDirect3DDevice8@@@Z ; CFighter::InvalidateDeviceObjects
EXTRN	?InvalidateDeviceObjects@CFileRenderObject@@QAEJPAUIDirect3DDevice8@@@Z:NEAR ; CFileRenderObject::InvalidateDeviceObjects
EXTRN	?InvalidateDeviceObjects@CExplosion@@QAEJXZ:NEAR ; CExplosion::InvalidateDeviceObjects
; Function compile flags: /Odt /RTCsu /ZI
;	COMDAT ?InvalidateDeviceObjects@CFighter@@QAEJPAUIDirect3DDevice8@@@Z
_TEXT	SEGMENT
_pProjectile$ = -20
_this$ = -8
_pDev$ = 8
?InvalidateDeviceObjects@CFighter@@QAEJPAUIDirect3DDevice8@@@Z PROC NEAR ; CFighter::InvalidateDeviceObjects, COMDAT
; _this$ = ecx

; 1261 : 	{

  00000	55		 push	 ebp
  00001	8b ec		 mov	 ebp, esp
  00003	81 ec d8 00 00
	00		 sub	 esp, 216		; 000000d8H
  00009	53		 push	 ebx
  0000a	56		 push	 esi
  0000b	57		 push	 edi
  0000c	51		 push	 ecx
  0000d	8d bd 28 ff ff
	ff		 lea	 edi, DWORD PTR [ebp-216]
  00013	b9 36 00 00 00	 mov	 ecx, 54			; 00000036H
  00018	b8 cc cc cc cc	 mov	 eax, -858993460		; ccccccccH
  0001d	f3 ab		 rep stosd
  0001f	59		 pop	 ecx
  00020	89 4d f8	 mov	 DWORD PTR _this$[ebp], ecx

; 1262 : 		m_pFRO->InvalidateDeviceObjects( pDev );

  00023	8b 45 08	 mov	 eax, DWORD PTR _pDev$[ebp]
  00026	50		 push	 eax
  00027	8b 4d f8	 mov	 ecx, DWORD PTR _this$[ebp]
  0002a	8b 49 2c	 mov	 ecx, DWORD PTR [ecx+44]
  0002d	e8 00 00 00 00	 call	 ?InvalidateDeviceObjects@CFileRenderObject@@QAEJPAUIDirect3DDevice8@@@Z ; CFileRenderObject::InvalidateDeviceObjects

; 1263 : 		m_pExp->InvalidateDeviceObjects() ;

  00032	8b 45 f8	 mov	 eax, DWORD PTR _this$[ebp]
  00035	8b 48 34	 mov	 ecx, DWORD PTR [eax+52]
  00038	e8 00 00 00 00	 call	 ?InvalidateDeviceObjects@CExplosion@@QAEJXZ ; CExplosion::InvalidateDeviceObjects

; 1264 : 
; 1265 : 		FIGHTER_PROJECTILE* pProjectile ;
; 1266 : 		pProjectile = m_pProjectiles ;

  0003d	8b 45 f8	 mov	 eax, DWORD PTR _this$[ebp]
  00040	8b 88 8c 01 00
	00		 mov	 ecx, DWORD PTR [eax+396]
  00046	89 4d ec	 mov	 DWORD PTR _pProjectile$[ebp], ecx
$L94220:

; 1267 : 		while( pProjectile )

  00049	83 7d ec 00	 cmp	 DWORD PTR _pProjectile$[ebp], 0
  0004d	74 19		 je	 SHORT $L94221

; 1268 : 		{
; 1269 : 			pProjectile->pBBox->InvalidateDeviceObjects() ;

  0004f	8b 45 ec	 mov	 eax, DWORD PTR _pProjectile$[ebp]
  00052	8b 48 3c	 mov	 ecx, DWORD PTR [eax+60]
  00055	e8 00 00 00 00	 call	 ?InvalidateDeviceObjects@CBoundingBox@@QAEJXZ ; CBoundingBox::InvalidateDeviceObjects

; 1270 : 			pProjectile = pProjectile->pNext ;

  0005a	8b 45 ec	 mov	 eax, DWORD PTR _pProjectile$[ebp]
  0005d	8b 88 ac 00 00
	00		 mov	 ecx, DWORD PTR [eax+172]
  00063	89 4d ec	 mov	 DWORD PTR _pProjectile$[ebp], ecx

; 1271 : 		}

  00066	eb e1		 jmp	 SHORT $L94220
$L94221:

; 1272 : 
; 1273 : 		return S_OK ;

  00068	33 c0		 xor	 eax, eax

; 1274 : 	}

  0006a	5f		 pop	 edi
  0006b	5e		 pop	 esi
  0006c	5b		 pop	 ebx
  0006d	81 c4 d8 00 00
	00		 add	 esp, 216		; 000000d8H
  00073	3b ec		 cmp	 ebp, esp
  00075	e8 00 00 00 00	 call	 __RTC_CheckEsp
  0007a	8b e5		 mov	 esp, ebp
  0007c	5d		 pop	 ebp
  0007d	c2 04 00	 ret	 4
?InvalidateDeviceObjects@CFighter@@QAEJPAUIDirect3DDevice8@@@Z ENDP ; CFighter::InvalidateDeviceObjects
_TEXT	ENDS
PUBLIC	?Respawn@CFighter@@QAEXPAVCTerrain@@@Z		; CFighter::Respawn
; Function compile flags: /Odt /RTCsu /ZI
;	COMDAT ?Respawn@CFighter@@QAEXPAVCTerrain@@@Z
_TEXT	SEGMENT
$T94884 = -272
$T94883 = -252
$T94882 = -232
_i$94228 = -20
_this$ = -8
_pTerrain$ = 8
?Respawn@CFighter@@QAEXPAVCTerrain@@@Z PROC NEAR	; CFighter::Respawn, COMDAT
; _this$ = ecx

; 1276 : 	{

  00000	55		 push	 ebp
  00001	8b ec		 mov	 ebp, esp
  00003	81 ec 14 01 00
	00		 sub	 esp, 276		; 00000114H
  00009	53		 push	 ebx
  0000a	56		 push	 esi
  0000b	57		 push	 edi
  0000c	51		 push	 ecx
  0000d	8d bd ec fe ff
	ff		 lea	 edi, DWORD PTR [ebp-276]
  00013	b9 45 00 00 00	 mov	 ecx, 69			; 00000045H
  00018	b8 cc cc cc cc	 mov	 eax, -858993460		; ccccccccH
  0001d	f3 ab		 rep stosd
  0001f	59		 pop	 ecx
  00020	89 4d f8	 mov	 DWORD PTR _this$[ebp], ecx

; 1277 : 		m_fShieldLevel = 1 ;

  00023	8b 45 f8	 mov	 eax, DWORD PTR _this$[ebp]
  00026	c7 80 08 03 00
	00 00 00 80 3f	 mov	 DWORD PTR [eax+776], 1065353216 ; 3f800000H

; 1278 : 		m_bShieldLevelChanged = TRUE ;

  00030	8b 45 f8	 mov	 eax, DWORD PTR _this$[ebp]
  00033	c7 80 14 03 00
	00 01 00 00 00	 mov	 DWORD PTR [eax+788], 1

; 1279 : 
; 1280 : 	// reset stuff;
; 1281 : 		/*int n = (int)((float)(pTerrain->m_nSpawnPos-1) * rnd()) ;
; 1282 : 		SetPositionFromValues(pTerrain->m_vSpawnPos[ n ].x,
; 1283 : 							  pTerrain->m_vSpawnPos[ n ].y + m_pFRO->m_pRenderData->m_fBSphereRadius * 2.0f,
; 1284 : 							  pTerrain->m_vSpawnPos[ n ].z );*/
; 1285 : 
; 1286 : 		m_vExternalForce = xVec3( 0,0,0 );

  0003d	6a 00		 push	 0
  0003f	6a 00		 push	 0
  00041	6a 00		 push	 0
  00043	8d 8d 18 ff ff
	ff		 lea	 ecx, DWORD PTR $T94882[ebp]
  00049	e8 00 00 00 00	 call	 ??0D3DXVECTOR3@@QAE@MMM@Z ; D3DXVECTOR3::D3DXVECTOR3
  0004e	8b 4d f8	 mov	 ecx, DWORD PTR _this$[ebp]
  00051	81 c1 08 02 00
	00		 add	 ecx, 520		; 00000208H
  00057	8b 10		 mov	 edx, DWORD PTR [eax]
  00059	89 11		 mov	 DWORD PTR [ecx], edx
  0005b	8b 50 04	 mov	 edx, DWORD PTR [eax+4]
  0005e	89 51 04	 mov	 DWORD PTR [ecx+4], edx
  00061	8b 40 08	 mov	 eax, DWORD PTR [eax+8]
  00064	89 41 08	 mov	 DWORD PTR [ecx+8], eax

; 1287 : 
; 1288 : 		for( int i=0; i<m_nContrailEmitters ; i++ )

  00067	c7 45 ec 00 00
	00 00		 mov	 DWORD PTR _i$94228[ebp], 0
  0006e	eb 09		 jmp	 SHORT $L94229
$L94230:
  00070	8b 45 ec	 mov	 eax, DWORD PTR _i$94228[ebp]
  00073	83 c0 01	 add	 eax, 1
  00076	89 45 ec	 mov	 DWORD PTR _i$94228[ebp], eax
$L94229:
  00079	8b 45 f8	 mov	 eax, DWORD PTR _this$[ebp]
  0007c	8b 4d ec	 mov	 ecx, DWORD PTR _i$94228[ebp]
  0007f	3b 48 40	 cmp	 ecx, DWORD PTR [eax+64]
  00082	7d 6b		 jge	 SHORT $L94231

; 1289 : 			if( m_pPS_Contrails[ i ] )

  00084	8b 45 ec	 mov	 eax, DWORD PTR _i$94228[ebp]
  00087	8b 4d f8	 mov	 ecx, DWORD PTR _this$[ebp]
  0008a	83 7c 81 74 00	 cmp	 DWORD PTR [ecx+eax*4+116], 0
  0008f	74 5c		 je	 SHORT $L94232

; 1290 : 			{
; 1291 : 				m_pPS_Contrails[ i ]->m_vMin = xVec3( 0,0,0 ) ;

  00091	6a 00		 push	 0
  00093	6a 00		 push	 0
  00095	6a 00		 push	 0
  00097	8d 8d 04 ff ff
	ff		 lea	 ecx, DWORD PTR $T94883[ebp]
  0009d	e8 00 00 00 00	 call	 ??0D3DXVECTOR3@@QAE@MMM@Z ; D3DXVECTOR3::D3DXVECTOR3
  000a2	8b 4d ec	 mov	 ecx, DWORD PTR _i$94228[ebp]
  000a5	8b 55 f8	 mov	 edx, DWORD PTR _this$[ebp]
  000a8	8b 4c 8a 74	 mov	 ecx, DWORD PTR [edx+ecx*4+116]
  000ac	83 c1 20	 add	 ecx, 32			; 00000020H
  000af	8b 10		 mov	 edx, DWORD PTR [eax]
  000b1	89 11		 mov	 DWORD PTR [ecx], edx
  000b3	8b 50 04	 mov	 edx, DWORD PTR [eax+4]
  000b6	89 51 04	 mov	 DWORD PTR [ecx+4], edx
  000b9	8b 40 08	 mov	 eax, DWORD PTR [eax+8]
  000bc	89 41 08	 mov	 DWORD PTR [ecx+8], eax

; 1292 : 				m_pPS_Contrails[ i ]->m_vMax = xVec3( 0,0,0 ) ;

  000bf	6a 00		 push	 0
  000c1	6a 00		 push	 0
  000c3	6a 00		 push	 0
  000c5	8d 8d f0 fe ff
	ff		 lea	 ecx, DWORD PTR $T94884[ebp]
  000cb	e8 00 00 00 00	 call	 ??0D3DXVECTOR3@@QAE@MMM@Z ; D3DXVECTOR3::D3DXVECTOR3
  000d0	8b 4d ec	 mov	 ecx, DWORD PTR _i$94228[ebp]
  000d3	8b 55 f8	 mov	 edx, DWORD PTR _this$[ebp]
  000d6	8b 4c 8a 74	 mov	 ecx, DWORD PTR [edx+ecx*4+116]
  000da	83 c1 2c	 add	 ecx, 44			; 0000002cH
  000dd	8b 10		 mov	 edx, DWORD PTR [eax]
  000df	89 11		 mov	 DWORD PTR [ecx], edx
  000e1	8b 50 04	 mov	 edx, DWORD PTR [eax+4]
  000e4	89 51 04	 mov	 DWORD PTR [ecx+4], edx
  000e7	8b 40 08	 mov	 eax, DWORD PTR [eax+8]
  000ea	89 41 08	 mov	 DWORD PTR [ecx+8], eax
$L94232:

; 1293 : 			}
; 1294 : 
; 1295 : 	// reset some physics stuff;
; 1296 : 		m_fsState = FS_NORMAL ;

  000ed	eb 81		 jmp	 SHORT $L94230
$L94231:
  000ef	8b 45 f8	 mov	 eax, DWORD PTR _this$[ebp]
  000f2	c7 80 a0 01 00
	00 00 00 00 00	 mov	 DWORD PTR [eax+416], 0

; 1297 : 		m_fSpeed = 0 ;

  000fc	8b 45 f8	 mov	 eax, DWORD PTR _this$[ebp]
  000ff	c7 80 a4 01 00
	00 00 00 00 00	 mov	 DWORD PTR [eax+420], 0

; 1298 : 		m_fMaxThrustMag = this->m_pFRO->m_pRenderData->m_fBSphereRadius * 8 ;

  00109	8b 45 f8	 mov	 eax, DWORD PTR _this$[ebp]
  0010c	8b 48 2c	 mov	 ecx, DWORD PTR [eax+44]
  0010f	8b 11		 mov	 edx, DWORD PTR [ecx]
  00111	d9 82 38 01 00
	00		 fld	 DWORD PTR [edx+312]
  00117	d8 0d 00 00 00
	00		 fmul	 DWORD PTR __real@41000000
  0011d	8b 45 f8	 mov	 eax, DWORD PTR _this$[ebp]
  00120	d9 98 b4 01 00
	00		 fstp	 DWORD PTR [eax+436]

; 1299 : 		m_fThrustDelta = m_fMaxThrustMag / 2 ;

  00126	8b 45 f8	 mov	 eax, DWORD PTR _this$[ebp]
  00129	d9 80 b4 01 00
	00		 fld	 DWORD PTR [eax+436]
  0012f	d8 35 00 00 00
	00		 fdiv	 DWORD PTR __real@40000000
  00135	8b 4d f8	 mov	 ecx, DWORD PTR _this$[ebp]
  00138	d9 99 a8 01 00
	00		 fstp	 DWORD PTR [ecx+424]

; 1300 : 		m_fThrustMag = 0 ;

  0013e	8b 45 f8	 mov	 eax, DWORD PTR _this$[ebp]
  00141	c7 80 ac 01 00
	00 00 00 00 00	 mov	 DWORD PTR [eax+428], 0

; 1301 : 		m_fStrafeThrustMag = 0 ;

  0014b	8b 45 f8	 mov	 eax, DWORD PTR _this$[ebp]
  0014e	c7 80 b0 01 00
	00 00 00 00 00	 mov	 DWORD PTR [eax+432], 0

; 1302 : 	}

  00158	5f		 pop	 edi
  00159	5e		 pop	 esi
  0015a	5b		 pop	 ebx
  0015b	81 c4 14 01 00
	00		 add	 esp, 276		; 00000114H
  00161	3b ec		 cmp	 ebp, esp
  00163	e8 00 00 00 00	 call	 __RTC_CheckEsp
  00168	8b e5		 mov	 esp, ebp
  0016a	5d		 pop	 ebp
  0016b	c2 04 00	 ret	 4
?Respawn@CFighter@@QAEXPAVCTerrain@@@Z ENDP		; CFighter::Respawn
_TEXT	ENDS
PUBLIC	?Render@CFighter@@QAEHPAUIDirect3DDevice8@@PAVCTextures@@PAKPAVCCamera@@PAUD3DXMATRIX@@PAU_D3DVIEWPORT8@@4ABU5@6MABUD3DXVECTOR3@@@Z ; CFighter::Render
EXTRN	?Render@CFileRenderObject@@QAEJPAUIDirect3DDevice8@@PAVCTextures@@PAKHHPAUD3DXMATRIX@@@Z:NEAR ; CFileRenderObject::Render
EXTRN	?RenderVS@CFileRenderObject@@QAEJPAUIDirect3DDevice8@@MPAKHHPAUD3DXMATRIX@@ABU3@3PAVCCamera@@ABUD3DXVECTOR3@@@Z:NEAR ; CFileRenderObject::RenderVS
; Function compile flags: /Odt /RTCsu /ZI
;	COMDAT ?Render@CFighter@@QAEHPAUIDirect3DDevice8@@PAVCTextures@@PAKPAVCCamera@@PAUD3DXMATRIX@@PAU_D3DVIEWPORT8@@4ABU5@6MABUD3DXVECTOR3@@@Z
_TEXT	SEGMENT
_mat$94254 = -80
_this$ = -8
_pDev$ = 8
_pTex$ = 12
_pulPolyCount$ = 16
_pCam$ = 20
_pmatProj$ = 24
_pVP$ = 28
_pmatCurWorld$ = 32
_matView$ = 36
_matProj$ = 40
_fTime$ = 44
_vLightDir$ = 48
?Render@CFighter@@QAEHPAUIDirect3DDevice8@@PAVCTextures@@PAKPAVCCamera@@PAUD3DXMATRIX@@PAU_D3DVIEWPORT8@@4ABU5@6MABUD3DXVECTOR3@@@Z PROC NEAR ; CFighter::Render, COMDAT
; _this$ = ecx

; 1315 : 	{

  00000	55		 push	 ebp
  00001	8b ec		 mov	 ebp, esp
  00003	81 ec 14 01 00
	00		 sub	 esp, 276		; 00000114H
  00009	53		 push	 ebx
  0000a	56		 push	 esi
  0000b	57		 push	 edi
  0000c	51		 push	 ecx
  0000d	8d bd ec fe ff
	ff		 lea	 edi, DWORD PTR [ebp-276]
  00013	b9 45 00 00 00	 mov	 ecx, 69			; 00000045H
  00018	b8 cc cc cc cc	 mov	 eax, -858993460		; ccccccccH
  0001d	f3 ab		 rep stosd
  0001f	59		 pop	 ecx
  00020	89 4d f8	 mov	 DWORD PTR _this$[ebp], ecx

; 1316 : 		pDev->SetTextureStageState( 0, D3DTSS_TEXCOORDINDEX, 0 );

  00023	8b f4		 mov	 esi, esp
  00025	6a 00		 push	 0
  00027	6a 0b		 push	 11			; 0000000bH
  00029	6a 00		 push	 0
  0002b	8b 45 08	 mov	 eax, DWORD PTR _pDev$[ebp]
  0002e	8b 08		 mov	 ecx, DWORD PTR [eax]
  00030	8b 55 08	 mov	 edx, DWORD PTR _pDev$[ebp]
  00033	52		 push	 edx
  00034	ff 91 fc 00 00
	00		 call	 DWORD PTR [ecx+252]
  0003a	3b f4		 cmp	 esi, esp
  0003c	e8 00 00 00 00	 call	 __RTC_CheckEsp

; 1317 : 
; 1318 : 		m_bVisible = GetBBoxVisibility( pDev, *pmatProj, pCam->m_matView, pVP, 
; 1319 : 										m_pFRO->m_pBBox->m_vMin, 
; 1320 : 										m_pFRO->m_pBBox->m_vMax );

  00041	8b 45 f8	 mov	 eax, DWORD PTR _this$[ebp]
  00044	8b 48 2c	 mov	 ecx, DWORD PTR [eax+44]
  00047	8b 51 08	 mov	 edx, DWORD PTR [ecx+8]
  0004a	83 c2 0c	 add	 edx, 12			; 0000000cH
  0004d	52		 push	 edx
  0004e	8b 45 f8	 mov	 eax, DWORD PTR _this$[ebp]
  00051	8b 48 2c	 mov	 ecx, DWORD PTR [eax+44]
  00054	8b 51 08	 mov	 edx, DWORD PTR [ecx+8]
  00057	52		 push	 edx
  00058	8b 45 1c	 mov	 eax, DWORD PTR _pVP$[ebp]
  0005b	50		 push	 eax
  0005c	8b 4d 14	 mov	 ecx, DWORD PTR _pCam$[ebp]
  0005f	83 c1 30	 add	 ecx, 48			; 00000030H
  00062	51		 push	 ecx
  00063	8b 55 18	 mov	 edx, DWORD PTR _pmatProj$[ebp]
  00066	52		 push	 edx
  00067	8b 45 08	 mov	 eax, DWORD PTR _pDev$[ebp]
  0006a	50		 push	 eax
  0006b	e8 00 00 00 00	 call	 ?GetBBoxVisibility@@YAHPAUIDirect3DDevice8@@ABUD3DXMATRIX@@1PAU_D3DVIEWPORT8@@ABUD3DXVECTOR3@@3@Z ; GetBBoxVisibility
  00070	83 c4 18	 add	 esp, 24			; 00000018H
  00073	8b 4d f8	 mov	 ecx, DWORD PTR _this$[ebp]
  00076	89 41 30	 mov	 DWORD PTR [ecx+48], eax

; 1321 : 		if( !m_bVisible )

  00079	8b 45 f8	 mov	 eax, DWORD PTR _this$[ebp]
  0007c	83 78 30 00	 cmp	 DWORD PTR [eax+48], 0
  00080	75 07		 jne	 SHORT $L94249

; 1322 : 			return 0 ;

  00082	33 c0		 xor	 eax, eax
  00084	e9 7d 05 00 00	 jmp	 $L94248
$L94249:

; 1323 : 
; 1324 : 		if( m_fsState == FS_EXPLODING )

  00089	8b 45 f8	 mov	 eax, DWORD PTR _this$[ebp]
  0008c	83 b8 a0 01 00
	00 01		 cmp	 DWORD PTR [eax+416], 1
  00093	75 07		 jne	 SHORT $L94250

; 1325 : 			return 0 ;

  00095	33 c0		 xor	 eax, eax
  00097	e9 6a 05 00 00	 jmp	 $L94248
$L94250:

; 1326 : 
; 1327 : 	//
; 1328 : 	// BotFighter size HACK, aka BigBots
; 1329 : 	// ERR: this causes the bot to be invisibile?!
; 1330 : 		/*if( !m_bUserFighter )
; 1331 : 		{
; 1332 : 			xMat matBigBots ; D3DXMatrixScaling( &matBigBots, 10, 10, 10 );
; 1333 : 			D3DXMatrixMultiply( pmatCurWorld, pmatCurWorld, &matBigBots );
; 1334 : 		}*/
; 1335 : 	//
; 1336 : 	// Vertex-shaders:
; 1337 : 	//
; 1338 : 		if( m_rtFighterMode == FRT_VS1 )

  0009c	8b 45 f8	 mov	 eax, DWORD PTR _this$[ebp]
  0009f	83 78 08 03	 cmp	 DWORD PTR [eax+8], 3
  000a3	75 7b		 jne	 SHORT $L94251

; 1339 : 		{
; 1340 : 		// set for single texture
; 1341 : 			pDev->SetTexture(0, pTex->m_pTex[ MISC_TEX_START + 0 ]) ;

  000a5	8b f4		 mov	 esi, esp
  000a7	8b 45 0c	 mov	 eax, DWORD PTR _pTex$[ebp]
  000aa	8b 88 0c 0b 00
	00		 mov	 ecx, DWORD PTR [eax+2828]
  000b0	51		 push	 ecx
  000b1	6a 00		 push	 0
  000b3	8b 55 08	 mov	 edx, DWORD PTR _pDev$[ebp]
  000b6	8b 02		 mov	 eax, DWORD PTR [edx]
  000b8	8b 4d 08	 mov	 ecx, DWORD PTR _pDev$[ebp]
  000bb	51		 push	 ecx
  000bc	ff 90 f4 00 00
	00		 call	 DWORD PTR [eax+244]
  000c2	3b f4		 cmp	 esi, esp
  000c4	e8 00 00 00 00	 call	 __RTC_CheckEsp

; 1342 : 			pDev->SetTextureStageState( 1, D3DTSS_TEXCOORDINDEX, 1 );

  000c9	8b f4		 mov	 esi, esp
  000cb	6a 01		 push	 1
  000cd	6a 0b		 push	 11			; 0000000bH
  000cf	6a 01		 push	 1
  000d1	8b 45 08	 mov	 eax, DWORD PTR _pDev$[ebp]
  000d4	8b 08		 mov	 ecx, DWORD PTR [eax]
  000d6	8b 55 08	 mov	 edx, DWORD PTR _pDev$[ebp]
  000d9	52		 push	 edx
  000da	ff 91 fc 00 00
	00		 call	 DWORD PTR [ecx+252]
  000e0	3b f4		 cmp	 esi, esp
  000e2	e8 00 00 00 00	 call	 __RTC_CheckEsp

; 1343 : 		// render
; 1344 : 			m_pFRO->RenderVS( pDev, fTime, pulPolyCount, TRUE, FALSE, pmatCurWorld, matView, matProj, pCam, vLightDir );

  000e7	8b 45 30	 mov	 eax, DWORD PTR _vLightDir$[ebp]
  000ea	50		 push	 eax
  000eb	8b 4d 14	 mov	 ecx, DWORD PTR _pCam$[ebp]
  000ee	51		 push	 ecx
  000ef	8b 55 28	 mov	 edx, DWORD PTR _matProj$[ebp]
  000f2	52		 push	 edx
  000f3	8b 45 24	 mov	 eax, DWORD PTR _matView$[ebp]
  000f6	50		 push	 eax
  000f7	8b 4d 20	 mov	 ecx, DWORD PTR _pmatCurWorld$[ebp]
  000fa	51		 push	 ecx
  000fb	6a 00		 push	 0
  000fd	6a 01		 push	 1
  000ff	8b 55 10	 mov	 edx, DWORD PTR _pulPolyCount$[ebp]
  00102	52		 push	 edx
  00103	8b 45 2c	 mov	 eax, DWORD PTR _fTime$[ebp]
  00106	50		 push	 eax
  00107	8b 4d 08	 mov	 ecx, DWORD PTR _pDev$[ebp]
  0010a	51		 push	 ecx
  0010b	8b 55 f8	 mov	 edx, DWORD PTR _this$[ebp]
  0010e	8b 4a 2c	 mov	 ecx, DWORD PTR [edx+44]
  00111	e8 00 00 00 00	 call	 ?RenderVS@CFileRenderObject@@QAEJPAUIDirect3DDevice8@@MPAKHHPAUD3DXMATRIX@@ABU3@3PAVCCamera@@ABUD3DXVECTOR3@@@Z ; CFileRenderObject::RenderVS

; 1345 : 			return 1 ;

  00116	b8 01 00 00 00	 mov	 eax, 1
  0011b	e9 e6 04 00 00	 jmp	 $L94248
$L94251:

; 1346 : 		}
; 1347 : 
; 1348 : 	//
; 1349 : 	// Fixed Vertex Processing:
; 1350 : 	//
; 1351 : 		if( m_rtFighterMode == FRT_CHROME || m_rtFighterMode == FRT_GLASS )

  00120	8b 45 f8	 mov	 eax, DWORD PTR _this$[ebp]
  00123	83 78 08 01	 cmp	 DWORD PTR [eax+8], 1
  00127	74 0d		 je	 SHORT $L94253
  00129	8b 45 f8	 mov	 eax, DWORD PTR _this$[ebp]
  0012c	83 78 08 02	 cmp	 DWORD PTR [eax+8], 2
  00130	0f 85 29 02 00
	00		 jne	 $L94252
$L94253:

; 1352 : 		{
; 1353 : 		// adds in the spheremap texture
; 1354 : 			pDev->SetTexture( 0, pTex->m_pTex[SPHERE_TEX_START + 0] );

  00136	8b f4		 mov	 esi, esp
  00138	8b 45 0c	 mov	 eax, DWORD PTR _pTex$[ebp]
  0013b	8b 88 b4 08 00
	00		 mov	 ecx, DWORD PTR [eax+2228]
  00141	51		 push	 ecx
  00142	6a 00		 push	 0
  00144	8b 55 08	 mov	 edx, DWORD PTR _pDev$[ebp]
  00147	8b 02		 mov	 eax, DWORD PTR [edx]
  00149	8b 4d 08	 mov	 ecx, DWORD PTR _pDev$[ebp]
  0014c	51		 push	 ecx
  0014d	ff 90 f4 00 00
	00		 call	 DWORD PTR [eax+244]
  00153	3b f4		 cmp	 esi, esp
  00155	e8 00 00 00 00	 call	 __RTC_CheckEsp

; 1355 : 			pDev->SetTextureStageState( 0, D3DTSS_COLORARG2, D3DTA_DIFFUSE );

  0015a	8b f4		 mov	 esi, esp
  0015c	6a 00		 push	 0
  0015e	6a 03		 push	 3
  00160	6a 00		 push	 0
  00162	8b 45 08	 mov	 eax, DWORD PTR _pDev$[ebp]
  00165	8b 08		 mov	 ecx, DWORD PTR [eax]
  00167	8b 55 08	 mov	 edx, DWORD PTR _pDev$[ebp]
  0016a	52		 push	 edx
  0016b	ff 91 fc 00 00
	00		 call	 DWORD PTR [ecx+252]
  00171	3b f4		 cmp	 esi, esp
  00173	e8 00 00 00 00	 call	 __RTC_CheckEsp

; 1356 : 			pDev->SetTextureStageState( 0, D3DTSS_COLORARG1, D3DTA_TEXTURE );

  00178	8b f4		 mov	 esi, esp
  0017a	6a 02		 push	 2
  0017c	6a 02		 push	 2
  0017e	6a 00		 push	 0
  00180	8b 45 08	 mov	 eax, DWORD PTR _pDev$[ebp]
  00183	8b 08		 mov	 ecx, DWORD PTR [eax]
  00185	8b 55 08	 mov	 edx, DWORD PTR _pDev$[ebp]
  00188	52		 push	 edx
  00189	ff 91 fc 00 00
	00		 call	 DWORD PTR [ecx+252]
  0018f	3b f4		 cmp	 esi, esp
  00191	e8 00 00 00 00	 call	 __RTC_CheckEsp

; 1357 : 			pDev->SetTextureStageState( 0, D3DTSS_COLOROP,   D3DTOP_MODULATE );

  00196	8b f4		 mov	 esi, esp
  00198	6a 04		 push	 4
  0019a	6a 01		 push	 1
  0019c	6a 00		 push	 0
  0019e	8b 45 08	 mov	 eax, DWORD PTR _pDev$[ebp]
  001a1	8b 08		 mov	 ecx, DWORD PTR [eax]
  001a3	8b 55 08	 mov	 edx, DWORD PTR _pDev$[ebp]
  001a6	52		 push	 edx
  001a7	ff 91 fc 00 00
	00		 call	 DWORD PTR [ecx+252]
  001ad	3b f4		 cmp	 esi, esp
  001af	e8 00 00 00 00	 call	 __RTC_CheckEsp

; 1358 : 			pDev->SetTextureStageState( 1, D3DTSS_COLOROP,   D3DTOP_DISABLE );

  001b4	8b f4		 mov	 esi, esp
  001b6	6a 01		 push	 1
  001b8	6a 01		 push	 1
  001ba	6a 01		 push	 1
  001bc	8b 45 08	 mov	 eax, DWORD PTR _pDev$[ebp]
  001bf	8b 08		 mov	 ecx, DWORD PTR [eax]
  001c1	8b 55 08	 mov	 edx, DWORD PTR _pDev$[ebp]
  001c4	52		 push	 edx
  001c5	ff 91 fc 00 00
	00		 call	 DWORD PTR [ecx+252]
  001cb	3b f4		 cmp	 esi, esp
  001cd	e8 00 00 00 00	 call	 __RTC_CheckEsp

; 1359 : 
; 1360 : 		// generate spheremap texture coords, and shift them over
; 1361 : 			xMat mat;

  001d2	8d 4d b0	 lea	 ecx, DWORD PTR _mat$94254[ebp]
  001d5	e8 00 00 00 00	 call	 ??0D3DXMATRIX@@QAE@XZ	; D3DXMATRIX::D3DXMATRIX

; 1362 : 			mat._11 = 0.5f; mat._12 = 0.0f; mat._13 = 0.0f; mat._14 = 0.0f; 

  001da	c7 45 b0 00 00
	00 3f		 mov	 DWORD PTR _mat$94254[ebp], 1056964608 ; 3f000000H
  001e1	c7 45 b4 00 00
	00 00		 mov	 DWORD PTR _mat$94254[ebp+4], 0
  001e8	c7 45 b8 00 00
	00 00		 mov	 DWORD PTR _mat$94254[ebp+8], 0
  001ef	c7 45 bc 00 00
	00 00		 mov	 DWORD PTR _mat$94254[ebp+12], 0

; 1363 : 			mat._21 = 0.0f; mat._22 =-0.5f; mat._23 = 0.0f; mat._24 = 0.0f; 

  001f6	c7 45 c0 00 00
	00 00		 mov	 DWORD PTR _mat$94254[ebp+16], 0
  001fd	c7 45 c4 00 00
	00 bf		 mov	 DWORD PTR _mat$94254[ebp+20], -1090519040 ; bf000000H
  00204	c7 45 c8 00 00
	00 00		 mov	 DWORD PTR _mat$94254[ebp+24], 0
  0020b	c7 45 cc 00 00
	00 00		 mov	 DWORD PTR _mat$94254[ebp+28], 0

; 1364 : 			mat._31 = 0.0f; mat._32 = 0.0f; mat._33 = 1.0f; mat._34 = 0.0f; 

  00212	c7 45 d0 00 00
	00 00		 mov	 DWORD PTR _mat$94254[ebp+32], 0
  00219	c7 45 d4 00 00
	00 00		 mov	 DWORD PTR _mat$94254[ebp+36], 0
  00220	c7 45 d8 00 00
	80 3f		 mov	 DWORD PTR _mat$94254[ebp+40], 1065353216 ; 3f800000H
  00227	c7 45 dc 00 00
	00 00		 mov	 DWORD PTR _mat$94254[ebp+44], 0

; 1365 : 			mat._41 = 0.5f; mat._42 = 0.5f; mat._43 = 0.0f; mat._44 = 1.0f; 

  0022e	c7 45 e0 00 00
	00 3f		 mov	 DWORD PTR _mat$94254[ebp+48], 1056964608 ; 3f000000H
  00235	c7 45 e4 00 00
	00 3f		 mov	 DWORD PTR _mat$94254[ebp+52], 1056964608 ; 3f000000H
  0023c	c7 45 e8 00 00
	00 00		 mov	 DWORD PTR _mat$94254[ebp+56], 0
  00243	c7 45 ec 00 00
	80 3f		 mov	 DWORD PTR _mat$94254[ebp+60], 1065353216 ; 3f800000H

; 1366 : 			pDev->SetTransform( D3DTS_TEXTURE0, &mat );

  0024a	8b f4		 mov	 esi, esp
  0024c	8d 45 b0	 lea	 eax, DWORD PTR _mat$94254[ebp]
  0024f	50		 push	 eax
  00250	6a 10		 push	 16			; 00000010H
  00252	8b 4d 08	 mov	 ecx, DWORD PTR _pDev$[ebp]
  00255	8b 11		 mov	 edx, DWORD PTR [ecx]
  00257	8b 45 08	 mov	 eax, DWORD PTR _pDev$[ebp]
  0025a	50		 push	 eax
  0025b	ff 92 94 00 00
	00		 call	 DWORD PTR [edx+148]
  00261	3b f4		 cmp	 esi, esp
  00263	e8 00 00 00 00	 call	 __RTC_CheckEsp

; 1367 : 			pDev->SetTextureStageState( 0, D3DTSS_TEXTURETRANSFORMFLAGS, D3DTTFF_COUNT2 );

  00268	8b f4		 mov	 esi, esp
  0026a	6a 02		 push	 2
  0026c	6a 18		 push	 24			; 00000018H
  0026e	6a 00		 push	 0
  00270	8b 45 08	 mov	 eax, DWORD PTR _pDev$[ebp]
  00273	8b 08		 mov	 ecx, DWORD PTR [eax]
  00275	8b 55 08	 mov	 edx, DWORD PTR _pDev$[ebp]
  00278	52		 push	 edx
  00279	ff 91 fc 00 00
	00		 call	 DWORD PTR [ecx+252]
  0027f	3b f4		 cmp	 esi, esp
  00281	e8 00 00 00 00	 call	 __RTC_CheckEsp

; 1368 : 			pDev->SetTextureStageState( 0, D3DTSS_TEXCOORDINDEX, D3DTSS_TCI_CAMERASPACENORMAL );

  00286	8b f4		 mov	 esi, esp
  00288	68 00 00 01 00	 push	 65536			; 00010000H
  0028d	6a 0b		 push	 11			; 0000000bH
  0028f	6a 00		 push	 0
  00291	8b 45 08	 mov	 eax, DWORD PTR _pDev$[ebp]
  00294	8b 08		 mov	 ecx, DWORD PTR [eax]
  00296	8b 55 08	 mov	 edx, DWORD PTR _pDev$[ebp]
  00299	52		 push	 edx
  0029a	ff 91 fc 00 00
	00		 call	 DWORD PTR [ecx+252]
  002a0	3b f4		 cmp	 esi, esp
  002a2	e8 00 00 00 00	 call	 __RTC_CheckEsp

; 1369 : 
; 1370 : 		// a glass effect can also be achieved:
; 1371 : 			if( m_rtFighterMode == FRT_GLASS )

  002a7	8b 45 f8	 mov	 eax, DWORD PTR _this$[ebp]
  002aa	83 78 08 02	 cmp	 DWORD PTR [eax+8], 2
  002ae	0f 85 8c 00 00
	00		 jne	 $L94255

; 1372 : 			{
; 1373 : 				pDev->SetRenderState( D3DRS_ALPHABLENDENABLE, TRUE );

  002b4	8b f4		 mov	 esi, esp
  002b6	6a 01		 push	 1
  002b8	6a 1b		 push	 27			; 0000001bH
  002ba	8b 45 08	 mov	 eax, DWORD PTR _pDev$[ebp]
  002bd	8b 08		 mov	 ecx, DWORD PTR [eax]
  002bf	8b 55 08	 mov	 edx, DWORD PTR _pDev$[ebp]
  002c2	52		 push	 edx
  002c3	ff 91 c8 00 00
	00		 call	 DWORD PTR [ecx+200]
  002c9	3b f4		 cmp	 esi, esp
  002cb	e8 00 00 00 00	 call	 __RTC_CheckEsp

; 1374 : 				pDev->SetRenderState( D3DRS_SRCBLEND,  D3DBLEND_SRCCOLOR );

  002d0	8b f4		 mov	 esi, esp
  002d2	6a 03		 push	 3
  002d4	6a 13		 push	 19			; 00000013H
  002d6	8b 45 08	 mov	 eax, DWORD PTR _pDev$[ebp]
  002d9	8b 08		 mov	 ecx, DWORD PTR [eax]
  002db	8b 55 08	 mov	 edx, DWORD PTR _pDev$[ebp]
  002de	52		 push	 edx
  002df	ff 91 c8 00 00
	00		 call	 DWORD PTR [ecx+200]
  002e5	3b f4		 cmp	 esi, esp
  002e7	e8 00 00 00 00	 call	 __RTC_CheckEsp

; 1375 : 				pDev->SetRenderState( D3DRS_DESTBLEND, D3DBLEND_DESTCOLOR );

  002ec	8b f4		 mov	 esi, esp
  002ee	6a 09		 push	 9
  002f0	6a 14		 push	 20			; 00000014H
  002f2	8b 45 08	 mov	 eax, DWORD PTR _pDev$[ebp]
  002f5	8b 08		 mov	 ecx, DWORD PTR [eax]
  002f7	8b 55 08	 mov	 edx, DWORD PTR _pDev$[ebp]
  002fa	52		 push	 edx
  002fb	ff 91 c8 00 00
	00		 call	 DWORD PTR [ecx+200]
  00301	3b f4		 cmp	 esi, esp
  00303	e8 00 00 00 00	 call	 __RTC_CheckEsp

; 1376 : 				pDev->SetRenderState( D3DRS_CULLMODE,  D3DCULL_NONE );

  00308	8b f4		 mov	 esi, esp
  0030a	6a 01		 push	 1
  0030c	6a 16		 push	 22			; 00000016H
  0030e	8b 45 08	 mov	 eax, DWORD PTR _pDev$[ebp]
  00311	8b 08		 mov	 ecx, DWORD PTR [eax]
  00313	8b 55 08	 mov	 edx, DWORD PTR _pDev$[ebp]
  00316	52		 push	 edx
  00317	ff 91 c8 00 00
	00		 call	 DWORD PTR [ecx+200]
  0031d	3b f4		 cmp	 esi, esp
  0031f	e8 00 00 00 00	 call	 __RTC_CheckEsp

; 1377 : 				pDev->SetRenderState( D3DRS_ZWRITEENABLE,     FALSE );

  00324	8b f4		 mov	 esi, esp
  00326	6a 00		 push	 0
  00328	6a 0e		 push	 14			; 0000000eH
  0032a	8b 45 08	 mov	 eax, DWORD PTR _pDev$[ebp]
  0032d	8b 08		 mov	 ecx, DWORD PTR [eax]
  0032f	8b 55 08	 mov	 edx, DWORD PTR _pDev$[ebp]
  00332	52		 push	 edx
  00333	ff 91 c8 00 00
	00		 call	 DWORD PTR [ecx+200]
  00339	3b f4		 cmp	 esi, esp
  0033b	e8 00 00 00 00	 call	 __RTC_CheckEsp
$L94255:

; 1378 : 			}
; 1379 : 
; 1380 : 			pDev->SetRenderState(D3DRS_AMBIENT, 0xffffffff) ;

  00340	8b f4		 mov	 esi, esp
  00342	6a ff		 push	 -1
  00344	68 8b 00 00 00	 push	 139			; 0000008bH
  00349	8b 45 08	 mov	 eax, DWORD PTR _pDev$[ebp]
  0034c	8b 08		 mov	 ecx, DWORD PTR [eax]
  0034e	8b 55 08	 mov	 edx, DWORD PTR _pDev$[ebp]
  00351	52		 push	 edx
  00352	ff 91 c8 00 00
	00		 call	 DWORD PTR [ecx+200]
  00358	3b f4		 cmp	 esi, esp
  0035a	e8 00 00 00 00	 call	 __RTC_CheckEsp
$L94252:

; 1381 : 		}
; 1382 : 		
; 1383 : 		if( m_rtFighterMode == FRT_NORMAL )

  0035f	8b 45 f8	 mov	 eax, DWORD PTR _this$[ebp]
  00362	83 78 08 00	 cmp	 DWORD PTR [eax+8], 0
  00366	0f 85 8c 01 00
	00		 jne	 $L94256

; 1384 : 		{
; 1385 : 		// set for single texture
; 1386 : 			pDev->SetTexture(0, pTex->m_pTex[ MISC_TEX_START + 0 ]) ;

  0036c	8b f4		 mov	 esi, esp
  0036e	8b 45 0c	 mov	 eax, DWORD PTR _pTex$[ebp]
  00371	8b 88 0c 0b 00
	00		 mov	 ecx, DWORD PTR [eax+2828]
  00377	51		 push	 ecx
  00378	6a 00		 push	 0
  0037a	8b 55 08	 mov	 edx, DWORD PTR _pDev$[ebp]
  0037d	8b 02		 mov	 eax, DWORD PTR [edx]
  0037f	8b 4d 08	 mov	 ecx, DWORD PTR _pDev$[ebp]
  00382	51		 push	 ecx
  00383	ff 90 f4 00 00
	00		 call	 DWORD PTR [eax+244]
  00389	3b f4		 cmp	 esi, esp
  0038b	e8 00 00 00 00	 call	 __RTC_CheckEsp

; 1387 : 			SetTextureColorStage(pDev, 0, D3DTA_TEXTURE, D3DTOP_SELECTARG1,	D3DTA_CURRENT)

  00390	8b f4		 mov	 esi, esp
  00392	6a 02		 push	 2
  00394	6a 01		 push	 1
  00396	6a 00		 push	 0
  00398	8b 45 08	 mov	 eax, DWORD PTR _pDev$[ebp]
  0039b	8b 08		 mov	 ecx, DWORD PTR [eax]
  0039d	8b 55 08	 mov	 edx, DWORD PTR _pDev$[ebp]
  003a0	52		 push	 edx
  003a1	ff 91 fc 00 00
	00		 call	 DWORD PTR [ecx+252]
  003a7	3b f4		 cmp	 esi, esp
  003a9	e8 00 00 00 00	 call	 __RTC_CheckEsp
  003ae	8b f4		 mov	 esi, esp
  003b0	6a 02		 push	 2
  003b2	6a 02		 push	 2
  003b4	6a 00		 push	 0
  003b6	8b 45 08	 mov	 eax, DWORD PTR _pDev$[ebp]
  003b9	8b 08		 mov	 ecx, DWORD PTR [eax]
  003bb	8b 55 08	 mov	 edx, DWORD PTR _pDev$[ebp]
  003be	52		 push	 edx
  003bf	ff 91 fc 00 00
	00		 call	 DWORD PTR [ecx+252]
  003c5	3b f4		 cmp	 esi, esp
  003c7	e8 00 00 00 00	 call	 __RTC_CheckEsp
  003cc	8b f4		 mov	 esi, esp
  003ce	6a 01		 push	 1
  003d0	6a 03		 push	 3
  003d2	6a 00		 push	 0
  003d4	8b 45 08	 mov	 eax, DWORD PTR _pDev$[ebp]
  003d7	8b 08		 mov	 ecx, DWORD PTR [eax]
  003d9	8b 55 08	 mov	 edx, DWORD PTR _pDev$[ebp]
  003dc	52		 push	 edx
  003dd	ff 91 fc 00 00
	00		 call	 DWORD PTR [ecx+252]
  003e3	3b f4		 cmp	 esi, esp
  003e5	e8 00 00 00 00	 call	 __RTC_CheckEsp

; 1388 : 			SetTextureColorStage(pDev, 1, D3DTA_DIFFUSE, D3DTOP_MODULATE,	D3DTA_CURRENT)

  003ea	8b f4		 mov	 esi, esp
  003ec	6a 04		 push	 4
  003ee	6a 01		 push	 1
  003f0	6a 01		 push	 1
  003f2	8b 45 08	 mov	 eax, DWORD PTR _pDev$[ebp]
  003f5	8b 08		 mov	 ecx, DWORD PTR [eax]
  003f7	8b 55 08	 mov	 edx, DWORD PTR _pDev$[ebp]
  003fa	52		 push	 edx
  003fb	ff 91 fc 00 00
	00		 call	 DWORD PTR [ecx+252]
  00401	3b f4		 cmp	 esi, esp
  00403	e8 00 00 00 00	 call	 __RTC_CheckEsp
  00408	8b f4		 mov	 esi, esp
  0040a	6a 00		 push	 0
  0040c	6a 02		 push	 2
  0040e	6a 01		 push	 1
  00410	8b 45 08	 mov	 eax, DWORD PTR _pDev$[ebp]
  00413	8b 08		 mov	 ecx, DWORD PTR [eax]
  00415	8b 55 08	 mov	 edx, DWORD PTR _pDev$[ebp]
  00418	52		 push	 edx
  00419	ff 91 fc 00 00
	00		 call	 DWORD PTR [ecx+252]
  0041f	3b f4		 cmp	 esi, esp
  00421	e8 00 00 00 00	 call	 __RTC_CheckEsp
  00426	8b f4		 mov	 esi, esp
  00428	6a 01		 push	 1
  0042a	6a 03		 push	 3
  0042c	6a 01		 push	 1
  0042e	8b 45 08	 mov	 eax, DWORD PTR _pDev$[ebp]
  00431	8b 08		 mov	 ecx, DWORD PTR [eax]
  00433	8b 55 08	 mov	 edx, DWORD PTR _pDev$[ebp]
  00436	52		 push	 edx
  00437	ff 91 fc 00 00
	00		 call	 DWORD PTR [ecx+252]
  0043d	3b f4		 cmp	 esi, esp
  0043f	e8 00 00 00 00	 call	 __RTC_CheckEsp

; 1389 : 			SetTextureColorStage(pDev, 2, D3DTA_CURRENT, D3DTOP_DISABLE,	D3DTA_CURRENT)

  00444	8b f4		 mov	 esi, esp
  00446	6a 01		 push	 1
  00448	6a 01		 push	 1
  0044a	6a 02		 push	 2
  0044c	8b 45 08	 mov	 eax, DWORD PTR _pDev$[ebp]
  0044f	8b 08		 mov	 ecx, DWORD PTR [eax]
  00451	8b 55 08	 mov	 edx, DWORD PTR _pDev$[ebp]
  00454	52		 push	 edx
  00455	ff 91 fc 00 00
	00		 call	 DWORD PTR [ecx+252]
  0045b	3b f4		 cmp	 esi, esp
  0045d	e8 00 00 00 00	 call	 __RTC_CheckEsp
  00462	8b f4		 mov	 esi, esp
  00464	6a 01		 push	 1
  00466	6a 02		 push	 2
  00468	6a 02		 push	 2
  0046a	8b 45 08	 mov	 eax, DWORD PTR _pDev$[ebp]
  0046d	8b 08		 mov	 ecx, DWORD PTR [eax]
  0046f	8b 55 08	 mov	 edx, DWORD PTR _pDev$[ebp]
  00472	52		 push	 edx
  00473	ff 91 fc 00 00
	00		 call	 DWORD PTR [ecx+252]
  00479	3b f4		 cmp	 esi, esp
  0047b	e8 00 00 00 00	 call	 __RTC_CheckEsp
  00480	8b f4		 mov	 esi, esp
  00482	6a 01		 push	 1
  00484	6a 03		 push	 3
  00486	6a 02		 push	 2
  00488	8b 45 08	 mov	 eax, DWORD PTR _pDev$[ebp]
  0048b	8b 08		 mov	 ecx, DWORD PTR [eax]
  0048d	8b 55 08	 mov	 edx, DWORD PTR _pDev$[ebp]
  00490	52		 push	 edx
  00491	ff 91 fc 00 00
	00		 call	 DWORD PTR [ecx+252]
  00497	3b f4		 cmp	 esi, esp
  00499	e8 00 00 00 00	 call	 __RTC_CheckEsp

; 1390 : 			SetTextureAlphaStage(pDev, 0, D3DTA_DIFFUSE, D3DTOP_SELECTARG1,	D3DTA_CURRENT)

  0049e	8b f4		 mov	 esi, esp
  004a0	6a 02		 push	 2
  004a2	6a 04		 push	 4
  004a4	6a 00		 push	 0
  004a6	8b 45 08	 mov	 eax, DWORD PTR _pDev$[ebp]
  004a9	8b 08		 mov	 ecx, DWORD PTR [eax]
  004ab	8b 55 08	 mov	 edx, DWORD PTR _pDev$[ebp]
  004ae	52		 push	 edx
  004af	ff 91 fc 00 00
	00		 call	 DWORD PTR [ecx+252]
  004b5	3b f4		 cmp	 esi, esp
  004b7	e8 00 00 00 00	 call	 __RTC_CheckEsp
  004bc	8b f4		 mov	 esi, esp
  004be	6a 00		 push	 0
  004c0	6a 05		 push	 5
  004c2	6a 00		 push	 0
  004c4	8b 45 08	 mov	 eax, DWORD PTR _pDev$[ebp]
  004c7	8b 08		 mov	 ecx, DWORD PTR [eax]
  004c9	8b 55 08	 mov	 edx, DWORD PTR _pDev$[ebp]
  004cc	52		 push	 edx
  004cd	ff 91 fc 00 00
	00		 call	 DWORD PTR [ecx+252]
  004d3	3b f4		 cmp	 esi, esp
  004d5	e8 00 00 00 00	 call	 __RTC_CheckEsp
  004da	8b f4		 mov	 esi, esp
  004dc	6a 01		 push	 1
  004de	6a 06		 push	 6
  004e0	6a 00		 push	 0
  004e2	8b 45 08	 mov	 eax, DWORD PTR _pDev$[ebp]
  004e5	8b 08		 mov	 ecx, DWORD PTR [eax]
  004e7	8b 55 08	 mov	 edx, DWORD PTR _pDev$[ebp]
  004ea	52		 push	 edx
  004eb	ff 91 fc 00 00
	00		 call	 DWORD PTR [ecx+252]
  004f1	3b f4		 cmp	 esi, esp
  004f3	e8 00 00 00 00	 call	 __RTC_CheckEsp
$L94256:

; 1391 : 		}
; 1392 : 
; 1393 : 	// render
; 1394 : 		m_pFRO->Render( pDev, pTex, pulPolyCount, TRUE, FALSE, pmatCurWorld );

  004f8	8b 45 20	 mov	 eax, DWORD PTR _pmatCurWorld$[ebp]
  004fb	50		 push	 eax
  004fc	6a 00		 push	 0
  004fe	6a 01		 push	 1
  00500	8b 4d 10	 mov	 ecx, DWORD PTR _pulPolyCount$[ebp]
  00503	51		 push	 ecx
  00504	8b 55 0c	 mov	 edx, DWORD PTR _pTex$[ebp]
  00507	52		 push	 edx
  00508	8b 45 08	 mov	 eax, DWORD PTR _pDev$[ebp]
  0050b	50		 push	 eax
  0050c	8b 4d f8	 mov	 ecx, DWORD PTR _this$[ebp]
  0050f	8b 49 2c	 mov	 ecx, DWORD PTR [ecx+44]
  00512	e8 00 00 00 00	 call	 ?Render@CFileRenderObject@@QAEJPAUIDirect3DDevice8@@PAVCTextures@@PAKHHPAUD3DXMATRIX@@@Z ; CFileRenderObject::Render

; 1395 : 
; 1396 : 	// restore default renderstates
; 1397 : 		if( m_rtFighterMode == FRT_CHROME || m_rtFighterMode == FRT_GLASS )

  00517	8b 45 f8	 mov	 eax, DWORD PTR _this$[ebp]
  0051a	83 78 08 01	 cmp	 DWORD PTR [eax+8], 1
  0051e	74 0d		 je	 SHORT $L94258
  00520	8b 45 f8	 mov	 eax, DWORD PTR _this$[ebp]
  00523	83 78 08 02	 cmp	 DWORD PTR [eax+8], 2
  00527	0f 85 d4 00 00
	00		 jne	 $L94257
$L94258:

; 1398 : 		{
; 1399 : 			pDev->SetTransform( D3DTS_TEXTURE0, &g_matIdent );

  0052d	8b f4		 mov	 esi, esp
  0052f	68 00 00 00 00	 push	 OFFSET FLAT:?g_matIdent@@3UD3DXMATRIX@@A ; g_matIdent
  00534	6a 10		 push	 16			; 00000010H
  00536	8b 45 08	 mov	 eax, DWORD PTR _pDev$[ebp]
  00539	8b 08		 mov	 ecx, DWORD PTR [eax]
  0053b	8b 55 08	 mov	 edx, DWORD PTR _pDev$[ebp]
  0053e	52		 push	 edx
  0053f	ff 91 94 00 00
	00		 call	 DWORD PTR [ecx+148]
  00545	3b f4		 cmp	 esi, esp
  00547	e8 00 00 00 00	 call	 __RTC_CheckEsp

; 1400 : 			pDev->SetTextureStageState( 0, D3DTSS_TEXTURETRANSFORMFLAGS, D3DTTFF_DISABLE );

  0054c	8b f4		 mov	 esi, esp
  0054e	6a 00		 push	 0
  00550	6a 18		 push	 24			; 00000018H
  00552	6a 00		 push	 0
  00554	8b 45 08	 mov	 eax, DWORD PTR _pDev$[ebp]
  00557	8b 08		 mov	 ecx, DWORD PTR [eax]
  00559	8b 55 08	 mov	 edx, DWORD PTR _pDev$[ebp]
  0055c	52		 push	 edx
  0055d	ff 91 fc 00 00
	00		 call	 DWORD PTR [ecx+252]
  00563	3b f4		 cmp	 esi, esp
  00565	e8 00 00 00 00	 call	 __RTC_CheckEsp

; 1401 : 			pDev->SetTextureStageState( 0, D3DTSS_TEXCOORDINDEX, D3DTSS_TCI_PASSTHRU );

  0056a	8b f4		 mov	 esi, esp
  0056c	6a 00		 push	 0
  0056e	6a 0b		 push	 11			; 0000000bH
  00570	6a 00		 push	 0
  00572	8b 45 08	 mov	 eax, DWORD PTR _pDev$[ebp]
  00575	8b 08		 mov	 ecx, DWORD PTR [eax]
  00577	8b 55 08	 mov	 edx, DWORD PTR _pDev$[ebp]
  0057a	52		 push	 edx
  0057b	ff 91 fc 00 00
	00		 call	 DWORD PTR [ecx+252]
  00581	3b f4		 cmp	 esi, esp
  00583	e8 00 00 00 00	 call	 __RTC_CheckEsp

; 1402 : 
; 1403 : 			if( m_rtFighterMode == FRT_GLASS )

  00588	8b 45 f8	 mov	 eax, DWORD PTR _this$[ebp]
  0058b	83 78 08 02	 cmp	 DWORD PTR [eax+8], 2
  0058f	75 70		 jne	 SHORT $L94257

; 1404 : 			{
; 1405 : 				pDev->SetRenderState(D3DRS_ZWRITEENABLE, TRUE) ;

  00591	8b f4		 mov	 esi, esp
  00593	6a 01		 push	 1
  00595	6a 0e		 push	 14			; 0000000eH
  00597	8b 45 08	 mov	 eax, DWORD PTR _pDev$[ebp]
  0059a	8b 08		 mov	 ecx, DWORD PTR [eax]
  0059c	8b 55 08	 mov	 edx, DWORD PTR _pDev$[ebp]
  0059f	52		 push	 edx
  005a0	ff 91 c8 00 00
	00		 call	 DWORD PTR [ecx+200]
  005a6	3b f4		 cmp	 esi, esp
  005a8	e8 00 00 00 00	 call	 __RTC_CheckEsp

; 1406 : 				pDev->SetRenderState(D3DRS_SRCBLEND, D3DBLEND_SRCALPHA) ;

  005ad	8b f4		 mov	 esi, esp
  005af	6a 05		 push	 5
  005b1	6a 13		 push	 19			; 00000013H
  005b3	8b 45 08	 mov	 eax, DWORD PTR _pDev$[ebp]
  005b6	8b 08		 mov	 ecx, DWORD PTR [eax]
  005b8	8b 55 08	 mov	 edx, DWORD PTR _pDev$[ebp]
  005bb	52		 push	 edx
  005bc	ff 91 c8 00 00
	00		 call	 DWORD PTR [ecx+200]
  005c2	3b f4		 cmp	 esi, esp
  005c4	e8 00 00 00 00	 call	 __RTC_CheckEsp

; 1407 : 				pDev->SetRenderState(D3DRS_DESTBLEND, D3DBLEND_INVSRCALPHA) ;

  005c9	8b f4		 mov	 esi, esp
  005cb	6a 06		 push	 6
  005cd	6a 14		 push	 20			; 00000014H
  005cf	8b 45 08	 mov	 eax, DWORD PTR _pDev$[ebp]
  005d2	8b 08		 mov	 ecx, DWORD PTR [eax]
  005d4	8b 55 08	 mov	 edx, DWORD PTR _pDev$[ebp]
  005d7	52		 push	 edx
  005d8	ff 91 c8 00 00
	00		 call	 DWORD PTR [ecx+200]
  005de	3b f4		 cmp	 esi, esp
  005e0	e8 00 00 00 00	 call	 __RTC_CheckEsp

; 1408 : 				pDev->SetRenderState(D3DRS_ALPHABLENDENABLE, FALSE) ;

  005e5	8b f4		 mov	 esi, esp
  005e7	6a 00		 push	 0
  005e9	6a 1b		 push	 27			; 0000001bH
  005eb	8b 45 08	 mov	 eax, DWORD PTR _pDev$[ebp]
  005ee	8b 08		 mov	 ecx, DWORD PTR [eax]
  005f0	8b 55 08	 mov	 edx, DWORD PTR _pDev$[ebp]
  005f3	52		 push	 edx
  005f4	ff 91 c8 00 00
	00		 call	 DWORD PTR [ecx+200]
  005fa	3b f4		 cmp	 esi, esp
  005fc	e8 00 00 00 00	 call	 __RTC_CheckEsp
$L94257:

; 1409 : 			}
; 1410 : 		}
; 1411 : 
; 1412 : 		//m_pFRO->m_pBBox->Render( pDev, pulPolyCount, &m_pFRO->m_matWorld );
; 1413 : 		return 1 ;

  00601	b8 01 00 00 00	 mov	 eax, 1
$L94248:

; 1414 : 	}

  00606	52		 push	 edx
  00607	8b cd		 mov	 ecx, ebp
  00609	50		 push	 eax
  0060a	8d 15 00 00 00
	00		 lea	 edx, DWORD PTR $L94889
  00610	e8 00 00 00 00	 call	 @_RTC_CheckStackVars@8
  00615	58		 pop	 eax
  00616	5a		 pop	 edx
  00617	5f		 pop	 edi
  00618	5e		 pop	 esi
  00619	5b		 pop	 ebx
  0061a	81 c4 14 01 00
	00		 add	 esp, 276		; 00000114H
  00620	3b ec		 cmp	 ebp, esp
  00622	e8 00 00 00 00	 call	 __RTC_CheckEsp
  00627	8b e5		 mov	 esp, ebp
  00629	5d		 pop	 ebp
  0062a	c2 2c 00	 ret	 44			; 0000002cH
$L94889:
  0062d	01 00 00 00	 DD	 1
  00631	00 00 00 00	 DD	 $L94888
$L94888:
  00635	b0 ff ff ff	 DD	 -80			; ffffffb0H
  00639	40 00 00 00	 DD	 64			; 00000040H
  0063d	00 00 00 00	 DD	 $L94887
$L94887:
  00641	6d		 DB	 109			; 0000006dH
  00642	61		 DB	 97			; 00000061H
  00643	74		 DB	 116			; 00000074H
  00644	00		 DB	 0
?Render@CFighter@@QAEHPAUIDirect3DDevice8@@PAVCTextures@@PAKPAVCCamera@@PAUD3DXMATRIX@@PAU_D3DVIEWPORT8@@4ABU5@6MABUD3DXVECTOR3@@@Z ENDP ; CFighter::Render
; Function compile flags: /Odt /RTCsu /ZI
; File c:\dxsdk\include\d3dx8math.inl
_TEXT	ENDS
;	COMDAT ??0D3DXCOLOR@@QAE@MMMM@Z
_TEXT	SEGMENT
_this$ = -8
_fr$ = 8
_fg$ = 12
_fb$ = 16
_fa$ = 20
??0D3DXCOLOR@@QAE@MMMM@Z PROC NEAR			; D3DXCOLOR::D3DXCOLOR, COMDAT
; _this$ = ecx

; 919  : {

  00000	55		 push	 ebp
  00001	8b ec		 mov	 ebp, esp
  00003	81 ec cc 00 00
	00		 sub	 esp, 204		; 000000ccH
  00009	53		 push	 ebx
  0000a	56		 push	 esi
  0000b	57		 push	 edi
  0000c	51		 push	 ecx
  0000d	8d bd 34 ff ff
	ff		 lea	 edi, DWORD PTR [ebp-204]
  00013	b9 33 00 00 00	 mov	 ecx, 51			; 00000033H
  00018	b8 cc cc cc cc	 mov	 eax, -858993460		; ccccccccH
  0001d	f3 ab		 rep stosd
  0001f	59		 pop	 ecx
  00020	89 4d f8	 mov	 DWORD PTR _this$[ebp], ecx

; 920  :     r = fr;

  00023	8b 45 f8	 mov	 eax, DWORD PTR _this$[ebp]
  00026	8b 4d 08	 mov	 ecx, DWORD PTR _fr$[ebp]
  00029	89 08		 mov	 DWORD PTR [eax], ecx

; 921  :     g = fg;

  0002b	8b 45 f8	 mov	 eax, DWORD PTR _this$[ebp]
  0002e	8b 4d 0c	 mov	 ecx, DWORD PTR _fg$[ebp]
  00031	89 48 04	 mov	 DWORD PTR [eax+4], ecx

; 922  :     b = fb;

  00034	8b 45 f8	 mov	 eax, DWORD PTR _this$[ebp]
  00037	8b 4d 10	 mov	 ecx, DWORD PTR _fb$[ebp]
  0003a	89 48 08	 mov	 DWORD PTR [eax+8], ecx

; 923  :     a = fa;

  0003d	8b 45 f8	 mov	 eax, DWORD PTR _this$[ebp]
  00040	8b 4d 14	 mov	 ecx, DWORD PTR _fa$[ebp]
  00043	89 48 0c	 mov	 DWORD PTR [eax+12], ecx

; 924  : }

  00046	8b 45 f8	 mov	 eax, DWORD PTR _this$[ebp]
  00049	5f		 pop	 edi
  0004a	5e		 pop	 esi
  0004b	5b		 pop	 ebx
  0004c	8b e5		 mov	 esp, ebp
  0004e	5d		 pop	 ebp
  0004f	c2 10 00	 ret	 16			; 00000010H
??0D3DXCOLOR@@QAE@MMMM@Z ENDP				; D3DXCOLOR::D3DXCOLOR
_TEXT	ENDS
PUBLIC	?RenderFX_Weapons@CFighter@@QAEHPAUIDirect3DDevice8@@PAVCTextures@@PAKHPAUD3DXMATRIX@@PAVCCamera@@3PAU_D3DVIEWPORT8@@PAVCTerrain@@PAUIDirect3DVertexBuffer8@@MPAHH@Z ; CFighter::RenderFX_Weapons
EXTRN	?Render@CParticleSystem@@QAEJPAUIDirect3DDevice8@@MPAKPAUIDirect3DVertexBuffer8@@PAUD3DXMATRIX@@H3@Z:NEAR ; CParticleSystem::Render
EXTRN	?FtoDW@@YAKM@Z:NEAR				; FtoDW
; Function compile flags: /Odt /RTCsu /ZI
; File c:\documents and settings\dom\my documents\_dev\ae\xlr8a\x7g\cfighter.cpp
;	COMDAT ?RenderFX_Weapons@CFighter@@QAEHPAUIDirect3DDevice8@@PAVCTextures@@PAKHPAUD3DXMATRIX@@PAVCCamera@@3PAU_D3DVIEWPORT8@@PAVCTerrain@@PAUIDirect3DVertexBuffer8@@MPAHH@Z
_TEXT	SEGMENT
tv221 = -316
tv213 = -312
tv208 = -308
_vMax$94288 = -108
_vMin$94287 = -88
_v4$94286 = -68
_bVisible$94283 = -44
_pProjectile$94278 = -32
_ret$ = -20
_this$ = -8
_pDev$ = 8
_pTex$ = 12
_pulPolyCount$ = 16
_ctCamMode$ = 20
_pmatCurWorld$ = 24
_pCam$ = 28
_pmatProj$ = 32
_pVP$ = 36
_pTerrain$ = 40
_pSharedParticleSystemVB$ = 44
_fFPS$ = 48
_pbMustPopulateVB$ = 52
_wtType$ = 56
?RenderFX_Weapons@CFighter@@QAEHPAUIDirect3DDevice8@@PAVCTextures@@PAKHPAUD3DXMATRIX@@PAVCCamera@@3PAU_D3DVIEWPORT8@@PAVCTerrain@@PAUIDirect3DVertexBuffer8@@MPAHH@Z PROC NEAR ; CFighter::RenderFX_Weapons, COMDAT
; _this$ = ecx

; 1429 : 	{

  00000	55		 push	 ebp
  00001	8b ec		 mov	 ebp, esp
  00003	81 ec 3c 01 00
	00		 sub	 esp, 316		; 0000013cH
  00009	53		 push	 ebx
  0000a	56		 push	 esi
  0000b	57		 push	 edi
  0000c	51		 push	 ecx
  0000d	8d bd c4 fe ff
	ff		 lea	 edi, DWORD PTR [ebp-316]
  00013	b9 4f 00 00 00	 mov	 ecx, 79			; 0000004fH
  00018	b8 cc cc cc cc	 mov	 eax, -858993460		; ccccccccH
  0001d	f3 ab		 rep stosd
  0001f	59		 pop	 ecx
  00020	89 4d f8	 mov	 DWORD PTR _this$[ebp], ecx

; 1430 : 		int ret = 0 ;

  00023	c7 45 ec 00 00
	00 00		 mov	 DWORD PTR _ret$[ebp], 0

; 1431 : 
; 1432 : 		pDev->SetRenderState( D3DRS_POINTSCALE_A, FtoDW(0.00f) );

  0002a	6a 00		 push	 0
  0002c	e8 00 00 00 00	 call	 ?FtoDW@@YAKM@Z		; FtoDW
  00031	83 c4 04	 add	 esp, 4
  00034	8b f4		 mov	 esi, esp
  00036	50		 push	 eax
  00037	68 9e 00 00 00	 push	 158			; 0000009eH
  0003c	8b 45 08	 mov	 eax, DWORD PTR _pDev$[ebp]
  0003f	8b 08		 mov	 ecx, DWORD PTR [eax]
  00041	8b 55 08	 mov	 edx, DWORD PTR _pDev$[ebp]
  00044	52		 push	 edx
  00045	ff 91 c8 00 00
	00		 call	 DWORD PTR [ecx+200]
  0004b	3b f4		 cmp	 esi, esp
  0004d	e8 00 00 00 00	 call	 __RTC_CheckEsp

; 1433 : 		pDev->SetRenderState( D3DRS_POINTSCALE_B, FtoDW(1.00f) );

  00052	68 00 00 80 3f	 push	 1065353216		; 3f800000H
  00057	e8 00 00 00 00	 call	 ?FtoDW@@YAKM@Z		; FtoDW
  0005c	83 c4 04	 add	 esp, 4
  0005f	8b f4		 mov	 esi, esp
  00061	50		 push	 eax
  00062	68 9f 00 00 00	 push	 159			; 0000009fH
  00067	8b 45 08	 mov	 eax, DWORD PTR _pDev$[ebp]
  0006a	8b 08		 mov	 ecx, DWORD PTR [eax]
  0006c	8b 55 08	 mov	 edx, DWORD PTR _pDev$[ebp]
  0006f	52		 push	 edx
  00070	ff 91 c8 00 00
	00		 call	 DWORD PTR [ecx+200]
  00076	3b f4		 cmp	 esi, esp
  00078	e8 00 00 00 00	 call	 __RTC_CheckEsp

; 1434 : 		pDev->SetRenderState( D3DRS_POINTSCALE_C, FtoDW(0.00f) );

  0007d	6a 00		 push	 0
  0007f	e8 00 00 00 00	 call	 ?FtoDW@@YAKM@Z		; FtoDW
  00084	83 c4 04	 add	 esp, 4
  00087	8b f4		 mov	 esi, esp
  00089	50		 push	 eax
  0008a	68 a0 00 00 00	 push	 160			; 000000a0H
  0008f	8b 45 08	 mov	 eax, DWORD PTR _pDev$[ebp]
  00092	8b 08		 mov	 ecx, DWORD PTR [eax]
  00094	8b 55 08	 mov	 edx, DWORD PTR _pDev$[ebp]
  00097	52		 push	 edx
  00098	ff 91 c8 00 00
	00		 call	 DWORD PTR [ecx+200]
  0009e	3b f4		 cmp	 esi, esp
  000a0	e8 00 00 00 00	 call	 __RTC_CheckEsp

; 1435 : 
; 1436 : 
; 1437 : 
; 1438 : 	// projectile particles;
; 1439 : 		if( m_nProjectiles > 0 )

  000a5	8b 45 f8	 mov	 eax, DWORD PTR _this$[ebp]
  000a8	83 b8 90 01 00
	00 00		 cmp	 DWORD PTR [eax+400], 0
  000af	0f 8e 21 02 00
	00		 jle	 $L94277

; 1440 : 		{
; 1441 : 			FIGHTER_PROJECTILE* pProjectile = m_pProjectiles ;

  000b5	8b 45 f8	 mov	 eax, DWORD PTR _this$[ebp]
  000b8	8b 88 8c 01 00
	00		 mov	 ecx, DWORD PTR [eax+396]
  000be	89 4d e0	 mov	 DWORD PTR _pProjectile$94278[ebp], ecx
$L94280:

; 1442 : 			while( pProjectile )

  000c1	83 7d e0 00	 cmp	 DWORD PTR _pProjectile$94278[ebp], 0
  000c5	0f 84 0b 02 00
	00		 je	 $L94277

; 1443 : 			{
; 1444 : 				if( pProjectile->Type == wtType )

  000cb	8b 45 e0	 mov	 eax, DWORD PTR _pProjectile$94278[ebp]
  000ce	8b 08		 mov	 ecx, DWORD PTR [eax]
  000d0	3b 4d 38	 cmp	 ecx, DWORD PTR _wtType$[ebp]
  000d3	0f 85 ec 01 00
	00		 jne	 $L94282

; 1445 : 				{
; 1446 : 					BOOL bVisible ;
; 1447 : 
; 1448 : 					if( !pProjectile->bImpacting )

  000d9	8b 45 e0	 mov	 eax, DWORD PTR _pProjectile$94278[ebp]
  000dc	83 b8 90 00 00
	00 00		 cmp	 DWORD PTR [eax+144], 0
  000e3	75 34		 jne	 SHORT $L94284

; 1449 : 						bVisible = GetBBoxVisibility( pDev, *pmatProj, pCam->m_matView, pVP, pProjectile->pBBox->m_vMin, pProjectile->pBBox->m_vMax );

  000e5	8b 45 e0	 mov	 eax, DWORD PTR _pProjectile$94278[ebp]
  000e8	8b 48 3c	 mov	 ecx, DWORD PTR [eax+60]
  000eb	83 c1 0c	 add	 ecx, 12			; 0000000cH
  000ee	51		 push	 ecx
  000ef	8b 55 e0	 mov	 edx, DWORD PTR _pProjectile$94278[ebp]
  000f2	8b 42 3c	 mov	 eax, DWORD PTR [edx+60]
  000f5	50		 push	 eax
  000f6	8b 4d 24	 mov	 ecx, DWORD PTR _pVP$[ebp]
  000f9	51		 push	 ecx
  000fa	8b 55 1c	 mov	 edx, DWORD PTR _pCam$[ebp]
  000fd	83 c2 30	 add	 edx, 48			; 00000030H
  00100	52		 push	 edx
  00101	8b 45 20	 mov	 eax, DWORD PTR _pmatProj$[ebp]
  00104	50		 push	 eax
  00105	8b 4d 08	 mov	 ecx, DWORD PTR _pDev$[ebp]
  00108	51		 push	 ecx
  00109	e8 00 00 00 00	 call	 ?GetBBoxVisibility@@YAHPAUIDirect3DDevice8@@ABUD3DXMATRIX@@1PAU_D3DVIEWPORT8@@ABUD3DXVECTOR3@@3@Z ; GetBBoxVisibility
  0010e	83 c4 18	 add	 esp, 24			; 00000018H
  00111	89 45 d4	 mov	 DWORD PTR _bVisible$94283[ebp], eax

; 1450 : 					else

  00114	e9 9c 00 00 00	 jmp	 $L94285
$L94284:

; 1451 : 					{
; 1452 : 						xVec4 v4 ;

  00119	8d 4d bc	 lea	 ecx, DWORD PTR _v4$94286[ebp]
  0011c	e8 00 00 00 00	 call	 ??0D3DXVECTOR4@@QAE@XZ	; D3DXVECTOR4::D3DXVECTOR4

; 1453 : 						xVec3 vMin, vMax ;

  00121	8d 4d a8	 lea	 ecx, DWORD PTR _vMin$94287[ebp]
  00124	e8 00 00 00 00	 call	 ??0D3DXVECTOR3@@QAE@XZ	; D3DXVECTOR3::D3DXVECTOR3
  00129	8d 4d 94	 lea	 ecx, DWORD PTR _vMax$94288[ebp]
  0012c	e8 00 00 00 00	 call	 ??0D3DXVECTOR3@@QAE@XZ	; D3DXVECTOR3::D3DXVECTOR3

; 1454 : 						D3DXVec3Transform( &v4, &pProjectile->pPS->m_vMin, &pProjectile->matWorld );

  00131	8b 45 e0	 mov	 eax, DWORD PTR _pProjectile$94278[ebp]
  00134	83 c0 44	 add	 eax, 68			; 00000044H
  00137	50		 push	 eax
  00138	8b 4d e0	 mov	 ecx, DWORD PTR _pProjectile$94278[ebp]
  0013b	8b 91 84 00 00
	00		 mov	 edx, DWORD PTR [ecx+132]
  00141	83 c2 20	 add	 edx, 32			; 00000020H
  00144	52		 push	 edx
  00145	8d 45 bc	 lea	 eax, DWORD PTR _v4$94286[ebp]
  00148	50		 push	 eax
  00149	e8 00 00 00 00	 call	 _D3DXVec3Transform@12

; 1455 : 						vMin.x = v4.x ;

  0014e	8b 45 bc	 mov	 eax, DWORD PTR _v4$94286[ebp]
  00151	89 45 a8	 mov	 DWORD PTR _vMin$94287[ebp], eax

; 1456 : 						vMin.y = v4.y ;

  00154	8b 45 c0	 mov	 eax, DWORD PTR _v4$94286[ebp+4]
  00157	89 45 ac	 mov	 DWORD PTR _vMin$94287[ebp+4], eax

; 1457 : 						vMin.z = v4.z ;

  0015a	8b 45 c4	 mov	 eax, DWORD PTR _v4$94286[ebp+8]
  0015d	89 45 b0	 mov	 DWORD PTR _vMin$94287[ebp+8], eax

; 1458 : 						D3DXVec3Transform( &v4, &pProjectile->pPS->m_vMax, &pProjectile->matWorld );

  00160	8b 45 e0	 mov	 eax, DWORD PTR _pProjectile$94278[ebp]
  00163	83 c0 44	 add	 eax, 68			; 00000044H
  00166	50		 push	 eax
  00167	8b 4d e0	 mov	 ecx, DWORD PTR _pProjectile$94278[ebp]
  0016a	8b 91 84 00 00
	00		 mov	 edx, DWORD PTR [ecx+132]
  00170	83 c2 2c	 add	 edx, 44			; 0000002cH
  00173	52		 push	 edx
  00174	8d 45 bc	 lea	 eax, DWORD PTR _v4$94286[ebp]
  00177	50		 push	 eax
  00178	e8 00 00 00 00	 call	 _D3DXVec3Transform@12

; 1459 : 						vMax.x = v4.x ;

  0017d	8b 45 bc	 mov	 eax, DWORD PTR _v4$94286[ebp]
  00180	89 45 94	 mov	 DWORD PTR _vMax$94288[ebp], eax

; 1460 : 						vMax.y = v4.y ;

  00183	8b 45 c0	 mov	 eax, DWORD PTR _v4$94286[ebp+4]
  00186	89 45 98	 mov	 DWORD PTR _vMax$94288[ebp+4], eax

; 1461 : 						vMax.z = v4.z ;

  00189	8b 45 c4	 mov	 eax, DWORD PTR _v4$94286[ebp+8]
  0018c	89 45 9c	 mov	 DWORD PTR _vMax$94288[ebp+8], eax

; 1462 : 						bVisible = GetBBoxVisibility( pDev, *pmatProj, pCam->m_matView, pVP, vMin, vMax );

  0018f	8d 45 94	 lea	 eax, DWORD PTR _vMax$94288[ebp]
  00192	50		 push	 eax
  00193	8d 4d a8	 lea	 ecx, DWORD PTR _vMin$94287[ebp]
  00196	51		 push	 ecx
  00197	8b 55 24	 mov	 edx, DWORD PTR _pVP$[ebp]
  0019a	52		 push	 edx
  0019b	8b 45 1c	 mov	 eax, DWORD PTR _pCam$[ebp]
  0019e	83 c0 30	 add	 eax, 48			; 00000030H
  001a1	50		 push	 eax
  001a2	8b 4d 20	 mov	 ecx, DWORD PTR _pmatProj$[ebp]
  001a5	51		 push	 ecx
  001a6	8b 55 08	 mov	 edx, DWORD PTR _pDev$[ebp]
  001a9	52		 push	 edx
  001aa	e8 00 00 00 00	 call	 ?GetBBoxVisibility@@YAHPAUIDirect3DDevice8@@ABUD3DXMATRIX@@1PAU_D3DVIEWPORT8@@ABUD3DXVECTOR3@@3@Z ; GetBBoxVisibility
  001af	83 c4 18	 add	 esp, 24			; 00000018H
  001b2	89 45 d4	 mov	 DWORD PTR _bVisible$94283[ebp], eax
$L94285:

; 1463 : 					}
; 1464 : 
; 1465 : 					if( bVisible )

  001b5	83 7d d4 00	 cmp	 DWORD PTR _bVisible$94283[ebp], 0
  001b9	0f 84 06 01 00
	00		 je	 $L94282

; 1466 : 					{
; 1467 : 					// render projectile particle system;
; 1468 : 						//if( pProjectile->bImpacting )
; 1469 : 						{
; 1470 : 							pDev->SetRenderState( D3DRS_SRCBLEND,  D3DBLEND_DESTCOLOR );

  001bf	8b f4		 mov	 esi, esp
  001c1	6a 09		 push	 9
  001c3	6a 13		 push	 19			; 00000013H
  001c5	8b 45 08	 mov	 eax, DWORD PTR _pDev$[ebp]
  001c8	8b 08		 mov	 ecx, DWORD PTR [eax]
  001ca	8b 55 08	 mov	 edx, DWORD PTR _pDev$[ebp]
  001cd	52		 push	 edx
  001ce	ff 91 c8 00 00
	00		 call	 DWORD PTR [ecx+200]
  001d4	3b f4		 cmp	 esi, esp
  001d6	e8 00 00 00 00	 call	 __RTC_CheckEsp

; 1471 : 							pDev->SetRenderState( D3DRS_DESTBLEND, D3DBLEND_DESTALPHA );

  001db	8b f4		 mov	 esi, esp
  001dd	6a 07		 push	 7
  001df	6a 14		 push	 20			; 00000014H
  001e1	8b 45 08	 mov	 eax, DWORD PTR _pDev$[ebp]
  001e4	8b 08		 mov	 ecx, DWORD PTR [eax]
  001e6	8b 55 08	 mov	 edx, DWORD PTR _pDev$[ebp]
  001e9	52		 push	 edx
  001ea	ff 91 c8 00 00
	00		 call	 DWORD PTR [ecx+200]
  001f0	3b f4		 cmp	 esi, esp
  001f2	e8 00 00 00 00	 call	 __RTC_CheckEsp

; 1472 : 						}
; 1473 : 						//else
; 1474 : 						{
; 1475 : 						}
; 1476 : 						pProjectile->pPS->Render( pDev,
; 1477 : 													!pProjectile->bImpacting ? 
; 1478 : 														pProjectile->fRenderSize :
; 1479 : 														pProjectile->fRenderSizeWhenImpacting,
; 1480 : 												  pulPolyCount,
; 1481 : 												  pSharedParticleSystemVB,
; 1482 : 												  pProjectile->bStaticPS ? &pProjectile->matWorld : NULL,
; 1483 : 													!pProjectile->bImpacting ? 
; 1484 : 														(*pbMustPopulateVB) :
; 1485 : 														(TRUE),
; 1486 : 												  pmatCurWorld );

  001f7	8b 45 e0	 mov	 eax, DWORD PTR _pProjectile$94278[ebp]
  001fa	83 b8 90 00 00
	00 00		 cmp	 DWORD PTR [eax+144], 0
  00201	75 0d		 jne	 SHORT $L94894
  00203	8b 4d 34	 mov	 ecx, DWORD PTR _pbMustPopulateVB$[ebp]
  00206	8b 11		 mov	 edx, DWORD PTR [ecx]
  00208	89 95 cc fe ff
	ff		 mov	 DWORD PTR tv208[ebp], edx
  0020e	eb 0a		 jmp	 SHORT $L94895
$L94894:
  00210	c7 85 cc fe ff
	ff 01 00 00 00	 mov	 DWORD PTR tv208[ebp], 1
$L94895:
  0021a	8b 45 e0	 mov	 eax, DWORD PTR _pProjectile$94278[ebp]
  0021d	83 78 40 00	 cmp	 DWORD PTR [eax+64], 0
  00221	74 0e		 je	 SHORT $L94896
  00223	8b 4d e0	 mov	 ecx, DWORD PTR _pProjectile$94278[ebp]
  00226	83 c1 44	 add	 ecx, 68			; 00000044H
  00229	89 8d c8 fe ff
	ff		 mov	 DWORD PTR tv213[ebp], ecx
  0022f	eb 0a		 jmp	 SHORT $L94897
$L94896:
  00231	c7 85 c8 fe ff
	ff 00 00 00 00	 mov	 DWORD PTR tv213[ebp], 0
$L94897:
  0023b	8b 55 e0	 mov	 edx, DWORD PTR _pProjectile$94278[ebp]
  0023e	83 ba 90 00 00
	00 00		 cmp	 DWORD PTR [edx+144], 0
  00245	75 11		 jne	 SHORT $L94898
  00247	8b 45 e0	 mov	 eax, DWORD PTR _pProjectile$94278[ebp]
  0024a	8b 88 88 00 00
	00		 mov	 ecx, DWORD PTR [eax+136]
  00250	89 8d c4 fe ff
	ff		 mov	 DWORD PTR tv221[ebp], ecx
  00256	eb 0f		 jmp	 SHORT $L94899
$L94898:
  00258	8b 55 e0	 mov	 edx, DWORD PTR _pProjectile$94278[ebp]
  0025b	8b 82 8c 00 00
	00		 mov	 eax, DWORD PTR [edx+140]
  00261	89 85 c4 fe ff
	ff		 mov	 DWORD PTR tv221[ebp], eax
$L94899:
  00267	8b 4d 18	 mov	 ecx, DWORD PTR _pmatCurWorld$[ebp]
  0026a	51		 push	 ecx
  0026b	8b 95 cc fe ff
	ff		 mov	 edx, DWORD PTR tv208[ebp]
  00271	52		 push	 edx
  00272	8b 85 c8 fe ff
	ff		 mov	 eax, DWORD PTR tv213[ebp]
  00278	50		 push	 eax
  00279	8b 4d 2c	 mov	 ecx, DWORD PTR _pSharedParticleSystemVB$[ebp]
  0027c	51		 push	 ecx
  0027d	8b 55 10	 mov	 edx, DWORD PTR _pulPolyCount$[ebp]
  00280	52		 push	 edx
  00281	8b 85 c4 fe ff
	ff		 mov	 eax, DWORD PTR tv221[ebp]
  00287	50		 push	 eax
  00288	8b 4d 08	 mov	 ecx, DWORD PTR _pDev$[ebp]
  0028b	51		 push	 ecx
  0028c	8b 55 e0	 mov	 edx, DWORD PTR _pProjectile$94278[ebp]
  0028f	8b 8a 84 00 00
	00		 mov	 ecx, DWORD PTR [edx+132]
  00295	e8 00 00 00 00	 call	 ?Render@CParticleSystem@@QAEJPAUIDirect3DDevice8@@MPAKPAUIDirect3DVertexBuffer8@@PAUD3DXMATRIX@@H3@Z ; CParticleSystem::Render

; 1487 : 						ret += *pbMustPopulateVB ;

  0029a	8b 45 34	 mov	 eax, DWORD PTR _pbMustPopulateVB$[ebp]
  0029d	8b 4d ec	 mov	 ecx, DWORD PTR _ret$[ebp]
  002a0	03 08		 add	 ecx, DWORD PTR [eax]
  002a2	89 4d ec	 mov	 DWORD PTR _ret$[ebp], ecx

; 1488 : 
; 1489 : 						if( pProjectile->bImpacting )

  002a5	8b 45 e0	 mov	 eax, DWORD PTR _pProjectile$94278[ebp]
  002a8	83 b8 90 00 00
	00 00		 cmp	 DWORD PTR [eax+144], 0
  002af	74 0b		 je	 SHORT $L94290

; 1490 : 							*pbMustPopulateVB = TRUE ;

  002b1	8b 45 34	 mov	 eax, DWORD PTR _pbMustPopulateVB$[ebp]
  002b4	c7 00 01 00 00
	00		 mov	 DWORD PTR [eax], 1

; 1491 : 						else

  002ba	eb 09		 jmp	 SHORT $L94282
$L94290:

; 1492 : 							*pbMustPopulateVB = FALSE ;

  002bc	8b 45 34	 mov	 eax, DWORD PTR _pbMustPopulateVB$[ebp]
  002bf	c7 00 00 00 00
	00		 mov	 DWORD PTR [eax], 0
$L94282:

; 1493 : 					}
; 1494 : 
; 1495 : 					/*if( !pProjectile->bImpacting )
; 1496 : 						pProjectile->pBBox->Render( pDev, pulPolyCount, NULL );
; 1497 : 					else
; 1498 : 					{
; 1499 : 						xVec4 v4 ;
; 1500 : 						xVec3 vMin, vMax ;
; 1501 : 						D3DXVec3Transform( &v4, &pProjectile->pPS->m_vMin, &pProjectile->matWorld );
; 1502 : 						vMin.x = v4.x ;
; 1503 : 						vMin.y = v4.y ;
; 1504 : 						vMin.z = v4.z ;
; 1505 : 						D3DXVec3Transform( &v4, &pProjectile->pPS->m_vMax, &pProjectile->matWorld );
; 1506 : 						vMax.x = v4.x ;
; 1507 : 						vMax.y = v4.y ;
; 1508 : 						vMax.z = v4.z ;
; 1509 : 						CBoundingBox bb( &vMin, &vMax );
; 1510 : 						bb.RestoreDeviceObjects( pDev );
; 1511 : 						bb.Render( pDev, pulPolyCount, NULL );
; 1512 : 					}*/
; 1513 : 				}
; 1514 : 				pProjectile = pProjectile->pNext ;

  002c5	8b 45 e0	 mov	 eax, DWORD PTR _pProjectile$94278[ebp]
  002c8	8b 88 ac 00 00
	00		 mov	 ecx, DWORD PTR [eax+172]
  002ce	89 4d e0	 mov	 DWORD PTR _pProjectile$94278[ebp], ecx

; 1515 : 			}

  002d1	e9 eb fd ff ff	 jmp	 $L94280
$L94277:

; 1516 : 		}
; 1517 : 		return ret ;

  002d6	8b 45 ec	 mov	 eax, DWORD PTR _ret$[ebp]

; 1518 : 	}

  002d9	52		 push	 edx
  002da	8b cd		 mov	 ecx, ebp
  002dc	50		 push	 eax
  002dd	8d 15 00 00 00
	00		 lea	 edx, DWORD PTR $L94904
  002e3	e8 00 00 00 00	 call	 @_RTC_CheckStackVars@8
  002e8	58		 pop	 eax
  002e9	5a		 pop	 edx
  002ea	5f		 pop	 edi
  002eb	5e		 pop	 esi
  002ec	5b		 pop	 ebx
  002ed	81 c4 3c 01 00
	00		 add	 esp, 316		; 0000013cH
  002f3	3b ec		 cmp	 ebp, esp
  002f5	e8 00 00 00 00	 call	 __RTC_CheckEsp
  002fa	8b e5		 mov	 esp, ebp
  002fc	5d		 pop	 ebp
  002fd	c2 34 00	 ret	 52			; 00000034H
$L94904:
  00300	03 00 00 00	 DD	 3
  00304	00 00 00 00	 DD	 $L94903
$L94903:
  00308	bc ff ff ff	 DD	 -68			; ffffffbcH
  0030c	10 00 00 00	 DD	 16			; 00000010H
  00310	00 00 00 00	 DD	 $L94900
  00314	a8 ff ff ff	 DD	 -88			; ffffffa8H
  00318	0c 00 00 00	 DD	 12			; 0000000cH
  0031c	00 00 00 00	 DD	 $L94901
  00320	94 ff ff ff	 DD	 -108			; ffffff94H
  00324	0c 00 00 00	 DD	 12			; 0000000cH
  00328	00 00 00 00	 DD	 $L94902
$L94902:
  0032c	76		 DB	 118			; 00000076H
  0032d	4d		 DB	 77			; 0000004dH
  0032e	61		 DB	 97			; 00000061H
  0032f	78		 DB	 120			; 00000078H
  00330	00		 DB	 0
$L94901:
  00331	76		 DB	 118			; 00000076H
  00332	4d		 DB	 77			; 0000004dH
  00333	69		 DB	 105			; 00000069H
  00334	6e		 DB	 110			; 0000006eH
  00335	00		 DB	 0
$L94900:
  00336	76		 DB	 118			; 00000076H
  00337	34		 DB	 52			; 00000034H
  00338	00		 DB	 0
?RenderFX_Weapons@CFighter@@QAEHPAUIDirect3DDevice8@@PAVCTextures@@PAKHPAUD3DXMATRIX@@PAVCCamera@@3PAU_D3DVIEWPORT8@@PAVCTerrain@@PAUIDirect3DVertexBuffer8@@MPAHH@Z ENDP ; CFighter::RenderFX_Weapons
_TEXT	ENDS
PUBLIC	?RenderFX_Contrails@CFighter@@QAEJPAUIDirect3DDevice8@@PAVCTextures@@PAKHPAUD3DXMATRIX@@PAVCCamera@@3PAU_D3DVIEWPORT8@@PAVCTerrain@@PAUIDirect3DVertexBuffer8@@MHH@Z ; CFighter::RenderFX_Contrails
PUBLIC	__real@41c80000
;	COMDAT __real@41c80000
CONST	SEGMENT
__real@41c80000 DD 041c80000r			; 25
; Function compile flags: /Odt /RTCsu /ZI
CONST	ENDS
;	COMDAT ?RenderFX_Contrails@CFighter@@QAEJPAUIDirect3DDevice8@@PAVCTextures@@PAKHPAUD3DXMATRIX@@PAVCCamera@@3PAU_D3DVIEWPORT8@@PAVCTerrain@@PAUIDirect3DVertexBuffer8@@MHH@Z
_TEXT	SEGMENT
_fParticleSize$94314 = -32
_i$94309 = -20
_this$ = -8
_pDev$ = 8
_pTex$ = 12
_pulPolyCount$ = 16
_ctCamMode$ = 20
_pmatCurWorld$ = 24
_pCam$ = 28
_pmatProj$ = 32
_pVP$ = 36
_pTerrain$ = 40
_pSharedParticleSystemVB$ = 44
_fFPS$ = 48
_SB$ = 52
_DB$ = 56
?RenderFX_Contrails@CFighter@@QAEJPAUIDirect3DDevice8@@PAVCTextures@@PAKHPAUD3DXMATRIX@@PAVCCamera@@3PAU_D3DVIEWPORT8@@PAVCTerrain@@PAUIDirect3DVertexBuffer8@@MHH@Z PROC NEAR ; CFighter::RenderFX_Contrails, COMDAT
; _this$ = ecx

; 1533 : 	{

  00000	55		 push	 ebp
  00001	8b ec		 mov	 ebp, esp
  00003	81 ec e4 00 00
	00		 sub	 esp, 228		; 000000e4H
  00009	53		 push	 ebx
  0000a	56		 push	 esi
  0000b	57		 push	 edi
  0000c	51		 push	 ecx
  0000d	8d bd 1c ff ff
	ff		 lea	 edi, DWORD PTR [ebp-228]
  00013	b9 39 00 00 00	 mov	 ecx, 57			; 00000039H
  00018	b8 cc cc cc cc	 mov	 eax, -858993460		; ccccccccH
  0001d	f3 ab		 rep stosd
  0001f	59		 pop	 ecx
  00020	89 4d f8	 mov	 DWORD PTR _this$[ebp], ecx

; 1534 : 		/* for emssion from origin - 
; 1535 : 		xMat matWorld ;
; 1536 : 		matWorld = *pmatCurWorld ;
; 1537 : 		D3DXMatrixTranslation( &matWorld, m_vPosition.x, m_vPosition.y, m_vPosition.z );*/
; 1538 : 
; 1539 : 		pDev->SetRenderState( D3DRS_POINTSCALE_A,  FtoDW(0.00f) );	// 0 works on GF2 better @ large distances. driver issue?

  00023	6a 00		 push	 0
  00025	e8 00 00 00 00	 call	 ?FtoDW@@YAKM@Z		; FtoDW
  0002a	83 c4 04	 add	 esp, 4
  0002d	8b f4		 mov	 esi, esp
  0002f	50		 push	 eax
  00030	68 9e 00 00 00	 push	 158			; 0000009eH
  00035	8b 45 08	 mov	 eax, DWORD PTR _pDev$[ebp]
  00038	8b 08		 mov	 ecx, DWORD PTR [eax]
  0003a	8b 55 08	 mov	 edx, DWORD PTR _pDev$[ebp]
  0003d	52		 push	 edx
  0003e	ff 91 c8 00 00
	00		 call	 DWORD PTR [ecx+200]
  00044	3b f4		 cmp	 esi, esp
  00046	e8 00 00 00 00	 call	 __RTC_CheckEsp

; 1540 : 		pDev->SetRenderState( D3DRS_POINTSCALE_B,  FtoDW(0.00f) );	// 1

  0004b	6a 00		 push	 0
  0004d	e8 00 00 00 00	 call	 ?FtoDW@@YAKM@Z		; FtoDW
  00052	83 c4 04	 add	 esp, 4
  00055	8b f4		 mov	 esi, esp
  00057	50		 push	 eax
  00058	68 9f 00 00 00	 push	 159			; 0000009fH
  0005d	8b 45 08	 mov	 eax, DWORD PTR _pDev$[ebp]
  00060	8b 08		 mov	 ecx, DWORD PTR [eax]
  00062	8b 55 08	 mov	 edx, DWORD PTR _pDev$[ebp]
  00065	52		 push	 edx
  00066	ff 91 c8 00 00
	00		 call	 DWORD PTR [ecx+200]
  0006c	3b f4		 cmp	 esi, esp
  0006e	e8 00 00 00 00	 call	 __RTC_CheckEsp

; 1541 : 		pDev->SetRenderState( D3DRS_POINTSCALE_C,  FtoDW(1.00f) );	// 0

  00073	68 00 00 80 3f	 push	 1065353216		; 3f800000H
  00078	e8 00 00 00 00	 call	 ?FtoDW@@YAKM@Z		; FtoDW
  0007d	83 c4 04	 add	 esp, 4
  00080	8b f4		 mov	 esi, esp
  00082	50		 push	 eax
  00083	68 a0 00 00 00	 push	 160			; 000000a0H
  00088	8b 45 08	 mov	 eax, DWORD PTR _pDev$[ebp]
  0008b	8b 08		 mov	 ecx, DWORD PTR [eax]
  0008d	8b 55 08	 mov	 edx, DWORD PTR _pDev$[ebp]
  00090	52		 push	 edx
  00091	ff 91 c8 00 00
	00		 call	 DWORD PTR [ecx+200]
  00097	3b f4		 cmp	 esi, esp
  00099	e8 00 00 00 00	 call	 __RTC_CheckEsp

; 1542 : 
; 1543 : 	// contrails
; 1544 : 		if( m_fsState == FS_NORMAL )

  0009e	8b 45 f8	 mov	 eax, DWORD PTR _this$[ebp]
  000a1	83 b8 a0 01 00
	00 00		 cmp	 DWORD PTR [eax+416], 0
  000a8	75 71		 jne	 SHORT $L94308

; 1545 : 		{
; 1546 : 			for( int i=0 ; i<m_nContrailEmitters ; i++ )

  000aa	c7 45 ec 00 00
	00 00		 mov	 DWORD PTR _i$94309[ebp], 0
  000b1	eb 09		 jmp	 SHORT $L94310
$L94311:
  000b3	8b 45 ec	 mov	 eax, DWORD PTR _i$94309[ebp]
  000b6	83 c0 01	 add	 eax, 1
  000b9	89 45 ec	 mov	 DWORD PTR _i$94309[ebp], eax
$L94310:
  000bc	8b 45 f8	 mov	 eax, DWORD PTR _this$[ebp]
  000bf	8b 4d ec	 mov	 ecx, DWORD PTR _i$94309[ebp]
  000c2	3b 48 40	 cmp	 ecx, DWORD PTR [eax+64]
  000c5	7d 54		 jge	 SHORT $L94308

; 1547 : 				if( m_pPS_Contrails[ i ] )

  000c7	8b 45 ec	 mov	 eax, DWORD PTR _i$94309[ebp]
  000ca	8b 4d f8	 mov	 ecx, DWORD PTR _this$[ebp]
  000cd	83 7c 81 74 00	 cmp	 DWORD PTR [ecx+eax*4+116], 0
  000d2	74 45		 je	 SHORT $L94313

; 1548 : 				{
; 1549 : 					// visibility check is disabled; we have a visibility bug - we probably don't need visibility check anyway
; 1550 : 					// as contrails are disabled for bots.
; 1551 : 					// TODO: take out the AABB-frustrum check.
; 1552 : 
; 1553 : 					//if( m_bContrailVisible[ i ] )
; 1554 : 					{
; 1555 : 						float fParticleSize = m_pFRO->m_fScaledLargestSide / 25 * m_fContrailSize ;

  000d4	8b 45 f8	 mov	 eax, DWORD PTR _this$[ebp]
  000d7	8b 48 2c	 mov	 ecx, DWORD PTR [eax+44]
  000da	d9 81 d0 00 00
	00		 fld	 DWORD PTR [ecx+208]
  000e0	d8 35 00 00 00
	00		 fdiv	 DWORD PTR __real@41c80000
  000e6	8b 55 f8	 mov	 edx, DWORD PTR _this$[ebp]
  000e9	d8 8a b4 00 00
	00		 fmul	 DWORD PTR [edx+180]
  000ef	d9 5d e0	 fstp	 DWORD PTR _fParticleSize$94314[ebp]

; 1556 : 						m_pPS_Contrails[ i ]->Render( pDev,
; 1557 : 													  fParticleSize,
; 1558 : 													  pulPolyCount,
; 1559 : 													  pSharedParticleSystemVB,
; 1560 : 													  /*&matWorld*/NULL,
; 1561 : 													  TRUE,
; 1562 : 													  pmatCurWorld );

  000f2	8b 45 18	 mov	 eax, DWORD PTR _pmatCurWorld$[ebp]
  000f5	50		 push	 eax
  000f6	6a 01		 push	 1
  000f8	6a 00		 push	 0
  000fa	8b 4d 2c	 mov	 ecx, DWORD PTR _pSharedParticleSystemVB$[ebp]
  000fd	51		 push	 ecx
  000fe	8b 55 10	 mov	 edx, DWORD PTR _pulPolyCount$[ebp]
  00101	52		 push	 edx
  00102	8b 45 e0	 mov	 eax, DWORD PTR _fParticleSize$94314[ebp]
  00105	50		 push	 eax
  00106	8b 4d 08	 mov	 ecx, DWORD PTR _pDev$[ebp]
  00109	51		 push	 ecx
  0010a	8b 55 ec	 mov	 edx, DWORD PTR _i$94309[ebp]
  0010d	8b 45 f8	 mov	 eax, DWORD PTR _this$[ebp]
  00110	8b 4c 90 74	 mov	 ecx, DWORD PTR [eax+edx*4+116]
  00114	e8 00 00 00 00	 call	 ?Render@CParticleSystem@@QAEJPAUIDirect3DDevice8@@MPAKPAUIDirect3DVertexBuffer8@@PAUD3DXMATRIX@@H3@Z ; CParticleSystem::Render
$L94313:

; 1563 : 						
; 1564 : 					}
; 1565 : 						/*CBoundingBox bb( &m_pPS_Contrails[ i ]->m_vMin, &m_pPS_Contrails[ i ]->m_vMax );
; 1566 : 						bb.RestoreDeviceObjects( pDev );
; 1567 : 						bb.Render( pDev, pulPolyCount, NULL );*/
; 1568 : 				}
; 1569 : 		}

  00119	eb 98		 jmp	 SHORT $L94311
$L94308:

; 1570 : 		return S_OK ;

  0011b	33 c0		 xor	 eax, eax

; 1571 : 	}

  0011d	5f		 pop	 edi
  0011e	5e		 pop	 esi
  0011f	5b		 pop	 ebx
  00120	81 c4 e4 00 00
	00		 add	 esp, 228		; 000000e4H
  00126	3b ec		 cmp	 ebp, esp
  00128	e8 00 00 00 00	 call	 __RTC_CheckEsp
  0012d	8b e5		 mov	 esp, ebp
  0012f	5d		 pop	 ebp
  00130	c2 34 00	 ret	 52			; 00000034H
?RenderFX_Contrails@CFighter@@QAEJPAUIDirect3DDevice8@@PAVCTextures@@PAKHPAUD3DXMATRIX@@PAVCCamera@@3PAU_D3DVIEWPORT8@@PAVCTerrain@@PAUIDirect3DVertexBuffer8@@MHH@Z ENDP ; CFighter::RenderFX_Contrails
_TEXT	ENDS
PUBLIC	__real@3ea8f5c3
PUBLIC	__real@3f28f5c3
EXTRN	?Reset@CExplosion@@QAEHXZ:NEAR			; CExplosion::Reset
;	COMDAT __real@3ea8f5c3
CONST	SEGMENT
__real@3ea8f5c3 DD 03ea8f5c3r			; 0.33
CONST	ENDS
;	COMDAT __real@3f28f5c3
CONST	SEGMENT
__real@3f28f5c3 DD 03f28f5c3r			; 0.66
; Function compile flags: /Odt /RTCsu /ZI
CONST	ENDS
;	COMDAT ?StartExplosionEffect@CFighter@@QAEXPAVCRace@@@Z
_TEXT	SEGMENT
_s$ = -20
_this$ = -8
_pRace$ = 8
?StartExplosionEffect@CFighter@@QAEXPAVCRace@@@Z PROC NEAR ; CFighter::StartExplosionEffect, COMDAT
; _this$ = ecx

; 1574 : 	{

  00000	55		 push	 ebp
  00001	8b ec		 mov	 ebp, esp
  00003	81 ec d8 00 00
	00		 sub	 esp, 216		; 000000d8H
  00009	53		 push	 ebx
  0000a	56		 push	 esi
  0000b	57		 push	 edi
  0000c	51		 push	 ecx
  0000d	8d bd 28 ff ff
	ff		 lea	 edi, DWORD PTR [ebp-216]
  00013	b9 36 00 00 00	 mov	 ecx, 54			; 00000036H
  00018	b8 cc cc cc cc	 mov	 eax, -858993460		; ccccccccH
  0001d	f3 ab		 rep stosd
  0001f	59		 pop	 ecx
  00020	89 4d f8	 mov	 DWORD PTR _this$[ebp], ecx

; 1575 : 		m_fsState = FS_EXPLODING ;

  00023	8b 45 f8	 mov	 eax, DWORD PTR _this$[ebp]
  00026	c7 80 a0 01 00
	00 01 00 00 00	 mov	 DWORD PTR [eax+416], 1

; 1576 : 		m_fExpAge = 0.0f ;

  00030	8b 45 f8	 mov	 eax, DWORD PTR _this$[ebp]
  00033	c7 40 3c 00 00
	00 00		 mov	 DWORD PTR [eax+60], 0

; 1577 : 		m_pExp->Reset() ;

  0003a	8b 45 f8	 mov	 eax, DWORD PTR _this$[ebp]
  0003d	8b 48 34	 mov	 ecx, DWORD PTR [eax+52]
  00040	e8 00 00 00 00	 call	 ?Reset@CExplosion@@QAEHXZ ; CExplosion::Reset

; 1578 : 
; 1579 : 		float s = rnd() ;

  00045	e8 00 00 00 00	 call	 ?rnd@@YAMXZ		; rnd
  0004a	d9 5d ec	 fstp	 DWORD PTR _s$[ebp]

; 1580 : 		if( s < 0.33f )

  0004d	d9 45 ec	 fld	 DWORD PTR _s$[ebp]
  00050	d8 1d 00 00 00
	00		 fcomp	 DWORD PTR __real@3ea8f5c3
  00056	df e0		 fnstsw	 ax
  00058	f6 c4 05	 test	 ah, 5
  0005b	7a 25		 jp	 SHORT $L94321

; 1581 : 			pRace->m_pX7->m_pSound->PlaySFX3D( SFX_EXP2, &m_vPosition, NULL, 0.85f );

  0005d	68 9a 99 59 3f	 push	 1062836634		; 3f59999aH
  00062	6a 00		 push	 0
  00064	8b 45 f8	 mov	 eax, DWORD PTR _this$[ebp]
  00067	05 fc 01 00 00	 add	 eax, 508		; 000001fcH
  0006c	50		 push	 eax
  0006d	6a 04		 push	 4
  0006f	8b 4d 08	 mov	 ecx, DWORD PTR _pRace$[ebp]
  00072	8b 51 38	 mov	 edx, DWORD PTR [ecx+56]
  00075	8b 8a 00 a9 02
	00		 mov	 ecx, DWORD PTR [edx+174336]
  0007b	e8 00 00 00 00	 call	 ?PlaySFX3D@CSoundManager@@QAEHHPAUD3DXVECTOR3@@0M@Z ; CSoundManager::PlaySFX3D

; 1582 : 		else if( s < 0.66f ) 

  00080	eb 58		 jmp	 SHORT $L94322
$L94321:
  00082	d9 45 ec	 fld	 DWORD PTR _s$[ebp]
  00085	d8 1d 00 00 00
	00		 fcomp	 DWORD PTR __real@3f28f5c3
  0008b	df e0		 fnstsw	 ax
  0008d	f6 c4 05	 test	 ah, 5
  00090	7a 25		 jp	 SHORT $L94323

; 1583 : 			pRace->m_pX7->m_pSound->PlaySFX3D( SFX_EXP1, &m_vPosition, NULL, 1 );

  00092	68 00 00 80 3f	 push	 1065353216		; 3f800000H
  00097	6a 00		 push	 0
  00099	8b 45 f8	 mov	 eax, DWORD PTR _this$[ebp]
  0009c	05 fc 01 00 00	 add	 eax, 508		; 000001fcH
  000a1	50		 push	 eax
  000a2	6a 03		 push	 3
  000a4	8b 4d 08	 mov	 ecx, DWORD PTR _pRace$[ebp]
  000a7	8b 51 38	 mov	 edx, DWORD PTR [ecx+56]
  000aa	8b 8a 00 a9 02
	00		 mov	 ecx, DWORD PTR [edx+174336]
  000b0	e8 00 00 00 00	 call	 ?PlaySFX3D@CSoundManager@@QAEHHPAUD3DXVECTOR3@@0M@Z ; CSoundManager::PlaySFX3D

; 1584 : 		else

  000b5	eb 23		 jmp	 SHORT $L94322
$L94323:

; 1585 : 			pRace->m_pX7->m_pSound->PlaySFX3D( SFX_EXP3, &m_vPosition, NULL, 0.95f );

  000b7	68 33 33 73 3f	 push	 1064514355		; 3f733333H
  000bc	6a 00		 push	 0
  000be	8b 45 f8	 mov	 eax, DWORD PTR _this$[ebp]
  000c1	05 fc 01 00 00	 add	 eax, 508		; 000001fcH
  000c6	50		 push	 eax
  000c7	6a 05		 push	 5
  000c9	8b 4d 08	 mov	 ecx, DWORD PTR _pRace$[ebp]
  000cc	8b 51 38	 mov	 edx, DWORD PTR [ecx+56]
  000cf	8b 8a 00 a9 02
	00		 mov	 ecx, DWORD PTR [edx+174336]
  000d5	e8 00 00 00 00	 call	 ?PlaySFX3D@CSoundManager@@QAEHHPAUD3DXVECTOR3@@0M@Z ; CSoundManager::PlaySFX3D
$L94322:

; 1586 : 
; 1587 : 		if( m_bUserFighter )

  000da	8b 45 f8	 mov	 eax, DWORD PTR _this$[ebp]
  000dd	83 b8 1c 03 00
	00 00		 cmp	 DWORD PTR [eax+796], 0
  000e4	74 23		 je	 SHORT $L94319

; 1588 : 			pRace->m_pX7->m_pSound->PlaySFX3D( SFX_HUMILIATION, &m_vPosition, NULL, 1 );

  000e6	68 00 00 80 3f	 push	 1065353216		; 3f800000H
  000eb	6a 00		 push	 0
  000ed	8b 45 f8	 mov	 eax, DWORD PTR _this$[ebp]
  000f0	05 fc 01 00 00	 add	 eax, 508		; 000001fcH
  000f5	50		 push	 eax
  000f6	6a 0a		 push	 10			; 0000000aH
  000f8	8b 4d 08	 mov	 ecx, DWORD PTR _pRace$[ebp]
  000fb	8b 51 38	 mov	 edx, DWORD PTR [ecx+56]
  000fe	8b 8a 00 a9 02
	00		 mov	 ecx, DWORD PTR [edx+174336]
  00104	e8 00 00 00 00	 call	 ?PlaySFX3D@CSoundManager@@QAEHHPAUD3DXVECTOR3@@0M@Z ; CSoundManager::PlaySFX3D
$L94319:

; 1589 : 
; 1590 : 	}

  00109	5f		 pop	 edi
  0010a	5e		 pop	 esi
  0010b	5b		 pop	 ebx
  0010c	81 c4 d8 00 00
	00		 add	 esp, 216		; 000000d8H
  00112	3b ec		 cmp	 ebp, esp
  00114	e8 00 00 00 00	 call	 __RTC_CheckEsp
  00119	8b e5		 mov	 esp, ebp
  0011b	5d		 pop	 ebp
  0011c	c2 04 00	 ret	 4
?StartExplosionEffect@CFighter@@QAEXPAVCRace@@@Z ENDP	; CFighter::StartExplosionEffect
_TEXT	ENDS
PUBLIC	?RenderFX_Explosion@CFighter@@QAEJPAUIDirect3DDevice8@@PAVCTextures@@PAKHPAUD3DXMATRIX@@PAVCCamera@@3PAU_D3DVIEWPORT8@@PAVCTerrain@@PAUIDirect3DVertexBuffer8@@MHH@Z ; CFighter::RenderFX_Explosion
PUBLIC	__real@43000000
PUBLIC	__real@42000000
EXTRN	?Render@CExplosion@@QAEJPAUIDirect3DDevice8@@PAVCTextures@@PAKPAVCCamera@@MPAUD3DXVECTOR3@@MPAUIDirect3DVertexBuffer8@@HH@Z:NEAR ; CExplosion::Render
;	COMDAT __real@43000000
CONST	SEGMENT
__real@43000000 DD 043000000r			; 128
CONST	ENDS
;	COMDAT __real@42000000
CONST	SEGMENT
__real@42000000 DD 042000000r			; 32
; Function compile flags: /Odt /RTCsu /ZI
CONST	ENDS
;	COMDAT ?RenderFX_Explosion@CFighter@@QAEJPAUIDirect3DDevice8@@PAVCTextures@@PAKHPAUD3DXMATRIX@@PAVCCamera@@3PAU_D3DVIEWPORT8@@PAVCTerrain@@PAUIDirect3DVertexBuffer8@@MHH@Z
_TEXT	SEGMENT
_fExplosionSize$94343 = -20
_this$ = -8
_pDev$ = 8
_pTex$ = 12
_pulPolyCount$ = 16
_ctCamMode$ = 20
_pmatCurWorld$ = 24
_pCam$ = 28
_pmatProj$ = 32
_pVP$ = 36
_pTerrain$ = 40
_pSharedParticleSystemVB$ = 44
_fFPS$ = 48
_SB$ = 52
_DB$ = 56
?RenderFX_Explosion@CFighter@@QAEJPAUIDirect3DDevice8@@PAVCTextures@@PAKHPAUD3DXMATRIX@@PAVCCamera@@3PAU_D3DVIEWPORT8@@PAVCTerrain@@PAUIDirect3DVertexBuffer8@@MHH@Z PROC NEAR ; CFighter::RenderFX_Explosion, COMDAT
; _this$ = ecx

; 1605 : 	{

  00000	55		 push	 ebp
  00001	8b ec		 mov	 ebp, esp
  00003	81 ec d8 00 00
	00		 sub	 esp, 216		; 000000d8H
  00009	53		 push	 ebx
  0000a	56		 push	 esi
  0000b	57		 push	 edi
  0000c	51		 push	 ecx
  0000d	8d bd 28 ff ff
	ff		 lea	 edi, DWORD PTR [ebp-216]
  00013	b9 36 00 00 00	 mov	 ecx, 54			; 00000036H
  00018	b8 cc cc cc cc	 mov	 eax, -858993460		; ccccccccH
  0001d	f3 ab		 rep stosd
  0001f	59		 pop	 ecx
  00020	89 4d f8	 mov	 DWORD PTR _this$[ebp], ecx

; 1606 : 	// billboard explosion
; 1607 : 		if( m_fsState == FS_EXPLODING )

  00023	8b 45 f8	 mov	 eax, DWORD PTR _this$[ebp]
  00026	83 b8 a0 01 00
	00 01		 cmp	 DWORD PTR [eax+416], 1
  0002d	75 6d		 jne	 SHORT $L94342

; 1608 : 		{
; 1609 : 			float fExplosionSize = 5 ;

  0002f	c7 45 ec 00 00
	a0 40		 mov	 DWORD PTR _fExplosionSize$94343[ebp], 1084227584 ; 40a00000H

; 1610 : 		
; 1611 : 			m_pExp->Render( pDev,
; 1612 : 							pTex,
; 1613 : 							pulPolyCount,
; 1614 : 							pCam,
; 1615 : 							m_pFRO->m_pRenderData->m_fBSphereRadius * 32 * fExplosionSize,
; 1616 : 							&m_vPosition,
; 1617 : 							m_pFRO->m_pRenderData->m_fBSphereRadius * 128 * fExplosionSize, 							pSharedParticleSystemVB,
; 1618 : 							SB, DB );

  00036	8b 45 38	 mov	 eax, DWORD PTR _DB$[ebp]
  00039	50		 push	 eax
  0003a	8b 4d 34	 mov	 ecx, DWORD PTR _SB$[ebp]
  0003d	51		 push	 ecx
  0003e	8b 55 2c	 mov	 edx, DWORD PTR _pSharedParticleSystemVB$[ebp]
  00041	52		 push	 edx
  00042	8b 45 f8	 mov	 eax, DWORD PTR _this$[ebp]
  00045	8b 48 2c	 mov	 ecx, DWORD PTR [eax+44]
  00048	8b 11		 mov	 edx, DWORD PTR [ecx]
  0004a	d9 82 38 01 00
	00		 fld	 DWORD PTR [edx+312]
  00050	d8 0d 00 00 00
	00		 fmul	 DWORD PTR __real@43000000
  00056	d8 4d ec	 fmul	 DWORD PTR _fExplosionSize$94343[ebp]
  00059	51		 push	 ecx
  0005a	d9 1c 24	 fstp	 DWORD PTR [esp]
  0005d	8b 45 f8	 mov	 eax, DWORD PTR _this$[ebp]
  00060	05 fc 01 00 00	 add	 eax, 508		; 000001fcH
  00065	50		 push	 eax
  00066	8b 4d f8	 mov	 ecx, DWORD PTR _this$[ebp]
  00069	8b 51 2c	 mov	 edx, DWORD PTR [ecx+44]
  0006c	8b 02		 mov	 eax, DWORD PTR [edx]
  0006e	d9 80 38 01 00
	00		 fld	 DWORD PTR [eax+312]
  00074	d8 0d 00 00 00
	00		 fmul	 DWORD PTR __real@42000000
  0007a	d8 4d ec	 fmul	 DWORD PTR _fExplosionSize$94343[ebp]
  0007d	51		 push	 ecx
  0007e	d9 1c 24	 fstp	 DWORD PTR [esp]
  00081	8b 4d 1c	 mov	 ecx, DWORD PTR _pCam$[ebp]
  00084	51		 push	 ecx
  00085	8b 55 10	 mov	 edx, DWORD PTR _pulPolyCount$[ebp]
  00088	52		 push	 edx
  00089	8b 45 0c	 mov	 eax, DWORD PTR _pTex$[ebp]
  0008c	50		 push	 eax
  0008d	8b 4d 08	 mov	 ecx, DWORD PTR _pDev$[ebp]
  00090	51		 push	 ecx
  00091	8b 55 f8	 mov	 edx, DWORD PTR _this$[ebp]
  00094	8b 4a 34	 mov	 ecx, DWORD PTR [edx+52]
  00097	e8 00 00 00 00	 call	 ?Render@CExplosion@@QAEJPAUIDirect3DDevice8@@PAVCTextures@@PAKPAVCCamera@@MPAUD3DXVECTOR3@@MPAUIDirect3DVertexBuffer8@@HH@Z ; CExplosion::Render
$L94342:

; 1619 : 		}
; 1620 : 		return S_OK ;

  0009c	33 c0		 xor	 eax, eax

; 1621 : 	}

  0009e	5f		 pop	 edi
  0009f	5e		 pop	 esi
  000a0	5b		 pop	 ebx
  000a1	81 c4 d8 00 00
	00		 add	 esp, 216		; 000000d8H
  000a7	3b ec		 cmp	 ebp, esp
  000a9	e8 00 00 00 00	 call	 __RTC_CheckEsp
  000ae	8b e5		 mov	 esp, ebp
  000b0	5d		 pop	 ebp
  000b1	c2 34 00	 ret	 52			; 00000034H
?RenderFX_Explosion@CFighter@@QAEJPAUIDirect3DDevice8@@PAVCTextures@@PAKHPAUD3DXMATRIX@@PAVCCamera@@3PAU_D3DVIEWPORT8@@PAVCTerrain@@PAUIDirect3DVertexBuffer8@@MHH@Z ENDP ; CFighter::RenderFX_Explosion
_TEXT	ENDS
PUBLIC	__real@40c00000
;	COMDAT __real@40c00000
CONST	SEGMENT
__real@40c00000 DD 040c00000r			; 6
; Function compile flags: /Odt /RTCsu /ZI
CONST	ENDS
;	COMDAT ?StartShieldEffect@CFighter@@QAEXMPAVCRace@@@Z
_TEXT	SEGMENT
_this$ = -8
_fDamage$ = 8
_pRace$ = 12
?StartShieldEffect@CFighter@@QAEXMPAVCRace@@@Z PROC NEAR ; CFighter::StartShieldEffect, COMDAT
; _this$ = ecx

; 1624 : 	{

  00000	55		 push	 ebp
  00001	8b ec		 mov	 ebp, esp
  00003	81 ec cc 00 00
	00		 sub	 esp, 204		; 000000ccH
  00009	53		 push	 ebx
  0000a	56		 push	 esi
  0000b	57		 push	 edi
  0000c	51		 push	 ecx
  0000d	8d bd 34 ff ff
	ff		 lea	 edi, DWORD PTR [ebp-204]
  00013	b9 33 00 00 00	 mov	 ecx, 51			; 00000033H
  00018	b8 cc cc cc cc	 mov	 eax, -858993460		; ccccccccH
  0001d	f3 ab		 rep stosd
  0001f	59		 pop	 ecx
  00020	89 4d f8	 mov	 DWORD PTR _this$[ebp], ecx

; 1625 : 		if( !m_bShowingShieldEffect )

  00023	8b 45 f8	 mov	 eax, DWORD PTR _this$[ebp]
  00026	83 b8 94 01 00
	00 00		 cmp	 DWORD PTR [eax+404], 0
  0002d	75 5b		 jne	 SHORT $L94349

; 1626 : 		{
; 1627 : 			m_bShowingShieldEffect = TRUE ;

  0002f	8b 45 f8	 mov	 eax, DWORD PTR _this$[ebp]
  00032	c7 80 94 01 00
	00 01 00 00 00	 mov	 DWORD PTR [eax+404], 1

; 1628 : 			m_fShieldEffectLifetime = fDamage * 6.0f ;

  0003c	d9 45 08	 fld	 DWORD PTR _fDamage$[ebp]
  0003f	d8 0d 00 00 00
	00		 fmul	 DWORD PTR __real@40c00000
  00045	8b 45 f8	 mov	 eax, DWORD PTR _this$[ebp]
  00048	d9 98 98 01 00
	00		 fstp	 DWORD PTR [eax+408]

; 1629 : 			m_fShieldEffectAge = 0.0f ;

  0004e	8b 45 f8	 mov	 eax, DWORD PTR _this$[ebp]
  00051	c7 80 9c 01 00
	00 00 00 00 00	 mov	 DWORD PTR [eax+412], 0

; 1630 : 			
; 1631 : 			if( m_bUserFighter )

  0005b	8b 45 f8	 mov	 eax, DWORD PTR _this$[ebp]
  0005e	83 b8 1c 03 00
	00 00		 cmp	 DWORD PTR [eax+796], 0
  00065	74 23		 je	 SHORT $L94349

; 1632 : 				pRace->m_pX7->m_pSound->PlaySFX3D( SFX_SHIELDHIT1, &m_vPosition, NULL, 1 );

  00067	68 00 00 80 3f	 push	 1065353216		; 3f800000H
  0006c	6a 00		 push	 0
  0006e	8b 45 f8	 mov	 eax, DWORD PTR _this$[ebp]
  00071	05 fc 01 00 00	 add	 eax, 508		; 000001fcH
  00076	50		 push	 eax
  00077	6a 07		 push	 7
  00079	8b 4d 0c	 mov	 ecx, DWORD PTR _pRace$[ebp]
  0007c	8b 51 38	 mov	 edx, DWORD PTR [ecx+56]
  0007f	8b 8a 00 a9 02
	00		 mov	 ecx, DWORD PTR [edx+174336]
  00085	e8 00 00 00 00	 call	 ?PlaySFX3D@CSoundManager@@QAEHHPAUD3DXVECTOR3@@0M@Z ; CSoundManager::PlaySFX3D
$L94349:

; 1633 : 		}
; 1634 : 	}

  0008a	5f		 pop	 edi
  0008b	5e		 pop	 esi
  0008c	5b		 pop	 ebx
  0008d	81 c4 cc 00 00
	00		 add	 esp, 204		; 000000ccH
  00093	3b ec		 cmp	 ebp, esp
  00095	e8 00 00 00 00	 call	 __RTC_CheckEsp
  0009a	8b e5		 mov	 esp, ebp
  0009c	5d		 pop	 ebp
  0009d	c2 08 00	 ret	 8
?StartShieldEffect@CFighter@@QAEXMPAVCRace@@@Z ENDP	; CFighter::StartShieldEffect
_TEXT	ENDS
PUBLIC	?__LINE__Var@?1??RenderFX_Shield@CFighter@@QAEJPAUIDirect3DDevice8@@PAVCTextures@@PAKHPAUD3DXMATRIX@@PAVCCamera@@3PAU_D3DVIEWPORT8@@PAVCTerrain@@PAUIDirect3DVertexBuffer8@@MHH@Z@4JA ; `CFighter::RenderFX_Shield'::`2'::__LINE__Var
PUBLIC	??_C@_0L@KJLEIMLM@D3D_OK?$DN?$DNhr?$AA@		; `string'
PUBLIC	?RenderFX_Shield@CFighter@@QAEJPAUIDirect3DDevice8@@PAVCTextures@@PAKHPAUD3DXMATRIX@@PAVCCamera@@3PAU_D3DVIEWPORT8@@PAVCTerrain@@PAUIDirect3DVertexBuffer8@@MHH@Z ; CFighter::RenderFX_Shield
PUBLIC	__real@3e4ccccd
PUBLIC	__real@3e99999a
EXTRN	_D3DXMatrixScaling@16:NEAR
EXTRN	_D3DXMatrixRotationX@8:NEAR
EXTRN	_D3DXMatrixRotationY@8:NEAR
EXTRN	_D3DXMatrixRotationZ@8:NEAR
EXTRN	?SetupSpecularMaterial@@YAXPAU_D3DMATERIAL8@@MMMM@Z:NEAR ; SetupSpecularMaterial
;	COMDAT __real@3e4ccccd
CONST	SEGMENT
__real@3e4ccccd DD 03e4ccccdr			; 0.2
CONST	ENDS
;	COMDAT __real@3e99999a
CONST	SEGMENT
__real@3e99999a DD 03e99999ar			; 0.3
CONST	ENDS
;	COMDAT ?__LINE__Var@?1??RenderFX_Shield@CFighter@@QAEJPAUIDirect3DDevice8@@PAVCTextures@@PAKHPAUD3DXMATRIX@@PAVCCamera@@3PAU_D3DVIEWPORT8@@PAVCTerrain@@PAUIDirect3DVertexBuffer8@@MHH@Z@4JA
_DATA	SEGMENT
?__LINE__Var@?1??RenderFX_Shield@CFighter@@QAEJPAUIDirect3DDevice8@@PAVCTextures@@PAKHPAUD3DXMATRIX@@PAVCCamera@@3PAU_D3DVIEWPORT8@@PAVCTerrain@@PAUIDirect3DVertexBuffer8@@MHH@Z@4JA DD 0671H ; `CFighter::RenderFX_Shield'::`2'::__LINE__Var
_DATA	ENDS
;	COMDAT ??_C@_0L@KJLEIMLM@D3D_OK?$DN?$DNhr?$AA@
CONST	SEGMENT
??_C@_0L@KJLEIMLM@D3D_OK?$DN?$DNhr?$AA@ DB 'D3D_OK==hr', 00H ; `string'
; Function compile flags: /Odt /RTCsu /ZI
CONST	ENDS
;	COMDAT ?RenderFX_Shield@CFighter@@QAEJPAUIDirect3DDevice8@@PAVCTextures@@PAKHPAUD3DXMATRIX@@PAVCCamera@@3PAU_D3DVIEWPORT8@@PAVCTerrain@@PAUIDirect3DVertexBuffer8@@MHH@Z
_TEXT	SEGMENT
tv193 = -916
_i$94389 = -716
_matFinal$ = -704
_matTrans$ = -632
_matScale$ = -560
_fInitialAlpha$ = -488
_fI$ = -476
_m3$ = -464
_m2$ = -392
_m1$ = -320
_m0$ = -248
_matTex$ = -176
_mtr$ = -104
_hr$ = -20
_this$ = -8
_pDev$ = 8
_pTex$ = 12
_pulPolyCount$ = 16
_ctCamMode$ = 20
_pmatCurWorld$ = 24
_pCam$ = 28
_pmatProj$ = 32
_pVP$ = 36
_pTerrain$ = 40
_pSharedParticleSystemVB$ = 44
_fFPS$ = 48
_SB$ = 52
_DB$ = 56
?RenderFX_Shield@CFighter@@QAEJPAUIDirect3DDevice8@@PAVCTextures@@PAKHPAUD3DXMATRIX@@PAVCCamera@@3PAU_D3DVIEWPORT8@@PAVCTerrain@@PAUIDirect3DVertexBuffer8@@MHH@Z PROC NEAR ; CFighter::RenderFX_Shield, COMDAT
; _this$ = ecx

; 1649 : 	{

  00000	55		 push	 ebp
  00001	8b ec		 mov	 ebp, esp
  00003	81 ec 94 03 00
	00		 sub	 esp, 916		; 00000394H
  00009	53		 push	 ebx
  0000a	56		 push	 esi
  0000b	57		 push	 edi
  0000c	51		 push	 ecx
  0000d	8d bd 6c fc ff
	ff		 lea	 edi, DWORD PTR [ebp-916]
  00013	b9 e5 00 00 00	 mov	 ecx, 229		; 000000e5H
  00018	b8 cc cc cc cc	 mov	 eax, -858993460		; ccccccccH
  0001d	f3 ab		 rep stosd
  0001f	59		 pop	 ecx
  00020	89 4d f8	 mov	 DWORD PTR _this$[ebp], ecx

; 1650 : 		if( !m_bShowingShieldEffect )

  00023	8b 45 f8	 mov	 eax, DWORD PTR _this$[ebp]
  00026	83 b8 94 01 00
	00 00		 cmp	 DWORD PTR [eax+404], 0
  0002d	75 07		 jne	 SHORT $L94368

; 1651 : 			return S_OK ;

  0002f	33 c0		 xor	 eax, eax
  00031	e9 43 06 00 00	 jmp	 $L94367
$L94368:

; 1652 : 
; 1653 : 		HRESULT hr ;
; 1654 : 		D3DMATERIAL8 mtr ;
; 1655 : 		xMat matTex, m0, m1, m2, m3 ;

  00036	8d 8d 50 ff ff
	ff		 lea	 ecx, DWORD PTR _matTex$[ebp]
  0003c	e8 00 00 00 00	 call	 ??0D3DXMATRIX@@QAE@XZ	; D3DXMATRIX::D3DXMATRIX
  00041	8d 8d 08 ff ff
	ff		 lea	 ecx, DWORD PTR _m0$[ebp]
  00047	e8 00 00 00 00	 call	 ??0D3DXMATRIX@@QAE@XZ	; D3DXMATRIX::D3DXMATRIX
  0004c	8d 8d c0 fe ff
	ff		 lea	 ecx, DWORD PTR _m1$[ebp]
  00052	e8 00 00 00 00	 call	 ??0D3DXMATRIX@@QAE@XZ	; D3DXMATRIX::D3DXMATRIX
  00057	8d 8d 78 fe ff
	ff		 lea	 ecx, DWORD PTR _m2$[ebp]
  0005d	e8 00 00 00 00	 call	 ??0D3DXMATRIX@@QAE@XZ	; D3DXMATRIX::D3DXMATRIX
  00062	8d 8d 30 fe ff
	ff		 lea	 ecx, DWORD PTR _m3$[ebp]
  00068	e8 00 00 00 00	 call	 ??0D3DXMATRIX@@QAE@XZ	; D3DXMATRIX::D3DXMATRIX

; 1656 : 		static float X = 0.0f, Y = 0.0f, Z = 0.0f ;
; 1657 : 		float fI = m_fShieldEffectAge / m_fShieldEffectLifetime ;

  0006d	8b 45 f8	 mov	 eax, DWORD PTR _this$[ebp]
  00070	8b 4d f8	 mov	 ecx, DWORD PTR _this$[ebp]
  00073	d9 80 9c 01 00
	00		 fld	 DWORD PTR [eax+412]
  00079	d8 b1 98 01 00
	00		 fdiv	 DWORD PTR [ecx+408]
  0007f	d9 9d 24 fe ff
	ff		 fstp	 DWORD PTR _fI$[ebp]

; 1658 : 		float fInitialAlpha = 0.5f + ( 0.5f * m_fShieldLevel );

  00085	8b 45 f8	 mov	 eax, DWORD PTR _this$[ebp]
  00088	d9 05 00 00 00
	00		 fld	 DWORD PTR __real@3f000000
  0008e	d8 88 08 03 00
	00		 fmul	 DWORD PTR [eax+776]
  00094	d8 05 00 00 00
	00		 fadd	 DWORD PTR __real@3f000000
  0009a	d9 9d 18 fe ff
	ff		 fstp	 DWORD PTR _fInitialAlpha$[ebp]

; 1659 : 
; 1660 : 	// ask for auto-gen'd tex coords;
; 1661 : 		xMat matScale, matTrans, matFinal ;

  000a0	8d 8d d0 fd ff
	ff		 lea	 ecx, DWORD PTR _matScale$[ebp]
  000a6	e8 00 00 00 00	 call	 ??0D3DXMATRIX@@QAE@XZ	; D3DXMATRIX::D3DXMATRIX
  000ab	8d 8d 88 fd ff
	ff		 lea	 ecx, DWORD PTR _matTrans$[ebp]
  000b1	e8 00 00 00 00	 call	 ??0D3DXMATRIX@@QAE@XZ	; D3DXMATRIX::D3DXMATRIX
  000b6	8d 8d 40 fd ff
	ff		 lea	 ecx, DWORD PTR _matFinal$[ebp]
  000bc	e8 00 00 00 00	 call	 ??0D3DXMATRIX@@QAE@XZ	; D3DXMATRIX::D3DXMATRIX

; 1662 : 		pDev->SetTextureStageState( 0, D3DTSS_TEXTURETRANSFORMFLAGS, D3DTTFF_COUNT2 );

  000c1	8b f4		 mov	 esi, esp
  000c3	6a 02		 push	 2
  000c5	6a 18		 push	 24			; 00000018H
  000c7	6a 00		 push	 0
  000c9	8b 45 08	 mov	 eax, DWORD PTR _pDev$[ebp]
  000cc	8b 08		 mov	 ecx, DWORD PTR [eax]
  000ce	8b 55 08	 mov	 edx, DWORD PTR _pDev$[ebp]
  000d1	52		 push	 edx
  000d2	ff 91 fc 00 00
	00		 call	 DWORD PTR [ecx+252]
  000d8	3b f4		 cmp	 esi, esp
  000da	e8 00 00 00 00	 call	 __RTC_CheckEsp

; 1663 : 
; 1664 : 	// set world matrix;
; 1665 : 		D3DXMatrixScaling( &matScale, m_pFRO->m_pRenderData->m_fBSphereRadius * fI * 2,
; 1666 : 									  m_pFRO->m_pRenderData->m_fBSphereRadius * fI * 2,
; 1667 : 									  m_pFRO->m_pRenderData->m_fBSphereRadius * fI * 2 );

  000df	8b 45 f8	 mov	 eax, DWORD PTR _this$[ebp]
  000e2	8b 48 2c	 mov	 ecx, DWORD PTR [eax+44]
  000e5	8b 11		 mov	 edx, DWORD PTR [ecx]
  000e7	d9 85 24 fe ff
	ff		 fld	 DWORD PTR _fI$[ebp]
  000ed	d8 8a 38 01 00
	00		 fmul	 DWORD PTR [edx+312]
  000f3	dc c0		 fadd	 ST(0), ST(0)
  000f5	51		 push	 ecx
  000f6	d9 1c 24	 fstp	 DWORD PTR [esp]
  000f9	8b 45 f8	 mov	 eax, DWORD PTR _this$[ebp]
  000fc	8b 48 2c	 mov	 ecx, DWORD PTR [eax+44]
  000ff	8b 11		 mov	 edx, DWORD PTR [ecx]
  00101	d9 85 24 fe ff
	ff		 fld	 DWORD PTR _fI$[ebp]
  00107	d8 8a 38 01 00
	00		 fmul	 DWORD PTR [edx+312]
  0010d	dc c0		 fadd	 ST(0), ST(0)
  0010f	51		 push	 ecx
  00110	d9 1c 24	 fstp	 DWORD PTR [esp]
  00113	8b 45 f8	 mov	 eax, DWORD PTR _this$[ebp]
  00116	8b 48 2c	 mov	 ecx, DWORD PTR [eax+44]
  00119	8b 11		 mov	 edx, DWORD PTR [ecx]
  0011b	d9 85 24 fe ff
	ff		 fld	 DWORD PTR _fI$[ebp]
  00121	d8 8a 38 01 00
	00		 fmul	 DWORD PTR [edx+312]
  00127	dc c0		 fadd	 ST(0), ST(0)
  00129	51		 push	 ecx
  0012a	d9 1c 24	 fstp	 DWORD PTR [esp]
  0012d	8d 85 d0 fd ff
	ff		 lea	 eax, DWORD PTR _matScale$[ebp]
  00133	50		 push	 eax
  00134	e8 00 00 00 00	 call	 _D3DXMatrixScaling@16

; 1668 : 		D3DXMatrixTranslation( &matTrans, m_vPosition.x, m_vPosition.y, m_vPosition.z );

  00139	8b 45 f8	 mov	 eax, DWORD PTR _this$[ebp]
  0013c	8b 88 04 02 00
	00		 mov	 ecx, DWORD PTR [eax+516]
  00142	51		 push	 ecx
  00143	8b 55 f8	 mov	 edx, DWORD PTR _this$[ebp]
  00146	8b 82 00 02 00
	00		 mov	 eax, DWORD PTR [edx+512]
  0014c	50		 push	 eax
  0014d	8b 4d f8	 mov	 ecx, DWORD PTR _this$[ebp]
  00150	8b 91 fc 01 00
	00		 mov	 edx, DWORD PTR [ecx+508]
  00156	52		 push	 edx
  00157	8d 85 88 fd ff
	ff		 lea	 eax, DWORD PTR _matTrans$[ebp]
  0015d	50		 push	 eax
  0015e	e8 00 00 00 00	 call	 _D3DXMatrixTranslation@16

; 1669 : 		D3DXMatrixMultiply( &matFinal, &matScale, &matTrans );

  00163	8d 85 88 fd ff
	ff		 lea	 eax, DWORD PTR _matTrans$[ebp]
  00169	50		 push	 eax
  0016a	8d 8d d0 fd ff
	ff		 lea	 ecx, DWORD PTR _matScale$[ebp]
  00170	51		 push	 ecx
  00171	8d 95 40 fd ff
	ff		 lea	 edx, DWORD PTR _matFinal$[ebp]
  00177	52		 push	 edx
  00178	e8 00 00 00 00	 call	 _D3DXMatrixMultiply@12

; 1670 : 		D3DXMatrixMultiply( &matFinal, &matFinal, pmatCurWorld );

  0017d	8b 45 18	 mov	 eax, DWORD PTR _pmatCurWorld$[ebp]
  00180	50		 push	 eax
  00181	8d 8d 40 fd ff
	ff		 lea	 ecx, DWORD PTR _matFinal$[ebp]
  00187	51		 push	 ecx
  00188	8d 95 40 fd ff
	ff		 lea	 edx, DWORD PTR _matFinal$[ebp]
  0018e	52		 push	 edx
  0018f	e8 00 00 00 00	 call	 _D3DXMatrixMultiply@12

; 1671 : 		pDev->SetTransform( D3DTS_WORLD, &matFinal );

  00194	8b f4		 mov	 esi, esp
  00196	8d 85 40 fd ff
	ff		 lea	 eax, DWORD PTR _matFinal$[ebp]
  0019c	50		 push	 eax
  0019d	68 00 01 00 00	 push	 256			; 00000100H
  001a2	8b 4d 08	 mov	 ecx, DWORD PTR _pDev$[ebp]
  001a5	8b 11		 mov	 edx, DWORD PTR [ecx]
  001a7	8b 45 08	 mov	 eax, DWORD PTR _pDev$[ebp]
  001aa	50		 push	 eax
  001ab	ff 92 94 00 00
	00		 call	 DWORD PTR [edx+148]
  001b1	3b f4		 cmp	 esi, esp
  001b3	e8 00 00 00 00	 call	 __RTC_CheckEsp

; 1672 : 
; 1673 : 		for( int i=0; i<2 ; i++ )

  001b8	c7 85 34 fd ff
	ff 00 00 00 00	 mov	 DWORD PTR _i$94389[ebp], 0
  001c2	eb 0f		 jmp	 SHORT $L94390
$L94391:
  001c4	8b 85 34 fd ff
	ff		 mov	 eax, DWORD PTR _i$94389[ebp]
  001ca	83 c0 01	 add	 eax, 1
  001cd	89 85 34 fd ff
	ff		 mov	 DWORD PTR _i$94389[ebp], eax
$L94390:
  001d3	83 bd 34 fd ff
	ff 02		 cmp	 DWORD PTR _i$94389[ebp], 2
  001da	0f 8d fb 03 00
	00		 jge	 $L94392

; 1674 : 		{
; 1675 : 			switch( i )
; 1676 : 			{

  001e0	8b 85 34 fd ff
	ff		 mov	 eax, DWORD PTR _i$94389[ebp]
  001e6	89 85 6c fc ff
	ff		 mov	 DWORD PTR tv193[ebp], eax
  001ec	83 bd 6c fc ff
	ff 00		 cmp	 DWORD PTR tv193[ebp], 0
  001f3	74 12		 je	 SHORT $L94397
  001f5	83 bd 6c fc ff
	ff 01		 cmp	 DWORD PTR tv193[ebp], 1
  001fc	0f 84 f6 01 00
	00		 je	 $L94402
  00202	e9 cf 03 00 00	 jmp	 $L94394
$L94397:

; 1677 : 				case 0:
; 1678 : 					pDev->SetTextureStageState( 0, D3DTSS_TEXCOORDINDEX, D3DTSS_TCI_CAMERASPACENORMAL );

  00207	8b f4		 mov	 esi, esp
  00209	68 00 00 01 00	 push	 65536			; 00010000H
  0020e	6a 0b		 push	 11			; 0000000bH
  00210	6a 00		 push	 0
  00212	8b 45 08	 mov	 eax, DWORD PTR _pDev$[ebp]
  00215	8b 08		 mov	 ecx, DWORD PTR [eax]
  00217	8b 55 08	 mov	 edx, DWORD PTR _pDev$[ebp]
  0021a	52		 push	 edx
  0021b	ff 91 fc 00 00
	00		 call	 DWORD PTR [ecx+252]
  00221	3b f4		 cmp	 esi, esp
  00223	e8 00 00 00 00	 call	 __RTC_CheckEsp

; 1679 : 					pDev->SetTexture( 0, pTex->m_pTex[ MISC_TEX_START+2 ] );

  00228	8b f4		 mov	 esi, esp
  0022a	8b 45 0c	 mov	 eax, DWORD PTR _pTex$[ebp]
  0022d	8b 88 14 0b 00
	00		 mov	 ecx, DWORD PTR [eax+2836]
  00233	51		 push	 ecx
  00234	6a 00		 push	 0
  00236	8b 55 08	 mov	 edx, DWORD PTR _pDev$[ebp]
  00239	8b 02		 mov	 eax, DWORD PTR [edx]
  0023b	8b 4d 08	 mov	 ecx, DWORD PTR _pDev$[ebp]
  0023e	51		 push	 ecx
  0023f	ff 90 f4 00 00
	00		 call	 DWORD PTR [eax+244]
  00245	3b f4		 cmp	 esi, esp
  00247	e8 00 00 00 00	 call	 __RTC_CheckEsp

; 1680 : 					SetupSpecularMaterial( &mtr, 0.0f, 0.0f, 1.0f, fInitialAlpha - fInitialAlpha*fI );

  0024c	d9 85 18 fe ff
	ff		 fld	 DWORD PTR _fInitialAlpha$[ebp]
  00252	d8 8d 24 fe ff
	ff		 fmul	 DWORD PTR _fI$[ebp]
  00258	d8 ad 18 fe ff
	ff		 fsubr	 DWORD PTR _fInitialAlpha$[ebp]
  0025e	51		 push	 ecx
  0025f	d9 1c 24	 fstp	 DWORD PTR [esp]
  00262	68 00 00 80 3f	 push	 1065353216		; 3f800000H
  00267	6a 00		 push	 0
  00269	6a 00		 push	 0
  0026b	8d 45 98	 lea	 eax, DWORD PTR _mtr$[ebp]
  0026e	50		 push	 eax
  0026f	e8 00 00 00 00	 call	 ?SetupSpecularMaterial@@YAXPAU_D3DMATERIAL8@@MMMM@Z ; SetupSpecularMaterial
  00274	83 c4 14	 add	 esp, 20			; 00000014H

; 1681 : 					pDev->SetMaterial( &mtr );

  00277	8b f4		 mov	 esi, esp
  00279	8d 45 98	 lea	 eax, DWORD PTR _mtr$[ebp]
  0027c	50		 push	 eax
  0027d	8b 4d 08	 mov	 ecx, DWORD PTR _pDev$[ebp]
  00280	8b 11		 mov	 edx, DWORD PTR [ecx]
  00282	8b 45 08	 mov	 eax, DWORD PTR _pDev$[ebp]
  00285	50		 push	 eax
  00286	ff 92 a8 00 00
	00		 call	 DWORD PTR [edx+168]
  0028c	3b f4		 cmp	 esi, esp
  0028e	e8 00 00 00 00	 call	 __RTC_CheckEsp

; 1682 : 					
; 1683 : 				// apply x,y,z rotations ot auto-gen'd tex coords;
; 1684 : 					D3DXMatrixRotationX( &m0, X / 2.0f );

  00293	d9 05 00 00 00
	00		 fld	 DWORD PTR ?X@?3??RenderFX_Shield@CFighter@@QAEJPAUIDirect3DDevice8@@PAVCTextures@@PAKHPAUD3DXMATRIX@@PAVCCamera@@3PAU_D3DVIEWPORT8@@PAVCTerrain@@PAUIDirect3DVertexBuffer8@@MHH@Z@4MA
  00299	d8 35 00 00 00
	00		 fdiv	 DWORD PTR __real@40000000
  0029f	51		 push	 ecx
  002a0	d9 1c 24	 fstp	 DWORD PTR [esp]
  002a3	8d 85 08 ff ff
	ff		 lea	 eax, DWORD PTR _m0$[ebp]
  002a9	50		 push	 eax
  002aa	e8 00 00 00 00	 call	 _D3DXMatrixRotationX@8

; 1685 : 					D3DXMatrixRotationY( &m1, Y / 2.0f );

  002af	d9 05 00 00 00
	00		 fld	 DWORD PTR ?Y@?3??RenderFX_Shield@CFighter@@QAEJPAUIDirect3DDevice8@@PAVCTextures@@PAKHPAUD3DXMATRIX@@PAVCCamera@@3PAU_D3DVIEWPORT8@@PAVCTerrain@@PAUIDirect3DVertexBuffer8@@MHH@Z@4MA
  002b5	d8 35 00 00 00
	00		 fdiv	 DWORD PTR __real@40000000
  002bb	51		 push	 ecx
  002bc	d9 1c 24	 fstp	 DWORD PTR [esp]
  002bf	8d 85 c0 fe ff
	ff		 lea	 eax, DWORD PTR _m1$[ebp]
  002c5	50		 push	 eax
  002c6	e8 00 00 00 00	 call	 _D3DXMatrixRotationY@8

; 1686 : 					D3DXMatrixRotationZ( &m2, Z / 2.0f );

  002cb	d9 05 00 00 00
	00		 fld	 DWORD PTR ?Z@?3??RenderFX_Shield@CFighter@@QAEJPAUIDirect3DDevice8@@PAVCTextures@@PAKHPAUD3DXMATRIX@@PAVCCamera@@3PAU_D3DVIEWPORT8@@PAVCTerrain@@PAUIDirect3DVertexBuffer8@@MHH@Z@4MA
  002d1	d8 35 00 00 00
	00		 fdiv	 DWORD PTR __real@40000000
  002d7	51		 push	 ecx
  002d8	d9 1c 24	 fstp	 DWORD PTR [esp]
  002db	8d 85 78 fe ff
	ff		 lea	 eax, DWORD PTR _m2$[ebp]
  002e1	50		 push	 eax
  002e2	e8 00 00 00 00	 call	 _D3DXMatrixRotationZ@8

; 1687 : 					D3DXMatrixMultiply( &matTex, &m0, &m1 );

  002e7	8d 85 c0 fe ff
	ff		 lea	 eax, DWORD PTR _m1$[ebp]
  002ed	50		 push	 eax
  002ee	8d 8d 08 ff ff
	ff		 lea	 ecx, DWORD PTR _m0$[ebp]
  002f4	51		 push	 ecx
  002f5	8d 95 50 ff ff
	ff		 lea	 edx, DWORD PTR _matTex$[ebp]
  002fb	52		 push	 edx
  002fc	e8 00 00 00 00	 call	 _D3DXMatrixMultiply@12

; 1688 : 					D3DXMatrixMultiply( &matTex, &matTex, &m2 );

  00301	8d 85 78 fe ff
	ff		 lea	 eax, DWORD PTR _m2$[ebp]
  00307	50		 push	 eax
  00308	8d 8d 50 ff ff
	ff		 lea	 ecx, DWORD PTR _matTex$[ebp]
  0030e	51		 push	 ecx
  0030f	8d 95 50 ff ff
	ff		 lea	 edx, DWORD PTR _matTex$[ebp]
  00315	52		 push	 edx
  00316	e8 00 00 00 00	 call	 _D3DXMatrixMultiply@12

; 1689 : 					X+=(0.1f) * (60.0f/fFPS) ;

  0031b	d9 05 00 00 00
	00		 fld	 DWORD PTR __real@42700000
  00321	d8 75 30	 fdiv	 DWORD PTR _fFPS$[ebp]
  00324	d8 0d 00 00 00
	00		 fmul	 DWORD PTR __real@3dcccccd
  0032a	d8 05 00 00 00
	00		 fadd	 DWORD PTR ?X@?3??RenderFX_Shield@CFighter@@QAEJPAUIDirect3DDevice8@@PAVCTextures@@PAKHPAUD3DXMATRIX@@PAVCCamera@@3PAU_D3DVIEWPORT8@@PAVCTerrain@@PAUIDirect3DVertexBuffer8@@MHH@Z@4MA
  00330	d9 1d 00 00 00
	00		 fstp	 DWORD PTR ?X@?3??RenderFX_Shield@CFighter@@QAEJPAUIDirect3DDevice8@@PAVCTextures@@PAKHPAUD3DXMATRIX@@PAVCCamera@@3PAU_D3DVIEWPORT8@@PAVCTerrain@@PAUIDirect3DVertexBuffer8@@MHH@Z@4MA

; 1690 : 					Y+=(0.2f) * (60.0f/fFPS) ;

  00336	d9 05 00 00 00
	00		 fld	 DWORD PTR __real@42700000
  0033c	d8 75 30	 fdiv	 DWORD PTR _fFPS$[ebp]
  0033f	d8 0d 00 00 00
	00		 fmul	 DWORD PTR __real@3e4ccccd
  00345	d8 05 00 00 00
	00		 fadd	 DWORD PTR ?Y@?3??RenderFX_Shield@CFighter@@QAEJPAUIDirect3DDevice8@@PAVCTextures@@PAKHPAUD3DXMATRIX@@PAVCCamera@@3PAU_D3DVIEWPORT8@@PAVCTerrain@@PAUIDirect3DVertexBuffer8@@MHH@Z@4MA
  0034b	d9 1d 00 00 00
	00		 fstp	 DWORD PTR ?Y@?3??RenderFX_Shield@CFighter@@QAEJPAUIDirect3DDevice8@@PAVCTextures@@PAKHPAUD3DXMATRIX@@PAVCCamera@@3PAU_D3DVIEWPORT8@@PAVCTerrain@@PAUIDirect3DVertexBuffer8@@MHH@Z@4MA

; 1691 : 					Z+=(0.3f) * (60.0f/fFPS) ;

  00351	d9 05 00 00 00
	00		 fld	 DWORD PTR __real@42700000
  00357	d8 75 30	 fdiv	 DWORD PTR _fFPS$[ebp]
  0035a	d8 0d 00 00 00
	00		 fmul	 DWORD PTR __real@3e99999a
  00360	d8 05 00 00 00
	00		 fadd	 DWORD PTR ?Z@?3??RenderFX_Shield@CFighter@@QAEJPAUIDirect3DDevice8@@PAVCTextures@@PAKHPAUD3DXMATRIX@@PAVCCamera@@3PAU_D3DVIEWPORT8@@PAVCTerrain@@PAUIDirect3DVertexBuffer8@@MHH@Z@4MA
  00366	d9 1d 00 00 00
	00		 fstp	 DWORD PTR ?Z@?3??RenderFX_Shield@CFighter@@QAEJPAUIDirect3DDevice8@@PAVCTextures@@PAKHPAUD3DXMATRIX@@PAVCCamera@@3PAU_D3DVIEWPORT8@@PAVCTerrain@@PAUIDirect3DVertexBuffer8@@MHH@Z@4MA

; 1692 : 					pDev->SetTransform( D3DTS_TEXTURE0, &matTex );

  0036c	8b f4		 mov	 esi, esp
  0036e	8d 85 50 ff ff
	ff		 lea	 eax, DWORD PTR _matTex$[ebp]
  00374	50		 push	 eax
  00375	6a 10		 push	 16			; 00000010H
  00377	8b 4d 08	 mov	 ecx, DWORD PTR _pDev$[ebp]
  0037a	8b 11		 mov	 edx, DWORD PTR [ecx]
  0037c	8b 45 08	 mov	 eax, DWORD PTR _pDev$[ebp]
  0037f	50		 push	 eax
  00380	ff 92 94 00 00
	00		 call	 DWORD PTR [edx+148]
  00386	3b f4		 cmp	 esi, esp
  00388	e8 00 00 00 00	 call	 __RTC_CheckEsp

; 1693 : 
; 1694 : 					hr = pTerrain->m_pItemSphereMesh->DrawSubset( 0 );

  0038d	8b f4		 mov	 esi, esp
  0038f	6a 00		 push	 0
  00391	8b 45 28	 mov	 eax, DWORD PTR _pTerrain$[ebp]
  00394	8b 48 24	 mov	 ecx, DWORD PTR [eax+36]
  00397	8b 55 28	 mov	 edx, DWORD PTR _pTerrain$[ebp]
  0039a	8b 42 24	 mov	 eax, DWORD PTR [edx+36]
  0039d	8b 09		 mov	 ecx, DWORD PTR [ecx]
  0039f	50		 push	 eax
  003a0	ff 51 0c	 call	 DWORD PTR [ecx+12]
  003a3	3b f4		 cmp	 esi, esp
  003a5	e8 00 00 00 00	 call	 __RTC_CheckEsp
  003aa	89 45 ec	 mov	 DWORD PTR _hr$[ebp], eax

; 1695 : 					*pulPolyCount += pTerrain->m_pItemSphereMesh->GetNumFaces() ;

  003ad	8b 45 28	 mov	 eax, DWORD PTR _pTerrain$[ebp]
  003b0	8b 48 24	 mov	 ecx, DWORD PTR [eax+36]
  003b3	8b 55 28	 mov	 edx, DWORD PTR _pTerrain$[ebp]
  003b6	8b 42 24	 mov	 eax, DWORD PTR [edx+36]
  003b9	8b 09		 mov	 ecx, DWORD PTR [ecx]
  003bb	8b f4		 mov	 esi, esp
  003bd	50		 push	 eax
  003be	ff 51 10	 call	 DWORD PTR [ecx+16]
  003c1	3b f4		 cmp	 esi, esp
  003c3	e8 00 00 00 00	 call	 __RTC_CheckEsp
  003c8	8b 55 10	 mov	 edx, DWORD PTR _pulPolyCount$[ebp]
  003cb	03 02		 add	 eax, DWORD PTR [edx]
  003cd	8b 4d 10	 mov	 ecx, DWORD PTR _pulPolyCount$[ebp]
  003d0	89 01		 mov	 DWORD PTR [ecx], eax

; 1696 : 					assert( D3D_OK==hr );

  003d2	83 7d ec 00	 cmp	 DWORD PTR _hr$[ebp], 0
  003d6	74 1b		 je	 SHORT $L94927
  003d8	a1 00 00 00 00	 mov	 eax, DWORD PTR ?__LINE__Var@?1??RenderFX_Shield@CFighter@@QAEJPAUIDirect3DDevice8@@PAVCTextures@@PAKHPAUD3DXMATRIX@@PAVCCamera@@3PAU_D3DVIEWPORT8@@PAVCTerrain@@PAUIDirect3DVertexBuffer8@@MHH@Z@4JA
  003dd	83 c0 2f	 add	 eax, 47			; 0000002fH
  003e0	50		 push	 eax
  003e1	68 00 00 00 00	 push	 OFFSET FLAT:??_C@_0EK@DPEDPJFN@c?3?2documents?5and?5settings?2dom?2my@
  003e6	68 00 00 00 00	 push	 OFFSET FLAT:??_C@_0L@KJLEIMLM@D3D_OK?$DN?$DNhr?$AA@
  003eb	e8 00 00 00 00	 call	 __assert
  003f0	83 c4 0c	 add	 esp, 12			; 0000000cH
$L94927:

; 1697 : 					break ;

  003f3	e9 de 01 00 00	 jmp	 $L94394
$L94402:

; 1698 : 
; 1699 : 				case 1:
; 1700 : 					pDev->SetTextureStageState( 0, D3DTSS_TEXCOORDINDEX, D3DTSS_TCI_CAMERASPACENORMAL );

  003f8	8b f4		 mov	 esi, esp
  003fa	68 00 00 01 00	 push	 65536			; 00010000H
  003ff	6a 0b		 push	 11			; 0000000bH
  00401	6a 00		 push	 0
  00403	8b 45 08	 mov	 eax, DWORD PTR _pDev$[ebp]
  00406	8b 08		 mov	 ecx, DWORD PTR [eax]
  00408	8b 55 08	 mov	 edx, DWORD PTR _pDev$[ebp]
  0040b	52		 push	 edx
  0040c	ff 91 fc 00 00
	00		 call	 DWORD PTR [ecx+252]
  00412	3b f4		 cmp	 esi, esp
  00414	e8 00 00 00 00	 call	 __RTC_CheckEsp

; 1701 : 					pDev->SetTexture( 0, pTex->m_pTex[ MISC_TEX_START+2 ] );

  00419	8b f4		 mov	 esi, esp
  0041b	8b 45 0c	 mov	 eax, DWORD PTR _pTex$[ebp]
  0041e	8b 88 14 0b 00
	00		 mov	 ecx, DWORD PTR [eax+2836]
  00424	51		 push	 ecx
  00425	6a 00		 push	 0
  00427	8b 55 08	 mov	 edx, DWORD PTR _pDev$[ebp]
  0042a	8b 02		 mov	 eax, DWORD PTR [edx]
  0042c	8b 4d 08	 mov	 ecx, DWORD PTR _pDev$[ebp]
  0042f	51		 push	 ecx
  00430	ff 90 f4 00 00
	00		 call	 DWORD PTR [eax+244]
  00436	3b f4		 cmp	 esi, esp
  00438	e8 00 00 00 00	 call	 __RTC_CheckEsp

; 1702 : 					SetupSpecularMaterial( &mtr, 0.0f, 0.0f, 1.0f, fInitialAlpha*0.75f - fInitialAlpha*fI*0.75f );

  0043d	d9 85 18 fe ff
	ff		 fld	 DWORD PTR _fInitialAlpha$[ebp]
  00443	d8 0d 00 00 00
	00		 fmul	 DWORD PTR __real@3f400000
  00449	d9 85 18 fe ff
	ff		 fld	 DWORD PTR _fInitialAlpha$[ebp]
  0044f	d8 8d 24 fe ff
	ff		 fmul	 DWORD PTR _fI$[ebp]
  00455	d8 0d 00 00 00
	00		 fmul	 DWORD PTR __real@3f400000
  0045b	de e9		 fsubp	 ST(1), ST(0)
  0045d	51		 push	 ecx
  0045e	d9 1c 24	 fstp	 DWORD PTR [esp]
  00461	68 00 00 80 3f	 push	 1065353216		; 3f800000H
  00466	6a 00		 push	 0
  00468	6a 00		 push	 0
  0046a	8d 45 98	 lea	 eax, DWORD PTR _mtr$[ebp]
  0046d	50		 push	 eax
  0046e	e8 00 00 00 00	 call	 ?SetupSpecularMaterial@@YAXPAU_D3DMATERIAL8@@MMMM@Z ; SetupSpecularMaterial
  00473	83 c4 14	 add	 esp, 20			; 00000014H

; 1703 : 					pDev->SetMaterial( &mtr );

  00476	8b f4		 mov	 esi, esp
  00478	8d 45 98	 lea	 eax, DWORD PTR _mtr$[ebp]
  0047b	50		 push	 eax
  0047c	8b 4d 08	 mov	 ecx, DWORD PTR _pDev$[ebp]
  0047f	8b 11		 mov	 edx, DWORD PTR [ecx]
  00481	8b 45 08	 mov	 eax, DWORD PTR _pDev$[ebp]
  00484	50		 push	 eax
  00485	ff 92 a8 00 00
	00		 call	 DWORD PTR [edx+168]
  0048b	3b f4		 cmp	 esi, esp
  0048d	e8 00 00 00 00	 call	 __RTC_CheckEsp

; 1704 : 					
; 1705 : 				// apply different x,y,z rotations ot auto-gen'd tex coords;
; 1706 : 					D3DXMatrixRotationX( &m0, Y / 0.5f );

  00492	d9 05 00 00 00
	00		 fld	 DWORD PTR ?Y@?3??RenderFX_Shield@CFighter@@QAEJPAUIDirect3DDevice8@@PAVCTextures@@PAKHPAUD3DXMATRIX@@PAVCCamera@@3PAU_D3DVIEWPORT8@@PAVCTerrain@@PAUIDirect3DVertexBuffer8@@MHH@Z@4MA
  00498	d8 35 00 00 00
	00		 fdiv	 DWORD PTR __real@3f000000
  0049e	51		 push	 ecx
  0049f	d9 1c 24	 fstp	 DWORD PTR [esp]
  004a2	8d 85 08 ff ff
	ff		 lea	 eax, DWORD PTR _m0$[ebp]
  004a8	50		 push	 eax
  004a9	e8 00 00 00 00	 call	 _D3DXMatrixRotationX@8

; 1707 : 					D3DXMatrixRotationY( &m1, X / 0.5f );

  004ae	d9 05 00 00 00
	00		 fld	 DWORD PTR ?X@?3??RenderFX_Shield@CFighter@@QAEJPAUIDirect3DDevice8@@PAVCTextures@@PAKHPAUD3DXMATRIX@@PAVCCamera@@3PAU_D3DVIEWPORT8@@PAVCTerrain@@PAUIDirect3DVertexBuffer8@@MHH@Z@4MA
  004b4	d8 35 00 00 00
	00		 fdiv	 DWORD PTR __real@3f000000
  004ba	51		 push	 ecx
  004bb	d9 1c 24	 fstp	 DWORD PTR [esp]
  004be	8d 85 c0 fe ff
	ff		 lea	 eax, DWORD PTR _m1$[ebp]
  004c4	50		 push	 eax
  004c5	e8 00 00 00 00	 call	 _D3DXMatrixRotationY@8

; 1708 : 					D3DXMatrixRotationZ( &m2, Z / 0.5f );

  004ca	d9 05 00 00 00
	00		 fld	 DWORD PTR ?Z@?3??RenderFX_Shield@CFighter@@QAEJPAUIDirect3DDevice8@@PAVCTextures@@PAKHPAUD3DXMATRIX@@PAVCCamera@@3PAU_D3DVIEWPORT8@@PAVCTerrain@@PAUIDirect3DVertexBuffer8@@MHH@Z@4MA
  004d0	d8 35 00 00 00
	00		 fdiv	 DWORD PTR __real@3f000000
  004d6	51		 push	 ecx
  004d7	d9 1c 24	 fstp	 DWORD PTR [esp]
  004da	8d 85 78 fe ff
	ff		 lea	 eax, DWORD PTR _m2$[ebp]
  004e0	50		 push	 eax
  004e1	e8 00 00 00 00	 call	 _D3DXMatrixRotationZ@8

; 1709 : 					D3DXMatrixScaling( &m3, 2.0f, 2.0f, 2.0f );

  004e6	68 00 00 00 40	 push	 1073741824		; 40000000H
  004eb	68 00 00 00 40	 push	 1073741824		; 40000000H
  004f0	68 00 00 00 40	 push	 1073741824		; 40000000H
  004f5	8d 85 30 fe ff
	ff		 lea	 eax, DWORD PTR _m3$[ebp]
  004fb	50		 push	 eax
  004fc	e8 00 00 00 00	 call	 _D3DXMatrixScaling@16

; 1710 : 					D3DXMatrixMultiply( &matTex, &m0, &m1 );

  00501	8d 85 c0 fe ff
	ff		 lea	 eax, DWORD PTR _m1$[ebp]
  00507	50		 push	 eax
  00508	8d 8d 08 ff ff
	ff		 lea	 ecx, DWORD PTR _m0$[ebp]
  0050e	51		 push	 ecx
  0050f	8d 95 50 ff ff
	ff		 lea	 edx, DWORD PTR _matTex$[ebp]
  00515	52		 push	 edx
  00516	e8 00 00 00 00	 call	 _D3DXMatrixMultiply@12

; 1711 : 					D3DXMatrixMultiply( &matTex, &matTex, &m2 );

  0051b	8d 85 78 fe ff
	ff		 lea	 eax, DWORD PTR _m2$[ebp]
  00521	50		 push	 eax
  00522	8d 8d 50 ff ff
	ff		 lea	 ecx, DWORD PTR _matTex$[ebp]
  00528	51		 push	 ecx
  00529	8d 95 50 ff ff
	ff		 lea	 edx, DWORD PTR _matTex$[ebp]
  0052f	52		 push	 edx
  00530	e8 00 00 00 00	 call	 _D3DXMatrixMultiply@12

; 1712 : 					D3DXMatrixMultiply( &matTex, &matTex, &m3 );

  00535	8d 85 30 fe ff
	ff		 lea	 eax, DWORD PTR _m3$[ebp]
  0053b	50		 push	 eax
  0053c	8d 8d 50 ff ff
	ff		 lea	 ecx, DWORD PTR _matTex$[ebp]
  00542	51		 push	 ecx
  00543	8d 95 50 ff ff
	ff		 lea	 edx, DWORD PTR _matTex$[ebp]
  00549	52		 push	 edx
  0054a	e8 00 00 00 00	 call	 _D3DXMatrixMultiply@12

; 1713 : 					pDev->SetTransform( D3DTS_TEXTURE0, &matTex );

  0054f	8b f4		 mov	 esi, esp
  00551	8d 85 50 ff ff
	ff		 lea	 eax, DWORD PTR _matTex$[ebp]
  00557	50		 push	 eax
  00558	6a 10		 push	 16			; 00000010H
  0055a	8b 4d 08	 mov	 ecx, DWORD PTR _pDev$[ebp]
  0055d	8b 11		 mov	 edx, DWORD PTR [ecx]
  0055f	8b 45 08	 mov	 eax, DWORD PTR _pDev$[ebp]
  00562	50		 push	 eax
  00563	ff 92 94 00 00
	00		 call	 DWORD PTR [edx+148]
  00569	3b f4		 cmp	 esi, esp
  0056b	e8 00 00 00 00	 call	 __RTC_CheckEsp

; 1714 : 
; 1715 : 					hr = pTerrain->m_pItemSphereMesh->DrawSubset( 0 );

  00570	8b f4		 mov	 esi, esp
  00572	6a 00		 push	 0
  00574	8b 45 28	 mov	 eax, DWORD PTR _pTerrain$[ebp]
  00577	8b 48 24	 mov	 ecx, DWORD PTR [eax+36]
  0057a	8b 55 28	 mov	 edx, DWORD PTR _pTerrain$[ebp]
  0057d	8b 42 24	 mov	 eax, DWORD PTR [edx+36]
  00580	8b 09		 mov	 ecx, DWORD PTR [ecx]
  00582	50		 push	 eax
  00583	ff 51 0c	 call	 DWORD PTR [ecx+12]
  00586	3b f4		 cmp	 esi, esp
  00588	e8 00 00 00 00	 call	 __RTC_CheckEsp
  0058d	89 45 ec	 mov	 DWORD PTR _hr$[ebp], eax

; 1716 : 					*pulPolyCount += pTerrain->m_pItemSphereMesh->GetNumFaces() ;

  00590	8b 45 28	 mov	 eax, DWORD PTR _pTerrain$[ebp]
  00593	8b 48 24	 mov	 ecx, DWORD PTR [eax+36]
  00596	8b 55 28	 mov	 edx, DWORD PTR _pTerrain$[ebp]
  00599	8b 42 24	 mov	 eax, DWORD PTR [edx+36]
  0059c	8b 09		 mov	 ecx, DWORD PTR [ecx]
  0059e	8b f4		 mov	 esi, esp
  005a0	50		 push	 eax
  005a1	ff 51 10	 call	 DWORD PTR [ecx+16]
  005a4	3b f4		 cmp	 esi, esp
  005a6	e8 00 00 00 00	 call	 __RTC_CheckEsp
  005ab	8b 55 10	 mov	 edx, DWORD PTR _pulPolyCount$[ebp]
  005ae	03 02		 add	 eax, DWORD PTR [edx]
  005b0	8b 4d 10	 mov	 ecx, DWORD PTR _pulPolyCount$[ebp]
  005b3	89 01		 mov	 DWORD PTR [ecx], eax

; 1717 : 					assert( D3D_OK==hr );

  005b5	83 7d ec 00	 cmp	 DWORD PTR _hr$[ebp], 0
  005b9	74 1b		 je	 SHORT $L94394
  005bb	a1 00 00 00 00	 mov	 eax, DWORD PTR ?__LINE__Var@?1??RenderFX_Shield@CFighter@@QAEJPAUIDirect3DDevice8@@PAVCTextures@@PAKHPAUD3DXMATRIX@@PAVCCamera@@3PAU_D3DVIEWPORT8@@PAVCTerrain@@PAUIDirect3DVertexBuffer8@@MHH@Z@4JA
  005c0	83 c0 44	 add	 eax, 68			; 00000044H
  005c3	50		 push	 eax
  005c4	68 00 00 00 00	 push	 OFFSET FLAT:??_C@_0EK@DPEDPJFN@c?3?2documents?5and?5settings?2dom?2my@
  005c9	68 00 00 00 00	 push	 OFFSET FLAT:??_C@_0L@KJLEIMLM@D3D_OK?$DN?$DNhr?$AA@
  005ce	e8 00 00 00 00	 call	 __assert
  005d3	83 c4 0c	 add	 esp, 12			; 0000000cH
$L94394:

; 1718 : 					break ;
; 1719 : 			}
; 1720 : 		}

  005d6	e9 e9 fb ff ff	 jmp	 $L94391
$L94392:

; 1721 : 
; 1722 : 	// cleanup renderstates;
; 1723 : 		pDev->SetTransform( D3DTS_TEXTURE0, &g_matIdent );

  005db	8b f4		 mov	 esi, esp
  005dd	68 00 00 00 00	 push	 OFFSET FLAT:?g_matIdent@@3UD3DXMATRIX@@A ; g_matIdent
  005e2	6a 10		 push	 16			; 00000010H
  005e4	8b 45 08	 mov	 eax, DWORD PTR _pDev$[ebp]
  005e7	8b 08		 mov	 ecx, DWORD PTR [eax]
  005e9	8b 55 08	 mov	 edx, DWORD PTR _pDev$[ebp]
  005ec	52		 push	 edx
  005ed	ff 91 94 00 00
	00		 call	 DWORD PTR [ecx+148]
  005f3	3b f4		 cmp	 esi, esp
  005f5	e8 00 00 00 00	 call	 __RTC_CheckEsp

; 1724 : 		pDev->SetTextureStageState( 0, D3DTSS_TEXTURETRANSFORMFLAGS, D3DTTFF_DISABLE );

  005fa	8b f4		 mov	 esi, esp
  005fc	6a 00		 push	 0
  005fe	6a 18		 push	 24			; 00000018H
  00600	6a 00		 push	 0
  00602	8b 45 08	 mov	 eax, DWORD PTR _pDev$[ebp]
  00605	8b 08		 mov	 ecx, DWORD PTR [eax]
  00607	8b 55 08	 mov	 edx, DWORD PTR _pDev$[ebp]
  0060a	52		 push	 edx
  0060b	ff 91 fc 00 00
	00		 call	 DWORD PTR [ecx+252]
  00611	3b f4		 cmp	 esi, esp
  00613	e8 00 00 00 00	 call	 __RTC_CheckEsp

; 1725 : 		pDev->SetTextureStageState( 0, D3DTSS_TEXCOORDINDEX, D3DTSS_TCI_PASSTHRU );

  00618	8b f4		 mov	 esi, esp
  0061a	6a 00		 push	 0
  0061c	6a 0b		 push	 11			; 0000000bH
  0061e	6a 00		 push	 0
  00620	8b 45 08	 mov	 eax, DWORD PTR _pDev$[ebp]
  00623	8b 08		 mov	 ecx, DWORD PTR [eax]
  00625	8b 55 08	 mov	 edx, DWORD PTR _pDev$[ebp]
  00628	52		 push	 edx
  00629	ff 91 fc 00 00
	00		 call	 DWORD PTR [ecx+252]
  0062f	3b f4		 cmp	 esi, esp
  00631	e8 00 00 00 00	 call	 __RTC_CheckEsp

; 1726 : 		
; 1727 : 	// kill shield effect after required lifetime;
; 1728 : 		m_fShieldEffectAge += ( 1.0f / fFPS );

  00636	d9 05 00 00 00
	00		 fld	 DWORD PTR __real@3f800000
  0063c	d8 75 30	 fdiv	 DWORD PTR _fFPS$[ebp]
  0063f	8b 45 f8	 mov	 eax, DWORD PTR _this$[ebp]
  00642	d8 80 9c 01 00
	00		 fadd	 DWORD PTR [eax+412]
  00648	8b 4d f8	 mov	 ecx, DWORD PTR _this$[ebp]
  0064b	d9 99 9c 01 00
	00		 fstp	 DWORD PTR [ecx+412]

; 1729 : 		if( m_fShieldEffectAge >= m_fShieldEffectLifetime )

  00651	8b 45 f8	 mov	 eax, DWORD PTR _this$[ebp]
  00654	8b 4d f8	 mov	 ecx, DWORD PTR _this$[ebp]
  00657	d9 80 9c 01 00
	00		 fld	 DWORD PTR [eax+412]
  0065d	d8 99 98 01 00
	00		 fcomp	 DWORD PTR [ecx+408]
  00663	df e0		 fnstsw	 ax
  00665	f6 c4 01	 test	 ah, 1
  00668	75 0d		 jne	 SHORT $L94405

; 1730 : 			m_bShowingShieldEffect = FALSE ;

  0066a	8b 45 f8	 mov	 eax, DWORD PTR _this$[ebp]
  0066d	c7 80 94 01 00
	00 00 00 00 00	 mov	 DWORD PTR [eax+404], 0
$L94405:

; 1731 : 
; 1732 : 		return S_OK ;

  00677	33 c0		 xor	 eax, eax
$L94367:

; 1733 : 	}

  00679	52		 push	 edx
  0067a	8b cd		 mov	 ecx, ebp
  0067c	50		 push	 eax
  0067d	8d 15 00 00 00
	00		 lea	 edx, DWORD PTR $L94943
  00683	e8 00 00 00 00	 call	 @_RTC_CheckStackVars@8
  00688	58		 pop	 eax
  00689	5a		 pop	 edx
  0068a	5f		 pop	 edi
  0068b	5e		 pop	 esi
  0068c	5b		 pop	 ebx
  0068d	81 c4 94 03 00
	00		 add	 esp, 916		; 00000394H
  00693	3b ec		 cmp	 ebp, esp
  00695	e8 00 00 00 00	 call	 __RTC_CheckEsp
  0069a	8b e5		 mov	 esp, ebp
  0069c	5d		 pop	 ebp
  0069d	c2 34 00	 ret	 52			; 00000034H
$L94943:
  006a0	09 00 00 00	 DD	 9
  006a4	00 00 00 00	 DD	 $L94942
$L94942:
  006a8	98 ff ff ff	 DD	 -104			; ffffff98H
  006ac	44 00 00 00	 DD	 68			; 00000044H
  006b0	00 00 00 00	 DD	 $L94933
  006b4	50 ff ff ff	 DD	 -176			; ffffff50H
  006b8	40 00 00 00	 DD	 64			; 00000040H
  006bc	00 00 00 00	 DD	 $L94934
  006c0	08 ff ff ff	 DD	 -248			; ffffff08H
  006c4	40 00 00 00	 DD	 64			; 00000040H
  006c8	00 00 00 00	 DD	 $L94935
  006cc	c0 fe ff ff	 DD	 -320			; fffffec0H
  006d0	40 00 00 00	 DD	 64			; 00000040H
  006d4	00 00 00 00	 DD	 $L94936
  006d8	78 fe ff ff	 DD	 -392			; fffffe78H
  006dc	40 00 00 00	 DD	 64			; 00000040H
  006e0	00 00 00 00	 DD	 $L94937
  006e4	30 fe ff ff	 DD	 -464			; fffffe30H
  006e8	40 00 00 00	 DD	 64			; 00000040H
  006ec	00 00 00 00	 DD	 $L94938
  006f0	d0 fd ff ff	 DD	 -560			; fffffdd0H
  006f4	40 00 00 00	 DD	 64			; 00000040H
  006f8	00 00 00 00	 DD	 $L94939
  006fc	88 fd ff ff	 DD	 -632			; fffffd88H
  00700	40 00 00 00	 DD	 64			; 00000040H
  00704	00 00 00 00	 DD	 $L94940
  00708	40 fd ff ff	 DD	 -704			; fffffd40H
  0070c	40 00 00 00	 DD	 64			; 00000040H
  00710	00 00 00 00	 DD	 $L94941
$L94941:
  00714	6d		 DB	 109			; 0000006dH
  00715	61		 DB	 97			; 00000061H
  00716	74		 DB	 116			; 00000074H
  00717	46		 DB	 70			; 00000046H
  00718	69		 DB	 105			; 00000069H
  00719	6e		 DB	 110			; 0000006eH
  0071a	61		 DB	 97			; 00000061H
  0071b	6c		 DB	 108			; 0000006cH
  0071c	00		 DB	 0
$L94940:
  0071d	6d		 DB	 109			; 0000006dH
  0071e	61		 DB	 97			; 00000061H
  0071f	74		 DB	 116			; 00000074H
  00720	54		 DB	 84			; 00000054H
  00721	72		 DB	 114			; 00000072H
  00722	61		 DB	 97			; 00000061H
  00723	6e		 DB	 110			; 0000006eH
  00724	73		 DB	 115			; 00000073H
  00725	00		 DB	 0
$L94939:
  00726	6d		 DB	 109			; 0000006dH
  00727	61		 DB	 97			; 00000061H
  00728	74		 DB	 116			; 00000074H
  00729	53		 DB	 83			; 00000053H
  0072a	63		 DB	 99			; 00000063H
  0072b	61		 DB	 97			; 00000061H
  0072c	6c		 DB	 108			; 0000006cH
  0072d	65		 DB	 101			; 00000065H
  0072e	00		 DB	 0
$L94938:
  0072f	6d		 DB	 109			; 0000006dH
  00730	33		 DB	 51			; 00000033H
  00731	00		 DB	 0
$L94937:
  00732	6d		 DB	 109			; 0000006dH
  00733	32		 DB	 50			; 00000032H
  00734	00		 DB	 0
$L94936:
  00735	6d		 DB	 109			; 0000006dH
  00736	31		 DB	 49			; 00000031H
  00737	00		 DB	 0
$L94935:
  00738	6d		 DB	 109			; 0000006dH
  00739	30		 DB	 48			; 00000030H
  0073a	00		 DB	 0
$L94934:
  0073b	6d		 DB	 109			; 0000006dH
  0073c	61		 DB	 97			; 00000061H
  0073d	74		 DB	 116			; 00000074H
  0073e	54		 DB	 84			; 00000054H
  0073f	65		 DB	 101			; 00000065H
  00740	78		 DB	 120			; 00000078H
  00741	00		 DB	 0
$L94933:
  00742	6d		 DB	 109			; 0000006dH
  00743	74		 DB	 116			; 00000074H
  00744	72		 DB	 114			; 00000072H
  00745	00		 DB	 0
?RenderFX_Shield@CFighter@@QAEJPAUIDirect3DDevice8@@PAVCTextures@@PAKHPAUD3DXMATRIX@@PAVCCamera@@3PAU_D3DVIEWPORT8@@PAVCTerrain@@PAUIDirect3DVertexBuffer8@@MHH@Z ENDP ; CFighter::RenderFX_Shield
_TEXT	ENDS
PUBLIC	_sqrtf
; Function compile flags: /Odt /RTCsu /ZI
; File c:\dxsdk\include\d3dx8math.inl
;	COMDAT ?D3DXVec3Length@@YAMPBUD3DXVECTOR3@@@Z
_TEXT	SEGMENT
_pV$ = 8
?D3DXVec3Length@@YAMPBUD3DXVECTOR3@@@Z PROC NEAR	; D3DXVec3Length, COMDAT

; 1232 : {

  00000	55		 push	 ebp
  00001	8b ec		 mov	 ebp, esp
  00003	81 ec c0 00 00
	00		 sub	 esp, 192		; 000000c0H
  00009	53		 push	 ebx
  0000a	56		 push	 esi
  0000b	57		 push	 edi
  0000c	8d bd 40 ff ff
	ff		 lea	 edi, DWORD PTR [ebp-192]
  00012	b9 30 00 00 00	 mov	 ecx, 48			; 00000030H
  00017	b8 cc cc cc cc	 mov	 eax, -858993460		; ccccccccH
  0001c	f3 ab		 rep stosd

; 1233 : #ifdef D3DX_DEBUG
; 1234 :     if(!pV)
; 1235 :         return 0.0f;
; 1236 : #endif
; 1237 : 
; 1238 : #ifdef __cplusplus
; 1239 :     return sqrtf(pV->x * pV->x + pV->y * pV->y + pV->z * pV->z);

  0001e	8b 45 08	 mov	 eax, DWORD PTR _pV$[ebp]
  00021	8b 4d 08	 mov	 ecx, DWORD PTR _pV$[ebp]
  00024	d9 00		 fld	 DWORD PTR [eax]
  00026	d8 09		 fmul	 DWORD PTR [ecx]
  00028	8b 55 08	 mov	 edx, DWORD PTR _pV$[ebp]
  0002b	8b 45 08	 mov	 eax, DWORD PTR _pV$[ebp]
  0002e	d9 42 04	 fld	 DWORD PTR [edx+4]
  00031	d8 48 04	 fmul	 DWORD PTR [eax+4]
  00034	de c1		 faddp	 ST(1), ST(0)
  00036	8b 4d 08	 mov	 ecx, DWORD PTR _pV$[ebp]
  00039	8b 55 08	 mov	 edx, DWORD PTR _pV$[ebp]
  0003c	d9 41 08	 fld	 DWORD PTR [ecx+8]
  0003f	d8 4a 08	 fmul	 DWORD PTR [edx+8]
  00042	de c1		 faddp	 ST(1), ST(0)
  00044	51		 push	 ecx
  00045	d9 1c 24	 fstp	 DWORD PTR [esp]
  00048	e8 00 00 00 00	 call	 _sqrtf
  0004d	83 c4 04	 add	 esp, 4

; 1240 : #else
; 1241 :     return (FLOAT) sqrt(pV->x * pV->x + pV->y * pV->y + pV->z * pV->z);
; 1242 : #endif
; 1243 : }

  00050	5f		 pop	 edi
  00051	5e		 pop	 esi
  00052	5b		 pop	 ebx
  00053	81 c4 c0 00 00
	00		 add	 esp, 192		; 000000c0H
  00059	3b ec		 cmp	 ebp, esp
  0005b	e8 00 00 00 00	 call	 __RTC_CheckEsp
  00060	8b e5		 mov	 esp, ebp
  00062	5d		 pop	 ebp
  00063	c3		 ret	 0
?D3DXVec3Length@@YAMPBUD3DXVECTOR3@@@Z ENDP		; D3DXVec3Length
_TEXT	ENDS
EXTRN	_sqrt:NEAR
; Function compile flags: /Odt /RTCsu /ZI
; File c:\program files\microsoft visual studio .net\vc7\include\math.h
;	COMDAT _sqrtf
_TEXT	SEGMENT
tv70 = -196
__X$ = 8
_sqrtf	PROC NEAR					; COMDAT

; 470  :         {return ((float)sqrt((double)_X)); }

  00000	55		 push	 ebp
  00001	8b ec		 mov	 ebp, esp
  00003	81 ec c4 00 00
	00		 sub	 esp, 196		; 000000c4H
  00009	53		 push	 ebx
  0000a	56		 push	 esi
  0000b	57		 push	 edi
  0000c	8d bd 3c ff ff
	ff		 lea	 edi, DWORD PTR [ebp-196]
  00012	b9 31 00 00 00	 mov	 ecx, 49			; 00000031H
  00017	b8 cc cc cc cc	 mov	 eax, -858993460		; ccccccccH
  0001c	f3 ab		 rep stosd
  0001e	d9 45 08	 fld	 DWORD PTR __X$[ebp]
  00021	83 ec 08	 sub	 esp, 8
  00024	dd 1c 24	 fstp	 QWORD PTR [esp]
  00027	e8 00 00 00 00	 call	 _sqrt
  0002c	83 c4 08	 add	 esp, 8
  0002f	d9 95 3c ff ff
	ff		 fst	 DWORD PTR tv70[ebp]
  00035	5f		 pop	 edi
  00036	5e		 pop	 esi
  00037	5b		 pop	 ebx
  00038	81 c4 c4 00 00
	00		 add	 esp, 196		; 000000c4H
  0003e	3b ec		 cmp	 ebp, esp
  00040	e8 00 00 00 00	 call	 __RTC_CheckEsp
  00045	8b e5		 mov	 esp, ebp
  00047	5d		 pop	 ebp
  00048	c3		 ret	 0
_sqrtf	ENDP
; Function compile flags: /Odt /RTCsu /ZI
; File c:\documents and settings\dom\my documents\_dev\ae\xlr8a\x7g\cfighter.cpp
_TEXT	ENDS
;	COMDAT ?GetFighterAbsPosFromRelative@CFighter@@QAEHPAUD3DXVECTOR3@@0@Z
_TEXT	SEGMENT
_v4RotatedPos$ = -248
_mT2$ = -224
_mT1$ = -152
_mT$ = -80
_this$ = -8
_pvRelPos$ = 8
_pvRotatedPos$ = 12
?GetFighterAbsPosFromRelative@CFighter@@QAEHPAUD3DXVECTOR3@@0@Z PROC NEAR ; CFighter::GetFighterAbsPosFromRelative, COMDAT
; _this$ = ecx

; 1736 : 	{

  00000	55		 push	 ebp
  00001	8b ec		 mov	 ebp, esp
  00003	81 ec bc 01 00
	00		 sub	 esp, 444		; 000001bcH
  00009	53		 push	 ebx
  0000a	56		 push	 esi
  0000b	57		 push	 edi
  0000c	51		 push	 ecx
  0000d	8d bd 44 fe ff
	ff		 lea	 edi, DWORD PTR [ebp-444]
  00013	b9 6f 00 00 00	 mov	 ecx, 111		; 0000006fH
  00018	b8 cc cc cc cc	 mov	 eax, -858993460		; ccccccccH
  0001d	f3 ab		 rep stosd
  0001f	59		 pop	 ecx
  00020	89 4d f8	 mov	 DWORD PTR _this$[ebp], ecx

; 1737 : 		xMat mT, mT1, mT2 ;

  00023	8d 4d b0	 lea	 ecx, DWORD PTR _mT$[ebp]
  00026	e8 00 00 00 00	 call	 ??0D3DXMATRIX@@QAE@XZ	; D3DXMATRIX::D3DXMATRIX
  0002b	8d 8d 68 ff ff
	ff		 lea	 ecx, DWORD PTR _mT1$[ebp]
  00031	e8 00 00 00 00	 call	 ??0D3DXMATRIX@@QAE@XZ	; D3DXMATRIX::D3DXMATRIX
  00036	8d 8d 20 ff ff
	ff		 lea	 ecx, DWORD PTR _mT2$[ebp]
  0003c	e8 00 00 00 00	 call	 ??0D3DXMATRIX@@QAE@XZ	; D3DXMATRIX::D3DXMATRIX

; 1738 : 		xVec4 v4RotatedPos ;

  00041	8d 8d 08 ff ff
	ff		 lea	 ecx, DWORD PTR _v4RotatedPos$[ebp]
  00047	e8 00 00 00 00	 call	 ??0D3DXVECTOR4@@QAE@XZ	; D3DXVECTOR4::D3DXVECTOR4

; 1739 : 		
; 1740 : 		D3DXMatrixTranslation( &mT1, -m_vPosition.x, -m_vPosition.y, -m_vPosition.z ); 

  0004c	8b 45 f8	 mov	 eax, DWORD PTR _this$[ebp]
  0004f	d9 80 04 02 00
	00		 fld	 DWORD PTR [eax+516]
  00055	d9 e0		 fchs
  00057	51		 push	 ecx
  00058	d9 1c 24	 fstp	 DWORD PTR [esp]
  0005b	8b 4d f8	 mov	 ecx, DWORD PTR _this$[ebp]
  0005e	d9 81 00 02 00
	00		 fld	 DWORD PTR [ecx+512]
  00064	d9 e0		 fchs
  00066	51		 push	 ecx
  00067	d9 1c 24	 fstp	 DWORD PTR [esp]
  0006a	8b 55 f8	 mov	 edx, DWORD PTR _this$[ebp]
  0006d	d9 82 fc 01 00
	00		 fld	 DWORD PTR [edx+508]
  00073	d9 e0		 fchs
  00075	51		 push	 ecx
  00076	d9 1c 24	 fstp	 DWORD PTR [esp]
  00079	8d 85 68 ff ff
	ff		 lea	 eax, DWORD PTR _mT1$[ebp]
  0007f	50		 push	 eax
  00080	e8 00 00 00 00	 call	 _D3DXMatrixTranslation@16

; 1741 : 		D3DXMatrixTranslation( &mT2, +m_vPosition.x, +m_vPosition.y, +m_vPosition.z ); 

  00085	8b 45 f8	 mov	 eax, DWORD PTR _this$[ebp]
  00088	8b 88 04 02 00
	00		 mov	 ecx, DWORD PTR [eax+516]
  0008e	51		 push	 ecx
  0008f	8b 55 f8	 mov	 edx, DWORD PTR _this$[ebp]
  00092	8b 82 00 02 00
	00		 mov	 eax, DWORD PTR [edx+512]
  00098	50		 push	 eax
  00099	8b 4d f8	 mov	 ecx, DWORD PTR _this$[ebp]
  0009c	8b 91 fc 01 00
	00		 mov	 edx, DWORD PTR [ecx+508]
  000a2	52		 push	 edx
  000a3	8d 85 20 ff ff
	ff		 lea	 eax, DWORD PTR _mT2$[ebp]
  000a9	50		 push	 eax
  000aa	e8 00 00 00 00	 call	 _D3DXMatrixTranslation@16

; 1742 : 		D3DXMatrixMultiply( &mT, &mT1, &m_matRot );

  000af	8b 45 f8	 mov	 eax, DWORD PTR _this$[ebp]
  000b2	05 64 02 00 00	 add	 eax, 612		; 00000264H
  000b7	50		 push	 eax
  000b8	8d 8d 68 ff ff
	ff		 lea	 ecx, DWORD PTR _mT1$[ebp]
  000be	51		 push	 ecx
  000bf	8d 55 b0	 lea	 edx, DWORD PTR _mT$[ebp]
  000c2	52		 push	 edx
  000c3	e8 00 00 00 00	 call	 _D3DXMatrixMultiply@12

; 1743 : 		D3DXMatrixMultiply( &mT, &mT, &mT2 );

  000c8	8d 85 20 ff ff
	ff		 lea	 eax, DWORD PTR _mT2$[ebp]
  000ce	50		 push	 eax
  000cf	8d 4d b0	 lea	 ecx, DWORD PTR _mT$[ebp]
  000d2	51		 push	 ecx
  000d3	8d 55 b0	 lea	 edx, DWORD PTR _mT$[ebp]
  000d6	52		 push	 edx
  000d7	e8 00 00 00 00	 call	 _D3DXMatrixMultiply@12

; 1744 : 
; 1745 : 		D3DXVec3Transform( &v4RotatedPos, pvRelPos, &mT );

  000dc	8d 45 b0	 lea	 eax, DWORD PTR _mT$[ebp]
  000df	50		 push	 eax
  000e0	8b 4d 08	 mov	 ecx, DWORD PTR _pvRelPos$[ebp]
  000e3	51		 push	 ecx
  000e4	8d 95 08 ff ff
	ff		 lea	 edx, DWORD PTR _v4RotatedPos$[ebp]
  000ea	52		 push	 edx
  000eb	e8 00 00 00 00	 call	 _D3DXVec3Transform@12

; 1746 : 		pvRotatedPos->x = v4RotatedPos.x ;

  000f0	8b 45 0c	 mov	 eax, DWORD PTR _pvRotatedPos$[ebp]
  000f3	8b 8d 08 ff ff
	ff		 mov	 ecx, DWORD PTR _v4RotatedPos$[ebp]
  000f9	89 08		 mov	 DWORD PTR [eax], ecx

; 1747 : 		pvRotatedPos->y = v4RotatedPos.y ;

  000fb	8b 45 0c	 mov	 eax, DWORD PTR _pvRotatedPos$[ebp]
  000fe	8b 8d 0c ff ff
	ff		 mov	 ecx, DWORD PTR _v4RotatedPos$[ebp+4]
  00104	89 48 04	 mov	 DWORD PTR [eax+4], ecx

; 1748 : 		pvRotatedPos->z = v4RotatedPos.z ;

  00107	8b 45 0c	 mov	 eax, DWORD PTR _pvRotatedPos$[ebp]
  0010a	8b 8d 10 ff ff
	ff		 mov	 ecx, DWORD PTR _v4RotatedPos$[ebp+8]
  00110	89 48 08	 mov	 DWORD PTR [eax+8], ecx

; 1749 : 	}

  00113	52		 push	 edx
  00114	8b cd		 mov	 ecx, ebp
  00116	50		 push	 eax
  00117	8d 15 00 00 00
	00		 lea	 edx, DWORD PTR $L94955
  0011d	e8 00 00 00 00	 call	 @_RTC_CheckStackVars@8
  00122	58		 pop	 eax
  00123	5a		 pop	 edx
  00124	5f		 pop	 edi
  00125	5e		 pop	 esi
  00126	5b		 pop	 ebx
  00127	81 c4 bc 01 00
	00		 add	 esp, 444		; 000001bcH
  0012d	3b ec		 cmp	 ebp, esp
  0012f	e8 00 00 00 00	 call	 __RTC_CheckEsp
  00134	8b e5		 mov	 esp, ebp
  00136	5d		 pop	 ebp
  00137	c2 08 00	 ret	 8
$L94955:
  0013a	04 00 00 00	 DD	 4
  0013e	00 00 00 00	 DD	 $L94954
$L94954:
  00142	b0 ff ff ff	 DD	 -80			; ffffffb0H
  00146	40 00 00 00	 DD	 64			; 00000040H
  0014a	00 00 00 00	 DD	 $L94950
  0014e	68 ff ff ff	 DD	 -152			; ffffff68H
  00152	40 00 00 00	 DD	 64			; 00000040H
  00156	00 00 00 00	 DD	 $L94951
  0015a	20 ff ff ff	 DD	 -224			; ffffff20H
  0015e	40 00 00 00	 DD	 64			; 00000040H
  00162	00 00 00 00	 DD	 $L94952
  00166	08 ff ff ff	 DD	 -248			; ffffff08H
  0016a	10 00 00 00	 DD	 16			; 00000010H
  0016e	00 00 00 00	 DD	 $L94953
$L94953:
  00172	76		 DB	 118			; 00000076H
  00173	34		 DB	 52			; 00000034H
  00174	52		 DB	 82			; 00000052H
  00175	6f		 DB	 111			; 0000006fH
  00176	74		 DB	 116			; 00000074H
  00177	61		 DB	 97			; 00000061H
  00178	74		 DB	 116			; 00000074H
  00179	65		 DB	 101			; 00000065H
  0017a	64		 DB	 100			; 00000064H
  0017b	50		 DB	 80			; 00000050H
  0017c	6f		 DB	 111			; 0000006fH
  0017d	73		 DB	 115			; 00000073H
  0017e	00		 DB	 0
$L94952:
  0017f	6d		 DB	 109			; 0000006dH
  00180	54		 DB	 84			; 00000054H
  00181	32		 DB	 50			; 00000032H
  00182	00		 DB	 0
$L94951:
  00183	6d		 DB	 109			; 0000006dH
  00184	54		 DB	 84			; 00000054H
  00185	31		 DB	 49			; 00000031H
  00186	00		 DB	 0
$L94950:
  00187	6d		 DB	 109			; 0000006dH
  00188	54		 DB	 84			; 00000054H
  00189	00		 DB	 0
?GetFighterAbsPosFromRelative@CFighter@@QAEHPAUD3DXVECTOR3@@0@Z ENDP ; CFighter::GetFighterAbsPosFromRelative
_TEXT	ENDS
PUBLIC	?D3DXVec3Cross@@YAPAUD3DXVECTOR3@@PAU1@PBU1@1@Z	; D3DXVec3Cross
PUBLIC	?D3DXVec3Subtract@@YAPAUD3DXVECTOR3@@PAU1@PBU1@1@Z ; D3DXVec3Subtract
; Function compile flags: /Odt /RTCsu /ZI
;	COMDAT ?GetAvgNormalFrom4TerrainVerts@CFighter@@QAEHPAUD3DXVECTOR3@@0@Z
_TEXT	SEGMENT
_vn2$ = -108
_vn1$ = -88
_vcp$ = -68
_vd2$ = -48
_vd1$ = -28
_this$ = -8
_pvnAvg$ = 8
_pvTerrainVerts$ = 12
?GetAvgNormalFrom4TerrainVerts@CFighter@@QAEHPAUD3DXVECTOR3@@0@Z PROC NEAR ; CFighter::GetAvgNormalFrom4TerrainVerts, COMDAT
; _this$ = ecx

; 1752 : 	{

  00000	55		 push	 ebp
  00001	8b ec		 mov	 ebp, esp
  00003	81 ec 30 01 00
	00		 sub	 esp, 304		; 00000130H
  00009	53		 push	 ebx
  0000a	56		 push	 esi
  0000b	57		 push	 edi
  0000c	51		 push	 ecx
  0000d	8d bd d0 fe ff
	ff		 lea	 edi, DWORD PTR [ebp-304]
  00013	b9 4c 00 00 00	 mov	 ecx, 76			; 0000004cH
  00018	b8 cc cc cc cc	 mov	 eax, -858993460		; ccccccccH
  0001d	f3 ab		 rep stosd
  0001f	59		 pop	 ecx
  00020	89 4d f8	 mov	 DWORD PTR _this$[ebp], ecx

; 1753 : 		xVec3 vd1, vd2, vcp, vn1, vn2 ;

  00023	8d 4d e4	 lea	 ecx, DWORD PTR _vd1$[ebp]
  00026	e8 00 00 00 00	 call	 ??0D3DXVECTOR3@@QAE@XZ	; D3DXVECTOR3::D3DXVECTOR3
  0002b	8d 4d d0	 lea	 ecx, DWORD PTR _vd2$[ebp]
  0002e	e8 00 00 00 00	 call	 ??0D3DXVECTOR3@@QAE@XZ	; D3DXVECTOR3::D3DXVECTOR3
  00033	8d 4d bc	 lea	 ecx, DWORD PTR _vcp$[ebp]
  00036	e8 00 00 00 00	 call	 ??0D3DXVECTOR3@@QAE@XZ	; D3DXVECTOR3::D3DXVECTOR3
  0003b	8d 4d a8	 lea	 ecx, DWORD PTR _vn1$[ebp]
  0003e	e8 00 00 00 00	 call	 ??0D3DXVECTOR3@@QAE@XZ	; D3DXVECTOR3::D3DXVECTOR3
  00043	8d 4d 94	 lea	 ecx, DWORD PTR _vn2$[ebp]
  00046	e8 00 00 00 00	 call	 ??0D3DXVECTOR3@@QAE@XZ	; D3DXVECTOR3::D3DXVECTOR3

; 1754 : 
; 1755 : /*ods( "pvTerrainVerts[0].x=(%0.1f,%0.1f,%0.1f)\n", pvTerrainVerts[0].x, pvTerrainVerts[0].y, pvTerrainVerts[0].z );
; 1756 : ods( "pvTerrainVerts[1].x=(%0.1f,%0.1f,%0.1f)\n", pvTerrainVerts[1].x, pvTerrainVerts[1].y, pvTerrainVerts[1].z );
; 1757 : ods( "pvTerrainVerts[2].x=(%0.1f,%0.1f,%0.1f)\n", pvTerrainVerts[2].x, pvTerrainVerts[2].y, pvTerrainVerts[2].z );
; 1758 : ods( "pvTerrainVerts[3].x=(%0.1f,%0.1f,%0.1f)\n", pvTerrainVerts[3].x, pvTerrainVerts[3].y, pvTerrainVerts[3].z );*/
; 1759 : 
; 1760 : 		D3DXVec3Subtract( &vd1, &pvTerrainVerts[1], &pvTerrainVerts[2] );

  0004b	8b 45 0c	 mov	 eax, DWORD PTR _pvTerrainVerts$[ebp]
  0004e	83 c0 18	 add	 eax, 24			; 00000018H
  00051	50		 push	 eax
  00052	8b 4d 0c	 mov	 ecx, DWORD PTR _pvTerrainVerts$[ebp]
  00055	83 c1 0c	 add	 ecx, 12			; 0000000cH
  00058	51		 push	 ecx
  00059	8d 55 e4	 lea	 edx, DWORD PTR _vd1$[ebp]
  0005c	52		 push	 edx
  0005d	e8 00 00 00 00	 call	 ?D3DXVec3Subtract@@YAPAUD3DXVECTOR3@@PAU1@PBU1@1@Z ; D3DXVec3Subtract
  00062	83 c4 0c	 add	 esp, 12			; 0000000cH

; 1761 : 		D3DXVec3Subtract( &vd2, &pvTerrainVerts[2], &pvTerrainVerts[0] );

  00065	8b 45 0c	 mov	 eax, DWORD PTR _pvTerrainVerts$[ebp]
  00068	50		 push	 eax
  00069	8b 4d 0c	 mov	 ecx, DWORD PTR _pvTerrainVerts$[ebp]
  0006c	83 c1 18	 add	 ecx, 24			; 00000018H
  0006f	51		 push	 ecx
  00070	8d 55 d0	 lea	 edx, DWORD PTR _vd2$[ebp]
  00073	52		 push	 edx
  00074	e8 00 00 00 00	 call	 ?D3DXVec3Subtract@@YAPAUD3DXVECTOR3@@PAU1@PBU1@1@Z ; D3DXVec3Subtract
  00079	83 c4 0c	 add	 esp, 12			; 0000000cH

; 1762 : 		D3DXVec3Cross( &vcp, &vd1, &vd2 );

  0007c	8d 45 d0	 lea	 eax, DWORD PTR _vd2$[ebp]
  0007f	50		 push	 eax
  00080	8d 4d e4	 lea	 ecx, DWORD PTR _vd1$[ebp]
  00083	51		 push	 ecx
  00084	8d 55 bc	 lea	 edx, DWORD PTR _vcp$[ebp]
  00087	52		 push	 edx
  00088	e8 00 00 00 00	 call	 ?D3DXVec3Cross@@YAPAUD3DXVECTOR3@@PAU1@PBU1@1@Z ; D3DXVec3Cross
  0008d	83 c4 0c	 add	 esp, 12			; 0000000cH

; 1763 : 		D3DXVec3Normalize( &vn1, &vcp );

  00090	8d 45 bc	 lea	 eax, DWORD PTR _vcp$[ebp]
  00093	50		 push	 eax
  00094	8d 4d a8	 lea	 ecx, DWORD PTR _vn1$[ebp]
  00097	51		 push	 ecx
  00098	e8 00 00 00 00	 call	 _D3DXVec3Normalize@8

; 1764 : 
; 1765 : 		D3DXVec3Subtract( &vd1, &pvTerrainVerts[3], &pvTerrainVerts[2] );

  0009d	8b 45 0c	 mov	 eax, DWORD PTR _pvTerrainVerts$[ebp]
  000a0	83 c0 18	 add	 eax, 24			; 00000018H
  000a3	50		 push	 eax
  000a4	8b 4d 0c	 mov	 ecx, DWORD PTR _pvTerrainVerts$[ebp]
  000a7	83 c1 24	 add	 ecx, 36			; 00000024H
  000aa	51		 push	 ecx
  000ab	8d 55 e4	 lea	 edx, DWORD PTR _vd1$[ebp]
  000ae	52		 push	 edx
  000af	e8 00 00 00 00	 call	 ?D3DXVec3Subtract@@YAPAUD3DXVECTOR3@@PAU1@PBU1@1@Z ; D3DXVec3Subtract
  000b4	83 c4 0c	 add	 esp, 12			; 0000000cH

; 1766 : 		D3DXVec3Subtract( &vd2, &pvTerrainVerts[3], &pvTerrainVerts[1] );

  000b7	8b 45 0c	 mov	 eax, DWORD PTR _pvTerrainVerts$[ebp]
  000ba	83 c0 0c	 add	 eax, 12			; 0000000cH
  000bd	50		 push	 eax
  000be	8b 4d 0c	 mov	 ecx, DWORD PTR _pvTerrainVerts$[ebp]
  000c1	83 c1 24	 add	 ecx, 36			; 00000024H
  000c4	51		 push	 ecx
  000c5	8d 55 d0	 lea	 edx, DWORD PTR _vd2$[ebp]
  000c8	52		 push	 edx
  000c9	e8 00 00 00 00	 call	 ?D3DXVec3Subtract@@YAPAUD3DXVECTOR3@@PAU1@PBU1@1@Z ; D3DXVec3Subtract
  000ce	83 c4 0c	 add	 esp, 12			; 0000000cH

; 1767 : 		D3DXVec3Cross( &vcp, &vd1, &vd2 );

  000d1	8d 45 d0	 lea	 eax, DWORD PTR _vd2$[ebp]
  000d4	50		 push	 eax
  000d5	8d 4d e4	 lea	 ecx, DWORD PTR _vd1$[ebp]
  000d8	51		 push	 ecx
  000d9	8d 55 bc	 lea	 edx, DWORD PTR _vcp$[ebp]
  000dc	52		 push	 edx
  000dd	e8 00 00 00 00	 call	 ?D3DXVec3Cross@@YAPAUD3DXVECTOR3@@PAU1@PBU1@1@Z ; D3DXVec3Cross
  000e2	83 c4 0c	 add	 esp, 12			; 0000000cH

; 1768 : 		D3DXVec3Normalize( &vn2, &vcp );

  000e5	8d 45 bc	 lea	 eax, DWORD PTR _vcp$[ebp]
  000e8	50		 push	 eax
  000e9	8d 4d 94	 lea	 ecx, DWORD PTR _vn2$[ebp]
  000ec	51		 push	 ecx
  000ed	e8 00 00 00 00	 call	 _D3DXVec3Normalize@8

; 1769 : 
; 1770 : 		(*pvnAvg).x = (vn1.z + vn2.z) / 2.0f ;	// must reverse x and z here! -- caused by LERPdY's logic?

  000f2	d9 45 b0	 fld	 DWORD PTR _vn1$[ebp+8]
  000f5	d8 45 9c	 fadd	 DWORD PTR _vn2$[ebp+8]
  000f8	d8 35 00 00 00
	00		 fdiv	 DWORD PTR __real@40000000
  000fe	8b 45 08	 mov	 eax, DWORD PTR _pvnAvg$[ebp]
  00101	d9 18		 fstp	 DWORD PTR [eax]

; 1771 : 		(*pvnAvg).y = (vn1.y + vn2.y) / 2.0f ;

  00103	d9 45 ac	 fld	 DWORD PTR _vn1$[ebp+4]
  00106	d8 45 98	 fadd	 DWORD PTR _vn2$[ebp+4]
  00109	d8 35 00 00 00
	00		 fdiv	 DWORD PTR __real@40000000
  0010f	8b 45 08	 mov	 eax, DWORD PTR _pvnAvg$[ebp]
  00112	d9 58 04	 fstp	 DWORD PTR [eax+4]

; 1772 : 		(*pvnAvg).z = (vn1.x + vn2.x) / 2.0f ;

  00115	d9 45 a8	 fld	 DWORD PTR _vn1$[ebp]
  00118	d8 45 94	 fadd	 DWORD PTR _vn2$[ebp]
  0011b	d8 35 00 00 00
	00		 fdiv	 DWORD PTR __real@40000000
  00121	8b 45 08	 mov	 eax, DWORD PTR _pvnAvg$[ebp]
  00124	d9 58 08	 fstp	 DWORD PTR [eax+8]

; 1773 : 	}

  00127	52		 push	 edx
  00128	8b cd		 mov	 ecx, ebp
  0012a	50		 push	 eax
  0012b	8d 15 00 00 00
	00		 lea	 edx, DWORD PTR $L94964
  00131	e8 00 00 00 00	 call	 @_RTC_CheckStackVars@8
  00136	58		 pop	 eax
  00137	5a		 pop	 edx
  00138	5f		 pop	 edi
  00139	5e		 pop	 esi
  0013a	5b		 pop	 ebx
  0013b	81 c4 30 01 00
	00		 add	 esp, 304		; 00000130H
  00141	3b ec		 cmp	 ebp, esp
  00143	e8 00 00 00 00	 call	 __RTC_CheckEsp
  00148	8b e5		 mov	 esp, ebp
  0014a	5d		 pop	 ebp
  0014b	c2 08 00	 ret	 8
$L94964:
  0014e	05 00 00 00	 DD	 5
  00152	00 00 00 00	 DD	 $L94963
$L94963:
  00156	e4 ff ff ff	 DD	 -28			; ffffffe4H
  0015a	0c 00 00 00	 DD	 12			; 0000000cH
  0015e	00 00 00 00	 DD	 $L94958
  00162	d0 ff ff ff	 DD	 -48			; ffffffd0H
  00166	0c 00 00 00	 DD	 12			; 0000000cH
  0016a	00 00 00 00	 DD	 $L94959
  0016e	bc ff ff ff	 DD	 -68			; ffffffbcH
  00172	0c 00 00 00	 DD	 12			; 0000000cH
  00176	00 00 00 00	 DD	 $L94960
  0017a	a8 ff ff ff	 DD	 -88			; ffffffa8H
  0017e	0c 00 00 00	 DD	 12			; 0000000cH
  00182	00 00 00 00	 DD	 $L94961
  00186	94 ff ff ff	 DD	 -108			; ffffff94H
  0018a	0c 00 00 00	 DD	 12			; 0000000cH
  0018e	00 00 00 00	 DD	 $L94962
$L94962:
  00192	76		 DB	 118			; 00000076H
  00193	6e		 DB	 110			; 0000006eH
  00194	32		 DB	 50			; 00000032H
  00195	00		 DB	 0
$L94961:
  00196	76		 DB	 118			; 00000076H
  00197	6e		 DB	 110			; 0000006eH
  00198	31		 DB	 49			; 00000031H
  00199	00		 DB	 0
$L94960:
  0019a	76		 DB	 118			; 00000076H
  0019b	63		 DB	 99			; 00000063H
  0019c	70		 DB	 112			; 00000070H
  0019d	00		 DB	 0
$L94959:
  0019e	76		 DB	 118			; 00000076H
  0019f	64		 DB	 100			; 00000064H
  001a0	32		 DB	 50			; 00000032H
  001a1	00		 DB	 0
$L94958:
  001a2	76		 DB	 118			; 00000076H
  001a3	64		 DB	 100			; 00000064H
  001a4	31		 DB	 49			; 00000031H
  001a5	00		 DB	 0
?GetAvgNormalFrom4TerrainVerts@CFighter@@QAEHPAUD3DXVECTOR3@@0@Z ENDP ; CFighter::GetAvgNormalFrom4TerrainVerts
; Function compile flags: /Odt /RTCsu /ZI
; File c:\dxsdk\include\d3dx8math.inl
_TEXT	ENDS
;	COMDAT ?D3DXVec3Cross@@YAPAUD3DXVECTOR3@@PAU1@PBU1@1@Z
_TEXT	SEGMENT
_v$ = -16
_pOut$ = 8
_pV1$ = 12
_pV2$ = 16
?D3DXVec3Cross@@YAPAUD3DXVECTOR3@@PAU1@PBU1@1@Z PROC NEAR ; D3DXVec3Cross, COMDAT

; 1269 : {

  00000	55		 push	 ebp
  00001	8b ec		 mov	 ebp, esp
  00003	81 ec d4 00 00
	00		 sub	 esp, 212		; 000000d4H
  00009	53		 push	 ebx
  0000a	56		 push	 esi
  0000b	57		 push	 edi
  0000c	8d bd 2c ff ff
	ff		 lea	 edi, DWORD PTR [ebp-212]
  00012	b9 35 00 00 00	 mov	 ecx, 53			; 00000035H
  00017	b8 cc cc cc cc	 mov	 eax, -858993460		; ccccccccH
  0001c	f3 ab		 rep stosd

; 1270 :     D3DXVECTOR3 v;

  0001e	8d 4d f0	 lea	 ecx, DWORD PTR _v$[ebp]
  00021	e8 00 00 00 00	 call	 ??0D3DXVECTOR3@@QAE@XZ	; D3DXVECTOR3::D3DXVECTOR3

; 1271 : 
; 1272 : #ifdef D3DX_DEBUG
; 1273 :     if(!pOut || !pV1 || !pV2)
; 1274 :         return NULL;
; 1275 : #endif
; 1276 : 
; 1277 :     v.x = pV1->y * pV2->z - pV1->z * pV2->y;

  00026	8b 45 0c	 mov	 eax, DWORD PTR _pV1$[ebp]
  00029	8b 4d 10	 mov	 ecx, DWORD PTR _pV2$[ebp]
  0002c	d9 40 04	 fld	 DWORD PTR [eax+4]
  0002f	d8 49 08	 fmul	 DWORD PTR [ecx+8]
  00032	8b 55 0c	 mov	 edx, DWORD PTR _pV1$[ebp]
  00035	8b 45 10	 mov	 eax, DWORD PTR _pV2$[ebp]
  00038	d9 42 08	 fld	 DWORD PTR [edx+8]
  0003b	d8 48 04	 fmul	 DWORD PTR [eax+4]
  0003e	de e9		 fsubp	 ST(1), ST(0)
  00040	d9 5d f0	 fstp	 DWORD PTR _v$[ebp]

; 1278 :     v.y = pV1->z * pV2->x - pV1->x * pV2->z;

  00043	8b 45 0c	 mov	 eax, DWORD PTR _pV1$[ebp]
  00046	8b 4d 10	 mov	 ecx, DWORD PTR _pV2$[ebp]
  00049	d9 40 08	 fld	 DWORD PTR [eax+8]
  0004c	d8 09		 fmul	 DWORD PTR [ecx]
  0004e	8b 55 0c	 mov	 edx, DWORD PTR _pV1$[ebp]
  00051	8b 45 10	 mov	 eax, DWORD PTR _pV2$[ebp]
  00054	d9 02		 fld	 DWORD PTR [edx]
  00056	d8 48 08	 fmul	 DWORD PTR [eax+8]
  00059	de e9		 fsubp	 ST(1), ST(0)
  0005b	d9 5d f4	 fstp	 DWORD PTR _v$[ebp+4]

; 1279 :     v.z = pV1->x * pV2->y - pV1->y * pV2->x;

  0005e	8b 45 0c	 mov	 eax, DWORD PTR _pV1$[ebp]
  00061	8b 4d 10	 mov	 ecx, DWORD PTR _pV2$[ebp]
  00064	d9 00		 fld	 DWORD PTR [eax]
  00066	d8 49 04	 fmul	 DWORD PTR [ecx+4]
  00069	8b 55 0c	 mov	 edx, DWORD PTR _pV1$[ebp]
  0006c	8b 45 10	 mov	 eax, DWORD PTR _pV2$[ebp]
  0006f	d9 42 04	 fld	 DWORD PTR [edx+4]
  00072	d8 08		 fmul	 DWORD PTR [eax]
  00074	de e9		 fsubp	 ST(1), ST(0)
  00076	d9 5d f8	 fstp	 DWORD PTR _v$[ebp+8]

; 1280 : 
; 1281 :     *pOut = v;

  00079	8b 45 08	 mov	 eax, DWORD PTR _pOut$[ebp]
  0007c	8b 4d f0	 mov	 ecx, DWORD PTR _v$[ebp]
  0007f	89 08		 mov	 DWORD PTR [eax], ecx
  00081	8b 55 f4	 mov	 edx, DWORD PTR _v$[ebp+4]
  00084	89 50 04	 mov	 DWORD PTR [eax+4], edx
  00087	8b 4d f8	 mov	 ecx, DWORD PTR _v$[ebp+8]
  0008a	89 48 08	 mov	 DWORD PTR [eax+8], ecx

; 1282 :     return pOut;

  0008d	8b 45 08	 mov	 eax, DWORD PTR _pOut$[ebp]

; 1283 : }

  00090	52		 push	 edx
  00091	8b cd		 mov	 ecx, ebp
  00093	50		 push	 eax
  00094	8d 15 00 00 00
	00		 lea	 edx, DWORD PTR $L94969
  0009a	e8 00 00 00 00	 call	 @_RTC_CheckStackVars@8
  0009f	58		 pop	 eax
  000a0	5a		 pop	 edx
  000a1	5f		 pop	 edi
  000a2	5e		 pop	 esi
  000a3	5b		 pop	 ebx
  000a4	81 c4 d4 00 00
	00		 add	 esp, 212		; 000000d4H
  000aa	3b ec		 cmp	 ebp, esp
  000ac	e8 00 00 00 00	 call	 __RTC_CheckEsp
  000b1	8b e5		 mov	 esp, ebp
  000b3	5d		 pop	 ebp
  000b4	c3		 ret	 0
$L94969:
  000b5	01 00 00 00	 DD	 1
  000b9	00 00 00 00	 DD	 $L94968
$L94968:
  000bd	f0 ff ff ff	 DD	 -16			; fffffff0H
  000c1	0c 00 00 00	 DD	 12			; 0000000cH
  000c5	00 00 00 00	 DD	 $L94967
$L94967:
  000c9	76		 DB	 118			; 00000076H
  000ca	00		 DB	 0
?D3DXVec3Cross@@YAPAUD3DXVECTOR3@@PAU1@PBU1@1@Z ENDP	; D3DXVec3Cross
; Function compile flags: /Odt /RTCsu /ZI
_TEXT	ENDS
;	COMDAT ?D3DXVec3Subtract@@YAPAUD3DXVECTOR3@@PAU1@PBU1@1@Z
_TEXT	SEGMENT
_pOut$ = 8
_pV1$ = 12
_pV2$ = 16
?D3DXVec3Subtract@@YAPAUD3DXVECTOR3@@PAU1@PBU1@1@Z PROC NEAR ; D3DXVec3Subtract, COMDAT

; 1301 : {

  00000	55		 push	 ebp
  00001	8b ec		 mov	 ebp, esp
  00003	81 ec c0 00 00
	00		 sub	 esp, 192		; 000000c0H
  00009	53		 push	 ebx
  0000a	56		 push	 esi
  0000b	57		 push	 edi
  0000c	8d bd 40 ff ff
	ff		 lea	 edi, DWORD PTR [ebp-192]
  00012	b9 30 00 00 00	 mov	 ecx, 48			; 00000030H
  00017	b8 cc cc cc cc	 mov	 eax, -858993460		; ccccccccH
  0001c	f3 ab		 rep stosd

; 1302 : #ifdef D3DX_DEBUG
; 1303 :     if(!pOut || !pV1 || !pV2)
; 1304 :         return NULL;
; 1305 : #endif
; 1306 : 
; 1307 :     pOut->x = pV1->x - pV2->x;

  0001e	8b 45 0c	 mov	 eax, DWORD PTR _pV1$[ebp]
  00021	8b 4d 10	 mov	 ecx, DWORD PTR _pV2$[ebp]
  00024	d9 00		 fld	 DWORD PTR [eax]
  00026	d8 21		 fsub	 DWORD PTR [ecx]
  00028	8b 55 08	 mov	 edx, DWORD PTR _pOut$[ebp]
  0002b	d9 1a		 fstp	 DWORD PTR [edx]

; 1308 :     pOut->y = pV1->y - pV2->y;

  0002d	8b 45 0c	 mov	 eax, DWORD PTR _pV1$[ebp]
  00030	8b 4d 10	 mov	 ecx, DWORD PTR _pV2$[ebp]
  00033	d9 40 04	 fld	 DWORD PTR [eax+4]
  00036	d8 61 04	 fsub	 DWORD PTR [ecx+4]
  00039	8b 55 08	 mov	 edx, DWORD PTR _pOut$[ebp]
  0003c	d9 5a 04	 fstp	 DWORD PTR [edx+4]

; 1309 :     pOut->z = pV1->z - pV2->z;

  0003f	8b 45 0c	 mov	 eax, DWORD PTR _pV1$[ebp]
  00042	8b 4d 10	 mov	 ecx, DWORD PTR _pV2$[ebp]
  00045	d9 40 08	 fld	 DWORD PTR [eax+8]
  00048	d8 61 08	 fsub	 DWORD PTR [ecx+8]
  0004b	8b 55 08	 mov	 edx, DWORD PTR _pOut$[ebp]
  0004e	d9 5a 08	 fstp	 DWORD PTR [edx+8]

; 1310 :     return pOut;

  00051	8b 45 08	 mov	 eax, DWORD PTR _pOut$[ebp]

; 1311 : }

  00054	5f		 pop	 edi
  00055	5e		 pop	 esi
  00056	5b		 pop	 ebx
  00057	8b e5		 mov	 esp, ebp
  00059	5d		 pop	 ebp
  0005a	c3		 ret	 0
?D3DXVec3Subtract@@YAPAUD3DXVECTOR3@@PAU1@PBU1@1@Z ENDP	; D3DXVec3Subtract
; Function compile flags: /Odt /RTCsu /ZI
_TEXT	ENDS
;	COMDAT ?D3DXColorLerp@@YAPAUD3DXCOLOR@@PAU1@PBU1@1M@Z
_TEXT	SEGMENT
_pOut$ = 8
_pC1$ = 12
_pC2$ = 16
_s$ = 20
?D3DXColorLerp@@YAPAUD3DXCOLOR@@PAU1@PBU1@1M@Z PROC NEAR ; D3DXColorLerp, COMDAT

; 1743 : {

  00000	55		 push	 ebp
  00001	8b ec		 mov	 ebp, esp
  00003	81 ec c0 00 00
	00		 sub	 esp, 192		; 000000c0H
  00009	53		 push	 ebx
  0000a	56		 push	 esi
  0000b	57		 push	 edi
  0000c	8d bd 40 ff ff
	ff		 lea	 edi, DWORD PTR [ebp-192]
  00012	b9 30 00 00 00	 mov	 ecx, 48			; 00000030H
  00017	b8 cc cc cc cc	 mov	 eax, -858993460		; ccccccccH
  0001c	f3 ab		 rep stosd

; 1744 : #ifdef D3DX_DEBUG
; 1745 :     if(!pOut || !pC1 || !pC2)
; 1746 :         return NULL;
; 1747 : #endif
; 1748 : 
; 1749 :     pOut->r = pC1->r + s * (pC2->r - pC1->r);

  0001e	8b 45 10	 mov	 eax, DWORD PTR _pC2$[ebp]
  00021	8b 4d 0c	 mov	 ecx, DWORD PTR _pC1$[ebp]
  00024	d9 00		 fld	 DWORD PTR [eax]
  00026	d8 21		 fsub	 DWORD PTR [ecx]
  00028	d8 4d 14	 fmul	 DWORD PTR _s$[ebp]
  0002b	8b 55 0c	 mov	 edx, DWORD PTR _pC1$[ebp]
  0002e	d8 02		 fadd	 DWORD PTR [edx]
  00030	8b 45 08	 mov	 eax, DWORD PTR _pOut$[ebp]
  00033	d9 18		 fstp	 DWORD PTR [eax]

; 1750 :     pOut->g = pC1->g + s * (pC2->g - pC1->g);

  00035	8b 45 10	 mov	 eax, DWORD PTR _pC2$[ebp]
  00038	8b 4d 0c	 mov	 ecx, DWORD PTR _pC1$[ebp]
  0003b	d9 40 04	 fld	 DWORD PTR [eax+4]
  0003e	d8 61 04	 fsub	 DWORD PTR [ecx+4]
  00041	d8 4d 14	 fmul	 DWORD PTR _s$[ebp]
  00044	8b 55 0c	 mov	 edx, DWORD PTR _pC1$[ebp]
  00047	d8 42 04	 fadd	 DWORD PTR [edx+4]
  0004a	8b 45 08	 mov	 eax, DWORD PTR _pOut$[ebp]
  0004d	d9 58 04	 fstp	 DWORD PTR [eax+4]

; 1751 :     pOut->b = pC1->b + s * (pC2->b - pC1->b);

  00050	8b 45 10	 mov	 eax, DWORD PTR _pC2$[ebp]
  00053	8b 4d 0c	 mov	 ecx, DWORD PTR _pC1$[ebp]
  00056	d9 40 08	 fld	 DWORD PTR [eax+8]
  00059	d8 61 08	 fsub	 DWORD PTR [ecx+8]
  0005c	d8 4d 14	 fmul	 DWORD PTR _s$[ebp]
  0005f	8b 55 0c	 mov	 edx, DWORD PTR _pC1$[ebp]
  00062	d8 42 08	 fadd	 DWORD PTR [edx+8]
  00065	8b 45 08	 mov	 eax, DWORD PTR _pOut$[ebp]
  00068	d9 58 08	 fstp	 DWORD PTR [eax+8]

; 1752 :     pOut->a = pC1->a + s * (pC2->a - pC1->a);

  0006b	8b 45 10	 mov	 eax, DWORD PTR _pC2$[ebp]
  0006e	8b 4d 0c	 mov	 ecx, DWORD PTR _pC1$[ebp]
  00071	d9 40 0c	 fld	 DWORD PTR [eax+12]
  00074	d8 61 0c	 fsub	 DWORD PTR [ecx+12]
  00077	d8 4d 14	 fmul	 DWORD PTR _s$[ebp]
  0007a	8b 55 0c	 mov	 edx, DWORD PTR _pC1$[ebp]
  0007d	d8 42 0c	 fadd	 DWORD PTR [edx+12]
  00080	8b 45 08	 mov	 eax, DWORD PTR _pOut$[ebp]
  00083	d9 58 0c	 fstp	 DWORD PTR [eax+12]

; 1753 :     return pOut;

  00086	8b 45 08	 mov	 eax, DWORD PTR _pOut$[ebp]

; 1754 : }

  00089	5f		 pop	 edi
  0008a	5e		 pop	 esi
  0008b	5b		 pop	 ebx
  0008c	8b e5		 mov	 esp, ebp
  0008e	5d		 pop	 ebp
  0008f	c3		 ret	 0
?D3DXColorLerp@@YAPAUD3DXCOLOR@@PAU1@PBU1@1M@Z ENDP	; D3DXColorLerp
_TEXT	ENDS
END
