; Listing generated by Microsoft (R) Optimizing Compiler Version 13.00.9466 

	TITLE	CFileRenderObject.cpp
	.386P
include listing.inc
if @Version gt 510
.model FLAT
else
_TEXT	SEGMENT PARA USE32 PUBLIC 'CODE'
_TEXT	ENDS
_DATA	SEGMENT DWORD USE32 PUBLIC 'DATA'
_DATA	ENDS
CONST	SEGMENT DWORD USE32 PUBLIC 'CONST'
CONST	ENDS
_BSS	SEGMENT DWORD USE32 PUBLIC 'BSS'
_BSS	ENDS
$$SYMBOLS	SEGMENT BYTE USE32 'DEBSYM'
$$SYMBOLS	ENDS
$$TYPES	SEGMENT BYTE USE32 'DEBTYP'
$$TYPES	ENDS
_TLS	SEGMENT DWORD USE32 PUBLIC 'TLS'
_TLS	ENDS
;	COMDAT ??_C@_0DC@LOCJIIJI@CFileRenderObject?3?3MakeRenderDat@
CONST	SEGMENT DWORD USE32 PUBLIC 'CONST'
CONST	ENDS
;	COMDAT ??_C@_0EG@BGDGFNHI@CFileRenderObject?3?3MakeRenderDat@
CONST	SEGMENT DWORD USE32 PUBLIC 'CONST'
CONST	ENDS
;	COMDAT ??_C@_0GB@FLOJLIFF@Potential?5User?9Error?3?6?6CFileRend@
CONST	SEGMENT DWORD USE32 PUBLIC 'CONST'
CONST	ENDS
;	COMDAT ??_C@_0GJ@MPMNCCIE@Potential?5User?9Error?3?6?6CFileRend@
CONST	SEGMENT DWORD USE32 PUBLIC 'CONST'
CONST	ENDS
;	COMDAT ??_C@_0FD@HMECEKLE@c?3?2documents?5and?5settings?2dom?2my@
CONST	SEGMENT DWORD USE32 PUBLIC 'CONST'
CONST	ENDS
;	COMDAT ??_C@_0BC@OHKMBHIL@rgdwAdjacencyTemp?$AA@
CONST	SEGMENT DWORD USE32 PUBLIC 'CONST'
CONST	ENDS
;	COMDAT ??_C@_0EE@EPEAPOJL@CFileRenderObject?3?3MakeRenderDat@
CONST	SEGMENT DWORD USE32 PUBLIC 'CONST'
CONST	ENDS
;	COMDAT ??_C@_0M@NKNCPJJD@?$CBFAILED?$CIhr?$CJ?$AA@
CONST	SEGMENT DWORD USE32 PUBLIC 'CONST'
CONST	ENDS
;	COMDAT ??_C@_0CE@MHBPIEDK@m_pRenderData?9?$DOm_pAttrTable?5?$CB?$DN?5N@
CONST	SEGMENT DWORD USE32 PUBLIC 'CONST'
CONST	ENDS
;	COMDAT ??_C@_0BG@CMKOMDKK@?4?4?2resource?2tandl?4vsh?$AA@
CONST	SEGMENT DWORD USE32 PUBLIC 'CONST'
CONST	ENDS
;	COMDAT ??_C@_0FH@CAHOEBJJ@CFileRenderObject?3?3MakeRenderDat@
CONST	SEGMENT DWORD USE32 PUBLIC 'CONST'
CONST	ENDS
;	COMDAT ??_C@_0EP@HJCCIGLL@CFileRenderObject?3?3MakeRenderDat@
CONST	SEGMENT DWORD USE32 PUBLIC 'CONST'
CONST	ENDS
;	COMDAT ??_C@_0BH@NBKAL@m_fLargestSide?5?$CB?$DN?50?40f?$AA@
CONST	SEGMENT DWORD USE32 PUBLIC 'CONST'
CONST	ENDS
;	COMDAT ??_C@_0L@CJJJJEMF@hr?$DN?$DND3D_OK?$AA@
CONST	SEGMENT DWORD USE32 PUBLIC 'CONST'
CONST	ENDS
;	COMDAT ??_C@_0CJ@DLIJLDBA@CFileRenderObject?3?3RestoreDevice@
CONST	SEGMENT DWORD USE32 PUBLIC 'CONST'
CONST	ENDS
;	COMDAT _IsEqualGUID
_TEXT	SEGMENT PARA USE32 PUBLIC 'CODE'
_TEXT	ENDS
;	COMDAT _==
_TEXT	SEGMENT PARA USE32 PUBLIC 'CODE'
_TEXT	ENDS
;	COMDAT _sqrtf
_TEXT	SEGMENT PARA USE32 PUBLIC 'CODE'
_TEXT	ENDS
;	COMDAT ??0D3DXVECTOR3@@QAE@XZ
_TEXT	SEGMENT PARA USE32 PUBLIC 'CODE'
_TEXT	ENDS
;	COMDAT ??0D3DXMATRIX@@QAE@XZ
_TEXT	SEGMENT PARA USE32 PUBLIC 'CODE'
_TEXT	ENDS
;	COMDAT ??0D3DXQUATERNION@@QAE@XZ
_TEXT	SEGMENT PARA USE32 PUBLIC 'CODE'
_TEXT	ENDS
;	COMDAT ??0D3DXVECTOR2@@QAE@MM@Z
_TEXT	SEGMENT PARA USE32 PUBLIC 'CODE'
_TEXT	ENDS
;	COMDAT ??0D3DXVECTOR3@@QAE@MMM@Z
_TEXT	SEGMENT PARA USE32 PUBLIC 'CODE'
_TEXT	ENDS
;	COMDAT ??GD3DXVECTOR3@@QBE?AU0@XZ
_TEXT	SEGMENT PARA USE32 PUBLIC 'CODE'
_TEXT	ENDS
;	COMDAT ??HD3DXVECTOR3@@QBE?AU0@ABU0@@Z
_TEXT	SEGMENT PARA USE32 PUBLIC 'CODE'
_TEXT	ENDS
;	COMDAT ??GD3DXVECTOR3@@QBE?AU0@ABU0@@Z
_TEXT	SEGMENT PARA USE32 PUBLIC 'CODE'
_TEXT	ENDS
;	COMDAT ??0D3DXVECTOR4@@QAE@MMMM@Z
_TEXT	SEGMENT PARA USE32 PUBLIC 'CODE'
_TEXT	ENDS
;	COMDAT ??0D3DXMATRIX@@QAE@PBM@Z
_TEXT	SEGMENT PARA USE32 PUBLIC 'CODE'
_TEXT	ENDS
;	COMDAT ??0D3DXMATRIX@@QAE@ABU_D3DMATRIX@@@Z
_TEXT	SEGMENT PARA USE32 PUBLIC 'CODE'
_TEXT	ENDS
;	COMDAT ??0D3DXMATRIX@@QAE@MMMMMMMMMMMMMMMM@Z
_TEXT	SEGMENT PARA USE32 PUBLIC 'CODE'
_TEXT	ENDS
;	COMDAT ??RD3DXMATRIX@@QAEAAMII@Z
_TEXT	SEGMENT PARA USE32 PUBLIC 'CODE'
_TEXT	ENDS
;	COMDAT ??0D3DXQUATERNION@@QAE@MMMM@Z
_TEXT	SEGMENT PARA USE32 PUBLIC 'CODE'
_TEXT	ENDS
;	COMDAT ??0D3DXPLANE@@QAE@MMMM@Z
_TEXT	SEGMENT PARA USE32 PUBLIC 'CODE'
_TEXT	ENDS
;	COMDAT ??0D3DXCOLOR@@QAE@MMMM@Z
_TEXT	SEGMENT PARA USE32 PUBLIC 'CODE'
_TEXT	ENDS
;	COMDAT ?D3DXMatrixIdentity@@YAPAUD3DXMATRIX@@PAU1@@Z
_TEXT	SEGMENT PARA USE32 PUBLIC 'CODE'
_TEXT	ENDS
;	COMDAT ??0CFileRenderObject@@QAE@PADHPAURENDER_DATA_INFO@0@@Z
_TEXT	SEGMENT PARA USE32 PUBLIC 'CODE'
_TEXT	ENDS
;	COMDAT ??0RENDER_DATA_INFO@CFileRenderObject@@QAE@XZ
_TEXT	SEGMENT PARA USE32 PUBLIC 'CODE'
_TEXT	ENDS
;	COMDAT ??1CFileRenderObject@@QAE@XZ
_TEXT	SEGMENT PARA USE32 PUBLIC 'CODE'
_TEXT	ENDS
;	COMDAT ?MakeRenderDataAndBoundingData@CFileRenderObject@@QAEJPAUIDirect3D8@@PAUIDirect3DDevice8@@@Z
_TEXT	SEGMENT PARA USE32 PUBLIC 'CODE'
_TEXT	ENDS
;	COMDAT ?SetLargestSide@CFileRenderObject@@QAEXM@Z
_TEXT	SEGMENT PARA USE32 PUBLIC 'CODE'
_TEXT	ENDS
;	COMDAT ?MakeBoundingBoxAndSphere@CFileRenderObject@@QAEJPAUIDirect3D8@@PAUIDirect3DDevice8@@PAUID3DXMesh@@@Z
_TEXT	SEGMENT PARA USE32 PUBLIC 'CODE'
_TEXT	ENDS
;	COMDAT ?WorldSetMatrix@CFileRenderObject@@QAEXPAUD3DXMATRIX@@M@Z
_TEXT	SEGMENT PARA USE32 PUBLIC 'CODE'
_TEXT	ENDS
;	COMDAT ?WorldSetMatrixIncremental@CFileRenderObject@@QAEXPAUD3DXMATRIX@@00M@Z
_TEXT	SEGMENT PARA USE32 PUBLIC 'CODE'
_TEXT	ENDS
;	COMDAT ?RestoreDeviceObjects@CFileRenderObject@@QAEJPAUIDirect3D8@@PAUIDirect3DDevice8@@@Z
_TEXT	SEGMENT PARA USE32 PUBLIC 'CODE'
_TEXT	ENDS
;	COMDAT ?InvalidateDeviceObjects@CFileRenderObject@@QAEJPAUIDirect3DDevice8@@@Z
_TEXT	SEGMENT PARA USE32 PUBLIC 'CODE'
_TEXT	ENDS
;	COMDAT ??_GCBoundingBox@@QAEPAXI@Z
_TEXT	SEGMENT PARA USE32 PUBLIC 'CODE'
_TEXT	ENDS
;	COMDAT ?Render@CFileRenderObject@@QAEJPAUIDirect3DDevice8@@PAVCTextures@@PAKHHPAUD3DXMATRIX@@@Z
_TEXT	SEGMENT PARA USE32 PUBLIC 'CODE'
_TEXT	ENDS
;	COMDAT ?RenderVS@CFileRenderObject@@QAEJPAUIDirect3DDevice8@@MPAKHHPAUD3DXMATRIX@@ABU3@3PAVCCamera@@ABUD3DXVECTOR3@@@Z
_TEXT	SEGMENT PARA USE32 PUBLIC 'CODE'
_TEXT	ENDS
;	COMDAT ?__LINE__Var@?1??RenderVS@CFileRenderObject@@QAEJPAUIDirect3DDevice8@@MPAKHHPAUD3DXMATRIX@@ABU4@3PAVCCamera@@ABUD3DXVECTOR3@@@Z@4JA
_DATA	SEGMENT DWORD USE32 PUBLIC 'DATA'
_DATA	ENDS
;	COMDAT ?__LINE__Var@?1??RestoreDeviceObjects@CFileRenderObject@@QAEJPAUIDirect3D8@@PAUIDirect3DDevice8@@@Z@4JA
_DATA	SEGMENT DWORD USE32 PUBLIC 'DATA'
_DATA	ENDS
;	COMDAT ?__LINE__Var@?1??MakeBoundingBoxAndSphere@CFileRenderObject@@QAEJPAUIDirect3D8@@PAUIDirect3DDevice8@@PAUID3DXMesh@@@Z@4JA
_DATA	SEGMENT DWORD USE32 PUBLIC 'DATA'
_DATA	ENDS
;	COMDAT ?__LINE__Var@?1??SetLargestSide@CFileRenderObject@@QAEXM@Z@4JA
_DATA	SEGMENT DWORD USE32 PUBLIC 'DATA'
_DATA	ENDS
;	COMDAT ?__LINE__Var@?1??MakeRenderDataAndBoundingData@CFileRenderObject@@QAEJPAUIDirect3D8@@PAUIDirect3DDevice8@@@Z@4JA
_DATA	SEGMENT DWORD USE32 PUBLIC 'DATA'
_DATA	ENDS
FLAT	GROUP _DATA, CONST, _BSS
	ASSUME	CS: FLAT, DS: FLAT, SS: FLAT
endif

INCLUDELIB LIBCMTD
INCLUDELIB OLDNAMES

PUBLIC	?dwUNCOLOREDVERTEX_vsdec@@3PAKA			; dwUNCOLOREDVERTEX_vsdec
_DATA	SEGMENT
?dwUNCOLOREDVERTEX_vsdec@@3PAKA DD 020000000H		; dwUNCOLOREDVERTEX_vsdec
	DD	040020000H
	DD	040020001H
	DD	040010002H
	DD	0ffffffffH
_DATA	ENDS
PUBLIC	??0D3DXMATRIX@@QAE@XZ				; D3DXMATRIX::D3DXMATRIX
PUBLIC	??0RENDER_DATA_INFO@CFileRenderObject@@QAE@XZ	; CFileRenderObject::RENDER_DATA_INFO::RENDER_DATA_INFO
PUBLIC	??0CFileRenderObject@@QAE@PADHPAURENDER_DATA_INFO@0@@Z ; CFileRenderObject::CFileRenderObject
EXTRN	?D3DUtil_InitMaterial@@YAXAAU_D3DMATERIAL8@@MMMM@Z:NEAR ; D3DUtil_InitMaterial
EXTRN	??2@YAPAXI@Z:NEAR				; operator new
EXTRN	_strcpy:NEAR
EXTRN	?g_matIdent@@3UD3DXMATRIX@@A:BYTE		; g_matIdent
EXTRN	__RTC_InitBase:NEAR
EXTRN	__RTC_Shutdown:NEAR
EXTRN	__RTC_CheckEsp:NEAR
EXTRN	__fltused:NEAR
;	COMDAT rtc$IMZ
; File c:\documents and settings\dom\my documents\_dev\ae\xlr8a\x7g\cfilerenderobject.cpp
rtc$IMZ	SEGMENT
__RTC_InitBase.rtc$IMZ DD FLAT:__RTC_InitBase
rtc$IMZ	ENDS
;	COMDAT rtc$TMZ
rtc$TMZ	SEGMENT
__RTC_Shutdown.rtc$TMZ DD FLAT:__RTC_Shutdown
; Function compile flags: /Odt /RTCsu /ZI
rtc$TMZ	ENDS
;	COMDAT ??0CFileRenderObject@@QAE@PADHPAURENDER_DATA_INFO@0@@Z
_TEXT	SEGMENT
tv77 = -220
$T85626 = -212
_this$ = -8
_pszFile$ = 8
_nResID$ = 12
_pSharedRenderData$ = 16
??0CFileRenderObject@@QAE@PADHPAURENDER_DATA_INFO@0@@Z PROC NEAR ; CFileRenderObject::CFileRenderObject, COMDAT
; _this$ = ecx

; 19   : 	{

  00000	55		 push	 ebp
  00001	8b ec		 mov	 ebp, esp
  00003	81 ec dc 00 00
	00		 sub	 esp, 220		; 000000dcH
  00009	53		 push	 ebx
  0000a	56		 push	 esi
  0000b	57		 push	 edi
  0000c	51		 push	 ecx
  0000d	8d bd 24 ff ff
	ff		 lea	 edi, DWORD PTR [ebp-220]
  00013	b9 37 00 00 00	 mov	 ecx, 55			; 00000037H
  00018	b8 cc cc cc cc	 mov	 eax, -858993460		; ccccccccH
  0001d	f3 ab		 rep stosd
  0001f	59		 pop	 ecx
  00020	89 4d f8	 mov	 DWORD PTR _this$[ebp], ecx
  00023	8b 4d f8	 mov	 ecx, DWORD PTR _this$[ebp]
  00026	83 c1 0c	 add	 ecx, 12			; 0000000cH
  00029	e8 00 00 00 00	 call	 ??0D3DXMATRIX@@QAE@XZ	; D3DXMATRIX::D3DXMATRIX
  0002e	8b 4d f8	 mov	 ecx, DWORD PTR _this$[ebp]
  00031	83 c1 4c	 add	 ecx, 76			; 0000004cH
  00034	e8 00 00 00 00	 call	 ??0D3DXMATRIX@@QAE@XZ	; D3DXMATRIX::D3DXMATRIX
  00039	8b 4d f8	 mov	 ecx, DWORD PTR _this$[ebp]
  0003c	81 c1 8c 00 00
	00		 add	 ecx, 140		; 0000008cH
  00042	e8 00 00 00 00	 call	 ??0D3DXMATRIX@@QAE@XZ	; D3DXMATRIX::D3DXMATRIX

; 20   : 	//
; 21   : 	// RENDER_DATA_INFO:
; 22   : 	//
; 23   : 		m_pRenderData = NULL ;

  00047	8b 45 f8	 mov	 eax, DWORD PTR _this$[ebp]
  0004a	c7 00 00 00 00
	00		 mov	 DWORD PTR [eax], 0

; 24   : 		if( pSharedRenderData )

  00050	83 7d 10 00	 cmp	 DWORD PTR _pSharedRenderData$[ebp], 0
  00054	74 17		 je	 SHORT $L85320

; 25   : 		{
; 26   : 			m_pRenderData = pSharedRenderData ;

  00056	8b 45 f8	 mov	 eax, DWORD PTR _this$[ebp]
  00059	8b 4d 10	 mov	 ecx, DWORD PTR _pSharedRenderData$[ebp]
  0005c	89 08		 mov	 DWORD PTR [eax], ecx

; 27   : 			m_bRenderDataIsMine = FALSE ;

  0005e	8b 45 f8	 mov	 eax, DWORD PTR _this$[ebp]
  00061	c7 40 04 00 00
	00 00		 mov	 DWORD PTR [eax+4], 0

; 28   : 		}
; 29   : 		else

  00068	e9 e5 00 00 00	 jmp	 $L85321
$L85320:

; 30   : 		{
; 31   : 			m_pRenderData = new RENDER_DATA_INFO ;

  0006d	68 60 01 00 00	 push	 352			; 00000160H
  00072	e8 00 00 00 00	 call	 ??2@YAPAXI@Z		; operator new
  00077	83 c4 04	 add	 esp, 4
  0007a	89 85 2c ff ff
	ff		 mov	 DWORD PTR $T85626[ebp], eax
  00080	83 bd 2c ff ff
	ff 00		 cmp	 DWORD PTR $T85626[ebp], 0
  00087	74 13		 je	 SHORT $L85627
  00089	8b 8d 2c ff ff
	ff		 mov	 ecx, DWORD PTR $T85626[ebp]
  0008f	e8 00 00 00 00	 call	 ??0RENDER_DATA_INFO@CFileRenderObject@@QAE@XZ
  00094	89 85 24 ff ff
	ff		 mov	 DWORD PTR tv77[ebp], eax
  0009a	eb 0a		 jmp	 SHORT $L85628
$L85627:
  0009c	c7 85 24 ff ff
	ff 00 00 00 00	 mov	 DWORD PTR tv77[ebp], 0
$L85628:
  000a6	8b 45 f8	 mov	 eax, DWORD PTR _this$[ebp]
  000a9	8b 8d 24 ff ff
	ff		 mov	 ecx, DWORD PTR tv77[ebp]
  000af	89 08		 mov	 DWORD PTR [eax], ecx

; 32   : 			m_bRenderDataIsMine = TRUE ;

  000b1	8b 45 f8	 mov	 eax, DWORD PTR _this$[ebp]
  000b4	c7 40 04 01 00
	00 00		 mov	 DWORD PTR [eax+4], 1

; 33   : 
; 34   : 			m_pRenderData->m_pMesh = NULL ;

  000bb	8b 45 f8	 mov	 eax, DWORD PTR _this$[ebp]
  000be	8b 08		 mov	 ecx, DWORD PTR [eax]
  000c0	c7 81 04 01 00
	00 00 00 00 00	 mov	 DWORD PTR [ecx+260], 0

; 35   : 			m_pRenderData->m_mtrlMeshMaterials = NULL ;

  000ca	8b 45 f8	 mov	 eax, DWORD PTR _this$[ebp]
  000cd	8b 08		 mov	 ecx, DWORD PTR [eax]
  000cf	c7 81 24 01 00
	00 00 00 00 00	 mov	 DWORD PTR [ecx+292], 0

; 36   : 			m_pRenderData->m_dwNumMaterials = 0 ;

  000d9	8b 45 f8	 mov	 eax, DWORD PTR _this$[ebp]
  000dc	8b 08		 mov	 ecx, DWORD PTR [eax]
  000de	c7 81 28 01 00
	00 00 00 00 00	 mov	 DWORD PTR [ecx+296], 0

; 37   : 			m_pRenderData->m_dwNumFaces = 0 ;

  000e8	8b 45 f8	 mov	 eax, DWORD PTR _this$[ebp]
  000eb	8b 08		 mov	 ecx, DWORD PTR [eax]
  000ed	c7 81 2c 01 00
	00 00 00 00 00	 mov	 DWORD PTR [ecx+300], 0

; 38   : 			m_pRenderData->m_dwNumVertices = 0 ;

  000f7	8b 45 f8	 mov	 eax, DWORD PTR _this$[ebp]
  000fa	8b 08		 mov	 ecx, DWORD PTR [eax]
  000fc	c7 81 20 01 00
	00 00 00 00 00	 mov	 DWORD PTR [ecx+288], 0

; 39   : 			m_pRenderData->m_pAdjacencyBuffer = NULL ;

  00106	8b 45 f8	 mov	 eax, DWORD PTR _this$[ebp]
  00109	8b 08		 mov	 ecx, DWORD PTR [eax]
  0010b	c7 81 30 01 00
	00 00 00 00 00	 mov	 DWORD PTR [ecx+304], 0

; 40   : 			m_pRenderData->m_szFile[0] = '\x0' ;

  00115	8b 45 f8	 mov	 eax, DWORD PTR _this$[ebp]
  00118	8b 08		 mov	 ecx, DWORD PTR [eax]
  0011a	c6 01 00	 mov	 BYTE PTR [ecx], 0

; 41   : 			if( pszFile )

  0011d	83 7d 08 00	 cmp	 DWORD PTR _pszFile$[ebp], 0
  00121	74 12		 je	 SHORT $L85324

; 42   : 				strcpy( m_pRenderData->m_szFile, pszFile );

  00123	8b 45 08	 mov	 eax, DWORD PTR _pszFile$[ebp]
  00126	50		 push	 eax
  00127	8b 4d f8	 mov	 ecx, DWORD PTR _this$[ebp]
  0012a	8b 11		 mov	 edx, DWORD PTR [ecx]
  0012c	52		 push	 edx
  0012d	e8 00 00 00 00	 call	 _strcpy
  00132	83 c4 08	 add	 esp, 8
$L85324:

; 43   : 			m_pRenderData->m_nResID = nResID ;

  00135	8b 45 f8	 mov	 eax, DWORD PTR _this$[ebp]
  00138	8b 08		 mov	 ecx, DWORD PTR [eax]
  0013a	8b 55 0c	 mov	 edx, DWORD PTR _nResID$[ebp]
  0013d	89 91 00 01 00
	00		 mov	 DWORD PTR [ecx+256], edx

; 44   : 
; 45   : 			m_pRenderData->m_dwShaderRipple = 0 ;

  00143	8b 45 f8	 mov	 eax, DWORD PTR _this$[ebp]
  00146	8b 08		 mov	 ecx, DWORD PTR [eax]
  00148	c7 81 5c 01 00
	00 00 00 00 00	 mov	 DWORD PTR [ecx+348], 0
$L85321:

; 46   : 		}
; 47   : 
; 48   : 	//
; 49   : 	// Scale, bbox, rotation matrices:
; 50   : 	//
; 51   : 		m_pBBox = NULL ;

  00152	8b 45 f8	 mov	 eax, DWORD PTR _this$[ebp]
  00155	c7 40 08 00 00
	00 00		 mov	 DWORD PTR [eax+8], 0

; 52   : 		m_matWorld = g_matIdent ;

  0015c	8b 7d f8	 mov	 edi, DWORD PTR _this$[ebp]
  0015f	83 c7 4c	 add	 edi, 76			; 0000004cH
  00162	b9 10 00 00 00	 mov	 ecx, 16			; 00000010H
  00167	be 00 00 00 00	 mov	 esi, OFFSET FLAT:?g_matIdent@@3UD3DXMATRIX@@A ; g_matIdent
  0016c	f3 a5		 rep movsd

; 53   : 		m_matRot = g_matIdent ;

  0016e	8b 7d f8	 mov	 edi, DWORD PTR _this$[ebp]
  00171	83 c7 0c	 add	 edi, 12			; 0000000cH
  00174	b9 10 00 00 00	 mov	 ecx, 16			; 00000010H
  00179	be 00 00 00 00	 mov	 esi, OFFSET FLAT:?g_matIdent@@3UD3DXMATRIX@@A ; g_matIdent
  0017e	f3 a5		 rep movsd

; 54   : 		m_matScale = g_matIdent ;

  00180	8b 7d f8	 mov	 edi, DWORD PTR _this$[ebp]
  00183	81 c7 8c 00 00
	00		 add	 edi, 140		; 0000008cH
  00189	b9 10 00 00 00	 mov	 ecx, 16			; 00000010H
  0018e	be 00 00 00 00	 mov	 esi, OFFSET FLAT:?g_matIdent@@3UD3DXMATRIX@@A ; g_matIdent
  00193	f3 a5		 rep movsd

; 55   : 		D3DUtil_InitMaterial(m_matDef, 1, 1, 1) ;

  00195	68 00 00 80 3f	 push	 1065353216		; 3f800000H
  0019a	68 00 00 80 3f	 push	 1065353216		; 3f800000H
  0019f	68 00 00 80 3f	 push	 1065353216		; 3f800000H
  001a4	68 00 00 80 3f	 push	 1065353216		; 3f800000H
  001a9	8b 45 f8	 mov	 eax, DWORD PTR _this$[ebp]
  001ac	05 d8 00 00 00	 add	 eax, 216		; 000000d8H
  001b1	50		 push	 eax
  001b2	e8 00 00 00 00	 call	 ?D3DUtil_InitMaterial@@YAXAAU_D3DMATERIAL8@@MMMM@Z ; D3DUtil_InitMaterial
  001b7	83 c4 14	 add	 esp, 20			; 00000014H

; 56   : 		m_fScale = 1.0f ;

  001ba	8b 45 f8	 mov	 eax, DWORD PTR _this$[ebp]
  001bd	c7 80 d4 00 00
	00 00 00 80 3f	 mov	 DWORD PTR [eax+212], 1065353216 ; 3f800000H

; 57   : 		m_fLargestSide = 0.0f ;

  001c7	8b 45 f8	 mov	 eax, DWORD PTR _this$[ebp]
  001ca	c7 80 cc 00 00
	00 00 00 00 00	 mov	 DWORD PTR [eax+204], 0

; 58   : 	}

  001d4	8b 45 f8	 mov	 eax, DWORD PTR _this$[ebp]
  001d7	5f		 pop	 edi
  001d8	5e		 pop	 esi
  001d9	5b		 pop	 ebx
  001da	81 c4 dc 00 00
	00		 add	 esp, 220		; 000000dcH
  001e0	3b ec		 cmp	 ebp, esp
  001e2	e8 00 00 00 00	 call	 __RTC_CheckEsp
  001e7	8b e5		 mov	 esp, ebp
  001e9	5d		 pop	 ebp
  001ea	c2 0c 00	 ret	 12			; 0000000cH
??0CFileRenderObject@@QAE@PADHPAURENDER_DATA_INFO@0@@Z ENDP ; CFileRenderObject::CFileRenderObject
_TEXT	ENDS
PUBLIC	??0D3DXVECTOR3@@QAE@XZ				; D3DXVECTOR3::D3DXVECTOR3
; Function compile flags: /Odt /RTCsu /ZI
;	COMDAT ??0RENDER_DATA_INFO@CFileRenderObject@@QAE@XZ
_TEXT	SEGMENT
_this$ = -8
??0RENDER_DATA_INFO@CFileRenderObject@@QAE@XZ PROC NEAR	; CFileRenderObject::RENDER_DATA_INFO::RENDER_DATA_INFO, COMDAT
; _this$ = ecx
  00000	55		 push	 ebp
  00001	8b ec		 mov	 ebp, esp
  00003	81 ec cc 00 00
	00		 sub	 esp, 204		; 000000ccH
  00009	53		 push	 ebx
  0000a	56		 push	 esi
  0000b	57		 push	 edi
  0000c	51		 push	 ecx
  0000d	8d bd 34 ff ff
	ff		 lea	 edi, DWORD PTR [ebp-204]
  00013	b9 33 00 00 00	 mov	 ecx, 51			; 00000033H
  00018	b8 cc cc cc cc	 mov	 eax, -858993460		; ccccccccH
  0001d	f3 ab		 rep stosd
  0001f	59		 pop	 ecx
  00020	89 4d f8	 mov	 DWORD PTR _this$[ebp], ecx
  00023	8b 4d f8	 mov	 ecx, DWORD PTR _this$[ebp]
  00026	81 c1 3c 01 00
	00		 add	 ecx, 316		; 0000013cH
  0002c	e8 00 00 00 00	 call	 ??0D3DXVECTOR3@@QAE@XZ	; D3DXVECTOR3::D3DXVECTOR3
  00031	8b 4d f8	 mov	 ecx, DWORD PTR _this$[ebp]
  00034	81 c1 48 01 00
	00		 add	 ecx, 328		; 00000148H
  0003a	e8 00 00 00 00	 call	 ??0D3DXVECTOR3@@QAE@XZ	; D3DXVECTOR3::D3DXVECTOR3
  0003f	8b 45 f8	 mov	 eax, DWORD PTR _this$[ebp]
  00042	5f		 pop	 edi
  00043	5e		 pop	 esi
  00044	5b		 pop	 ebx
  00045	81 c4 cc 00 00
	00		 add	 esp, 204		; 000000ccH
  0004b	3b ec		 cmp	 ebp, esp
  0004d	e8 00 00 00 00	 call	 __RTC_CheckEsp
  00052	8b e5		 mov	 esp, ebp
  00054	5d		 pop	 ebp
  00055	c3		 ret	 0
??0RENDER_DATA_INFO@CFileRenderObject@@QAE@XZ ENDP	; CFileRenderObject::RENDER_DATA_INFO::RENDER_DATA_INFO
_TEXT	ENDS
PUBLIC	??1CFileRenderObject@@QAE@XZ			; CFileRenderObject::~CFileRenderObject
EXTRN	??3@YAXPAX@Z:NEAR				; operator delete
; Function compile flags: /Odt /RTCsu /ZI
;	COMDAT ??1CFileRenderObject@@QAE@XZ
_TEXT	SEGMENT
$T85643 = -212
_this$ = -8
??1CFileRenderObject@@QAE@XZ PROC NEAR			; CFileRenderObject::~CFileRenderObject, COMDAT
; _this$ = ecx

; 60   : 	{

  00000	55		 push	 ebp
  00001	8b ec		 mov	 ebp, esp
  00003	81 ec d8 00 00
	00		 sub	 esp, 216		; 000000d8H
  00009	53		 push	 ebx
  0000a	56		 push	 esi
  0000b	57		 push	 edi
  0000c	51		 push	 ecx
  0000d	8d bd 28 ff ff
	ff		 lea	 edi, DWORD PTR [ebp-216]
  00013	b9 36 00 00 00	 mov	 ecx, 54			; 00000036H
  00018	b8 cc cc cc cc	 mov	 eax, -858993460		; ccccccccH
  0001d	f3 ab		 rep stosd
  0001f	59		 pop	 ecx
  00020	89 4d f8	 mov	 DWORD PTR _this$[ebp], ecx

; 61   : 		if( m_bRenderDataIsMine )

  00023	8b 45 f8	 mov	 eax, DWORD PTR _this$[ebp]
  00026	83 78 04 00	 cmp	 DWORD PTR [eax+4], 0
  0002a	74 2b		 je	 SHORT $L85329

; 62   : 			SAFE_DELETE( m_pRenderData )

  0002c	8b 45 f8	 mov	 eax, DWORD PTR _this$[ebp]
  0002f	83 38 00	 cmp	 DWORD PTR [eax], 0
  00032	74 23		 je	 SHORT $L85329
  00034	8b 45 f8	 mov	 eax, DWORD PTR _this$[ebp]
  00037	8b 08		 mov	 ecx, DWORD PTR [eax]
  00039	89 8d 2c ff ff
	ff		 mov	 DWORD PTR $T85643[ebp], ecx
  0003f	8b 95 2c ff ff
	ff		 mov	 edx, DWORD PTR $T85643[ebp]
  00045	52		 push	 edx
  00046	e8 00 00 00 00	 call	 ??3@YAXPAX@Z		; operator delete
  0004b	83 c4 04	 add	 esp, 4
  0004e	8b 45 f8	 mov	 eax, DWORD PTR _this$[ebp]
  00051	c7 00 00 00 00
	00		 mov	 DWORD PTR [eax], 0
$L85329:

; 63   : 	}

  00057	5f		 pop	 edi
  00058	5e		 pop	 esi
  00059	5b		 pop	 ebx
  0005a	81 c4 d8 00 00
	00		 add	 esp, 216		; 000000d8H
  00060	3b ec		 cmp	 ebp, esp
  00062	e8 00 00 00 00	 call	 __RTC_CheckEsp
  00067	8b e5		 mov	 esp, ebp
  00069	5d		 pop	 ebp
  0006a	c3		 ret	 0
??1CFileRenderObject@@QAE@XZ ENDP			; CFileRenderObject::~CFileRenderObject
_TEXT	ENDS
PUBLIC	?MakeRenderDataAndBoundingData@CFileRenderObject@@QAEJPAUIDirect3D8@@PAUIDirect3DDevice8@@@Z ; CFileRenderObject::MakeRenderDataAndBoundingData
PUBLIC	?MakeBoundingBoxAndSphere@CFileRenderObject@@QAEJPAUIDirect3D8@@PAUIDirect3DDevice8@@PAUID3DXMesh@@@Z ; CFileRenderObject::MakeBoundingBoxAndSphere
PUBLIC	??_C@_0DC@LOCJIIJI@CFileRenderObject?3?3MakeRenderDat@ ; `string'
PUBLIC	??_C@_0EG@BGDGFNHI@CFileRenderObject?3?3MakeRenderDat@ ; `string'
PUBLIC	??_C@_0GB@FLOJLIFF@Potential?5User?9Error?3?6?6CFileRend@ ; `string'
PUBLIC	??_C@_0GJ@MPMNCCIE@Potential?5User?9Error?3?6?6CFileRend@ ; `string'
PUBLIC	?__LINE__Var@?1??MakeRenderDataAndBoundingData@CFileRenderObject@@QAEJPAUIDirect3D8@@PAUIDirect3DDevice8@@@Z@4JA ; `CFileRenderObject::MakeRenderDataAndBoundingData'::`2'::__LINE__Var
PUBLIC	??_C@_0FD@HMECEKLE@c?3?2documents?5and?5settings?2dom?2my@ ; `string'
PUBLIC	??_C@_0BC@OHKMBHIL@rgdwAdjacencyTemp?$AA@	; `string'
PUBLIC	??_C@_0EE@EPEAPOJL@CFileRenderObject?3?3MakeRenderDat@ ; `string'
PUBLIC	??_C@_0M@NKNCPJJD@?$CBFAILED?$CIhr?$CJ?$AA@	; `string'
PUBLIC	??_C@_0CE@MHBPIEDK@m_pRenderData?9?$DOm_pAttrTable?5?$CB?$DN?5N@ ; `string'
PUBLIC	??_C@_0BG@CMKOMDKK@?4?4?2resource?2tandl?4vsh?$AA@ ; `string'
PUBLIC	??_C@_0FH@CAHOEBJJ@CFileRenderObject?3?3MakeRenderDat@ ; `string'
PUBLIC	??_C@_0EP@HJCCIGLL@CFileRenderObject?3?3MakeRenderDat@ ; `string'
EXTRN	_D3DXLoadMeshFromX@28:NEAR
EXTRN	__assert:NEAR
EXTRN	?Msg@@YAXPAD@Z:NEAR				; Msg
EXTRN	?ods@@YAXPADZZ:NEAR				; ods
EXTRN	?LoadXMeshFromResource@@YAJPAUIDirect3DDevice8@@PADPAPAUID3DXMesh@@PAPAUID3DXBuffer@@3PAKK@Z:NEAR ; LoadXMeshFromResource
EXTRN	@_RTC_CheckStackVars@8:NEAR
EXTRN	_D3DXAssembleShaderFromFileA@20:NEAR
;	COMDAT ??_C@_0DC@LOCJIIJI@CFileRenderObject?3?3MakeRenderDat@
CONST	SEGMENT
??_C@_0DC@LOCJIIJI@CFileRenderObject?3?3MakeRenderDat@ DB 'CFileRenderObj'
	DB	'ect::MakeRenderDataAndBoundingData', 0aH, 00H ; `string'
CONST	ENDS
;	COMDAT ??_C@_0EG@BGDGFNHI@CFileRenderObject?3?3MakeRenderDat@
CONST	SEGMENT
??_C@_0EG@BGDGFNHI@CFileRenderObject?3?3MakeRenderDat@ DB 'CFileRenderObj'
	DB	'ect::MakeRenderDataAndBoundingData - D3DXLoadMeshFromX', 0aH, 00H ; `string'
CONST	ENDS
;	COMDAT ??_C@_0GB@FLOJLIFF@Potential?5User?9Error?3?6?6CFileRend@
CONST	SEGMENT
??_C@_0GB@FLOJLIFF@Potential?5User?9Error?3?6?6CFileRend@ DB 'Potential U'
	DB	'ser-Error:', 0aH, 0aH, 'CFileRenderObject::MakeMesh_PMesh: FA'
	DB	'ILED(D3DXLoadMeshFromX(...)) == TRUE', 00H	; `string'
CONST	ENDS
;	COMDAT ??_C@_0GJ@MPMNCCIE@Potential?5User?9Error?3?6?6CFileRend@
CONST	SEGMENT
??_C@_0GJ@MPMNCCIE@Potential?5User?9Error?3?6?6CFileRend@ DB 'Potential U'
	DB	'ser-Error:', 0aH, 0aH, 'CFileRenderObject::MakeMesh_PMesh: FA'
	DB	'ILED(D3DXLoadMeshFromXResource(...)) == TRUE', 00H ; `string'
CONST	ENDS
;	COMDAT ?__LINE__Var@?1??MakeRenderDataAndBoundingData@CFileRenderObject@@QAEJPAUIDirect3D8@@PAUIDirect3DDevice8@@@Z@4JA
_DATA	SEGMENT
?__LINE__Var@?1??MakeRenderDataAndBoundingData@CFileRenderObject@@QAEJPAUIDirect3D8@@PAUIDirect3DDevice8@@@Z@4JA DD 047H ; `CFileRenderObject::MakeRenderDataAndBoundingData'::`2'::__LINE__Var
_DATA	ENDS
;	COMDAT ??_C@_0FD@HMECEKLE@c?3?2documents?5and?5settings?2dom?2my@
CONST	SEGMENT
??_C@_0FD@HMECEKLE@c?3?2documents?5and?5settings?2dom?2my@ DB 'c:\documen'
	DB	'ts and settings\dom\my documents\_dev\ae\xlr8a\x7g\cfilerende'
	DB	'robject.cpp', 00H				; `string'
CONST	ENDS
;	COMDAT ??_C@_0BC@OHKMBHIL@rgdwAdjacencyTemp?$AA@
CONST	SEGMENT
??_C@_0BC@OHKMBHIL@rgdwAdjacencyTemp?$AA@ DB 'rgdwAdjacencyTemp', 00H ; `string'
CONST	ENDS
;	COMDAT ??_C@_0EE@EPEAPOJL@CFileRenderObject?3?3MakeRenderDat@
CONST	SEGMENT
??_C@_0EE@EPEAPOJL@CFileRenderObject?3?3MakeRenderDat@ DB 'CFileRenderObj'
	DB	'ect::MakeRenderDataAndBoundingData - OptimizeInplace', 0aH, 00H ; `string'
CONST	ENDS
;	COMDAT ??_C@_0M@NKNCPJJD@?$CBFAILED?$CIhr?$CJ?$AA@
CONST	SEGMENT
??_C@_0M@NKNCPJJD@?$CBFAILED?$CIhr?$CJ?$AA@ DB '!FAILED(hr)', 00H ; `string'
CONST	ENDS
;	COMDAT ??_C@_0CE@MHBPIEDK@m_pRenderData?9?$DOm_pAttrTable?5?$CB?$DN?5N@
CONST	SEGMENT
??_C@_0CE@MHBPIEDK@m_pRenderData?9?$DOm_pAttrTable?5?$CB?$DN?5N@ DB 'm_pR'
	DB	'enderData->m_pAttrTable != NULL', 00H	; `string'
CONST	ENDS
;	COMDAT ??_C@_0BG@CMKOMDKK@?4?4?2resource?2tandl?4vsh?$AA@
CONST	SEGMENT
??_C@_0BG@CMKOMDKK@?4?4?2resource?2tandl?4vsh?$AA@ DB '..\resource\tandl.'
	DB	'vsh', 00H					; `string'
CONST	ENDS
;	COMDAT ??_C@_0FH@CAHOEBJJ@CFileRenderObject?3?3MakeRenderDat@
CONST	SEGMENT
??_C@_0FH@CAHOEBJJ@CFileRenderObject?3?3MakeRenderDat@ DB 'CFileRenderObj'
	DB	'ect::MakeRenderDataAndBoundingData - D3DXAssembleShaderFromFi'
	DB	'le() FAILED', 00H				; `string'
CONST	ENDS
;	COMDAT ??_C@_0EP@HJCCIGLL@CFileRenderObject?3?3MakeRenderDat@
CONST	SEGMENT
??_C@_0EP@HJCCIGLL@CFileRenderObject?3?3MakeRenderDat@ DB 'CFileRenderObj'
	DB	'ect::MakeRenderDataAndBoundingData - CreateVertexShader() FAI'
	DB	'LED', 00H					; `string'
; Function compile flags: /Odt /RTCsu /ZI
CONST	ENDS
;	COMDAT ?MakeRenderDataAndBoundingData@CFileRenderObject@@QAEJPAUIDirect3D8@@PAUIDirect3DDevice8@@@Z
_TEXT	SEGMENT
$T85654 = -368
$T85652 = -356
$T85647 = -344
$T85646 = -332
_pCode$ = -128
_pErrs$ = -116
_pTempMesh2$ = -104
_rgdwAdjacencyTemp$ = -92
_i$85359 = -80
_d3dxMaterials$ = -68
_pD3DXMtrlBuffer$ = -56
_pTempMesh$ = -44
_hr$ = -32
_pVertexBuffer$ = -20
_this$ = -8
_pD3D$ = 8
_pDev$ = 12
?MakeRenderDataAndBoundingData@CFileRenderObject@@QAEJPAUIDirect3D8@@PAUIDirect3DDevice8@@@Z PROC NEAR ; CFileRenderObject::MakeRenderDataAndBoundingData, COMDAT
; _this$ = ecx

; 71   : 	{

  00000	55		 push	 ebp
  00001	8b ec		 mov	 ebp, esp
  00003	81 ec 74 01 00
	00		 sub	 esp, 372		; 00000174H
  00009	53		 push	 ebx
  0000a	56		 push	 esi
  0000b	57		 push	 edi
  0000c	51		 push	 ecx
  0000d	8d bd 8c fe ff
	ff		 lea	 edi, DWORD PTR [ebp-372]
  00013	b9 5d 00 00 00	 mov	 ecx, 93			; 0000005dH
  00018	b8 cc cc cc cc	 mov	 eax, -858993460		; ccccccccH
  0001d	f3 ab		 rep stosd
  0001f	59		 pop	 ecx
  00020	89 4d f8	 mov	 DWORD PTR _this$[ebp], ecx

; 72   : 		ods( "CFileRenderObject::MakeRenderDataAndBoundingData\n" );

  00023	68 00 00 00 00	 push	 OFFSET FLAT:??_C@_0DC@LOCJIIJI@CFileRenderObject?3?3MakeRenderDat@
  00028	e8 00 00 00 00	 call	 ?ods@@YAXPADZZ		; ods
  0002d	83 c4 04	 add	 esp, 4

; 73   : 
; 74   : 		LPDIRECT3DVERTEXBUFFER8 pVertexBuffer = NULL ;

  00030	c7 45 ec 00 00
	00 00		 mov	 DWORD PTR _pVertexBuffer$[ebp], 0

; 75   : 		HRESULT	  	 hr ;
; 76   : 		LPD3DXMESH   pTempMesh ;
; 77   : 		LPD3DXBUFFER pD3DXMtrlBuffer ;
; 78   : 
; 79   : 	// load the mesh from the specified file:
; 80   : 		if( m_pRenderData->m_szFile[0] != '\x0' )

  00037	8b 45 f8	 mov	 eax, DWORD PTR _this$[ebp]
  0003a	8b 08		 mov	 ecx, DWORD PTR [eax]
  0003c	0f be 11	 movsx	 edx, BYTE PTR [ecx]
  0003f	85 d2		 test	 edx, edx
  00041	74 61		 je	 SHORT $L85343

; 81   : 		{
; 82   : 			ods( "CFileRenderObject::MakeRenderDataAndBoundingData - D3DXLoadMeshFromX\n" );

  00043	68 00 00 00 00	 push	 OFFSET FLAT:??_C@_0EG@BGDGFNHI@CFileRenderObject?3?3MakeRenderDat@
  00048	e8 00 00 00 00	 call	 ?ods@@YAXPADZZ		; ods
  0004d	83 c4 04	 add	 esp, 4

; 83   : 
; 84   : 			if( FAILED(hr = D3DXLoadMeshFromX(m_pRenderData->m_szFile,
; 85   : 											  D3DXMESH_SYSTEMMEM,
; 86   : 											  pDev,
; 87   : 											  &m_pRenderData->m_pAdjacencyBuffer,
; 88   : 											  &pD3DXMtrlBuffer,
; 89   : 											  &m_pRenderData->m_dwNumMaterials,
; 90   : 											  &pTempMesh)) )

  00050	8d 45 d4	 lea	 eax, DWORD PTR _pTempMesh$[ebp]
  00053	50		 push	 eax
  00054	8b 4d f8	 mov	 ecx, DWORD PTR _this$[ebp]
  00057	8b 11		 mov	 edx, DWORD PTR [ecx]
  00059	81 c2 28 01 00
	00		 add	 edx, 296		; 00000128H
  0005f	52		 push	 edx
  00060	8d 45 c8	 lea	 eax, DWORD PTR _pD3DXMtrlBuffer$[ebp]
  00063	50		 push	 eax
  00064	8b 4d f8	 mov	 ecx, DWORD PTR _this$[ebp]
  00067	8b 11		 mov	 edx, DWORD PTR [ecx]
  00069	81 c2 30 01 00
	00		 add	 edx, 304		; 00000130H
  0006f	52		 push	 edx
  00070	8b 45 0c	 mov	 eax, DWORD PTR _pDev$[ebp]
  00073	50		 push	 eax
  00074	68 10 01 00 00	 push	 272			; 00000110H
  00079	8b 4d f8	 mov	 ecx, DWORD PTR _this$[ebp]
  0007c	8b 11		 mov	 edx, DWORD PTR [ecx]
  0007e	52		 push	 edx
  0007f	e8 00 00 00 00	 call	 _D3DXLoadMeshFromX@28
  00084	89 45 e0	 mov	 DWORD PTR _hr$[ebp], eax
  00087	83 7d e0 00	 cmp	 DWORD PTR _hr$[ebp], 0
  0008b	7d 15		 jge	 SHORT $L85346

; 91   : 			{
; 92   : 				Msg("Potential User-Error:\n\nCFileRenderObject::MakeMesh_PMesh: FAILED(D3DXLoadMeshFromX(...)) == TRUE") ;

  0008d	68 00 00 00 00	 push	 OFFSET FLAT:??_C@_0GB@FLOJLIFF@Potential?5User?9Error?3?6?6CFileRend@
  00092	e8 00 00 00 00	 call	 ?Msg@@YAXPAD@Z		; Msg
  00097	83 c4 04	 add	 esp, 4

; 93   : 				return hr ;

  0009a	8b 45 e0	 mov	 eax, DWORD PTR _hr$[ebp]
  0009d	e9 95 05 00 00	 jmp	 $L85337
$L85346:

; 94   : 			}
; 95   : 		}
; 96   : 		else

  000a2	eb 5c		 jmp	 SHORT $L85348
$L85343:

; 97   : 		{
; 98   : 			if( FAILED(hr = LoadXMeshFromResource(pDev,
; 99   : 												  MAKEINTRESOURCE(m_pRenderData->m_nResID),
; 100  : 												  &pTempMesh,
; 101  : 												  &m_pRenderData->m_pAdjacencyBuffer,
; 102  : 												  &pD3DXMtrlBuffer,
; 103  : 												  &m_pRenderData->m_dwNumMaterials,
; 104  : 												  D3DXMESH_SYSTEMMEM)))

  000a4	68 10 01 00 00	 push	 272			; 00000110H
  000a9	8b 45 f8	 mov	 eax, DWORD PTR _this$[ebp]
  000ac	8b 08		 mov	 ecx, DWORD PTR [eax]
  000ae	81 c1 28 01 00
	00		 add	 ecx, 296		; 00000128H
  000b4	51		 push	 ecx
  000b5	8d 55 c8	 lea	 edx, DWORD PTR _pD3DXMtrlBuffer$[ebp]
  000b8	52		 push	 edx
  000b9	8b 45 f8	 mov	 eax, DWORD PTR _this$[ebp]
  000bc	8b 08		 mov	 ecx, DWORD PTR [eax]
  000be	81 c1 30 01 00
	00		 add	 ecx, 304		; 00000130H
  000c4	51		 push	 ecx
  000c5	8d 55 d4	 lea	 edx, DWORD PTR _pTempMesh$[ebp]
  000c8	52		 push	 edx
  000c9	8b 45 f8	 mov	 eax, DWORD PTR _this$[ebp]
  000cc	8b 08		 mov	 ecx, DWORD PTR [eax]
  000ce	0f b7 91 00 01
	00 00		 movzx	 edx, WORD PTR [ecx+256]
  000d5	52		 push	 edx
  000d6	8b 45 0c	 mov	 eax, DWORD PTR _pDev$[ebp]
  000d9	50		 push	 eax
  000da	e8 00 00 00 00	 call	 ?LoadXMeshFromResource@@YAJPAUIDirect3DDevice8@@PADPAPAUID3DXMesh@@PAPAUID3DXBuffer@@3PAKK@Z ; LoadXMeshFromResource
  000df	83 c4 1c	 add	 esp, 28			; 0000001cH
  000e2	89 45 e0	 mov	 DWORD PTR _hr$[ebp], eax
  000e5	83 7d e0 00	 cmp	 DWORD PTR _hr$[ebp], 0
  000e9	7d 15		 jge	 SHORT $L85348

; 105  : 			{
; 106  : 				Msg("Potential User-Error:\n\nCFileRenderObject::MakeMesh_PMesh: FAILED(D3DXLoadMeshFromXResource(...)) == TRUE") ;

  000eb	68 00 00 00 00	 push	 OFFSET FLAT:??_C@_0GJ@MPMNCCIE@Potential?5User?9Error?3?6?6CFileRend@
  000f0	e8 00 00 00 00	 call	 ?Msg@@YAXPAD@Z		; Msg
  000f5	83 c4 04	 add	 esp, 4

; 107  : 				return hr ;

  000f8	8b 45 e0	 mov	 eax, DWORD PTR _hr$[ebp]
  000fb	e9 37 05 00 00	 jmp	 $L85337
$L85348:

; 108  : 			}
; 109  : 		}
; 110  : 
; 111  : 		/*if (FAILED(hr = D3DXValidMesh(pTempMesh, (DWORD*)m_pAdjacencyBuffer->GetBufferPointer())))
; 112  : 		{
; 113  : 			Msg("CFileRenderObject::MakeMesh_PMesh: FAILED(D3DXValidMesh(...)) == TRUE") ;
; 114  : 
; 115  : 			SAFE_RELEASE(m_pAdjacencyBuffer)
; 116  : 			SAFE_RELEASE(pD3DXMtrlBuffer)
; 117  : 			m_dwNumMaterials = 0L ;
; 118  : 			return E_FAIL ;
; 119  : 		}*/
; 120  : 
; 121  : 	// allocate a material array
; 122  : 		D3DXMATERIAL* d3dxMaterials = (D3DXMATERIAL*)pD3DXMtrlBuffer->GetBufferPointer() ;

  00100	8b 45 c8	 mov	 eax, DWORD PTR _pD3DXMtrlBuffer$[ebp]
  00103	8b 08		 mov	 ecx, DWORD PTR [eax]
  00105	8b f4		 mov	 esi, esp
  00107	8b 55 c8	 mov	 edx, DWORD PTR _pD3DXMtrlBuffer$[ebp]
  0010a	52		 push	 edx
  0010b	ff 51 0c	 call	 DWORD PTR [ecx+12]
  0010e	3b f4		 cmp	 esi, esp
  00110	e8 00 00 00 00	 call	 __RTC_CheckEsp
  00115	89 45 bc	 mov	 DWORD PTR _d3dxMaterials$[ebp], eax

; 123  : 		m_pRenderData->m_mtrlMeshMaterials = new D3DMATERIAL8[m_pRenderData->m_dwNumMaterials] ;

  00118	8b 45 f8	 mov	 eax, DWORD PTR _this$[ebp]
  0011b	8b 08		 mov	 ecx, DWORD PTR [eax]
  0011d	8b 91 28 01 00
	00		 mov	 edx, DWORD PTR [ecx+296]
  00123	6b d2 44	 imul	 edx, 68			; 00000044H
  00126	52		 push	 edx
  00127	e8 00 00 00 00	 call	 ??2@YAPAXI@Z		; operator new
  0012c	83 c4 04	 add	 esp, 4
  0012f	89 85 b4 fe ff
	ff		 mov	 DWORD PTR $T85646[ebp], eax
  00135	8b 45 f8	 mov	 eax, DWORD PTR _this$[ebp]
  00138	8b 08		 mov	 ecx, DWORD PTR [eax]
  0013a	8b 95 b4 fe ff
	ff		 mov	 edx, DWORD PTR $T85646[ebp]
  00140	89 91 24 01 00
	00		 mov	 DWORD PTR [ecx+292], edx

; 124  : 
; 125  : 	// copy the materials
; 126  : 		for (DWORD i = 0 ; i < m_pRenderData->m_dwNumMaterials ; i++)

  00146	c7 45 b0 00 00
	00 00		 mov	 DWORD PTR _i$85359[ebp], 0
  0014d	eb 09		 jmp	 SHORT $L85360
$L85361:
  0014f	8b 45 b0	 mov	 eax, DWORD PTR _i$85359[ebp]
  00152	83 c0 01	 add	 eax, 1
  00155	89 45 b0	 mov	 DWORD PTR _i$85359[ebp], eax
$L85360:
  00158	8b 45 f8	 mov	 eax, DWORD PTR _this$[ebp]
  0015b	8b 08		 mov	 ecx, DWORD PTR [eax]
  0015d	8b 55 b0	 mov	 edx, DWORD PTR _i$85359[ebp]
  00160	3b 91 28 01 00
	00		 cmp	 edx, DWORD PTR [ecx+296]
  00166	73 65		 jae	 SHORT $L85362

; 127  : 		{
; 128  : 			m_pRenderData->m_mtrlMeshMaterials[i] = d3dxMaterials[i].MatD3D ;

  00168	8b 45 b0	 mov	 eax, DWORD PTR _i$85359[ebp]
  0016b	6b c0 48	 imul	 eax, 72			; 00000048H
  0016e	8b 75 bc	 mov	 esi, DWORD PTR _d3dxMaterials$[ebp]
  00171	03 f0		 add	 esi, eax
  00173	8b 4d f8	 mov	 ecx, DWORD PTR _this$[ebp]
  00176	8b 11		 mov	 edx, DWORD PTR [ecx]
  00178	8b 45 b0	 mov	 eax, DWORD PTR _i$85359[ebp]
  0017b	6b c0 44	 imul	 eax, 68			; 00000044H
  0017e	8b ba 24 01 00
	00		 mov	 edi, DWORD PTR [edx+292]
  00184	03 f8		 add	 edi, eax
  00186	b9 11 00 00 00	 mov	 ecx, 17			; 00000011H
  0018b	f3 a5		 rep movsd

; 129  : 			m_pRenderData->m_mtrlMeshMaterials[i].Ambient = m_pRenderData->m_mtrlMeshMaterials[i].Diffuse ;

  0018d	8b 45 f8	 mov	 eax, DWORD PTR _this$[ebp]
  00190	8b 08		 mov	 ecx, DWORD PTR [eax]
  00192	8b 55 b0	 mov	 edx, DWORD PTR _i$85359[ebp]
  00195	6b d2 44	 imul	 edx, 68			; 00000044H
  00198	8b 81 24 01 00
	00		 mov	 eax, DWORD PTR [ecx+292]
  0019e	03 c2		 add	 eax, edx
  001a0	8b 4d f8	 mov	 ecx, DWORD PTR _this$[ebp]
  001a3	8b 11		 mov	 edx, DWORD PTR [ecx]
  001a5	8b 4d b0	 mov	 ecx, DWORD PTR _i$85359[ebp]
  001a8	6b c9 44	 imul	 ecx, 68			; 00000044H
  001ab	8b 92 24 01 00
	00		 mov	 edx, DWORD PTR [edx+292]
  001b1	8d 4c 0a 10	 lea	 ecx, DWORD PTR [edx+ecx+16]
  001b5	8b 10		 mov	 edx, DWORD PTR [eax]
  001b7	89 11		 mov	 DWORD PTR [ecx], edx
  001b9	8b 50 04	 mov	 edx, DWORD PTR [eax+4]
  001bc	89 51 04	 mov	 DWORD PTR [ecx+4], edx
  001bf	8b 50 08	 mov	 edx, DWORD PTR [eax+8]
  001c2	89 51 08	 mov	 DWORD PTR [ecx+8], edx
  001c5	8b 40 0c	 mov	 eax, DWORD PTR [eax+12]
  001c8	89 41 0c	 mov	 DWORD PTR [ecx+12], eax

; 130  : 		}

  001cb	eb 82		 jmp	 SHORT $L85361
$L85362:

; 131  : 		pD3DXMtrlBuffer->Release() ;

  001cd	8b 45 c8	 mov	 eax, DWORD PTR _pD3DXMtrlBuffer$[ebp]
  001d0	8b 08		 mov	 ecx, DWORD PTR [eax]
  001d2	8b f4		 mov	 esi, esp
  001d4	8b 55 c8	 mov	 edx, DWORD PTR _pD3DXMtrlBuffer$[ebp]
  001d7	52		 push	 edx
  001d8	ff 51 08	 call	 DWORD PTR [ecx+8]
  001db	3b f4		 cmp	 esi, esp
  001dd	e8 00 00 00 00	 call	 __RTC_CheckEsp

; 132  : 
; 133  : 	// get the FVF
; 134  : 		/*m_dwFVF = pTempMesh->GetFVF() ;*/
; 135  : 
; 136  : 	// get the number of vertices
; 137  : 		m_pRenderData->m_dwNumVertices = pTempMesh->GetNumVertices() ;

  001e2	8b 45 d4	 mov	 eax, DWORD PTR _pTempMesh$[ebp]
  001e5	8b 08		 mov	 ecx, DWORD PTR [eax]
  001e7	8b f4		 mov	 esi, esp
  001e9	8b 55 d4	 mov	 edx, DWORD PTR _pTempMesh$[ebp]
  001ec	52		 push	 edx
  001ed	ff 51 14	 call	 DWORD PTR [ecx+20]
  001f0	3b f4		 cmp	 esi, esp
  001f2	e8 00 00 00 00	 call	 __RTC_CheckEsp
  001f7	8b 4d f8	 mov	 ecx, DWORD PTR _this$[ebp]
  001fa	8b 11		 mov	 edx, DWORD PTR [ecx]
  001fc	89 82 20 01 00
	00		 mov	 DWORD PTR [edx+288], eax

; 138  : 
; 139  : 	// get the number of faces
; 140  : 		m_pRenderData->m_dwNumFaces = pTempMesh->GetNumFaces() ;

  00202	8b 45 d4	 mov	 eax, DWORD PTR _pTempMesh$[ebp]
  00205	8b 08		 mov	 ecx, DWORD PTR [eax]
  00207	8b f4		 mov	 esi, esp
  00209	8b 55 d4	 mov	 edx, DWORD PTR _pTempMesh$[ebp]
  0020c	52		 push	 edx
  0020d	ff 51 10	 call	 DWORD PTR [ecx+16]
  00210	3b f4		 cmp	 esi, esp
  00212	e8 00 00 00 00	 call	 __RTC_CheckEsp
  00217	8b 4d f8	 mov	 ecx, DWORD PTR _this$[ebp]
  0021a	8b 11		 mov	 edx, DWORD PTR [ecx]
  0021c	89 82 2c 01 00
	00		 mov	 DWORD PTR [edx+300], eax

; 141  : 
; 142  : 	// get the mesh's vertex buffer information
; 143  : 		/*LPDIRECT3DVERTEXBUFFER8 pVB ;
; 144  : 		hr = pTempMesh->GetVertexBuffer( &pVB );
; 145  : 		assert( !FAILED(hr) );*/
; 146  : 
; 147  : 	// allocate a second adjacency buffer to store post attribute sorted adjacency
; 148  : 	    DWORD *rgdwAdjacencyTemp = NULL ;

  00222	c7 45 a4 00 00
	00 00		 mov	 DWORD PTR _rgdwAdjacencyTemp$[ebp], 0

; 149  : 		rgdwAdjacencyTemp = new DWORD[m_pRenderData->m_dwNumFaces * 3] ;

  00229	8b 45 f8	 mov	 eax, DWORD PTR _this$[ebp]
  0022c	8b 08		 mov	 ecx, DWORD PTR [eax]
  0022e	8b 91 2c 01 00
	00		 mov	 edx, DWORD PTR [ecx+300]
  00234	6b d2 03	 imul	 edx, 3
  00237	c1 e2 02	 shl	 edx, 2
  0023a	52		 push	 edx
  0023b	e8 00 00 00 00	 call	 ??2@YAPAXI@Z		; operator new
  00240	83 c4 04	 add	 esp, 4
  00243	89 85 a8 fe ff
	ff		 mov	 DWORD PTR $T85647[ebp], eax
  00249	8b 85 a8 fe ff
	ff		 mov	 eax, DWORD PTR $T85647[ebp]
  0024f	89 45 a4	 mov	 DWORD PTR _rgdwAdjacencyTemp$[ebp], eax

; 150  : 		assert( rgdwAdjacencyTemp );

  00252	83 7d a4 00	 cmp	 DWORD PTR _rgdwAdjacencyTemp$[ebp], 0
  00256	75 1b		 jne	 SHORT $L85648
  00258	a1 00 00 00 00	 mov	 eax, DWORD PTR ?__LINE__Var@?1??MakeRenderDataAndBoundingData@CFileRenderObject@@QAEJPAUIDirect3D8@@PAUIDirect3DDevice8@@@Z@4JA
  0025d	83 c0 4f	 add	 eax, 79			; 0000004fH
  00260	50		 push	 eax
  00261	68 00 00 00 00	 push	 OFFSET FLAT:??_C@_0FD@HMECEKLE@c?3?2documents?5and?5settings?2dom?2my@
  00266	68 00 00 00 00	 push	 OFFSET FLAT:??_C@_0BC@OHKMBHIL@rgdwAdjacencyTemp?$AA@
  0026b	e8 00 00 00 00	 call	 __assert
  00270	83 c4 0c	 add	 esp, 12			; 0000000cH
$L85648:

; 151  : 
; 152  : 		ods( "CFileRenderObject::MakeRenderDataAndBoundingData - OptimizeInplace\n" );

  00273	68 00 00 00 00	 push	 OFFSET FLAT:??_C@_0EE@EPEAPOJL@CFileRenderObject?3?3MakeRenderDat@
  00278	e8 00 00 00 00	 call	 ?ods@@YAXPADZZ		; ods
  0027d	83 c4 04	 add	 esp, 4

; 153  : 
; 154  : 	// attribute sort + vertex cache sort
; 155  : 		hr = pTempMesh->OptimizeInplace(/*D3DXMESHOPT_COMPACT | */ D3DXMESHOPT_ATTRSORT /*| D3DXMESHOPT_VERTEXCACHE*/,
; 156  : 										NULL,/*(DWORD*)m_pRenderData->m_pAdjacencyBuffer->GetBufferPointer()*/
; 157  : 										NULL,/*rgdwAdjacencyTemp*/
; 158  : 										NULL,
; 159  : 										NULL) ;

  00280	8b f4		 mov	 esi, esp
  00282	6a 00		 push	 0
  00284	6a 00		 push	 0
  00286	6a 00		 push	 0
  00288	6a 00		 push	 0
  0028a	68 00 00 00 02	 push	 33554432		; 02000000H
  0028f	8b 45 d4	 mov	 eax, DWORD PTR _pTempMesh$[ebp]
  00292	8b 08		 mov	 ecx, DWORD PTR [eax]
  00294	8b 55 d4	 mov	 edx, DWORD PTR _pTempMesh$[ebp]
  00297	52		 push	 edx
  00298	ff 51 64	 call	 DWORD PTR [ecx+100]
  0029b	3b f4		 cmp	 esi, esp
  0029d	e8 00 00 00 00	 call	 __RTC_CheckEsp
  002a2	89 45 e0	 mov	 DWORD PTR _hr$[ebp], eax

; 160  : 		assert( !FAILED(hr) );

  002a5	83 7d e0 00	 cmp	 DWORD PTR _hr$[ebp], 0
  002a9	7d 1b		 jge	 SHORT $L85649
  002ab	a1 00 00 00 00	 mov	 eax, DWORD PTR ?__LINE__Var@?1??MakeRenderDataAndBoundingData@CFileRenderObject@@QAEJPAUIDirect3D8@@PAUIDirect3DDevice8@@@Z@4JA
  002b0	83 c0 59	 add	 eax, 89			; 00000059H
  002b3	50		 push	 eax
  002b4	68 00 00 00 00	 push	 OFFSET FLAT:??_C@_0FD@HMECEKLE@c?3?2documents?5and?5settings?2dom?2my@
  002b9	68 00 00 00 00	 push	 OFFSET FLAT:??_C@_0M@NKNCPJJD@?$CBFAILED?$CIhr?$CJ?$AA@
  002be	e8 00 00 00 00	 call	 __assert
  002c3	83 c4 0c	 add	 esp, 12			; 0000000cH
$L85649:

; 161  : 
; 162  : 	// clone to temp readable mesh with known FVF
; 163  : 		LPD3DXMESH pTempMesh2 ;
; 164  : 		hr = pTempMesh->CloneMeshFVF( D3DXMESH_DYNAMIC, MYFVF_UNCOLOREDVERTEX, pDev, &pTempMesh2 );

  002c6	8b f4		 mov	 esi, esp
  002c8	8d 45 98	 lea	 eax, DWORD PTR _pTempMesh2$[ebp]
  002cb	50		 push	 eax
  002cc	8b 4d 0c	 mov	 ecx, DWORD PTR _pDev$[ebp]
  002cf	51		 push	 ecx
  002d0	68 12 01 00 00	 push	 274			; 00000112H
  002d5	68 80 08 00 00	 push	 2176			; 00000880H
  002da	8b 55 d4	 mov	 edx, DWORD PTR _pTempMesh$[ebp]
  002dd	8b 02		 mov	 eax, DWORD PTR [edx]
  002df	8b 4d d4	 mov	 ecx, DWORD PTR _pTempMesh$[ebp]
  002e2	51		 push	 ecx
  002e3	ff 50 28	 call	 DWORD PTR [eax+40]
  002e6	3b f4		 cmp	 esi, esp
  002e8	e8 00 00 00 00	 call	 __RTC_CheckEsp
  002ed	89 45 e0	 mov	 DWORD PTR _hr$[ebp], eax

; 165  : 		assert( !FAILED(hr) );

  002f0	83 7d e0 00	 cmp	 DWORD PTR _hr$[ebp], 0
  002f4	7d 1b		 jge	 SHORT $L85650
  002f6	a1 00 00 00 00	 mov	 eax, DWORD PTR ?__LINE__Var@?1??MakeRenderDataAndBoundingData@CFileRenderObject@@QAEJPAUIDirect3D8@@PAUIDirect3DDevice8@@@Z@4JA
  002fb	83 c0 5e	 add	 eax, 94			; 0000005eH
  002fe	50		 push	 eax
  002ff	68 00 00 00 00	 push	 OFFSET FLAT:??_C@_0FD@HMECEKLE@c?3?2documents?5and?5settings?2dom?2my@
  00304	68 00 00 00 00	 push	 OFFSET FLAT:??_C@_0M@NKNCPJJD@?$CBFAILED?$CIhr?$CJ?$AA@
  00309	e8 00 00 00 00	 call	 __assert
  0030e	83 c4 0c	 add	 esp, 12			; 0000000cH
$L85650:

; 166  : 		SAFE_RELEASE( pTempMesh )

  00311	83 7d d4 00	 cmp	 DWORD PTR _pTempMesh$[ebp], 0
  00315	74 1c		 je	 SHORT $L85377
  00317	8b 45 d4	 mov	 eax, DWORD PTR _pTempMesh$[ebp]
  0031a	8b 08		 mov	 ecx, DWORD PTR [eax]
  0031c	8b f4		 mov	 esi, esp
  0031e	8b 55 d4	 mov	 edx, DWORD PTR _pTempMesh$[ebp]
  00321	52		 push	 edx
  00322	ff 51 08	 call	 DWORD PTR [ecx+8]
  00325	3b f4		 cmp	 esi, esp
  00327	e8 00 00 00 00	 call	 __RTC_CheckEsp
  0032c	c7 45 d4 00 00
	00 00		 mov	 DWORD PTR _pTempMesh$[ebp], 0
$L85377:

; 167  : 	// create bbox & bsphere from readable fixed FVF mesh
; 168  : 		MakeBoundingBoxAndSphere( pD3D, pDev, pTempMesh2 );

  00333	8b 45 98	 mov	 eax, DWORD PTR _pTempMesh2$[ebp]
  00336	50		 push	 eax
  00337	8b 4d 0c	 mov	 ecx, DWORD PTR _pDev$[ebp]
  0033a	51		 push	 ecx
  0033b	8b 55 08	 mov	 edx, DWORD PTR _pD3D$[ebp]
  0033e	52		 push	 edx
  0033f	8b 4d f8	 mov	 ecx, DWORD PTR _this$[ebp]
  00342	e8 00 00 00 00	 call	 ?MakeBoundingBoxAndSphere@CFileRenderObject@@QAEJPAUIDirect3D8@@PAUIDirect3DDevice8@@PAUID3DXMesh@@@Z ; CFileRenderObject::MakeBoundingBoxAndSphere

; 169  : 
; 170  : 	// clone to global writeonly mesh
; 171  : 		hr = pTempMesh2->CloneMeshFVF( D3DXMESH_WRITEONLY, MYFVF_UNCOLOREDVERTEX, pDev, &m_pRenderData->m_pMesh );

  00347	8b 45 f8	 mov	 eax, DWORD PTR _this$[ebp]
  0034a	8b 08		 mov	 ecx, DWORD PTR [eax]
  0034c	81 c1 04 01 00
	00		 add	 ecx, 260		; 00000104H
  00352	8b f4		 mov	 esi, esp
  00354	51		 push	 ecx
  00355	8b 55 0c	 mov	 edx, DWORD PTR _pDev$[ebp]
  00358	52		 push	 edx
  00359	68 12 01 00 00	 push	 274			; 00000112H
  0035e	68 40 04 00 00	 push	 1088			; 00000440H
  00363	8b 45 98	 mov	 eax, DWORD PTR _pTempMesh2$[ebp]
  00366	8b 08		 mov	 ecx, DWORD PTR [eax]
  00368	8b 55 98	 mov	 edx, DWORD PTR _pTempMesh2$[ebp]
  0036b	52		 push	 edx
  0036c	ff 51 28	 call	 DWORD PTR [ecx+40]
  0036f	3b f4		 cmp	 esi, esp
  00371	e8 00 00 00 00	 call	 __RTC_CheckEsp
  00376	89 45 e0	 mov	 DWORD PTR _hr$[ebp], eax

; 172  : 		assert( !FAILED(hr) );

  00379	83 7d e0 00	 cmp	 DWORD PTR _hr$[ebp], 0
  0037d	7d 1b		 jge	 SHORT $L85651
  0037f	a1 00 00 00 00	 mov	 eax, DWORD PTR ?__LINE__Var@?1??MakeRenderDataAndBoundingData@CFileRenderObject@@QAEJPAUIDirect3D8@@PAUIDirect3DDevice8@@@Z@4JA
  00384	83 c0 65	 add	 eax, 101		; 00000065H
  00387	50		 push	 eax
  00388	68 00 00 00 00	 push	 OFFSET FLAT:??_C@_0FD@HMECEKLE@c?3?2documents?5and?5settings?2dom?2my@
  0038d	68 00 00 00 00	 push	 OFFSET FLAT:??_C@_0M@NKNCPJJD@?$CBFAILED?$CIhr?$CJ?$AA@
  00392	e8 00 00 00 00	 call	 __assert
  00397	83 c4 0c	 add	 esp, 12			; 0000000cH
$L85651:

; 173  : 	
; 174  : 		SAFE_RELEASE( pTempMesh2 )

  0039a	83 7d 98 00	 cmp	 DWORD PTR _pTempMesh2$[ebp], 0
  0039e	74 1c		 je	 SHORT $L85380
  003a0	8b 45 98	 mov	 eax, DWORD PTR _pTempMesh2$[ebp]
  003a3	8b 08		 mov	 ecx, DWORD PTR [eax]
  003a5	8b f4		 mov	 esi, esp
  003a7	8b 55 98	 mov	 edx, DWORD PTR _pTempMesh2$[ebp]
  003aa	52		 push	 edx
  003ab	ff 51 08	 call	 DWORD PTR [ecx+8]
  003ae	3b f4		 cmp	 esi, esp
  003b0	e8 00 00 00 00	 call	 __RTC_CheckEsp
  003b5	c7 45 98 00 00
	00 00		 mov	 DWORD PTR _pTempMesh2$[ebp], 0
$L85380:

; 175  : 		SAFE_DELETE_ARRAY( rgdwAdjacencyTemp )

  003bc	83 7d a4 00	 cmp	 DWORD PTR _rgdwAdjacencyTemp$[ebp], 0
  003c0	74 1f		 je	 SHORT $L85381
  003c2	8b 45 a4	 mov	 eax, DWORD PTR _rgdwAdjacencyTemp$[ebp]
  003c5	89 85 9c fe ff
	ff		 mov	 DWORD PTR $T85652[ebp], eax
  003cb	8b 8d 9c fe ff
	ff		 mov	 ecx, DWORD PTR $T85652[ebp]
  003d1	51		 push	 ecx
  003d2	e8 00 00 00 00	 call	 ??3@YAXPAX@Z		; operator delete
  003d7	83 c4 04	 add	 esp, 4
  003da	c7 45 a4 00 00
	00 00		 mov	 DWORD PTR _rgdwAdjacencyTemp$[ebp], 0
$L85381:

; 176  : 
; 177  : 	//
; 178  : 	// Get attribute table:
; 179  : 	//
; 180  :         hr = m_pRenderData->m_pMesh->GetAttributeTable( NULL, &m_pRenderData->m_dwNumAttr );

  003e1	8b 45 f8	 mov	 eax, DWORD PTR _this$[ebp]
  003e4	8b 08		 mov	 ecx, DWORD PTR [eax]
  003e6	81 c1 58 01 00
	00		 add	 ecx, 344		; 00000158H
  003ec	8b f4		 mov	 esi, esp
  003ee	51		 push	 ecx
  003ef	6a 00		 push	 0
  003f1	8b 55 f8	 mov	 edx, DWORD PTR _this$[ebp]
  003f4	8b 02		 mov	 eax, DWORD PTR [edx]
  003f6	8b 88 04 01 00
	00		 mov	 ecx, DWORD PTR [eax+260]
  003fc	8b 55 f8	 mov	 edx, DWORD PTR _this$[ebp]
  003ff	8b 02		 mov	 eax, DWORD PTR [edx]
  00401	8b 90 04 01 00
	00		 mov	 edx, DWORD PTR [eax+260]
  00407	8b 01		 mov	 eax, DWORD PTR [ecx]
  00409	52		 push	 edx
  0040a	ff 50 48	 call	 DWORD PTR [eax+72]
  0040d	3b f4		 cmp	 esi, esp
  0040f	e8 00 00 00 00	 call	 __RTC_CheckEsp
  00414	89 45 e0	 mov	 DWORD PTR _hr$[ebp], eax

; 181  :         assert( !FAILED(hr) );

  00417	83 7d e0 00	 cmp	 DWORD PTR _hr$[ebp], 0
  0041b	7d 1b		 jge	 SHORT $L85653
  0041d	a1 00 00 00 00	 mov	 eax, DWORD PTR ?__LINE__Var@?1??MakeRenderDataAndBoundingData@CFileRenderObject@@QAEJPAUIDirect3D8@@PAUIDirect3DDevice8@@@Z@4JA
  00422	83 c0 6e	 add	 eax, 110		; 0000006eH
  00425	50		 push	 eax
  00426	68 00 00 00 00	 push	 OFFSET FLAT:??_C@_0FD@HMECEKLE@c?3?2documents?5and?5settings?2dom?2my@
  0042b	68 00 00 00 00	 push	 OFFSET FLAT:??_C@_0M@NKNCPJJD@?$CBFAILED?$CIhr?$CJ?$AA@
  00430	e8 00 00 00 00	 call	 __assert
  00435	83 c4 0c	 add	 esp, 12			; 0000000cH
$L85653:

; 182  :         m_pRenderData->m_pAttrTable  = new D3DXATTRIBUTERANGE[m_pRenderData->m_dwNumAttr];

  00438	8b 45 f8	 mov	 eax, DWORD PTR _this$[ebp]
  0043b	8b 08		 mov	 ecx, DWORD PTR [eax]
  0043d	8b 91 58 01 00
	00		 mov	 edx, DWORD PTR [ecx+344]
  00443	6b d2 14	 imul	 edx, 20			; 00000014H
  00446	52		 push	 edx
  00447	e8 00 00 00 00	 call	 ??2@YAPAXI@Z		; operator new
  0044c	83 c4 04	 add	 esp, 4
  0044f	89 85 90 fe ff
	ff		 mov	 DWORD PTR $T85654[ebp], eax
  00455	8b 45 f8	 mov	 eax, DWORD PTR _this$[ebp]
  00458	8b 08		 mov	 ecx, DWORD PTR [eax]
  0045a	8b 95 90 fe ff
	ff		 mov	 edx, DWORD PTR $T85654[ebp]
  00460	89 91 54 01 00
	00		 mov	 DWORD PTR [ecx+340], edx

; 183  :         assert( m_pRenderData->m_pAttrTable != NULL );

  00466	8b 45 f8	 mov	 eax, DWORD PTR _this$[ebp]
  00469	8b 08		 mov	 ecx, DWORD PTR [eax]
  0046b	83 b9 54 01 00
	00 00		 cmp	 DWORD PTR [ecx+340], 0
  00472	75 1c		 jne	 SHORT $L85655
  00474	8b 15 00 00 00
	00		 mov	 edx, DWORD PTR ?__LINE__Var@?1??MakeRenderDataAndBoundingData@CFileRenderObject@@QAEJPAUIDirect3D8@@PAUIDirect3DDevice8@@@Z@4JA
  0047a	83 c2 70	 add	 edx, 112		; 00000070H
  0047d	52		 push	 edx
  0047e	68 00 00 00 00	 push	 OFFSET FLAT:??_C@_0FD@HMECEKLE@c?3?2documents?5and?5settings?2dom?2my@
  00483	68 00 00 00 00	 push	 OFFSET FLAT:??_C@_0CE@MHBPIEDK@m_pRenderData?9?$DOm_pAttrTable?5?$CB?$DN?5N@
  00488	e8 00 00 00 00	 call	 __assert
  0048d	83 c4 0c	 add	 esp, 12			; 0000000cH
$L85655:

; 184  :         hr = m_pRenderData->m_pMesh->GetAttributeTable( m_pRenderData->m_pAttrTable, NULL );

  00490	8b f4		 mov	 esi, esp
  00492	6a 00		 push	 0
  00494	8b 45 f8	 mov	 eax, DWORD PTR _this$[ebp]
  00497	8b 08		 mov	 ecx, DWORD PTR [eax]
  00499	8b 91 54 01 00
	00		 mov	 edx, DWORD PTR [ecx+340]
  0049f	52		 push	 edx
  004a0	8b 45 f8	 mov	 eax, DWORD PTR _this$[ebp]
  004a3	8b 08		 mov	 ecx, DWORD PTR [eax]
  004a5	8b 91 04 01 00
	00		 mov	 edx, DWORD PTR [ecx+260]
  004ab	8b 45 f8	 mov	 eax, DWORD PTR _this$[ebp]
  004ae	8b 08		 mov	 ecx, DWORD PTR [eax]
  004b0	8b 81 04 01 00
	00		 mov	 eax, DWORD PTR [ecx+260]
  004b6	8b 0a		 mov	 ecx, DWORD PTR [edx]
  004b8	50		 push	 eax
  004b9	ff 51 48	 call	 DWORD PTR [ecx+72]
  004bc	3b f4		 cmp	 esi, esp
  004be	e8 00 00 00 00	 call	 __RTC_CheckEsp
  004c3	89 45 e0	 mov	 DWORD PTR _hr$[ebp], eax

; 185  :         assert( !FAILED(hr) );

  004c6	83 7d e0 00	 cmp	 DWORD PTR _hr$[ebp], 0
  004ca	7d 1b		 jge	 SHORT $L85656
  004cc	a1 00 00 00 00	 mov	 eax, DWORD PTR ?__LINE__Var@?1??MakeRenderDataAndBoundingData@CFileRenderObject@@QAEJPAUIDirect3D8@@PAUIDirect3DDevice8@@@Z@4JA
  004d1	83 c0 72	 add	 eax, 114		; 00000072H
  004d4	50		 push	 eax
  004d5	68 00 00 00 00	 push	 OFFSET FLAT:??_C@_0FD@HMECEKLE@c?3?2documents?5and?5settings?2dom?2my@
  004da	68 00 00 00 00	 push	 OFFSET FLAT:??_C@_0M@NKNCPJJD@?$CBFAILED?$CIhr?$CJ?$AA@
  004df	e8 00 00 00 00	 call	 __assert
  004e4	83 c4 0c	 add	 esp, 12			; 0000000cH
$L85656:

; 186  : 	
; 187  : 	//
; 188  : 	// Clone mesh to ensure correct FVF:
; 189  : 	//
; 190  : 		/*if (pMesh->GetFVF() != m_dwFVF)
; 191  : 		{
; 192  : 			if (FAILED(hr = pMesh->CloneMeshFVF(D3DXMESH_SYSTEMMEM,
; 193  : 												m_dwFVF, 
; 194  : 												pDev,
; 195  : 												&pTempMesh)))
; 196  : 			{
; 197  : 				Msg("CFileRenderObject::MakeMesh_PMesh: FAILED(CloneMeshFVF(...)) == TRUE") ;
; 198  : 				return hr ;
; 199  : 			}
; 200  : 
; 201  : 			if (!(pMesh->GetFVF() & D3DFVF_NORMAL))
; 202  : 			{
; 203  : 				D3DXComputeNormals(pTempMesh) ;
; 204  : 			}
; 205  : 
; 206  : 			pMesh->Release() ;
; 207  : 			pMesh = pTempMesh ;
; 208  : 		}
; 209  : 
; 210  : 	//
; 211  : 	// Make progressive mesh:
; 212  : 	//
; 213  : 		hr = D3DXGeneratePMesh(pMesh, (DWORD*)m_pAdjacencyBuffer->GetBufferPointer(),
; 214  : 							   NULL, NULL, 1, D3DXMESHSIMP_VERTEX, &m_pPMesh) ;
; 215  : 		pMesh->Release() ;
; 216  : 		if(FAILED(hr))
; 217  : 		{
; 218  : 			Msg("CFileRenderObject::MakeMesh_PMesh: FAILED(D3DXGeneratePMesh(...)) == TRUE") ;
; 219  : 			return hr ;
; 220  : 		}
; 221  : 
; 222  : 		m_pPMesh->SetNumVertices(0xffffffff) ;*/
; 223  : 
; 224  : 	//
; 225  : 	// Create vertex shaders:
; 226  : 	//
; 227  : 		LPD3DXBUFFER pErrs = NULL ;

  004e7	c7 45 8c 00 00
	00 00		 mov	 DWORD PTR _pErrs$[ebp], 0

; 228  : 		LPD3DXBUFFER pCode = NULL ;

  004ee	c7 45 80 00 00
	00 00		 mov	 DWORD PTR _pCode$[ebp], 0

; 229  : 
; 230  : 	// assemble the vertex shader from file
; 231  : 		hr = D3DXAssembleShaderFromFile( "..\\resource\\tandl.vsh", 0, NULL, &pCode, &pErrs );

  004f5	8d 45 8c	 lea	 eax, DWORD PTR _pErrs$[ebp]
  004f8	50		 push	 eax
  004f9	8d 4d 80	 lea	 ecx, DWORD PTR _pCode$[ebp]
  004fc	51		 push	 ecx
  004fd	6a 00		 push	 0
  004ff	6a 00		 push	 0
  00501	68 00 00 00 00	 push	 OFFSET FLAT:??_C@_0BG@CMKOMDKK@?4?4?2resource?2tandl?4vsh?$AA@
  00506	e8 00 00 00 00	 call	 _D3DXAssembleShaderFromFileA@20
  0050b	89 45 e0	 mov	 DWORD PTR _hr$[ebp], eax

; 232  : 		if( FAILED(hr) )

  0050e	83 7d e0 00	 cmp	 DWORD PTR _hr$[ebp], 0
  00512	7d 7f		 jge	 SHORT $L85395

; 233  : 		{
; 234  : 			Msg("CFileRenderObject::MakeRenderDataAndBoundingData - D3DXAssembleShaderFromFile() FAILED");

  00514	68 00 00 00 00	 push	 OFFSET FLAT:??_C@_0FH@CAHOEBJJ@CFileRenderObject?3?3MakeRenderDat@
  00519	e8 00 00 00 00	 call	 ?Msg@@YAXPAD@Z		; Msg
  0051e	83 c4 04	 add	 esp, 4

; 235  : 			if( pErrs )

  00521	83 7d 8c 00	 cmp	 DWORD PTR _pErrs$[ebp], 0
  00525	74 1e		 je	 SHORT $L85397

; 236  : 				Msg((char*)pErrs->GetBufferPointer());

  00527	8b 45 8c	 mov	 eax, DWORD PTR _pErrs$[ebp]
  0052a	8b 08		 mov	 ecx, DWORD PTR [eax]
  0052c	8b f4		 mov	 esi, esp
  0052e	8b 55 8c	 mov	 edx, DWORD PTR _pErrs$[ebp]
  00531	52		 push	 edx
  00532	ff 51 0c	 call	 DWORD PTR [ecx+12]
  00535	3b f4		 cmp	 esi, esp
  00537	e8 00 00 00 00	 call	 __RTC_CheckEsp
  0053c	50		 push	 eax
  0053d	e8 00 00 00 00	 call	 ?Msg@@YAXPAD@Z		; Msg
  00542	83 c4 04	 add	 esp, 4
$L85397:

; 237  : 
; 238  : 			SAFE_RELEASE( pCode )

  00545	83 7d 80 00	 cmp	 DWORD PTR _pCode$[ebp], 0
  00549	74 1c		 je	 SHORT $L85399
  0054b	8b 45 80	 mov	 eax, DWORD PTR _pCode$[ebp]
  0054e	8b 08		 mov	 ecx, DWORD PTR [eax]
  00550	8b f4		 mov	 esi, esp
  00552	8b 55 80	 mov	 edx, DWORD PTR _pCode$[ebp]
  00555	52		 push	 edx
  00556	ff 51 08	 call	 DWORD PTR [ecx+8]
  00559	3b f4		 cmp	 esi, esp
  0055b	e8 00 00 00 00	 call	 __RTC_CheckEsp
  00560	c7 45 80 00 00
	00 00		 mov	 DWORD PTR _pCode$[ebp], 0
$L85399:

; 239  : 			SAFE_RELEASE( pErrs )

  00567	83 7d 8c 00	 cmp	 DWORD PTR _pErrs$[ebp], 0
  0056b	74 1c		 je	 SHORT $L85400
  0056d	8b 45 8c	 mov	 eax, DWORD PTR _pErrs$[ebp]
  00570	8b 08		 mov	 ecx, DWORD PTR [eax]
  00572	8b f4		 mov	 esi, esp
  00574	8b 55 8c	 mov	 edx, DWORD PTR _pErrs$[ebp]
  00577	52		 push	 edx
  00578	ff 51 08	 call	 DWORD PTR [ecx+8]
  0057b	3b f4		 cmp	 esi, esp
  0057d	e8 00 00 00 00	 call	 __RTC_CheckEsp
  00582	c7 45 8c 00 00
	00 00		 mov	 DWORD PTR _pErrs$[ebp], 0
$L85400:

; 240  : 			return E_FAIL ;

  00589	b8 05 40 00 80	 mov	 eax, -2147467259	; 80004005H
  0058e	e9 a4 00 00 00	 jmp	 $L85337
$L85395:

; 241  : 		}
; 242  : 
; 243  : 	// create the vertex shader
; 244  : 		hr = pDev->CreateVertexShader( dwUNCOLOREDVERTEX_vsdec,
; 245  : 									   (DWORD*)pCode->GetBufferPointer(),
; 246  : 									   &m_pRenderData->m_dwShaderRipple,
; 247  : 									   0 );

  00593	8b f4		 mov	 esi, esp
  00595	6a 00		 push	 0
  00597	8b 45 f8	 mov	 eax, DWORD PTR _this$[ebp]
  0059a	8b 08		 mov	 ecx, DWORD PTR [eax]
  0059c	81 c1 5c 01 00
	00		 add	 ecx, 348		; 0000015cH
  005a2	51		 push	 ecx
  005a3	8b 55 80	 mov	 edx, DWORD PTR _pCode$[ebp]
  005a6	8b 02		 mov	 eax, DWORD PTR [edx]
  005a8	8b fc		 mov	 edi, esp
  005aa	8b 4d 80	 mov	 ecx, DWORD PTR _pCode$[ebp]
  005ad	51		 push	 ecx
  005ae	ff 50 0c	 call	 DWORD PTR [eax+12]
  005b1	3b fc		 cmp	 edi, esp
  005b3	e8 00 00 00 00	 call	 __RTC_CheckEsp
  005b8	50		 push	 eax
  005b9	68 00 00 00 00	 push	 OFFSET FLAT:?dwUNCOLOREDVERTEX_vsdec@@3PAKA ; dwUNCOLOREDVERTEX_vsdec
  005be	8b 55 0c	 mov	 edx, DWORD PTR _pDev$[ebp]
  005c1	8b 02		 mov	 eax, DWORD PTR [edx]
  005c3	8b 4d 0c	 mov	 ecx, DWORD PTR _pDev$[ebp]
  005c6	51		 push	 ecx
  005c7	ff 90 2c 01 00
	00		 call	 DWORD PTR [eax+300]
  005cd	3b f4		 cmp	 esi, esp
  005cf	e8 00 00 00 00	 call	 __RTC_CheckEsp
  005d4	89 45 e0	 mov	 DWORD PTR _hr$[ebp], eax

; 248  : 		if( FAILED(hr) )

  005d7	83 7d e0 00	 cmp	 DWORD PTR _hr$[ebp], 0
  005db	7d 14		 jge	 SHORT $L85404

; 249  : 		{
; 250  : 			Msg("CFileRenderObject::MakeRenderDataAndBoundingData - CreateVertexShader() FAILED");

  005dd	68 00 00 00 00	 push	 OFFSET FLAT:??_C@_0EP@HJCCIGLL@CFileRenderObject?3?3MakeRenderDat@
  005e2	e8 00 00 00 00	 call	 ?Msg@@YAXPAD@Z		; Msg
  005e7	83 c4 04	 add	 esp, 4

; 251  : 			return E_FAIL ;

  005ea	b8 05 40 00 80	 mov	 eax, -2147467259	; 80004005H
  005ef	eb 46		 jmp	 SHORT $L85337
$L85404:

; 252  : 		}
; 253  : 		SAFE_RELEASE( pCode )

  005f1	83 7d 80 00	 cmp	 DWORD PTR _pCode$[ebp], 0
  005f5	74 1c		 je	 SHORT $L85407
  005f7	8b 45 80	 mov	 eax, DWORD PTR _pCode$[ebp]
  005fa	8b 08		 mov	 ecx, DWORD PTR [eax]
  005fc	8b f4		 mov	 esi, esp
  005fe	8b 55 80	 mov	 edx, DWORD PTR _pCode$[ebp]
  00601	52		 push	 edx
  00602	ff 51 08	 call	 DWORD PTR [ecx+8]
  00605	3b f4		 cmp	 esi, esp
  00607	e8 00 00 00 00	 call	 __RTC_CheckEsp
  0060c	c7 45 80 00 00
	00 00		 mov	 DWORD PTR _pCode$[ebp], 0
$L85407:

; 254  : 		SAFE_RELEASE( pErrs )

  00613	83 7d 8c 00	 cmp	 DWORD PTR _pErrs$[ebp], 0
  00617	74 1c		 je	 SHORT $L85408
  00619	8b 45 8c	 mov	 eax, DWORD PTR _pErrs$[ebp]
  0061c	8b 08		 mov	 ecx, DWORD PTR [eax]
  0061e	8b f4		 mov	 esi, esp
  00620	8b 55 8c	 mov	 edx, DWORD PTR _pErrs$[ebp]
  00623	52		 push	 edx
  00624	ff 51 08	 call	 DWORD PTR [ecx+8]
  00627	3b f4		 cmp	 esi, esp
  00629	e8 00 00 00 00	 call	 __RTC_CheckEsp
  0062e	c7 45 8c 00 00
	00 00		 mov	 DWORD PTR _pErrs$[ebp], 0
$L85408:

; 255  : 
; 256  : 		return S_OK ;

  00635	33 c0		 xor	 eax, eax
$L85337:

; 257  : 	}

  00637	52		 push	 edx
  00638	8b cd		 mov	 ecx, ebp
  0063a	50		 push	 eax
  0063b	8d 15 00 00 00
	00		 lea	 edx, DWORD PTR $L85663
  00641	e8 00 00 00 00	 call	 @_RTC_CheckStackVars@8
  00646	58		 pop	 eax
  00647	5a		 pop	 edx
  00648	5f		 pop	 edi
  00649	5e		 pop	 esi
  0064a	5b		 pop	 ebx
  0064b	81 c4 74 01 00
	00		 add	 esp, 372		; 00000174H
  00651	3b ec		 cmp	 ebp, esp
  00653	e8 00 00 00 00	 call	 __RTC_CheckEsp
  00658	8b e5		 mov	 esp, ebp
  0065a	5d		 pop	 ebp
  0065b	c2 08 00	 ret	 8
$L85663:
  0065e	05 00 00 00	 DD	 5
  00662	00 00 00 00	 DD	 $L85662
$L85662:
  00666	d4 ff ff ff	 DD	 -44			; ffffffd4H
  0066a	04 00 00 00	 DD	 4
  0066e	00 00 00 00	 DD	 $L85657
  00672	c8 ff ff ff	 DD	 -56			; ffffffc8H
  00676	04 00 00 00	 DD	 4
  0067a	00 00 00 00	 DD	 $L85658
  0067e	98 ff ff ff	 DD	 -104			; ffffff98H
  00682	04 00 00 00	 DD	 4
  00686	00 00 00 00	 DD	 $L85659
  0068a	8c ff ff ff	 DD	 -116			; ffffff8cH
  0068e	04 00 00 00	 DD	 4
  00692	00 00 00 00	 DD	 $L85660
  00696	80 ff ff ff	 DD	 -128			; ffffff80H
  0069a	04 00 00 00	 DD	 4
  0069e	00 00 00 00	 DD	 $L85661
$L85661:
  006a2	70		 DB	 112			; 00000070H
  006a3	43		 DB	 67			; 00000043H
  006a4	6f		 DB	 111			; 0000006fH
  006a5	64		 DB	 100			; 00000064H
  006a6	65		 DB	 101			; 00000065H
  006a7	00		 DB	 0
$L85660:
  006a8	70		 DB	 112			; 00000070H
  006a9	45		 DB	 69			; 00000045H
  006aa	72		 DB	 114			; 00000072H
  006ab	72		 DB	 114			; 00000072H
  006ac	73		 DB	 115			; 00000073H
  006ad	00		 DB	 0
$L85659:
  006ae	70		 DB	 112			; 00000070H
  006af	54		 DB	 84			; 00000054H
  006b0	65		 DB	 101			; 00000065H
  006b1	6d		 DB	 109			; 0000006dH
  006b2	70		 DB	 112			; 00000070H
  006b3	4d		 DB	 77			; 0000004dH
  006b4	65		 DB	 101			; 00000065H
  006b5	73		 DB	 115			; 00000073H
  006b6	68		 DB	 104			; 00000068H
  006b7	32		 DB	 50			; 00000032H
  006b8	00		 DB	 0
$L85658:
  006b9	70		 DB	 112			; 00000070H
  006ba	44		 DB	 68			; 00000044H
  006bb	33		 DB	 51			; 00000033H
  006bc	44		 DB	 68			; 00000044H
  006bd	58		 DB	 88			; 00000058H
  006be	4d		 DB	 77			; 0000004dH
  006bf	74		 DB	 116			; 00000074H
  006c0	72		 DB	 114			; 00000072H
  006c1	6c		 DB	 108			; 0000006cH
  006c2	42		 DB	 66			; 00000042H
  006c3	75		 DB	 117			; 00000075H
  006c4	66		 DB	 102			; 00000066H
  006c5	66		 DB	 102			; 00000066H
  006c6	65		 DB	 101			; 00000065H
  006c7	72		 DB	 114			; 00000072H
  006c8	00		 DB	 0
$L85657:
  006c9	70		 DB	 112			; 00000070H
  006ca	54		 DB	 84			; 00000054H
  006cb	65		 DB	 101			; 00000065H
  006cc	6d		 DB	 109			; 0000006dH
  006cd	70		 DB	 112			; 00000070H
  006ce	4d		 DB	 77			; 0000004dH
  006cf	65		 DB	 101			; 00000065H
  006d0	73		 DB	 115			; 00000073H
  006d1	68		 DB	 104			; 00000068H
  006d2	00		 DB	 0
?MakeRenderDataAndBoundingData@CFileRenderObject@@QAEJPAUIDirect3D8@@PAUIDirect3DDevice8@@@Z ENDP ; CFileRenderObject::MakeRenderDataAndBoundingData
_TEXT	ENDS
PUBLIC	?SetLargestSide@CFileRenderObject@@QAEXM@Z	; CFileRenderObject::SetLargestSide
PUBLIC	?__LINE__Var@?1??SetLargestSide@CFileRenderObject@@QAEXM@Z@4JA ; `CFileRenderObject::SetLargestSide'::`2'::__LINE__Var
PUBLIC	??_C@_0BH@NBKAL@m_fLargestSide?5?$CB?$DN?50?40f?$AA@ ; `string'
PUBLIC	__real@00000000
PUBLIC	??GD3DXVECTOR3@@QBE?AU0@ABU0@@Z			; D3DXVECTOR3::operator-
EXTRN	_D3DXMatrixScaling@16:NEAR
;	COMDAT __real@00000000
CONST	SEGMENT
__real@00000000 DD 000000000r			; 0
CONST	ENDS
;	COMDAT ?__LINE__Var@?1??SetLargestSide@CFileRenderObject@@QAEXM@Z@4JA
_DATA	SEGMENT
?__LINE__Var@?1??SetLargestSide@CFileRenderObject@@QAEXM@Z@4JA DD 0109H ; `CFileRenderObject::SetLargestSide'::`2'::__LINE__Var
_DATA	ENDS
;	COMDAT ??_C@_0BH@NBKAL@m_fLargestSide?5?$CB?$DN?50?40f?$AA@
CONST	SEGMENT
??_C@_0BH@NBKAL@m_fLargestSide?5?$CB?$DN?50?40f?$AA@ DB 'm_fLargestSide !'
	DB	'= 0.0f', 00H				; `string'
; Function compile flags: /Odt /RTCsu /ZI
CONST	ENDS
;	COMDAT ?SetLargestSide@CFileRenderObject@@QAEXM@Z
_TEXT	SEGMENT
tv80 = -256
tv81 = -252
tv82 = -248
$T85667 = -240
_vSize$ = -28
_this$ = -8
_fLargestSide$ = 8
?SetLargestSide@CFileRenderObject@@QAEXM@Z PROC NEAR	; CFileRenderObject::SetLargestSide, COMDAT
; _this$ = ecx

; 265  : 	{

  00000	55		 push	 ebp
  00001	8b ec		 mov	 ebp, esp
  00003	81 ec 00 01 00
	00		 sub	 esp, 256		; 00000100H
  00009	53		 push	 ebx
  0000a	56		 push	 esi
  0000b	57		 push	 edi
  0000c	51		 push	 ecx
  0000d	8d bd 00 ff ff
	ff		 lea	 edi, DWORD PTR [ebp-256]
  00013	b9 40 00 00 00	 mov	 ecx, 64			; 00000040H
  00018	b8 cc cc cc cc	 mov	 eax, -858993460		; ccccccccH
  0001d	f3 ab		 rep stosd
  0001f	59		 pop	 ecx
  00020	89 4d f8	 mov	 DWORD PTR _this$[ebp], ecx

; 266  : 		xVec3 vSize ;

  00023	8d 4d e4	 lea	 ecx, DWORD PTR _vSize$[ebp]
  00026	e8 00 00 00 00	 call	 ??0D3DXVECTOR3@@QAE@XZ	; D3DXVECTOR3::D3DXVECTOR3

; 267  : 		
; 268  : 	// get current largest side
; 269  : 		vSize = m_pBBox->m_vMax - m_pBBox->m_vMin ;

  0002b	8b 45 f8	 mov	 eax, DWORD PTR _this$[ebp]
  0002e	8b 48 08	 mov	 ecx, DWORD PTR [eax+8]
  00031	51		 push	 ecx
  00032	8d 95 10 ff ff
	ff		 lea	 edx, DWORD PTR $T85667[ebp]
  00038	52		 push	 edx
  00039	8b 45 f8	 mov	 eax, DWORD PTR _this$[ebp]
  0003c	8b 48 08	 mov	 ecx, DWORD PTR [eax+8]
  0003f	83 c1 0c	 add	 ecx, 12			; 0000000cH
  00042	e8 00 00 00 00	 call	 ??GD3DXVECTOR3@@QBE?AU0@ABU0@@Z ; D3DXVECTOR3::operator-
  00047	8b 08		 mov	 ecx, DWORD PTR [eax]
  00049	89 4d e4	 mov	 DWORD PTR _vSize$[ebp], ecx
  0004c	8b 50 04	 mov	 edx, DWORD PTR [eax+4]
  0004f	89 55 e8	 mov	 DWORD PTR _vSize$[ebp+4], edx
  00052	8b 40 08	 mov	 eax, DWORD PTR [eax+8]
  00055	89 45 ec	 mov	 DWORD PTR _vSize$[ebp+8], eax

; 270  : 		m_fLargestSide = (vSize.x >= vSize.y && vSize.x >= vSize.z) ? vSize.x :
; 271  : 						 (vSize.y >= vSize.x && vSize.y >= vSize.z) ? vSize.y :
; 272  : 						 (vSize.z >= vSize.y && vSize.z >= vSize.x) ? vSize.z : 0.0f ;

  00058	d9 45 e4	 fld	 DWORD PTR _vSize$[ebp]
  0005b	d8 5d e8	 fcomp	 DWORD PTR _vSize$[ebp+4]
  0005e	df e0		 fnstsw	 ax
  00060	f6 c4 01	 test	 ah, 1
  00063	75 18		 jne	 SHORT $L85668
  00065	d9 45 e4	 fld	 DWORD PTR _vSize$[ebp]
  00068	d8 5d ec	 fcomp	 DWORD PTR _vSize$[ebp+8]
  0006b	df e0		 fnstsw	 ax
  0006d	f6 c4 01	 test	 ah, 1
  00070	75 0b		 jne	 SHORT $L85668
  00072	8b 45 e4	 mov	 eax, DWORD PTR _vSize$[ebp]
  00075	89 85 08 ff ff
	ff		 mov	 DWORD PTR tv82[ebp], eax
  0007b	eb 6c		 jmp	 SHORT $L85673
$L85668:
  0007d	d9 45 e8	 fld	 DWORD PTR _vSize$[ebp+4]
  00080	d8 5d e4	 fcomp	 DWORD PTR _vSize$[ebp]
  00083	df e0		 fnstsw	 ax
  00085	f6 c4 01	 test	 ah, 1
  00088	75 18		 jne	 SHORT $L85669
  0008a	d9 45 e8	 fld	 DWORD PTR _vSize$[ebp+4]
  0008d	d8 5d ec	 fcomp	 DWORD PTR _vSize$[ebp+8]
  00090	df e0		 fnstsw	 ax
  00092	f6 c4 01	 test	 ah, 1
  00095	75 0b		 jne	 SHORT $L85669
  00097	8b 4d e8	 mov	 ecx, DWORD PTR _vSize$[ebp+4]
  0009a	89 8d 04 ff ff
	ff		 mov	 DWORD PTR tv81[ebp], ecx
  000a0	eb 3b		 jmp	 SHORT $L85672
$L85669:
  000a2	d9 45 ec	 fld	 DWORD PTR _vSize$[ebp+8]
  000a5	d8 5d e8	 fcomp	 DWORD PTR _vSize$[ebp+4]
  000a8	df e0		 fnstsw	 ax
  000aa	f6 c4 01	 test	 ah, 1
  000ad	75 18		 jne	 SHORT $L85670
  000af	d9 45 ec	 fld	 DWORD PTR _vSize$[ebp+8]
  000b2	d8 5d e4	 fcomp	 DWORD PTR _vSize$[ebp]
  000b5	df e0		 fnstsw	 ax
  000b7	f6 c4 01	 test	 ah, 1
  000ba	75 0b		 jne	 SHORT $L85670
  000bc	8b 55 ec	 mov	 edx, DWORD PTR _vSize$[ebp+8]
  000bf	89 95 00 ff ff
	ff		 mov	 DWORD PTR tv80[ebp], edx
  000c5	eb 0a		 jmp	 SHORT $L85671
$L85670:
  000c7	c7 85 00 ff ff
	ff 00 00 00 00	 mov	 DWORD PTR tv80[ebp], 0
$L85671:
  000d1	8b 85 00 ff ff
	ff		 mov	 eax, DWORD PTR tv80[ebp]
  000d7	89 85 04 ff ff
	ff		 mov	 DWORD PTR tv81[ebp], eax
$L85672:
  000dd	8b 8d 04 ff ff
	ff		 mov	 ecx, DWORD PTR tv81[ebp]
  000e3	89 8d 08 ff ff
	ff		 mov	 DWORD PTR tv82[ebp], ecx
$L85673:
  000e9	8b 55 f8	 mov	 edx, DWORD PTR _this$[ebp]
  000ec	8b 85 08 ff ff
	ff		 mov	 eax, DWORD PTR tv82[ebp]
  000f2	89 82 cc 00 00
	00		 mov	 DWORD PTR [edx+204], eax

; 273  : 		assert( m_fLargestSide != 0.0f );

  000f8	8b 45 f8	 mov	 eax, DWORD PTR _this$[ebp]
  000fb	d9 80 cc 00 00
	00		 fld	 DWORD PTR [eax+204]
  00101	d8 1d 00 00 00
	00		 fcomp	 DWORD PTR __real@00000000
  00107	df e0		 fnstsw	 ax
  00109	f6 c4 44	 test	 ah, 68			; 00000044H
  0010c	7a 1c		 jp	 SHORT $L85674
  0010e	8b 0d 00 00 00
	00		 mov	 ecx, DWORD PTR ?__LINE__Var@?1??SetLargestSide@CFileRenderObject@@QAEXM@Z@4JA
  00114	83 c1 08	 add	 ecx, 8
  00117	51		 push	 ecx
  00118	68 00 00 00 00	 push	 OFFSET FLAT:??_C@_0FD@HMECEKLE@c?3?2documents?5and?5settings?2dom?2my@
  0011d	68 00 00 00 00	 push	 OFFSET FLAT:??_C@_0BH@NBKAL@m_fLargestSide?5?$CB?$DN?50?40f?$AA@
  00122	e8 00 00 00 00	 call	 __assert
  00127	83 c4 0c	 add	 esp, 12			; 0000000cH
$L85674:

; 274  : 		
; 275  : 	// get degree of magnification or minifaction requried
; 276  : 		m_fScale = fLargestSide / m_fLargestSide ;

  0012a	8b 45 f8	 mov	 eax, DWORD PTR _this$[ebp]
  0012d	d9 45 08	 fld	 DWORD PTR _fLargestSide$[ebp]
  00130	d8 b0 cc 00 00
	00		 fdiv	 DWORD PTR [eax+204]
  00136	8b 4d f8	 mov	 ecx, DWORD PTR _this$[ebp]
  00139	d9 99 d4 00 00
	00		 fstp	 DWORD PTR [ecx+212]

; 277  : 
; 278  : 	// apply scaling to largest side
; 279  : 		m_fScaledLargestSide = m_fLargestSide * m_fScale ;

  0013f	8b 45 f8	 mov	 eax, DWORD PTR _this$[ebp]
  00142	8b 4d f8	 mov	 ecx, DWORD PTR _this$[ebp]
  00145	d9 80 cc 00 00
	00		 fld	 DWORD PTR [eax+204]
  0014b	d8 89 d4 00 00
	00		 fmul	 DWORD PTR [ecx+212]
  00151	8b 55 f8	 mov	 edx, DWORD PTR _this$[ebp]
  00154	d9 9a d0 00 00
	00		 fstp	 DWORD PTR [edx+208]

; 280  : 
; 281  : 	// apply scaling to bounding sphere radius
; 282  : 		m_pRenderData->m_fBSphereRadius = m_pRenderData->m_fInitialBSphereRadius * m_fScale ;

  0015a	8b 45 f8	 mov	 eax, DWORD PTR _this$[ebp]
  0015d	8b 08		 mov	 ecx, DWORD PTR [eax]
  0015f	8b 55 f8	 mov	 edx, DWORD PTR _this$[ebp]
  00162	d9 81 34 01 00
	00		 fld	 DWORD PTR [ecx+308]
  00168	d8 8a d4 00 00
	00		 fmul	 DWORD PTR [edx+212]
  0016e	8b 45 f8	 mov	 eax, DWORD PTR _this$[ebp]
  00171	8b 08		 mov	 ecx, DWORD PTR [eax]
  00173	d9 99 38 01 00
	00		 fstp	 DWORD PTR [ecx+312]

; 283  : 
; 284  : 	// build matrix
; 285  : 		D3DXMatrixScaling(&m_matScale, m_fScale, m_fScale, m_fScale) ;

  00179	8b 45 f8	 mov	 eax, DWORD PTR _this$[ebp]
  0017c	8b 88 d4 00 00
	00		 mov	 ecx, DWORD PTR [eax+212]
  00182	51		 push	 ecx
  00183	8b 55 f8	 mov	 edx, DWORD PTR _this$[ebp]
  00186	8b 82 d4 00 00
	00		 mov	 eax, DWORD PTR [edx+212]
  0018c	50		 push	 eax
  0018d	8b 4d f8	 mov	 ecx, DWORD PTR _this$[ebp]
  00190	8b 91 d4 00 00
	00		 mov	 edx, DWORD PTR [ecx+212]
  00196	52		 push	 edx
  00197	8b 45 f8	 mov	 eax, DWORD PTR _this$[ebp]
  0019a	05 8c 00 00 00	 add	 eax, 140		; 0000008cH
  0019f	50		 push	 eax
  001a0	e8 00 00 00 00	 call	 _D3DXMatrixScaling@16

; 286  : 	}

  001a5	52		 push	 edx
  001a6	8b cd		 mov	 ecx, ebp
  001a8	50		 push	 eax
  001a9	8d 15 00 00 00
	00		 lea	 edx, DWORD PTR $L85679
  001af	e8 00 00 00 00	 call	 @_RTC_CheckStackVars@8
  001b4	58		 pop	 eax
  001b5	5a		 pop	 edx
  001b6	5f		 pop	 edi
  001b7	5e		 pop	 esi
  001b8	5b		 pop	 ebx
  001b9	81 c4 00 01 00
	00		 add	 esp, 256		; 00000100H
  001bf	3b ec		 cmp	 ebp, esp
  001c1	e8 00 00 00 00	 call	 __RTC_CheckEsp
  001c6	8b e5		 mov	 esp, ebp
  001c8	5d		 pop	 ebp
  001c9	c2 04 00	 ret	 4
$L85679:
  001cc	01 00 00 00	 DD	 1
  001d0	00 00 00 00	 DD	 $L85678
$L85678:
  001d4	e4 ff ff ff	 DD	 -28			; ffffffe4H
  001d8	0c 00 00 00	 DD	 12			; 0000000cH
  001dc	00 00 00 00	 DD	 $L85677
$L85677:
  001e0	76		 DB	 118			; 00000076H
  001e1	53		 DB	 83			; 00000053H
  001e2	69		 DB	 105			; 00000069H
  001e3	7a		 DB	 122			; 0000007aH
  001e4	65		 DB	 101			; 00000065H
  001e5	00		 DB	 0
?SetLargestSide@CFileRenderObject@@QAEXM@Z ENDP		; CFileRenderObject::SetLargestSide
_TEXT	ENDS
PUBLIC	?__LINE__Var@?1??MakeBoundingBoxAndSphere@CFileRenderObject@@QAEJPAUIDirect3D8@@PAUIDirect3DDevice8@@PAUID3DXMesh@@@Z@4JA ; `CFileRenderObject::MakeBoundingBoxAndSphere'::`2'::__LINE__Var
PUBLIC	??_C@_0L@CJJJJEMF@hr?$DN?$DND3D_OK?$AA@		; `string'
PUBLIC	__real@40000000
EXTRN	_D3DXComputeBoundingSphere@20:NEAR
EXTRN	_D3DXComputeBoundingBox@20:NEAR
;	COMDAT ?__LINE__Var@?1??MakeBoundingBoxAndSphere@CFileRenderObject@@QAEJPAUIDirect3D8@@PAUIDirect3DDevice8@@PAUID3DXMesh@@@Z@4JA
_DATA	SEGMENT
?__LINE__Var@?1??MakeBoundingBoxAndSphere@CFileRenderObject@@QAEJPAUIDirect3D8@@PAUIDirect3DDevice8@@PAUID3DXMesh@@@Z@4JA DD 0126H ; `CFileRenderObject::MakeBoundingBoxAndSphere'::`2'::__LINE__Var
_DATA	ENDS
;	COMDAT ??_C@_0L@CJJJJEMF@hr?$DN?$DND3D_OK?$AA@
CONST	SEGMENT
??_C@_0L@CJJJJEMF@hr?$DN?$DND3D_OK?$AA@ DB 'hr==D3D_OK', 00H ; `string'
CONST	ENDS
;	COMDAT __real@40000000
CONST	SEGMENT
__real@40000000 DD 040000000r			; 2
; Function compile flags: /Odt /RTCsu /ZI
CONST	ENDS
;	COMDAT ?MakeBoundingBoxAndSphere@CFileRenderObject@@QAEJPAUIDirect3D8@@PAUIDirect3DDevice8@@PAUID3DXMesh@@@Z
_TEXT	SEGMENT
_v$85440 = -116
_pV$85438 = -104
_pVerts$ = -92
_vCenter$ = -80
_vMax$ = -60
_vMin$ = -40
_hr$ = -20
_this$ = -8
_pD3D$ = 8
_pDev$ = 12
_pReadableMesh$ = 16
?MakeBoundingBoxAndSphere@CFileRenderObject@@QAEJPAUIDirect3D8@@PAUIDirect3DDevice8@@PAUID3DXMesh@@@Z PROC NEAR ; CFileRenderObject::MakeBoundingBoxAndSphere, COMDAT
; _this$ = ecx

; 294  : 	{

  00000	55		 push	 ebp
  00001	8b ec		 mov	 ebp, esp
  00003	81 ec 38 01 00
	00		 sub	 esp, 312		; 00000138H
  00009	53		 push	 ebx
  0000a	56		 push	 esi
  0000b	57		 push	 edi
  0000c	51		 push	 ecx
  0000d	8d bd c8 fe ff
	ff		 lea	 edi, DWORD PTR [ebp-312]
  00013	b9 4e 00 00 00	 mov	 ecx, 78			; 0000004eH
  00018	b8 cc cc cc cc	 mov	 eax, -858993460		; ccccccccH
  0001d	f3 ab		 rep stosd
  0001f	59		 pop	 ecx
  00020	89 4d f8	 mov	 DWORD PTR _this$[ebp], ecx

; 295  : 		HRESULT hr ;
; 296  : 		xVec3 vMin, vMax, vCenter ;

  00023	8d 4d d8	 lea	 ecx, DWORD PTR _vMin$[ebp]
  00026	e8 00 00 00 00	 call	 ??0D3DXVECTOR3@@QAE@XZ	; D3DXVECTOR3::D3DXVECTOR3
  0002b	8d 4d c4	 lea	 ecx, DWORD PTR _vMax$[ebp]
  0002e	e8 00 00 00 00	 call	 ??0D3DXVECTOR3@@QAE@XZ	; D3DXVECTOR3::D3DXVECTOR3
  00033	8d 4d b0	 lea	 ecx, DWORD PTR _vCenter$[ebp]
  00036	e8 00 00 00 00	 call	 ??0D3DXVECTOR3@@QAE@XZ	; D3DXVECTOR3::D3DXVECTOR3

; 297  : 
; 298  : 	// lock VB
; 299  : 		BYTE *pVerts ;
; 300  : 		hr = pReadableMesh->LockVertexBuffer( 0, &pVerts );

  0003b	8b f4		 mov	 esi, esp
  0003d	8d 45 a4	 lea	 eax, DWORD PTR _pVerts$[ebp]
  00040	50		 push	 eax
  00041	6a 00		 push	 0
  00043	8b 4d 10	 mov	 ecx, DWORD PTR _pReadableMesh$[ebp]
  00046	8b 11		 mov	 edx, DWORD PTR [ecx]
  00048	8b 45 10	 mov	 eax, DWORD PTR _pReadableMesh$[ebp]
  0004b	50		 push	 eax
  0004c	ff 52 38	 call	 DWORD PTR [edx+56]
  0004f	3b f4		 cmp	 esi, esp
  00051	e8 00 00 00 00	 call	 __RTC_CheckEsp
  00056	89 45 ec	 mov	 DWORD PTR _hr$[ebp], eax

; 301  : 		assert( hr==D3D_OK );

  00059	83 7d ec 00	 cmp	 DWORD PTR _hr$[ebp], 0
  0005d	74 1b		 je	 SHORT $L85682
  0005f	a1 00 00 00 00	 mov	 eax, DWORD PTR ?__LINE__Var@?1??MakeBoundingBoxAndSphere@CFileRenderObject@@QAEJPAUIDirect3D8@@PAUIDirect3DDevice8@@PAUID3DXMesh@@@Z@4JA
  00064	83 c0 07	 add	 eax, 7
  00067	50		 push	 eax
  00068	68 00 00 00 00	 push	 OFFSET FLAT:??_C@_0FD@HMECEKLE@c?3?2documents?5and?5settings?2dom?2my@
  0006d	68 00 00 00 00	 push	 OFFSET FLAT:??_C@_0L@CJJJJEMF@hr?$DN?$DND3D_OK?$AA@
  00072	e8 00 00 00 00	 call	 __assert
  00077	83 c4 0c	 add	 esp, 12			; 0000000cH
$L85682:

; 302  : 
; 303  : 	// get raw bounding volume
; 304  : 		hr = D3DXComputeBoundingBox( pVerts, m_pRenderData->m_dwNumVertices, MYFVF_UNCOLOREDVERTEX, &vMin, &vMax );

  0007a	8d 45 c4	 lea	 eax, DWORD PTR _vMax$[ebp]
  0007d	50		 push	 eax
  0007e	8d 4d d8	 lea	 ecx, DWORD PTR _vMin$[ebp]
  00081	51		 push	 ecx
  00082	68 12 01 00 00	 push	 274			; 00000112H
  00087	8b 55 f8	 mov	 edx, DWORD PTR _this$[ebp]
  0008a	8b 02		 mov	 eax, DWORD PTR [edx]
  0008c	8b 88 20 01 00
	00		 mov	 ecx, DWORD PTR [eax+288]
  00092	51		 push	 ecx
  00093	8b 55 a4	 mov	 edx, DWORD PTR _pVerts$[ebp]
  00096	52		 push	 edx
  00097	e8 00 00 00 00	 call	 _D3DXComputeBoundingBox@20
  0009c	89 45 ec	 mov	 DWORD PTR _hr$[ebp], eax

; 305  : 		assert( !FAILED(hr) );

  0009f	83 7d ec 00	 cmp	 DWORD PTR _hr$[ebp], 0
  000a3	7d 1b		 jge	 SHORT $L85683
  000a5	a1 00 00 00 00	 mov	 eax, DWORD PTR ?__LINE__Var@?1??MakeBoundingBoxAndSphere@CFileRenderObject@@QAEJPAUIDirect3D8@@PAUIDirect3DDevice8@@PAUID3DXMesh@@@Z@4JA
  000aa	83 c0 0b	 add	 eax, 11			; 0000000bH
  000ad	50		 push	 eax
  000ae	68 00 00 00 00	 push	 OFFSET FLAT:??_C@_0FD@HMECEKLE@c?3?2documents?5and?5settings?2dom?2my@
  000b3	68 00 00 00 00	 push	 OFFSET FLAT:??_C@_0M@NKNCPJJD@?$CBFAILED?$CIhr?$CJ?$AA@
  000b8	e8 00 00 00 00	 call	 __assert
  000bd	83 c4 0c	 add	 esp, 12			; 0000000cH
$L85683:

; 306  : 
; 307  : 	// may have to walk through the vertices and move them so that
; 308  : 	// the mesh is centered at 0,0,0.
; 309  : 		vCenter.x = (vMax.x - vMin.x) / 2.0f + vMin.x ;

  000c0	d9 45 c4	 fld	 DWORD PTR _vMax$[ebp]
  000c3	d8 65 d8	 fsub	 DWORD PTR _vMin$[ebp]
  000c6	d8 35 00 00 00
	00		 fdiv	 DWORD PTR __real@40000000
  000cc	d8 45 d8	 fadd	 DWORD PTR _vMin$[ebp]
  000cf	d9 5d b0	 fstp	 DWORD PTR _vCenter$[ebp]

; 310  : 		vCenter.y = (vMax.y - vMin.y) / 2.0f + vMin.y ;

  000d2	d9 45 c8	 fld	 DWORD PTR _vMax$[ebp+4]
  000d5	d8 65 dc	 fsub	 DWORD PTR _vMin$[ebp+4]
  000d8	d8 35 00 00 00
	00		 fdiv	 DWORD PTR __real@40000000
  000de	d8 45 dc	 fadd	 DWORD PTR _vMin$[ebp+4]
  000e1	d9 5d b4	 fstp	 DWORD PTR _vCenter$[ebp+4]

; 311  : 		vCenter.z = (vMax.z - vMin.z) / 2.0f + vMin.z ;

  000e4	d9 45 cc	 fld	 DWORD PTR _vMax$[ebp+8]
  000e7	d8 65 e0	 fsub	 DWORD PTR _vMin$[ebp+8]
  000ea	d8 35 00 00 00
	00		 fdiv	 DWORD PTR __real@40000000
  000f0	d8 45 e0	 fadd	 DWORD PTR _vMin$[ebp+8]
  000f3	d9 5d b8	 fstp	 DWORD PTR _vCenter$[ebp+8]

; 312  : 		if( vCenter.x != 0.0f || vCenter.y != 0.0f || vCenter.z != 0.0f ) 

  000f6	d9 45 b0	 fld	 DWORD PTR _vCenter$[ebp]
  000f9	d8 1d 00 00 00
	00		 fcomp	 DWORD PTR __real@00000000
  000ff	df e0		 fnstsw	 ax
  00101	f6 c4 44	 test	 ah, 68			; 00000044H
  00104	7a 24		 jp	 SHORT $L85437
  00106	d9 45 b4	 fld	 DWORD PTR _vCenter$[ebp+4]
  00109	d8 1d 00 00 00
	00		 fcomp	 DWORD PTR __real@00000000
  0010f	df e0		 fnstsw	 ax
  00111	f6 c4 44	 test	 ah, 68			; 00000044H
  00114	7a 14		 jp	 SHORT $L85437
  00116	d9 45 b8	 fld	 DWORD PTR _vCenter$[ebp+8]
  00119	d8 1d 00 00 00
	00		 fcomp	 DWORD PTR __real@00000000
  0011f	df e0		 fnstsw	 ax
  00121	f6 c4 44	 test	 ah, 68			; 00000044H
  00124	0f 8b 1c 01 00
	00		 jnp	 $L85436
$L85437:

; 313  : 		{
; 314  : 			UNCOLOREDVERTEX* pV = (UNCOLOREDVERTEX*)pVerts ;

  0012a	8b 45 a4	 mov	 eax, DWORD PTR _pVerts$[ebp]
  0012d	89 45 98	 mov	 DWORD PTR _pV$85438[ebp], eax

; 315  : 			for( DWORD v=0 ; v < m_pRenderData->m_dwNumVertices ; v++ )

  00130	c7 45 8c 00 00
	00 00		 mov	 DWORD PTR _v$85440[ebp], 0
  00137	eb 09		 jmp	 SHORT $L85441
$L85442:
  00139	8b 45 8c	 mov	 eax, DWORD PTR _v$85440[ebp]
  0013c	83 c0 01	 add	 eax, 1
  0013f	89 45 8c	 mov	 DWORD PTR _v$85440[ebp], eax
$L85441:
  00142	8b 45 f8	 mov	 eax, DWORD PTR _this$[ebp]
  00145	8b 08		 mov	 ecx, DWORD PTR [eax]
  00147	8b 55 8c	 mov	 edx, DWORD PTR _v$85440[ebp]
  0014a	3b 91 20 01 00
	00		 cmp	 edx, DWORD PTR [ecx+288]
  00150	73 36		 jae	 SHORT $L85443

; 316  : 			{
; 317  : 				pV->x -= vCenter.x ;

  00152	8b 45 98	 mov	 eax, DWORD PTR _pV$85438[ebp]
  00155	d9 00		 fld	 DWORD PTR [eax]
  00157	d8 65 b0	 fsub	 DWORD PTR _vCenter$[ebp]
  0015a	8b 4d 98	 mov	 ecx, DWORD PTR _pV$85438[ebp]
  0015d	d9 19		 fstp	 DWORD PTR [ecx]

; 318  : 				pV->y -= vCenter.y ;

  0015f	8b 45 98	 mov	 eax, DWORD PTR _pV$85438[ebp]
  00162	d9 40 04	 fld	 DWORD PTR [eax+4]
  00165	d8 65 b4	 fsub	 DWORD PTR _vCenter$[ebp+4]
  00168	8b 4d 98	 mov	 ecx, DWORD PTR _pV$85438[ebp]
  0016b	d9 59 04	 fstp	 DWORD PTR [ecx+4]

; 319  : 				pV->z -= vCenter.z ;

  0016e	8b 45 98	 mov	 eax, DWORD PTR _pV$85438[ebp]
  00171	d9 40 08	 fld	 DWORD PTR [eax+8]
  00174	d8 65 b8	 fsub	 DWORD PTR _vCenter$[ebp+8]
  00177	8b 4d 98	 mov	 ecx, DWORD PTR _pV$85438[ebp]
  0017a	d9 59 08	 fstp	 DWORD PTR [ecx+8]

; 320  : 				pV++ ;

  0017d	8b 45 98	 mov	 eax, DWORD PTR _pV$85438[ebp]
  00180	83 c0 20	 add	 eax, 32			; 00000020H
  00183	89 45 98	 mov	 DWORD PTR _pV$85438[ebp], eax

; 321  : 			}

  00186	eb b1		 jmp	 SHORT $L85442
$L85443:

; 322  : 		// commit changes, and recompute bounding volume
; 323  : 			hr = pReadableMesh->UnlockVertexBuffer() ;

  00188	8b 45 10	 mov	 eax, DWORD PTR _pReadableMesh$[ebp]
  0018b	8b 08		 mov	 ecx, DWORD PTR [eax]
  0018d	8b f4		 mov	 esi, esp
  0018f	8b 55 10	 mov	 edx, DWORD PTR _pReadableMesh$[ebp]
  00192	52		 push	 edx
  00193	ff 51 3c	 call	 DWORD PTR [ecx+60]
  00196	3b f4		 cmp	 esi, esp
  00198	e8 00 00 00 00	 call	 __RTC_CheckEsp
  0019d	89 45 ec	 mov	 DWORD PTR _hr$[ebp], eax

; 324  : 			assert( !FAILED(hr) );

  001a0	83 7d ec 00	 cmp	 DWORD PTR _hr$[ebp], 0
  001a4	7d 1b		 jge	 SHORT $L85684
  001a6	a1 00 00 00 00	 mov	 eax, DWORD PTR ?__LINE__Var@?1??MakeBoundingBoxAndSphere@CFileRenderObject@@QAEJPAUIDirect3D8@@PAUIDirect3DDevice8@@PAUID3DXMesh@@@Z@4JA
  001ab	83 c0 1e	 add	 eax, 30			; 0000001eH
  001ae	50		 push	 eax
  001af	68 00 00 00 00	 push	 OFFSET FLAT:??_C@_0FD@HMECEKLE@c?3?2documents?5and?5settings?2dom?2my@
  001b4	68 00 00 00 00	 push	 OFFSET FLAT:??_C@_0M@NKNCPJJD@?$CBFAILED?$CIhr?$CJ?$AA@
  001b9	e8 00 00 00 00	 call	 __assert
  001be	83 c4 0c	 add	 esp, 12			; 0000000cH
$L85684:

; 325  : 			hr = pReadableMesh->LockVertexBuffer( 0, &pVerts );

  001c1	8b f4		 mov	 esi, esp
  001c3	8d 45 a4	 lea	 eax, DWORD PTR _pVerts$[ebp]
  001c6	50		 push	 eax
  001c7	6a 00		 push	 0
  001c9	8b 4d 10	 mov	 ecx, DWORD PTR _pReadableMesh$[ebp]
  001cc	8b 11		 mov	 edx, DWORD PTR [ecx]
  001ce	8b 45 10	 mov	 eax, DWORD PTR _pReadableMesh$[ebp]
  001d1	50		 push	 eax
  001d2	ff 52 38	 call	 DWORD PTR [edx+56]
  001d5	3b f4		 cmp	 esi, esp
  001d7	e8 00 00 00 00	 call	 __RTC_CheckEsp
  001dc	89 45 ec	 mov	 DWORD PTR _hr$[ebp], eax

; 326  : 			assert( hr==D3D_OK );

  001df	83 7d ec 00	 cmp	 DWORD PTR _hr$[ebp], 0
  001e3	74 1b		 je	 SHORT $L85685
  001e5	a1 00 00 00 00	 mov	 eax, DWORD PTR ?__LINE__Var@?1??MakeBoundingBoxAndSphere@CFileRenderObject@@QAEJPAUIDirect3D8@@PAUIDirect3DDevice8@@PAUID3DXMesh@@@Z@4JA
  001ea	83 c0 20	 add	 eax, 32			; 00000020H
  001ed	50		 push	 eax
  001ee	68 00 00 00 00	 push	 OFFSET FLAT:??_C@_0FD@HMECEKLE@c?3?2documents?5and?5settings?2dom?2my@
  001f3	68 00 00 00 00	 push	 OFFSET FLAT:??_C@_0L@CJJJJEMF@hr?$DN?$DND3D_OK?$AA@
  001f8	e8 00 00 00 00	 call	 __assert
  001fd	83 c4 0c	 add	 esp, 12			; 0000000cH
$L85685:

; 327  : 			hr = D3DXComputeBoundingBox( pVerts, m_pRenderData->m_dwNumVertices, MYFVF_UNCOLOREDVERTEX, &vMin, &vMax );

  00200	8d 45 c4	 lea	 eax, DWORD PTR _vMax$[ebp]
  00203	50		 push	 eax
  00204	8d 4d d8	 lea	 ecx, DWORD PTR _vMin$[ebp]
  00207	51		 push	 ecx
  00208	68 12 01 00 00	 push	 274			; 00000112H
  0020d	8b 55 f8	 mov	 edx, DWORD PTR _this$[ebp]
  00210	8b 02		 mov	 eax, DWORD PTR [edx]
  00212	8b 88 20 01 00
	00		 mov	 ecx, DWORD PTR [eax+288]
  00218	51		 push	 ecx
  00219	8b 55 a4	 mov	 edx, DWORD PTR _pVerts$[ebp]
  0021c	52		 push	 edx
  0021d	e8 00 00 00 00	 call	 _D3DXComputeBoundingBox@20
  00222	89 45 ec	 mov	 DWORD PTR _hr$[ebp], eax

; 328  : 			assert( !FAILED(hr) );

  00225	83 7d ec 00	 cmp	 DWORD PTR _hr$[ebp], 0
  00229	7d 1b		 jge	 SHORT $L85436
  0022b	a1 00 00 00 00	 mov	 eax, DWORD PTR ?__LINE__Var@?1??MakeBoundingBoxAndSphere@CFileRenderObject@@QAEJPAUIDirect3D8@@PAUIDirect3DDevice8@@PAUID3DXMesh@@@Z@4JA
  00230	83 c0 22	 add	 eax, 34			; 00000022H
  00233	50		 push	 eax
  00234	68 00 00 00 00	 push	 OFFSET FLAT:??_C@_0FD@HMECEKLE@c?3?2documents?5and?5settings?2dom?2my@
  00239	68 00 00 00 00	 push	 OFFSET FLAT:??_C@_0M@NKNCPJJD@?$CBFAILED?$CIhr?$CJ?$AA@
  0023e	e8 00 00 00 00	 call	 __assert
  00243	83 c4 0c	 add	 esp, 12			; 0000000cH
$L85436:

; 329  : 		}
; 330  : 
; 331  : 	// get bounding sphere radius
; 332  : 	// NOTE: vCenter returned here is *completely different* to center computed by bbox class!
; 333  : 		hr = D3DXComputeBoundingSphere( pVerts,
; 334  : 									    m_pRenderData->m_dwNumVertices,
; 335  : 										MYFVF_UNCOLOREDVERTEX,
; 336  : 										&vCenter,
; 337  : 										&m_pRenderData->m_fInitialBSphereRadius );

  00246	8b 45 f8	 mov	 eax, DWORD PTR _this$[ebp]
  00249	8b 08		 mov	 ecx, DWORD PTR [eax]
  0024b	81 c1 34 01 00
	00		 add	 ecx, 308		; 00000134H
  00251	51		 push	 ecx
  00252	8d 55 b0	 lea	 edx, DWORD PTR _vCenter$[ebp]
  00255	52		 push	 edx
  00256	68 12 01 00 00	 push	 274			; 00000112H
  0025b	8b 45 f8	 mov	 eax, DWORD PTR _this$[ebp]
  0025e	8b 08		 mov	 ecx, DWORD PTR [eax]
  00260	8b 91 20 01 00
	00		 mov	 edx, DWORD PTR [ecx+288]
  00266	52		 push	 edx
  00267	8b 45 a4	 mov	 eax, DWORD PTR _pVerts$[ebp]
  0026a	50		 push	 eax
  0026b	e8 00 00 00 00	 call	 _D3DXComputeBoundingSphere@20
  00270	89 45 ec	 mov	 DWORD PTR _hr$[ebp], eax

; 338  : 		assert( !FAILED(hr) );

  00273	83 7d ec 00	 cmp	 DWORD PTR _hr$[ebp], 0
  00277	7d 1b		 jge	 SHORT $L85687
  00279	a1 00 00 00 00	 mov	 eax, DWORD PTR ?__LINE__Var@?1??MakeBoundingBoxAndSphere@CFileRenderObject@@QAEJPAUIDirect3D8@@PAUIDirect3DDevice8@@PAUID3DXMesh@@@Z@4JA
  0027e	83 c0 2c	 add	 eax, 44			; 0000002cH
  00281	50		 push	 eax
  00282	68 00 00 00 00	 push	 OFFSET FLAT:??_C@_0FD@HMECEKLE@c?3?2documents?5and?5settings?2dom?2my@
  00287	68 00 00 00 00	 push	 OFFSET FLAT:??_C@_0M@NKNCPJJD@?$CBFAILED?$CIhr?$CJ?$AA@
  0028c	e8 00 00 00 00	 call	 __assert
  00291	83 c4 0c	 add	 esp, 12			; 0000000cH
$L85687:

; 339  : 		m_pRenderData->m_fBSphereRadius = m_pRenderData->m_fInitialBSphereRadius ;

  00294	8b 45 f8	 mov	 eax, DWORD PTR _this$[ebp]
  00297	8b 08		 mov	 ecx, DWORD PTR [eax]
  00299	8b 55 f8	 mov	 edx, DWORD PTR _this$[ebp]
  0029c	8b 02		 mov	 eax, DWORD PTR [edx]
  0029e	8b 89 34 01 00
	00		 mov	 ecx, DWORD PTR [ecx+308]
  002a4	89 88 38 01 00
	00		 mov	 DWORD PTR [eax+312], ecx

; 340  : 
; 341  : 	// save bbox data;
; 342  : 		m_pRenderData->m_vInitialMin = vMin ;

  002aa	8b 45 f8	 mov	 eax, DWORD PTR _this$[ebp]
  002ad	8b 08		 mov	 ecx, DWORD PTR [eax]
  002af	81 c1 3c 01 00
	00		 add	 ecx, 316		; 0000013cH
  002b5	8b 55 d8	 mov	 edx, DWORD PTR _vMin$[ebp]
  002b8	89 11		 mov	 DWORD PTR [ecx], edx
  002ba	8b 45 dc	 mov	 eax, DWORD PTR _vMin$[ebp+4]
  002bd	89 41 04	 mov	 DWORD PTR [ecx+4], eax
  002c0	8b 55 e0	 mov	 edx, DWORD PTR _vMin$[ebp+8]
  002c3	89 51 08	 mov	 DWORD PTR [ecx+8], edx

; 343  : 		m_pRenderData->m_vInitialMax = vMax ;

  002c6	8b 45 f8	 mov	 eax, DWORD PTR _this$[ebp]
  002c9	8b 08		 mov	 ecx, DWORD PTR [eax]
  002cb	81 c1 48 01 00
	00		 add	 ecx, 328		; 00000148H
  002d1	8b 55 c4	 mov	 edx, DWORD PTR _vMax$[ebp]
  002d4	89 11		 mov	 DWORD PTR [ecx], edx
  002d6	8b 45 c8	 mov	 eax, DWORD PTR _vMax$[ebp+4]
  002d9	89 41 04	 mov	 DWORD PTR [ecx+4], eax
  002dc	8b 55 cc	 mov	 edx, DWORD PTR _vMax$[ebp+8]
  002df	89 51 08	 mov	 DWORD PTR [ecx+8], edx

; 344  : 
; 345  : 	// unlock VB
; 346  : 		pReadableMesh->UnlockVertexBuffer() ;

  002e2	8b 45 10	 mov	 eax, DWORD PTR _pReadableMesh$[ebp]
  002e5	8b 08		 mov	 ecx, DWORD PTR [eax]
  002e7	8b f4		 mov	 esi, esp
  002e9	8b 55 10	 mov	 edx, DWORD PTR _pReadableMesh$[ebp]
  002ec	52		 push	 edx
  002ed	ff 51 3c	 call	 DWORD PTR [ecx+60]
  002f0	3b f4		 cmp	 esi, esp
  002f2	e8 00 00 00 00	 call	 __RTC_CheckEsp

; 347  : 
; 348  : 		return S_OK ;

  002f7	33 c0		 xor	 eax, eax

; 349  : 	}

  002f9	52		 push	 edx
  002fa	8b cd		 mov	 ecx, ebp
  002fc	50		 push	 eax
  002fd	8d 15 00 00 00
	00		 lea	 edx, DWORD PTR $L85695
  00303	e8 00 00 00 00	 call	 @_RTC_CheckStackVars@8
  00308	58		 pop	 eax
  00309	5a		 pop	 edx
  0030a	5f		 pop	 edi
  0030b	5e		 pop	 esi
  0030c	5b		 pop	 ebx
  0030d	81 c4 38 01 00
	00		 add	 esp, 312		; 00000138H
  00313	3b ec		 cmp	 ebp, esp
  00315	e8 00 00 00 00	 call	 __RTC_CheckEsp
  0031a	8b e5		 mov	 esp, ebp
  0031c	5d		 pop	 ebp
  0031d	c2 0c 00	 ret	 12			; 0000000cH
$L85695:
  00320	04 00 00 00	 DD	 4
  00324	00 00 00 00	 DD	 $L85694
$L85694:
  00328	d8 ff ff ff	 DD	 -40			; ffffffd8H
  0032c	0c 00 00 00	 DD	 12			; 0000000cH
  00330	00 00 00 00	 DD	 $L85690
  00334	c4 ff ff ff	 DD	 -60			; ffffffc4H
  00338	0c 00 00 00	 DD	 12			; 0000000cH
  0033c	00 00 00 00	 DD	 $L85691
  00340	b0 ff ff ff	 DD	 -80			; ffffffb0H
  00344	0c 00 00 00	 DD	 12			; 0000000cH
  00348	00 00 00 00	 DD	 $L85692
  0034c	a4 ff ff ff	 DD	 -92			; ffffffa4H
  00350	04 00 00 00	 DD	 4
  00354	00 00 00 00	 DD	 $L85693
$L85693:
  00358	70		 DB	 112			; 00000070H
  00359	56		 DB	 86			; 00000056H
  0035a	65		 DB	 101			; 00000065H
  0035b	72		 DB	 114			; 00000072H
  0035c	74		 DB	 116			; 00000074H
  0035d	73		 DB	 115			; 00000073H
  0035e	00		 DB	 0
$L85692:
  0035f	76		 DB	 118			; 00000076H
  00360	43		 DB	 67			; 00000043H
  00361	65		 DB	 101			; 00000065H
  00362	6e		 DB	 110			; 0000006eH
  00363	74		 DB	 116			; 00000074H
  00364	65		 DB	 101			; 00000065H
  00365	72		 DB	 114			; 00000072H
  00366	00		 DB	 0
$L85691:
  00367	76		 DB	 118			; 00000076H
  00368	4d		 DB	 77			; 0000004dH
  00369	61		 DB	 97			; 00000061H
  0036a	78		 DB	 120			; 00000078H
  0036b	00		 DB	 0
$L85690:
  0036c	76		 DB	 118			; 00000076H
  0036d	4d		 DB	 77			; 0000004dH
  0036e	69		 DB	 105			; 00000069H
  0036f	6e		 DB	 110			; 0000006eH
  00370	00		 DB	 0
?MakeBoundingBoxAndSphere@CFileRenderObject@@QAEJPAUIDirect3D8@@PAUIDirect3DDevice8@@PAUID3DXMesh@@@Z ENDP ; CFileRenderObject::MakeBoundingBoxAndSphere
_TEXT	ENDS
PUBLIC	?WorldSetMatrix@CFileRenderObject@@QAEXPAUD3DXMATRIX@@M@Z ; CFileRenderObject::WorldSetMatrix
PUBLIC	?D3DXMatrixIdentity@@YAPAUD3DXMATRIX@@PAU1@@Z	; D3DXMatrixIdentity
EXTRN	?ApplyMatrixFromInitialValues@CBoundingBox@@QAEXPAUD3DXMATRIX@@@Z:NEAR ; CBoundingBox::ApplyMatrixFromInitialValues
EXTRN	_D3DXMatrixMultiply@12:NEAR
; Function compile flags: /Odt /RTCsu /ZI
;	COMDAT ?WorldSetMatrix@CFileRenderObject@@QAEXPAUD3DXMATRIX@@M@Z
_TEXT	SEGMENT
_this$ = -8
_m$ = 8
_fScale$ = 12
?WorldSetMatrix@CFileRenderObject@@QAEXPAUD3DXMATRIX@@M@Z PROC NEAR ; CFileRenderObject::WorldSetMatrix, COMDAT
; _this$ = ecx

; 446  : 	{

  00000	55		 push	 ebp
  00001	8b ec		 mov	 ebp, esp
  00003	81 ec cc 00 00
	00		 sub	 esp, 204		; 000000ccH
  00009	53		 push	 ebx
  0000a	56		 push	 esi
  0000b	57		 push	 edi
  0000c	51		 push	 ecx
  0000d	8d bd 34 ff ff
	ff		 lea	 edi, DWORD PTR [ebp-204]
  00013	b9 33 00 00 00	 mov	 ecx, 51			; 00000033H
  00018	b8 cc cc cc cc	 mov	 eax, -858993460		; ccccccccH
  0001d	f3 ab		 rep stosd
  0001f	59		 pop	 ecx
  00020	89 4d f8	 mov	 DWORD PTR _this$[ebp], ecx

; 447  : 	// apply scaling to bounding sphere radius
; 448  : 		m_pRenderData->m_fBSphereRadius = m_pRenderData->m_fInitialBSphereRadius * fScale ;

  00023	8b 45 f8	 mov	 eax, DWORD PTR _this$[ebp]
  00026	8b 08		 mov	 ecx, DWORD PTR [eax]
  00028	d9 45 0c	 fld	 DWORD PTR _fScale$[ebp]
  0002b	d8 89 34 01 00
	00		 fmul	 DWORD PTR [ecx+308]
  00031	8b 55 f8	 mov	 edx, DWORD PTR _this$[ebp]
  00034	8b 02		 mov	 eax, DWORD PTR [edx]
  00036	d9 98 38 01 00
	00		 fstp	 DWORD PTR [eax+312]

; 449  : 
; 450  : 	// apply full matrix to the object's bounding box
; 451  : 		m_pBBox->ApplyMatrixFromInitialValues(m) ;

  0003c	8b 45 08	 mov	 eax, DWORD PTR _m$[ebp]
  0003f	50		 push	 eax
  00040	8b 4d f8	 mov	 ecx, DWORD PTR _this$[ebp]
  00043	8b 49 08	 mov	 ecx, DWORD PTR [ecx+8]
  00046	e8 00 00 00 00	 call	 ?ApplyMatrixFromInitialValues@CBoundingBox@@QAEXPAUD3DXMATRIX@@@Z ; CBoundingBox::ApplyMatrixFromInitialValues

; 452  : 
; 453  : 	// apply full matrix to object's world matrix
; 454  : 		D3DXMatrixIdentity(&m_matWorld) ;

  0004b	8b 45 f8	 mov	 eax, DWORD PTR _this$[ebp]
  0004e	83 c0 4c	 add	 eax, 76			; 0000004cH
  00051	50		 push	 eax
  00052	e8 00 00 00 00	 call	 ?D3DXMatrixIdentity@@YAPAUD3DXMATRIX@@PAU1@@Z ; D3DXMatrixIdentity
  00057	83 c4 04	 add	 esp, 4

; 455  : 		D3DXMatrixMultiply(&m_matWorld, &m_matWorld, m) ;

  0005a	8b 45 08	 mov	 eax, DWORD PTR _m$[ebp]
  0005d	50		 push	 eax
  0005e	8b 4d f8	 mov	 ecx, DWORD PTR _this$[ebp]
  00061	83 c1 4c	 add	 ecx, 76			; 0000004cH
  00064	51		 push	 ecx
  00065	8b 55 f8	 mov	 edx, DWORD PTR _this$[ebp]
  00068	83 c2 4c	 add	 edx, 76			; 0000004cH
  0006b	52		 push	 edx
  0006c	e8 00 00 00 00	 call	 _D3DXMatrixMultiply@12

; 456  : 	}

  00071	5f		 pop	 edi
  00072	5e		 pop	 esi
  00073	5b		 pop	 ebx
  00074	81 c4 cc 00 00
	00		 add	 esp, 204		; 000000ccH
  0007a	3b ec		 cmp	 ebp, esp
  0007c	e8 00 00 00 00	 call	 __RTC_CheckEsp
  00081	8b e5		 mov	 esp, ebp
  00083	5d		 pop	 ebp
  00084	c2 08 00	 ret	 8
?WorldSetMatrix@CFileRenderObject@@QAEXPAUD3DXMATRIX@@M@Z ENDP ; CFileRenderObject::WorldSetMatrix
_TEXT	ENDS
PUBLIC	?WorldSetMatrixIncremental@CFileRenderObject@@QAEXPAUD3DXMATRIX@@00M@Z ; CFileRenderObject::WorldSetMatrixIncremental
; Function compile flags: /Odt /RTCsu /ZI
;	COMDAT ?WorldSetMatrixIncremental@CFileRenderObject@@QAEXPAUD3DXMATRIX@@00M@Z
_TEXT	SEGMENT
_this$ = -8
_pmatFull$ = 8
_pmatTransDeltaInc$ = 12
_pmatRotAboutCenter$ = 16
_fScale$ = 20
?WorldSetMatrixIncremental@CFileRenderObject@@QAEXPAUD3DXMATRIX@@00M@Z PROC NEAR ; CFileRenderObject::WorldSetMatrixIncremental, COMDAT
; _this$ = ecx

; 462  : 	{

  00000	55		 push	 ebp
  00001	8b ec		 mov	 ebp, esp
  00003	81 ec cc 00 00
	00		 sub	 esp, 204		; 000000ccH
  00009	53		 push	 ebx
  0000a	56		 push	 esi
  0000b	57		 push	 edi
  0000c	51		 push	 ecx
  0000d	8d bd 34 ff ff
	ff		 lea	 edi, DWORD PTR [ebp-204]
  00013	b9 33 00 00 00	 mov	 ecx, 51			; 00000033H
  00018	b8 cc cc cc cc	 mov	 eax, -858993460		; ccccccccH
  0001d	f3 ab		 rep stosd
  0001f	59		 pop	 ecx
  00020	89 4d f8	 mov	 DWORD PTR _this$[ebp], ecx

; 463  : 
; 464  : 	// apply full matrix to the object's bounding box
; 465  : 		m_pBBox->ApplyMatrixFromInitialValues(pmatFull) ;

  00023	8b 45 08	 mov	 eax, DWORD PTR _pmatFull$[ebp]
  00026	50		 push	 eax
  00027	8b 4d f8	 mov	 ecx, DWORD PTR _this$[ebp]
  0002a	8b 49 08	 mov	 ecx, DWORD PTR [ecx+8]
  0002d	e8 00 00 00 00	 call	 ?ApplyMatrixFromInitialValues@CBoundingBox@@QAEXPAUD3DXMATRIX@@@Z ; CBoundingBox::ApplyMatrixFromInitialValues

; 466  : 
; 467  : 	// apply incremental *translation* matrix to object's world matrix
; 468  : 		D3DXMatrixMultiply(&m_matWorld, &m_matWorld, pmatTransDeltaInc) ;

  00032	8b 45 0c	 mov	 eax, DWORD PTR _pmatTransDeltaInc$[ebp]
  00035	50		 push	 eax
  00036	8b 4d f8	 mov	 ecx, DWORD PTR _this$[ebp]
  00039	83 c1 4c	 add	 ecx, 76			; 0000004cH
  0003c	51		 push	 ecx
  0003d	8b 55 f8	 mov	 edx, DWORD PTR _this$[ebp]
  00040	83 c2 4c	 add	 edx, 76			; 0000004cH
  00043	52		 push	 edx
  00044	e8 00 00 00 00	 call	 _D3DXMatrixMultiply@12

; 469  : 
; 470  : 	// save rotation matrix for render-time
; 471  : 		m_matRot = *pmatRotAboutCenter ;

  00049	8b 75 10	 mov	 esi, DWORD PTR _pmatRotAboutCenter$[ebp]
  0004c	8b 7d f8	 mov	 edi, DWORD PTR _this$[ebp]
  0004f	83 c7 0c	 add	 edi, 12			; 0000000cH
  00052	b9 10 00 00 00	 mov	 ecx, 16			; 00000010H
  00057	f3 a5		 rep movsd

; 472  : 	}

  00059	5f		 pop	 edi
  0005a	5e		 pop	 esi
  0005b	5b		 pop	 ebx
  0005c	81 c4 cc 00 00
	00		 add	 esp, 204		; 000000ccH
  00062	3b ec		 cmp	 ebp, esp
  00064	e8 00 00 00 00	 call	 __RTC_CheckEsp
  00069	8b e5		 mov	 esp, ebp
  0006b	5d		 pop	 ebp
  0006c	c2 10 00	 ret	 16			; 00000010H
?WorldSetMatrixIncremental@CFileRenderObject@@QAEXPAUD3DXMATRIX@@00M@Z ENDP ; CFileRenderObject::WorldSetMatrixIncremental
_TEXT	ENDS
PUBLIC	?RestoreDeviceObjects@CFileRenderObject@@QAEJPAUIDirect3D8@@PAUIDirect3DDevice8@@@Z ; CFileRenderObject::RestoreDeviceObjects
PUBLIC	??_C@_0CJ@DLIJLDBA@CFileRenderObject?3?3RestoreDevice@ ; `string'
PUBLIC	?__LINE__Var@?1??RestoreDeviceObjects@CFileRenderObject@@QAEJPAUIDirect3D8@@PAUIDirect3DDevice8@@@Z@4JA ; `CFileRenderObject::RestoreDeviceObjects'::`2'::__LINE__Var
EXTRN	??0CBoundingBox@@QAE@PAUD3DXVECTOR3@@0@Z:NEAR	; CBoundingBox::CBoundingBox
EXTRN	?RestoreDeviceObjects@CBoundingBox@@QAEJPAUIDirect3DDevice8@@@Z:NEAR ; CBoundingBox::RestoreDeviceObjects
;	COMDAT ??_C@_0CJ@DLIJLDBA@CFileRenderObject?3?3RestoreDevice@
CONST	SEGMENT
??_C@_0CJ@DLIJLDBA@CFileRenderObject?3?3RestoreDevice@ DB 'CFileRenderObj'
	DB	'ect::RestoreDeviceObjects', 0aH, 00H	; `string'
CONST	ENDS
;	COMDAT ?__LINE__Var@?1??RestoreDeviceObjects@CFileRenderObject@@QAEJPAUIDirect3D8@@PAUIDirect3DDevice8@@@Z@4JA
_DATA	SEGMENT
?__LINE__Var@?1??RestoreDeviceObjects@CFileRenderObject@@QAEJPAUIDirect3D8@@PAUIDirect3DDevice8@@@Z@4JA DD 01e0H ; `CFileRenderObject::RestoreDeviceObjects'::`2'::__LINE__Var
; Function compile flags: /Odt /RTCsu /ZI
_DATA	ENDS
;	COMDAT ?RestoreDeviceObjects@CFileRenderObject@@QAEJPAUIDirect3D8@@PAUIDirect3DDevice8@@@Z
_TEXT	SEGMENT
tv87 = -232
$T85703 = -224
_hr$85472 = -20
_this$ = -8
_pD3D$ = 8
_pDev$ = 12
?RestoreDeviceObjects@CFileRenderObject@@QAEJPAUIDirect3D8@@PAUIDirect3DDevice8@@@Z PROC NEAR ; CFileRenderObject::RestoreDeviceObjects, COMDAT
; _this$ = ecx

; 480  : 	{

  00000	55		 push	 ebp
  00001	8b ec		 mov	 ebp, esp
  00003	81 ec e8 00 00
	00		 sub	 esp, 232		; 000000e8H
  00009	53		 push	 ebx
  0000a	56		 push	 esi
  0000b	57		 push	 edi
  0000c	51		 push	 ecx
  0000d	8d bd 18 ff ff
	ff		 lea	 edi, DWORD PTR [ebp-232]
  00013	b9 3a 00 00 00	 mov	 ecx, 58			; 0000003aH
  00018	b8 cc cc cc cc	 mov	 eax, -858993460		; ccccccccH
  0001d	f3 ab		 rep stosd
  0001f	59		 pop	 ecx
  00020	89 4d f8	 mov	 DWORD PTR _this$[ebp], ecx

; 481  : 		ods( "CFileRenderObject::RestoreDeviceObjects\n" );

  00023	68 00 00 00 00	 push	 OFFSET FLAT:??_C@_0CJ@DLIJLDBA@CFileRenderObject?3?3RestoreDevice@
  00028	e8 00 00 00 00	 call	 ?ods@@YAXPADZZ		; ods
  0002d	83 c4 04	 add	 esp, 4

; 482  : 
; 483  : 		if( m_bRenderDataIsMine )

  00030	8b 45 f8	 mov	 eax, DWORD PTR _this$[ebp]
  00033	83 78 04 00	 cmp	 DWORD PTR [eax+4], 0
  00037	74 34		 je	 SHORT $L85471

; 484  : 		{
; 485  : 			HRESULT hr = MakeRenderDataAndBoundingData( pD3D, pDev );

  00039	8b 45 0c	 mov	 eax, DWORD PTR _pDev$[ebp]
  0003c	50		 push	 eax
  0003d	8b 4d 08	 mov	 ecx, DWORD PTR _pD3D$[ebp]
  00040	51		 push	 ecx
  00041	8b 4d f8	 mov	 ecx, DWORD PTR _this$[ebp]
  00044	e8 00 00 00 00	 call	 ?MakeRenderDataAndBoundingData@CFileRenderObject@@QAEJPAUIDirect3D8@@PAUIDirect3DDevice8@@@Z ; CFileRenderObject::MakeRenderDataAndBoundingData
  00049	89 45 ec	 mov	 DWORD PTR _hr$85472[ebp], eax

; 486  : 			assert( !FAILED(hr) );

  0004c	83 7d ec 00	 cmp	 DWORD PTR _hr$85472[ebp], 0
  00050	7d 1b		 jge	 SHORT $L85471
  00052	a1 00 00 00 00	 mov	 eax, DWORD PTR ?__LINE__Var@?1??RestoreDeviceObjects@CFileRenderObject@@QAEJPAUIDirect3D8@@PAUIDirect3DDevice8@@@Z@4JA
  00057	83 c0 06	 add	 eax, 6
  0005a	50		 push	 eax
  0005b	68 00 00 00 00	 push	 OFFSET FLAT:??_C@_0FD@HMECEKLE@c?3?2documents?5and?5settings?2dom?2my@
  00060	68 00 00 00 00	 push	 OFFSET FLAT:??_C@_0M@NKNCPJJD@?$CBFAILED?$CIhr?$CJ?$AA@
  00065	e8 00 00 00 00	 call	 __assert
  0006a	83 c4 0c	 add	 esp, 12			; 0000000cH
$L85471:

; 487  : 		}
; 488  : 
; 489  : 	// initialise bounding box class
; 490  : 		m_pBBox = new CBoundingBox( &m_pRenderData->m_vInitialMin, &m_pRenderData->m_vInitialMax );

  0006d	68 d8 82 00 00	 push	 33496			; 000082d8H
  00072	e8 00 00 00 00	 call	 ??2@YAPAXI@Z		; operator new
  00077	83 c4 04	 add	 esp, 4
  0007a	89 85 20 ff ff
	ff		 mov	 DWORD PTR $T85703[ebp], eax
  00080	83 bd 20 ff ff
	ff 00		 cmp	 DWORD PTR $T85703[ebp], 0
  00087	74 2a		 je	 SHORT $L85704
  00089	8b 45 f8	 mov	 eax, DWORD PTR _this$[ebp]
  0008c	8b 08		 mov	 ecx, DWORD PTR [eax]
  0008e	81 c1 48 01 00
	00		 add	 ecx, 328		; 00000148H
  00094	51		 push	 ecx
  00095	8b 55 f8	 mov	 edx, DWORD PTR _this$[ebp]
  00098	8b 02		 mov	 eax, DWORD PTR [edx]
  0009a	05 3c 01 00 00	 add	 eax, 316		; 0000013cH
  0009f	50		 push	 eax
  000a0	8b 8d 20 ff ff
	ff		 mov	 ecx, DWORD PTR $T85703[ebp]
  000a6	e8 00 00 00 00	 call	 ??0CBoundingBox@@QAE@PAUD3DXVECTOR3@@0@Z ; CBoundingBox::CBoundingBox
  000ab	89 85 18 ff ff
	ff		 mov	 DWORD PTR tv87[ebp], eax
  000b1	eb 0a		 jmp	 SHORT $L85705
$L85704:
  000b3	c7 85 18 ff ff
	ff 00 00 00 00	 mov	 DWORD PTR tv87[ebp], 0
$L85705:
  000bd	8b 4d f8	 mov	 ecx, DWORD PTR _this$[ebp]
  000c0	8b 95 18 ff ff
	ff		 mov	 edx, DWORD PTR tv87[ebp]
  000c6	89 51 08	 mov	 DWORD PTR [ecx+8], edx

; 491  : 		m_pBBox->RestoreDeviceObjects( pDev );			// NOTE: in debug build this does nothing

  000c9	8b 45 0c	 mov	 eax, DWORD PTR _pDev$[ebp]
  000cc	50		 push	 eax
  000cd	8b 4d f8	 mov	 ecx, DWORD PTR _this$[ebp]
  000d0	8b 49 08	 mov	 ecx, DWORD PTR [ecx+8]
  000d3	e8 00 00 00 00	 call	 ?RestoreDeviceObjects@CBoundingBox@@QAEJPAUIDirect3DDevice8@@@Z ; CBoundingBox::RestoreDeviceObjects

; 492  : 
; 493  : 		return S_OK ;

  000d8	33 c0		 xor	 eax, eax

; 494  : 	}

  000da	5f		 pop	 edi
  000db	5e		 pop	 esi
  000dc	5b		 pop	 ebx
  000dd	81 c4 e8 00 00
	00		 add	 esp, 232		; 000000e8H
  000e3	3b ec		 cmp	 ebp, esp
  000e5	e8 00 00 00 00	 call	 __RTC_CheckEsp
  000ea	8b e5		 mov	 esp, ebp
  000ec	5d		 pop	 ebp
  000ed	c2 08 00	 ret	 8
?RestoreDeviceObjects@CFileRenderObject@@QAEJPAUIDirect3D8@@PAUIDirect3DDevice8@@@Z ENDP ; CFileRenderObject::RestoreDeviceObjects
_TEXT	ENDS
PUBLIC	??_GCBoundingBox@@QAEPAXI@Z			; CBoundingBox::`scalar deleting destructor'
PUBLIC	?InvalidateDeviceObjects@CFileRenderObject@@QAEJPAUIDirect3DDevice8@@@Z ; CFileRenderObject::InvalidateDeviceObjects
; Function compile flags: /Odt /RTCsu /ZI
;	COMDAT ?InvalidateDeviceObjects@CFileRenderObject@@QAEJPAUIDirect3DDevice8@@@Z
_TEXT	SEGMENT
tv141 = -256
$T85711 = -248
$T85710 = -236
$T85709 = -224
$T85708 = -212
_this$ = -8
_pDev$ = 8
?InvalidateDeviceObjects@CFileRenderObject@@QAEJPAUIDirect3DDevice8@@@Z PROC NEAR ; CFileRenderObject::InvalidateDeviceObjects, COMDAT
; _this$ = ecx

; 496  : 	{

  00000	55		 push	 ebp
  00001	8b ec		 mov	 ebp, esp
  00003	81 ec 00 01 00
	00		 sub	 esp, 256		; 00000100H
  00009	53		 push	 ebx
  0000a	56		 push	 esi
  0000b	57		 push	 edi
  0000c	51		 push	 ecx
  0000d	8d bd 00 ff ff
	ff		 lea	 edi, DWORD PTR [ebp-256]
  00013	b9 40 00 00 00	 mov	 ecx, 64			; 00000040H
  00018	b8 cc cc cc cc	 mov	 eax, -858993460		; ccccccccH
  0001d	f3 ab		 rep stosd
  0001f	59		 pop	 ecx
  00020	89 4d f8	 mov	 DWORD PTR _this$[ebp], ecx

; 497  : 		if( m_bRenderDataIsMine )

  00023	8b 45 f8	 mov	 eax, DWORD PTR _this$[ebp]
  00026	83 78 04 00	 cmp	 DWORD PTR [eax+4], 0
  0002a	0f 84 41 01 00
	00		 je	 $L85483

; 498  : 		{
; 499  : 			SAFE_RELEASE(m_pRenderData->m_pMesh)

  00030	8b 45 f8	 mov	 eax, DWORD PTR _this$[ebp]
  00033	8b 08		 mov	 ecx, DWORD PTR [eax]
  00035	83 b9 04 01 00
	00 00		 cmp	 DWORD PTR [ecx+260], 0
  0003c	74 34		 je	 SHORT $L85484
  0003e	8b 45 f8	 mov	 eax, DWORD PTR _this$[ebp]
  00041	8b 08		 mov	 ecx, DWORD PTR [eax]
  00043	8b 91 04 01 00
	00		 mov	 edx, DWORD PTR [ecx+260]
  00049	8b 45 f8	 mov	 eax, DWORD PTR _this$[ebp]
  0004c	8b 08		 mov	 ecx, DWORD PTR [eax]
  0004e	8b 81 04 01 00
	00		 mov	 eax, DWORD PTR [ecx+260]
  00054	8b 0a		 mov	 ecx, DWORD PTR [edx]
  00056	8b f4		 mov	 esi, esp
  00058	50		 push	 eax
  00059	ff 51 08	 call	 DWORD PTR [ecx+8]
  0005c	3b f4		 cmp	 esi, esp
  0005e	e8 00 00 00 00	 call	 __RTC_CheckEsp
  00063	8b 45 f8	 mov	 eax, DWORD PTR _this$[ebp]
  00066	8b 08		 mov	 ecx, DWORD PTR [eax]
  00068	c7 81 04 01 00
	00 00 00 00 00	 mov	 DWORD PTR [ecx+260], 0
$L85484:

; 500  : 			SAFE_RELEASE(m_pRenderData->m_pAdjacencyBuffer)

  00072	8b 45 f8	 mov	 eax, DWORD PTR _this$[ebp]
  00075	8b 08		 mov	 ecx, DWORD PTR [eax]
  00077	83 b9 30 01 00
	00 00		 cmp	 DWORD PTR [ecx+304], 0
  0007e	74 34		 je	 SHORT $L85485
  00080	8b 45 f8	 mov	 eax, DWORD PTR _this$[ebp]
  00083	8b 08		 mov	 ecx, DWORD PTR [eax]
  00085	8b 91 30 01 00
	00		 mov	 edx, DWORD PTR [ecx+304]
  0008b	8b 45 f8	 mov	 eax, DWORD PTR _this$[ebp]
  0008e	8b 08		 mov	 ecx, DWORD PTR [eax]
  00090	8b 81 30 01 00
	00		 mov	 eax, DWORD PTR [ecx+304]
  00096	8b 0a		 mov	 ecx, DWORD PTR [edx]
  00098	8b f4		 mov	 esi, esp
  0009a	50		 push	 eax
  0009b	ff 51 08	 call	 DWORD PTR [ecx+8]
  0009e	3b f4		 cmp	 esi, esp
  000a0	e8 00 00 00 00	 call	 __RTC_CheckEsp
  000a5	8b 45 f8	 mov	 eax, DWORD PTR _this$[ebp]
  000a8	8b 08		 mov	 ecx, DWORD PTR [eax]
  000aa	c7 81 30 01 00
	00 00 00 00 00	 mov	 DWORD PTR [ecx+304], 0
$L85485:

; 501  : 			SAFE_DELETE_ARRAY(m_pRenderData->m_mtrlMeshMaterials)

  000b4	8b 45 f8	 mov	 eax, DWORD PTR _this$[ebp]
  000b7	8b 08		 mov	 ecx, DWORD PTR [eax]
  000b9	83 b9 24 01 00
	00 00		 cmp	 DWORD PTR [ecx+292], 0
  000c0	74 2f		 je	 SHORT $L85486
  000c2	8b 45 f8	 mov	 eax, DWORD PTR _this$[ebp]
  000c5	8b 08		 mov	 ecx, DWORD PTR [eax]
  000c7	8b 91 24 01 00
	00		 mov	 edx, DWORD PTR [ecx+292]
  000cd	89 95 2c ff ff
	ff		 mov	 DWORD PTR $T85708[ebp], edx
  000d3	8b 85 2c ff ff
	ff		 mov	 eax, DWORD PTR $T85708[ebp]
  000d9	50		 push	 eax
  000da	e8 00 00 00 00	 call	 ??3@YAXPAX@Z		; operator delete
  000df	83 c4 04	 add	 esp, 4
  000e2	8b 45 f8	 mov	 eax, DWORD PTR _this$[ebp]
  000e5	8b 08		 mov	 ecx, DWORD PTR [eax]
  000e7	c7 81 24 01 00
	00 00 00 00 00	 mov	 DWORD PTR [ecx+292], 0
$L85486:

; 502  : 
; 503  : 			m_pRenderData->m_dwNumMaterials = 0 ;

  000f1	8b 45 f8	 mov	 eax, DWORD PTR _this$[ebp]
  000f4	8b 08		 mov	 ecx, DWORD PTR [eax]
  000f6	c7 81 28 01 00
	00 00 00 00 00	 mov	 DWORD PTR [ecx+296], 0

; 504  : 			m_pRenderData->m_dwNumVertices = 0 ;

  00100	8b 45 f8	 mov	 eax, DWORD PTR _this$[ebp]
  00103	8b 08		 mov	 ecx, DWORD PTR [eax]
  00105	c7 81 20 01 00
	00 00 00 00 00	 mov	 DWORD PTR [ecx+288], 0

; 505  : 			m_pRenderData->m_dwNumFaces = 0 ;

  0010f	8b 45 f8	 mov	 eax, DWORD PTR _this$[ebp]
  00112	8b 08		 mov	 ecx, DWORD PTR [eax]
  00114	c7 81 2c 01 00
	00 00 00 00 00	 mov	 DWORD PTR [ecx+300], 0

; 506  : 
; 507  : 	        delete[] m_pRenderData->m_pAttrTable ;

  0011e	8b 45 f8	 mov	 eax, DWORD PTR _this$[ebp]
  00121	8b 08		 mov	 ecx, DWORD PTR [eax]
  00123	8b 91 54 01 00
	00		 mov	 edx, DWORD PTR [ecx+340]
  00129	89 95 20 ff ff
	ff		 mov	 DWORD PTR $T85709[ebp], edx
  0012f	8b 85 20 ff ff
	ff		 mov	 eax, DWORD PTR $T85709[ebp]
  00135	50		 push	 eax
  00136	e8 00 00 00 00	 call	 ??3@YAXPAX@Z		; operator delete
  0013b	83 c4 04	 add	 esp, 4

; 508  : 			m_pRenderData->m_dwNumAttr = 0 ;

  0013e	8b 45 f8	 mov	 eax, DWORD PTR _this$[ebp]
  00141	8b 08		 mov	 ecx, DWORD PTR [eax]
  00143	c7 81 58 01 00
	00 00 00 00 00	 mov	 DWORD PTR [ecx+344], 0

; 509  : 
; 510  : 			pDev->DeleteVertexShader( m_pRenderData->m_dwShaderRipple );

  0014d	8b 45 f8	 mov	 eax, DWORD PTR _this$[ebp]
  00150	8b 08		 mov	 ecx, DWORD PTR [eax]
  00152	8b f4		 mov	 esi, esp
  00154	8b 91 5c 01 00
	00		 mov	 edx, DWORD PTR [ecx+348]
  0015a	52		 push	 edx
  0015b	8b 45 08	 mov	 eax, DWORD PTR _pDev$[ebp]
  0015e	8b 08		 mov	 ecx, DWORD PTR [eax]
  00160	8b 55 08	 mov	 edx, DWORD PTR _pDev$[ebp]
  00163	52		 push	 edx
  00164	ff 91 38 01 00
	00		 call	 DWORD PTR [ecx+312]
  0016a	3b f4		 cmp	 esi, esp
  0016c	e8 00 00 00 00	 call	 __RTC_CheckEsp
$L85483:

; 511  : 		}
; 512  : 
; 513  : 		SAFE_DELETE(m_pBBox)

  00171	8b 45 f8	 mov	 eax, DWORD PTR _this$[ebp]
  00174	83 78 08 00	 cmp	 DWORD PTR [eax+8], 0
  00178	74 4a		 je	 SHORT $L85489
  0017a	8b 45 f8	 mov	 eax, DWORD PTR _this$[ebp]
  0017d	8b 48 08	 mov	 ecx, DWORD PTR [eax+8]
  00180	89 8d 08 ff ff
	ff		 mov	 DWORD PTR $T85711[ebp], ecx
  00186	8b 95 08 ff ff
	ff		 mov	 edx, DWORD PTR $T85711[ebp]
  0018c	89 95 14 ff ff
	ff		 mov	 DWORD PTR $T85710[ebp], edx
  00192	83 bd 14 ff ff
	ff 00		 cmp	 DWORD PTR $T85710[ebp], 0
  00199	74 15		 je	 SHORT $L85712
  0019b	6a 01		 push	 1
  0019d	8b 8d 14 ff ff
	ff		 mov	 ecx, DWORD PTR $T85710[ebp]
  001a3	e8 00 00 00 00	 call	 ??_GCBoundingBox@@QAEPAXI@Z
  001a8	89 85 00 ff ff
	ff		 mov	 DWORD PTR tv141[ebp], eax
  001ae	eb 0a		 jmp	 SHORT $L85713
$L85712:
  001b0	c7 85 00 ff ff
	ff 00 00 00 00	 mov	 DWORD PTR tv141[ebp], 0
$L85713:
  001ba	8b 45 f8	 mov	 eax, DWORD PTR _this$[ebp]
  001bd	c7 40 08 00 00
	00 00		 mov	 DWORD PTR [eax+8], 0
$L85489:

; 514  : 		m_matWorld = g_matIdent ;

  001c4	8b 7d f8	 mov	 edi, DWORD PTR _this$[ebp]
  001c7	83 c7 4c	 add	 edi, 76			; 0000004cH
  001ca	b9 10 00 00 00	 mov	 ecx, 16			; 00000010H
  001cf	be 00 00 00 00	 mov	 esi, OFFSET FLAT:?g_matIdent@@3UD3DXMATRIX@@A ; g_matIdent
  001d4	f3 a5		 rep movsd

; 515  : 
; 516  : 		return S_OK ;

  001d6	33 c0		 xor	 eax, eax

; 517  : 	}

  001d8	5f		 pop	 edi
  001d9	5e		 pop	 esi
  001da	5b		 pop	 ebx
  001db	81 c4 00 01 00
	00		 add	 esp, 256		; 00000100H
  001e1	3b ec		 cmp	 ebp, esp
  001e3	e8 00 00 00 00	 call	 __RTC_CheckEsp
  001e8	8b e5		 mov	 esp, ebp
  001ea	5d		 pop	 ebp
  001eb	c2 04 00	 ret	 4
?InvalidateDeviceObjects@CFileRenderObject@@QAEJPAUIDirect3DDevice8@@@Z ENDP ; CFileRenderObject::InvalidateDeviceObjects
_TEXT	ENDS
EXTRN	??1CBoundingBox@@QAE@XZ:NEAR			; CBoundingBox::~CBoundingBox
; Function compile flags: /Odt /RTCsu /ZI
;	COMDAT ??_GCBoundingBox@@QAEPAXI@Z
_TEXT	SEGMENT
_this$ = -8
___flags$ = 8
??_GCBoundingBox@@QAEPAXI@Z PROC NEAR			; CBoundingBox::`scalar deleting destructor', COMDAT
; _this$ = ecx
  00000	55		 push	 ebp
  00001	8b ec		 mov	 ebp, esp
  00003	81 ec cc 00 00
	00		 sub	 esp, 204		; 000000ccH
  00009	53		 push	 ebx
  0000a	56		 push	 esi
  0000b	57		 push	 edi
  0000c	51		 push	 ecx
  0000d	8d bd 34 ff ff
	ff		 lea	 edi, DWORD PTR [ebp-204]
  00013	b9 33 00 00 00	 mov	 ecx, 51			; 00000033H
  00018	b8 cc cc cc cc	 mov	 eax, -858993460		; ccccccccH
  0001d	f3 ab		 rep stosd
  0001f	59		 pop	 ecx
  00020	89 4d f8	 mov	 DWORD PTR _this$[ebp], ecx
  00023	8b 4d f8	 mov	 ecx, DWORD PTR _this$[ebp]
  00026	e8 00 00 00 00	 call	 ??1CBoundingBox@@QAE@XZ	; CBoundingBox::~CBoundingBox
  0002b	8b 45 08	 mov	 eax, DWORD PTR ___flags$[ebp]
  0002e	83 e0 01	 and	 eax, 1
  00031	85 c0		 test	 eax, eax
  00033	74 0c		 je	 SHORT $L85496
  00035	8b 45 f8	 mov	 eax, DWORD PTR _this$[ebp]
  00038	50		 push	 eax
  00039	e8 00 00 00 00	 call	 ??3@YAXPAX@Z		; operator delete
  0003e	83 c4 04	 add	 esp, 4
$L85496:
  00041	8b 45 f8	 mov	 eax, DWORD PTR _this$[ebp]
  00044	5f		 pop	 edi
  00045	5e		 pop	 esi
  00046	5b		 pop	 ebx
  00047	81 c4 cc 00 00
	00		 add	 esp, 204		; 000000ccH
  0004d	3b ec		 cmp	 ebp, esp
  0004f	e8 00 00 00 00	 call	 __RTC_CheckEsp
  00054	8b e5		 mov	 esp, ebp
  00056	5d		 pop	 ebp
  00057	c2 04 00	 ret	 4
??_GCBoundingBox@@QAEPAXI@Z ENDP			; CBoundingBox::`scalar deleting destructor'
; Function compile flags: /Odt /RTCsu /ZI
; File c:\dxsdk\include\d3dx8math.h
_TEXT	ENDS
;	COMDAT ??0D3DXVECTOR3@@QAE@XZ
_TEXT	SEGMENT
_this$ = -8
??0D3DXVECTOR3@@QAE@XZ PROC NEAR			; D3DXVECTOR3::D3DXVECTOR3, COMDAT
; _this$ = ecx

; 89   :     D3DXVECTOR3() {};

  00000	55		 push	 ebp
  00001	8b ec		 mov	 ebp, esp
  00003	81 ec cc 00 00
	00		 sub	 esp, 204		; 000000ccH
  00009	53		 push	 ebx
  0000a	56		 push	 esi
  0000b	57		 push	 edi
  0000c	51		 push	 ecx
  0000d	8d bd 34 ff ff
	ff		 lea	 edi, DWORD PTR [ebp-204]
  00013	b9 33 00 00 00	 mov	 ecx, 51			; 00000033H
  00018	b8 cc cc cc cc	 mov	 eax, -858993460		; ccccccccH
  0001d	f3 ab		 rep stosd
  0001f	59		 pop	 ecx
  00020	89 4d f8	 mov	 DWORD PTR _this$[ebp], ecx
  00023	8b 45 f8	 mov	 eax, DWORD PTR _this$[ebp]
  00026	5f		 pop	 edi
  00027	5e		 pop	 esi
  00028	5b		 pop	 ebx
  00029	8b e5		 mov	 esp, ebp
  0002b	5d		 pop	 ebp
  0002c	c3		 ret	 0
??0D3DXVECTOR3@@QAE@XZ ENDP				; D3DXVECTOR3::D3DXVECTOR3
_TEXT	ENDS
PUBLIC	?Render@CFileRenderObject@@QAEJPAUIDirect3DDevice8@@PAVCTextures@@PAKHHPAUD3DXMATRIX@@@Z ; CFileRenderObject::Render
; Function compile flags: /Odt /RTCsu /ZI
; File c:\documents and settings\dom\my documents\_dev\ae\xlr8a\x7g\cfilerenderobject.cpp
;	COMDAT ?Render@CFileRenderObject@@QAEJPAUIDirect3DDevice8@@PAVCTextures@@PAKHHPAUD3DXMATRIX@@@Z
_TEXT	SEGMENT
_i$85511 = -92
_matCombinedWorld$ = -80
_this$ = -8
_pDev$ = 8
_pTex$ = 12
_pulPolyCount$ = 16
_bUseMeshMaterials$ = 20
_bUseDefMaterial$ = 24
_pmatCurWorld$ = 28
?Render@CFileRenderObject@@QAEJPAUIDirect3DDevice8@@PAVCTextures@@PAKHHPAUD3DXMATRIX@@@Z PROC NEAR ; CFileRenderObject::Render, COMDAT
; _this$ = ecx

; 530  : 	{

  00000	55		 push	 ebp
  00001	8b ec		 mov	 ebp, esp
  00003	81 ec 20 01 00
	00		 sub	 esp, 288		; 00000120H
  00009	53		 push	 ebx
  0000a	56		 push	 esi
  0000b	57		 push	 edi
  0000c	51		 push	 ecx
  0000d	8d bd e0 fe ff
	ff		 lea	 edi, DWORD PTR [ebp-288]
  00013	b9 48 00 00 00	 mov	 ecx, 72			; 00000048H
  00018	b8 cc cc cc cc	 mov	 eax, -858993460		; ccccccccH
  0001d	f3 ab		 rep stosd
  0001f	59		 pop	 ecx
  00020	89 4d f8	 mov	 DWORD PTR _this$[ebp], ecx

; 531  : 		xMat matCombinedWorld ;

  00023	8d 4d b0	 lea	 ecx, DWORD PTR _matCombinedWorld$[ebp]
  00026	e8 00 00 00 00	 call	 ??0D3DXMATRIX@@QAE@XZ	; D3DXMATRIX::D3DXMATRIX

; 532  : 
; 533  : 	//
; 534  : 	// Set a world-matrix:
; 535  : 	//
; 536  : 		matCombinedWorld = m_matWorld ;

  0002b	8b 75 f8	 mov	 esi, DWORD PTR _this$[ebp]
  0002e	83 c6 4c	 add	 esi, 76			; 0000004cH
  00031	b9 10 00 00 00	 mov	 ecx, 16			; 00000010H
  00036	8d 7d b0	 lea	 edi, DWORD PTR _matCombinedWorld$[ebp]
  00039	f3 a5		 rep movsd

; 537  : 		D3DXMatrixMultiply(&matCombinedWorld, &matCombinedWorld, &m_matRot) ;

  0003b	8b 45 f8	 mov	 eax, DWORD PTR _this$[ebp]
  0003e	83 c0 0c	 add	 eax, 12			; 0000000cH
  00041	50		 push	 eax
  00042	8d 4d b0	 lea	 ecx, DWORD PTR _matCombinedWorld$[ebp]
  00045	51		 push	 ecx
  00046	8d 55 b0	 lea	 edx, DWORD PTR _matCombinedWorld$[ebp]
  00049	52		 push	 edx
  0004a	e8 00 00 00 00	 call	 _D3DXMatrixMultiply@12

; 538  : 		if (pmatCurWorld)

  0004f	83 7d 1c 00	 cmp	 DWORD PTR _pmatCurWorld$[ebp], 0
  00053	74 11		 je	 SHORT $L85507

; 539  : 			D3DXMatrixMultiply(&matCombinedWorld, &matCombinedWorld, pmatCurWorld) ;

  00055	8b 45 1c	 mov	 eax, DWORD PTR _pmatCurWorld$[ebp]
  00058	50		 push	 eax
  00059	8d 4d b0	 lea	 ecx, DWORD PTR _matCombinedWorld$[ebp]
  0005c	51		 push	 ecx
  0005d	8d 55 b0	 lea	 edx, DWORD PTR _matCombinedWorld$[ebp]
  00060	52		 push	 edx
  00061	e8 00 00 00 00	 call	 _D3DXMatrixMultiply@12
$L85507:

; 540  : 		pDev->SetTransform(D3DTS_WORLD, &matCombinedWorld) ;

  00066	8b f4		 mov	 esi, esp
  00068	8d 45 b0	 lea	 eax, DWORD PTR _matCombinedWorld$[ebp]
  0006b	50		 push	 eax
  0006c	68 00 01 00 00	 push	 256			; 00000100H
  00071	8b 4d 08	 mov	 ecx, DWORD PTR _pDev$[ebp]
  00074	8b 11		 mov	 edx, DWORD PTR [ecx]
  00076	8b 45 08	 mov	 eax, DWORD PTR _pDev$[ebp]
  00079	50		 push	 eax
  0007a	ff 92 94 00 00
	00		 call	 DWORD PTR [edx+148]
  00080	3b f4		 cmp	 esi, esp
  00082	e8 00 00 00 00	 call	 __RTC_CheckEsp

; 541  : 
; 542  :     //
; 543  : 	// Set def. material:
; 544  : 	//
; 545  : 		if( bUseDefMaterial )

  00087	83 7d 18 00	 cmp	 DWORD PTR _bUseDefMaterial$[ebp], 0
  0008b	74 21		 je	 SHORT $L85509

; 546  : 			pDev->SetMaterial( &m_matDef );

  0008d	8b 45 f8	 mov	 eax, DWORD PTR _this$[ebp]
  00090	05 d8 00 00 00	 add	 eax, 216		; 000000d8H
  00095	8b f4		 mov	 esi, esp
  00097	50		 push	 eax
  00098	8b 4d 08	 mov	 ecx, DWORD PTR _pDev$[ebp]
  0009b	8b 11		 mov	 edx, DWORD PTR [ecx]
  0009d	8b 45 08	 mov	 eax, DWORD PTR _pDev$[ebp]
  000a0	50		 push	 eax
  000a1	ff 92 a8 00 00
	00		 call	 DWORD PTR [edx+168]
  000a7	3b f4		 cmp	 esi, esp
  000a9	e8 00 00 00 00	 call	 __RTC_CheckEsp
$L85509:

; 547  : 
; 548  : 	//
; 549  : 	// Render Subsets:
; 550  : 	//
; 551  : 		if( m_pRenderData->m_pMesh )

  000ae	8b 45 f8	 mov	 eax, DWORD PTR _this$[ebp]
  000b1	8b 08		 mov	 ecx, DWORD PTR [eax]
  000b3	83 b9 04 01 00
	00 00		 cmp	 DWORD PTR [ecx+260], 0
  000ba	0f 84 92 00 00
	00		 je	 $L85510

; 552  :         {
; 553  :             for (DWORD i = 0 ; i < m_pRenderData->m_dwNumMaterials ; i++)

  000c0	c7 45 a4 00 00
	00 00		 mov	 DWORD PTR _i$85511[ebp], 0
  000c7	eb 09		 jmp	 SHORT $L85512
$L85513:
  000c9	8b 45 a4	 mov	 eax, DWORD PTR _i$85511[ebp]
  000cc	83 c0 01	 add	 eax, 1
  000cf	89 45 a4	 mov	 DWORD PTR _i$85511[ebp], eax
$L85512:
  000d2	8b 45 f8	 mov	 eax, DWORD PTR _this$[ebp]
  000d5	8b 08		 mov	 ecx, DWORD PTR [eax]
  000d7	8b 55 a4	 mov	 edx, DWORD PTR _i$85511[ebp]
  000da	3b 91 28 01 00
	00		 cmp	 edx, DWORD PTR [ecx+296]
  000e0	73 5b		 jae	 SHORT $L85514

; 554  :             {
; 555  : 				if( bUseMeshMaterials )

  000e2	83 7d 14 00	 cmp	 DWORD PTR _bUseMeshMaterials$[ebp], 0
  000e6	74 2a		 je	 SHORT $L85515

; 556  : 					pDev->SetMaterial( &m_pRenderData->m_mtrlMeshMaterials[i] );

  000e8	8b 45 f8	 mov	 eax, DWORD PTR _this$[ebp]
  000eb	8b 08		 mov	 ecx, DWORD PTR [eax]
  000ed	8b 55 a4	 mov	 edx, DWORD PTR _i$85511[ebp]
  000f0	6b d2 44	 imul	 edx, 68			; 00000044H
  000f3	03 91 24 01 00
	00		 add	 edx, DWORD PTR [ecx+292]
  000f9	8b f4		 mov	 esi, esp
  000fb	52		 push	 edx
  000fc	8b 45 08	 mov	 eax, DWORD PTR _pDev$[ebp]
  000ff	8b 08		 mov	 ecx, DWORD PTR [eax]
  00101	8b 55 08	 mov	 edx, DWORD PTR _pDev$[ebp]
  00104	52		 push	 edx
  00105	ff 91 a8 00 00
	00		 call	 DWORD PTR [ecx+168]
  0010b	3b f4		 cmp	 esi, esp
  0010d	e8 00 00 00 00	 call	 __RTC_CheckEsp
$L85515:

; 557  : 
; 558  : 				m_pRenderData->m_pMesh->DrawSubset( i );

  00112	8b f4		 mov	 esi, esp
  00114	8b 45 a4	 mov	 eax, DWORD PTR _i$85511[ebp]
  00117	50		 push	 eax
  00118	8b 4d f8	 mov	 ecx, DWORD PTR _this$[ebp]
  0011b	8b 11		 mov	 edx, DWORD PTR [ecx]
  0011d	8b 82 04 01 00
	00		 mov	 eax, DWORD PTR [edx+260]
  00123	8b 4d f8	 mov	 ecx, DWORD PTR _this$[ebp]
  00126	8b 11		 mov	 edx, DWORD PTR [ecx]
  00128	8b 8a 04 01 00
	00		 mov	 ecx, DWORD PTR [edx+260]
  0012e	8b 10		 mov	 edx, DWORD PTR [eax]
  00130	51		 push	 ecx
  00131	ff 52 0c	 call	 DWORD PTR [edx+12]
  00134	3b f4		 cmp	 esi, esp
  00136	e8 00 00 00 00	 call	 __RTC_CheckEsp

; 559  :             }

  0013b	eb 8c		 jmp	 SHORT $L85513
$L85514:

; 560  : 			
; 561  : 			*pulPolyCount += m_pRenderData->m_dwNumFaces ;

  0013d	8b 45 f8	 mov	 eax, DWORD PTR _this$[ebp]
  00140	8b 08		 mov	 ecx, DWORD PTR [eax]
  00142	8b 55 10	 mov	 edx, DWORD PTR _pulPolyCount$[ebp]
  00145	8b 02		 mov	 eax, DWORD PTR [edx]
  00147	03 81 2c 01 00
	00		 add	 eax, DWORD PTR [ecx+300]
  0014d	8b 4d 10	 mov	 ecx, DWORD PTR _pulPolyCount$[ebp]
  00150	89 01		 mov	 DWORD PTR [ecx], eax
$L85510:

; 562  :         }
; 563  : 
; 564  : 		//m_pBBox->Render( pDev, pulPolyCount, &matCombinedWorld );
; 565  : 		return S_OK ;

  00152	33 c0		 xor	 eax, eax

; 566  : 	}

  00154	52		 push	 edx
  00155	8b cd		 mov	 ecx, ebp
  00157	50		 push	 eax
  00158	8d 15 00 00 00
	00		 lea	 edx, DWORD PTR $L85722
  0015e	e8 00 00 00 00	 call	 @_RTC_CheckStackVars@8
  00163	58		 pop	 eax
  00164	5a		 pop	 edx
  00165	5f		 pop	 edi
  00166	5e		 pop	 esi
  00167	5b		 pop	 ebx
  00168	81 c4 20 01 00
	00		 add	 esp, 288		; 00000120H
  0016e	3b ec		 cmp	 ebp, esp
  00170	e8 00 00 00 00	 call	 __RTC_CheckEsp
  00175	8b e5		 mov	 esp, ebp
  00177	5d		 pop	 ebp
  00178	c2 18 00	 ret	 24			; 00000018H
$L85722:
  0017b	01 00 00 00	 DD	 1
  0017f	00 00 00 00	 DD	 $L85721
$L85721:
  00183	b0 ff ff ff	 DD	 -80			; ffffffb0H
  00187	40 00 00 00	 DD	 64			; 00000040H
  0018b	00 00 00 00	 DD	 $L85720
$L85720:
  0018f	6d		 DB	 109			; 0000006dH
  00190	61		 DB	 97			; 00000061H
  00191	74		 DB	 116			; 00000074H
  00192	43		 DB	 67			; 00000043H
  00193	6f		 DB	 111			; 0000006fH
  00194	6d		 DB	 109			; 0000006dH
  00195	62		 DB	 98			; 00000062H
  00196	69		 DB	 105			; 00000069H
  00197	6e		 DB	 110			; 0000006eH
  00198	65		 DB	 101			; 00000065H
  00199	64		 DB	 100			; 00000064H
  0019a	57		 DB	 87			; 00000057H
  0019b	6f		 DB	 111			; 0000006fH
  0019c	72		 DB	 114			; 00000072H
  0019d	6c		 DB	 108			; 0000006cH
  0019e	64		 DB	 100			; 00000064H
  0019f	00		 DB	 0
?Render@CFileRenderObject@@QAEJPAUIDirect3DDevice8@@PAVCTextures@@PAKHHPAUD3DXMATRIX@@@Z ENDP ; CFileRenderObject::Render
; Function compile flags: /Odt /RTCsu /ZI
; File c:\dxsdk\include\d3dx8math.h
_TEXT	ENDS
;	COMDAT ??0D3DXMATRIX@@QAE@XZ
_TEXT	SEGMENT
_this$ = -8
??0D3DXMATRIX@@QAE@XZ PROC NEAR				; D3DXMATRIX::D3DXMATRIX, COMDAT
; _this$ = ecx

; 177  :     D3DXMATRIX() {};

  00000	55		 push	 ebp
  00001	8b ec		 mov	 ebp, esp
  00003	81 ec cc 00 00
	00		 sub	 esp, 204		; 000000ccH
  00009	53		 push	 ebx
  0000a	56		 push	 esi
  0000b	57		 push	 edi
  0000c	51		 push	 ecx
  0000d	8d bd 34 ff ff
	ff		 lea	 edi, DWORD PTR [ebp-204]
  00013	b9 33 00 00 00	 mov	 ecx, 51			; 00000033H
  00018	b8 cc cc cc cc	 mov	 eax, -858993460		; ccccccccH
  0001d	f3 ab		 rep stosd
  0001f	59		 pop	 ecx
  00020	89 4d f8	 mov	 DWORD PTR _this$[ebp], ecx
  00023	8b 45 f8	 mov	 eax, DWORD PTR _this$[ebp]
  00026	5f		 pop	 edi
  00027	5e		 pop	 esi
  00028	5b		 pop	 ebx
  00029	8b e5		 mov	 esp, ebp
  0002b	5d		 pop	 ebp
  0002c	c3		 ret	 0
??0D3DXMATRIX@@QAE@XZ ENDP				; D3DXMATRIX::D3DXMATRIX
_TEXT	ENDS
PUBLIC	??RD3DXMATRIX@@QAEAAMII@Z			; D3DXMATRIX::operator()
PUBLIC	?RenderVS@CFileRenderObject@@QAEJPAUIDirect3DDevice8@@MPAKHHPAUD3DXMATRIX@@ABU3@3PAVCCamera@@ABUD3DXVECTOR3@@@Z ; CFileRenderObject::RenderVS
PUBLIC	?__LINE__Var@?1??RenderVS@CFileRenderObject@@QAEJPAUIDirect3DDevice8@@MPAKHHPAUD3DXMATRIX@@ABU4@3PAVCCamera@@ABUD3DXVECTOR3@@@Z@4JA ; `CFileRenderObject::RenderVS'::`2'::__LINE__Var
PUBLIC	??GD3DXVECTOR3@@QBE?AU0@XZ			; D3DXVECTOR3::operator-
PUBLIC	??HD3DXVECTOR3@@QBE?AU0@ABU0@@Z			; D3DXVECTOR3::operator+
PUBLIC	??0D3DXVECTOR4@@QAE@MMMM@Z			; D3DXVECTOR4::D3DXVECTOR4
EXTRN	_D3DXVec3Normalize@8:NEAR
EXTRN	_D3DXVec3TransformNormal@12:NEAR
EXTRN	_D3DXMatrixTranspose@8:NEAR
EXTRN	_D3DXMatrixInverse@12:NEAR
EXTRN	_D3DXGetFVFVertexSize@4:NEAR
;	COMDAT ?__LINE__Var@?1??RenderVS@CFileRenderObject@@QAEJPAUIDirect3DDevice8@@MPAKHHPAUD3DXMATRIX@@ABU4@3PAVCCamera@@ABUD3DXVECTOR3@@@Z@4JA
; File c:\documents and settings\dom\my documents\_dev\ae\xlr8a\x7g\cfilerenderobject.cpp
_DATA	SEGMENT
?__LINE__Var@?1??RenderVS@CFileRenderObject@@QAEJPAUIDirect3DDevice8@@MPAKHHPAUD3DXMATRIX@@ABU4@3PAVCCamera@@ABUD3DXVECTOR3@@@Z@4JA DD 0242H ; `CFileRenderObject::RenderVS'::`2'::__LINE__Var
; Function compile flags: /Odt /RTCsu /ZI
_DATA	ENDS
;	COMDAT ?RenderVS@CFileRenderObject@@QAEJPAUIDirect3DDevice8@@MPAKHHPAUD3DXMATRIX@@ABU3@3PAVCCamera@@ABUD3DXVECTOR3@@@Z
_TEXT	SEGMENT
$T85731 = -804
$T85730 = -780
$T85729 = -760
_i$85559 = -544
_vHalfway$ = -532
_vToEye$ = -512
_pIB$ = -492
_pVB$ = -480
_fD$ = -468
_matWorldT$ = -456
_matWorldIT$ = -384
_matWorldI$ = -312
_matWorldViewProj$ = -240
_matTemp$ = -168
_matCombinedWorld$ = -96
_hr$ = -20
_this$ = -8
_pDev$ = 8
_fTime$ = 12
_pulPolyCount$ = 16
_bUseMeshMaterials$ = 20
_bUseDefMaterial$ = 24
_pmatCurWorld$ = 28
_matView$ = 32
_matProj$ = 36
_pCam$ = 40
_vLightDir$ = 44
?RenderVS@CFileRenderObject@@QAEJPAUIDirect3DDevice8@@MPAKHHPAUD3DXMATRIX@@ABU3@3PAVCCamera@@ABUD3DXVECTOR3@@@Z PROC NEAR ; CFileRenderObject::RenderVS, COMDAT
; _this$ = ecx

; 578  : 	{

  00000	55		 push	 ebp
  00001	8b ec		 mov	 ebp, esp
  00003	81 ec 28 03 00
	00		 sub	 esp, 808		; 00000328H
  00009	53		 push	 ebx
  0000a	56		 push	 esi
  0000b	57		 push	 edi
  0000c	51		 push	 ecx
  0000d	8d bd d8 fc ff
	ff		 lea	 edi, DWORD PTR [ebp-808]
  00013	b9 ca 00 00 00	 mov	 ecx, 202		; 000000caH
  00018	b8 cc cc cc cc	 mov	 eax, -858993460		; ccccccccH
  0001d	f3 ab		 rep stosd
  0001f	59		 pop	 ecx
  00020	89 4d f8	 mov	 DWORD PTR _this$[ebp], ecx

; 579  : 		HRESULT hr ;
; 580  : 		xMat matCombinedWorld ;

  00023	8d 4d a0	 lea	 ecx, DWORD PTR _matCombinedWorld$[ebp]
  00026	e8 00 00 00 00	 call	 ??0D3DXMATRIX@@QAE@XZ	; D3DXMATRIX::D3DXMATRIX

; 581  : 		xMat matTemp, matWorldViewProj, matWorldI, matWorldIT, matWorldT ;

  0002b	8d 8d 58 ff ff
	ff		 lea	 ecx, DWORD PTR _matTemp$[ebp]
  00031	e8 00 00 00 00	 call	 ??0D3DXMATRIX@@QAE@XZ	; D3DXMATRIX::D3DXMATRIX
  00036	8d 8d 10 ff ff
	ff		 lea	 ecx, DWORD PTR _matWorldViewProj$[ebp]
  0003c	e8 00 00 00 00	 call	 ??0D3DXMATRIX@@QAE@XZ	; D3DXMATRIX::D3DXMATRIX
  00041	8d 8d c8 fe ff
	ff		 lea	 ecx, DWORD PTR _matWorldI$[ebp]
  00047	e8 00 00 00 00	 call	 ??0D3DXMATRIX@@QAE@XZ	; D3DXMATRIX::D3DXMATRIX
  0004c	8d 8d 80 fe ff
	ff		 lea	 ecx, DWORD PTR _matWorldIT$[ebp]
  00052	e8 00 00 00 00	 call	 ??0D3DXMATRIX@@QAE@XZ	; D3DXMATRIX::D3DXMATRIX
  00057	8d 8d 38 fe ff
	ff		 lea	 ecx, DWORD PTR _matWorldT$[ebp]
  0005d	e8 00 00 00 00	 call	 ??0D3DXMATRIX@@QAE@XZ	; D3DXMATRIX::D3DXMATRIX

; 582  : 		float fD ;
; 583  : 
; 584  : 	//
; 585  : 	// Set a world-matrix:
; 586  : 	//
; 587  : 		matCombinedWorld = m_matWorld ;

  00062	8b 75 f8	 mov	 esi, DWORD PTR _this$[ebp]
  00065	83 c6 4c	 add	 esi, 76			; 0000004cH
  00068	b9 10 00 00 00	 mov	 ecx, 16			; 00000010H
  0006d	8d 7d a0	 lea	 edi, DWORD PTR _matCombinedWorld$[ebp]
  00070	f3 a5		 rep movsd

; 588  : 		D3DXMatrixMultiply(&matCombinedWorld, &matCombinedWorld, &m_matRot) ;

  00072	8b 45 f8	 mov	 eax, DWORD PTR _this$[ebp]
  00075	83 c0 0c	 add	 eax, 12			; 0000000cH
  00078	50		 push	 eax
  00079	8d 4d a0	 lea	 ecx, DWORD PTR _matCombinedWorld$[ebp]
  0007c	51		 push	 ecx
  0007d	8d 55 a0	 lea	 edx, DWORD PTR _matCombinedWorld$[ebp]
  00080	52		 push	 edx
  00081	e8 00 00 00 00	 call	 _D3DXMatrixMultiply@12

; 589  : 		if (pmatCurWorld)

  00086	83 7d 1c 00	 cmp	 DWORD PTR _pmatCurWorld$[ebp], 0
  0008a	74 11		 je	 SHORT $L85538

; 590  : 			D3DXMatrixMultiply(&matCombinedWorld, &matCombinedWorld, pmatCurWorld) ;

  0008c	8b 45 1c	 mov	 eax, DWORD PTR _pmatCurWorld$[ebp]
  0008f	50		 push	 eax
  00090	8d 4d a0	 lea	 ecx, DWORD PTR _matCombinedWorld$[ebp]
  00093	51		 push	 ecx
  00094	8d 55 a0	 lea	 edx, DWORD PTR _matCombinedWorld$[ebp]
  00097	52		 push	 edx
  00098	e8 00 00 00 00	 call	 _D3DXMatrixMultiply@12
$L85538:

; 591  : 		pDev->SetTransform(D3DTS_WORLD, &matCombinedWorld) ;

  0009d	8b f4		 mov	 esi, esp
  0009f	8d 45 a0	 lea	 eax, DWORD PTR _matCombinedWorld$[ebp]
  000a2	50		 push	 eax
  000a3	68 00 01 00 00	 push	 256			; 00000100H
  000a8	8b 4d 08	 mov	 ecx, DWORD PTR _pDev$[ebp]
  000ab	8b 11		 mov	 edx, DWORD PTR [ecx]
  000ad	8b 45 08	 mov	 eax, DWORD PTR _pDev$[ebp]
  000b0	50		 push	 eax
  000b1	ff 92 94 00 00
	00		 call	 DWORD PTR [edx+148]
  000b7	3b f4		 cmp	 esi, esp
  000b9	e8 00 00 00 00	 call	 __RTC_CheckEsp

; 592  : 
; 593  :     //
; 594  : 	// Set def. material:
; 595  : 	//
; 596  : 		if( bUseDefMaterial )

  000be	83 7d 18 00	 cmp	 DWORD PTR _bUseDefMaterial$[ebp], 0
  000c2	74 21		 je	 SHORT $L85540

; 597  : 			pDev->SetMaterial( &m_matDef );

  000c4	8b 45 f8	 mov	 eax, DWORD PTR _this$[ebp]
  000c7	05 d8 00 00 00	 add	 eax, 216		; 000000d8H
  000cc	8b f4		 mov	 esi, esp
  000ce	50		 push	 eax
  000cf	8b 4d 08	 mov	 ecx, DWORD PTR _pDev$[ebp]
  000d2	8b 11		 mov	 edx, DWORD PTR [ecx]
  000d4	8b 45 08	 mov	 eax, DWORD PTR _pDev$[ebp]
  000d7	50		 push	 eax
  000d8	ff 92 a8 00 00
	00		 call	 DWORD PTR [edx+168]
  000de	3b f4		 cmp	 esi, esp
  000e0	e8 00 00 00 00	 call	 __RTC_CheckEsp
$L85540:

; 598  : 
; 599  : 	//
; 600  : 	// Grab VB and IB:
; 601  : 	//
; 602  : 		LPDIRECT3DVERTEXBUFFER8 pVB ;
; 603  : 		LPDIRECT3DINDEXBUFFER8 pIB ;
; 604  : 		hr = m_pRenderData->m_pMesh->GetVertexBuffer( &pVB );

  000e5	8b f4		 mov	 esi, esp
  000e7	8d 85 20 fe ff
	ff		 lea	 eax, DWORD PTR _pVB$[ebp]
  000ed	50		 push	 eax
  000ee	8b 4d f8	 mov	 ecx, DWORD PTR _this$[ebp]
  000f1	8b 11		 mov	 edx, DWORD PTR [ecx]
  000f3	8b 82 04 01 00
	00		 mov	 eax, DWORD PTR [edx+260]
  000f9	8b 4d f8	 mov	 ecx, DWORD PTR _this$[ebp]
  000fc	8b 11		 mov	 edx, DWORD PTR [ecx]
  000fe	8b 8a 04 01 00
	00		 mov	 ecx, DWORD PTR [edx+260]
  00104	8b 10		 mov	 edx, DWORD PTR [eax]
  00106	51		 push	 ecx
  00107	ff 52 30	 call	 DWORD PTR [edx+48]
  0010a	3b f4		 cmp	 esi, esp
  0010c	e8 00 00 00 00	 call	 __RTC_CheckEsp
  00111	89 45 ec	 mov	 DWORD PTR _hr$[ebp], eax

; 605  : 		assert( !FAILED(hr) );

  00114	83 7d ec 00	 cmp	 DWORD PTR _hr$[ebp], 0
  00118	7d 1b		 jge	 SHORT $L85727
  0011a	a1 00 00 00 00	 mov	 eax, DWORD PTR ?__LINE__Var@?1??RenderVS@CFileRenderObject@@QAEJPAUIDirect3DDevice8@@MPAKHHPAUD3DXMATRIX@@ABU4@3PAVCCamera@@ABUD3DXVECTOR3@@@Z@4JA
  0011f	83 c0 1b	 add	 eax, 27			; 0000001bH
  00122	50		 push	 eax
  00123	68 00 00 00 00	 push	 OFFSET FLAT:??_C@_0FD@HMECEKLE@c?3?2documents?5and?5settings?2dom?2my@
  00128	68 00 00 00 00	 push	 OFFSET FLAT:??_C@_0M@NKNCPJJD@?$CBFAILED?$CIhr?$CJ?$AA@
  0012d	e8 00 00 00 00	 call	 __assert
  00132	83 c4 0c	 add	 esp, 12			; 0000000cH
$L85727:

; 606  : 		hr = m_pRenderData->m_pMesh->GetIndexBuffer( &pIB );

  00135	8b f4		 mov	 esi, esp
  00137	8d 85 14 fe ff
	ff		 lea	 eax, DWORD PTR _pIB$[ebp]
  0013d	50		 push	 eax
  0013e	8b 4d f8	 mov	 ecx, DWORD PTR _this$[ebp]
  00141	8b 11		 mov	 edx, DWORD PTR [ecx]
  00143	8b 82 04 01 00
	00		 mov	 eax, DWORD PTR [edx+260]
  00149	8b 4d f8	 mov	 ecx, DWORD PTR _this$[ebp]
  0014c	8b 11		 mov	 edx, DWORD PTR [ecx]
  0014e	8b 8a 04 01 00
	00		 mov	 ecx, DWORD PTR [edx+260]
  00154	8b 10		 mov	 edx, DWORD PTR [eax]
  00156	51		 push	 ecx
  00157	ff 52 34	 call	 DWORD PTR [edx+52]
  0015a	3b f4		 cmp	 esi, esp
  0015c	e8 00 00 00 00	 call	 __RTC_CheckEsp
  00161	89 45 ec	 mov	 DWORD PTR _hr$[ebp], eax

; 607  : 		assert( !FAILED(hr) );

  00164	83 7d ec 00	 cmp	 DWORD PTR _hr$[ebp], 0
  00168	7d 1b		 jge	 SHORT $L85728
  0016a	a1 00 00 00 00	 mov	 eax, DWORD PTR ?__LINE__Var@?1??RenderVS@CFileRenderObject@@QAEJPAUIDirect3DDevice8@@MPAKHHPAUD3DXMATRIX@@ABU4@3PAVCCamera@@ABUD3DXVECTOR3@@@Z@4JA
  0016f	83 c0 1d	 add	 eax, 29			; 0000001dH
  00172	50		 push	 eax
  00173	68 00 00 00 00	 push	 OFFSET FLAT:??_C@_0FD@HMECEKLE@c?3?2documents?5and?5settings?2dom?2my@
  00178	68 00 00 00 00	 push	 OFFSET FLAT:??_C@_0M@NKNCPJJD@?$CBFAILED?$CIhr?$CJ?$AA@
  0017d	e8 00 00 00 00	 call	 __assert
  00182	83 c4 0c	 add	 esp, 12			; 0000000cH
$L85728:

; 608  : 
; 609  : 	//
; 610  : 	// Set VS constants for TandL.vsh
; 611  : 	//
; 612  : 
; 613  : 	// c0-c3; mat.view.proj transposed
; 614  : 		D3DXMatrixMultiply(&matTemp, &matCombinedWorld, &matView);

  00185	8b 45 20	 mov	 eax, DWORD PTR _matView$[ebp]
  00188	50		 push	 eax
  00189	8d 4d a0	 lea	 ecx, DWORD PTR _matCombinedWorld$[ebp]
  0018c	51		 push	 ecx
  0018d	8d 95 58 ff ff
	ff		 lea	 edx, DWORD PTR _matTemp$[ebp]
  00193	52		 push	 edx
  00194	e8 00 00 00 00	 call	 _D3DXMatrixMultiply@12

; 615  : 		D3DXMatrixMultiply(&matWorldViewProj, &matTemp, &matProj);

  00199	8b 45 24	 mov	 eax, DWORD PTR _matProj$[ebp]
  0019c	50		 push	 eax
  0019d	8d 8d 58 ff ff
	ff		 lea	 ecx, DWORD PTR _matTemp$[ebp]
  001a3	51		 push	 ecx
  001a4	8d 95 10 ff ff
	ff		 lea	 edx, DWORD PTR _matWorldViewProj$[ebp]
  001aa	52		 push	 edx
  001ab	e8 00 00 00 00	 call	 _D3DXMatrixMultiply@12

; 616  : 		D3DXMatrixTranspose(&matWorldViewProj, &matWorldViewProj);

  001b0	8d 85 10 ff ff
	ff		 lea	 eax, DWORD PTR _matWorldViewProj$[ebp]
  001b6	50		 push	 eax
  001b7	8d 8d 10 ff ff
	ff		 lea	 ecx, DWORD PTR _matWorldViewProj$[ebp]
  001bd	51		 push	 ecx
  001be	e8 00 00 00 00	 call	 _D3DXMatrixTranspose@8

; 617  : 		pDev->SetVertexShaderConstant(  0, &matWorldViewProj(0,0),  4 );

  001c3	8b f4		 mov	 esi, esp
  001c5	6a 04		 push	 4
  001c7	6a 00		 push	 0
  001c9	6a 00		 push	 0
  001cb	8d 8d 10 ff ff
	ff		 lea	 ecx, DWORD PTR _matWorldViewProj$[ebp]
  001d1	e8 00 00 00 00	 call	 ??RD3DXMATRIX@@QAEAAMII@Z ; D3DXMATRIX::operator()
  001d6	50		 push	 eax
  001d7	6a 00		 push	 0
  001d9	8b 45 08	 mov	 eax, DWORD PTR _pDev$[ebp]
  001dc	8b 08		 mov	 ecx, DWORD PTR [eax]
  001de	8b 55 08	 mov	 edx, DWORD PTR _pDev$[ebp]
  001e1	52		 push	 edx
  001e2	ff 91 3c 01 00
	00		 call	 DWORD PTR [ecx+316]
  001e8	3b f4		 cmp	 esi, esp
  001ea	e8 00 00 00 00	 call	 __RTC_CheckEsp

; 618  : 
; 619  : 	// c4-c6; word inverse transposed
; 620  : 		pDev->SetVertexShaderConstant(  4, &matWorldViewProj(0,0),  3 );

  001ef	8b f4		 mov	 esi, esp
  001f1	6a 03		 push	 3
  001f3	6a 00		 push	 0
  001f5	6a 00		 push	 0
  001f7	8d 8d 10 ff ff
	ff		 lea	 ecx, DWORD PTR _matWorldViewProj$[ebp]
  001fd	e8 00 00 00 00	 call	 ??RD3DXMATRIX@@QAEAAMII@Z ; D3DXMATRIX::operator()
  00202	50		 push	 eax
  00203	6a 04		 push	 4
  00205	8b 45 08	 mov	 eax, DWORD PTR _pDev$[ebp]
  00208	8b 08		 mov	 ecx, DWORD PTR [eax]
  0020a	8b 55 08	 mov	 edx, DWORD PTR _pDev$[ebp]
  0020d	52		 push	 edx
  0020e	ff 91 3c 01 00
	00		 call	 DWORD PTR [ecx+316]
  00214	3b f4		 cmp	 esi, esp
  00216	e8 00 00 00 00	 call	 __RTC_CheckEsp

; 621  : 
; 622  :     // c11; halfway (between eye & light) vector in model space
; 623  : 		D3DXMatrixInverse( &matWorldI, &fD, &matCombinedWorld );

  0021b	8d 45 a0	 lea	 eax, DWORD PTR _matCombinedWorld$[ebp]
  0021e	50		 push	 eax
  0021f	8d 8d 2c fe ff
	ff		 lea	 ecx, DWORD PTR _fD$[ebp]
  00225	51		 push	 ecx
  00226	8d 95 c8 fe ff
	ff		 lea	 edx, DWORD PTR _matWorldI$[ebp]
  0022c	52		 push	 edx
  0022d	e8 00 00 00 00	 call	 _D3DXMatrixInverse@12

; 624  : 		D3DXMatrixTranspose( &matWorldIT, &matWorldIT );

  00232	8d 85 80 fe ff
	ff		 lea	 eax, DWORD PTR _matWorldIT$[ebp]
  00238	50		 push	 eax
  00239	8d 8d 80 fe ff
	ff		 lea	 ecx, DWORD PTR _matWorldIT$[ebp]
  0023f	51		 push	 ecx
  00240	e8 00 00 00 00	 call	 _D3DXMatrixTranspose@8

; 625  : 		xVec3 vToEye( pCam->m_vEyePt - pCam->m_vLookAtPt );

  00245	8b 45 28	 mov	 eax, DWORD PTR _pCam$[ebp]
  00248	83 c0 0c	 add	 eax, 12			; 0000000cH
  0024b	50		 push	 eax
  0024c	8d 8d 00 fe ff
	ff		 lea	 ecx, DWORD PTR _vToEye$[ebp]
  00252	51		 push	 ecx
  00253	8b 4d 28	 mov	 ecx, DWORD PTR _pCam$[ebp]
  00256	e8 00 00 00 00	 call	 ??GD3DXVECTOR3@@QBE?AU0@ABU0@@Z ; D3DXVECTOR3::operator-

; 626  : 		D3DXVec3Normalize( &vToEye, &vToEye );

  0025b	8d 85 00 fe ff
	ff		 lea	 eax, DWORD PTR _vToEye$[ebp]
  00261	50		 push	 eax
  00262	8d 8d 00 fe ff
	ff		 lea	 ecx, DWORD PTR _vToEye$[ebp]
  00268	51		 push	 ecx
  00269	e8 00 00 00 00	 call	 _D3DXVec3Normalize@8

; 627  : 		xVec3 vHalfway( vLightDir + vToEye );

  0026e	8d 85 00 fe ff
	ff		 lea	 eax, DWORD PTR _vToEye$[ebp]
  00274	50		 push	 eax
  00275	8d 8d ec fd ff
	ff		 lea	 ecx, DWORD PTR _vHalfway$[ebp]
  0027b	51		 push	 ecx
  0027c	8b 4d 2c	 mov	 ecx, DWORD PTR _vLightDir$[ebp]
  0027f	e8 00 00 00 00	 call	 ??HD3DXVECTOR3@@QBE?AU0@ABU0@@Z ; D3DXVECTOR3::operator+

; 628  : 		D3DXVec3TransformNormal( &vHalfway, &vHalfway, &matWorldI );

  00284	8d 85 c8 fe ff
	ff		 lea	 eax, DWORD PTR _matWorldI$[ebp]
  0028a	50		 push	 eax
  0028b	8d 8d ec fd ff
	ff		 lea	 ecx, DWORD PTR _vHalfway$[ebp]
  00291	51		 push	 ecx
  00292	8d 95 ec fd ff
	ff		 lea	 edx, DWORD PTR _vHalfway$[ebp]
  00298	52		 push	 edx
  00299	e8 00 00 00 00	 call	 _D3DXVec3TransformNormal@12

; 629  : 		D3DXVec3Normalize( &vHalfway, &vHalfway );

  0029e	8d 85 ec fd ff
	ff		 lea	 eax, DWORD PTR _vHalfway$[ebp]
  002a4	50		 push	 eax
  002a5	8d 8d ec fd ff
	ff		 lea	 ecx, DWORD PTR _vHalfway$[ebp]
  002ab	51		 push	 ecx
  002ac	e8 00 00 00 00	 call	 _D3DXVec3Normalize@8

; 630  : 		pDev->SetVertexShaderConstant( 11, &vHalfway, 1 );

  002b1	8b f4		 mov	 esi, esp
  002b3	6a 01		 push	 1
  002b5	8d 85 ec fd ff
	ff		 lea	 eax, DWORD PTR _vHalfway$[ebp]
  002bb	50		 push	 eax
  002bc	6a 0b		 push	 11			; 0000000bH
  002be	8b 4d 08	 mov	 ecx, DWORD PTR _pDev$[ebp]
  002c1	8b 11		 mov	 edx, DWORD PTR [ecx]
  002c3	8b 45 08	 mov	 eax, DWORD PTR _pDev$[ebp]
  002c6	50		 push	 eax
  002c7	ff 92 3c 01 00
	00		 call	 DWORD PTR [edx+316]
  002cd	3b f4		 cmp	 esi, esp
  002cf	e8 00 00 00 00	 call	 __RTC_CheckEsp

; 631  : 
; 632  : 	// c12; specular power constants
; 633  : 		pDev->SetVertexShaderConstant( 12, &xVec4( 0,10,50,100 ), 1 );

  002d4	8b f4		 mov	 esi, esp
  002d6	6a 01		 push	 1
  002d8	68 00 00 c8 42	 push	 1120403456		; 42c80000H
  002dd	68 00 00 48 42	 push	 1112014848		; 42480000H
  002e2	68 00 00 20 41	 push	 1092616192		; 41200000H
  002e7	6a 00		 push	 0
  002e9	8d 8d 08 fd ff
	ff		 lea	 ecx, DWORD PTR $T85729[ebp]
  002ef	e8 00 00 00 00	 call	 ??0D3DXVECTOR4@@QAE@MMMM@Z ; D3DXVECTOR4::D3DXVECTOR4
  002f4	50		 push	 eax
  002f5	6a 0c		 push	 12			; 0000000cH
  002f7	8b 45 08	 mov	 eax, DWORD PTR _pDev$[ebp]
  002fa	8b 08		 mov	 ecx, DWORD PTR [eax]
  002fc	8b 55 08	 mov	 edx, DWORD PTR _pDev$[ebp]
  002ff	52		 push	 edx
  00300	ff 91 3c 01 00
	00		 call	 DWORD PTR [ecx+316]
  00306	3b f4		 cmp	 esi, esp
  00308	e8 00 00 00 00	 call	 __RTC_CheckEsp

; 634  : 		
; 635  : 	// c13; points to the eye in model space
; 636  : 		D3DXVec3TransformNormal( &vToEye, &vToEye, &matWorldI );

  0030d	8d 85 c8 fe ff
	ff		 lea	 eax, DWORD PTR _matWorldI$[ebp]
  00313	50		 push	 eax
  00314	8d 8d 00 fe ff
	ff		 lea	 ecx, DWORD PTR _vToEye$[ebp]
  0031a	51		 push	 ecx
  0031b	8d 95 00 fe ff
	ff		 lea	 edx, DWORD PTR _vToEye$[ebp]
  00321	52		 push	 edx
  00322	e8 00 00 00 00	 call	 _D3DXVec3TransformNormal@12

; 637  : 		D3DXVec3Normalize( &vToEye, &vToEye );

  00327	8d 85 00 fe ff
	ff		 lea	 eax, DWORD PTR _vToEye$[ebp]
  0032d	50		 push	 eax
  0032e	8d 8d 00 fe ff
	ff		 lea	 ecx, DWORD PTR _vToEye$[ebp]
  00334	51		 push	 ecx
  00335	e8 00 00 00 00	 call	 _D3DXVec3Normalize@8

; 638  : 		vToEye = -vToEye;

  0033a	8d 85 f4 fc ff
	ff		 lea	 eax, DWORD PTR $T85730[ebp]
  00340	50		 push	 eax
  00341	8d 8d 00 fe ff
	ff		 lea	 ecx, DWORD PTR _vToEye$[ebp]
  00347	e8 00 00 00 00	 call	 ??GD3DXVECTOR3@@QBE?AU0@XZ ; D3DXVECTOR3::operator-
  0034c	8b 08		 mov	 ecx, DWORD PTR [eax]
  0034e	89 8d 00 fe ff
	ff		 mov	 DWORD PTR _vToEye$[ebp], ecx
  00354	8b 50 04	 mov	 edx, DWORD PTR [eax+4]
  00357	89 95 04 fe ff
	ff		 mov	 DWORD PTR _vToEye$[ebp+4], edx
  0035d	8b 40 08	 mov	 eax, DWORD PTR [eax+8]
  00360	89 85 08 fe ff
	ff		 mov	 DWORD PTR _vToEye$[ebp+8], eax

; 639  : 		pDev->SetVertexShaderConstant( 13, &vToEye.x, 1 );

  00366	8b f4		 mov	 esi, esp
  00368	6a 01		 push	 1
  0036a	8d 85 00 fe ff
	ff		 lea	 eax, DWORD PTR _vToEye$[ebp]
  00370	50		 push	 eax
  00371	6a 0d		 push	 13			; 0000000dH
  00373	8b 4d 08	 mov	 ecx, DWORD PTR _pDev$[ebp]
  00376	8b 11		 mov	 edx, DWORD PTR [ecx]
  00378	8b 45 08	 mov	 eax, DWORD PTR _pDev$[ebp]
  0037b	50		 push	 eax
  0037c	ff 92 3c 01 00
	00		 call	 DWORD PTR [edx+316]
  00382	3b f4		 cmp	 esi, esp
  00384	e8 00 00 00 00	 call	 __RTC_CheckEsp

; 640  : 
; 641  : 	// c14-17; world matrix
; 642  : 		D3DXMatrixTranspose( &matWorldT, &matCombinedWorld );

  00389	8d 45 a0	 lea	 eax, DWORD PTR _matCombinedWorld$[ebp]
  0038c	50		 push	 eax
  0038d	8d 8d 38 fe ff
	ff		 lea	 ecx, DWORD PTR _matWorldT$[ebp]
  00393	51		 push	 ecx
  00394	e8 00 00 00 00	 call	 _D3DXMatrixTranspose@8

; 643  : 		pDev->SetVertexShaderConstant( 14, &matWorldT, 4 );

  00399	8b f4		 mov	 esi, esp
  0039b	6a 04		 push	 4
  0039d	8d 85 38 fe ff
	ff		 lea	 eax, DWORD PTR _matWorldT$[ebp]
  003a3	50		 push	 eax
  003a4	6a 0e		 push	 14			; 0000000eH
  003a6	8b 4d 08	 mov	 ecx, DWORD PTR _pDev$[ebp]
  003a9	8b 11		 mov	 edx, DWORD PTR [ecx]
  003ab	8b 45 08	 mov	 eax, DWORD PTR _pDev$[ebp]
  003ae	50		 push	 eax
  003af	ff 92 3c 01 00
	00		 call	 DWORD PTR [edx+316]
  003b5	3b f4		 cmp	 esi, esp
  003b7	e8 00 00 00 00	 call	 __RTC_CheckEsp

; 644  : 
; 645  : 	// c18: eye point
; 646  : 		pDev->SetVertexShaderConstant( 18, &pCam->m_vEyePt, 1 );

  003bc	8b f4		 mov	 esi, esp
  003be	6a 01		 push	 1
  003c0	8b 45 28	 mov	 eax, DWORD PTR _pCam$[ebp]
  003c3	50		 push	 eax
  003c4	6a 12		 push	 18			; 00000012H
  003c6	8b 4d 08	 mov	 ecx, DWORD PTR _pDev$[ebp]
  003c9	8b 11		 mov	 edx, DWORD PTR [ecx]
  003cb	8b 45 08	 mov	 eax, DWORD PTR _pDev$[ebp]
  003ce	50		 push	 eax
  003cf	ff 92 3c 01 00
	00		 call	 DWORD PTR [edx+316]
  003d5	3b f4		 cmp	 esi, esp
  003d7	e8 00 00 00 00	 call	 __RTC_CheckEsp

; 647  : 
; 648  : 	// c19: tex. coord offset
; 649  : 		pDev->SetVertexShaderConstant( 19, &xVec4( 0,0,0,0 ), 1 );

  003dc	8b f4		 mov	 esi, esp
  003de	6a 01		 push	 1
  003e0	6a 00		 push	 0
  003e2	6a 00		 push	 0
  003e4	6a 00		 push	 0
  003e6	6a 00		 push	 0
  003e8	8d 8d dc fc ff
	ff		 lea	 ecx, DWORD PTR $T85731[ebp]
  003ee	e8 00 00 00 00	 call	 ??0D3DXVECTOR4@@QAE@MMMM@Z ; D3DXVECTOR4::D3DXVECTOR4
  003f3	50		 push	 eax
  003f4	6a 13		 push	 19			; 00000013H
  003f6	8b 45 08	 mov	 eax, DWORD PTR _pDev$[ebp]
  003f9	8b 08		 mov	 ecx, DWORD PTR [eax]
  003fb	8b 55 08	 mov	 edx, DWORD PTR _pDev$[ebp]
  003fe	52		 push	 edx
  003ff	ff 91 3c 01 00
	00		 call	 DWORD PTR [ecx+316]
  00405	3b f4		 cmp	 esi, esp
  00407	e8 00 00 00 00	 call	 __RTC_CheckEsp

; 650  : 
; 651  : 	//
; 652  : 	// Set vertex shader:
; 653  : 	//
; 654  : 		pDev->SetVertexShader( m_pRenderData->m_dwShaderRipple );

  0040c	8b 45 f8	 mov	 eax, DWORD PTR _this$[ebp]
  0040f	8b 08		 mov	 ecx, DWORD PTR [eax]
  00411	8b f4		 mov	 esi, esp
  00413	8b 91 5c 01 00
	00		 mov	 edx, DWORD PTR [ecx+348]
  00419	52		 push	 edx
  0041a	8b 45 08	 mov	 eax, DWORD PTR _pDev$[ebp]
  0041d	8b 08		 mov	 ecx, DWORD PTR [eax]
  0041f	8b 55 08	 mov	 edx, DWORD PTR _pDev$[ebp]
  00422	52		 push	 edx
  00423	ff 91 30 01 00
	00		 call	 DWORD PTR [ecx+304]
  00429	3b f4		 cmp	 esi, esp
  0042b	e8 00 00 00 00	 call	 __RTC_CheckEsp

; 655  : 
; 656  : 		hr = pDev->SetStreamSource( 0, pVB, D3DXGetFVFVertexSize(m_pRenderData->m_pMesh->GetFVF()) );

  00430	8b 45 f8	 mov	 eax, DWORD PTR _this$[ebp]
  00433	8b 08		 mov	 ecx, DWORD PTR [eax]
  00435	8b 91 04 01 00
	00		 mov	 edx, DWORD PTR [ecx+260]
  0043b	8b 45 f8	 mov	 eax, DWORD PTR _this$[ebp]
  0043e	8b 08		 mov	 ecx, DWORD PTR [eax]
  00440	8b 81 04 01 00
	00		 mov	 eax, DWORD PTR [ecx+260]
  00446	8b 0a		 mov	 ecx, DWORD PTR [edx]
  00448	8b f4		 mov	 esi, esp
  0044a	50		 push	 eax
  0044b	ff 51 18	 call	 DWORD PTR [ecx+24]
  0044e	3b f4		 cmp	 esi, esp
  00450	e8 00 00 00 00	 call	 __RTC_CheckEsp
  00455	50		 push	 eax
  00456	e8 00 00 00 00	 call	 _D3DXGetFVFVertexSize@4
  0045b	8b f4		 mov	 esi, esp
  0045d	50		 push	 eax
  0045e	8b 95 20 fe ff
	ff		 mov	 edx, DWORD PTR _pVB$[ebp]
  00464	52		 push	 edx
  00465	6a 00		 push	 0
  00467	8b 45 08	 mov	 eax, DWORD PTR _pDev$[ebp]
  0046a	8b 08		 mov	 ecx, DWORD PTR [eax]
  0046c	8b 55 08	 mov	 edx, DWORD PTR _pDev$[ebp]
  0046f	52		 push	 edx
  00470	ff 91 4c 01 00
	00		 call	 DWORD PTR [ecx+332]
  00476	3b f4		 cmp	 esi, esp
  00478	e8 00 00 00 00	 call	 __RTC_CheckEsp
  0047d	89 45 ec	 mov	 DWORD PTR _hr$[ebp], eax

; 657  : 		assert( !FAILED(hr) );

  00480	83 7d ec 00	 cmp	 DWORD PTR _hr$[ebp], 0
  00484	7d 1b		 jge	 SHORT $L85732
  00486	a1 00 00 00 00	 mov	 eax, DWORD PTR ?__LINE__Var@?1??RenderVS@CFileRenderObject@@QAEJPAUIDirect3DDevice8@@MPAKHHPAUD3DXMATRIX@@ABU4@3PAVCCamera@@ABUD3DXVECTOR3@@@Z@4JA
  0048b	83 c0 4f	 add	 eax, 79			; 0000004fH
  0048e	50		 push	 eax
  0048f	68 00 00 00 00	 push	 OFFSET FLAT:??_C@_0FD@HMECEKLE@c?3?2documents?5and?5settings?2dom?2my@
  00494	68 00 00 00 00	 push	 OFFSET FLAT:??_C@_0M@NKNCPJJD@?$CBFAILED?$CIhr?$CJ?$AA@
  00499	e8 00 00 00 00	 call	 __assert
  0049e	83 c4 0c	 add	 esp, 12			; 0000000cH
$L85732:

; 658  : 		hr = pDev->SetIndices( pIB, 0 );

  004a1	8b f4		 mov	 esi, esp
  004a3	6a 00		 push	 0
  004a5	8b 85 14 fe ff
	ff		 mov	 eax, DWORD PTR _pIB$[ebp]
  004ab	50		 push	 eax
  004ac	8b 4d 08	 mov	 ecx, DWORD PTR _pDev$[ebp]
  004af	8b 11		 mov	 edx, DWORD PTR [ecx]
  004b1	8b 45 08	 mov	 eax, DWORD PTR _pDev$[ebp]
  004b4	50		 push	 eax
  004b5	ff 92 54 01 00
	00		 call	 DWORD PTR [edx+340]
  004bb	3b f4		 cmp	 esi, esp
  004bd	e8 00 00 00 00	 call	 __RTC_CheckEsp
  004c2	89 45 ec	 mov	 DWORD PTR _hr$[ebp], eax

; 659  : 		assert( !FAILED(hr) );

  004c5	83 7d ec 00	 cmp	 DWORD PTR _hr$[ebp], 0
  004c9	7d 1b		 jge	 SHORT $L85733
  004cb	a1 00 00 00 00	 mov	 eax, DWORD PTR ?__LINE__Var@?1??RenderVS@CFileRenderObject@@QAEJPAUIDirect3DDevice8@@MPAKHHPAUD3DXMATRIX@@ABU4@3PAVCCamera@@ABUD3DXVECTOR3@@@Z@4JA
  004d0	83 c0 51	 add	 eax, 81			; 00000051H
  004d3	50		 push	 eax
  004d4	68 00 00 00 00	 push	 OFFSET FLAT:??_C@_0FD@HMECEKLE@c?3?2documents?5and?5settings?2dom?2my@
  004d9	68 00 00 00 00	 push	 OFFSET FLAT:??_C@_0M@NKNCPJJD@?$CBFAILED?$CIhr?$CJ?$AA@
  004de	e8 00 00 00 00	 call	 __assert
  004e3	83 c4 0c	 add	 esp, 12			; 0000000cH
$L85733:

; 660  : 
; 661  : 	//
; 662  : 	// Render Subsets:
; 663  : 	//
; 664  : 		for( DWORD i=0 ; i<m_pRenderData->m_dwNumAttr ; i++ )

  004e6	c7 85 e0 fd ff
	ff 00 00 00 00	 mov	 DWORD PTR _i$85559[ebp], 0
  004f0	eb 0f		 jmp	 SHORT $L85560
$L85561:
  004f2	8b 85 e0 fd ff
	ff		 mov	 eax, DWORD PTR _i$85559[ebp]
  004f8	83 c0 01	 add	 eax, 1
  004fb	89 85 e0 fd ff
	ff		 mov	 DWORD PTR _i$85559[ebp], eax
$L85560:
  00501	8b 45 f8	 mov	 eax, DWORD PTR _this$[ebp]
  00504	8b 08		 mov	 ecx, DWORD PTR [eax]
  00506	8b 95 e0 fd ff
	ff		 mov	 edx, DWORD PTR _i$85559[ebp]
  0050c	3b 91 58 01 00
	00		 cmp	 edx, DWORD PTR [ecx+344]
  00512	0f 83 de 00 00
	00		 jae	 $L85562

; 665  : 		{
; 666  : 			if( !bUseDefMaterial)

  00518	83 7d 18 00	 cmp	 DWORD PTR _bUseDefMaterial$[ebp], 0
  0051c	75 31		 jne	 SHORT $L85563

; 667  : 			// c9; material colour;
; 668  : 				pDev->SetVertexShaderConstant( 9, &m_pRenderData->m_mtrlMeshMaterials[i].Diffuse, 1 );

  0051e	8b f4		 mov	 esi, esp
  00520	6a 01		 push	 1
  00522	8b 45 f8	 mov	 eax, DWORD PTR _this$[ebp]
  00525	8b 08		 mov	 ecx, DWORD PTR [eax]
  00527	8b 95 e0 fd ff
	ff		 mov	 edx, DWORD PTR _i$85559[ebp]
  0052d	6b d2 44	 imul	 edx, 68			; 00000044H
  00530	03 91 24 01 00
	00		 add	 edx, DWORD PTR [ecx+292]
  00536	52		 push	 edx
  00537	6a 09		 push	 9
  00539	8b 45 08	 mov	 eax, DWORD PTR _pDev$[ebp]
  0053c	8b 08		 mov	 ecx, DWORD PTR [eax]
  0053e	8b 55 08	 mov	 edx, DWORD PTR _pDev$[ebp]
  00541	52		 push	 edx
  00542	ff 91 3c 01 00
	00		 call	 DWORD PTR [ecx+316]
  00548	3b f4		 cmp	 esi, esp
  0054a	e8 00 00 00 00	 call	 __RTC_CheckEsp
$L85563:

; 669  : 
; 670  : 			pDev->DrawIndexedPrimitive(D3DPT_TRIANGLELIST,
; 671  :                                        m_pRenderData->m_pAttrTable[i].VertexStart,
; 672  :                                        m_pRenderData->m_pAttrTable[i].VertexCount,
; 673  :                                        m_pRenderData->m_pAttrTable[i].FaceStart * 3,
; 674  :                                        m_pRenderData->m_pAttrTable[i].FaceCount );

  0054f	8b 45 f8	 mov	 eax, DWORD PTR _this$[ebp]
  00552	8b 08		 mov	 ecx, DWORD PTR [eax]
  00554	8b 95 e0 fd ff
	ff		 mov	 edx, DWORD PTR _i$85559[ebp]
  0055a	6b d2 14	 imul	 edx, 20			; 00000014H
  0055d	8b 81 54 01 00
	00		 mov	 eax, DWORD PTR [ecx+340]
  00563	8b f4		 mov	 esi, esp
  00565	8b 4c 10 08	 mov	 ecx, DWORD PTR [eax+edx+8]
  00569	51		 push	 ecx
  0056a	8b 55 f8	 mov	 edx, DWORD PTR _this$[ebp]
  0056d	8b 02		 mov	 eax, DWORD PTR [edx]
  0056f	8b 8d e0 fd ff
	ff		 mov	 ecx, DWORD PTR _i$85559[ebp]
  00575	6b c9 14	 imul	 ecx, 20			; 00000014H
  00578	8b 90 54 01 00
	00		 mov	 edx, DWORD PTR [eax+340]
  0057e	8b 44 0a 04	 mov	 eax, DWORD PTR [edx+ecx+4]
  00582	6b c0 03	 imul	 eax, 3
  00585	50		 push	 eax
  00586	8b 4d f8	 mov	 ecx, DWORD PTR _this$[ebp]
  00589	8b 11		 mov	 edx, DWORD PTR [ecx]
  0058b	8b 85 e0 fd ff
	ff		 mov	 eax, DWORD PTR _i$85559[ebp]
  00591	6b c0 14	 imul	 eax, 20			; 00000014H
  00594	8b 8a 54 01 00
	00		 mov	 ecx, DWORD PTR [edx+340]
  0059a	8b 54 01 10	 mov	 edx, DWORD PTR [ecx+eax+16]
  0059e	52		 push	 edx
  0059f	8b 45 f8	 mov	 eax, DWORD PTR _this$[ebp]
  005a2	8b 08		 mov	 ecx, DWORD PTR [eax]
  005a4	8b 95 e0 fd ff
	ff		 mov	 edx, DWORD PTR _i$85559[ebp]
  005aa	6b d2 14	 imul	 edx, 20			; 00000014H
  005ad	8b 81 54 01 00
	00		 mov	 eax, DWORD PTR [ecx+340]
  005b3	8b 4c 10 0c	 mov	 ecx, DWORD PTR [eax+edx+12]
  005b7	51		 push	 ecx
  005b8	6a 04		 push	 4
  005ba	8b 55 08	 mov	 edx, DWORD PTR _pDev$[ebp]
  005bd	8b 02		 mov	 eax, DWORD PTR [edx]
  005bf	8b 4d 08	 mov	 ecx, DWORD PTR _pDev$[ebp]
  005c2	51		 push	 ecx
  005c3	ff 90 1c 01 00
	00		 call	 DWORD PTR [eax+284]
  005c9	3b f4		 cmp	 esi, esp
  005cb	e8 00 00 00 00	 call	 __RTC_CheckEsp

; 675  : 			assert( !FAILED(hr) );

  005d0	83 7d ec 00	 cmp	 DWORD PTR _hr$[ebp], 0
  005d4	7d 1b		 jge	 SHORT $L85734
  005d6	a1 00 00 00 00	 mov	 eax, DWORD PTR ?__LINE__Var@?1??RenderVS@CFileRenderObject@@QAEJPAUIDirect3DDevice8@@MPAKHHPAUD3DXMATRIX@@ABU4@3PAVCCamera@@ABUD3DXVECTOR3@@@Z@4JA
  005db	83 c0 61	 add	 eax, 97			; 00000061H
  005de	50		 push	 eax
  005df	68 00 00 00 00	 push	 OFFSET FLAT:??_C@_0FD@HMECEKLE@c?3?2documents?5and?5settings?2dom?2my@
  005e4	68 00 00 00 00	 push	 OFFSET FLAT:??_C@_0M@NKNCPJJD@?$CBFAILED?$CIhr?$CJ?$AA@
  005e9	e8 00 00 00 00	 call	 __assert
  005ee	83 c4 0c	 add	 esp, 12			; 0000000cH
$L85734:

; 676  : 		}

  005f1	e9 fc fe ff ff	 jmp	 $L85561
$L85562:

; 677  : 
; 678  : 		*pulPolyCount += m_pRenderData->m_dwNumFaces ;

  005f6	8b 45 f8	 mov	 eax, DWORD PTR _this$[ebp]
  005f9	8b 08		 mov	 ecx, DWORD PTR [eax]
  005fb	8b 55 10	 mov	 edx, DWORD PTR _pulPolyCount$[ebp]
  005fe	8b 02		 mov	 eax, DWORD PTR [edx]
  00600	03 81 2c 01 00
	00		 add	 eax, DWORD PTR [ecx+300]
  00606	8b 4d 10	 mov	 ecx, DWORD PTR _pulPolyCount$[ebp]
  00609	89 01		 mov	 DWORD PTR [ecx], eax

; 679  : 		pVB->Release() ;

  0060b	8b 85 20 fe ff
	ff		 mov	 eax, DWORD PTR _pVB$[ebp]
  00611	8b 08		 mov	 ecx, DWORD PTR [eax]
  00613	8b f4		 mov	 esi, esp
  00615	8b 95 20 fe ff
	ff		 mov	 edx, DWORD PTR _pVB$[ebp]
  0061b	52		 push	 edx
  0061c	ff 51 08	 call	 DWORD PTR [ecx+8]
  0061f	3b f4		 cmp	 esi, esp
  00621	e8 00 00 00 00	 call	 __RTC_CheckEsp

; 680  : 		pIB->Release() ;

  00626	8b 85 14 fe ff
	ff		 mov	 eax, DWORD PTR _pIB$[ebp]
  0062c	8b 08		 mov	 ecx, DWORD PTR [eax]
  0062e	8b f4		 mov	 esi, esp
  00630	8b 95 14 fe ff
	ff		 mov	 edx, DWORD PTR _pIB$[ebp]
  00636	52		 push	 edx
  00637	ff 51 08	 call	 DWORD PTR [ecx+8]
  0063a	3b f4		 cmp	 esi, esp
  0063c	e8 00 00 00 00	 call	 __RTC_CheckEsp

; 681  : 
; 682  : 		return S_OK ;

  00641	33 c0		 xor	 eax, eax

; 683  : 	}

  00643	52		 push	 edx
  00644	8b cd		 mov	 ecx, ebp
  00646	50		 push	 eax
  00647	8d 15 00 00 00
	00		 lea	 edx, DWORD PTR $L85747
  0064d	e8 00 00 00 00	 call	 @_RTC_CheckStackVars@8
  00652	58		 pop	 eax
  00653	5a		 pop	 edx
  00654	5f		 pop	 edi
  00655	5e		 pop	 esi
  00656	5b		 pop	 ebx
  00657	81 c4 28 03 00
	00		 add	 esp, 808		; 00000328H
  0065d	3b ec		 cmp	 ebp, esp
  0065f	e8 00 00 00 00	 call	 __RTC_CheckEsp
  00664	8b e5		 mov	 esp, ebp
  00666	5d		 pop	 ebp
  00667	c2 28 00	 ret	 40			; 00000028H
$L85747:
  0066a	0b 00 00 00	 DD	 11			; 0000000bH
  0066e	00 00 00 00	 DD	 $L85746
$L85746:
  00672	a0 ff ff ff	 DD	 -96			; ffffffa0H
  00676	40 00 00 00	 DD	 64			; 00000040H
  0067a	00 00 00 00	 DD	 $L85735
  0067e	58 ff ff ff	 DD	 -168			; ffffff58H
  00682	40 00 00 00	 DD	 64			; 00000040H
  00686	00 00 00 00	 DD	 $L85736
  0068a	10 ff ff ff	 DD	 -240			; ffffff10H
  0068e	40 00 00 00	 DD	 64			; 00000040H
  00692	00 00 00 00	 DD	 $L85737
  00696	c8 fe ff ff	 DD	 -312			; fffffec8H
  0069a	40 00 00 00	 DD	 64			; 00000040H
  0069e	00 00 00 00	 DD	 $L85738
  006a2	80 fe ff ff	 DD	 -384			; fffffe80H
  006a6	40 00 00 00	 DD	 64			; 00000040H
  006aa	00 00 00 00	 DD	 $L85739
  006ae	38 fe ff ff	 DD	 -456			; fffffe38H
  006b2	40 00 00 00	 DD	 64			; 00000040H
  006b6	00 00 00 00	 DD	 $L85740
  006ba	2c fe ff ff	 DD	 -468			; fffffe2cH
  006be	04 00 00 00	 DD	 4
  006c2	00 00 00 00	 DD	 $L85741
  006c6	20 fe ff ff	 DD	 -480			; fffffe20H
  006ca	04 00 00 00	 DD	 4
  006ce	00 00 00 00	 DD	 $L85742
  006d2	14 fe ff ff	 DD	 -492			; fffffe14H
  006d6	04 00 00 00	 DD	 4
  006da	00 00 00 00	 DD	 $L85743
  006de	00 fe ff ff	 DD	 -512			; fffffe00H
  006e2	0c 00 00 00	 DD	 12			; 0000000cH
  006e6	00 00 00 00	 DD	 $L85744
  006ea	ec fd ff ff	 DD	 -532			; fffffdecH
  006ee	0c 00 00 00	 DD	 12			; 0000000cH
  006f2	00 00 00 00	 DD	 $L85745
$L85745:
  006f6	76		 DB	 118			; 00000076H
  006f7	48		 DB	 72			; 00000048H
  006f8	61		 DB	 97			; 00000061H
  006f9	6c		 DB	 108			; 0000006cH
  006fa	66		 DB	 102			; 00000066H
  006fb	77		 DB	 119			; 00000077H
  006fc	61		 DB	 97			; 00000061H
  006fd	79		 DB	 121			; 00000079H
  006fe	00		 DB	 0
$L85744:
  006ff	76		 DB	 118			; 00000076H
  00700	54		 DB	 84			; 00000054H
  00701	6f		 DB	 111			; 0000006fH
  00702	45		 DB	 69			; 00000045H
  00703	79		 DB	 121			; 00000079H
  00704	65		 DB	 101			; 00000065H
  00705	00		 DB	 0
$L85743:
  00706	70		 DB	 112			; 00000070H
  00707	49		 DB	 73			; 00000049H
  00708	42		 DB	 66			; 00000042H
  00709	00		 DB	 0
$L85742:
  0070a	70		 DB	 112			; 00000070H
  0070b	56		 DB	 86			; 00000056H
  0070c	42		 DB	 66			; 00000042H
  0070d	00		 DB	 0
$L85741:
  0070e	66		 DB	 102			; 00000066H
  0070f	44		 DB	 68			; 00000044H
  00710	00		 DB	 0
$L85740:
  00711	6d		 DB	 109			; 0000006dH
  00712	61		 DB	 97			; 00000061H
  00713	74		 DB	 116			; 00000074H
  00714	57		 DB	 87			; 00000057H
  00715	6f		 DB	 111			; 0000006fH
  00716	72		 DB	 114			; 00000072H
  00717	6c		 DB	 108			; 0000006cH
  00718	64		 DB	 100			; 00000064H
  00719	54		 DB	 84			; 00000054H
  0071a	00		 DB	 0
$L85739:
  0071b	6d		 DB	 109			; 0000006dH
  0071c	61		 DB	 97			; 00000061H
  0071d	74		 DB	 116			; 00000074H
  0071e	57		 DB	 87			; 00000057H
  0071f	6f		 DB	 111			; 0000006fH
  00720	72		 DB	 114			; 00000072H
  00721	6c		 DB	 108			; 0000006cH
  00722	64		 DB	 100			; 00000064H
  00723	49		 DB	 73			; 00000049H
  00724	54		 DB	 84			; 00000054H
  00725	00		 DB	 0
$L85738:
  00726	6d		 DB	 109			; 0000006dH
  00727	61		 DB	 97			; 00000061H
  00728	74		 DB	 116			; 00000074H
  00729	57		 DB	 87			; 00000057H
  0072a	6f		 DB	 111			; 0000006fH
  0072b	72		 DB	 114			; 00000072H
  0072c	6c		 DB	 108			; 0000006cH
  0072d	64		 DB	 100			; 00000064H
  0072e	49		 DB	 73			; 00000049H
  0072f	00		 DB	 0
$L85737:
  00730	6d		 DB	 109			; 0000006dH
  00731	61		 DB	 97			; 00000061H
  00732	74		 DB	 116			; 00000074H
  00733	57		 DB	 87			; 00000057H
  00734	6f		 DB	 111			; 0000006fH
  00735	72		 DB	 114			; 00000072H
  00736	6c		 DB	 108			; 0000006cH
  00737	64		 DB	 100			; 00000064H
  00738	56		 DB	 86			; 00000056H
  00739	69		 DB	 105			; 00000069H
  0073a	65		 DB	 101			; 00000065H
  0073b	77		 DB	 119			; 00000077H
  0073c	50		 DB	 80			; 00000050H
  0073d	72		 DB	 114			; 00000072H
  0073e	6f		 DB	 111			; 0000006fH
  0073f	6a		 DB	 106			; 0000006aH
  00740	00		 DB	 0
$L85736:
  00741	6d		 DB	 109			; 0000006dH
  00742	61		 DB	 97			; 00000061H
  00743	74		 DB	 116			; 00000074H
  00744	54		 DB	 84			; 00000054H
  00745	65		 DB	 101			; 00000065H
  00746	6d		 DB	 109			; 0000006dH
  00747	70		 DB	 112			; 00000070H
  00748	00		 DB	 0
$L85735:
  00749	6d		 DB	 109			; 0000006dH
  0074a	61		 DB	 97			; 00000061H
  0074b	74		 DB	 116			; 00000074H
  0074c	43		 DB	 67			; 00000043H
  0074d	6f		 DB	 111			; 0000006fH
  0074e	6d		 DB	 109			; 0000006dH
  0074f	62		 DB	 98			; 00000062H
  00750	69		 DB	 105			; 00000069H
  00751	6e		 DB	 110			; 0000006eH
  00752	65		 DB	 101			; 00000065H
  00753	64		 DB	 100			; 00000064H
  00754	57		 DB	 87			; 00000057H
  00755	6f		 DB	 111			; 0000006fH
  00756	72		 DB	 114			; 00000072H
  00757	6c		 DB	 108			; 0000006cH
  00758	64		 DB	 100			; 00000064H
  00759	00		 DB	 0
?RenderVS@CFileRenderObject@@QAEJPAUIDirect3DDevice8@@MPAKHHPAUD3DXMATRIX@@ABU3@3PAVCCamera@@ABUD3DXVECTOR3@@@Z ENDP ; CFileRenderObject::RenderVS
_TEXT	ENDS
PUBLIC	??0D3DXVECTOR3@@QAE@MMM@Z			; D3DXVECTOR3::D3DXVECTOR3
; Function compile flags: /Odt /RTCsu /ZI
; File c:\dxsdk\include\d3dx8math.inl
;	COMDAT ??GD3DXVECTOR3@@QBE?AU0@XZ
_TEXT	SEGMENT
_this$ = -8
___$ReturnUdt$ = 8
??GD3DXVECTOR3@@QBE?AU0@XZ PROC NEAR			; D3DXVECTOR3::operator-, COMDAT
; _this$ = ecx

; 248  : {

  00000	55		 push	 ebp
  00001	8b ec		 mov	 ebp, esp
  00003	81 ec cc 00 00
	00		 sub	 esp, 204		; 000000ccH
  00009	53		 push	 ebx
  0000a	56		 push	 esi
  0000b	57		 push	 edi
  0000c	51		 push	 ecx
  0000d	8d bd 34 ff ff
	ff		 lea	 edi, DWORD PTR [ebp-204]
  00013	b9 33 00 00 00	 mov	 ecx, 51			; 00000033H
  00018	b8 cc cc cc cc	 mov	 eax, -858993460		; ccccccccH
  0001d	f3 ab		 rep stosd
  0001f	59		 pop	 ecx
  00020	89 4d f8	 mov	 DWORD PTR _this$[ebp], ecx

; 249  :     return D3DXVECTOR3(-x, -y, -z);

  00023	8b 45 f8	 mov	 eax, DWORD PTR _this$[ebp]
  00026	d9 40 08	 fld	 DWORD PTR [eax+8]
  00029	d9 e0		 fchs
  0002b	51		 push	 ecx
  0002c	d9 1c 24	 fstp	 DWORD PTR [esp]
  0002f	8b 4d f8	 mov	 ecx, DWORD PTR _this$[ebp]
  00032	d9 41 04	 fld	 DWORD PTR [ecx+4]
  00035	d9 e0		 fchs
  00037	51		 push	 ecx
  00038	d9 1c 24	 fstp	 DWORD PTR [esp]
  0003b	8b 55 f8	 mov	 edx, DWORD PTR _this$[ebp]
  0003e	d9 02		 fld	 DWORD PTR [edx]
  00040	d9 e0		 fchs
  00042	51		 push	 ecx
  00043	d9 1c 24	 fstp	 DWORD PTR [esp]
  00046	8b 4d 08	 mov	 ecx, DWORD PTR ___$ReturnUdt$[ebp]
  00049	e8 00 00 00 00	 call	 ??0D3DXVECTOR3@@QAE@MMM@Z ; D3DXVECTOR3::D3DXVECTOR3
  0004e	8b 45 08	 mov	 eax, DWORD PTR ___$ReturnUdt$[ebp]

; 250  : }

  00051	5f		 pop	 edi
  00052	5e		 pop	 esi
  00053	5b		 pop	 ebx
  00054	81 c4 cc 00 00
	00		 add	 esp, 204		; 000000ccH
  0005a	3b ec		 cmp	 ebp, esp
  0005c	e8 00 00 00 00	 call	 __RTC_CheckEsp
  00061	8b e5		 mov	 esp, ebp
  00063	5d		 pop	 ebp
  00064	c2 04 00	 ret	 4
??GD3DXVECTOR3@@QBE?AU0@XZ ENDP				; D3DXVECTOR3::operator-
; Function compile flags: /Odt /RTCsu /ZI
_TEXT	ENDS
;	COMDAT ??0D3DXVECTOR3@@QAE@MMM@Z
_TEXT	SEGMENT
_this$ = -8
_fx$ = 8
_fy$ = 12
_fz$ = 16
??0D3DXVECTOR3@@QAE@MMM@Z PROC NEAR			; D3DXVECTOR3::D3DXVECTOR3, COMDAT
; _this$ = ecx

; 179  : {

  00000	55		 push	 ebp
  00001	8b ec		 mov	 ebp, esp
  00003	81 ec cc 00 00
	00		 sub	 esp, 204		; 000000ccH
  00009	53		 push	 ebx
  0000a	56		 push	 esi
  0000b	57		 push	 edi
  0000c	51		 push	 ecx
  0000d	8d bd 34 ff ff
	ff		 lea	 edi, DWORD PTR [ebp-204]
  00013	b9 33 00 00 00	 mov	 ecx, 51			; 00000033H
  00018	b8 cc cc cc cc	 mov	 eax, -858993460		; ccccccccH
  0001d	f3 ab		 rep stosd
  0001f	59		 pop	 ecx
  00020	89 4d f8	 mov	 DWORD PTR _this$[ebp], ecx

; 180  :     x = fx;

  00023	8b 45 f8	 mov	 eax, DWORD PTR _this$[ebp]
  00026	8b 4d 08	 mov	 ecx, DWORD PTR _fx$[ebp]
  00029	89 08		 mov	 DWORD PTR [eax], ecx

; 181  :     y = fy;

  0002b	8b 45 f8	 mov	 eax, DWORD PTR _this$[ebp]
  0002e	8b 4d 0c	 mov	 ecx, DWORD PTR _fy$[ebp]
  00031	89 48 04	 mov	 DWORD PTR [eax+4], ecx

; 182  :     z = fz;

  00034	8b 45 f8	 mov	 eax, DWORD PTR _this$[ebp]
  00037	8b 4d 10	 mov	 ecx, DWORD PTR _fz$[ebp]
  0003a	89 48 08	 mov	 DWORD PTR [eax+8], ecx

; 183  : }

  0003d	8b 45 f8	 mov	 eax, DWORD PTR _this$[ebp]
  00040	5f		 pop	 edi
  00041	5e		 pop	 esi
  00042	5b		 pop	 ebx
  00043	8b e5		 mov	 esp, ebp
  00045	5d		 pop	 ebp
  00046	c2 0c 00	 ret	 12			; 0000000cH
??0D3DXVECTOR3@@QAE@MMM@Z ENDP				; D3DXVECTOR3::D3DXVECTOR3
; Function compile flags: /Odt /RTCsu /ZI
_TEXT	ENDS
;	COMDAT ??HD3DXVECTOR3@@QBE?AU0@ABU0@@Z
_TEXT	SEGMENT
_this$ = -8
___$ReturnUdt$ = 8
_v$ = 12
??HD3DXVECTOR3@@QBE?AU0@ABU0@@Z PROC NEAR		; D3DXVECTOR3::operator+, COMDAT
; _this$ = ecx

; 256  : {

  00000	55		 push	 ebp
  00001	8b ec		 mov	 ebp, esp
  00003	81 ec cc 00 00
	00		 sub	 esp, 204		; 000000ccH
  00009	53		 push	 ebx
  0000a	56		 push	 esi
  0000b	57		 push	 edi
  0000c	51		 push	 ecx
  0000d	8d bd 34 ff ff
	ff		 lea	 edi, DWORD PTR [ebp-204]
  00013	b9 33 00 00 00	 mov	 ecx, 51			; 00000033H
  00018	b8 cc cc cc cc	 mov	 eax, -858993460		; ccccccccH
  0001d	f3 ab		 rep stosd
  0001f	59		 pop	 ecx
  00020	89 4d f8	 mov	 DWORD PTR _this$[ebp], ecx

; 257  :     return D3DXVECTOR3(x + v.x, y + v.y, z + v.z);

  00023	8b 45 f8	 mov	 eax, DWORD PTR _this$[ebp]
  00026	8b 4d 0c	 mov	 ecx, DWORD PTR _v$[ebp]
  00029	d9 40 08	 fld	 DWORD PTR [eax+8]
  0002c	d8 41 08	 fadd	 DWORD PTR [ecx+8]
  0002f	51		 push	 ecx
  00030	d9 1c 24	 fstp	 DWORD PTR [esp]
  00033	8b 55 f8	 mov	 edx, DWORD PTR _this$[ebp]
  00036	8b 45 0c	 mov	 eax, DWORD PTR _v$[ebp]
  00039	d9 42 04	 fld	 DWORD PTR [edx+4]
  0003c	d8 40 04	 fadd	 DWORD PTR [eax+4]
  0003f	51		 push	 ecx
  00040	d9 1c 24	 fstp	 DWORD PTR [esp]
  00043	8b 4d f8	 mov	 ecx, DWORD PTR _this$[ebp]
  00046	8b 55 0c	 mov	 edx, DWORD PTR _v$[ebp]
  00049	d9 01		 fld	 DWORD PTR [ecx]
  0004b	d8 02		 fadd	 DWORD PTR [edx]
  0004d	51		 push	 ecx
  0004e	d9 1c 24	 fstp	 DWORD PTR [esp]
  00051	8b 4d 08	 mov	 ecx, DWORD PTR ___$ReturnUdt$[ebp]
  00054	e8 00 00 00 00	 call	 ??0D3DXVECTOR3@@QAE@MMM@Z ; D3DXVECTOR3::D3DXVECTOR3
  00059	8b 45 08	 mov	 eax, DWORD PTR ___$ReturnUdt$[ebp]

; 258  : }

  0005c	5f		 pop	 edi
  0005d	5e		 pop	 esi
  0005e	5b		 pop	 ebx
  0005f	81 c4 cc 00 00
	00		 add	 esp, 204		; 000000ccH
  00065	3b ec		 cmp	 ebp, esp
  00067	e8 00 00 00 00	 call	 __RTC_CheckEsp
  0006c	8b e5		 mov	 esp, ebp
  0006e	5d		 pop	 ebp
  0006f	c2 08 00	 ret	 8
??HD3DXVECTOR3@@QBE?AU0@ABU0@@Z ENDP			; D3DXVECTOR3::operator+
; Function compile flags: /Odt /RTCsu /ZI
_TEXT	ENDS
;	COMDAT ??GD3DXVECTOR3@@QBE?AU0@ABU0@@Z
_TEXT	SEGMENT
_this$ = -8
___$ReturnUdt$ = 8
_v$ = 12
??GD3DXVECTOR3@@QBE?AU0@ABU0@@Z PROC NEAR		; D3DXVECTOR3::operator-, COMDAT
; _this$ = ecx

; 262  : {

  00000	55		 push	 ebp
  00001	8b ec		 mov	 ebp, esp
  00003	81 ec cc 00 00
	00		 sub	 esp, 204		; 000000ccH
  00009	53		 push	 ebx
  0000a	56		 push	 esi
  0000b	57		 push	 edi
  0000c	51		 push	 ecx
  0000d	8d bd 34 ff ff
	ff		 lea	 edi, DWORD PTR [ebp-204]
  00013	b9 33 00 00 00	 mov	 ecx, 51			; 00000033H
  00018	b8 cc cc cc cc	 mov	 eax, -858993460		; ccccccccH
  0001d	f3 ab		 rep stosd
  0001f	59		 pop	 ecx
  00020	89 4d f8	 mov	 DWORD PTR _this$[ebp], ecx

; 263  :     return D3DXVECTOR3(x - v.x, y - v.y, z - v.z);

  00023	8b 45 f8	 mov	 eax, DWORD PTR _this$[ebp]
  00026	8b 4d 0c	 mov	 ecx, DWORD PTR _v$[ebp]
  00029	d9 40 08	 fld	 DWORD PTR [eax+8]
  0002c	d8 61 08	 fsub	 DWORD PTR [ecx+8]
  0002f	51		 push	 ecx
  00030	d9 1c 24	 fstp	 DWORD PTR [esp]
  00033	8b 55 f8	 mov	 edx, DWORD PTR _this$[ebp]
  00036	8b 45 0c	 mov	 eax, DWORD PTR _v$[ebp]
  00039	d9 42 04	 fld	 DWORD PTR [edx+4]
  0003c	d8 60 04	 fsub	 DWORD PTR [eax+4]
  0003f	51		 push	 ecx
  00040	d9 1c 24	 fstp	 DWORD PTR [esp]
  00043	8b 4d f8	 mov	 ecx, DWORD PTR _this$[ebp]
  00046	8b 55 0c	 mov	 edx, DWORD PTR _v$[ebp]
  00049	d9 01		 fld	 DWORD PTR [ecx]
  0004b	d8 22		 fsub	 DWORD PTR [edx]
  0004d	51		 push	 ecx
  0004e	d9 1c 24	 fstp	 DWORD PTR [esp]
  00051	8b 4d 08	 mov	 ecx, DWORD PTR ___$ReturnUdt$[ebp]
  00054	e8 00 00 00 00	 call	 ??0D3DXVECTOR3@@QAE@MMM@Z ; D3DXVECTOR3::D3DXVECTOR3
  00059	8b 45 08	 mov	 eax, DWORD PTR ___$ReturnUdt$[ebp]

; 264  : }

  0005c	5f		 pop	 edi
  0005d	5e		 pop	 esi
  0005e	5b		 pop	 ebx
  0005f	81 c4 cc 00 00
	00		 add	 esp, 204		; 000000ccH
  00065	3b ec		 cmp	 ebp, esp
  00067	e8 00 00 00 00	 call	 __RTC_CheckEsp
  0006c	8b e5		 mov	 esp, ebp
  0006e	5d		 pop	 ebp
  0006f	c2 08 00	 ret	 8
??GD3DXVECTOR3@@QBE?AU0@ABU0@@Z ENDP			; D3DXVECTOR3::operator-
; Function compile flags: /Odt /RTCsu /ZI
_TEXT	ENDS
;	COMDAT ??0D3DXVECTOR4@@QAE@MMMM@Z
_TEXT	SEGMENT
_this$ = -8
_fx$ = 8
_fy$ = 12
_fz$ = 16
_fw$ = 20
??0D3DXVECTOR4@@QAE@MMMM@Z PROC NEAR			; D3DXVECTOR4::D3DXVECTOR4, COMDAT
; _this$ = ecx

; 320  : {

  00000	55		 push	 ebp
  00001	8b ec		 mov	 ebp, esp
  00003	81 ec cc 00 00
	00		 sub	 esp, 204		; 000000ccH
  00009	53		 push	 ebx
  0000a	56		 push	 esi
  0000b	57		 push	 edi
  0000c	51		 push	 ecx
  0000d	8d bd 34 ff ff
	ff		 lea	 edi, DWORD PTR [ebp-204]
  00013	b9 33 00 00 00	 mov	 ecx, 51			; 00000033H
  00018	b8 cc cc cc cc	 mov	 eax, -858993460		; ccccccccH
  0001d	f3 ab		 rep stosd
  0001f	59		 pop	 ecx
  00020	89 4d f8	 mov	 DWORD PTR _this$[ebp], ecx

; 321  :     x = fx;

  00023	8b 45 f8	 mov	 eax, DWORD PTR _this$[ebp]
  00026	8b 4d 08	 mov	 ecx, DWORD PTR _fx$[ebp]
  00029	89 08		 mov	 DWORD PTR [eax], ecx

; 322  :     y = fy;

  0002b	8b 45 f8	 mov	 eax, DWORD PTR _this$[ebp]
  0002e	8b 4d 0c	 mov	 ecx, DWORD PTR _fy$[ebp]
  00031	89 48 04	 mov	 DWORD PTR [eax+4], ecx

; 323  :     z = fz;

  00034	8b 45 f8	 mov	 eax, DWORD PTR _this$[ebp]
  00037	8b 4d 10	 mov	 ecx, DWORD PTR _fz$[ebp]
  0003a	89 48 08	 mov	 DWORD PTR [eax+8], ecx

; 324  :     w = fw;

  0003d	8b 45 f8	 mov	 eax, DWORD PTR _this$[ebp]
  00040	8b 4d 14	 mov	 ecx, DWORD PTR _fw$[ebp]
  00043	89 48 0c	 mov	 DWORD PTR [eax+12], ecx

; 325  : }

  00046	8b 45 f8	 mov	 eax, DWORD PTR _this$[ebp]
  00049	5f		 pop	 edi
  0004a	5e		 pop	 esi
  0004b	5b		 pop	 ebx
  0004c	8b e5		 mov	 esp, ebp
  0004e	5d		 pop	 ebp
  0004f	c2 10 00	 ret	 16			; 00000010H
??0D3DXVECTOR4@@QAE@MMMM@Z ENDP				; D3DXVECTOR4::D3DXVECTOR4
; Function compile flags: /Odt /RTCsu /ZI
_TEXT	ENDS
;	COMDAT ??RD3DXMATRIX@@QAEAAMII@Z
_TEXT	SEGMENT
_this$ = -8
_iRow$ = 8
_iCol$ = 12
??RD3DXMATRIX@@QAEAAMII@Z PROC NEAR			; D3DXMATRIX::operator(), COMDAT
; _this$ = ecx

; 483  : {

  00000	55		 push	 ebp
  00001	8b ec		 mov	 ebp, esp
  00003	81 ec cc 00 00
	00		 sub	 esp, 204		; 000000ccH
  00009	53		 push	 ebx
  0000a	56		 push	 esi
  0000b	57		 push	 edi
  0000c	51		 push	 ecx
  0000d	8d bd 34 ff ff
	ff		 lea	 edi, DWORD PTR [ebp-204]
  00013	b9 33 00 00 00	 mov	 ecx, 51			; 00000033H
  00018	b8 cc cc cc cc	 mov	 eax, -858993460		; ccccccccH
  0001d	f3 ab		 rep stosd
  0001f	59		 pop	 ecx
  00020	89 4d f8	 mov	 DWORD PTR _this$[ebp], ecx

; 484  :     return m[iRow][iCol];

  00023	8b 45 08	 mov	 eax, DWORD PTR _iRow$[ebp]
  00026	c1 e0 04	 shl	 eax, 4
  00029	8b 4d f8	 mov	 ecx, DWORD PTR _this$[ebp]
  0002c	03 c8		 add	 ecx, eax
  0002e	8b 55 0c	 mov	 edx, DWORD PTR _iCol$[ebp]
  00031	8d 04 91	 lea	 eax, DWORD PTR [ecx+edx*4]

; 485  : }

  00034	5f		 pop	 edi
  00035	5e		 pop	 esi
  00036	5b		 pop	 ebx
  00037	8b e5		 mov	 esp, ebp
  00039	5d		 pop	 ebp
  0003a	c2 08 00	 ret	 8
??RD3DXMATRIX@@QAEAAMII@Z ENDP				; D3DXMATRIX::operator()
; Function compile flags: /Odt /RTCsu /ZI
_TEXT	ENDS
;	COMDAT ?D3DXMatrixIdentity@@YAPAUD3DXMATRIX@@PAU1@@Z
_TEXT	SEGMENT
_pOut$ = 8
?D3DXMatrixIdentity@@YAPAUD3DXMATRIX@@PAU1@@Z PROC NEAR	; D3DXMatrixIdentity, COMDAT

; 1510 : {

  00000	55		 push	 ebp
  00001	8b ec		 mov	 ebp, esp
  00003	81 ec c0 00 00
	00		 sub	 esp, 192		; 000000c0H
  00009	53		 push	 ebx
  0000a	56		 push	 esi
  0000b	57		 push	 edi
  0000c	8d bd 40 ff ff
	ff		 lea	 edi, DWORD PTR [ebp-192]
  00012	b9 30 00 00 00	 mov	 ecx, 48			; 00000030H
  00017	b8 cc cc cc cc	 mov	 eax, -858993460		; ccccccccH
  0001c	f3 ab		 rep stosd

; 1511 : #ifdef D3DX_DEBUG
; 1512 :     if(!pOut)
; 1513 :         return NULL;
; 1514 : #endif
; 1515 : 
; 1516 :     pOut->m[0][1] = pOut->m[0][2] = pOut->m[0][3] =
; 1517 :     pOut->m[1][0] = pOut->m[1][2] = pOut->m[1][3] =
; 1518 :     pOut->m[2][0] = pOut->m[2][1] = pOut->m[2][3] =
; 1519 :     pOut->m[3][0] = pOut->m[3][1] = pOut->m[3][2] = 0.0f;

  0001e	8b 45 08	 mov	 eax, DWORD PTR _pOut$[ebp]
  00021	c7 40 38 00 00
	00 00		 mov	 DWORD PTR [eax+56], 0
  00028	8b 4d 08	 mov	 ecx, DWORD PTR _pOut$[ebp]
  0002b	c7 41 34 00 00
	00 00		 mov	 DWORD PTR [ecx+52], 0
  00032	8b 55 08	 mov	 edx, DWORD PTR _pOut$[ebp]
  00035	c7 42 30 00 00
	00 00		 mov	 DWORD PTR [edx+48], 0
  0003c	8b 45 08	 mov	 eax, DWORD PTR _pOut$[ebp]
  0003f	c7 40 2c 00 00
	00 00		 mov	 DWORD PTR [eax+44], 0
  00046	8b 4d 08	 mov	 ecx, DWORD PTR _pOut$[ebp]
  00049	c7 41 24 00 00
	00 00		 mov	 DWORD PTR [ecx+36], 0
  00050	8b 55 08	 mov	 edx, DWORD PTR _pOut$[ebp]
  00053	c7 42 20 00 00
	00 00		 mov	 DWORD PTR [edx+32], 0
  0005a	8b 45 08	 mov	 eax, DWORD PTR _pOut$[ebp]
  0005d	c7 40 1c 00 00
	00 00		 mov	 DWORD PTR [eax+28], 0
  00064	8b 4d 08	 mov	 ecx, DWORD PTR _pOut$[ebp]
  00067	c7 41 18 00 00
	00 00		 mov	 DWORD PTR [ecx+24], 0
  0006e	8b 55 08	 mov	 edx, DWORD PTR _pOut$[ebp]
  00071	c7 42 10 00 00
	00 00		 mov	 DWORD PTR [edx+16], 0
  00078	8b 45 08	 mov	 eax, DWORD PTR _pOut$[ebp]
  0007b	c7 40 0c 00 00
	00 00		 mov	 DWORD PTR [eax+12], 0
  00082	8b 4d 08	 mov	 ecx, DWORD PTR _pOut$[ebp]
  00085	c7 41 08 00 00
	00 00		 mov	 DWORD PTR [ecx+8], 0
  0008c	8b 55 08	 mov	 edx, DWORD PTR _pOut$[ebp]
  0008f	c7 42 04 00 00
	00 00		 mov	 DWORD PTR [edx+4], 0

; 1520 : 
; 1521 :     pOut->m[0][0] = pOut->m[1][1] = pOut->m[2][2] = pOut->m[3][3] = 1.0f;

  00096	8b 45 08	 mov	 eax, DWORD PTR _pOut$[ebp]
  00099	c7 40 3c 00 00
	80 3f		 mov	 DWORD PTR [eax+60], 1065353216 ; 3f800000H
  000a0	8b 4d 08	 mov	 ecx, DWORD PTR _pOut$[ebp]
  000a3	c7 41 28 00 00
	80 3f		 mov	 DWORD PTR [ecx+40], 1065353216 ; 3f800000H
  000aa	8b 55 08	 mov	 edx, DWORD PTR _pOut$[ebp]
  000ad	c7 42 14 00 00
	80 3f		 mov	 DWORD PTR [edx+20], 1065353216 ; 3f800000H
  000b4	8b 45 08	 mov	 eax, DWORD PTR _pOut$[ebp]
  000b7	c7 00 00 00 80
	3f		 mov	 DWORD PTR [eax], 1065353216 ; 3f800000H

; 1522 :     return pOut;

  000bd	8b 45 08	 mov	 eax, DWORD PTR _pOut$[ebp]

; 1523 : }

  000c0	5f		 pop	 edi
  000c1	5e		 pop	 esi
  000c2	5b		 pop	 ebx
  000c3	8b e5		 mov	 esp, ebp
  000c5	5d		 pop	 ebp
  000c6	c3		 ret	 0
?D3DXMatrixIdentity@@YAPAUD3DXMATRIX@@PAU1@@Z ENDP	; D3DXMatrixIdentity
_TEXT	ENDS
END
