; Listing generated by Microsoft (R) Optimizing Compiler Version 13.00.9466 

	TITLE	CHUDText.cpp
	.386P
include listing.inc
if @Version gt 510
.model FLAT
else
_TEXT	SEGMENT PARA USE32 PUBLIC 'CODE'
_TEXT	ENDS
_DATA	SEGMENT DWORD USE32 PUBLIC 'DATA'
_DATA	ENDS
CONST	SEGMENT DWORD USE32 PUBLIC 'CONST'
CONST	ENDS
_BSS	SEGMENT DWORD USE32 PUBLIC 'BSS'
_BSS	ENDS
$$SYMBOLS	SEGMENT BYTE USE32 'DEBSYM'
$$SYMBOLS	ENDS
$$TYPES	SEGMENT BYTE USE32 'DEBTYP'
$$TYPES	ENDS
_TLS	SEGMENT DWORD USE32 PUBLIC 'TLS'
_TLS	ENDS
;	COMDAT ??_C@_0CA@GEELEDBD@CHUDText?3?3RestoreDeviceObjects?6?$AA@
CONST	SEGMENT DWORD USE32 PUBLIC 'CONST'
CONST	ENDS
;	COMDAT ??_C@_0EK@LDBMFJIP@c?3?2documents?5and?5settings?2dom?2my@
CONST	SEGMENT DWORD USE32 PUBLIC 'CONST'
CONST	ENDS
;	COMDAT ??_C@_0CF@CJOMHKMC@?$CIsigned?$CJstrlen?$CIm_szText?$CJ?5?$DN?$DN?5m_nC@
CONST	SEGMENT DWORD USE32 PUBLIC 'CONST'
CONST	ENDS
;	COMDAT _IsEqualGUID
_TEXT	SEGMENT PARA USE32 PUBLIC 'CODE'
_TEXT	ENDS
;	COMDAT _==
_TEXT	SEGMENT PARA USE32 PUBLIC 'CODE'
_TEXT	ENDS
;	COMDAT _sqrtf
_TEXT	SEGMENT PARA USE32 PUBLIC 'CODE'
_TEXT	ENDS
;	COMDAT ??0D3DXVECTOR3@@QAE@XZ
_TEXT	SEGMENT PARA USE32 PUBLIC 'CODE'
_TEXT	ENDS
;	COMDAT ??0D3DXMATRIX@@QAE@XZ
_TEXT	SEGMENT PARA USE32 PUBLIC 'CODE'
_TEXT	ENDS
;	COMDAT ??0D3DXQUATERNION@@QAE@XZ
_TEXT	SEGMENT PARA USE32 PUBLIC 'CODE'
_TEXT	ENDS
;	COMDAT ??0D3DXVECTOR2@@QAE@MM@Z
_TEXT	SEGMENT PARA USE32 PUBLIC 'CODE'
_TEXT	ENDS
;	COMDAT ??0D3DXVECTOR3@@QAE@MMM@Z
_TEXT	SEGMENT PARA USE32 PUBLIC 'CODE'
_TEXT	ENDS
;	COMDAT ??0D3DXVECTOR4@@QAE@MMMM@Z
_TEXT	SEGMENT PARA USE32 PUBLIC 'CODE'
_TEXT	ENDS
;	COMDAT ??0D3DXMATRIX@@QAE@PBM@Z
_TEXT	SEGMENT PARA USE32 PUBLIC 'CODE'
_TEXT	ENDS
;	COMDAT ??0D3DXMATRIX@@QAE@ABU_D3DMATRIX@@@Z
_TEXT	SEGMENT PARA USE32 PUBLIC 'CODE'
_TEXT	ENDS
;	COMDAT ??0D3DXMATRIX@@QAE@MMMMMMMMMMMMMMMM@Z
_TEXT	SEGMENT PARA USE32 PUBLIC 'CODE'
_TEXT	ENDS
;	COMDAT ??0D3DXQUATERNION@@QAE@MMMM@Z
_TEXT	SEGMENT PARA USE32 PUBLIC 'CODE'
_TEXT	ENDS
;	COMDAT ??0D3DXPLANE@@QAE@MMMM@Z
_TEXT	SEGMENT PARA USE32 PUBLIC 'CODE'
_TEXT	ENDS
;	COMDAT ??0D3DXCOLOR@@QAE@MMMM@Z
_TEXT	SEGMENT PARA USE32 PUBLIC 'CODE'
_TEXT	ENDS
;	COMDAT ??0CHUDText@@QAE@PADHMMMMMH@Z
_TEXT	SEGMENT PARA USE32 PUBLIC 'CODE'
_TEXT	ENDS
;	COMDAT ??1CHUDText@@QAE@XZ
_TEXT	SEGMENT PARA USE32 PUBLIC 'CODE'
_TEXT	ENDS
;	COMDAT ?Enable@CHUDText@@QAEHH@Z
_TEXT	SEGMENT PARA USE32 PUBLIC 'CODE'
_TEXT	ENDS
;	COMDAT ?SetFrameMoveRequired@CHUDText@@QAEHH@Z
_TEXT	SEGMENT PARA USE32 PUBLIC 'CODE'
_TEXT	ENDS
;	COMDAT ?RestoreDeviceObjects@CHUDText@@QAEJPAUIDirect3DDevice8@@MPAVCScreenOverlayManager@@PAVCTextures@@@Z
_TEXT	SEGMENT PARA USE32 PUBLIC 'CODE'
_TEXT	ENDS
;	COMDAT ?FrameMove@CHUDText@@QAEJPAUIDirect3DDevice8@@PAVCUserInput@@PAUOVERLAYVERTEX@@@Z
_TEXT	SEGMENT PARA USE32 PUBLIC 'CODE'
_TEXT	ENDS
;	COMDAT ?InvalidateDeviceObjects@CHUDText@@QAEJXZ
_TEXT	SEGMENT PARA USE32 PUBLIC 'CODE'
_TEXT	ENDS
;	COMDAT ??_GCScreenOverlay@@QAEPAXI@Z
_TEXT	SEGMENT PARA USE32 PUBLIC 'CODE'
_TEXT	ENDS
;	COMDAT ?__LINE__Var@?1??FrameMove@CHUDText@@QAEJPAUIDirect3DDevice8@@PAVCUserInput@@PAUOVERLAYVERTEX@@@Z@4JA
_DATA	SEGMENT DWORD USE32 PUBLIC 'DATA'
_DATA	ENDS
FLAT	GROUP _DATA, CONST, _BSS
	ASSUME	CS: FLAT, DS: FLAT, SS: FLAT
endif

INCLUDELIB LIBCMTD
INCLUDELIB OLDNAMES

PUBLIC	??0CHUDText@@QAE@PADHMMMMMH@Z			; CHUDText::CHUDText
EXTRN	??2@YAPAXI@Z:NEAR				; operator new
EXTRN	__RTC_InitBase:NEAR
EXTRN	__RTC_Shutdown:NEAR
EXTRN	__RTC_CheckEsp:NEAR
EXTRN	__fltused:NEAR
EXTRN	_strcpy:NEAR
EXTRN	_strlen:NEAR
;	COMDAT rtc$IMZ
; File c:\documents and settings\dom\my documents\_dev\ae\xlr8a\x7g\chudtext.cpp
rtc$IMZ	SEGMENT
__RTC_InitBase.rtc$IMZ DD FLAT:__RTC_InitBase
rtc$IMZ	ENDS
;	COMDAT rtc$TMZ
rtc$TMZ	SEGMENT
__RTC_Shutdown.rtc$TMZ DD FLAT:__RTC_Shutdown
; Function compile flags: /Odt /RTCsu /ZI
rtc$TMZ	ENDS
;	COMDAT ??0CHUDText@@QAE@PADHMMMMMH@Z
_TEXT	SEGMENT
$T93805 = -224
_i$93680 = -20
_this$ = -8
_szText$ = 8
_nTex$ = 12
_fX$ = 16
_fY$ = 20
_fWidth$ = 24
_fHeight$ = 28
_fOverlap$ = 32
_OverlayType$ = 36
??0CHUDText@@QAE@PADHMMMMMH@Z PROC NEAR			; CHUDText::CHUDText, COMDAT
; _this$ = ecx

; 6    : 	{

  00000	55		 push	 ebp
  00001	8b ec		 mov	 ebp, esp
  00003	81 ec e4 00 00
	00		 sub	 esp, 228		; 000000e4H
  00009	53		 push	 ebx
  0000a	56		 push	 esi
  0000b	57		 push	 edi
  0000c	51		 push	 ecx
  0000d	8d bd 1c ff ff
	ff		 lea	 edi, DWORD PTR [ebp-228]
  00013	b9 39 00 00 00	 mov	 ecx, 57			; 00000039H
  00018	b8 cc cc cc cc	 mov	 eax, -858993460		; ccccccccH
  0001d	f3 ab		 rep stosd
  0001f	59		 pop	 ecx
  00020	89 4d f8	 mov	 DWORD PTR _this$[ebp], ecx

; 7    : 		strcpy( m_szText, szText );

  00023	8b 45 08	 mov	 eax, DWORD PTR _szText$[ebp]
  00026	50		 push	 eax
  00027	8b 4d f8	 mov	 ecx, DWORD PTR _this$[ebp]
  0002a	83 c1 1c	 add	 ecx, 28			; 0000001cH
  0002d	51		 push	 ecx
  0002e	e8 00 00 00 00	 call	 _strcpy
  00033	83 c4 08	 add	 esp, 8

; 8    : 		m_nChars = strlen( szText );

  00036	8b 45 08	 mov	 eax, DWORD PTR _szText$[ebp]
  00039	50		 push	 eax
  0003a	e8 00 00 00 00	 call	 _strlen
  0003f	83 c4 04	 add	 esp, 4
  00042	8b 4d f8	 mov	 ecx, DWORD PTR _this$[ebp]
  00045	89 81 28 01 00
	00		 mov	 DWORD PTR [ecx+296], eax

; 9    : 		m_fX = fX ;

  0004b	8b 45 f8	 mov	 eax, DWORD PTR _this$[ebp]
  0004e	8b 4d 10	 mov	 ecx, DWORD PTR _fX$[ebp]
  00051	89 48 08	 mov	 DWORD PTR [eax+8], ecx

; 10   : 		m_fY = fY ;

  00054	8b 45 f8	 mov	 eax, DWORD PTR _this$[ebp]
  00057	8b 4d 14	 mov	 ecx, DWORD PTR _fY$[ebp]
  0005a	89 48 0c	 mov	 DWORD PTR [eax+12], ecx

; 11   : 		m_fWidth = fWidth ;

  0005d	8b 45 f8	 mov	 eax, DWORD PTR _this$[ebp]
  00060	8b 4d 18	 mov	 ecx, DWORD PTR _fWidth$[ebp]
  00063	89 48 10	 mov	 DWORD PTR [eax+16], ecx

; 12   : 		m_fHeight = fHeight ;

  00066	8b 45 f8	 mov	 eax, DWORD PTR _this$[ebp]
  00069	8b 4d 1c	 mov	 ecx, DWORD PTR _fHeight$[ebp]
  0006c	89 48 14	 mov	 DWORD PTR [eax+20], ecx

; 13   : 		m_fOverlap = fOverlap ;

  0006f	8b 45 f8	 mov	 eax, DWORD PTR _this$[ebp]
  00072	8b 4d 20	 mov	 ecx, DWORD PTR _fOverlap$[ebp]
  00075	89 48 18	 mov	 DWORD PTR [eax+24], ecx

; 14   : 		m_nTex = nTex ;

  00078	8b 45 f8	 mov	 eax, DWORD PTR _this$[ebp]
  0007b	8b 4d 0c	 mov	 ecx, DWORD PTR _nTex$[ebp]
  0007e	89 08		 mov	 DWORD PTR [eax], ecx

; 15   : 		m_OverlayType = OverlayType ;

  00080	8b 45 f8	 mov	 eax, DWORD PTR _this$[ebp]
  00083	8b 4d 24	 mov	 ecx, DWORD PTR _OverlayType$[ebp]
  00086	89 88 1c 01 00
	00		 mov	 DWORD PTR [eax+284], ecx

; 16   : 		
; 17   : 		m_ppChars = new CScreenOverlay*[ m_nChars ];

  0008c	8b 45 f8	 mov	 eax, DWORD PTR _this$[ebp]
  0008f	8b 88 28 01 00
	00		 mov	 ecx, DWORD PTR [eax+296]
  00095	c1 e1 02	 shl	 ecx, 2
  00098	51		 push	 ecx
  00099	e8 00 00 00 00	 call	 ??2@YAPAXI@Z		; operator new
  0009e	83 c4 04	 add	 esp, 4
  000a1	89 85 20 ff ff
	ff		 mov	 DWORD PTR $T93805[ebp], eax
  000a7	8b 55 f8	 mov	 edx, DWORD PTR _this$[ebp]
  000aa	8b 85 20 ff ff
	ff		 mov	 eax, DWORD PTR $T93805[ebp]
  000b0	89 82 24 01 00
	00		 mov	 DWORD PTR [edx+292], eax

; 18   : 		for (int i = 0 ; i < m_nChars ; i ++)

  000b6	c7 45 ec 00 00
	00 00		 mov	 DWORD PTR _i$93680[ebp], 0
  000bd	eb 09		 jmp	 SHORT $L93681
$L93682:
  000bf	8b 45 ec	 mov	 eax, DWORD PTR _i$93680[ebp]
  000c2	83 c0 01	 add	 eax, 1
  000c5	89 45 ec	 mov	 DWORD PTR _i$93680[ebp], eax
$L93681:
  000c8	8b 45 f8	 mov	 eax, DWORD PTR _this$[ebp]
  000cb	8b 4d ec	 mov	 ecx, DWORD PTR _i$93680[ebp]
  000ce	3b 88 28 01 00
	00		 cmp	 ecx, DWORD PTR [eax+296]
  000d4	7d 15		 jge	 SHORT $L93683

; 19   : 			m_ppChars[i] = NULL ;

  000d6	8b 45 f8	 mov	 eax, DWORD PTR _this$[ebp]
  000d9	8b 88 24 01 00
	00		 mov	 ecx, DWORD PTR [eax+292]
  000df	8b 55 ec	 mov	 edx, DWORD PTR _i$93680[ebp]
  000e2	c7 04 91 00 00
	00 00		 mov	 DWORD PTR [ecx+edx*4], 0
  000e9	eb d4		 jmp	 SHORT $L93682
$L93683:

; 20   : 
; 21   : 		m_bFrameMoveRequired = FALSE ;

  000eb	8b 45 f8	 mov	 eax, DWORD PTR _this$[ebp]
  000ee	c7 80 20 01 00
	00 00 00 00 00	 mov	 DWORD PTR [eax+288], 0

; 22   : 		m_bActive = FALSE ;

  000f8	8b 45 f8	 mov	 eax, DWORD PTR _this$[ebp]
  000fb	c7 40 04 00 00
	00 00		 mov	 DWORD PTR [eax+4], 0

; 23   : 	}

  00102	8b 45 f8	 mov	 eax, DWORD PTR _this$[ebp]
  00105	5f		 pop	 edi
  00106	5e		 pop	 esi
  00107	5b		 pop	 ebx
  00108	81 c4 e4 00 00
	00		 add	 esp, 228		; 000000e4H
  0010e	3b ec		 cmp	 ebp, esp
  00110	e8 00 00 00 00	 call	 __RTC_CheckEsp
  00115	8b e5		 mov	 esp, ebp
  00117	5d		 pop	 ebp
  00118	c2 20 00	 ret	 32			; 00000020H
??0CHUDText@@QAE@PADHMMMMMH@Z ENDP			; CHUDText::CHUDText
_TEXT	ENDS
PUBLIC	??1CHUDText@@QAE@XZ				; CHUDText::~CHUDText
EXTRN	??3@YAXPAX@Z:NEAR				; operator delete
; Function compile flags: /Odt /RTCsu /ZI
;	COMDAT ??1CHUDText@@QAE@XZ
_TEXT	SEGMENT
$T93818 = -212
_this$ = -8
??1CHUDText@@QAE@XZ PROC NEAR				; CHUDText::~CHUDText, COMDAT
; _this$ = ecx

; 26   : 	{

  00000	55		 push	 ebp
  00001	8b ec		 mov	 ebp, esp
  00003	81 ec d8 00 00
	00		 sub	 esp, 216		; 000000d8H
  00009	53		 push	 ebx
  0000a	56		 push	 esi
  0000b	57		 push	 edi
  0000c	51		 push	 ecx
  0000d	8d bd 28 ff ff
	ff		 lea	 edi, DWORD PTR [ebp-216]
  00013	b9 36 00 00 00	 mov	 ecx, 54			; 00000036H
  00018	b8 cc cc cc cc	 mov	 eax, -858993460		; ccccccccH
  0001d	f3 ab		 rep stosd
  0001f	59		 pop	 ecx
  00020	89 4d f8	 mov	 DWORD PTR _this$[ebp], ecx

; 27   : 		SAFE_DELETE_ARRAY( m_ppChars )

  00023	8b 45 f8	 mov	 eax, DWORD PTR _this$[ebp]
  00026	83 b8 24 01 00
	00 00		 cmp	 DWORD PTR [eax+292], 0
  0002d	74 2b		 je	 SHORT $L93686
  0002f	8b 45 f8	 mov	 eax, DWORD PTR _this$[ebp]
  00032	8b 88 24 01 00
	00		 mov	 ecx, DWORD PTR [eax+292]
  00038	89 8d 2c ff ff
	ff		 mov	 DWORD PTR $T93818[ebp], ecx
  0003e	8b 95 2c ff ff
	ff		 mov	 edx, DWORD PTR $T93818[ebp]
  00044	52		 push	 edx
  00045	e8 00 00 00 00	 call	 ??3@YAXPAX@Z		; operator delete
  0004a	83 c4 04	 add	 esp, 4
  0004d	8b 45 f8	 mov	 eax, DWORD PTR _this$[ebp]
  00050	c7 80 24 01 00
	00 00 00 00 00	 mov	 DWORD PTR [eax+292], 0
$L93686:

; 28   : 	}

  0005a	5f		 pop	 edi
  0005b	5e		 pop	 esi
  0005c	5b		 pop	 ebx
  0005d	81 c4 d8 00 00
	00		 add	 esp, 216		; 000000d8H
  00063	3b ec		 cmp	 ebp, esp
  00065	e8 00 00 00 00	 call	 __RTC_CheckEsp
  0006a	8b e5		 mov	 esp, ebp
  0006c	5d		 pop	 ebp
  0006d	c3		 ret	 0
??1CHUDText@@QAE@XZ ENDP				; CHUDText::~CHUDText
_TEXT	ENDS
PUBLIC	?Enable@CHUDText@@QAEHH@Z			; CHUDText::Enable
; Function compile flags: /Odt /RTCsu /ZI
;	COMDAT ?Enable@CHUDText@@QAEHH@Z
_TEXT	SEGMENT
_i$93693 = -20
_this$ = -8
_bActive$ = 8
?Enable@CHUDText@@QAEHH@Z PROC NEAR			; CHUDText::Enable, COMDAT
; _this$ = ecx

; 31   : 	{

  00000	55		 push	 ebp
  00001	8b ec		 mov	 ebp, esp
  00003	81 ec d8 00 00
	00		 sub	 esp, 216		; 000000d8H
  00009	53		 push	 ebx
  0000a	56		 push	 esi
  0000b	57		 push	 edi
  0000c	51		 push	 ecx
  0000d	8d bd 28 ff ff
	ff		 lea	 edi, DWORD PTR [ebp-216]
  00013	b9 36 00 00 00	 mov	 ecx, 54			; 00000036H
  00018	b8 cc cc cc cc	 mov	 eax, -858993460		; ccccccccH
  0001d	f3 ab		 rep stosd
  0001f	59		 pop	 ecx
  00020	89 4d f8	 mov	 DWORD PTR _this$[ebp], ecx

; 32   : 		m_bActive = bActive ;

  00023	8b 45 f8	 mov	 eax, DWORD PTR _this$[ebp]
  00026	8b 4d 08	 mov	 ecx, DWORD PTR _bActive$[ebp]
  00029	89 48 04	 mov	 DWORD PTR [eax+4], ecx

; 33   : 		for (int i = 0 ; i < m_nChars ; i ++)

  0002c	c7 45 ec 00 00
	00 00		 mov	 DWORD PTR _i$93693[ebp], 0
  00033	eb 09		 jmp	 SHORT $L93694
$L93695:
  00035	8b 45 ec	 mov	 eax, DWORD PTR _i$93693[ebp]
  00038	83 c0 01	 add	 eax, 1
  0003b	89 45 ec	 mov	 DWORD PTR _i$93693[ebp], eax
$L93694:
  0003e	8b 45 f8	 mov	 eax, DWORD PTR _this$[ebp]
  00041	8b 4d ec	 mov	 ecx, DWORD PTR _i$93693[ebp]
  00044	3b 88 28 01 00
	00		 cmp	 ecx, DWORD PTR [eax+296]
  0004a	7d 2c		 jge	 SHORT $L93692

; 34   : 			if (m_ppChars[i])

  0004c	8b 45 f8	 mov	 eax, DWORD PTR _this$[ebp]
  0004f	8b 88 24 01 00
	00		 mov	 ecx, DWORD PTR [eax+292]
  00055	8b 55 ec	 mov	 edx, DWORD PTR _i$93693[ebp]
  00058	83 3c 91 00	 cmp	 DWORD PTR [ecx+edx*4], 0
  0005c	74 18		 je	 SHORT $L93697

; 35   : 				m_ppChars[i]->m_bActive = bActive ;

  0005e	8b 45 f8	 mov	 eax, DWORD PTR _this$[ebp]
  00061	8b 88 24 01 00
	00		 mov	 ecx, DWORD PTR [eax+292]
  00067	8b 55 ec	 mov	 edx, DWORD PTR _i$93693[ebp]
  0006a	8b 04 91	 mov	 eax, DWORD PTR [ecx+edx*4]
  0006d	8b 4d 08	 mov	 ecx, DWORD PTR _bActive$[ebp]
  00070	89 88 84 00 00
	00		 mov	 DWORD PTR [eax+132], ecx
$L93697:

; 36   : 	}

  00076	eb bd		 jmp	 SHORT $L93695
$L93692:
  00078	5f		 pop	 edi
  00079	5e		 pop	 esi
  0007a	5b		 pop	 ebx
  0007b	8b e5		 mov	 esp, ebp
  0007d	5d		 pop	 ebp
  0007e	c2 04 00	 ret	 4
?Enable@CHUDText@@QAEHH@Z ENDP				; CHUDText::Enable
_TEXT	ENDS
PUBLIC	?SetFrameMoveRequired@CHUDText@@QAEHH@Z		; CHUDText::SetFrameMoveRequired
; Function compile flags: /Odt /RTCsu /ZI
;	COMDAT ?SetFrameMoveRequired@CHUDText@@QAEHH@Z
_TEXT	SEGMENT
_this$ = -8
_bRequired$ = 8
?SetFrameMoveRequired@CHUDText@@QAEHH@Z PROC NEAR	; CHUDText::SetFrameMoveRequired, COMDAT
; _this$ = ecx

; 39   : 	{

  00000	55		 push	 ebp
  00001	8b ec		 mov	 ebp, esp
  00003	81 ec cc 00 00
	00		 sub	 esp, 204		; 000000ccH
  00009	53		 push	 ebx
  0000a	56		 push	 esi
  0000b	57		 push	 edi
  0000c	51		 push	 ecx
  0000d	8d bd 34 ff ff
	ff		 lea	 edi, DWORD PTR [ebp-204]
  00013	b9 33 00 00 00	 mov	 ecx, 51			; 00000033H
  00018	b8 cc cc cc cc	 mov	 eax, -858993460		; ccccccccH
  0001d	f3 ab		 rep stosd
  0001f	59		 pop	 ecx
  00020	89 4d f8	 mov	 DWORD PTR _this$[ebp], ecx

; 40   : 		m_bFrameMoveRequired = bRequired ;

  00023	8b 45 f8	 mov	 eax, DWORD PTR _this$[ebp]
  00026	8b 4d 08	 mov	 ecx, DWORD PTR _bRequired$[ebp]
  00029	89 88 20 01 00
	00		 mov	 DWORD PTR [eax+288], ecx

; 41   : 	//
; 42   : 	// no need to set FM required on these base Overlays,
; 43   : 	// FM is handled by this class.
; 44   : 	//
; 45   : 	// this still leads to the VB being locked multiple times per frame,
; 46   : 	// once per instance of this class, and once by the OM. Bad.
; 47   : 	//
; 48   : 		/*for (int i = 0 ; i < m_nChars ; i ++)
; 49   : 			if (m_ppChars[i])
; 50   : 				m_ppChars[i]->m_bFrameMoveRequired = bRequired ;*/
; 51   : 	}

  0002f	5f		 pop	 edi
  00030	5e		 pop	 esi
  00031	5b		 pop	 ebx
  00032	8b e5		 mov	 esp, ebp
  00034	5d		 pop	 ebp
  00035	c2 04 00	 ret	 4
?SetFrameMoveRequired@CHUDText@@QAEHH@Z ENDP		; CHUDText::SetFrameMoveRequired
_TEXT	ENDS
PUBLIC	?RestoreDeviceObjects@CHUDText@@QAEJPAUIDirect3DDevice8@@MPAVCScreenOverlayManager@@PAVCTextures@@@Z ; CHUDText::RestoreDeviceObjects
PUBLIC	??_C@_0CA@GEELEDBD@CHUDText?3?3RestoreDeviceObjects?6?$AA@ ; `string'
PUBLIC	__real@4030000000000000
EXTRN	?RegisterNewOverlay@CScreenOverlayManager@@QAEHPAVCScreenOverlay@@@Z:NEAR ; CScreenOverlayManager::RegisterNewOverlay
EXTRN	?ods@@YAXPADZZ:NEAR				; ods
EXTRN	??0CScreenOverlay@@QAE@PAUIDirect3DTexture8@@MMMMMMMMMH@Z:NEAR ; CScreenOverlay::CScreenOverlay
EXTRN	_floor:NEAR
;	COMDAT ??_C@_0CA@GEELEDBD@CHUDText?3?3RestoreDeviceObjects?6?$AA@
CONST	SEGMENT
??_C@_0CA@GEELEDBD@CHUDText?3?3RestoreDeviceObjects?6?$AA@ DB 'CHUDText::'
	DB	'RestoreDeviceObjects', 0aH, 00H		; `string'
CONST	ENDS
;	COMDAT __real@4030000000000000
CONST	SEGMENT
__real@4030000000000000 DQ 04030000000000000r	; 16
; Function compile flags: /Odt /RTCsu /ZI
CONST	ENDS
;	COMDAT ?RestoreDeviceObjects@CHUDText@@QAEJPAUIDirect3DDevice8@@MPAVCScreenOverlayManager@@PAVCTextures@@@Z
_TEXT	SEGMENT
tv190 = -304
tv189 = -304
tv141 = -304
$T93825 = -296
_row$93720 = -92
_col$93718 = -80
_fSize$93717 = -68
_cChar$93716 = -53
_i$93712 = -44
_fY$ = -32
_fX$ = -20
_this$ = -8
_pDev$ = 8
_fAspect$ = 12
_pOM$ = 16
_pTex$ = 20
?RestoreDeviceObjects@CHUDText@@QAEJPAUIDirect3DDevice8@@MPAVCScreenOverlayManager@@PAVCTextures@@@Z PROC NEAR ; CHUDText::RestoreDeviceObjects, COMDAT
; _this$ = ecx

; 54   : 	{

  00000	55		 push	 ebp
  00001	8b ec		 mov	 ebp, esp
  00003	81 ec 30 01 00
	00		 sub	 esp, 304		; 00000130H
  00009	53		 push	 ebx
  0000a	56		 push	 esi
  0000b	57		 push	 edi
  0000c	51		 push	 ecx
  0000d	8d bd d0 fe ff
	ff		 lea	 edi, DWORD PTR [ebp-304]
  00013	b9 4c 00 00 00	 mov	 ecx, 76			; 0000004cH
  00018	b8 cc cc cc cc	 mov	 eax, -858993460		; ccccccccH
  0001d	f3 ab		 rep stosd
  0001f	59		 pop	 ecx
  00020	89 4d f8	 mov	 DWORD PTR _this$[ebp], ecx

; 55   : 		ods( "CHUDText::RestoreDeviceObjects\n" );

  00023	68 00 00 00 00	 push	 OFFSET FLAT:??_C@_0CA@GEELEDBD@CHUDText?3?3RestoreDeviceObjects?6?$AA@
  00028	e8 00 00 00 00	 call	 ?ods@@YAXPADZZ		; ods
  0002d	83 c4 04	 add	 esp, 4

; 56   : 		float fX, fY ;
; 57   : 		
; 58   : 		pOM->m_bVBLocked = TRUE ;

  00030	8b 45 10	 mov	 eax, DWORD PTR _pOM$[ebp]
  00033	c7 80 08 02 00
	00 01 00 00 00	 mov	 DWORD PTR [eax+520], 1

; 59   : 
; 60   : 		fX = m_fX ;

  0003d	8b 45 f8	 mov	 eax, DWORD PTR _this$[ebp]
  00040	8b 48 08	 mov	 ecx, DWORD PTR [eax+8]
  00043	89 4d ec	 mov	 DWORD PTR _fX$[ebp], ecx

; 61   : 		fY = m_fY ;

  00046	8b 45 f8	 mov	 eax, DWORD PTR _this$[ebp]
  00049	8b 48 0c	 mov	 ecx, DWORD PTR [eax+12]
  0004c	89 4d e0	 mov	 DWORD PTR _fY$[ebp], ecx

; 62   : 		//ods("CHUDText::RestoreDeviceObjects: BEGIN\n") ;
; 63   : 		for (int i = 0 ; i < m_nChars ; i ++)

  0004f	c7 45 d4 00 00
	00 00		 mov	 DWORD PTR _i$93712[ebp], 0
  00056	eb 09		 jmp	 SHORT $L93713
$L93714:
  00058	8b 45 d4	 mov	 eax, DWORD PTR _i$93712[ebp]
  0005b	83 c0 01	 add	 eax, 1
  0005e	89 45 d4	 mov	 DWORD PTR _i$93712[ebp], eax
$L93713:
  00061	8b 45 f8	 mov	 eax, DWORD PTR _this$[ebp]
  00064	8b 4d d4	 mov	 ecx, DWORD PTR _i$93712[ebp]
  00067	3b 88 28 01 00
	00		 cmp	 ecx, DWORD PTR [eax+296]
  0006d	0f 8d 70 01 00
	00		 jge	 $L93715

; 64   : 		{
; 65   : 			char  cChar = m_szText[ i ];

  00073	8b 45 f8	 mov	 eax, DWORD PTR _this$[ebp]
  00076	03 45 d4	 add	 eax, DWORD PTR _i$93712[ebp]
  00079	8a 48 1c	 mov	 cl, BYTE PTR [eax+28]
  0007c	88 4d cb	 mov	 BYTE PTR _cChar$93716[ebp], cl

; 66   : 			float fSize = 0.0625f ;

  0007f	c7 45 bc 00 00
	80 3d		 mov	 DWORD PTR _fSize$93717[ebp], 1031798784 ; 3d800000H

; 67   : 			float col = (float)((cChar) % 16) ;

  00086	0f be 45 cb	 movsx	 eax, BYTE PTR _cChar$93716[ebp]
  0008a	25 0f 00 00 80	 and	 eax, -2147483633	; 8000000fH
  0008f	79 05		 jns	 SHORT $L93830
  00091	48		 dec	 eax
  00092	83 c8 f0	 or	 eax, -16		; fffffff0H
  00095	40		 inc	 eax
$L93830:
  00096	89 85 d0 fe ff
	ff		 mov	 DWORD PTR tv189[ebp], eax
  0009c	db 85 d0 fe ff
	ff		 fild	 DWORD PTR tv189[ebp]
  000a2	d9 5d b0	 fstp	 DWORD PTR _col$93718[ebp]

; 68   : 			float row = (float)floor((double)(cChar) / 16) ;

  000a5	0f be 45 cb	 movsx	 eax, BYTE PTR _cChar$93716[ebp]
  000a9	89 85 d0 fe ff
	ff		 mov	 DWORD PTR tv190[ebp], eax
  000af	db 85 d0 fe ff
	ff		 fild	 DWORD PTR tv190[ebp]
  000b5	dc 35 00 00 00
	00		 fdiv	 QWORD PTR __real@4030000000000000
  000bb	83 ec 08	 sub	 esp, 8
  000be	dd 1c 24	 fstp	 QWORD PTR [esp]
  000c1	e8 00 00 00 00	 call	 _floor
  000c6	83 c4 08	 add	 esp, 8
  000c9	d9 5d a4	 fstp	 DWORD PTR _row$93720[ebp]

; 69   : 
; 70   : 			m_ppChars[ i ] = new CScreenOverlay( pTex->m_pTex[ m_nTex ], col * fSize, row * fSize, fSize, fSize, fX, fY, 0.0f, m_fWidth, m_fHeight, m_OverlayType );

  000cc	68 d4 00 00 00	 push	 212			; 000000d4H
  000d1	e8 00 00 00 00	 call	 ??2@YAPAXI@Z		; operator new
  000d6	83 c4 04	 add	 esp, 4
  000d9	89 85 d8 fe ff
	ff		 mov	 DWORD PTR $T93825[ebp], eax
  000df	83 bd d8 fe ff
	ff 00		 cmp	 DWORD PTR $T93825[ebp], 0
  000e6	74 5e		 je	 SHORT $L93826
  000e8	8b 45 f8	 mov	 eax, DWORD PTR _this$[ebp]
  000eb	8b 88 1c 01 00
	00		 mov	 ecx, DWORD PTR [eax+284]
  000f1	51		 push	 ecx
  000f2	8b 55 f8	 mov	 edx, DWORD PTR _this$[ebp]
  000f5	8b 42 14	 mov	 eax, DWORD PTR [edx+20]
  000f8	50		 push	 eax
  000f9	8b 4d f8	 mov	 ecx, DWORD PTR _this$[ebp]
  000fc	8b 51 10	 mov	 edx, DWORD PTR [ecx+16]
  000ff	52		 push	 edx
  00100	6a 00		 push	 0
  00102	8b 45 e0	 mov	 eax, DWORD PTR _fY$[ebp]
  00105	50		 push	 eax
  00106	8b 4d ec	 mov	 ecx, DWORD PTR _fX$[ebp]
  00109	51		 push	 ecx
  0010a	8b 55 bc	 mov	 edx, DWORD PTR _fSize$93717[ebp]
  0010d	52		 push	 edx
  0010e	8b 45 bc	 mov	 eax, DWORD PTR _fSize$93717[ebp]
  00111	50		 push	 eax
  00112	d9 45 a4	 fld	 DWORD PTR _row$93720[ebp]
  00115	d8 4d bc	 fmul	 DWORD PTR _fSize$93717[ebp]
  00118	51		 push	 ecx
  00119	d9 1c 24	 fstp	 DWORD PTR [esp]
  0011c	d9 45 b0	 fld	 DWORD PTR _col$93718[ebp]
  0011f	d8 4d bc	 fmul	 DWORD PTR _fSize$93717[ebp]
  00122	51		 push	 ecx
  00123	d9 1c 24	 fstp	 DWORD PTR [esp]
  00126	8b 4d f8	 mov	 ecx, DWORD PTR _this$[ebp]
  00129	8b 11		 mov	 edx, DWORD PTR [ecx]
  0012b	8b 45 14	 mov	 eax, DWORD PTR _pTex$[ebp]
  0012e	8b 4c 90 1c	 mov	 ecx, DWORD PTR [eax+edx*4+28]
  00132	51		 push	 ecx
  00133	8b 8d d8 fe ff
	ff		 mov	 ecx, DWORD PTR $T93825[ebp]
  00139	e8 00 00 00 00	 call	 ??0CScreenOverlay@@QAE@PAUIDirect3DTexture8@@MMMMMMMMMH@Z ; CScreenOverlay::CScreenOverlay
  0013e	89 85 d0 fe ff
	ff		 mov	 DWORD PTR tv141[ebp], eax
  00144	eb 0a		 jmp	 SHORT $L93827
$L93826:
  00146	c7 85 d0 fe ff
	ff 00 00 00 00	 mov	 DWORD PTR tv141[ebp], 0
$L93827:
  00150	8b 55 f8	 mov	 edx, DWORD PTR _this$[ebp]
  00153	8b 82 24 01 00
	00		 mov	 eax, DWORD PTR [edx+292]
  00159	8b 4d d4	 mov	 ecx, DWORD PTR _i$93712[ebp]
  0015c	8b 95 d0 fe ff
	ff		 mov	 edx, DWORD PTR tv141[ebp]
  00162	89 14 88	 mov	 DWORD PTR [eax+ecx*4], edx

; 71   : 			pOM->RegisterNewOverlay( m_ppChars[ i ] );

  00165	8b 45 f8	 mov	 eax, DWORD PTR _this$[ebp]
  00168	8b 88 24 01 00
	00		 mov	 ecx, DWORD PTR [eax+292]
  0016e	8b 55 d4	 mov	 edx, DWORD PTR _i$93712[ebp]
  00171	8b 04 91	 mov	 eax, DWORD PTR [ecx+edx*4]
  00174	50		 push	 eax
  00175	8b 4d 10	 mov	 ecx, DWORD PTR _pOM$[ebp]
  00178	e8 00 00 00 00	 call	 ?RegisterNewOverlay@CScreenOverlayManager@@QAEHPAVCScreenOverlay@@@Z ; CScreenOverlayManager::RegisterNewOverlay

; 72   : 			m_ppChars[ i ]->m_pSharedVB = pOM->m_pVB ;

  0017d	8b 45 f8	 mov	 eax, DWORD PTR _this$[ebp]
  00180	8b 88 24 01 00
	00		 mov	 ecx, DWORD PTR [eax+292]
  00186	8b 55 d4	 mov	 edx, DWORD PTR _i$93712[ebp]
  00189	8b 04 91	 mov	 eax, DWORD PTR [ecx+edx*4]
  0018c	8b 4d 10	 mov	 ecx, DWORD PTR _pOM$[ebp]
  0018f	8b 91 00 02 00
	00		 mov	 edx, DWORD PTR [ecx+512]
  00195	89 50 04	 mov	 DWORD PTR [eax+4], edx

; 73   : 			m_ppChars[ i ]->RestoreDeviceObjects( pDev, fAspect );

  00198	8b f4		 mov	 esi, esp
  0019a	8b 45 0c	 mov	 eax, DWORD PTR _fAspect$[ebp]
  0019d	50		 push	 eax
  0019e	8b 4d 08	 mov	 ecx, DWORD PTR _pDev$[ebp]
  001a1	51		 push	 ecx
  001a2	8b 55 f8	 mov	 edx, DWORD PTR _this$[ebp]
  001a5	8b 82 24 01 00
	00		 mov	 eax, DWORD PTR [edx+292]
  001ab	8b 4d d4	 mov	 ecx, DWORD PTR _i$93712[ebp]
  001ae	8b 14 88	 mov	 edx, DWORD PTR [eax+ecx*4]
  001b1	8b 45 f8	 mov	 eax, DWORD PTR _this$[ebp]
  001b4	8b 88 24 01 00
	00		 mov	 ecx, DWORD PTR [eax+292]
  001ba	8b 45 d4	 mov	 eax, DWORD PTR _i$93712[ebp]
  001bd	8b 0c 81	 mov	 ecx, DWORD PTR [ecx+eax*4]
  001c0	8b 12		 mov	 edx, DWORD PTR [edx]
  001c2	ff 52 04	 call	 DWORD PTR [edx+4]
  001c5	3b f4		 cmp	 esi, esp
  001c7	e8 00 00 00 00	 call	 __RTC_CheckEsp

; 74   : 
; 75   : 			fX += m_fWidth - m_fOverlap ;

  001cc	8b 45 f8	 mov	 eax, DWORD PTR _this$[ebp]
  001cf	8b 4d f8	 mov	 ecx, DWORD PTR _this$[ebp]
  001d2	d9 40 10	 fld	 DWORD PTR [eax+16]
  001d5	d8 61 18	 fsub	 DWORD PTR [ecx+24]
  001d8	d8 45 ec	 fadd	 DWORD PTR _fX$[ebp]
  001db	d9 5d ec	 fstp	 DWORD PTR _fX$[ebp]

; 76   : 		}

  001de	e9 75 fe ff ff	 jmp	 $L93714
$L93715:

; 77   : 		//ods("CHUDText::RestoreDeviceObjects: END\n") ;
; 78   : 
; 79   : 		pOM->m_bVBLocked = FALSE ;

  001e3	8b 45 10	 mov	 eax, DWORD PTR _pOM$[ebp]
  001e6	c7 80 08 02 00
	00 00 00 00 00	 mov	 DWORD PTR [eax+520], 0

; 80   : 		return S_OK ;

  001f0	33 c0		 xor	 eax, eax

; 81   : 	}

  001f2	5f		 pop	 edi
  001f3	5e		 pop	 esi
  001f4	5b		 pop	 ebx
  001f5	81 c4 30 01 00
	00		 add	 esp, 304		; 00000130H
  001fb	3b ec		 cmp	 ebp, esp
  001fd	e8 00 00 00 00	 call	 __RTC_CheckEsp
  00202	8b e5		 mov	 esp, ebp
  00204	5d		 pop	 ebp
  00205	c2 10 00	 ret	 16			; 00000010H
?RestoreDeviceObjects@CHUDText@@QAEJPAUIDirect3DDevice8@@MPAVCScreenOverlayManager@@PAVCTextures@@@Z ENDP ; CHUDText::RestoreDeviceObjects
_TEXT	ENDS
PUBLIC	?FrameMove@CHUDText@@QAEJPAUIDirect3DDevice8@@PAVCUserInput@@PAUOVERLAYVERTEX@@@Z ; CHUDText::FrameMove
PUBLIC	?__LINE__Var@?1??FrameMove@CHUDText@@QAEJPAUIDirect3DDevice8@@PAVCUserInput@@PAUOVERLAYVERTEX@@@Z@4JA ; `CHUDText::FrameMove'::`2'::__LINE__Var
PUBLIC	??_C@_0EK@LDBMFJIP@c?3?2documents?5and?5settings?2dom?2my@ ; `string'
PUBLIC	??_C@_0CF@CJOMHKMC@?$CIsigned?$CJstrlen?$CIm_szText?$CJ?5?$DN?$DN?5m_nC@ ; `string'
EXTRN	__assert:NEAR
;	COMDAT ?__LINE__Var@?1??FrameMove@CHUDText@@QAEJPAUIDirect3DDevice8@@PAVCUserInput@@PAUOVERLAYVERTEX@@@Z@4JA
_DATA	SEGMENT
?__LINE__Var@?1??FrameMove@CHUDText@@QAEJPAUIDirect3DDevice8@@PAVCUserInput@@PAUOVERLAYVERTEX@@@Z@4JA DD 054H ; `CHUDText::FrameMove'::`2'::__LINE__Var
_DATA	ENDS
;	COMDAT ??_C@_0EK@LDBMFJIP@c?3?2documents?5and?5settings?2dom?2my@
CONST	SEGMENT
??_C@_0EK@LDBMFJIP@c?3?2documents?5and?5settings?2dom?2my@ DB 'c:\documen'
	DB	'ts and settings\dom\my documents\_dev\ae\xlr8a\x7g\chudtext.c'
	DB	'pp', 00H					; `string'
CONST	ENDS
;	COMDAT ??_C@_0CF@CJOMHKMC@?$CIsigned?$CJstrlen?$CIm_szText?$CJ?5?$DN?$DN?5m_nC@
CONST	SEGMENT
??_C@_0CF@CJOMHKMC@?$CIsigned?$CJstrlen?$CIm_szText?$CJ?5?$DN?$DN?5m_nC@ DB '('
	DB	'signed)strlen(m_szText) == m_nChars', 00H	; `string'
; Function compile flags: /Odt /RTCsu /ZI
CONST	ENDS
;	COMDAT ?FrameMove@CHUDText@@QAEJPAUIDirect3DDevice8@@PAVCUserInput@@PAUOVERLAYVERTEX@@@Z
_TEXT	SEGMENT
tv181 = -328
tv180 = -328
_pVertices$93755 = -128
_fTVExtent$93754 = -116
_fTUExtent$93753 = -104
_fTV$93752 = -92
_fTU$93751 = -80
_row$93748 = -68
_col$93746 = -56
_fSize$93745 = -44
_cChar$93742 = -29
_i$93738 = -20
_this$ = -8
_pDev$ = 8
_pIn$ = 12
_pVBVertices$ = 16
?FrameMove@CHUDText@@QAEJPAUIDirect3DDevice8@@PAVCUserInput@@PAUOVERLAYVERTEX@@@Z PROC NEAR ; CHUDText::FrameMove, COMDAT
; _this$ = ecx

; 84   : 	{

  00000	55		 push	 ebp
  00001	8b ec		 mov	 ebp, esp
  00003	81 ec 48 01 00
	00		 sub	 esp, 328		; 00000148H
  00009	53		 push	 ebx
  0000a	56		 push	 esi
  0000b	57		 push	 edi
  0000c	51		 push	 ecx
  0000d	8d bd b8 fe ff
	ff		 lea	 edi, DWORD PTR [ebp-328]
  00013	b9 52 00 00 00	 mov	 ecx, 82			; 00000052H
  00018	b8 cc cc cc cc	 mov	 eax, -858993460		; ccccccccH
  0001d	f3 ab		 rep stosd
  0001f	59		 pop	 ecx
  00020	89 4d f8	 mov	 DWORD PTR _this$[ebp], ecx

; 85   : 		if( m_bFrameMoveRequired )

  00023	8b 45 f8	 mov	 eax, DWORD PTR _this$[ebp]
  00026	83 b8 20 01 00
	00 00		 cmp	 DWORD PTR [eax+288], 0
  0002d	0f 84 be 01 00
	00		 je	 $L93732

; 86   : 		{
; 87   : 			m_bFrameMoveRequired = FALSE ;

  00033	8b 45 f8	 mov	 eax, DWORD PTR _this$[ebp]
  00036	c7 80 20 01 00
	00 00 00 00 00	 mov	 DWORD PTR [eax+288], 0

; 88   : 
; 89   : 			assert( (signed)strlen(m_szText) == m_nChars );

  00040	8b 45 f8	 mov	 eax, DWORD PTR _this$[ebp]
  00043	83 c0 1c	 add	 eax, 28			; 0000001cH
  00046	50		 push	 eax
  00047	e8 00 00 00 00	 call	 _strlen
  0004c	83 c4 04	 add	 esp, 4
  0004f	8b 4d f8	 mov	 ecx, DWORD PTR _this$[ebp]
  00052	3b 81 28 01 00
	00		 cmp	 eax, DWORD PTR [ecx+296]
  00058	74 1c		 je	 SHORT $L93833
  0005a	8b 15 00 00 00
	00		 mov	 edx, DWORD PTR ?__LINE__Var@?1??FrameMove@CHUDText@@QAEJPAUIDirect3DDevice8@@PAVCUserInput@@PAUOVERLAYVERTEX@@@Z@4JA
  00060	83 c2 05	 add	 edx, 5
  00063	52		 push	 edx
  00064	68 00 00 00 00	 push	 OFFSET FLAT:??_C@_0EK@LDBMFJIP@c?3?2documents?5and?5settings?2dom?2my@
  00069	68 00 00 00 00	 push	 OFFSET FLAT:??_C@_0CF@CJOMHKMC@?$CIsigned?$CJstrlen?$CIm_szText?$CJ?5?$DN?$DN?5m_nC@
  0006e	e8 00 00 00 00	 call	 __assert
  00073	83 c4 0c	 add	 esp, 12			; 0000000cH
$L93833:

; 90   : 
; 91   : 			/*OVERLAYVERTEX* pVBVertices ;
; 92   : 			if (FAILED(m_ppChars[ 0 ]->m_pSharedVB->Lock(0, 0, (BYTE**)&pVBVertices, 0)))
; 93   : 				return E_FAIL ;*/
; 94   : 
; 95   : 			for(int i = 0 ; i < m_nChars ; i ++)

  00076	c7 45 ec 00 00
	00 00		 mov	 DWORD PTR _i$93738[ebp], 0
  0007d	eb 09		 jmp	 SHORT $L93739
$L93740:
  0007f	8b 45 ec	 mov	 eax, DWORD PTR _i$93738[ebp]
  00082	83 c0 01	 add	 eax, 1
  00085	89 45 ec	 mov	 DWORD PTR _i$93738[ebp], eax
$L93739:
  00088	8b 45 f8	 mov	 eax, DWORD PTR _this$[ebp]
  0008b	8b 4d ec	 mov	 ecx, DWORD PTR _i$93738[ebp]
  0008e	3b 88 28 01 00
	00		 cmp	 ecx, DWORD PTR [eax+296]
  00094	0f 8d 57 01 00
	00		 jge	 $L93732

; 96   : 			{
; 97   : 				char  cChar = m_szText[ i ];

  0009a	8b 45 f8	 mov	 eax, DWORD PTR _this$[ebp]
  0009d	03 45 ec	 add	 eax, DWORD PTR _i$93738[ebp]
  000a0	8a 48 1c	 mov	 cl, BYTE PTR [eax+28]
  000a3	88 4d e3	 mov	 BYTE PTR _cChar$93742[ebp], cl

; 98   : 				if( cChar == ' ' )

  000a6	0f be 45 e3	 movsx	 eax, BYTE PTR _cChar$93742[ebp]
  000aa	83 f8 20	 cmp	 eax, 32			; 00000020H
  000ad	75 1e		 jne	 SHORT $L93743

; 99   : 				{
; 100  : 					m_ppChars[ i ]->m_bDrawingCanBeSkipped = TRUE ;

  000af	8b 45 f8	 mov	 eax, DWORD PTR _this$[ebp]
  000b2	8b 88 24 01 00
	00		 mov	 ecx, DWORD PTR [eax+292]
  000b8	8b 55 ec	 mov	 edx, DWORD PTR _i$93738[ebp]
  000bb	8b 04 91	 mov	 eax, DWORD PTR [ecx+edx*4]
  000be	c7 80 cc 00 00
	00 01 00 00 00	 mov	 DWORD PTR [eax+204], 1

; 101  : 				}
; 102  : 				else

  000c8	e9 1f 01 00 00	 jmp	 $L93744
$L93743:

; 103  : 				{
; 104  : 					m_ppChars[ i ]->m_bDrawingCanBeSkipped = FALSE ;

  000cd	8b 45 f8	 mov	 eax, DWORD PTR _this$[ebp]
  000d0	8b 88 24 01 00
	00		 mov	 ecx, DWORD PTR [eax+292]
  000d6	8b 55 ec	 mov	 edx, DWORD PTR _i$93738[ebp]
  000d9	8b 04 91	 mov	 eax, DWORD PTR [ecx+edx*4]
  000dc	c7 80 cc 00 00
	00 00 00 00 00	 mov	 DWORD PTR [eax+204], 0

; 105  : 
; 106  : 					float fSize = 0.0625f ;

  000e6	c7 45 d4 00 00
	80 3d		 mov	 DWORD PTR _fSize$93745[ebp], 1031798784 ; 3d800000H

; 107  : 					float col = (float)((cChar) % 16) ;

  000ed	0f be 45 e3	 movsx	 eax, BYTE PTR _cChar$93742[ebp]
  000f1	25 0f 00 00 80	 and	 eax, -2147483633	; 8000000fH
  000f6	79 05		 jns	 SHORT $L93834
  000f8	48		 dec	 eax
  000f9	83 c8 f0	 or	 eax, -16		; fffffff0H
  000fc	40		 inc	 eax
$L93834:
  000fd	89 85 b8 fe ff
	ff		 mov	 DWORD PTR tv180[ebp], eax
  00103	db 85 b8 fe ff
	ff		 fild	 DWORD PTR tv180[ebp]
  00109	d9 5d c8	 fstp	 DWORD PTR _col$93746[ebp]

; 108  : 					float row = (float)floor((double)(cChar) / 16) ;

  0010c	0f be 45 e3	 movsx	 eax, BYTE PTR _cChar$93742[ebp]
  00110	89 85 b8 fe ff
	ff		 mov	 DWORD PTR tv181[ebp], eax
  00116	db 85 b8 fe ff
	ff		 fild	 DWORD PTR tv181[ebp]
  0011c	dc 35 00 00 00
	00		 fdiv	 QWORD PTR __real@4030000000000000
  00122	83 ec 08	 sub	 esp, 8
  00125	dd 1c 24	 fstp	 QWORD PTR [esp]
  00128	e8 00 00 00 00	 call	 _floor
  0012d	83 c4 08	 add	 esp, 8
  00130	d9 5d bc	 fstp	 DWORD PTR _row$93748[ebp]

; 109  : 					float fTU = col * fSize ;

  00133	d9 45 c8	 fld	 DWORD PTR _col$93746[ebp]
  00136	d8 4d d4	 fmul	 DWORD PTR _fSize$93745[ebp]
  00139	d9 5d b0	 fstp	 DWORD PTR _fTU$93751[ebp]

; 110  : 					float fTV = row * fSize ;

  0013c	d9 45 bc	 fld	 DWORD PTR _row$93748[ebp]
  0013f	d8 4d d4	 fmul	 DWORD PTR _fSize$93745[ebp]
  00142	d9 5d a4	 fstp	 DWORD PTR _fTV$93752[ebp]

; 111  : 					float fTUExtent = fSize ;

  00145	8b 45 d4	 mov	 eax, DWORD PTR _fSize$93745[ebp]
  00148	89 45 98	 mov	 DWORD PTR _fTUExtent$93753[ebp], eax

; 112  : 					float fTVExtent = fSize ;

  0014b	8b 45 d4	 mov	 eax, DWORD PTR _fSize$93745[ebp]
  0014e	89 45 8c	 mov	 DWORD PTR _fTVExtent$93754[ebp], eax

; 113  : 
; 114  : 					OVERLAYVERTEX *pVertices ;
; 115  : 					pVertices = pVBVertices ;

  00151	8b 45 10	 mov	 eax, DWORD PTR _pVBVertices$[ebp]
  00154	89 45 80	 mov	 DWORD PTR _pVertices$93755[ebp], eax

; 116  : 					pVertices += m_ppChars[ i ]->m_dwIndexOffset ;

  00157	8b 45 f8	 mov	 eax, DWORD PTR _this$[ebp]
  0015a	8b 88 24 01 00
	00		 mov	 ecx, DWORD PTR [eax+292]
  00160	8b 55 ec	 mov	 edx, DWORD PTR _i$93738[ebp]
  00163	8b 04 91	 mov	 eax, DWORD PTR [ecx+edx*4]
  00166	8b 48 08	 mov	 ecx, DWORD PTR [eax+8]
  00169	6b c9 18	 imul	 ecx, 24			; 00000018H
  0016c	8b 55 80	 mov	 edx, DWORD PTR _pVertices$93755[ebp]
  0016f	03 d1		 add	 edx, ecx
  00171	89 55 80	 mov	 DWORD PTR _pVertices$93755[ebp], edx

; 117  : 					
; 118  : 					pVertices->tu = fTU ;

  00174	8b 45 80	 mov	 eax, DWORD PTR _pVertices$93755[ebp]
  00177	8b 4d b0	 mov	 ecx, DWORD PTR _fTU$93751[ebp]
  0017a	89 48 10	 mov	 DWORD PTR [eax+16], ecx

; 119  : 					pVertices->tv = fTV ;

  0017d	8b 45 80	 mov	 eax, DWORD PTR _pVertices$93755[ebp]
  00180	8b 4d a4	 mov	 ecx, DWORD PTR _fTV$93752[ebp]
  00183	89 48 14	 mov	 DWORD PTR [eax+20], ecx

; 120  : 					pVertices++ ;

  00186	8b 45 80	 mov	 eax, DWORD PTR _pVertices$93755[ebp]
  00189	83 c0 18	 add	 eax, 24			; 00000018H
  0018c	89 45 80	 mov	 DWORD PTR _pVertices$93755[ebp], eax

; 121  : 
; 122  : 					pVertices->tu = fTU + fTUExtent ;

  0018f	d9 45 b0	 fld	 DWORD PTR _fTU$93751[ebp]
  00192	d8 45 98	 fadd	 DWORD PTR _fTUExtent$93753[ebp]
  00195	8b 45 80	 mov	 eax, DWORD PTR _pVertices$93755[ebp]
  00198	d9 58 10	 fstp	 DWORD PTR [eax+16]

; 123  : 					pVertices->tv = fTV ;

  0019b	8b 45 80	 mov	 eax, DWORD PTR _pVertices$93755[ebp]
  0019e	8b 4d a4	 mov	 ecx, DWORD PTR _fTV$93752[ebp]
  001a1	89 48 14	 mov	 DWORD PTR [eax+20], ecx

; 124  : 					pVertices++ ;

  001a4	8b 45 80	 mov	 eax, DWORD PTR _pVertices$93755[ebp]
  001a7	83 c0 18	 add	 eax, 24			; 00000018H
  001aa	89 45 80	 mov	 DWORD PTR _pVertices$93755[ebp], eax

; 125  : 
; 126  : 					pVertices->tu = fTU ;

  001ad	8b 45 80	 mov	 eax, DWORD PTR _pVertices$93755[ebp]
  001b0	8b 4d b0	 mov	 ecx, DWORD PTR _fTU$93751[ebp]
  001b3	89 48 10	 mov	 DWORD PTR [eax+16], ecx

; 127  : 					pVertices->tv = fTV + fTVExtent ;

  001b6	d9 45 a4	 fld	 DWORD PTR _fTV$93752[ebp]
  001b9	d8 45 8c	 fadd	 DWORD PTR _fTVExtent$93754[ebp]
  001bc	8b 45 80	 mov	 eax, DWORD PTR _pVertices$93755[ebp]
  001bf	d9 58 14	 fstp	 DWORD PTR [eax+20]

; 128  : 					pVertices++ ;

  001c2	8b 45 80	 mov	 eax, DWORD PTR _pVertices$93755[ebp]
  001c5	83 c0 18	 add	 eax, 24			; 00000018H
  001c8	89 45 80	 mov	 DWORD PTR _pVertices$93755[ebp], eax

; 129  : 
; 130  : 					pVertices->tu = fTU + fTUExtent ;

  001cb	d9 45 b0	 fld	 DWORD PTR _fTU$93751[ebp]
  001ce	d8 45 98	 fadd	 DWORD PTR _fTUExtent$93753[ebp]
  001d1	8b 45 80	 mov	 eax, DWORD PTR _pVertices$93755[ebp]
  001d4	d9 58 10	 fstp	 DWORD PTR [eax+16]

; 131  : 					pVertices->tv = fTV + fTVExtent ;

  001d7	d9 45 a4	 fld	 DWORD PTR _fTV$93752[ebp]
  001da	d8 45 8c	 fadd	 DWORD PTR _fTVExtent$93754[ebp]
  001dd	8b 45 80	 mov	 eax, DWORD PTR _pVertices$93755[ebp]
  001e0	d9 58 14	 fstp	 DWORD PTR [eax+20]

; 132  : 					pVertices++ ;

  001e3	8b 45 80	 mov	 eax, DWORD PTR _pVertices$93755[ebp]
  001e6	83 c0 18	 add	 eax, 24			; 00000018H
  001e9	89 45 80	 mov	 DWORD PTR _pVertices$93755[ebp], eax
$L93744:

; 133  : 				}
; 134  : 			}

  001ec	e9 8e fe ff ff	 jmp	 $L93740
$L93732:

; 135  : 
; 136  : 		// unlock VB
; 137  : 			/*m_ppChars[ 0 ]->m_pSharedVB->Unlock();*/
; 138  : 		}
; 139  : 
; 140  : 		return S_OK ;

  001f1	33 c0		 xor	 eax, eax

; 141  : 	}

  001f3	5f		 pop	 edi
  001f4	5e		 pop	 esi
  001f5	5b		 pop	 ebx
  001f6	81 c4 48 01 00
	00		 add	 esp, 328		; 00000148H
  001fc	3b ec		 cmp	 ebp, esp
  001fe	e8 00 00 00 00	 call	 __RTC_CheckEsp
  00203	8b e5		 mov	 esp, ebp
  00205	5d		 pop	 ebp
  00206	c2 0c 00	 ret	 12			; 0000000cH
?FrameMove@CHUDText@@QAEJPAUIDirect3DDevice8@@PAVCUserInput@@PAUOVERLAYVERTEX@@@Z ENDP ; CHUDText::FrameMove
_TEXT	ENDS
PUBLIC	?InvalidateDeviceObjects@CHUDText@@QAEJXZ	; CHUDText::InvalidateDeviceObjects
PUBLIC	??_GCScreenOverlay@@QAEPAXI@Z			; CScreenOverlay::`scalar deleting destructor'
; Function compile flags: /Odt /RTCsu /ZI
;	COMDAT ?InvalidateDeviceObjects@CHUDText@@QAEJXZ
_TEXT	SEGMENT
tv78 = -244
$T93838 = -236
$T93837 = -224
_i$93760 = -20
_this$ = -8
?InvalidateDeviceObjects@CHUDText@@QAEJXZ PROC NEAR	; CHUDText::InvalidateDeviceObjects, COMDAT
; _this$ = ecx

; 144  : 	{

  00000	55		 push	 ebp
  00001	8b ec		 mov	 ebp, esp
  00003	81 ec f4 00 00
	00		 sub	 esp, 244		; 000000f4H
  00009	53		 push	 ebx
  0000a	56		 push	 esi
  0000b	57		 push	 edi
  0000c	51		 push	 ecx
  0000d	8d bd 0c ff ff
	ff		 lea	 edi, DWORD PTR [ebp-244]
  00013	b9 3d 00 00 00	 mov	 ecx, 61			; 0000003dH
  00018	b8 cc cc cc cc	 mov	 eax, -858993460		; ccccccccH
  0001d	f3 ab		 rep stosd
  0001f	59		 pop	 ecx
  00020	89 4d f8	 mov	 DWORD PTR _this$[ebp], ecx

; 145  : 		for (int i = 0 ; i < m_nChars ; i ++)

  00023	c7 45 ec 00 00
	00 00		 mov	 DWORD PTR _i$93760[ebp], 0
  0002a	eb 09		 jmp	 SHORT $L93761
$L93762:
  0002c	8b 45 ec	 mov	 eax, DWORD PTR _i$93760[ebp]
  0002f	83 c0 01	 add	 eax, 1
  00032	89 45 ec	 mov	 DWORD PTR _i$93760[ebp], eax
$L93761:
  00035	8b 45 f8	 mov	 eax, DWORD PTR _this$[ebp]
  00038	8b 4d ec	 mov	 ecx, DWORD PTR _i$93760[ebp]
  0003b	3b 88 28 01 00
	00		 cmp	 ecx, DWORD PTR [eax+296]
  00041	7d 73		 jge	 SHORT $L93763

; 146  : 			SAFE_DELETE( m_ppChars[ i ] ) 

  00043	8b 45 f8	 mov	 eax, DWORD PTR _this$[ebp]
  00046	8b 88 24 01 00
	00		 mov	 ecx, DWORD PTR [eax+292]
  0004c	8b 55 ec	 mov	 edx, DWORD PTR _i$93760[ebp]
  0004f	83 3c 91 00	 cmp	 DWORD PTR [ecx+edx*4], 0
  00053	74 5c		 je	 SHORT $L93764
  00055	8b 45 f8	 mov	 eax, DWORD PTR _this$[ebp]
  00058	8b 88 24 01 00
	00		 mov	 ecx, DWORD PTR [eax+292]
  0005e	8b 55 ec	 mov	 edx, DWORD PTR _i$93760[ebp]
  00061	8b 04 91	 mov	 eax, DWORD PTR [ecx+edx*4]
  00064	89 85 14 ff ff
	ff		 mov	 DWORD PTR $T93838[ebp], eax
  0006a	8b 8d 14 ff ff
	ff		 mov	 ecx, DWORD PTR $T93838[ebp]
  00070	89 8d 20 ff ff
	ff		 mov	 DWORD PTR $T93837[ebp], ecx
  00076	83 bd 20 ff ff
	ff 00		 cmp	 DWORD PTR $T93837[ebp], 0
  0007d	74 15		 je	 SHORT $L93839
  0007f	6a 01		 push	 1
  00081	8b 8d 20 ff ff
	ff		 mov	 ecx, DWORD PTR $T93837[ebp]
  00087	e8 00 00 00 00	 call	 ??_GCScreenOverlay@@QAEPAXI@Z
  0008c	89 85 0c ff ff
	ff		 mov	 DWORD PTR tv78[ebp], eax
  00092	eb 0a		 jmp	 SHORT $L93840
$L93839:
  00094	c7 85 0c ff ff
	ff 00 00 00 00	 mov	 DWORD PTR tv78[ebp], 0
$L93840:
  0009e	8b 45 f8	 mov	 eax, DWORD PTR _this$[ebp]
  000a1	8b 88 24 01 00
	00		 mov	 ecx, DWORD PTR [eax+292]
  000a7	8b 55 ec	 mov	 edx, DWORD PTR _i$93760[ebp]
  000aa	c7 04 91 00 00
	00 00		 mov	 DWORD PTR [ecx+edx*4], 0
$L93764:
  000b1	e9 76 ff ff ff	 jmp	 $L93762
$L93763:

; 147  : 		
; 148  : 		return S_OK ;

  000b6	33 c0		 xor	 eax, eax

; 149  : 	}

  000b8	5f		 pop	 edi
  000b9	5e		 pop	 esi
  000ba	5b		 pop	 ebx
  000bb	81 c4 f4 00 00
	00		 add	 esp, 244		; 000000f4H
  000c1	3b ec		 cmp	 ebp, esp
  000c3	e8 00 00 00 00	 call	 __RTC_CheckEsp
  000c8	8b e5		 mov	 esp, ebp
  000ca	5d		 pop	 ebp
  000cb	c3		 ret	 0
?InvalidateDeviceObjects@CHUDText@@QAEJXZ ENDP		; CHUDText::InvalidateDeviceObjects
_TEXT	ENDS
EXTRN	??1CScreenOverlay@@QAE@XZ:NEAR			; CScreenOverlay::~CScreenOverlay
; Function compile flags: /Odt /RTCsu /ZI
;	COMDAT ??_GCScreenOverlay@@QAEPAXI@Z
_TEXT	SEGMENT
_this$ = -8
___flags$ = 8
??_GCScreenOverlay@@QAEPAXI@Z PROC NEAR			; CScreenOverlay::`scalar deleting destructor', COMDAT
; _this$ = ecx
  00000	55		 push	 ebp
  00001	8b ec		 mov	 ebp, esp
  00003	81 ec cc 00 00
	00		 sub	 esp, 204		; 000000ccH
  00009	53		 push	 ebx
  0000a	56		 push	 esi
  0000b	57		 push	 edi
  0000c	51		 push	 ecx
  0000d	8d bd 34 ff ff
	ff		 lea	 edi, DWORD PTR [ebp-204]
  00013	b9 33 00 00 00	 mov	 ecx, 51			; 00000033H
  00018	b8 cc cc cc cc	 mov	 eax, -858993460		; ccccccccH
  0001d	f3 ab		 rep stosd
  0001f	59		 pop	 ecx
  00020	89 4d f8	 mov	 DWORD PTR _this$[ebp], ecx
  00023	8b 4d f8	 mov	 ecx, DWORD PTR _this$[ebp]
  00026	e8 00 00 00 00	 call	 ??1CScreenOverlay@@QAE@XZ ; CScreenOverlay::~CScreenOverlay
  0002b	8b 45 08	 mov	 eax, DWORD PTR ___flags$[ebp]
  0002e	83 e0 01	 and	 eax, 1
  00031	85 c0		 test	 eax, eax
  00033	74 0c		 je	 SHORT $L93771
  00035	8b 45 f8	 mov	 eax, DWORD PTR _this$[ebp]
  00038	50		 push	 eax
  00039	e8 00 00 00 00	 call	 ??3@YAXPAX@Z		; operator delete
  0003e	83 c4 04	 add	 esp, 4
$L93771:
  00041	8b 45 f8	 mov	 eax, DWORD PTR _this$[ebp]
  00044	5f		 pop	 edi
  00045	5e		 pop	 esi
  00046	5b		 pop	 ebx
  00047	81 c4 cc 00 00
	00		 add	 esp, 204		; 000000ccH
  0004d	3b ec		 cmp	 ebp, esp
  0004f	e8 00 00 00 00	 call	 __RTC_CheckEsp
  00054	8b e5		 mov	 esp, ebp
  00056	5d		 pop	 ebp
  00057	c2 04 00	 ret	 4
??_GCScreenOverlay@@QAEPAXI@Z ENDP			; CScreenOverlay::`scalar deleting destructor'
_TEXT	ENDS
END
