; Listing generated by Microsoft (R) Optimizing Compiler Version 13.00.9466 

	TITLE	CHUDScaleBar.cpp
	.386P
include listing.inc
if @Version gt 510
.model FLAT
else
_TEXT	SEGMENT PARA USE32 PUBLIC 'CODE'
_TEXT	ENDS
_DATA	SEGMENT DWORD USE32 PUBLIC 'DATA'
_DATA	ENDS
CONST	SEGMENT DWORD USE32 PUBLIC 'CONST'
CONST	ENDS
_BSS	SEGMENT DWORD USE32 PUBLIC 'BSS'
_BSS	ENDS
$$SYMBOLS	SEGMENT BYTE USE32 'DEBSYM'
$$SYMBOLS	ENDS
$$TYPES	SEGMENT BYTE USE32 'DEBTYP'
$$TYPES	ENDS
_TLS	SEGMENT DWORD USE32 PUBLIC 'TLS'
_TLS	ENDS
;	COMDAT ??_C@_0EO@CBGEOHMI@c?3?2documents?5and?5settings?2dom?2my@
CONST	SEGMENT DWORD USE32 PUBLIC 'CONST'
CONST	ENDS
;	COMDAT ??_C@_0M@NKNCPJJD@?$CBFAILED?$CIhr?$CJ?$AA@
CONST	SEGMENT DWORD USE32 PUBLIC 'CONST'
CONST	ENDS
;	COMDAT _IsEqualGUID
_TEXT	SEGMENT PARA USE32 PUBLIC 'CODE'
_TEXT	ENDS
;	COMDAT _==
_TEXT	SEGMENT PARA USE32 PUBLIC 'CODE'
_TEXT	ENDS
;	COMDAT _sqrtf
_TEXT	SEGMENT PARA USE32 PUBLIC 'CODE'
_TEXT	ENDS
;	COMDAT ??0D3DXVECTOR3@@QAE@XZ
_TEXT	SEGMENT PARA USE32 PUBLIC 'CODE'
_TEXT	ENDS
;	COMDAT ??0D3DXMATRIX@@QAE@XZ
_TEXT	SEGMENT PARA USE32 PUBLIC 'CODE'
_TEXT	ENDS
;	COMDAT ??0D3DXQUATERNION@@QAE@XZ
_TEXT	SEGMENT PARA USE32 PUBLIC 'CODE'
_TEXT	ENDS
;	COMDAT ??0D3DXVECTOR2@@QAE@MM@Z
_TEXT	SEGMENT PARA USE32 PUBLIC 'CODE'
_TEXT	ENDS
;	COMDAT ??0D3DXVECTOR3@@QAE@MMM@Z
_TEXT	SEGMENT PARA USE32 PUBLIC 'CODE'
_TEXT	ENDS
;	COMDAT ??0D3DXVECTOR4@@QAE@MMMM@Z
_TEXT	SEGMENT PARA USE32 PUBLIC 'CODE'
_TEXT	ENDS
;	COMDAT ??0D3DXMATRIX@@QAE@PBM@Z
_TEXT	SEGMENT PARA USE32 PUBLIC 'CODE'
_TEXT	ENDS
;	COMDAT ??0D3DXMATRIX@@QAE@ABU_D3DMATRIX@@@Z
_TEXT	SEGMENT PARA USE32 PUBLIC 'CODE'
_TEXT	ENDS
;	COMDAT ??0D3DXMATRIX@@QAE@MMMMMMMMMMMMMMMM@Z
_TEXT	SEGMENT PARA USE32 PUBLIC 'CODE'
_TEXT	ENDS
;	COMDAT ??0D3DXQUATERNION@@QAE@MMMM@Z
_TEXT	SEGMENT PARA USE32 PUBLIC 'CODE'
_TEXT	ENDS
;	COMDAT ??0D3DXPLANE@@QAE@MMMM@Z
_TEXT	SEGMENT PARA USE32 PUBLIC 'CODE'
_TEXT	ENDS
;	COMDAT ??0D3DXCOLOR@@QAE@MMMM@Z
_TEXT	SEGMENT PARA USE32 PUBLIC 'CODE'
_TEXT	ENDS
;	COMDAT ??BD3DXCOLOR@@QBEKXZ
_TEXT	SEGMENT PARA USE32 PUBLIC 'CODE'
_TEXT	ENDS
;	COMDAT ??0CHUDScaleBar@@QAE@XZ
_TEXT	SEGMENT PARA USE32 PUBLIC 'CODE'
_TEXT	ENDS
;	COMDAT ??1CHUDScaleBar@@QAE@XZ
_TEXT	SEGMENT PARA USE32 PUBLIC 'CODE'
_TEXT	ENDS
;	COMDAT ??0CHUDScaleBar@@QAE@PAUIDirect3DTexture8@@MMMMMMHMMMMM@Z
_TEXT	SEGMENT PARA USE32 PUBLIC 'CODE'
_TEXT	ENDS
;	COMDAT ?RestoreDeviceObjects@CHUDScaleBar@@UAEJPAUIDirect3DDevice8@@M@Z
_TEXT	SEGMENT PARA USE32 PUBLIC 'CODE'
_TEXT	ENDS
;	COMDAT ?FrameMove@CHUDScaleBar@@UAEJPAUIDirect3DDevice8@@MMPAUOVERLAYVERTEX@@@Z
_TEXT	SEGMENT PARA USE32 PUBLIC 'CODE'
_TEXT	ENDS
;	COMDAT ?__LINE__Var@?1??RestoreDeviceObjects@CHUDScaleBar@@UAEJPAUIDirect3DDevice8@@M@Z@4JA
_DATA	SEGMENT DWORD USE32 PUBLIC 'DATA'
_DATA	ENDS
;	COMDAT ??_7CHUDScaleBar@@6B@
CONST	SEGMENT DWORD USE32 PUBLIC 'CONST'
CONST	ENDS
FLAT	GROUP _DATA, CONST, _BSS
	ASSUME	CS: FLAT, DS: FLAT, SS: FLAT
endif

INCLUDELIB LIBCMTD
INCLUDELIB OLDNAMES

PUBLIC	??0CHUDScaleBar@@QAE@XZ				; CHUDScaleBar::CHUDScaleBar
PUBLIC	?FrameMove@CHUDScaleBar@@UAEJPAUIDirect3DDevice8@@MMPAUOVERLAYVERTEX@@@Z ; CHUDScaleBar::FrameMove
PUBLIC	?RestoreDeviceObjects@CHUDScaleBar@@UAEJPAUIDirect3DDevice8@@M@Z ; CHUDScaleBar::RestoreDeviceObjects
PUBLIC	??_7CHUDScaleBar@@6B@				; CHUDScaleBar::`vftable'
EXTRN	__RTC_InitBase:NEAR
EXTRN	__RTC_Shutdown:NEAR
EXTRN	__RTC_CheckEsp:NEAR
EXTRN	??0CScreenOverlay@@QAE@XZ:NEAR			; CScreenOverlay::CScreenOverlay
EXTRN	?Render@CScreenOverlay@@UAEJPAUIDirect3DDevice8@@@Z:NEAR ; CScreenOverlay::Render
;	COMDAT rtc$IMZ
; File c:\documents and settings\dom\my documents\_dev\ae\xlr8a\x7g\chudscalebar.cpp
rtc$IMZ	SEGMENT
__RTC_InitBase.rtc$IMZ DD FLAT:__RTC_InitBase
rtc$IMZ	ENDS
;	COMDAT rtc$TMZ
rtc$TMZ	SEGMENT
__RTC_Shutdown.rtc$TMZ DD FLAT:__RTC_Shutdown
rtc$TMZ	ENDS
;	COMDAT ??_7CHUDScaleBar@@6B@
CONST	SEGMENT
??_7CHUDScaleBar@@6B@ DD FLAT:?Render@CScreenOverlay@@UAEJPAUIDirect3DDevice8@@@Z ; CHUDScaleBar::`vftable'
	DD	FLAT:?RestoreDeviceObjects@CHUDScaleBar@@UAEJPAUIDirect3DDevice8@@M@Z
	DD	FLAT:?FrameMove@CHUDScaleBar@@UAEJPAUIDirect3DDevice8@@MMPAUOVERLAYVERTEX@@@Z
; Function compile flags: /Odt /RTCsu /ZI
CONST	ENDS
;	COMDAT ??0CHUDScaleBar@@QAE@XZ
_TEXT	SEGMENT
_this$ = -8
??0CHUDScaleBar@@QAE@XZ PROC NEAR			; CHUDScaleBar::CHUDScaleBar, COMDAT
; _this$ = ecx

; 6    : {

  00000	55		 push	 ebp
  00001	8b ec		 mov	 ebp, esp
  00003	81 ec cc 00 00
	00		 sub	 esp, 204		; 000000ccH
  00009	53		 push	 ebx
  0000a	56		 push	 esi
  0000b	57		 push	 edi
  0000c	51		 push	 ecx
  0000d	8d bd 34 ff ff
	ff		 lea	 edi, DWORD PTR [ebp-204]
  00013	b9 33 00 00 00	 mov	 ecx, 51			; 00000033H
  00018	b8 cc cc cc cc	 mov	 eax, -858993460		; ccccccccH
  0001d	f3 ab		 rep stosd
  0001f	59		 pop	 ecx
  00020	89 4d f8	 mov	 DWORD PTR _this$[ebp], ecx
  00023	8b 4d f8	 mov	 ecx, DWORD PTR _this$[ebp]
  00026	e8 00 00 00 00	 call	 ??0CScreenOverlay@@QAE@XZ ; CScreenOverlay::CScreenOverlay
  0002b	8b 45 f8	 mov	 eax, DWORD PTR _this$[ebp]
  0002e	c7 00 00 00 00
	00		 mov	 DWORD PTR [eax], OFFSET FLAT:??_7CHUDScaleBar@@6B@

; 7    : }

  00034	8b 45 f8	 mov	 eax, DWORD PTR _this$[ebp]
  00037	5f		 pop	 edi
  00038	5e		 pop	 esi
  00039	5b		 pop	 ebx
  0003a	81 c4 cc 00 00
	00		 add	 esp, 204		; 000000ccH
  00040	3b ec		 cmp	 ebp, esp
  00042	e8 00 00 00 00	 call	 __RTC_CheckEsp
  00047	8b e5		 mov	 esp, ebp
  00049	5d		 pop	 ebp
  0004a	c3		 ret	 0
??0CHUDScaleBar@@QAE@XZ ENDP				; CHUDScaleBar::CHUDScaleBar
_TEXT	ENDS
PUBLIC	??1CHUDScaleBar@@QAE@XZ				; CHUDScaleBar::~CHUDScaleBar
EXTRN	??1CScreenOverlay@@QAE@XZ:NEAR			; CScreenOverlay::~CScreenOverlay
; Function compile flags: /Odt /RTCsu /ZI
;	COMDAT ??1CHUDScaleBar@@QAE@XZ
_TEXT	SEGMENT
_this$ = -8
??1CHUDScaleBar@@QAE@XZ PROC NEAR			; CHUDScaleBar::~CHUDScaleBar, COMDAT
; _this$ = ecx

; 9    : {

  00000	55		 push	 ebp
  00001	8b ec		 mov	 ebp, esp
  00003	81 ec cc 00 00
	00		 sub	 esp, 204		; 000000ccH
  00009	53		 push	 ebx
  0000a	56		 push	 esi
  0000b	57		 push	 edi
  0000c	51		 push	 ecx
  0000d	8d bd 34 ff ff
	ff		 lea	 edi, DWORD PTR [ebp-204]
  00013	b9 33 00 00 00	 mov	 ecx, 51			; 00000033H
  00018	b8 cc cc cc cc	 mov	 eax, -858993460		; ccccccccH
  0001d	f3 ab		 rep stosd
  0001f	59		 pop	 ecx
  00020	89 4d f8	 mov	 DWORD PTR _this$[ebp], ecx
  00023	8b 45 f8	 mov	 eax, DWORD PTR _this$[ebp]
  00026	c7 00 00 00 00
	00		 mov	 DWORD PTR [eax], OFFSET FLAT:??_7CHUDScaleBar@@6B@

; 10   : }

  0002c	8b 4d f8	 mov	 ecx, DWORD PTR _this$[ebp]
  0002f	e8 00 00 00 00	 call	 ??1CScreenOverlay@@QAE@XZ ; CScreenOverlay::~CScreenOverlay
  00034	5f		 pop	 edi
  00035	5e		 pop	 esi
  00036	5b		 pop	 ebx
  00037	81 c4 cc 00 00
	00		 add	 esp, 204		; 000000ccH
  0003d	3b ec		 cmp	 ebp, esp
  0003f	e8 00 00 00 00	 call	 __RTC_CheckEsp
  00044	8b e5		 mov	 esp, ebp
  00046	5d		 pop	 ebp
  00047	c3		 ret	 0
??1CHUDScaleBar@@QAE@XZ ENDP				; CHUDScaleBar::~CHUDScaleBar
_TEXT	ENDS
PUBLIC	??0CHUDScaleBar@@QAE@PAUIDirect3DTexture8@@MMMMMMHMMMMM@Z ; CHUDScaleBar::CHUDScaleBar
EXTRN	__fltused:NEAR
EXTRN	??0CScreenOverlay@@QAE@PAUIDirect3DTexture8@@MMMMMMH@Z:NEAR ; CScreenOverlay::CScreenOverlay
; Function compile flags: /Odt /RTCsu /ZI
;	COMDAT ??0CHUDScaleBar@@QAE@PAUIDirect3DTexture8@@MMMMMMHMMMMM@Z
_TEXT	SEGMENT
_this$ = -8
_pTex$ = 8
_fTexRep$ = 12
_fMoveSpeed$ = 16
_fRed$ = 20
_fGreen$ = 24
_fBlue$ = 28
_fAlpha$ = 32
_bFade$ = 36
_fX$ = 40
_fY$ = 44
_fZ$ = 48
_fWidth$ = 52
_fHeight$ = 56
??0CHUDScaleBar@@QAE@PAUIDirect3DTexture8@@MMMMMMHMMMMM@Z PROC NEAR ; CHUDScaleBar::CHUDScaleBar, COMDAT
; _this$ = ecx

; 13   : {

  00000	55		 push	 ebp
  00001	8b ec		 mov	 ebp, esp
  00003	81 ec cc 00 00
	00		 sub	 esp, 204		; 000000ccH
  00009	53		 push	 ebx
  0000a	56		 push	 esi
  0000b	57		 push	 edi
  0000c	51		 push	 ecx
  0000d	8d bd 34 ff ff
	ff		 lea	 edi, DWORD PTR [ebp-204]
  00013	b9 33 00 00 00	 mov	 ecx, 51			; 00000033H
  00018	b8 cc cc cc cc	 mov	 eax, -858993460		; ccccccccH
  0001d	f3 ab		 rep stosd
  0001f	59		 pop	 ecx
  00020	89 4d f8	 mov	 DWORD PTR _this$[ebp], ecx
  00023	6a 00		 push	 0
  00025	8b 45 38	 mov	 eax, DWORD PTR _fHeight$[ebp]
  00028	50		 push	 eax
  00029	8b 4d 34	 mov	 ecx, DWORD PTR _fWidth$[ebp]
  0002c	51		 push	 ecx
  0002d	8b 55 30	 mov	 edx, DWORD PTR _fZ$[ebp]
  00030	52		 push	 edx
  00031	8b 45 2c	 mov	 eax, DWORD PTR _fY$[ebp]
  00034	50		 push	 eax
  00035	8b 4d 28	 mov	 ecx, DWORD PTR _fX$[ebp]
  00038	51		 push	 ecx
  00039	8b 55 0c	 mov	 edx, DWORD PTR _fTexRep$[ebp]
  0003c	52		 push	 edx
  0003d	8b 45 08	 mov	 eax, DWORD PTR _pTex$[ebp]
  00040	50		 push	 eax
  00041	8b 4d f8	 mov	 ecx, DWORD PTR _this$[ebp]
  00044	e8 00 00 00 00	 call	 ??0CScreenOverlay@@QAE@PAUIDirect3DTexture8@@MMMMMMH@Z ; CScreenOverlay::CScreenOverlay
  00049	8b 45 f8	 mov	 eax, DWORD PTR _this$[ebp]
  0004c	c7 00 00 00 00
	00		 mov	 DWORD PTR [eax], OFFSET FLAT:??_7CHUDScaleBar@@6B@

; 14   : 	m_fMoveSpeed = fMoveSpeed ;

  00052	8b 45 f8	 mov	 eax, DWORD PTR _this$[ebp]
  00055	8b 4d 10	 mov	 ecx, DWORD PTR _fMoveSpeed$[ebp]
  00058	89 88 d4 00 00
	00		 mov	 DWORD PTR [eax+212], ecx

; 15   : 	m_fRed = fRed ;

  0005e	8b 45 f8	 mov	 eax, DWORD PTR _this$[ebp]
  00061	8b 4d 14	 mov	 ecx, DWORD PTR _fRed$[ebp]
  00064	89 88 d8 00 00
	00		 mov	 DWORD PTR [eax+216], ecx

; 16   : 	m_fGreen= fGreen ;

  0006a	8b 45 f8	 mov	 eax, DWORD PTR _this$[ebp]
  0006d	8b 4d 18	 mov	 ecx, DWORD PTR _fGreen$[ebp]
  00070	89 88 dc 00 00
	00		 mov	 DWORD PTR [eax+220], ecx

; 17   : 	m_fBlue = fBlue ;

  00076	8b 45 f8	 mov	 eax, DWORD PTR _this$[ebp]
  00079	8b 4d 1c	 mov	 ecx, DWORD PTR _fBlue$[ebp]
  0007c	89 88 e0 00 00
	00		 mov	 DWORD PTR [eax+224], ecx

; 18   : 	m_fAlpha = fAlpha ;

  00082	8b 45 f8	 mov	 eax, DWORD PTR _this$[ebp]
  00085	8b 4d 20	 mov	 ecx, DWORD PTR _fAlpha$[ebp]
  00088	89 88 e4 00 00
	00		 mov	 DWORD PTR [eax+228], ecx

; 19   : 	m_fLevel = 1.0f ;

  0008e	8b 45 f8	 mov	 eax, DWORD PTR _this$[ebp]
  00091	c7 80 e8 00 00
	00 00 00 80 3f	 mov	 DWORD PTR [eax+232], 1065353216 ; 3f800000H

; 20   : 	m_bFade = bFade ;

  0009b	8b 45 f8	 mov	 eax, DWORD PTR _this$[ebp]
  0009e	8b 4d 24	 mov	 ecx, DWORD PTR _bFade$[ebp]
  000a1	89 88 ec 00 00
	00		 mov	 DWORD PTR [eax+236], ecx

; 21   : 	m_bFrameMoveRequired = FALSE ;

  000a7	8b 45 f8	 mov	 eax, DWORD PTR _this$[ebp]
  000aa	c7 80 d0 00 00
	00 00 00 00 00	 mov	 DWORD PTR [eax+208], 0

; 22   : }

  000b4	8b 45 f8	 mov	 eax, DWORD PTR _this$[ebp]
  000b7	5f		 pop	 edi
  000b8	5e		 pop	 esi
  000b9	5b		 pop	 ebx
  000ba	81 c4 cc 00 00
	00		 add	 esp, 204		; 000000ccH
  000c0	3b ec		 cmp	 ebp, esp
  000c2	e8 00 00 00 00	 call	 __RTC_CheckEsp
  000c7	8b e5		 mov	 esp, ebp
  000c9	5d		 pop	 ebp
  000ca	c2 34 00	 ret	 52			; 00000034H
??0CHUDScaleBar@@QAE@PAUIDirect3DTexture8@@MMMMMMHMMMMM@Z ENDP ; CHUDScaleBar::CHUDScaleBar
_TEXT	ENDS
PUBLIC	??0D3DXCOLOR@@QAE@MMMM@Z			; D3DXCOLOR::D3DXCOLOR
PUBLIC	??BD3DXCOLOR@@QBEKXZ				; D3DXCOLOR::operator unsigned long
PUBLIC	?__LINE__Var@?1??RestoreDeviceObjects@CHUDScaleBar@@UAEJPAUIDirect3DDevice8@@M@Z@4JA ; `CHUDScaleBar::RestoreDeviceObjects'::`2'::__LINE__Var
PUBLIC	??_C@_0EO@CBGEOHMI@c?3?2documents?5and?5settings?2dom?2my@ ; `string'
PUBLIC	??_C@_0M@NKNCPJJD@?$CBFAILED?$CIhr?$CJ?$AA@	; `string'
PUBLIC	__real@3e800000
PUBLIC	__real@3f400000
EXTRN	@_RTC_CheckStackVars@8:NEAR
EXTRN	__assert:NEAR
EXTRN	?RestoreDeviceObjects@CScreenOverlay@@UAEJPAUIDirect3DDevice8@@M@Z:NEAR ; CScreenOverlay::RestoreDeviceObjects
;	COMDAT ?__LINE__Var@?1??RestoreDeviceObjects@CHUDScaleBar@@UAEJPAUIDirect3DDevice8@@M@Z@4JA
_DATA	SEGMENT
?__LINE__Var@?1??RestoreDeviceObjects@CHUDScaleBar@@UAEJPAUIDirect3DDevice8@@M@Z@4JA DD 019H ; `CHUDScaleBar::RestoreDeviceObjects'::`2'::__LINE__Var
_DATA	ENDS
;	COMDAT ??_C@_0EO@CBGEOHMI@c?3?2documents?5and?5settings?2dom?2my@
CONST	SEGMENT
??_C@_0EO@CBGEOHMI@c?3?2documents?5and?5settings?2dom?2my@ DB 'c:\documen'
	DB	'ts and settings\dom\my documents\_dev\ae\xlr8a\x7g\chudscaleb'
	DB	'ar.cpp', 00H				; `string'
CONST	ENDS
;	COMDAT ??_C@_0M@NKNCPJJD@?$CBFAILED?$CIhr?$CJ?$AA@
CONST	SEGMENT
??_C@_0M@NKNCPJJD@?$CBFAILED?$CIhr?$CJ?$AA@ DB '!FAILED(hr)', 00H ; `string'
CONST	ENDS
;	COMDAT __real@3e800000
CONST	SEGMENT
__real@3e800000 DD 03e800000r			; 0.25
CONST	ENDS
;	COMDAT __real@3f400000
CONST	SEGMENT
__real@3f400000 DD 03f400000r			; 0.75
; Function compile flags: /Odt /RTCsu /ZI
CONST	ENDS
;	COMDAT ?RestoreDeviceObjects@CHUDScaleBar@@UAEJPAUIDirect3DDevice8@@M@Z
_TEXT	SEGMENT
$T85372 = -368
$T85371 = -344
$T85370 = -320
$T85369 = -296
$T85368 = -272
$T85367 = -248
_pVertices$ = -32
_hr$ = -20
_this$ = -8
_pDev$ = 8
_fAspect$ = 12
?RestoreDeviceObjects@CHUDScaleBar@@UAEJPAUIDirect3DDevice8@@M@Z PROC NEAR ; CHUDScaleBar::RestoreDeviceObjects, COMDAT
; _this$ = ecx

; 25   : {

  00000	55		 push	 ebp
  00001	8b ec		 mov	 ebp, esp
  00003	81 ec 74 01 00
	00		 sub	 esp, 372		; 00000174H
  00009	53		 push	 ebx
  0000a	56		 push	 esi
  0000b	57		 push	 edi
  0000c	51		 push	 ecx
  0000d	8d bd 8c fe ff
	ff		 lea	 edi, DWORD PTR [ebp-372]
  00013	b9 5d 00 00 00	 mov	 ecx, 93			; 0000005dH
  00018	b8 cc cc cc cc	 mov	 eax, -858993460		; ccccccccH
  0001d	f3 ab		 rep stosd
  0001f	59		 pop	 ecx
  00020	89 4d f8	 mov	 DWORD PTR _this$[ebp], ecx

; 26   : 	HRESULT hr ;
; 27   : 
; 28   : #ifdef FULL_DBG_TRACE
; 29   : 	ods( "CHUDScaleBar::RestoreDeviceObjects\n" );
; 30   : #endif
; 31   : 
; 32   : 	CScreenOverlay::RestoreDeviceObjects(pDev, fAspect) ;

  00023	8b 45 0c	 mov	 eax, DWORD PTR _fAspect$[ebp]
  00026	50		 push	 eax
  00027	8b 4d 08	 mov	 ecx, DWORD PTR _pDev$[ebp]
  0002a	51		 push	 ecx
  0002b	8b 4d f8	 mov	 ecx, DWORD PTR _this$[ebp]
  0002e	e8 00 00 00 00	 call	 ?RestoreDeviceObjects@CScreenOverlay@@UAEJPAUIDirect3DDevice8@@M@Z ; CScreenOverlay::RestoreDeviceObjects

; 33   : 
; 34   : //
; 35   : // Change the vertex colors from white to blue.
; 36   : //
; 37   :     //ods("CHUDScaleBar::RestoreDeviceObjects - Lock: ");
; 38   : 	OVERLAYVERTEX* pVertices ; 
; 39   : 	hr = m_pSharedVB->Lock(0, 0, (BYTE**)&pVertices, NULL) ;

  00033	8b f4		 mov	 esi, esp
  00035	6a 00		 push	 0
  00037	8d 45 e0	 lea	 eax, DWORD PTR _pVertices$[ebp]
  0003a	50		 push	 eax
  0003b	6a 00		 push	 0
  0003d	6a 00		 push	 0
  0003f	8b 4d f8	 mov	 ecx, DWORD PTR _this$[ebp]
  00042	8b 51 04	 mov	 edx, DWORD PTR [ecx+4]
  00045	8b 45 f8	 mov	 eax, DWORD PTR _this$[ebp]
  00048	8b 48 04	 mov	 ecx, DWORD PTR [eax+4]
  0004b	8b 12		 mov	 edx, DWORD PTR [edx]
  0004d	51		 push	 ecx
  0004e	ff 52 2c	 call	 DWORD PTR [edx+44]
  00051	3b f4		 cmp	 esi, esp
  00053	e8 00 00 00 00	 call	 __RTC_CheckEsp
  00058	89 45 ec	 mov	 DWORD PTR _hr$[ebp], eax

; 40   : 	assert( !FAILED(hr) );

  0005b	83 7d ec 00	 cmp	 DWORD PTR _hr$[ebp], 0
  0005f	7d 1b		 jge	 SHORT $L85366
  00061	a1 00 00 00 00	 mov	 eax, DWORD PTR ?__LINE__Var@?1??RestoreDeviceObjects@CHUDScaleBar@@UAEJPAUIDirect3DDevice8@@M@Z@4JA
  00066	83 c0 0f	 add	 eax, 15			; 0000000fH
  00069	50		 push	 eax
  0006a	68 00 00 00 00	 push	 OFFSET FLAT:??_C@_0EO@CBGEOHMI@c?3?2documents?5and?5settings?2dom?2my@
  0006f	68 00 00 00 00	 push	 OFFSET FLAT:??_C@_0M@NKNCPJJD@?$CBFAILED?$CIhr?$CJ?$AA@
  00074	e8 00 00 00 00	 call	 __assert
  00079	83 c4 0c	 add	 esp, 12			; 0000000cH
$L85366:

; 41   :     //ods("OK\n");
; 42   : 
; 43   :     pVertices += m_dwIndexOffset ;

  0007c	8b 45 f8	 mov	 eax, DWORD PTR _this$[ebp]
  0007f	8b 48 08	 mov	 ecx, DWORD PTR [eax+8]
  00082	6b c9 18	 imul	 ecx, 24			; 00000018H
  00085	8b 55 e0	 mov	 edx, DWORD PTR _pVertices$[ebp]
  00088	03 d1		 add	 edx, ecx
  0008a	89 55 e0	 mov	 DWORD PTR _pVertices$[ebp], edx

; 44   : 	
; 45   : 	if( m_bFade )

  0008d	8b 45 f8	 mov	 eax, DWORD PTR _this$[ebp]
  00090	83 b8 ec 00 00
	00 00		 cmp	 DWORD PTR [eax+236], 0
  00097	74 6f		 je	 SHORT $L85295

; 46   : 		pVertices->color = D3DXCOLOR(m_fRed * 0.25f + 0.75f, m_fGreen * 0.25f + 0.75f, m_fBlue * 0.25f + 0.75f, m_fAlpha) ;

  00099	8b 45 f8	 mov	 eax, DWORD PTR _this$[ebp]
  0009c	8b 88 e4 00 00
	00		 mov	 ecx, DWORD PTR [eax+228]
  000a2	51		 push	 ecx
  000a3	8b 55 f8	 mov	 edx, DWORD PTR _this$[ebp]
  000a6	d9 82 e0 00 00
	00		 fld	 DWORD PTR [edx+224]
  000ac	d8 0d 00 00 00
	00		 fmul	 DWORD PTR __real@3e800000
  000b2	d8 05 00 00 00
	00		 fadd	 DWORD PTR __real@3f400000
  000b8	51		 push	 ecx
  000b9	d9 1c 24	 fstp	 DWORD PTR [esp]
  000bc	8b 45 f8	 mov	 eax, DWORD PTR _this$[ebp]
  000bf	d9 80 dc 00 00
	00		 fld	 DWORD PTR [eax+220]
  000c5	d8 0d 00 00 00
	00		 fmul	 DWORD PTR __real@3e800000
  000cb	d8 05 00 00 00
	00		 fadd	 DWORD PTR __real@3f400000
  000d1	51		 push	 ecx
  000d2	d9 1c 24	 fstp	 DWORD PTR [esp]
  000d5	8b 4d f8	 mov	 ecx, DWORD PTR _this$[ebp]
  000d8	d9 81 d8 00 00
	00		 fld	 DWORD PTR [ecx+216]
  000de	d8 0d 00 00 00
	00		 fmul	 DWORD PTR __real@3e800000
  000e4	d8 05 00 00 00
	00		 fadd	 DWORD PTR __real@3f400000
  000ea	51		 push	 ecx
  000eb	d9 1c 24	 fstp	 DWORD PTR [esp]
  000ee	8d 8d 08 ff ff
	ff		 lea	 ecx, DWORD PTR $T85367[ebp]
  000f4	e8 00 00 00 00	 call	 ??0D3DXCOLOR@@QAE@MMMM@Z ; D3DXCOLOR::D3DXCOLOR
  000f9	8b c8		 mov	 ecx, eax
  000fb	e8 00 00 00 00	 call	 ??BD3DXCOLOR@@QBEKXZ	; D3DXCOLOR::operator unsigned long
  00100	8b 55 e0	 mov	 edx, DWORD PTR _pVertices$[ebp]
  00103	89 42 0c	 mov	 DWORD PTR [edx+12], eax

; 47   : 	else

  00106	eb 40		 jmp	 SHORT $L85297
$L85295:

; 48   : 		pVertices->color = D3DXCOLOR(m_fRed, m_fGreen, m_fBlue, m_fAlpha) ;

  00108	8b 45 f8	 mov	 eax, DWORD PTR _this$[ebp]
  0010b	8b 88 e4 00 00
	00		 mov	 ecx, DWORD PTR [eax+228]
  00111	51		 push	 ecx
  00112	8b 55 f8	 mov	 edx, DWORD PTR _this$[ebp]
  00115	8b 82 e0 00 00
	00		 mov	 eax, DWORD PTR [edx+224]
  0011b	50		 push	 eax
  0011c	8b 4d f8	 mov	 ecx, DWORD PTR _this$[ebp]
  0011f	8b 91 dc 00 00
	00		 mov	 edx, DWORD PTR [ecx+220]
  00125	52		 push	 edx
  00126	8b 45 f8	 mov	 eax, DWORD PTR _this$[ebp]
  00129	8b 88 d8 00 00
	00		 mov	 ecx, DWORD PTR [eax+216]
  0012f	51		 push	 ecx
  00130	8d 8d f0 fe ff
	ff		 lea	 ecx, DWORD PTR $T85368[ebp]
  00136	e8 00 00 00 00	 call	 ??0D3DXCOLOR@@QAE@MMMM@Z ; D3DXCOLOR::D3DXCOLOR
  0013b	8b c8		 mov	 ecx, eax
  0013d	e8 00 00 00 00	 call	 ??BD3DXCOLOR@@QBEKXZ	; D3DXCOLOR::operator unsigned long
  00142	8b 55 e0	 mov	 edx, DWORD PTR _pVertices$[ebp]
  00145	89 42 0c	 mov	 DWORD PTR [edx+12], eax
$L85297:

; 49   :     pVertices++ ;

  00148	8b 45 e0	 mov	 eax, DWORD PTR _pVertices$[ebp]
  0014b	83 c0 18	 add	 eax, 24			; 00000018H
  0014e	89 45 e0	 mov	 DWORD PTR _pVertices$[ebp], eax

; 50   : 
; 51   : 	pVertices->color = D3DXCOLOR(m_fRed, m_fGreen, m_fBlue, m_fAlpha) ;

  00151	8b 45 f8	 mov	 eax, DWORD PTR _this$[ebp]
  00154	8b 88 e4 00 00
	00		 mov	 ecx, DWORD PTR [eax+228]
  0015a	51		 push	 ecx
  0015b	8b 55 f8	 mov	 edx, DWORD PTR _this$[ebp]
  0015e	8b 82 e0 00 00
	00		 mov	 eax, DWORD PTR [edx+224]
  00164	50		 push	 eax
  00165	8b 4d f8	 mov	 ecx, DWORD PTR _this$[ebp]
  00168	8b 91 dc 00 00
	00		 mov	 edx, DWORD PTR [ecx+220]
  0016e	52		 push	 edx
  0016f	8b 45 f8	 mov	 eax, DWORD PTR _this$[ebp]
  00172	8b 88 d8 00 00
	00		 mov	 ecx, DWORD PTR [eax+216]
  00178	51		 push	 ecx
  00179	8d 8d d8 fe ff
	ff		 lea	 ecx, DWORD PTR $T85369[ebp]
  0017f	e8 00 00 00 00	 call	 ??0D3DXCOLOR@@QAE@MMMM@Z ; D3DXCOLOR::D3DXCOLOR
  00184	8b c8		 mov	 ecx, eax
  00186	e8 00 00 00 00	 call	 ??BD3DXCOLOR@@QBEKXZ	; D3DXCOLOR::operator unsigned long
  0018b	8b 55 e0	 mov	 edx, DWORD PTR _pVertices$[ebp]
  0018e	89 42 0c	 mov	 DWORD PTR [edx+12], eax

; 52   :     pVertices++ ;

  00191	8b 45 e0	 mov	 eax, DWORD PTR _pVertices$[ebp]
  00194	83 c0 18	 add	 eax, 24			; 00000018H
  00197	89 45 e0	 mov	 DWORD PTR _pVertices$[ebp], eax

; 53   : 
; 54   : 	if( m_bFade )

  0019a	8b 45 f8	 mov	 eax, DWORD PTR _this$[ebp]
  0019d	83 b8 ec 00 00
	00 00		 cmp	 DWORD PTR [eax+236], 0
  001a4	74 6f		 je	 SHORT $L85300

; 55   : 		pVertices->color = D3DXCOLOR(m_fRed * 0.25f + 0.75f, m_fGreen * 0.25f + 0.75f, m_fBlue * 0.25f + 0.75f, m_fAlpha) ;

  001a6	8b 45 f8	 mov	 eax, DWORD PTR _this$[ebp]
  001a9	8b 88 e4 00 00
	00		 mov	 ecx, DWORD PTR [eax+228]
  001af	51		 push	 ecx
  001b0	8b 55 f8	 mov	 edx, DWORD PTR _this$[ebp]
  001b3	d9 82 e0 00 00
	00		 fld	 DWORD PTR [edx+224]
  001b9	d8 0d 00 00 00
	00		 fmul	 DWORD PTR __real@3e800000
  001bf	d8 05 00 00 00
	00		 fadd	 DWORD PTR __real@3f400000
  001c5	51		 push	 ecx
  001c6	d9 1c 24	 fstp	 DWORD PTR [esp]
  001c9	8b 45 f8	 mov	 eax, DWORD PTR _this$[ebp]
  001cc	d9 80 dc 00 00
	00		 fld	 DWORD PTR [eax+220]
  001d2	d8 0d 00 00 00
	00		 fmul	 DWORD PTR __real@3e800000
  001d8	d8 05 00 00 00
	00		 fadd	 DWORD PTR __real@3f400000
  001de	51		 push	 ecx
  001df	d9 1c 24	 fstp	 DWORD PTR [esp]
  001e2	8b 4d f8	 mov	 ecx, DWORD PTR _this$[ebp]
  001e5	d9 81 d8 00 00
	00		 fld	 DWORD PTR [ecx+216]
  001eb	d8 0d 00 00 00
	00		 fmul	 DWORD PTR __real@3e800000
  001f1	d8 05 00 00 00
	00		 fadd	 DWORD PTR __real@3f400000
  001f7	51		 push	 ecx
  001f8	d9 1c 24	 fstp	 DWORD PTR [esp]
  001fb	8d 8d c0 fe ff
	ff		 lea	 ecx, DWORD PTR $T85370[ebp]
  00201	e8 00 00 00 00	 call	 ??0D3DXCOLOR@@QAE@MMMM@Z ; D3DXCOLOR::D3DXCOLOR
  00206	8b c8		 mov	 ecx, eax
  00208	e8 00 00 00 00	 call	 ??BD3DXCOLOR@@QBEKXZ	; D3DXCOLOR::operator unsigned long
  0020d	8b 55 e0	 mov	 edx, DWORD PTR _pVertices$[ebp]
  00210	89 42 0c	 mov	 DWORD PTR [edx+12], eax

; 56   : 	else

  00213	eb 40		 jmp	 SHORT $L85302
$L85300:

; 57   : 		pVertices->color = D3DXCOLOR(m_fRed, m_fGreen, m_fBlue, m_fAlpha) ;

  00215	8b 45 f8	 mov	 eax, DWORD PTR _this$[ebp]
  00218	8b 88 e4 00 00
	00		 mov	 ecx, DWORD PTR [eax+228]
  0021e	51		 push	 ecx
  0021f	8b 55 f8	 mov	 edx, DWORD PTR _this$[ebp]
  00222	8b 82 e0 00 00
	00		 mov	 eax, DWORD PTR [edx+224]
  00228	50		 push	 eax
  00229	8b 4d f8	 mov	 ecx, DWORD PTR _this$[ebp]
  0022c	8b 91 dc 00 00
	00		 mov	 edx, DWORD PTR [ecx+220]
  00232	52		 push	 edx
  00233	8b 45 f8	 mov	 eax, DWORD PTR _this$[ebp]
  00236	8b 88 d8 00 00
	00		 mov	 ecx, DWORD PTR [eax+216]
  0023c	51		 push	 ecx
  0023d	8d 8d a8 fe ff
	ff		 lea	 ecx, DWORD PTR $T85371[ebp]
  00243	e8 00 00 00 00	 call	 ??0D3DXCOLOR@@QAE@MMMM@Z ; D3DXCOLOR::D3DXCOLOR
  00248	8b c8		 mov	 ecx, eax
  0024a	e8 00 00 00 00	 call	 ??BD3DXCOLOR@@QBEKXZ	; D3DXCOLOR::operator unsigned long
  0024f	8b 55 e0	 mov	 edx, DWORD PTR _pVertices$[ebp]
  00252	89 42 0c	 mov	 DWORD PTR [edx+12], eax
$L85302:

; 58   :     pVertices++ ;

  00255	8b 45 e0	 mov	 eax, DWORD PTR _pVertices$[ebp]
  00258	83 c0 18	 add	 eax, 24			; 00000018H
  0025b	89 45 e0	 mov	 DWORD PTR _pVertices$[ebp], eax

; 59   : 
; 60   : 	pVertices->color = D3DXCOLOR(m_fRed, m_fGreen, m_fBlue, m_fAlpha) ;

  0025e	8b 45 f8	 mov	 eax, DWORD PTR _this$[ebp]
  00261	8b 88 e4 00 00
	00		 mov	 ecx, DWORD PTR [eax+228]
  00267	51		 push	 ecx
  00268	8b 55 f8	 mov	 edx, DWORD PTR _this$[ebp]
  0026b	8b 82 e0 00 00
	00		 mov	 eax, DWORD PTR [edx+224]
  00271	50		 push	 eax
  00272	8b 4d f8	 mov	 ecx, DWORD PTR _this$[ebp]
  00275	8b 91 dc 00 00
	00		 mov	 edx, DWORD PTR [ecx+220]
  0027b	52		 push	 edx
  0027c	8b 45 f8	 mov	 eax, DWORD PTR _this$[ebp]
  0027f	8b 88 d8 00 00
	00		 mov	 ecx, DWORD PTR [eax+216]
  00285	51		 push	 ecx
  00286	8d 8d 90 fe ff
	ff		 lea	 ecx, DWORD PTR $T85372[ebp]
  0028c	e8 00 00 00 00	 call	 ??0D3DXCOLOR@@QAE@MMMM@Z ; D3DXCOLOR::D3DXCOLOR
  00291	8b c8		 mov	 ecx, eax
  00293	e8 00 00 00 00	 call	 ??BD3DXCOLOR@@QBEKXZ	; D3DXCOLOR::operator unsigned long
  00298	8b 55 e0	 mov	 edx, DWORD PTR _pVertices$[ebp]
  0029b	89 42 0c	 mov	 DWORD PTR [edx+12], eax

; 61   :     pVertices++ ;

  0029e	8b 45 e0	 mov	 eax, DWORD PTR _pVertices$[ebp]
  002a1	83 c0 18	 add	 eax, 24			; 00000018H
  002a4	89 45 e0	 mov	 DWORD PTR _pVertices$[ebp], eax

; 62   : 
; 63   :     //ods("CHUDScaleBar::RestoreDeviceObjects - Unlock: ");
; 64   :     hr = m_pSharedVB->Unlock();

  002a7	8b 45 f8	 mov	 eax, DWORD PTR _this$[ebp]
  002aa	8b 48 04	 mov	 ecx, DWORD PTR [eax+4]
  002ad	8b 55 f8	 mov	 edx, DWORD PTR _this$[ebp]
  002b0	8b 42 04	 mov	 eax, DWORD PTR [edx+4]
  002b3	8b 09		 mov	 ecx, DWORD PTR [ecx]
  002b5	8b f4		 mov	 esi, esp
  002b7	50		 push	 eax
  002b8	ff 51 30	 call	 DWORD PTR [ecx+48]
  002bb	3b f4		 cmp	 esi, esp
  002bd	e8 00 00 00 00	 call	 __RTC_CheckEsp
  002c2	89 45 ec	 mov	 DWORD PTR _hr$[ebp], eax

; 65   : 	assert( !FAILED(hr) );

  002c5	83 7d ec 00	 cmp	 DWORD PTR _hr$[ebp], 0
  002c9	7d 1b		 jge	 SHORT $L85373
  002cb	a1 00 00 00 00	 mov	 eax, DWORD PTR ?__LINE__Var@?1??RestoreDeviceObjects@CHUDScaleBar@@UAEJPAUIDirect3DDevice8@@M@Z@4JA
  002d0	83 c0 28	 add	 eax, 40			; 00000028H
  002d3	50		 push	 eax
  002d4	68 00 00 00 00	 push	 OFFSET FLAT:??_C@_0EO@CBGEOHMI@c?3?2documents?5and?5settings?2dom?2my@
  002d9	68 00 00 00 00	 push	 OFFSET FLAT:??_C@_0M@NKNCPJJD@?$CBFAILED?$CIhr?$CJ?$AA@
  002de	e8 00 00 00 00	 call	 __assert
  002e3	83 c4 0c	 add	 esp, 12			; 0000000cH
$L85373:

; 66   :     //ods("OK\n");
; 67   : 
; 68   : 	return S_OK ;

  002e6	33 c0		 xor	 eax, eax

; 69   : }

  002e8	52		 push	 edx
  002e9	8b cd		 mov	 ecx, ebp
  002eb	50		 push	 eax
  002ec	8d 15 00 00 00
	00		 lea	 edx, DWORD PTR $L85380
  002f2	e8 00 00 00 00	 call	 @_RTC_CheckStackVars@8
  002f7	58		 pop	 eax
  002f8	5a		 pop	 edx
  002f9	5f		 pop	 edi
  002fa	5e		 pop	 esi
  002fb	5b		 pop	 ebx
  002fc	81 c4 74 01 00
	00		 add	 esp, 372		; 00000174H
  00302	3b ec		 cmp	 ebp, esp
  00304	e8 00 00 00 00	 call	 __RTC_CheckEsp
  00309	8b e5		 mov	 esp, ebp
  0030b	5d		 pop	 ebp
  0030c	c2 08 00	 ret	 8
$L85380:
  0030f	01 00 00 00	 DD	 1
  00313	00 00 00 00	 DD	 $L85379
$L85379:
  00317	e0 ff ff ff	 DD	 -32			; ffffffe0H
  0031b	04 00 00 00	 DD	 4
  0031f	00 00 00 00	 DD	 $L85378
$L85378:
  00323	70		 DB	 112			; 00000070H
  00324	56		 DB	 86			; 00000056H
  00325	65		 DB	 101			; 00000065H
  00326	72		 DB	 114			; 00000072H
  00327	74		 DB	 116			; 00000074H
  00328	69		 DB	 105			; 00000069H
  00329	63		 DB	 99			; 00000063H
  0032a	65		 DB	 101			; 00000065H
  0032b	73		 DB	 115			; 00000073H
  0032c	00		 DB	 0
?RestoreDeviceObjects@CHUDScaleBar@@UAEJPAUIDirect3DDevice8@@M@Z ENDP ; CHUDScaleBar::RestoreDeviceObjects
_TEXT	ENDS
PUBLIC	__real@3f800000
PUBLIC	__real@bf000000
PUBLIC	__real@3f000000
;	COMDAT __real@3f800000
CONST	SEGMENT
__real@3f800000 DD 03f800000r			; 1
CONST	ENDS
;	COMDAT __real@bf000000
CONST	SEGMENT
__real@bf000000 DD 0bf000000r			; -0.5
CONST	ENDS
;	COMDAT __real@3f000000
CONST	SEGMENT
__real@3f000000 DD 03f000000r			; 0.5
; Function compile flags: /Odt /RTCsu /ZI
CONST	ENDS
;	COMDAT ?FrameMove@CHUDScaleBar@@UAEJPAUIDirect3DDevice8@@MMPAUOVERLAYVERTEX@@@Z
_TEXT	SEGMENT
_fHorizSize$85317 = -32
_fVertSize$85316 = -20
_this$ = -8
_pDev$ = 8
_fTimeMult$ = 12
_fAspect$ = 16
_pVertices$ = 20
?FrameMove@CHUDScaleBar@@UAEJPAUIDirect3DDevice8@@MMPAUOVERLAYVERTEX@@@Z PROC NEAR ; CHUDScaleBar::FrameMove, COMDAT
; _this$ = ecx

; 72   : {

  00000	55		 push	 ebp
  00001	8b ec		 mov	 ebp, esp
  00003	81 ec e4 00 00
	00		 sub	 esp, 228		; 000000e4H
  00009	53		 push	 ebx
  0000a	56		 push	 esi
  0000b	57		 push	 edi
  0000c	51		 push	 ecx
  0000d	8d bd 1c ff ff
	ff		 lea	 edi, DWORD PTR [ebp-228]
  00013	b9 39 00 00 00	 mov	 ecx, 57			; 00000039H
  00018	b8 cc cc cc cc	 mov	 eax, -858993460		; ccccccccH
  0001d	f3 ab		 rep stosd
  0001f	59		 pop	 ecx
  00020	89 4d f8	 mov	 DWORD PTR _this$[ebp], ecx

; 73   :     if( m_bFrameMoveRequired )

  00023	8b 45 f8	 mov	 eax, DWORD PTR _this$[ebp]
  00026	83 b8 d0 00 00
	00 00		 cmp	 DWORD PTR [eax+208], 0
  0002d	0f 84 98 01 00
	00		 je	 $L85315

; 74   : 	{
; 75   : 		m_bFrameMoveRequired = FALSE ;

  00033	8b 45 f8	 mov	 eax, DWORD PTR _this$[ebp]
  00036	c7 80 d0 00 00
	00 00 00 00 00	 mov	 DWORD PTR [eax+208], 0

; 76   : 
; 77   : 		/*OVERLAYVERTEX* pVertices ; 
; 78   : 		if (FAILED(m_pSharedVB->Lock(0, 0, (BYTE**)&pVertices, 0)))
; 79   : 			return E_FAIL ;*/
; 80   : 		pVertices += m_dwIndexOffset ;

  00040	8b 45 f8	 mov	 eax, DWORD PTR _this$[ebp]
  00043	8b 48 08	 mov	 ecx, DWORD PTR [eax+8]
  00046	6b c9 18	 imul	 ecx, 24			; 00000018H
  00049	8b 55 14	 mov	 edx, DWORD PTR _pVertices$[ebp]
  0004c	03 d1		 add	 edx, ecx
  0004e	89 55 14	 mov	 DWORD PTR _pVertices$[ebp], edx

; 81   : 		
; 82   : 		float fVertSize = 1.0f * m_fHeight ;

  00051	8b 45 f8	 mov	 eax, DWORD PTR _this$[ebp]
  00054	d9 05 00 00 00
	00		 fld	 DWORD PTR __real@3f800000
  0005a	d8 88 80 00 00
	00		 fmul	 DWORD PTR [eax+128]
  00060	d9 5d ec	 fstp	 DWORD PTR _fVertSize$85316[ebp]

; 83   : 		float fHorizSize = 1.0f * m_fWidth * m_fLevel ;

  00063	8b 45 f8	 mov	 eax, DWORD PTR _this$[ebp]
  00066	d9 05 00 00 00
	00		 fld	 DWORD PTR __real@3f800000
  0006c	d8 48 7c	 fmul	 DWORD PTR [eax+124]
  0006f	8b 4d f8	 mov	 ecx, DWORD PTR _this$[ebp]
  00072	d8 89 e8 00 00
	00		 fmul	 DWORD PTR [ecx+232]
  00078	d9 5d e0	 fstp	 DWORD PTR _fHorizSize$85317[ebp]

; 84   : 
; 85   : 		pVertices->v.x   = (-0.5f + (m_fTopX))* fAspect ;				// bottom-left

  0007b	8b 45 f8	 mov	 eax, DWORD PTR _this$[ebp]
  0007e	d9 40 70	 fld	 DWORD PTR [eax+112]
  00081	d8 05 00 00 00
	00		 fadd	 DWORD PTR __real@bf000000
  00087	d8 4d 10	 fmul	 DWORD PTR _fAspect$[ebp]
  0008a	8b 4d 14	 mov	 ecx, DWORD PTR _pVertices$[ebp]
  0008d	d9 19		 fstp	 DWORD PTR [ecx]

; 86   : 		pVertices->v.y   = +0.5f -(m_fTopY);

  0008f	8b 45 f8	 mov	 eax, DWORD PTR _this$[ebp]
  00092	d9 40 74	 fld	 DWORD PTR [eax+116]
  00095	d8 2d 00 00 00
	00		 fsubr	 DWORD PTR __real@3f000000
  0009b	8b 4d 14	 mov	 ecx, DWORD PTR _pVertices$[ebp]
  0009e	d9 59 04	 fstp	 DWORD PTR [ecx+4]

; 87   : 		pVertices->v.z   = m_fTopZ ;

  000a1	8b 45 14	 mov	 eax, DWORD PTR _pVertices$[ebp]
  000a4	8b 4d f8	 mov	 ecx, DWORD PTR _this$[ebp]
  000a7	8b 51 78	 mov	 edx, DWORD PTR [ecx+120]
  000aa	89 50 08	 mov	 DWORD PTR [eax+8], edx

; 88   : 		pVertices->tu    = 0.0f ;

  000ad	8b 45 14	 mov	 eax, DWORD PTR _pVertices$[ebp]
  000b0	c7 40 10 00 00
	00 00		 mov	 DWORD PTR [eax+16], 0

; 89   : 		pVertices->tv    = 0.0f ;

  000b7	8b 45 14	 mov	 eax, DWORD PTR _pVertices$[ebp]
  000ba	c7 40 14 00 00
	00 00		 mov	 DWORD PTR [eax+20], 0

; 90   : 		pVertices++ ;

  000c1	8b 45 14	 mov	 eax, DWORD PTR _pVertices$[ebp]
  000c4	83 c0 18	 add	 eax, 24			; 00000018H
  000c7	89 45 14	 mov	 DWORD PTR _pVertices$[ebp], eax

; 91   : 
; 92   : 		pVertices->v.x   = (-0.5f + (m_fTopX) + fHorizSize)* fAspect ;	// bottom-right

  000ca	8b 45 f8	 mov	 eax, DWORD PTR _this$[ebp]
  000cd	d9 40 70	 fld	 DWORD PTR [eax+112]
  000d0	d8 05 00 00 00
	00		 fadd	 DWORD PTR __real@bf000000
  000d6	d8 45 e0	 fadd	 DWORD PTR _fHorizSize$85317[ebp]
  000d9	d8 4d 10	 fmul	 DWORD PTR _fAspect$[ebp]
  000dc	8b 4d 14	 mov	 ecx, DWORD PTR _pVertices$[ebp]
  000df	d9 19		 fstp	 DWORD PTR [ecx]

; 93   : 		pVertices->v.y   = +0.5f - (m_fTopY);

  000e1	8b 45 f8	 mov	 eax, DWORD PTR _this$[ebp]
  000e4	d9 40 74	 fld	 DWORD PTR [eax+116]
  000e7	d8 2d 00 00 00
	00		 fsubr	 DWORD PTR __real@3f000000
  000ed	8b 4d 14	 mov	 ecx, DWORD PTR _pVertices$[ebp]
  000f0	d9 59 04	 fstp	 DWORD PTR [ecx+4]

; 94   : 		pVertices->v.z   = m_fTopZ ;

  000f3	8b 45 14	 mov	 eax, DWORD PTR _pVertices$[ebp]
  000f6	8b 4d f8	 mov	 ecx, DWORD PTR _this$[ebp]
  000f9	8b 51 78	 mov	 edx, DWORD PTR [ecx+120]
  000fc	89 50 08	 mov	 DWORD PTR [eax+8], edx

; 95   : 		pVertices->tu    = m_fTexRep ;

  000ff	8b 45 14	 mov	 eax, DWORD PTR _pVertices$[ebp]
  00102	8b 4d f8	 mov	 ecx, DWORD PTR _this$[ebp]
  00105	8b 51 1c	 mov	 edx, DWORD PTR [ecx+28]
  00108	89 50 10	 mov	 DWORD PTR [eax+16], edx

; 96   : 		pVertices->tv    = 0.0f ;

  0010b	8b 45 14	 mov	 eax, DWORD PTR _pVertices$[ebp]
  0010e	c7 40 14 00 00
	00 00		 mov	 DWORD PTR [eax+20], 0

; 97   : 		pVertices++ ;

  00115	8b 45 14	 mov	 eax, DWORD PTR _pVertices$[ebp]
  00118	83 c0 18	 add	 eax, 24			; 00000018H
  0011b	89 45 14	 mov	 DWORD PTR _pVertices$[ebp], eax

; 98   : 
; 99   : 		pVertices->v.x   = (-0.5f + (m_fTopX))* fAspect ;				// top-left

  0011e	8b 45 f8	 mov	 eax, DWORD PTR _this$[ebp]
  00121	d9 40 70	 fld	 DWORD PTR [eax+112]
  00124	d8 05 00 00 00
	00		 fadd	 DWORD PTR __real@bf000000
  0012a	d8 4d 10	 fmul	 DWORD PTR _fAspect$[ebp]
  0012d	8b 4d 14	 mov	 ecx, DWORD PTR _pVertices$[ebp]
  00130	d9 19		 fstp	 DWORD PTR [ecx]

; 100  : 		pVertices->v.y   = +0.5f - (m_fTopY) - fVertSize ;

  00132	8b 45 f8	 mov	 eax, DWORD PTR _this$[ebp]
  00135	d9 40 74	 fld	 DWORD PTR [eax+116]
  00138	d8 2d 00 00 00
	00		 fsubr	 DWORD PTR __real@3f000000
  0013e	d8 65 ec	 fsub	 DWORD PTR _fVertSize$85316[ebp]
  00141	8b 4d 14	 mov	 ecx, DWORD PTR _pVertices$[ebp]
  00144	d9 59 04	 fstp	 DWORD PTR [ecx+4]

; 101  : 		pVertices->v.z   = m_fTopZ ;

  00147	8b 45 14	 mov	 eax, DWORD PTR _pVertices$[ebp]
  0014a	8b 4d f8	 mov	 ecx, DWORD PTR _this$[ebp]
  0014d	8b 51 78	 mov	 edx, DWORD PTR [ecx+120]
  00150	89 50 08	 mov	 DWORD PTR [eax+8], edx

; 102  : 		pVertices->tu    = 0.0f ;

  00153	8b 45 14	 mov	 eax, DWORD PTR _pVertices$[ebp]
  00156	c7 40 10 00 00
	00 00		 mov	 DWORD PTR [eax+16], 0

; 103  : 		pVertices->tv    = m_fTexRep ;

  0015d	8b 45 14	 mov	 eax, DWORD PTR _pVertices$[ebp]
  00160	8b 4d f8	 mov	 ecx, DWORD PTR _this$[ebp]
  00163	8b 51 1c	 mov	 edx, DWORD PTR [ecx+28]
  00166	89 50 14	 mov	 DWORD PTR [eax+20], edx

; 104  : 		pVertices++ ;

  00169	8b 45 14	 mov	 eax, DWORD PTR _pVertices$[ebp]
  0016c	83 c0 18	 add	 eax, 24			; 00000018H
  0016f	89 45 14	 mov	 DWORD PTR _pVertices$[ebp], eax

; 105  : 
; 106  : 		pVertices->v.x   = (-0.5f + (m_fTopX) + fHorizSize)* fAspect ;	// top-right

  00172	8b 45 f8	 mov	 eax, DWORD PTR _this$[ebp]
  00175	d9 40 70	 fld	 DWORD PTR [eax+112]
  00178	d8 05 00 00 00
	00		 fadd	 DWORD PTR __real@bf000000
  0017e	d8 45 e0	 fadd	 DWORD PTR _fHorizSize$85317[ebp]
  00181	d8 4d 10	 fmul	 DWORD PTR _fAspect$[ebp]
  00184	8b 4d 14	 mov	 ecx, DWORD PTR _pVertices$[ebp]
  00187	d9 19		 fstp	 DWORD PTR [ecx]

; 107  : 		pVertices->v.y   = +0.5f - (m_fTopY) - fVertSize;

  00189	8b 45 f8	 mov	 eax, DWORD PTR _this$[ebp]
  0018c	d9 40 74	 fld	 DWORD PTR [eax+116]
  0018f	d8 2d 00 00 00
	00		 fsubr	 DWORD PTR __real@3f000000
  00195	d8 65 ec	 fsub	 DWORD PTR _fVertSize$85316[ebp]
  00198	8b 4d 14	 mov	 ecx, DWORD PTR _pVertices$[ebp]
  0019b	d9 59 04	 fstp	 DWORD PTR [ecx+4]

; 108  : 		pVertices->v.z   = m_fTopZ ;

  0019e	8b 45 14	 mov	 eax, DWORD PTR _pVertices$[ebp]
  001a1	8b 4d f8	 mov	 ecx, DWORD PTR _this$[ebp]
  001a4	8b 51 78	 mov	 edx, DWORD PTR [ecx+120]
  001a7	89 50 08	 mov	 DWORD PTR [eax+8], edx

; 109  : 		pVertices->tu    = m_fTexRep ;

  001aa	8b 45 14	 mov	 eax, DWORD PTR _pVertices$[ebp]
  001ad	8b 4d f8	 mov	 ecx, DWORD PTR _this$[ebp]
  001b0	8b 51 1c	 mov	 edx, DWORD PTR [ecx+28]
  001b3	89 50 10	 mov	 DWORD PTR [eax+16], edx

; 110  : 		pVertices->tv    = m_fTexRep ;

  001b6	8b 45 14	 mov	 eax, DWORD PTR _pVertices$[ebp]
  001b9	8b 4d f8	 mov	 ecx, DWORD PTR _this$[ebp]
  001bc	8b 51 1c	 mov	 edx, DWORD PTR [ecx+28]
  001bf	89 50 14	 mov	 DWORD PTR [eax+20], edx

; 111  : 		pVertices++ ;

  001c2	8b 45 14	 mov	 eax, DWORD PTR _pVertices$[ebp]
  001c5	83 c0 18	 add	 eax, 24			; 00000018H
  001c8	89 45 14	 mov	 DWORD PTR _pVertices$[ebp], eax
$L85315:

; 112  : 
; 113  : 		/*m_pSharedVB->Unlock();*/
; 114  : 	}
; 115  : 	
; 116  : 	/*(pVertices+0)->tu += 0.01f * fTimeMult * m_fMoveSpeed ;
; 117  : 	(pVertices+0)->color = D3DXCOLOR(0.0f, 0.0f, 1.0f, m_fLevel + 0.2f) ;
; 118  : 
; 119  : 	(pVertices+1)->tu += 0.01f * fTimeMult * m_fMoveSpeed ;
; 120  : 	(pVertices+1)->color = D3DXCOLOR(0.0f, 0.0f, 1.0f, m_fLevel/2.0f) ;
; 121  : 
; 122  : 	(pVertices+2)->tu += 0.01f * fTimeMult * m_fMoveSpeed ;
; 123  : 	(pVertices+2)->color = D3DXCOLOR(0.0f, 0.0f, 1.0f, m_fLevel + 0.2f) ;
; 124  : 
; 125  : 	(pVertices+3)->tu += 0.01f * fTimeMult * m_fMoveSpeed ;
; 126  : 	(pVertices+3)->color = D3DXCOLOR(0.0f, 0.0f, 1.0f, m_fLevel/2.0f) ;*/
; 127  : 
; 128  : 	return S_OK ;

  001cb	33 c0		 xor	 eax, eax

; 129  : }

  001cd	5f		 pop	 edi
  001ce	5e		 pop	 esi
  001cf	5b		 pop	 ebx
  001d0	8b e5		 mov	 esp, ebp
  001d2	5d		 pop	 ebp
  001d3	c2 10 00	 ret	 16			; 00000010H
?FrameMove@CHUDScaleBar@@UAEJPAUIDirect3DDevice8@@MMPAUOVERLAYVERTEX@@@Z ENDP ; CHUDScaleBar::FrameMove
; Function compile flags: /Odt /RTCsu /ZI
; File c:\dxsdk\include\d3dx8math.inl
_TEXT	ENDS
;	COMDAT ??0D3DXCOLOR@@QAE@MMMM@Z
_TEXT	SEGMENT
_this$ = -8
_fr$ = 8
_fg$ = 12
_fb$ = 16
_fa$ = 20
??0D3DXCOLOR@@QAE@MMMM@Z PROC NEAR			; D3DXCOLOR::D3DXCOLOR, COMDAT
; _this$ = ecx

; 919  : {

  00000	55		 push	 ebp
  00001	8b ec		 mov	 ebp, esp
  00003	81 ec cc 00 00
	00		 sub	 esp, 204		; 000000ccH
  00009	53		 push	 ebx
  0000a	56		 push	 esi
  0000b	57		 push	 edi
  0000c	51		 push	 ecx
  0000d	8d bd 34 ff ff
	ff		 lea	 edi, DWORD PTR [ebp-204]
  00013	b9 33 00 00 00	 mov	 ecx, 51			; 00000033H
  00018	b8 cc cc cc cc	 mov	 eax, -858993460		; ccccccccH
  0001d	f3 ab		 rep stosd
  0001f	59		 pop	 ecx
  00020	89 4d f8	 mov	 DWORD PTR _this$[ebp], ecx

; 920  :     r = fr;

  00023	8b 45 f8	 mov	 eax, DWORD PTR _this$[ebp]
  00026	8b 4d 08	 mov	 ecx, DWORD PTR _fr$[ebp]
  00029	89 08		 mov	 DWORD PTR [eax], ecx

; 921  :     g = fg;

  0002b	8b 45 f8	 mov	 eax, DWORD PTR _this$[ebp]
  0002e	8b 4d 0c	 mov	 ecx, DWORD PTR _fg$[ebp]
  00031	89 48 04	 mov	 DWORD PTR [eax+4], ecx

; 922  :     b = fb;

  00034	8b 45 f8	 mov	 eax, DWORD PTR _this$[ebp]
  00037	8b 4d 10	 mov	 ecx, DWORD PTR _fb$[ebp]
  0003a	89 48 08	 mov	 DWORD PTR [eax+8], ecx

; 923  :     a = fa;

  0003d	8b 45 f8	 mov	 eax, DWORD PTR _this$[ebp]
  00040	8b 4d 14	 mov	 ecx, DWORD PTR _fa$[ebp]
  00043	89 48 0c	 mov	 DWORD PTR [eax+12], ecx

; 924  : }

  00046	8b 45 f8	 mov	 eax, DWORD PTR _this$[ebp]
  00049	5f		 pop	 edi
  0004a	5e		 pop	 esi
  0004b	5b		 pop	 ebx
  0004c	8b e5		 mov	 esp, ebp
  0004e	5d		 pop	 ebp
  0004f	c2 10 00	 ret	 16			; 00000010H
??0D3DXCOLOR@@QAE@MMMM@Z ENDP				; D3DXCOLOR::D3DXCOLOR
_TEXT	ENDS
PUBLIC	__real@00000000
PUBLIC	__real@437f0000
EXTRN	__ftol2:NEAR
;	COMDAT __real@00000000
CONST	SEGMENT
__real@00000000 DD 000000000r			; 0
CONST	ENDS
;	COMDAT __real@437f0000
CONST	SEGMENT
__real@437f0000 DD 0437f0000r			; 255
; Function compile flags: /Odt /RTCsu /ZI
CONST	ENDS
;	COMDAT ??BD3DXCOLOR@@QBEKXZ
_TEXT	SEGMENT
tv135 = -260
tv92 = -260
tv81 = -260
tv70 = -260
tv136 = -256
tv93 = -256
tv82 = -256
tv71 = -256
_dwA$ = -56
_dwB$ = -44
_dwG$ = -32
_dwR$ = -20
_this$ = -8
??BD3DXCOLOR@@QBEKXZ PROC NEAR				; D3DXCOLOR::operator unsigned long, COMDAT
; _this$ = ecx

; 930  : {

  00000	55		 push	 ebp
  00001	8b ec		 mov	 ebp, esp
  00003	81 ec 04 01 00
	00		 sub	 esp, 260		; 00000104H
  00009	53		 push	 ebx
  0000a	56		 push	 esi
  0000b	57		 push	 edi
  0000c	51		 push	 ecx
  0000d	8d bd fc fe ff
	ff		 lea	 edi, DWORD PTR [ebp-260]
  00013	b9 41 00 00 00	 mov	 ecx, 65			; 00000041H
  00018	b8 cc cc cc cc	 mov	 eax, -858993460		; ccccccccH
  0001d	f3 ab		 rep stosd
  0001f	59		 pop	 ecx
  00020	89 4d f8	 mov	 DWORD PTR _this$[ebp], ecx

; 931  :     DWORD dwR = r >= 1.0f ? 0xff : r <= 0.0f ? 0x00 : (DWORD) (r * 255.0f + 0.5f);

  00023	8b 45 f8	 mov	 eax, DWORD PTR _this$[ebp]
  00026	d9 00		 fld	 DWORD PTR [eax]
  00028	d8 1d 00 00 00
	00		 fcomp	 DWORD PTR __real@3f800000
  0002e	df e0		 fnstsw	 ax
  00030	f6 c4 01	 test	 ah, 1
  00033	75 0c		 jne	 SHORT $L85396
  00035	c7 85 00 ff ff
	ff ff 00 00 00	 mov	 DWORD PTR tv71[ebp], 255 ; 000000ffH
  0003f	eb 46		 jmp	 SHORT $L85397
$L85396:
  00041	8b 4d f8	 mov	 ecx, DWORD PTR _this$[ebp]
  00044	d9 01		 fld	 DWORD PTR [ecx]
  00046	d8 1d 00 00 00
	00		 fcomp	 DWORD PTR __real@00000000
  0004c	df e0		 fnstsw	 ax
  0004e	f6 c4 41	 test	 ah, 65			; 00000041H
  00051	7a 0c		 jp	 SHORT $L85394
  00053	c7 85 fc fe ff
	ff 00 00 00 00	 mov	 DWORD PTR tv70[ebp], 0
  0005d	eb 1c		 jmp	 SHORT $L85395
$L85394:
  0005f	8b 55 f8	 mov	 edx, DWORD PTR _this$[ebp]
  00062	d9 02		 fld	 DWORD PTR [edx]
  00064	d8 0d 00 00 00
	00		 fmul	 DWORD PTR __real@437f0000
  0006a	d8 05 00 00 00
	00		 fadd	 DWORD PTR __real@3f000000
  00070	e8 00 00 00 00	 call	 __ftol2
  00075	89 85 fc fe ff
	ff		 mov	 DWORD PTR tv70[ebp], eax
$L85395:
  0007b	8b 85 fc fe ff
	ff		 mov	 eax, DWORD PTR tv70[ebp]
  00081	89 85 00 ff ff
	ff		 mov	 DWORD PTR tv71[ebp], eax
$L85397:
  00087	8b 8d 00 ff ff
	ff		 mov	 ecx, DWORD PTR tv71[ebp]
  0008d	89 4d ec	 mov	 DWORD PTR _dwR$[ebp], ecx

; 932  :     DWORD dwG = g >= 1.0f ? 0xff : g <= 0.0f ? 0x00 : (DWORD) (g * 255.0f + 0.5f);

  00090	8b 45 f8	 mov	 eax, DWORD PTR _this$[ebp]
  00093	d9 40 04	 fld	 DWORD PTR [eax+4]
  00096	d8 1d 00 00 00
	00		 fcomp	 DWORD PTR __real@3f800000
  0009c	df e0		 fnstsw	 ax
  0009e	f6 c4 01	 test	 ah, 1
  000a1	75 0c		 jne	 SHORT $L85400
  000a3	c7 85 00 ff ff
	ff ff 00 00 00	 mov	 DWORD PTR tv82[ebp], 255 ; 000000ffH
  000ad	eb 48		 jmp	 SHORT $L85401
$L85400:
  000af	8b 4d f8	 mov	 ecx, DWORD PTR _this$[ebp]
  000b2	d9 41 04	 fld	 DWORD PTR [ecx+4]
  000b5	d8 1d 00 00 00
	00		 fcomp	 DWORD PTR __real@00000000
  000bb	df e0		 fnstsw	 ax
  000bd	f6 c4 41	 test	 ah, 65			; 00000041H
  000c0	7a 0c		 jp	 SHORT $L85398
  000c2	c7 85 fc fe ff
	ff 00 00 00 00	 mov	 DWORD PTR tv81[ebp], 0
  000cc	eb 1d		 jmp	 SHORT $L85399
$L85398:
  000ce	8b 55 f8	 mov	 edx, DWORD PTR _this$[ebp]
  000d1	d9 42 04	 fld	 DWORD PTR [edx+4]
  000d4	d8 0d 00 00 00
	00		 fmul	 DWORD PTR __real@437f0000
  000da	d8 05 00 00 00
	00		 fadd	 DWORD PTR __real@3f000000
  000e0	e8 00 00 00 00	 call	 __ftol2
  000e5	89 85 fc fe ff
	ff		 mov	 DWORD PTR tv81[ebp], eax
$L85399:
  000eb	8b 85 fc fe ff
	ff		 mov	 eax, DWORD PTR tv81[ebp]
  000f1	89 85 00 ff ff
	ff		 mov	 DWORD PTR tv82[ebp], eax
$L85401:
  000f7	8b 8d 00 ff ff
	ff		 mov	 ecx, DWORD PTR tv82[ebp]
  000fd	89 4d e0	 mov	 DWORD PTR _dwG$[ebp], ecx

; 933  :     DWORD dwB = b >= 1.0f ? 0xff : b <= 0.0f ? 0x00 : (DWORD) (b * 255.0f + 0.5f);

  00100	8b 45 f8	 mov	 eax, DWORD PTR _this$[ebp]
  00103	d9 40 08	 fld	 DWORD PTR [eax+8]
  00106	d8 1d 00 00 00
	00		 fcomp	 DWORD PTR __real@3f800000
  0010c	df e0		 fnstsw	 ax
  0010e	f6 c4 01	 test	 ah, 1
  00111	75 0c		 jne	 SHORT $L85404
  00113	c7 85 00 ff ff
	ff ff 00 00 00	 mov	 DWORD PTR tv93[ebp], 255 ; 000000ffH
  0011d	eb 48		 jmp	 SHORT $L85405
$L85404:
  0011f	8b 4d f8	 mov	 ecx, DWORD PTR _this$[ebp]
  00122	d9 41 08	 fld	 DWORD PTR [ecx+8]
  00125	d8 1d 00 00 00
	00		 fcomp	 DWORD PTR __real@00000000
  0012b	df e0		 fnstsw	 ax
  0012d	f6 c4 41	 test	 ah, 65			; 00000041H
  00130	7a 0c		 jp	 SHORT $L85402
  00132	c7 85 fc fe ff
	ff 00 00 00 00	 mov	 DWORD PTR tv92[ebp], 0
  0013c	eb 1d		 jmp	 SHORT $L85403
$L85402:
  0013e	8b 55 f8	 mov	 edx, DWORD PTR _this$[ebp]
  00141	d9 42 08	 fld	 DWORD PTR [edx+8]
  00144	d8 0d 00 00 00
	00		 fmul	 DWORD PTR __real@437f0000
  0014a	d8 05 00 00 00
	00		 fadd	 DWORD PTR __real@3f000000
  00150	e8 00 00 00 00	 call	 __ftol2
  00155	89 85 fc fe ff
	ff		 mov	 DWORD PTR tv92[ebp], eax
$L85403:
  0015b	8b 85 fc fe ff
	ff		 mov	 eax, DWORD PTR tv92[ebp]
  00161	89 85 00 ff ff
	ff		 mov	 DWORD PTR tv93[ebp], eax
$L85405:
  00167	8b 8d 00 ff ff
	ff		 mov	 ecx, DWORD PTR tv93[ebp]
  0016d	89 4d d4	 mov	 DWORD PTR _dwB$[ebp], ecx

; 934  :     DWORD dwA = a >= 1.0f ? 0xff : a <= 0.0f ? 0x00 : (DWORD) (a * 255.0f + 0.5f);

  00170	8b 45 f8	 mov	 eax, DWORD PTR _this$[ebp]
  00173	d9 40 0c	 fld	 DWORD PTR [eax+12]
  00176	d8 1d 00 00 00
	00		 fcomp	 DWORD PTR __real@3f800000
  0017c	df e0		 fnstsw	 ax
  0017e	f6 c4 01	 test	 ah, 1
  00181	75 0c		 jne	 SHORT $L85408
  00183	c7 85 00 ff ff
	ff ff 00 00 00	 mov	 DWORD PTR tv136[ebp], 255 ; 000000ffH
  0018d	eb 48		 jmp	 SHORT $L85409
$L85408:
  0018f	8b 4d f8	 mov	 ecx, DWORD PTR _this$[ebp]
  00192	d9 41 0c	 fld	 DWORD PTR [ecx+12]
  00195	d8 1d 00 00 00
	00		 fcomp	 DWORD PTR __real@00000000
  0019b	df e0		 fnstsw	 ax
  0019d	f6 c4 41	 test	 ah, 65			; 00000041H
  001a0	7a 0c		 jp	 SHORT $L85406
  001a2	c7 85 fc fe ff
	ff 00 00 00 00	 mov	 DWORD PTR tv135[ebp], 0
  001ac	eb 1d		 jmp	 SHORT $L85407
$L85406:
  001ae	8b 55 f8	 mov	 edx, DWORD PTR _this$[ebp]
  001b1	d9 42 0c	 fld	 DWORD PTR [edx+12]
  001b4	d8 0d 00 00 00
	00		 fmul	 DWORD PTR __real@437f0000
  001ba	d8 05 00 00 00
	00		 fadd	 DWORD PTR __real@3f000000
  001c0	e8 00 00 00 00	 call	 __ftol2
  001c5	89 85 fc fe ff
	ff		 mov	 DWORD PTR tv135[ebp], eax
$L85407:
  001cb	8b 85 fc fe ff
	ff		 mov	 eax, DWORD PTR tv135[ebp]
  001d1	89 85 00 ff ff
	ff		 mov	 DWORD PTR tv136[ebp], eax
$L85409:
  001d7	8b 8d 00 ff ff
	ff		 mov	 ecx, DWORD PTR tv136[ebp]
  001dd	89 4d c8	 mov	 DWORD PTR _dwA$[ebp], ecx

; 935  : 
; 936  :     return (dwA << 24) | (dwR << 16) | (dwG << 8) | dwB;

  001e0	8b 45 c8	 mov	 eax, DWORD PTR _dwA$[ebp]
  001e3	c1 e0 18	 shl	 eax, 24			; 00000018H
  001e6	8b 4d ec	 mov	 ecx, DWORD PTR _dwR$[ebp]
  001e9	c1 e1 10	 shl	 ecx, 16			; 00000010H
  001ec	0b c1		 or	 eax, ecx
  001ee	8b 55 e0	 mov	 edx, DWORD PTR _dwG$[ebp]
  001f1	c1 e2 08	 shl	 edx, 8
  001f4	0b c2		 or	 eax, edx
  001f6	0b 45 d4	 or	 eax, DWORD PTR _dwB$[ebp]

; 937  : }

  001f9	5f		 pop	 edi
  001fa	5e		 pop	 esi
  001fb	5b		 pop	 ebx
  001fc	8b e5		 mov	 esp, ebp
  001fe	5d		 pop	 ebp
  001ff	c3		 ret	 0
??BD3DXCOLOR@@QBEKXZ ENDP				; D3DXCOLOR::operator unsigned long
_TEXT	ENDS
END
