; Listing generated by Microsoft (R) Optimizing Compiler Version 13.00.9466 

	TITLE	CInGameMenu.cpp
	.386P
include listing.inc
if @Version gt 510
.model FLAT
else
_TEXT	SEGMENT PARA USE32 PUBLIC 'CODE'
_TEXT	ENDS
_DATA	SEGMENT DWORD USE32 PUBLIC 'DATA'
_DATA	ENDS
CONST	SEGMENT DWORD USE32 PUBLIC 'CONST'
CONST	ENDS
_BSS	SEGMENT DWORD USE32 PUBLIC 'BSS'
_BSS	ENDS
$$SYMBOLS	SEGMENT BYTE USE32 'DEBSYM'
$$SYMBOLS	ENDS
$$TYPES	SEGMENT BYTE USE32 'DEBTYP'
$$TYPES	ENDS
_TLS	SEGMENT DWORD USE32 PUBLIC 'TLS'
_TLS	ENDS
;	COMDAT ??_C@_0CD@BBBNFLC@CInGameMenu?3?3RestoreDeviceObject@
CONST	SEGMENT DWORD USE32 PUBLIC 'CONST'
CONST	ENDS
;	COMDAT _IsEqualGUID
_TEXT	SEGMENT PARA USE32 PUBLIC 'CODE'
_TEXT	ENDS
;	COMDAT _==
_TEXT	SEGMENT PARA USE32 PUBLIC 'CODE'
_TEXT	ENDS
;	COMDAT _sqrtf
_TEXT	SEGMENT PARA USE32 PUBLIC 'CODE'
_TEXT	ENDS
;	COMDAT ??0D3DXVECTOR3@@QAE@XZ
_TEXT	SEGMENT PARA USE32 PUBLIC 'CODE'
_TEXT	ENDS
;	COMDAT ??0D3DXMATRIX@@QAE@XZ
_TEXT	SEGMENT PARA USE32 PUBLIC 'CODE'
_TEXT	ENDS
;	COMDAT ??0D3DXQUATERNION@@QAE@XZ
_TEXT	SEGMENT PARA USE32 PUBLIC 'CODE'
_TEXT	ENDS
;	COMDAT ??0D3DXVECTOR2@@QAE@MM@Z
_TEXT	SEGMENT PARA USE32 PUBLIC 'CODE'
_TEXT	ENDS
;	COMDAT ??0D3DXVECTOR3@@QAE@MMM@Z
_TEXT	SEGMENT PARA USE32 PUBLIC 'CODE'
_TEXT	ENDS
;	COMDAT ??0D3DXVECTOR4@@QAE@MMMM@Z
_TEXT	SEGMENT PARA USE32 PUBLIC 'CODE'
_TEXT	ENDS
;	COMDAT ??0D3DXMATRIX@@QAE@PBM@Z
_TEXT	SEGMENT PARA USE32 PUBLIC 'CODE'
_TEXT	ENDS
;	COMDAT ??0D3DXMATRIX@@QAE@ABU_D3DMATRIX@@@Z
_TEXT	SEGMENT PARA USE32 PUBLIC 'CODE'
_TEXT	ENDS
;	COMDAT ??0D3DXMATRIX@@QAE@MMMMMMMMMMMMMMMM@Z
_TEXT	SEGMENT PARA USE32 PUBLIC 'CODE'
_TEXT	ENDS
;	COMDAT ??0D3DXQUATERNION@@QAE@MMMM@Z
_TEXT	SEGMENT PARA USE32 PUBLIC 'CODE'
_TEXT	ENDS
;	COMDAT ??0D3DXPLANE@@QAE@MMMM@Z
_TEXT	SEGMENT PARA USE32 PUBLIC 'CODE'
_TEXT	ENDS
;	COMDAT ??0D3DXCOLOR@@QAE@MMMM@Z
_TEXT	SEGMENT PARA USE32 PUBLIC 'CODE'
_TEXT	ENDS
;	COMDAT ??0CInGameMenu@@QAE@PAVCx7@@@Z
_TEXT	SEGMENT PARA USE32 PUBLIC 'CODE'
_TEXT	ENDS
;	COMDAT ??1CInGameMenu@@QAE@XZ
_TEXT	SEGMENT PARA USE32 PUBLIC 'CODE'
_TEXT	ENDS
;	COMDAT ?EnterMenu@CInGameMenu@@QAEHXZ
_TEXT	SEGMENT PARA USE32 PUBLIC 'CODE'
_TEXT	ENDS
;	COMDAT ?ExitMenu@CInGameMenu@@QAEHXZ
_TEXT	SEGMENT PARA USE32 PUBLIC 'CODE'
_TEXT	ENDS
;	COMDAT ?Render@CInGameMenu@@QAEJPAUIDirect3DDevice8@@PAVCScreenOverlayManager@@@Z
_TEXT	SEGMENT PARA USE32 PUBLIC 'CODE'
_TEXT	ENDS
;	COMDAT ?RestoreDeviceObjects@CInGameMenu@@QAEJPAUIDirect3DDevice8@@MPAVCScreenOverlayManager@@PAVCMenuTextures@@@Z
_TEXT	SEGMENT PARA USE32 PUBLIC 'CODE'
_TEXT	ENDS
;	COMDAT ?FrameMove@CInGameMenu@@QAEJPAUIDirect3DDevice8@@MPAVCScreenOverlayManager@@PAVCUserInput@@PAVCSoundManager@@@Z
_TEXT	SEGMENT PARA USE32 PUBLIC 'CODE'
_TEXT	ENDS
;	COMDAT ??_GCRace@@QAEPAXI@Z
_TEXT	SEGMENT PARA USE32 PUBLIC 'CODE'
_TEXT	ENDS
;	COMDAT ??_GCTextures@@QAEPAXI@Z
_TEXT	SEGMENT PARA USE32 PUBLIC 'CODE'
_TEXT	ENDS
;	COMDAT ?InvalidateDeviceObjects@CInGameMenu@@QAEJXZ
_TEXT	SEGMENT PARA USE32 PUBLIC 'CODE'
_TEXT	ENDS
;	COMDAT ??_GCMenuScrollingBackG@@QAEPAXI@Z
_TEXT	SEGMENT PARA USE32 PUBLIC 'CODE'
_TEXT	ENDS
;	COMDAT ??_GCMenuItem@@QAEPAXI@Z
_TEXT	SEGMENT PARA USE32 PUBLIC 'CODE'
_TEXT	ENDS
;	COMDAT ?SetViewMenuItems@CInGameMenu@@QAEHI@Z
_TEXT	SEGMENT PARA USE32 PUBLIC 'CODE'
_TEXT	ENDS
FLAT	GROUP _DATA, CONST, _BSS
	ASSUME	CS: FLAT, DS: FLAT, SS: FLAT
endif

INCLUDELIB LIBCMTD
INCLUDELIB OLDNAMES

_BSS	SEGMENT
?fRot1@?1??FrameMove@CInGameMenu@@QAEJPAUIDirect3DDevice8@@MPAVCScreenOverlayManager@@PAVCUserInput@@PAVCSoundManager@@@Z@4MA DD 01H DUP (?) ; `CInGameMenu::FrameMove'::`2'::fRot1
?fRot2@?1??FrameMove@CInGameMenu@@QAEJPAUIDirect3DDevice8@@MPAVCScreenOverlayManager@@PAVCUserInput@@PAVCSoundManager@@@Z@4MA DD 01H DUP (?) ; `CInGameMenu::FrameMove'::`2'::fRot2
?fRot3@?1??FrameMove@CInGameMenu@@QAEJPAUIDirect3DDevice8@@MPAVCScreenOverlayManager@@PAVCUserInput@@PAVCSoundManager@@@Z@4MA DD 01H DUP (?) ; `CInGameMenu::FrameMove'::`2'::fRot3
_BSS	ENDS
PUBLIC	??0CInGameMenu@@QAE@PAVCx7@@@Z			; CInGameMenu::CInGameMenu
EXTRN	??2@YAPAXI@Z:NEAR				; operator new
EXTRN	__RTC_InitBase:NEAR
EXTRN	__RTC_Shutdown:NEAR
EXTRN	__RTC_CheckEsp:NEAR
EXTRN	__fltused:NEAR
;	COMDAT rtc$IMZ
; File c:\documents and settings\dom\my documents\_dev\ae\xlr8a\x7g\cingamemenu.cpp
rtc$IMZ	SEGMENT
__RTC_InitBase.rtc$IMZ DD FLAT:__RTC_InitBase
rtc$IMZ	ENDS
;	COMDAT rtc$TMZ
rtc$TMZ	SEGMENT
__RTC_Shutdown.rtc$TMZ DD FLAT:__RTC_Shutdown
; Function compile flags: /Odt /RTCsu /ZI
rtc$TMZ	ENDS
;	COMDAT ??0CInGameMenu@@QAE@PAVCx7@@@Z
_TEXT	SEGMENT
$T93843 = -224
_i$93673 = -20
_this$ = -8
_pX7$ = 8
??0CInGameMenu@@QAE@PAVCx7@@@Z PROC NEAR		; CInGameMenu::CInGameMenu, COMDAT
; _this$ = ecx

; 6    : 	{

  00000	55		 push	 ebp
  00001	8b ec		 mov	 ebp, esp
  00003	81 ec e4 00 00
	00		 sub	 esp, 228		; 000000e4H
  00009	53		 push	 ebx
  0000a	56		 push	 esi
  0000b	57		 push	 edi
  0000c	51		 push	 ecx
  0000d	8d bd 1c ff ff
	ff		 lea	 edi, DWORD PTR [ebp-228]
  00013	b9 39 00 00 00	 mov	 ecx, 57			; 00000039H
  00018	b8 cc cc cc cc	 mov	 eax, -858993460		; ccccccccH
  0001d	f3 ab		 rep stosd
  0001f	59		 pop	 ecx
  00020	89 4d f8	 mov	 DWORD PTR _this$[ebp], ecx

; 7    : 		m_pX7 = pX7 ;

  00023	8b 45 f8	 mov	 eax, DWORD PTR _this$[ebp]
  00026	8b 4d 08	 mov	 ecx, DWORD PTR _pX7$[ebp]
  00029	89 08		 mov	 DWORD PTR [eax], ecx

; 8    : 		m_pTitle = NULL ;

  0002b	8b 45 f8	 mov	 eax, DWORD PTR _this$[ebp]
  0002e	c7 40 10 00 00
	00 00		 mov	 DWORD PTR [eax+16], 0

; 9    : 
; 10   : 		m_nMenuItems = 2 ;

  00035	8b 45 f8	 mov	 eax, DWORD PTR _this$[ebp]
  00038	c7 40 0c 02 00
	00 00		 mov	 DWORD PTR [eax+12], 2

; 11   : 		m_ppMenuItems = new CMenuItem*[ m_nMenuItems ];

  0003f	8b 45 f8	 mov	 eax, DWORD PTR _this$[ebp]
  00042	8b 48 0c	 mov	 ecx, DWORD PTR [eax+12]
  00045	c1 e1 02	 shl	 ecx, 2
  00048	51		 push	 ecx
  00049	e8 00 00 00 00	 call	 ??2@YAPAXI@Z		; operator new
  0004e	83 c4 04	 add	 esp, 4
  00051	89 85 20 ff ff
	ff		 mov	 DWORD PTR $T93843[ebp], eax
  00057	8b 55 f8	 mov	 edx, DWORD PTR _this$[ebp]
  0005a	8b 85 20 ff ff
	ff		 mov	 eax, DWORD PTR $T93843[ebp]
  00060	89 42 08	 mov	 DWORD PTR [edx+8], eax

; 12   : 		
; 13   : 		for (int i = 0 ; i < m_nMenuItems ; i ++)

  00063	c7 45 ec 00 00
	00 00		 mov	 DWORD PTR _i$93673[ebp], 0
  0006a	eb 09		 jmp	 SHORT $L93674
$L93675:
  0006c	8b 45 ec	 mov	 eax, DWORD PTR _i$93673[ebp]
  0006f	83 c0 01	 add	 eax, 1
  00072	89 45 ec	 mov	 DWORD PTR _i$93673[ebp], eax
$L93674:
  00075	8b 45 f8	 mov	 eax, DWORD PTR _this$[ebp]
  00078	8b 4d ec	 mov	 ecx, DWORD PTR _i$93673[ebp]
  0007b	3b 48 0c	 cmp	 ecx, DWORD PTR [eax+12]
  0007e	7d 12		 jge	 SHORT $L93676

; 14   : 			m_ppMenuItems[i] = NULL ;

  00080	8b 45 f8	 mov	 eax, DWORD PTR _this$[ebp]
  00083	8b 48 08	 mov	 ecx, DWORD PTR [eax+8]
  00086	8b 55 ec	 mov	 edx, DWORD PTR _i$93673[ebp]
  00089	c7 04 91 00 00
	00 00		 mov	 DWORD PTR [ecx+edx*4], 0
  00090	eb da		 jmp	 SHORT $L93675
$L93676:

; 15   : 		m_ndxMenuSelected = 0 ;

  00092	8b 45 f8	 mov	 eax, DWORD PTR _this$[ebp]
  00095	c7 40 14 00 00
	00 00		 mov	 DWORD PTR [eax+20], 0

; 16   : 
; 17   : 		m_fMouseYMovement = 0.0f ;

  0009c	8b 45 f8	 mov	 eax, DWORD PTR _this$[ebp]
  0009f	c7 40 18 00 00
	00 00		 mov	 DWORD PTR [eax+24], 0

; 18   : 
; 19   : 		m_bActive = FALSE ;

  000a6	8b 45 f8	 mov	 eax, DWORD PTR _this$[ebp]
  000a9	c7 40 04 00 00
	00 00		 mov	 DWORD PTR [eax+4], 0

; 20   : 		m_msState = MS_IDLE ;

  000b0	8b 45 f8	 mov	 eax, DWORD PTR _this$[ebp]
  000b3	c7 40 1c 01 00
	00 00		 mov	 DWORD PTR [eax+28], 1

; 21   : 		m_ndxSelected = 0 ;

  000ba	8b 45 f8	 mov	 eax, DWORD PTR _this$[ebp]
  000bd	c7 40 20 00 00
	00 00		 mov	 DWORD PTR [eax+32], 0

; 22   : 	}

  000c4	8b 45 f8	 mov	 eax, DWORD PTR _this$[ebp]
  000c7	5f		 pop	 edi
  000c8	5e		 pop	 esi
  000c9	5b		 pop	 ebx
  000ca	81 c4 e4 00 00
	00		 add	 esp, 228		; 000000e4H
  000d0	3b ec		 cmp	 ebp, esp
  000d2	e8 00 00 00 00	 call	 __RTC_CheckEsp
  000d7	8b e5		 mov	 esp, ebp
  000d9	5d		 pop	 ebp
  000da	c2 04 00	 ret	 4
??0CInGameMenu@@QAE@PAVCx7@@@Z ENDP			; CInGameMenu::CInGameMenu
_TEXT	ENDS
PUBLIC	??1CInGameMenu@@QAE@XZ				; CInGameMenu::~CInGameMenu
EXTRN	??3@YAXPAX@Z:NEAR				; operator delete
; Function compile flags: /Odt /RTCsu /ZI
;	COMDAT ??1CInGameMenu@@QAE@XZ
_TEXT	SEGMENT
$T93856 = -212
_this$ = -8
??1CInGameMenu@@QAE@XZ PROC NEAR			; CInGameMenu::~CInGameMenu, COMDAT
; _this$ = ecx

; 25   : 	{

  00000	55		 push	 ebp
  00001	8b ec		 mov	 ebp, esp
  00003	81 ec d8 00 00
	00		 sub	 esp, 216		; 000000d8H
  00009	53		 push	 ebx
  0000a	56		 push	 esi
  0000b	57		 push	 edi
  0000c	51		 push	 ecx
  0000d	8d bd 28 ff ff
	ff		 lea	 edi, DWORD PTR [ebp-216]
  00013	b9 36 00 00 00	 mov	 ecx, 54			; 00000036H
  00018	b8 cc cc cc cc	 mov	 eax, -858993460		; ccccccccH
  0001d	f3 ab		 rep stosd
  0001f	59		 pop	 ecx
  00020	89 4d f8	 mov	 DWORD PTR _this$[ebp], ecx

; 26   : 		SAFE_DELETE_ARRAY( m_ppMenuItems );

  00023	8b 45 f8	 mov	 eax, DWORD PTR _this$[ebp]
  00026	83 78 08 00	 cmp	 DWORD PTR [eax+8], 0
  0002a	74 25		 je	 SHORT $L93679
  0002c	8b 45 f8	 mov	 eax, DWORD PTR _this$[ebp]
  0002f	8b 48 08	 mov	 ecx, DWORD PTR [eax+8]
  00032	89 8d 2c ff ff
	ff		 mov	 DWORD PTR $T93856[ebp], ecx
  00038	8b 95 2c ff ff
	ff		 mov	 edx, DWORD PTR $T93856[ebp]
  0003e	52		 push	 edx
  0003f	e8 00 00 00 00	 call	 ??3@YAXPAX@Z		; operator delete
  00044	83 c4 04	 add	 esp, 4
  00047	8b 45 f8	 mov	 eax, DWORD PTR _this$[ebp]
  0004a	c7 40 08 00 00
	00 00		 mov	 DWORD PTR [eax+8], 0
$L93679:

; 27   : 	}

  00051	5f		 pop	 edi
  00052	5e		 pop	 esi
  00053	5b		 pop	 ebx
  00054	81 c4 d8 00 00
	00		 add	 esp, 216		; 000000d8H
  0005a	3b ec		 cmp	 ebp, esp
  0005c	e8 00 00 00 00	 call	 __RTC_CheckEsp
  00061	8b e5		 mov	 esp, ebp
  00063	5d		 pop	 ebp
  00064	c3		 ret	 0
??1CInGameMenu@@QAE@XZ ENDP				; CInGameMenu::~CInGameMenu
_TEXT	ENDS
PUBLIC	?EnterMenu@CInGameMenu@@QAEHXZ			; CInGameMenu::EnterMenu
PUBLIC	?SetViewMenuItems@CInGameMenu@@QAEHI@Z		; CInGameMenu::SetViewMenuItems
EXTRN	?g_matIdent@@3UD3DXMATRIX@@A:BYTE		; g_matIdent
; Function compile flags: /Odt /RTCsu /ZI
;	COMDAT ?EnterMenu@CInGameMenu@@QAEHXZ
_TEXT	SEGMENT
_i$93685 = -20
_this$ = -8
?EnterMenu@CInGameMenu@@QAEHXZ PROC NEAR		; CInGameMenu::EnterMenu, COMDAT
; _this$ = ecx

; 30   : 	{

  00000	55		 push	 ebp
  00001	8b ec		 mov	 ebp, esp
  00003	81 ec d8 00 00
	00		 sub	 esp, 216		; 000000d8H
  00009	53		 push	 ebx
  0000a	56		 push	 esi
  0000b	57		 push	 edi
  0000c	51		 push	 ecx
  0000d	8d bd 28 ff ff
	ff		 lea	 edi, DWORD PTR [ebp-216]
  00013	b9 36 00 00 00	 mov	 ecx, 54			; 00000036H
  00018	b8 cc cc cc cc	 mov	 eax, -858993460		; ccccccccH
  0001d	f3 ab		 rep stosd
  0001f	59		 pop	 ecx
  00020	89 4d f8	 mov	 DWORD PTR _this$[ebp], ecx

; 31   : 		SetViewMenuItems( MF_GRAYED );

  00023	6a 01		 push	 1
  00025	8b 4d f8	 mov	 ecx, DWORD PTR _this$[ebp]
  00028	e8 00 00 00 00	 call	 ?SetViewMenuItems@CInGameMenu@@QAEHI@Z ; CInGameMenu::SetViewMenuItems

; 32   : 		m_bActive = TRUE ;

  0002d	8b 45 f8	 mov	 eax, DWORD PTR _this$[ebp]
  00030	c7 40 04 01 00
	00 00		 mov	 DWORD PTR [eax+4], 1

; 33   : 		m_pTitle->m_bActive = TRUE ;

  00037	8b 45 f8	 mov	 eax, DWORD PTR _this$[ebp]
  0003a	8b 48 10	 mov	 ecx, DWORD PTR [eax+16]
  0003d	c7 81 84 00 00
	00 01 00 00 00	 mov	 DWORD PTR [ecx+132], 1

; 34   : 		m_msState = MS_IDLE ;

  00047	8b 45 f8	 mov	 eax, DWORD PTR _this$[ebp]
  0004a	c7 40 1c 01 00
	00 00		 mov	 DWORD PTR [eax+28], 1

; 35   : 		m_ndxSelected = 0 ;

  00051	8b 45 f8	 mov	 eax, DWORD PTR _this$[ebp]
  00054	c7 40 20 00 00
	00 00		 mov	 DWORD PTR [eax+32], 0

; 36   : 		for (int i = 0 ; i < m_nMenuItems ; i ++)

  0005b	c7 45 ec 00 00
	00 00		 mov	 DWORD PTR _i$93685[ebp], 0
  00062	eb 09		 jmp	 SHORT $L93686
$L93687:
  00064	8b 45 ec	 mov	 eax, DWORD PTR _i$93685[ebp]
  00067	83 c0 01	 add	 eax, 1
  0006a	89 45 ec	 mov	 DWORD PTR _i$93685[ebp], eax
$L93686:
  0006d	8b 45 f8	 mov	 eax, DWORD PTR _this$[ebp]
  00070	8b 4d ec	 mov	 ecx, DWORD PTR _i$93685[ebp]
  00073	3b 48 0c	 cmp	 ecx, DWORD PTR [eax+12]
  00076	7d 5b		 jge	 SHORT $L93684

; 37   : 			if (m_ppMenuItems[i])

  00078	8b 45 f8	 mov	 eax, DWORD PTR _this$[ebp]
  0007b	8b 48 08	 mov	 ecx, DWORD PTR [eax+8]
  0007e	8b 55 ec	 mov	 edx, DWORD PTR _i$93685[ebp]
  00081	83 3c 91 00	 cmp	 DWORD PTR [ecx+edx*4], 0
  00085	74 4a		 je	 SHORT $L93689

; 38   : 			{
; 39   : 				m_ppMenuItems[i]->m_bActive = TRUE ;

  00087	8b 45 f8	 mov	 eax, DWORD PTR _this$[ebp]
  0008a	8b 48 08	 mov	 ecx, DWORD PTR [eax+8]
  0008d	8b 55 ec	 mov	 edx, DWORD PTR _i$93685[ebp]
  00090	8b 04 91	 mov	 eax, DWORD PTR [ecx+edx*4]
  00093	c7 80 84 00 00
	00 01 00 00 00	 mov	 DWORD PTR [eax+132], 1

; 40   : 				m_ppMenuItems[i]->m_bFrameMoveRequired = TRUE ;

  0009d	8b 45 f8	 mov	 eax, DWORD PTR _this$[ebp]
  000a0	8b 48 08	 mov	 ecx, DWORD PTR [eax+8]
  000a3	8b 55 ec	 mov	 edx, DWORD PTR _i$93685[ebp]
  000a6	8b 04 91	 mov	 eax, DWORD PTR [ecx+edx*4]
  000a9	c7 80 d0 00 00
	00 01 00 00 00	 mov	 DWORD PTR [eax+208], 1

; 41   : 				m_ppMenuItems[i]->m_matWorld = g_matIdent ;

  000b3	8b 45 f8	 mov	 eax, DWORD PTR _this$[ebp]
  000b6	8b 48 08	 mov	 ecx, DWORD PTR [eax+8]
  000b9	8b 55 ec	 mov	 edx, DWORD PTR _i$93685[ebp]
  000bc	8b 3c 91	 mov	 edi, DWORD PTR [ecx+edx*4]
  000bf	81 c7 88 00 00
	00		 add	 edi, 136		; 00000088H
  000c5	b9 10 00 00 00	 mov	 ecx, 16			; 00000010H
  000ca	be 00 00 00 00	 mov	 esi, OFFSET FLAT:?g_matIdent@@3UD3DXMATRIX@@A ; g_matIdent
  000cf	f3 a5		 rep movsd
$L93689:

; 42   : 			}
; 43   : 	}

  000d1	eb 91		 jmp	 SHORT $L93687
$L93684:
  000d3	5f		 pop	 edi
  000d4	5e		 pop	 esi
  000d5	5b		 pop	 ebx
  000d6	81 c4 d8 00 00
	00		 add	 esp, 216		; 000000d8H
  000dc	3b ec		 cmp	 ebp, esp
  000de	e8 00 00 00 00	 call	 __RTC_CheckEsp
  000e3	8b e5		 mov	 esp, ebp
  000e5	5d		 pop	 ebp
  000e6	c3		 ret	 0
?EnterMenu@CInGameMenu@@QAEHXZ ENDP			; CInGameMenu::EnterMenu
_TEXT	ENDS
PUBLIC	?ExitMenu@CInGameMenu@@QAEHXZ			; CInGameMenu::ExitMenu
; Function compile flags: /Odt /RTCsu /ZI
;	COMDAT ?ExitMenu@CInGameMenu@@QAEHXZ
_TEXT	SEGMENT
_i$93693 = -20
_this$ = -8
?ExitMenu@CInGameMenu@@QAEHXZ PROC NEAR			; CInGameMenu::ExitMenu, COMDAT
; _this$ = ecx

; 45   : 	{

  00000	55		 push	 ebp
  00001	8b ec		 mov	 ebp, esp
  00003	81 ec d8 00 00
	00		 sub	 esp, 216		; 000000d8H
  00009	53		 push	 ebx
  0000a	56		 push	 esi
  0000b	57		 push	 edi
  0000c	51		 push	 ecx
  0000d	8d bd 28 ff ff
	ff		 lea	 edi, DWORD PTR [ebp-216]
  00013	b9 36 00 00 00	 mov	 ecx, 54			; 00000036H
  00018	b8 cc cc cc cc	 mov	 eax, -858993460		; ccccccccH
  0001d	f3 ab		 rep stosd
  0001f	59		 pop	 ecx
  00020	89 4d f8	 mov	 DWORD PTR _this$[ebp], ecx

; 46   : 		SetViewMenuItems( MF_ENABLED );

  00023	6a 00		 push	 0
  00025	8b 4d f8	 mov	 ecx, DWORD PTR _this$[ebp]
  00028	e8 00 00 00 00	 call	 ?SetViewMenuItems@CInGameMenu@@QAEHI@Z ; CInGameMenu::SetViewMenuItems

; 47   : 		m_bActive = FALSE ;

  0002d	8b 45 f8	 mov	 eax, DWORD PTR _this$[ebp]
  00030	c7 40 04 00 00
	00 00		 mov	 DWORD PTR [eax+4], 0

; 48   : 		m_pTitle->m_bActive = FALSE ;	

  00037	8b 45 f8	 mov	 eax, DWORD PTR _this$[ebp]
  0003a	8b 48 10	 mov	 ecx, DWORD PTR [eax+16]
  0003d	c7 81 84 00 00
	00 00 00 00 00	 mov	 DWORD PTR [ecx+132], 0

; 49   : 		m_msState = MS_IDLE ;

  00047	8b 45 f8	 mov	 eax, DWORD PTR _this$[ebp]
  0004a	c7 40 1c 01 00
	00 00		 mov	 DWORD PTR [eax+28], 1

; 50   : 		m_ndxSelected = 0 ;

  00051	8b 45 f8	 mov	 eax, DWORD PTR _this$[ebp]
  00054	c7 40 20 00 00
	00 00		 mov	 DWORD PTR [eax+32], 0

; 51   : 		for (int i = 0 ; i < m_nMenuItems ; i ++)

  0005b	c7 45 ec 00 00
	00 00		 mov	 DWORD PTR _i$93693[ebp], 0
  00062	eb 09		 jmp	 SHORT $L93694
$L93695:
  00064	8b 45 ec	 mov	 eax, DWORD PTR _i$93693[ebp]
  00067	83 c0 01	 add	 eax, 1
  0006a	89 45 ec	 mov	 DWORD PTR _i$93693[ebp], eax
$L93694:
  0006d	8b 45 f8	 mov	 eax, DWORD PTR _this$[ebp]
  00070	8b 4d ec	 mov	 ecx, DWORD PTR _i$93693[ebp]
  00073	3b 48 0c	 cmp	 ecx, DWORD PTR [eax+12]
  00076	7d 27		 jge	 SHORT $L93692

; 52   : 			if (m_ppMenuItems[i])

  00078	8b 45 f8	 mov	 eax, DWORD PTR _this$[ebp]
  0007b	8b 48 08	 mov	 ecx, DWORD PTR [eax+8]
  0007e	8b 55 ec	 mov	 edx, DWORD PTR _i$93693[ebp]
  00081	83 3c 91 00	 cmp	 DWORD PTR [ecx+edx*4], 0
  00085	74 16		 je	 SHORT $L93697

; 53   : 				m_ppMenuItems[i]->m_bActive = FALSE ;

  00087	8b 45 f8	 mov	 eax, DWORD PTR _this$[ebp]
  0008a	8b 48 08	 mov	 ecx, DWORD PTR [eax+8]
  0008d	8b 55 ec	 mov	 edx, DWORD PTR _i$93693[ebp]
  00090	8b 04 91	 mov	 eax, DWORD PTR [ecx+edx*4]
  00093	c7 80 84 00 00
	00 00 00 00 00	 mov	 DWORD PTR [eax+132], 0
$L93697:

; 54   : 	}

  0009d	eb c5		 jmp	 SHORT $L93695
$L93692:
  0009f	5f		 pop	 edi
  000a0	5e		 pop	 esi
  000a1	5b		 pop	 ebx
  000a2	81 c4 d8 00 00
	00		 add	 esp, 216		; 000000d8H
  000a8	3b ec		 cmp	 ebp, esp
  000aa	e8 00 00 00 00	 call	 __RTC_CheckEsp
  000af	8b e5		 mov	 esp, ebp
  000b1	5d		 pop	 ebp
  000b2	c3		 ret	 0
?ExitMenu@CInGameMenu@@QAEHXZ ENDP			; CInGameMenu::ExitMenu
_TEXT	ENDS
PUBLIC	?Render@CInGameMenu@@QAEJPAUIDirect3DDevice8@@PAVCScreenOverlayManager@@@Z ; CInGameMenu::Render
EXTRN	?SetProjMat@CScreenOverlayManager@@QAEXPAUIDirect3DDevice8@@@Z:NEAR ; CScreenOverlayManager::SetProjMat
EXTRN	?Render@CScreenOverlayManager@@QAEJPAUIDirect3DDevice8@@HH@Z:NEAR ; CScreenOverlayManager::Render
; Function compile flags: /Odt /RTCsu /ZI
;	COMDAT ?Render@CInGameMenu@@QAEJPAUIDirect3DDevice8@@PAVCScreenOverlayManager@@@Z
_TEXT	SEGMENT
_this$ = -8
_pDev$ = 8
_pOM$ = 12
?Render@CInGameMenu@@QAEJPAUIDirect3DDevice8@@PAVCScreenOverlayManager@@@Z PROC NEAR ; CInGameMenu::Render, COMDAT
; _this$ = ecx

; 57   : 	{

  00000	55		 push	 ebp
  00001	8b ec		 mov	 ebp, esp
  00003	81 ec cc 00 00
	00		 sub	 esp, 204		; 000000ccH
  00009	53		 push	 ebx
  0000a	56		 push	 esi
  0000b	57		 push	 edi
  0000c	51		 push	 ecx
  0000d	8d bd 34 ff ff
	ff		 lea	 edi, DWORD PTR [ebp-204]
  00013	b9 33 00 00 00	 mov	 ecx, 51			; 00000033H
  00018	b8 cc cc cc cc	 mov	 eax, -858993460		; ccccccccH
  0001d	f3 ab		 rep stosd
  0001f	59		 pop	 ecx
  00020	89 4d f8	 mov	 DWORD PTR _this$[ebp], ecx

; 58   : 		pDev->SetRenderState( D3DRS_LIGHTING, FALSE );

  00023	8b f4		 mov	 esi, esp
  00025	6a 00		 push	 0
  00027	68 89 00 00 00	 push	 137			; 00000089H
  0002c	8b 45 08	 mov	 eax, DWORD PTR _pDev$[ebp]
  0002f	8b 08		 mov	 ecx, DWORD PTR [eax]
  00031	8b 55 08	 mov	 edx, DWORD PTR _pDev$[ebp]
  00034	52		 push	 edx
  00035	ff 91 c8 00 00
	00		 call	 DWORD PTR [ecx+200]
  0003b	3b f4		 cmp	 esi, esp
  0003d	e8 00 00 00 00	 call	 __RTC_CheckEsp

; 59   : 		pDev->SetRenderState( D3DRS_CULLMODE, D3DCULL_NONE );

  00042	8b f4		 mov	 esi, esp
  00044	6a 01		 push	 1
  00046	6a 16		 push	 22			; 00000016H
  00048	8b 45 08	 mov	 eax, DWORD PTR _pDev$[ebp]
  0004b	8b 08		 mov	 ecx, DWORD PTR [eax]
  0004d	8b 55 08	 mov	 edx, DWORD PTR _pDev$[ebp]
  00050	52		 push	 edx
  00051	ff 91 c8 00 00
	00		 call	 DWORD PTR [ecx+200]
  00057	3b f4		 cmp	 esi, esp
  00059	e8 00 00 00 00	 call	 __RTC_CheckEsp

; 60   : 		pDev->SetRenderState( D3DRS_ALPHABLENDENABLE, TRUE );

  0005e	8b f4		 mov	 esi, esp
  00060	6a 01		 push	 1
  00062	6a 1b		 push	 27			; 0000001bH
  00064	8b 45 08	 mov	 eax, DWORD PTR _pDev$[ebp]
  00067	8b 08		 mov	 ecx, DWORD PTR [eax]
  00069	8b 55 08	 mov	 edx, DWORD PTR _pDev$[ebp]
  0006c	52		 push	 edx
  0006d	ff 91 c8 00 00
	00		 call	 DWORD PTR [ecx+200]
  00073	3b f4		 cmp	 esi, esp
  00075	e8 00 00 00 00	 call	 __RTC_CheckEsp

; 61   : 		pDev->SetRenderState( D3DRS_ZENABLE, FALSE );

  0007a	8b f4		 mov	 esi, esp
  0007c	6a 00		 push	 0
  0007e	6a 07		 push	 7
  00080	8b 45 08	 mov	 eax, DWORD PTR _pDev$[ebp]
  00083	8b 08		 mov	 ecx, DWORD PTR [eax]
  00085	8b 55 08	 mov	 edx, DWORD PTR _pDev$[ebp]
  00088	52		 push	 edx
  00089	ff 91 c8 00 00
	00		 call	 DWORD PTR [ecx+200]
  0008f	3b f4		 cmp	 esi, esp
  00091	e8 00 00 00 00	 call	 __RTC_CheckEsp

; 62   : 
; 63   : 		SetTextureColorStage( pDev, 0, D3DTA_TEXTURE, D3DTOP_MODULATE,	D3DTA_DIFFUSE )

  00096	8b f4		 mov	 esi, esp
  00098	6a 04		 push	 4
  0009a	6a 01		 push	 1
  0009c	6a 00		 push	 0
  0009e	8b 45 08	 mov	 eax, DWORD PTR _pDev$[ebp]
  000a1	8b 08		 mov	 ecx, DWORD PTR [eax]
  000a3	8b 55 08	 mov	 edx, DWORD PTR _pDev$[ebp]
  000a6	52		 push	 edx
  000a7	ff 91 fc 00 00
	00		 call	 DWORD PTR [ecx+252]
  000ad	3b f4		 cmp	 esi, esp
  000af	e8 00 00 00 00	 call	 __RTC_CheckEsp
  000b4	8b f4		 mov	 esi, esp
  000b6	6a 02		 push	 2
  000b8	6a 02		 push	 2
  000ba	6a 00		 push	 0
  000bc	8b 45 08	 mov	 eax, DWORD PTR _pDev$[ebp]
  000bf	8b 08		 mov	 ecx, DWORD PTR [eax]
  000c1	8b 55 08	 mov	 edx, DWORD PTR _pDev$[ebp]
  000c4	52		 push	 edx
  000c5	ff 91 fc 00 00
	00		 call	 DWORD PTR [ecx+252]
  000cb	3b f4		 cmp	 esi, esp
  000cd	e8 00 00 00 00	 call	 __RTC_CheckEsp
  000d2	8b f4		 mov	 esi, esp
  000d4	6a 00		 push	 0
  000d6	6a 03		 push	 3
  000d8	6a 00		 push	 0
  000da	8b 45 08	 mov	 eax, DWORD PTR _pDev$[ebp]
  000dd	8b 08		 mov	 ecx, DWORD PTR [eax]
  000df	8b 55 08	 mov	 edx, DWORD PTR _pDev$[ebp]
  000e2	52		 push	 edx
  000e3	ff 91 fc 00 00
	00		 call	 DWORD PTR [ecx+252]
  000e9	3b f4		 cmp	 esi, esp
  000eb	e8 00 00 00 00	 call	 __RTC_CheckEsp

; 64   : 		SetTextureColorStage( pDev, 1, D3DTA_CURRENT, D3DTOP_DISABLE,	D3DTA_CURRENT )

  000f0	8b f4		 mov	 esi, esp
  000f2	6a 01		 push	 1
  000f4	6a 01		 push	 1
  000f6	6a 01		 push	 1
  000f8	8b 45 08	 mov	 eax, DWORD PTR _pDev$[ebp]
  000fb	8b 08		 mov	 ecx, DWORD PTR [eax]
  000fd	8b 55 08	 mov	 edx, DWORD PTR _pDev$[ebp]
  00100	52		 push	 edx
  00101	ff 91 fc 00 00
	00		 call	 DWORD PTR [ecx+252]
  00107	3b f4		 cmp	 esi, esp
  00109	e8 00 00 00 00	 call	 __RTC_CheckEsp
  0010e	8b f4		 mov	 esi, esp
  00110	6a 01		 push	 1
  00112	6a 02		 push	 2
  00114	6a 01		 push	 1
  00116	8b 45 08	 mov	 eax, DWORD PTR _pDev$[ebp]
  00119	8b 08		 mov	 ecx, DWORD PTR [eax]
  0011b	8b 55 08	 mov	 edx, DWORD PTR _pDev$[ebp]
  0011e	52		 push	 edx
  0011f	ff 91 fc 00 00
	00		 call	 DWORD PTR [ecx+252]
  00125	3b f4		 cmp	 esi, esp
  00127	e8 00 00 00 00	 call	 __RTC_CheckEsp
  0012c	8b f4		 mov	 esi, esp
  0012e	6a 01		 push	 1
  00130	6a 03		 push	 3
  00132	6a 01		 push	 1
  00134	8b 45 08	 mov	 eax, DWORD PTR _pDev$[ebp]
  00137	8b 08		 mov	 ecx, DWORD PTR [eax]
  00139	8b 55 08	 mov	 edx, DWORD PTR _pDev$[ebp]
  0013c	52		 push	 edx
  0013d	ff 91 fc 00 00
	00		 call	 DWORD PTR [ecx+252]
  00143	3b f4		 cmp	 esi, esp
  00145	e8 00 00 00 00	 call	 __RTC_CheckEsp

; 65   : 
; 66   : 		SetTextureAlphaStage( pDev, 0, D3DTA_TEXTURE, D3DTOP_MODULATE,	D3DTA_DIFFUSE )

  0014a	8b f4		 mov	 esi, esp
  0014c	6a 04		 push	 4
  0014e	6a 04		 push	 4
  00150	6a 00		 push	 0
  00152	8b 45 08	 mov	 eax, DWORD PTR _pDev$[ebp]
  00155	8b 08		 mov	 ecx, DWORD PTR [eax]
  00157	8b 55 08	 mov	 edx, DWORD PTR _pDev$[ebp]
  0015a	52		 push	 edx
  0015b	ff 91 fc 00 00
	00		 call	 DWORD PTR [ecx+252]
  00161	3b f4		 cmp	 esi, esp
  00163	e8 00 00 00 00	 call	 __RTC_CheckEsp
  00168	8b f4		 mov	 esi, esp
  0016a	6a 02		 push	 2
  0016c	6a 05		 push	 5
  0016e	6a 00		 push	 0
  00170	8b 45 08	 mov	 eax, DWORD PTR _pDev$[ebp]
  00173	8b 08		 mov	 ecx, DWORD PTR [eax]
  00175	8b 55 08	 mov	 edx, DWORD PTR _pDev$[ebp]
  00178	52		 push	 edx
  00179	ff 91 fc 00 00
	00		 call	 DWORD PTR [ecx+252]
  0017f	3b f4		 cmp	 esi, esp
  00181	e8 00 00 00 00	 call	 __RTC_CheckEsp
  00186	8b f4		 mov	 esi, esp
  00188	6a 00		 push	 0
  0018a	6a 06		 push	 6
  0018c	6a 00		 push	 0
  0018e	8b 45 08	 mov	 eax, DWORD PTR _pDev$[ebp]
  00191	8b 08		 mov	 ecx, DWORD PTR [eax]
  00193	8b 55 08	 mov	 edx, DWORD PTR _pDev$[ebp]
  00196	52		 push	 edx
  00197	ff 91 fc 00 00
	00		 call	 DWORD PTR [ecx+252]
  0019d	3b f4		 cmp	 esi, esp
  0019f	e8 00 00 00 00	 call	 __RTC_CheckEsp

; 67   : 		SetTextureAlphaStage( pDev, 1, D3DTA_CURRENT, D3DTOP_DISABLE,	D3DTA_CURRENT )

  001a4	8b f4		 mov	 esi, esp
  001a6	6a 01		 push	 1
  001a8	6a 04		 push	 4
  001aa	6a 01		 push	 1
  001ac	8b 45 08	 mov	 eax, DWORD PTR _pDev$[ebp]
  001af	8b 08		 mov	 ecx, DWORD PTR [eax]
  001b1	8b 55 08	 mov	 edx, DWORD PTR _pDev$[ebp]
  001b4	52		 push	 edx
  001b5	ff 91 fc 00 00
	00		 call	 DWORD PTR [ecx+252]
  001bb	3b f4		 cmp	 esi, esp
  001bd	e8 00 00 00 00	 call	 __RTC_CheckEsp
  001c2	8b f4		 mov	 esi, esp
  001c4	6a 01		 push	 1
  001c6	6a 05		 push	 5
  001c8	6a 01		 push	 1
  001ca	8b 45 08	 mov	 eax, DWORD PTR _pDev$[ebp]
  001cd	8b 08		 mov	 ecx, DWORD PTR [eax]
  001cf	8b 55 08	 mov	 edx, DWORD PTR _pDev$[ebp]
  001d2	52		 push	 edx
  001d3	ff 91 fc 00 00
	00		 call	 DWORD PTR [ecx+252]
  001d9	3b f4		 cmp	 esi, esp
  001db	e8 00 00 00 00	 call	 __RTC_CheckEsp
  001e0	8b f4		 mov	 esi, esp
  001e2	6a 01		 push	 1
  001e4	6a 06		 push	 6
  001e6	6a 01		 push	 1
  001e8	8b 45 08	 mov	 eax, DWORD PTR _pDev$[ebp]
  001eb	8b 08		 mov	 ecx, DWORD PTR [eax]
  001ed	8b 55 08	 mov	 edx, DWORD PTR _pDev$[ebp]
  001f0	52		 push	 edx
  001f1	ff 91 fc 00 00
	00		 call	 DWORD PTR [ecx+252]
  001f7	3b f4		 cmp	 esi, esp
  001f9	e8 00 00 00 00	 call	 __RTC_CheckEsp

; 68   : 
; 69   : 		pOM->SetProjMat( pDev );

  001fe	8b 45 08	 mov	 eax, DWORD PTR _pDev$[ebp]
  00201	50		 push	 eax
  00202	8b 4d 0c	 mov	 ecx, DWORD PTR _pOM$[ebp]
  00205	e8 00 00 00 00	 call	 ?SetProjMat@CScreenOverlayManager@@QAEXPAUIDirect3DDevice8@@@Z ; CScreenOverlayManager::SetProjMat

; 70   : 		pOM->Render( pDev, OT_MENU, ORT_FAST );

  0020a	6a 01		 push	 1
  0020c	6a 0a		 push	 10			; 0000000aH
  0020e	8b 45 08	 mov	 eax, DWORD PTR _pDev$[ebp]
  00211	50		 push	 eax
  00212	8b 4d 0c	 mov	 ecx, DWORD PTR _pOM$[ebp]
  00215	e8 00 00 00 00	 call	 ?Render@CScreenOverlayManager@@QAEJPAUIDirect3DDevice8@@HH@Z ; CScreenOverlayManager::Render

; 71   : 		return S_OK ;

  0021a	33 c0		 xor	 eax, eax

; 72   : 	}

  0021c	5f		 pop	 edi
  0021d	5e		 pop	 esi
  0021e	5b		 pop	 ebx
  0021f	81 c4 cc 00 00
	00		 add	 esp, 204		; 000000ccH
  00225	3b ec		 cmp	 ebp, esp
  00227	e8 00 00 00 00	 call	 __RTC_CheckEsp
  0022c	8b e5		 mov	 esp, ebp
  0022e	5d		 pop	 ebp
  0022f	c2 08 00	 ret	 8
?Render@CInGameMenu@@QAEJPAUIDirect3DDevice8@@PAVCScreenOverlayManager@@@Z ENDP ; CInGameMenu::Render
_TEXT	ENDS
PUBLIC	?RestoreDeviceObjects@CInGameMenu@@QAEJPAUIDirect3DDevice8@@MPAVCScreenOverlayManager@@PAVCMenuTextures@@@Z ; CInGameMenu::RestoreDeviceObjects
PUBLIC	??_C@_0CD@BBBNFLC@CInGameMenu?3?3RestoreDeviceObject@ ; `string'
EXTRN	?RegisterNewOverlay@CScreenOverlayManager@@QAEHPAVCScreenOverlay@@@Z:NEAR ; CScreenOverlayManager::RegisterNewOverlay
EXTRN	??0CMenuScrollingBackG@@QAE@PAUIDirect3DTexture8@@MMMMMMMM@Z:NEAR ; CMenuScrollingBackG::CMenuScrollingBackG
EXTRN	??0CMenuItem@@QAE@PAUIDirect3DTexture8@@MMMMMM@Z:NEAR ; CMenuItem::CMenuItem
EXTRN	?ods@@YAXPADZZ:NEAR				; ods
;	COMDAT ??_C@_0CD@BBBNFLC@CInGameMenu?3?3RestoreDeviceObject@
CONST	SEGMENT
??_C@_0CD@BBBNFLC@CInGameMenu?3?3RestoreDeviceObject@ DB 'CInGameMenu::Re'
	DB	'storeDeviceObjects', 0aH, 00H		; `string'
; Function compile flags: /Odt /RTCsu /ZI
CONST	ENDS
;	COMDAT ?RestoreDeviceObjects@CInGameMenu@@QAEJPAUIDirect3DDevice8@@MPAVCScreenOverlayManager@@PAVCMenuTextures@@@Z
_TEXT	SEGMENT
tv163 = -268
tv139 = -268
tv86 = -268
$T93871 = -260
$T93868 = -248
$T93865 = -236
_fCoplanarSep$ = -32
_fLogoDistance$ = -20
_this$ = -8
_pDev$ = 8
_fAspect$ = 12
_pOM$ = 16
_pTex$ = 20
?RestoreDeviceObjects@CInGameMenu@@QAEJPAUIDirect3DDevice8@@MPAVCScreenOverlayManager@@PAVCMenuTextures@@@Z PROC NEAR ; CInGameMenu::RestoreDeviceObjects, COMDAT
; _this$ = ecx

; 75   : 	{

  00000	55		 push	 ebp
  00001	8b ec		 mov	 ebp, esp
  00003	81 ec 0c 01 00
	00		 sub	 esp, 268		; 0000010cH
  00009	53		 push	 ebx
  0000a	56		 push	 esi
  0000b	57		 push	 edi
  0000c	51		 push	 ecx
  0000d	8d bd f4 fe ff
	ff		 lea	 edi, DWORD PTR [ebp-268]
  00013	b9 43 00 00 00	 mov	 ecx, 67			; 00000043H
  00018	b8 cc cc cc cc	 mov	 eax, -858993460		; ccccccccH
  0001d	f3 ab		 rep stosd
  0001f	59		 pop	 ecx
  00020	89 4d f8	 mov	 DWORD PTR _this$[ebp], ecx

; 76   : 		ods( "CInGameMenu::RestoreDeviceObjects\n" );

  00023	68 00 00 00 00	 push	 OFFSET FLAT:??_C@_0CD@BBBNFLC@CInGameMenu?3?3RestoreDeviceObject@
  00028	e8 00 00 00 00	 call	 ?ods@@YAXPADZZ		; ods
  0002d	83 c4 04	 add	 esp, 4

; 77   : 		float fLogoDistance = -0.05f ;

  00030	c7 45 ec cd cc
	4c bd		 mov	 DWORD PTR _fLogoDistance$[ebp], -1119040307 ; bd4ccccdH

; 78   : 		float fCoplanarSep = +0.0f ;

  00037	c7 45 e0 00 00
	00 00		 mov	 DWORD PTR _fCoplanarSep$[ebp], 0

; 79   : 		
; 80   : 	// background
; 81   : 		pOM->RegisterNewOverlay((m_pTitle = new CMenuScrollingBackG(pTex->m_pTex[MENU_TEX_START + 0], 0.3f, 0.1f, 0.75f, 0.0f, 0.0f, fLogoDistance + fCoplanarSep * 2.0f, 1.0f, 1.0f)));

  0003e	68 60 01 00 00	 push	 352			; 00000160H
  00043	e8 00 00 00 00	 call	 ??2@YAPAXI@Z		; operator new
  00048	83 c4 04	 add	 esp, 4
  0004b	89 85 14 ff ff
	ff		 mov	 DWORD PTR $T93865[ebp], eax
  00051	83 bd 14 ff ff
	ff 00		 cmp	 DWORD PTR $T93865[ebp], 0
  00058	74 46		 je	 SHORT $L93866
  0005a	68 00 00 80 3f	 push	 1065353216		; 3f800000H
  0005f	68 00 00 80 3f	 push	 1065353216		; 3f800000H
  00064	d9 45 e0	 fld	 DWORD PTR _fCoplanarSep$[ebp]
  00067	dc c0		 fadd	 ST(0), ST(0)
  00069	d8 45 ec	 fadd	 DWORD PTR _fLogoDistance$[ebp]
  0006c	51		 push	 ecx
  0006d	d9 1c 24	 fstp	 DWORD PTR [esp]
  00070	6a 00		 push	 0
  00072	6a 00		 push	 0
  00074	68 00 00 40 3f	 push	 1061158912		; 3f400000H
  00079	68 cd cc cc 3d	 push	 1036831949		; 3dcccccdH
  0007e	68 9a 99 99 3e	 push	 1050253722		; 3e99999aH
  00083	8b 45 14	 mov	 eax, DWORD PTR _pTex$[ebp]
  00086	8b 88 64 09 00
	00		 mov	 ecx, DWORD PTR [eax+2404]
  0008c	51		 push	 ecx
  0008d	8b 8d 14 ff ff
	ff		 mov	 ecx, DWORD PTR $T93865[ebp]
  00093	e8 00 00 00 00	 call	 ??0CMenuScrollingBackG@@QAE@PAUIDirect3DTexture8@@MMMMMMMM@Z ; CMenuScrollingBackG::CMenuScrollingBackG
  00098	89 85 f4 fe ff
	ff		 mov	 DWORD PTR tv86[ebp], eax
  0009e	eb 0a		 jmp	 SHORT $L93867
$L93866:
  000a0	c7 85 f4 fe ff
	ff 00 00 00 00	 mov	 DWORD PTR tv86[ebp], 0
$L93867:
  000aa	8b 55 f8	 mov	 edx, DWORD PTR _this$[ebp]
  000ad	8b 85 f4 fe ff
	ff		 mov	 eax, DWORD PTR tv86[ebp]
  000b3	89 42 10	 mov	 DWORD PTR [edx+16], eax
  000b6	8b 8d f4 fe ff
	ff		 mov	 ecx, DWORD PTR tv86[ebp]
  000bc	51		 push	 ecx
  000bd	8b 4d 10	 mov	 ecx, DWORD PTR _pOM$[ebp]
  000c0	e8 00 00 00 00	 call	 ?RegisterNewOverlay@CScreenOverlayManager@@QAEHPAVCScreenOverlay@@@Z ; CScreenOverlayManager::RegisterNewOverlay

; 82   : 		m_pTitle->m_bActive = m_bActive ;

  000c5	8b 45 f8	 mov	 eax, DWORD PTR _this$[ebp]
  000c8	8b 48 10	 mov	 ecx, DWORD PTR [eax+16]
  000cb	8b 55 f8	 mov	 edx, DWORD PTR _this$[ebp]
  000ce	8b 42 04	 mov	 eax, DWORD PTR [edx+4]
  000d1	89 81 84 00 00
	00		 mov	 DWORD PTR [ecx+132], eax

; 83   : 
; 84   : 	// in game menu: Resume & Exit
; 85   : 		pOM->RegisterNewOverlay((m_ppMenuItems[0] = new CMenuItem(pTex->m_pTex[MENU_TEX_START + 6], 1.0f, 0.25f, 0.33f - 0.25f, 0.0f, 0.5f, 0.5f)));

  000d7	68 e4 00 00 00	 push	 228			; 000000e4H
  000dc	e8 00 00 00 00	 call	 ??2@YAPAXI@Z		; operator new
  000e1	83 c4 04	 add	 esp, 4
  000e4	89 85 08 ff ff
	ff		 mov	 DWORD PTR $T93868[ebp], eax
  000ea	83 bd 08 ff ff
	ff 00		 cmp	 DWORD PTR $T93868[ebp], 0
  000f1	74 38		 je	 SHORT $L93869
  000f3	68 00 00 00 3f	 push	 1056964608		; 3f000000H
  000f8	68 00 00 00 3f	 push	 1056964608		; 3f000000H
  000fd	6a 00		 push	 0
  000ff	68 0c d7 a3 3d	 push	 1034147596		; 3da3d70cH
  00104	68 00 00 80 3e	 push	 1048576000		; 3e800000H
  00109	68 00 00 80 3f	 push	 1065353216		; 3f800000H
  0010e	8b 45 14	 mov	 eax, DWORD PTR _pTex$[ebp]
  00111	8b 88 7c 09 00
	00		 mov	 ecx, DWORD PTR [eax+2428]
  00117	51		 push	 ecx
  00118	8b 8d 08 ff ff
	ff		 mov	 ecx, DWORD PTR $T93868[ebp]
  0011e	e8 00 00 00 00	 call	 ??0CMenuItem@@QAE@PAUIDirect3DTexture8@@MMMMMM@Z ; CMenuItem::CMenuItem
  00123	89 85 f4 fe ff
	ff		 mov	 DWORD PTR tv139[ebp], eax
  00129	eb 0a		 jmp	 SHORT $L93870
$L93869:
  0012b	c7 85 f4 fe ff
	ff 00 00 00 00	 mov	 DWORD PTR tv139[ebp], 0
$L93870:
  00135	8b 55 f8	 mov	 edx, DWORD PTR _this$[ebp]
  00138	8b 42 08	 mov	 eax, DWORD PTR [edx+8]
  0013b	8b 8d f4 fe ff
	ff		 mov	 ecx, DWORD PTR tv139[ebp]
  00141	89 08		 mov	 DWORD PTR [eax], ecx
  00143	8b 95 f4 fe ff
	ff		 mov	 edx, DWORD PTR tv139[ebp]
  00149	52		 push	 edx
  0014a	8b 4d 10	 mov	 ecx, DWORD PTR _pOM$[ebp]
  0014d	e8 00 00 00 00	 call	 ?RegisterNewOverlay@CScreenOverlayManager@@QAEHPAVCScreenOverlay@@@Z ; CScreenOverlayManager::RegisterNewOverlay

; 86   : 		m_ppMenuItems[0]->m_bActive = m_bActive ;

  00152	8b 45 f8	 mov	 eax, DWORD PTR _this$[ebp]
  00155	8b 48 08	 mov	 ecx, DWORD PTR [eax+8]
  00158	8b 11		 mov	 edx, DWORD PTR [ecx]
  0015a	8b 45 f8	 mov	 eax, DWORD PTR _this$[ebp]
  0015d	8b 48 04	 mov	 ecx, DWORD PTR [eax+4]
  00160	89 8a 84 00 00
	00		 mov	 DWORD PTR [edx+132], ecx

; 87   : 
; 88   : 		pOM->RegisterNewOverlay((m_ppMenuItems[1] = new CMenuItem(pTex->m_pTex[MENU_TEX_START + 7], 1.0f, 0.25f, 0.66f - 0.25f, 0.0f, 0.5f, 0.5f)));

  00166	68 e4 00 00 00	 push	 228			; 000000e4H
  0016b	e8 00 00 00 00	 call	 ??2@YAPAXI@Z		; operator new
  00170	83 c4 04	 add	 esp, 4
  00173	89 85 fc fe ff
	ff		 mov	 DWORD PTR $T93871[ebp], eax
  00179	83 bd fc fe ff
	ff 00		 cmp	 DWORD PTR $T93871[ebp], 0
  00180	74 38		 je	 SHORT $L93872
  00182	68 00 00 00 3f	 push	 1056964608		; 3f000000H
  00187	68 00 00 00 3f	 push	 1056964608		; 3f000000H
  0018c	6a 00		 push	 0
  0018e	68 86 eb d1 3e	 push	 1053944710		; 3ed1eb86H
  00193	68 00 00 80 3e	 push	 1048576000		; 3e800000H
  00198	68 00 00 80 3f	 push	 1065353216		; 3f800000H
  0019d	8b 45 14	 mov	 eax, DWORD PTR _pTex$[ebp]
  001a0	8b 88 80 09 00
	00		 mov	 ecx, DWORD PTR [eax+2432]
  001a6	51		 push	 ecx
  001a7	8b 8d fc fe ff
	ff		 mov	 ecx, DWORD PTR $T93871[ebp]
  001ad	e8 00 00 00 00	 call	 ??0CMenuItem@@QAE@PAUIDirect3DTexture8@@MMMMMM@Z ; CMenuItem::CMenuItem
  001b2	89 85 f4 fe ff
	ff		 mov	 DWORD PTR tv163[ebp], eax
  001b8	eb 0a		 jmp	 SHORT $L93873
$L93872:
  001ba	c7 85 f4 fe ff
	ff 00 00 00 00	 mov	 DWORD PTR tv163[ebp], 0
$L93873:
  001c4	8b 55 f8	 mov	 edx, DWORD PTR _this$[ebp]
  001c7	8b 42 08	 mov	 eax, DWORD PTR [edx+8]
  001ca	8b 8d f4 fe ff
	ff		 mov	 ecx, DWORD PTR tv163[ebp]
  001d0	89 48 04	 mov	 DWORD PTR [eax+4], ecx
  001d3	8b 95 f4 fe ff
	ff		 mov	 edx, DWORD PTR tv163[ebp]
  001d9	52		 push	 edx
  001da	8b 4d 10	 mov	 ecx, DWORD PTR _pOM$[ebp]
  001dd	e8 00 00 00 00	 call	 ?RegisterNewOverlay@CScreenOverlayManager@@QAEHPAVCScreenOverlay@@@Z ; CScreenOverlayManager::RegisterNewOverlay

; 89   : 		m_ppMenuItems[1]->m_bActive = m_bActive ;

  001e2	8b 45 f8	 mov	 eax, DWORD PTR _this$[ebp]
  001e5	8b 48 08	 mov	 ecx, DWORD PTR [eax+8]
  001e8	8b 51 04	 mov	 edx, DWORD PTR [ecx+4]
  001eb	8b 45 f8	 mov	 eax, DWORD PTR _this$[ebp]
  001ee	8b 48 04	 mov	 ecx, DWORD PTR [eax+4]
  001f1	89 8a 84 00 00
	00		 mov	 DWORD PTR [edx+132], ecx

; 90   : 
; 91   : 		return S_OK ;

  001f7	33 c0		 xor	 eax, eax

; 92   : 	}

  001f9	5f		 pop	 edi
  001fa	5e		 pop	 esi
  001fb	5b		 pop	 ebx
  001fc	81 c4 0c 01 00
	00		 add	 esp, 268		; 0000010cH
  00202	3b ec		 cmp	 ebp, esp
  00204	e8 00 00 00 00	 call	 __RTC_CheckEsp
  00209	8b e5		 mov	 esp, ebp
  0020b	5d		 pop	 ebp
  0020c	c2 10 00	 ret	 16			; 00000010H
?RestoreDeviceObjects@CInGameMenu@@QAEJPAUIDirect3DDevice8@@MPAVCScreenOverlayManager@@PAVCMenuTextures@@@Z ENDP ; CInGameMenu::RestoreDeviceObjects
_TEXT	ENDS
PUBLIC	??_GCRace@@QAEPAXI@Z				; CRace::`scalar deleting destructor'
PUBLIC	??0D3DXMATRIX@@QAE@XZ				; D3DXMATRIX::D3DXMATRIX
PUBLIC	?FrameMove@CInGameMenu@@QAEJPAUIDirect3DDevice8@@MPAVCScreenOverlayManager@@PAVCUserInput@@PAVCSoundManager@@@Z ; CInGameMenu::FrameMove
PUBLIC	__real@c3160000
PUBLIC	__real@43160000
PUBLIC	__real@3f800000
PUBLIC	__real@41a00000
PUBLIC	??_GCTextures@@QAEPAXI@Z			; CTextures::`scalar deleting destructor'
EXTRN	?PlaySFX@CSoundManager@@QAEHH@Z:NEAR		; CSoundManager::PlaySFX
EXTRN	?SetSelected@CMenuItem@@QAEHHPAUOVERLAYVERTEX@@@Z:NEAR ; CMenuItem::SetSelected
EXTRN	@_RTC_CheckStackVars@8:NEAR
EXTRN	_D3DXMatrixTranslation@16:NEAR
;	COMDAT __real@c3160000
CONST	SEGMENT
__real@c3160000 DD 0c3160000r			; -150
CONST	ENDS
;	COMDAT __real@43160000
CONST	SEGMENT
__real@43160000 DD 043160000r			; 150
CONST	ENDS
;	COMDAT __real@3f800000
CONST	SEGMENT
__real@3f800000 DD 03f800000r			; 1
CONST	ENDS
;	COMDAT __real@41a00000
CONST	SEGMENT
__real@41a00000 DD 041a00000r			; 20
; Function compile flags: /Odt /RTCsu /ZI
CONST	ENDS
;	COMDAT ?FrameMove@CInGameMenu@@QAEJPAUIDirect3DDevice8@@MPAVCScreenOverlayManager@@PAVCUserInput@@PAVCSoundManager@@@Z
_TEXT	SEGMENT
tv243 = -560
tv234 = -560
tv69 = -560
$T93883 = -552
$T93882 = -540
$T93879 = -528
$T93878 = -516
_matR$ = -312
_matR3$ = -240
_matR2$ = -168
_matR1$ = -96
_i$ = -20
_this$ = -8
_pDev$ = 8
_fFPS$ = 12
_pOM$ = 16
_pIn$ = 20
_pSM$ = 24
?FrameMove@CInGameMenu@@QAEJPAUIDirect3DDevice8@@MPAVCScreenOverlayManager@@PAVCUserInput@@PAVCSoundManager@@@Z PROC NEAR ; CInGameMenu::FrameMove, COMDAT
; _this$ = ecx

; 95   : 	{

  00000	55		 push	 ebp
  00001	8b ec		 mov	 ebp, esp
  00003	81 ec 30 02 00
	00		 sub	 esp, 560		; 00000230H
  00009	53		 push	 ebx
  0000a	56		 push	 esi
  0000b	57		 push	 edi
  0000c	51		 push	 ecx
  0000d	8d bd d0 fd ff
	ff		 lea	 edi, DWORD PTR [ebp-560]
  00013	b9 8c 00 00 00	 mov	 ecx, 140		; 0000008cH
  00018	b8 cc cc cc cc	 mov	 eax, -858993460		; ccccccccH
  0001d	f3 ab		 rep stosd
  0001f	59		 pop	 ecx
  00020	89 4d f8	 mov	 DWORD PTR _this$[ebp], ecx

; 96   : 		int i ;
; 97   : 		static float fRot1 = 0.0f, fRot2 = 0.0f, fRot3 = 0.0f ;
; 98   : 		xMat matR1, matR2, matR3, matR ;

  00023	8d 4d a0	 lea	 ecx, DWORD PTR _matR1$[ebp]
  00026	e8 00 00 00 00	 call	 ??0D3DXMATRIX@@QAE@XZ	; D3DXMATRIX::D3DXMATRIX
  0002b	8d 8d 58 ff ff
	ff		 lea	 ecx, DWORD PTR _matR2$[ebp]
  00031	e8 00 00 00 00	 call	 ??0D3DXMATRIX@@QAE@XZ	; D3DXMATRIX::D3DXMATRIX
  00036	8d 8d 10 ff ff
	ff		 lea	 ecx, DWORD PTR _matR3$[ebp]
  0003c	e8 00 00 00 00	 call	 ??0D3DXMATRIX@@QAE@XZ	; D3DXMATRIX::D3DXMATRIX
  00041	8d 8d c8 fe ff
	ff		 lea	 ecx, DWORD PTR _matR$[ebp]
  00047	e8 00 00 00 00	 call	 ??0D3DXMATRIX@@QAE@XZ	; D3DXMATRIX::D3DXMATRIX

; 99   : 
; 100  : 		switch( m_msState )
; 101  : 		{

  0004c	8b 45 f8	 mov	 eax, DWORD PTR _this$[ebp]
  0004f	8b 48 1c	 mov	 ecx, DWORD PTR [eax+28]
  00052	89 8d d0 fd ff
	ff		 mov	 DWORD PTR tv69[ebp], ecx
  00058	83 bd d0 fd ff
	ff 01		 cmp	 DWORD PTR tv69[ebp], 1
  0005f	74 12		 je	 SHORT $L93744
  00061	83 bd d0 fd ff
	ff 02		 cmp	 DWORD PTR tv69[ebp], 2
  00068	0f 84 a0 01 00
	00		 je	 $L93757
  0006e	e9 b8 03 00 00	 jmp	 $L93741
$L93744:

; 102  : 			case MS_IDLE:
; 103  : 			// move current item
; 104  : 				m_fMouseYMovement -= pIn->m_fMouseY ;

  00073	8b 45 f8	 mov	 eax, DWORD PTR _this$[ebp]
  00076	8b 4d 14	 mov	 ecx, DWORD PTR _pIn$[ebp]
  00079	d9 40 18	 fld	 DWORD PTR [eax+24]
  0007c	d8 a1 58 06 00
	00		 fsub	 DWORD PTR [ecx+1624]
  00082	8b 55 f8	 mov	 edx, DWORD PTR _this$[ebp]
  00085	d9 5a 18	 fstp	 DWORD PTR [edx+24]

; 105  : 				if (pIn->m_bKB_Pressed[DIK_UP] || pIn->m_bKB_Pressed[DIK_NUMPAD8] || m_fMouseYMovement < -150.0f)

  00088	8b 45 14	 mov	 eax, DWORD PTR _pIn$[ebp]
  0008b	83 b8 28 05 00
	00 00		 cmp	 DWORD PTR [eax+1320], 0
  00092	75 1f		 jne	 SHORT $L93746
  00094	8b 45 14	 mov	 eax, DWORD PTR _pIn$[ebp]
  00097	83 b8 28 03 00
	00 00		 cmp	 DWORD PTR [eax+808], 0
  0009e	75 13		 jne	 SHORT $L93746
  000a0	8b 45 f8	 mov	 eax, DWORD PTR _this$[ebp]
  000a3	d9 40 18	 fld	 DWORD PTR [eax+24]
  000a6	d8 1d 00 00 00
	00		 fcomp	 DWORD PTR __real@c3160000
  000ac	df e0		 fnstsw	 ax
  000ae	f6 c4 05	 test	 ah, 5
  000b1	7a 3b		 jp	 SHORT $L93745
$L93746:

; 106  : 				{
; 107  : 					m_fMouseYMovement = 0.0f ;

  000b3	8b 45 f8	 mov	 eax, DWORD PTR _this$[ebp]
  000b6	c7 40 18 00 00
	00 00		 mov	 DWORD PTR [eax+24], 0

; 108  : 					if (--m_ndxMenuSelected < 0)

  000bd	8b 45 f8	 mov	 eax, DWORD PTR _this$[ebp]
  000c0	8b 48 14	 mov	 ecx, DWORD PTR [eax+20]
  000c3	83 e9 01	 sub	 ecx, 1
  000c6	8b 55 f8	 mov	 edx, DWORD PTR _this$[ebp]
  000c9	89 4a 14	 mov	 DWORD PTR [edx+20], ecx
  000cc	8b 45 f8	 mov	 eax, DWORD PTR _this$[ebp]
  000cf	83 78 14 00	 cmp	 DWORD PTR [eax+20], 0
  000d3	7d 0f		 jge	 SHORT $L93747

; 109  : 						m_ndxMenuSelected = m_nMenuItems - 1 ;

  000d5	8b 45 f8	 mov	 eax, DWORD PTR _this$[ebp]
  000d8	8b 48 0c	 mov	 ecx, DWORD PTR [eax+12]
  000db	83 e9 01	 sub	 ecx, 1
  000de	8b 55 f8	 mov	 edx, DWORD PTR _this$[ebp]
  000e1	89 4a 14	 mov	 DWORD PTR [edx+20], ecx
$L93747:

; 110  : 					pSM->PlaySFX( SFX_MENU_MOVE );

  000e4	6a 00		 push	 0
  000e6	8b 4d 18	 mov	 ecx, DWORD PTR _pSM$[ebp]
  000e9	e8 00 00 00 00	 call	 ?PlaySFX@CSoundManager@@QAEHH@Z ; CSoundManager::PlaySFX
$L93745:

; 111  : 				}
; 112  : 				if (pIn->m_bKB_Pressed[DIK_DOWN] || pIn->m_bKB_Pressed[DIK_NUMPAD2] || m_fMouseYMovement > +150.0f)

  000ee	8b 45 14	 mov	 eax, DWORD PTR _pIn$[ebp]
  000f1	83 b8 48 05 00
	00 00		 cmp	 DWORD PTR [eax+1352], 0
  000f8	75 1f		 jne	 SHORT $L93749
  000fa	8b 45 14	 mov	 eax, DWORD PTR _pIn$[ebp]
  000fd	83 b8 48 03 00
	00 00		 cmp	 DWORD PTR [eax+840], 0
  00104	75 13		 jne	 SHORT $L93749
  00106	8b 45 f8	 mov	 eax, DWORD PTR _this$[ebp]
  00109	d9 40 18	 fld	 DWORD PTR [eax+24]
  0010c	d8 1d 00 00 00
	00		 fcomp	 DWORD PTR __real@43160000
  00112	df e0		 fnstsw	 ax
  00114	f6 c4 41	 test	 ah, 65			; 00000041H
  00117	75 3e		 jne	 SHORT $L93748
$L93749:

; 113  : 				{
; 114  : 					m_fMouseYMovement = 0.0f ;

  00119	8b 45 f8	 mov	 eax, DWORD PTR _this$[ebp]
  0011c	c7 40 18 00 00
	00 00		 mov	 DWORD PTR [eax+24], 0

; 115  : 					if (++m_ndxMenuSelected > m_nMenuItems - 1)

  00123	8b 45 f8	 mov	 eax, DWORD PTR _this$[ebp]
  00126	8b 48 14	 mov	 ecx, DWORD PTR [eax+20]
  00129	83 c1 01	 add	 ecx, 1
  0012c	8b 55 f8	 mov	 edx, DWORD PTR _this$[ebp]
  0012f	89 4a 14	 mov	 DWORD PTR [edx+20], ecx
  00132	8b 45 f8	 mov	 eax, DWORD PTR _this$[ebp]
  00135	8b 48 0c	 mov	 ecx, DWORD PTR [eax+12]
  00138	83 e9 01	 sub	 ecx, 1
  0013b	8b 55 f8	 mov	 edx, DWORD PTR _this$[ebp]
  0013e	39 4a 14	 cmp	 DWORD PTR [edx+20], ecx
  00141	7e 0a		 jle	 SHORT $L93750

; 116  : 						m_ndxMenuSelected = 0 ;

  00143	8b 45 f8	 mov	 eax, DWORD PTR _this$[ebp]
  00146	c7 40 14 00 00
	00 00		 mov	 DWORD PTR [eax+20], 0
$L93750:

; 117  : 					pSM->PlaySFX( SFX_MENU_MOVE );

  0014d	6a 00		 push	 0
  0014f	8b 4d 18	 mov	 ecx, DWORD PTR _pSM$[ebp]
  00152	e8 00 00 00 00	 call	 ?PlaySFX@CSoundManager@@QAEHH@Z ; CSoundManager::PlaySFX
$L93748:

; 118  : 				}
; 119  : 
; 120  : 			// update highlight
; 121  : 				for (i = 0 ; i < m_nMenuItems ; i ++)

  00157	c7 45 ec 00 00
	00 00		 mov	 DWORD PTR _i$[ebp], 0
  0015e	eb 09		 jmp	 SHORT $L93751
$L93752:
  00160	8b 45 ec	 mov	 eax, DWORD PTR _i$[ebp]
  00163	83 c0 01	 add	 eax, 1
  00166	89 45 ec	 mov	 DWORD PTR _i$[ebp], eax
$L93751:
  00169	8b 45 f8	 mov	 eax, DWORD PTR _this$[ebp]
  0016c	8b 4d ec	 mov	 ecx, DWORD PTR _i$[ebp]
  0016f	3b 48 0c	 cmp	 ecx, DWORD PTR [eax+12]
  00172	7d 3b		 jge	 SHORT $L93753

; 122  : 					if (m_ppMenuItems[i])

  00174	8b 45 f8	 mov	 eax, DWORD PTR _this$[ebp]
  00177	8b 48 08	 mov	 ecx, DWORD PTR [eax+8]
  0017a	8b 55 ec	 mov	 edx, DWORD PTR _i$[ebp]
  0017d	83 3c 91 00	 cmp	 DWORD PTR [ecx+edx*4], 0
  00181	74 2a		 je	 SHORT $L93754

; 123  : 						m_ppMenuItems[i]->SetSelected(m_ndxMenuSelected == i, pOM->m_pVBVertices) ;

  00183	8b 45 10	 mov	 eax, DWORD PTR _pOM$[ebp]
  00186	8b 88 94 02 00
	00		 mov	 ecx, DWORD PTR [eax+660]
  0018c	51		 push	 ecx
  0018d	8b 55 f8	 mov	 edx, DWORD PTR _this$[ebp]
  00190	8b 42 14	 mov	 eax, DWORD PTR [edx+20]
  00193	2b 45 ec	 sub	 eax, DWORD PTR _i$[ebp]
  00196	f7 d8		 neg	 eax
  00198	1b c0		 sbb	 eax, eax
  0019a	40		 inc	 eax
  0019b	50		 push	 eax
  0019c	8b 4d f8	 mov	 ecx, DWORD PTR _this$[ebp]
  0019f	8b 51 08	 mov	 edx, DWORD PTR [ecx+8]
  001a2	8b 45 ec	 mov	 eax, DWORD PTR _i$[ebp]
  001a5	8b 0c 82	 mov	 ecx, DWORD PTR [edx+eax*4]
  001a8	e8 00 00 00 00	 call	 ?SetSelected@CMenuItem@@QAEHHPAUOVERLAYVERTEX@@@Z ; CMenuItem::SetSelected
$L93754:

; 124  : 	
; 125  : 			// test for selection
; 126  : 				if (pIn->m_bKB_Pressed[DIK_SPACE] ||

  001ad	eb b1		 jmp	 SHORT $L93752
$L93753:

; 127  : 					pIn->m_bKB_Pressed[DIK_RETURN] ||
; 128  : 					pIn->m_bKB_Pressed[DIK_NUMPADENTER] ||
; 129  : 					pIn->m_bMouseLB)

  001af	8b 45 14	 mov	 eax, DWORD PTR _pIn$[ebp]
  001b2	83 b8 ec 02 00
	00 00		 cmp	 DWORD PTR [eax+748], 0
  001b9	75 24		 jne	 SHORT $L93756
  001bb	8b 45 14	 mov	 eax, DWORD PTR _pIn$[ebp]
  001be	83 b8 78 02 00
	00 00		 cmp	 DWORD PTR [eax+632], 0
  001c5	75 18		 jne	 SHORT $L93756
  001c7	8b 45 14	 mov	 eax, DWORD PTR _pIn$[ebp]
  001ca	83 b8 78 04 00
	00 00		 cmp	 DWORD PTR [eax+1144], 0
  001d1	75 0c		 jne	 SHORT $L93756
  001d3	8b 45 14	 mov	 eax, DWORD PTR _pIn$[ebp]
  001d6	83 b8 60 06 00
	00 00		 cmp	 DWORD PTR [eax+1632], 0
  001dd	74 2a		 je	 SHORT $L93755
$L93756:

; 130  : 				{
; 131  : 
; 132  : 					pSM->PlaySFX( SFX_MENU_SELECT );

  001df	6a 01		 push	 1
  001e1	8b 4d 18	 mov	 ecx, DWORD PTR _pSM$[ebp]
  001e4	e8 00 00 00 00	 call	 ?PlaySFX@CSoundManager@@QAEHH@Z ; CSoundManager::PlaySFX

; 133  : 					m_msState = MS_OUTRO ;

  001e9	8b 45 f8	 mov	 eax, DWORD PTR _this$[ebp]
  001ec	c7 40 1c 02 00
	00 00		 mov	 DWORD PTR [eax+28], 2

; 134  : 					m_fOutroPlaytime = 0.0f ;

  001f3	8b 45 f8	 mov	 eax, DWORD PTR _this$[ebp]
  001f6	c7 40 24 00 00
	00 00		 mov	 DWORD PTR [eax+36], 0

; 135  : 					m_ndxSelected = m_ndxMenuSelected ;

  001fd	8b 45 f8	 mov	 eax, DWORD PTR _this$[ebp]
  00200	8b 4d f8	 mov	 ecx, DWORD PTR _this$[ebp]
  00203	8b 51 14	 mov	 edx, DWORD PTR [ecx+20]
  00206	89 50 20	 mov	 DWORD PTR [eax+32], edx
$L93755:

; 136  : 				}
; 137  : 				break ;

  00209	e9 1d 02 00 00	 jmp	 $L93741
$L93757:

; 138  : 
; 139  : 			case MS_OUTRO:
; 140  : 			// spin non-picked menuitems
; 141  : 				m_fOutroPlaytime += (1.0f/fFPS) ;

  0020e	d9 05 00 00 00
	00		 fld	 DWORD PTR __real@3f800000
  00214	d8 75 0c	 fdiv	 DWORD PTR _fFPS$[ebp]
  00217	8b 45 f8	 mov	 eax, DWORD PTR _this$[ebp]
  0021a	d8 40 24	 fadd	 DWORD PTR [eax+36]
  0021d	8b 4d f8	 mov	 ecx, DWORD PTR _this$[ebp]
  00220	d9 59 24	 fstp	 DWORD PTR [ecx+36]

; 142  : 				for( i = 0 ; i < m_nMenuItems ; i++ )

  00223	c7 45 ec 00 00
	00 00		 mov	 DWORD PTR _i$[ebp], 0
  0022a	eb 09		 jmp	 SHORT $L93758
$L93759:
  0022c	8b 45 ec	 mov	 eax, DWORD PTR _i$[ebp]
  0022f	83 c0 01	 add	 eax, 1
  00232	89 45 ec	 mov	 DWORD PTR _i$[ebp], eax
$L93758:
  00235	8b 45 f8	 mov	 eax, DWORD PTR _this$[ebp]
  00238	8b 4d ec	 mov	 ecx, DWORD PTR _i$[ebp]
  0023b	3b 48 0c	 cmp	 ecx, DWORD PTR [eax+12]
  0023e	0f 8d 82 00 00
	00		 jge	 $L93760

; 143  : 					if( i != m_ndxSelected)

  00244	8b 45 f8	 mov	 eax, DWORD PTR _this$[ebp]
  00247	8b 4d ec	 mov	 ecx, DWORD PTR _i$[ebp]
  0024a	3b 48 20	 cmp	 ecx, DWORD PTR [eax+32]
  0024d	74 3b		 je	 SHORT $L93761

; 144  : 					{
; 145  : 						D3DXMatrixTranslation( &matR1, 0.0f, 0.0f, m_fOutroPlaytime * 20.0f );

  0024f	8b 45 f8	 mov	 eax, DWORD PTR _this$[ebp]
  00252	d9 40 24	 fld	 DWORD PTR [eax+36]
  00255	d8 0d 00 00 00
	00		 fmul	 DWORD PTR __real@41a00000
  0025b	51		 push	 ecx
  0025c	d9 1c 24	 fstp	 DWORD PTR [esp]
  0025f	6a 00		 push	 0
  00261	6a 00		 push	 0
  00263	8d 4d a0	 lea	 ecx, DWORD PTR _matR1$[ebp]
  00266	51		 push	 ecx
  00267	e8 00 00 00 00	 call	 _D3DXMatrixTranslation@16

; 146  : 						m_ppMenuItems[i]->m_matWorld = matR1 ;

  0026c	8b 45 f8	 mov	 eax, DWORD PTR _this$[ebp]
  0026f	8b 48 08	 mov	 ecx, DWORD PTR [eax+8]
  00272	8b 55 ec	 mov	 edx, DWORD PTR _i$[ebp]
  00275	8b 3c 91	 mov	 edi, DWORD PTR [ecx+edx*4]
  00278	81 c7 88 00 00
	00		 add	 edi, 136		; 00000088H
  0027e	b9 10 00 00 00	 mov	 ecx, 16			; 00000010H
  00283	8d 75 a0	 lea	 esi, DWORD PTR _matR1$[ebp]
  00286	f3 a5		 rep movsd

; 147  : 					}
; 148  : 					else

  00288	eb 37		 jmp	 SHORT $L93762
$L93761:

; 149  : 					{
; 150  : 						D3DXMatrixTranslation( &matR1, 0.0f, 0.0f, -m_fOutroPlaytime * 2.0f );

  0028a	8b 45 f8	 mov	 eax, DWORD PTR _this$[ebp]
  0028d	d9 40 24	 fld	 DWORD PTR [eax+36]
  00290	d9 e0		 fchs
  00292	dc c0		 fadd	 ST(0), ST(0)
  00294	51		 push	 ecx
  00295	d9 1c 24	 fstp	 DWORD PTR [esp]
  00298	6a 00		 push	 0
  0029a	6a 00		 push	 0
  0029c	8d 4d a0	 lea	 ecx, DWORD PTR _matR1$[ebp]
  0029f	51		 push	 ecx
  002a0	e8 00 00 00 00	 call	 _D3DXMatrixTranslation@16

; 151  : 						m_ppMenuItems[i]->m_matWorld = matR1 ;

  002a5	8b 45 f8	 mov	 eax, DWORD PTR _this$[ebp]
  002a8	8b 48 08	 mov	 ecx, DWORD PTR [eax+8]
  002ab	8b 55 ec	 mov	 edx, DWORD PTR _i$[ebp]
  002ae	8b 3c 91	 mov	 edi, DWORD PTR [ecx+edx*4]
  002b1	81 c7 88 00 00
	00		 add	 edi, 136		; 00000088H
  002b7	b9 10 00 00 00	 mov	 ecx, 16			; 00000010H
  002bc	8d 75 a0	 lea	 esi, DWORD PTR _matR1$[ebp]
  002bf	f3 a5		 rep movsd
$L93762:

; 152  : 					}

  002c1	e9 66 ff ff ff	 jmp	 $L93759
$L93760:

; 153  : 
; 154  : 				if( m_fOutroPlaytime > 1.0f )

  002c6	8b 45 f8	 mov	 eax, DWORD PTR _this$[ebp]
  002c9	d9 40 24	 fld	 DWORD PTR [eax+36]
  002cc	d8 1d 00 00 00
	00		 fcomp	 DWORD PTR __real@3f800000
  002d2	df e0		 fnstsw	 ax
  002d4	f6 c4 41	 test	 ah, 65			; 00000041H
  002d7	0f 85 4e 01 00
	00		 jne	 $L93741

; 155  : 				{
; 156  : 					if (m_ndxMenuSelected == 0) // resume

  002dd	8b 45 f8	 mov	 eax, DWORD PTR _this$[ebp]
  002e0	83 78 14 00	 cmp	 DWORD PTR [eax+20], 0
  002e4	75 14		 jne	 SHORT $L93764

; 157  : 					{
; 158  : 						ExitMenu() ;

  002e6	8b 4d f8	 mov	 ecx, DWORD PTR _this$[ebp]
  002e9	e8 00 00 00 00	 call	 ?ExitMenu@CInGameMenu@@QAEHXZ ; CInGameMenu::ExitMenu

; 159  : 						m_pX7->m_bGamePaused = FALSE ;

  002ee	8b 45 f8	 mov	 eax, DWORD PTR _this$[ebp]
  002f1	8b 08		 mov	 ecx, DWORD PTR [eax]
  002f3	c6 81 dc a7 02
	00 00		 mov	 BYTE PTR [ecx+174044], 0
$L93764:

; 160  : 					}
; 161  : 					if (m_ndxMenuSelected == 1) // exit

  002fa	8b 45 f8	 mov	 eax, DWORD PTR _this$[ebp]
  002fd	83 78 14 01	 cmp	 DWORD PTR [eax+20], 1
  00301	0f 85 24 01 00
	00		 jne	 $L93741

; 162  : 					{
; 163  : 						ExitMenu() ;

  00307	8b 4d f8	 mov	 ecx, DWORD PTR _this$[ebp]
  0030a	e8 00 00 00 00	 call	 ?ExitMenu@CInGameMenu@@QAEHXZ ; CInGameMenu::ExitMenu

; 164  : 						m_pX7->m_bGamePaused = FALSE ;

  0030f	8b 45 f8	 mov	 eax, DWORD PTR _this$[ebp]
  00312	8b 08		 mov	 ecx, DWORD PTR [eax]
  00314	c6 81 dc a7 02
	00 00		 mov	 BYTE PTR [ecx+174044], 0

; 165  : 						m_pX7->m_bInGame = FALSE ;

  0031b	8b 45 f8	 mov	 eax, DWORD PTR _this$[ebp]
  0031e	8b 08		 mov	 ecx, DWORD PTR [eax]
  00320	c6 81 db a7 02
	00 00		 mov	 BYTE PTR [ecx+174043], 0

; 166  : 						m_pX7->m_bInMainMenu = TRUE ;

  00327	8b 45 f8	 mov	 eax, DWORD PTR _this$[ebp]
  0032a	8b 08		 mov	 ecx, DWORD PTR [eax]
  0032c	c6 81 d8 a7 02
	00 01		 mov	 BYTE PTR [ecx+174040], 1

; 167  : 					// kill all game-related objects;
; 168  : 						m_pX7->InvalidateDeviceObjects() ;

  00333	8b 45 f8	 mov	 eax, DWORD PTR _this$[ebp]
  00336	8b 08		 mov	 ecx, DWORD PTR [eax]
  00338	8b 55 f8	 mov	 edx, DWORD PTR _this$[ebp]
  0033b	8b 02		 mov	 eax, DWORD PTR [edx]
  0033d	8b 11		 mov	 edx, DWORD PTR [ecx]
  0033f	8b f4		 mov	 esi, esp
  00341	8b c8		 mov	 ecx, eax
  00343	ff 52 1c	 call	 DWORD PTR [edx+28]
  00346	3b f4		 cmp	 esi, esp
  00348	e8 00 00 00 00	 call	 __RTC_CheckEsp

; 169  : 						SAFE_DELETE( m_pX7->m_pTestRace )

  0034d	8b 45 f8	 mov	 eax, DWORD PTR _this$[ebp]
  00350	8b 08		 mov	 ecx, DWORD PTR [eax]
  00352	83 b9 ec a8 02
	00 00		 cmp	 DWORD PTR [ecx+174316], 0
  00359	74 54		 je	 SHORT $L93766
  0035b	8b 45 f8	 mov	 eax, DWORD PTR _this$[ebp]
  0035e	8b 08		 mov	 ecx, DWORD PTR [eax]
  00360	8b 91 ec a8 02
	00		 mov	 edx, DWORD PTR [ecx+174316]
  00366	89 95 f0 fd ff
	ff		 mov	 DWORD PTR $T93879[ebp], edx
  0036c	8b 85 f0 fd ff
	ff		 mov	 eax, DWORD PTR $T93879[ebp]
  00372	89 85 fc fd ff
	ff		 mov	 DWORD PTR $T93878[ebp], eax
  00378	83 bd fc fd ff
	ff 00		 cmp	 DWORD PTR $T93878[ebp], 0
  0037f	74 15		 je	 SHORT $L93880
  00381	6a 01		 push	 1
  00383	8b 8d fc fd ff
	ff		 mov	 ecx, DWORD PTR $T93878[ebp]
  00389	e8 00 00 00 00	 call	 ??_GCRace@@QAEPAXI@Z
  0038e	89 85 d0 fd ff
	ff		 mov	 DWORD PTR tv234[ebp], eax
  00394	eb 0a		 jmp	 SHORT $L93881
$L93880:
  00396	c7 85 d0 fd ff
	ff 00 00 00 00	 mov	 DWORD PTR tv234[ebp], 0
$L93881:
  003a0	8b 45 f8	 mov	 eax, DWORD PTR _this$[ebp]
  003a3	8b 08		 mov	 ecx, DWORD PTR [eax]
  003a5	c7 81 ec a8 02
	00 00 00 00 00	 mov	 DWORD PTR [ecx+174316], 0
$L93766:

; 170  : 						SAFE_DELETE( m_pX7->m_pTextures )

  003af	8b 45 f8	 mov	 eax, DWORD PTR _this$[ebp]
  003b2	8b 08		 mov	 ecx, DWORD PTR [eax]
  003b4	83 b9 e8 a8 02
	00 00		 cmp	 DWORD PTR [ecx+174312], 0
  003bb	74 54		 je	 SHORT $L93769
  003bd	8b 45 f8	 mov	 eax, DWORD PTR _this$[ebp]
  003c0	8b 08		 mov	 ecx, DWORD PTR [eax]
  003c2	8b 91 e8 a8 02
	00		 mov	 edx, DWORD PTR [ecx+174312]
  003c8	89 95 d8 fd ff
	ff		 mov	 DWORD PTR $T93883[ebp], edx
  003ce	8b 85 d8 fd ff
	ff		 mov	 eax, DWORD PTR $T93883[ebp]
  003d4	89 85 e4 fd ff
	ff		 mov	 DWORD PTR $T93882[ebp], eax
  003da	83 bd e4 fd ff
	ff 00		 cmp	 DWORD PTR $T93882[ebp], 0
  003e1	74 15		 je	 SHORT $L93884
  003e3	6a 01		 push	 1
  003e5	8b 8d e4 fd ff
	ff		 mov	 ecx, DWORD PTR $T93882[ebp]
  003eb	e8 00 00 00 00	 call	 ??_GCTextures@@QAEPAXI@Z
  003f0	89 85 d0 fd ff
	ff		 mov	 DWORD PTR tv243[ebp], eax
  003f6	eb 0a		 jmp	 SHORT $L93885
$L93884:
  003f8	c7 85 d0 fd ff
	ff 00 00 00 00	 mov	 DWORD PTR tv243[ebp], 0
$L93885:
  00402	8b 45 f8	 mov	 eax, DWORD PTR _this$[ebp]
  00405	8b 08		 mov	 ecx, DWORD PTR [eax]
  00407	c7 81 e8 a8 02
	00 00 00 00 00	 mov	 DWORD PTR [ecx+174312], 0
$L93769:

; 171  : 						m_pX7->RestoreDeviceObjects() ;

  00411	8b 45 f8	 mov	 eax, DWORD PTR _this$[ebp]
  00414	8b 08		 mov	 ecx, DWORD PTR [eax]
  00416	8b 55 f8	 mov	 edx, DWORD PTR _this$[ebp]
  00419	8b 02		 mov	 eax, DWORD PTR [edx]
  0041b	8b 11		 mov	 edx, DWORD PTR [ecx]
  0041d	8b f4		 mov	 esi, esp
  0041f	8b c8		 mov	 ecx, eax
  00421	ff 52 10	 call	 DWORD PTR [edx+16]
  00424	3b f4		 cmp	 esi, esp
  00426	e8 00 00 00 00	 call	 __RTC_CheckEsp
$L93741:

; 172  : 					}
; 173  : 				}
; 174  : 				break ;
; 175  : 		}
; 176  : 
; 177  : 		return S_OK ;

  0042b	33 c0		 xor	 eax, eax

; 178  : 	}

  0042d	52		 push	 edx
  0042e	8b cd		 mov	 ecx, ebp
  00430	50		 push	 eax
  00431	8d 15 00 00 00
	00		 lea	 edx, DWORD PTR $L93899
  00437	e8 00 00 00 00	 call	 @_RTC_CheckStackVars@8
  0043c	58		 pop	 eax
  0043d	5a		 pop	 edx
  0043e	5f		 pop	 edi
  0043f	5e		 pop	 esi
  00440	5b		 pop	 ebx
  00441	81 c4 30 02 00
	00		 add	 esp, 560		; 00000230H
  00447	3b ec		 cmp	 ebp, esp
  00449	e8 00 00 00 00	 call	 __RTC_CheckEsp
  0044e	8b e5		 mov	 esp, ebp
  00450	5d		 pop	 ebp
  00451	c2 14 00	 ret	 20			; 00000014H
$L93899:
  00454	04 00 00 00	 DD	 4
  00458	00 00 00 00	 DD	 $L93898
$L93898:
  0045c	a0 ff ff ff	 DD	 -96			; ffffffa0H
  00460	40 00 00 00	 DD	 64			; 00000040H
  00464	00 00 00 00	 DD	 $L93894
  00468	58 ff ff ff	 DD	 -168			; ffffff58H
  0046c	40 00 00 00	 DD	 64			; 00000040H
  00470	00 00 00 00	 DD	 $L93895
  00474	10 ff ff ff	 DD	 -240			; ffffff10H
  00478	40 00 00 00	 DD	 64			; 00000040H
  0047c	00 00 00 00	 DD	 $L93896
  00480	c8 fe ff ff	 DD	 -312			; fffffec8H
  00484	40 00 00 00	 DD	 64			; 00000040H
  00488	00 00 00 00	 DD	 $L93897
$L93897:
  0048c	6d		 DB	 109			; 0000006dH
  0048d	61		 DB	 97			; 00000061H
  0048e	74		 DB	 116			; 00000074H
  0048f	52		 DB	 82			; 00000052H
  00490	00		 DB	 0
$L93896:
  00491	6d		 DB	 109			; 0000006dH
  00492	61		 DB	 97			; 00000061H
  00493	74		 DB	 116			; 00000074H
  00494	52		 DB	 82			; 00000052H
  00495	33		 DB	 51			; 00000033H
  00496	00		 DB	 0
$L93895:
  00497	6d		 DB	 109			; 0000006dH
  00498	61		 DB	 97			; 00000061H
  00499	74		 DB	 116			; 00000074H
  0049a	52		 DB	 82			; 00000052H
  0049b	32		 DB	 50			; 00000032H
  0049c	00		 DB	 0
$L93894:
  0049d	6d		 DB	 109			; 0000006dH
  0049e	61		 DB	 97			; 00000061H
  0049f	74		 DB	 116			; 00000074H
  004a0	52		 DB	 82			; 00000052H
  004a1	31		 DB	 49			; 00000031H
  004a2	00		 DB	 0
?FrameMove@CInGameMenu@@QAEJPAUIDirect3DDevice8@@MPAVCScreenOverlayManager@@PAVCUserInput@@PAVCSoundManager@@@Z ENDP ; CInGameMenu::FrameMove
_TEXT	ENDS
EXTRN	??1CRace@@QAE@XZ:NEAR				; CRace::~CRace
; Function compile flags: /Odt /RTCsu /ZI
;	COMDAT ??_GCRace@@QAEPAXI@Z
_TEXT	SEGMENT
_this$ = -8
___flags$ = 8
??_GCRace@@QAEPAXI@Z PROC NEAR				; CRace::`scalar deleting destructor', COMDAT
; _this$ = ecx
  00000	55		 push	 ebp
  00001	8b ec		 mov	 ebp, esp
  00003	81 ec cc 00 00
	00		 sub	 esp, 204		; 000000ccH
  00009	53		 push	 ebx
  0000a	56		 push	 esi
  0000b	57		 push	 edi
  0000c	51		 push	 ecx
  0000d	8d bd 34 ff ff
	ff		 lea	 edi, DWORD PTR [ebp-204]
  00013	b9 33 00 00 00	 mov	 ecx, 51			; 00000033H
  00018	b8 cc cc cc cc	 mov	 eax, -858993460		; ccccccccH
  0001d	f3 ab		 rep stosd
  0001f	59		 pop	 ecx
  00020	89 4d f8	 mov	 DWORD PTR _this$[ebp], ecx
  00023	8b 4d f8	 mov	 ecx, DWORD PTR _this$[ebp]
  00026	e8 00 00 00 00	 call	 ??1CRace@@QAE@XZ	; CRace::~CRace
  0002b	8b 45 08	 mov	 eax, DWORD PTR ___flags$[ebp]
  0002e	83 e0 01	 and	 eax, 1
  00031	85 c0		 test	 eax, eax
  00033	74 0c		 je	 SHORT $L93777
  00035	8b 45 f8	 mov	 eax, DWORD PTR _this$[ebp]
  00038	50		 push	 eax
  00039	e8 00 00 00 00	 call	 ??3@YAXPAX@Z		; operator delete
  0003e	83 c4 04	 add	 esp, 4
$L93777:
  00041	8b 45 f8	 mov	 eax, DWORD PTR _this$[ebp]
  00044	5f		 pop	 edi
  00045	5e		 pop	 esi
  00046	5b		 pop	 ebx
  00047	81 c4 cc 00 00
	00		 add	 esp, 204		; 000000ccH
  0004d	3b ec		 cmp	 ebp, esp
  0004f	e8 00 00 00 00	 call	 __RTC_CheckEsp
  00054	8b e5		 mov	 esp, ebp
  00056	5d		 pop	 ebp
  00057	c2 04 00	 ret	 4
??_GCRace@@QAEPAXI@Z ENDP				; CRace::`scalar deleting destructor'
_TEXT	ENDS
EXTRN	??1CTextures@@QAE@XZ:NEAR			; CTextures::~CTextures
; Function compile flags: /Odt /RTCsu /ZI
;	COMDAT ??_GCTextures@@QAEPAXI@Z
_TEXT	SEGMENT
_this$ = -8
___flags$ = 8
??_GCTextures@@QAEPAXI@Z PROC NEAR			; CTextures::`scalar deleting destructor', COMDAT
; _this$ = ecx
  00000	55		 push	 ebp
  00001	8b ec		 mov	 ebp, esp
  00003	81 ec cc 00 00
	00		 sub	 esp, 204		; 000000ccH
  00009	53		 push	 ebx
  0000a	56		 push	 esi
  0000b	57		 push	 edi
  0000c	51		 push	 ecx
  0000d	8d bd 34 ff ff
	ff		 lea	 edi, DWORD PTR [ebp-204]
  00013	b9 33 00 00 00	 mov	 ecx, 51			; 00000033H
  00018	b8 cc cc cc cc	 mov	 eax, -858993460		; ccccccccH
  0001d	f3 ab		 rep stosd
  0001f	59		 pop	 ecx
  00020	89 4d f8	 mov	 DWORD PTR _this$[ebp], ecx
  00023	8b 4d f8	 mov	 ecx, DWORD PTR _this$[ebp]
  00026	e8 00 00 00 00	 call	 ??1CTextures@@QAE@XZ	; CTextures::~CTextures
  0002b	8b 45 08	 mov	 eax, DWORD PTR ___flags$[ebp]
  0002e	83 e0 01	 and	 eax, 1
  00031	85 c0		 test	 eax, eax
  00033	74 0c		 je	 SHORT $L93780
  00035	8b 45 f8	 mov	 eax, DWORD PTR _this$[ebp]
  00038	50		 push	 eax
  00039	e8 00 00 00 00	 call	 ??3@YAXPAX@Z		; operator delete
  0003e	83 c4 04	 add	 esp, 4
$L93780:
  00041	8b 45 f8	 mov	 eax, DWORD PTR _this$[ebp]
  00044	5f		 pop	 edi
  00045	5e		 pop	 esi
  00046	5b		 pop	 ebx
  00047	81 c4 cc 00 00
	00		 add	 esp, 204		; 000000ccH
  0004d	3b ec		 cmp	 ebp, esp
  0004f	e8 00 00 00 00	 call	 __RTC_CheckEsp
  00054	8b e5		 mov	 esp, ebp
  00056	5d		 pop	 ebp
  00057	c2 04 00	 ret	 4
??_GCTextures@@QAEPAXI@Z ENDP				; CTextures::`scalar deleting destructor'
_TEXT	ENDS
PUBLIC	??_GCMenuScrollingBackG@@QAEPAXI@Z		; CMenuScrollingBackG::`scalar deleting destructor'
PUBLIC	?InvalidateDeviceObjects@CInGameMenu@@QAEJXZ	; CInGameMenu::InvalidateDeviceObjects
PUBLIC	??_GCMenuItem@@QAEPAXI@Z			; CMenuItem::`scalar deleting destructor'
; Function compile flags: /Odt /RTCsu /ZI
;	COMDAT ?InvalidateDeviceObjects@CInGameMenu@@QAEJXZ
_TEXT	SEGMENT
tv87 = -268
tv71 = -268
$T93912 = -260
$T93911 = -248
$T93908 = -236
$T93907 = -224
_i$93787 = -20
_this$ = -8
?InvalidateDeviceObjects@CInGameMenu@@QAEJXZ PROC NEAR	; CInGameMenu::InvalidateDeviceObjects, COMDAT
; _this$ = ecx

; 181  : 	{

  00000	55		 push	 ebp
  00001	8b ec		 mov	 ebp, esp
  00003	81 ec 0c 01 00
	00		 sub	 esp, 268		; 0000010cH
  00009	53		 push	 ebx
  0000a	56		 push	 esi
  0000b	57		 push	 edi
  0000c	51		 push	 ecx
  0000d	8d bd f4 fe ff
	ff		 lea	 edi, DWORD PTR [ebp-268]
  00013	b9 43 00 00 00	 mov	 ecx, 67			; 00000043H
  00018	b8 cc cc cc cc	 mov	 eax, -858993460		; ccccccccH
  0001d	f3 ab		 rep stosd
  0001f	59		 pop	 ecx
  00020	89 4d f8	 mov	 DWORD PTR _this$[ebp], ecx

; 182  : 		SAFE_DELETE( m_pTitle )

  00023	8b 45 f8	 mov	 eax, DWORD PTR _this$[ebp]
  00026	83 78 10 00	 cmp	 DWORD PTR [eax+16], 0
  0002a	74 4a		 je	 SHORT $L93784
  0002c	8b 45 f8	 mov	 eax, DWORD PTR _this$[ebp]
  0002f	8b 48 10	 mov	 ecx, DWORD PTR [eax+16]
  00032	89 8d 14 ff ff
	ff		 mov	 DWORD PTR $T93908[ebp], ecx
  00038	8b 95 14 ff ff
	ff		 mov	 edx, DWORD PTR $T93908[ebp]
  0003e	89 95 20 ff ff
	ff		 mov	 DWORD PTR $T93907[ebp], edx
  00044	83 bd 20 ff ff
	ff 00		 cmp	 DWORD PTR $T93907[ebp], 0
  0004b	74 15		 je	 SHORT $L93909
  0004d	6a 01		 push	 1
  0004f	8b 8d 20 ff ff
	ff		 mov	 ecx, DWORD PTR $T93907[ebp]
  00055	e8 00 00 00 00	 call	 ??_GCMenuScrollingBackG@@QAEPAXI@Z
  0005a	89 85 f4 fe ff
	ff		 mov	 DWORD PTR tv71[ebp], eax
  00060	eb 0a		 jmp	 SHORT $L93910
$L93909:
  00062	c7 85 f4 fe ff
	ff 00 00 00 00	 mov	 DWORD PTR tv71[ebp], 0
$L93910:
  0006c	8b 45 f8	 mov	 eax, DWORD PTR _this$[ebp]
  0006f	c7 40 10 00 00
	00 00		 mov	 DWORD PTR [eax+16], 0
$L93784:

; 183  : 			
; 184  : 		for (int i = 0 ; i < m_nMenuItems ; i ++)

  00076	c7 45 ec 00 00
	00 00		 mov	 DWORD PTR _i$93787[ebp], 0
  0007d	eb 09		 jmp	 SHORT $L93788
$L93789:
  0007f	8b 45 ec	 mov	 eax, DWORD PTR _i$93787[ebp]
  00082	83 c0 01	 add	 eax, 1
  00085	89 45 ec	 mov	 DWORD PTR _i$93787[ebp], eax
$L93788:
  00088	8b 45 f8	 mov	 eax, DWORD PTR _this$[ebp]
  0008b	8b 4d ec	 mov	 ecx, DWORD PTR _i$93787[ebp]
  0008e	3b 48 0c	 cmp	 ecx, DWORD PTR [eax+12]
  00091	7d 67		 jge	 SHORT $L93790

; 185  : 			SAFE_DELETE( m_ppMenuItems[i] ) 

  00093	8b 45 f8	 mov	 eax, DWORD PTR _this$[ebp]
  00096	8b 48 08	 mov	 ecx, DWORD PTR [eax+8]
  00099	8b 55 ec	 mov	 edx, DWORD PTR _i$93787[ebp]
  0009c	83 3c 91 00	 cmp	 DWORD PTR [ecx+edx*4], 0
  000a0	74 56		 je	 SHORT $L93791
  000a2	8b 45 f8	 mov	 eax, DWORD PTR _this$[ebp]
  000a5	8b 48 08	 mov	 ecx, DWORD PTR [eax+8]
  000a8	8b 55 ec	 mov	 edx, DWORD PTR _i$93787[ebp]
  000ab	8b 04 91	 mov	 eax, DWORD PTR [ecx+edx*4]
  000ae	89 85 fc fe ff
	ff		 mov	 DWORD PTR $T93912[ebp], eax
  000b4	8b 8d fc fe ff
	ff		 mov	 ecx, DWORD PTR $T93912[ebp]
  000ba	89 8d 08 ff ff
	ff		 mov	 DWORD PTR $T93911[ebp], ecx
  000c0	83 bd 08 ff ff
	ff 00		 cmp	 DWORD PTR $T93911[ebp], 0
  000c7	74 15		 je	 SHORT $L93913
  000c9	6a 01		 push	 1
  000cb	8b 8d 08 ff ff
	ff		 mov	 ecx, DWORD PTR $T93911[ebp]
  000d1	e8 00 00 00 00	 call	 ??_GCMenuItem@@QAEPAXI@Z
  000d6	89 85 f4 fe ff
	ff		 mov	 DWORD PTR tv87[ebp], eax
  000dc	eb 0a		 jmp	 SHORT $L93914
$L93913:
  000de	c7 85 f4 fe ff
	ff 00 00 00 00	 mov	 DWORD PTR tv87[ebp], 0
$L93914:
  000e8	8b 45 f8	 mov	 eax, DWORD PTR _this$[ebp]
  000eb	8b 48 08	 mov	 ecx, DWORD PTR [eax+8]
  000ee	8b 55 ec	 mov	 edx, DWORD PTR _i$93787[ebp]
  000f1	c7 04 91 00 00
	00 00		 mov	 DWORD PTR [ecx+edx*4], 0
$L93791:
  000f8	eb 85		 jmp	 SHORT $L93789
$L93790:

; 186  : 		
; 187  : 		return S_OK ;

  000fa	33 c0		 xor	 eax, eax

; 188  : 	}

  000fc	5f		 pop	 edi
  000fd	5e		 pop	 esi
  000fe	5b		 pop	 ebx
  000ff	81 c4 0c 01 00
	00		 add	 esp, 268		; 0000010cH
  00105	3b ec		 cmp	 ebp, esp
  00107	e8 00 00 00 00	 call	 __RTC_CheckEsp
  0010c	8b e5		 mov	 esp, ebp
  0010e	5d		 pop	 ebp
  0010f	c3		 ret	 0
?InvalidateDeviceObjects@CInGameMenu@@QAEJXZ ENDP	; CInGameMenu::InvalidateDeviceObjects
_TEXT	ENDS
EXTRN	??1CMenuScrollingBackG@@QAE@XZ:NEAR		; CMenuScrollingBackG::~CMenuScrollingBackG
; Function compile flags: /Odt /RTCsu /ZI
;	COMDAT ??_GCMenuScrollingBackG@@QAEPAXI@Z
_TEXT	SEGMENT
_this$ = -8
___flags$ = 8
??_GCMenuScrollingBackG@@QAEPAXI@Z PROC NEAR		; CMenuScrollingBackG::`scalar deleting destructor', COMDAT
; _this$ = ecx
  00000	55		 push	 ebp
  00001	8b ec		 mov	 ebp, esp
  00003	81 ec cc 00 00
	00		 sub	 esp, 204		; 000000ccH
  00009	53		 push	 ebx
  0000a	56		 push	 esi
  0000b	57		 push	 edi
  0000c	51		 push	 ecx
  0000d	8d bd 34 ff ff
	ff		 lea	 edi, DWORD PTR [ebp-204]
  00013	b9 33 00 00 00	 mov	 ecx, 51			; 00000033H
  00018	b8 cc cc cc cc	 mov	 eax, -858993460		; ccccccccH
  0001d	f3 ab		 rep stosd
  0001f	59		 pop	 ecx
  00020	89 4d f8	 mov	 DWORD PTR _this$[ebp], ecx
  00023	8b 4d f8	 mov	 ecx, DWORD PTR _this$[ebp]
  00026	e8 00 00 00 00	 call	 ??1CMenuScrollingBackG@@QAE@XZ ; CMenuScrollingBackG::~CMenuScrollingBackG
  0002b	8b 45 08	 mov	 eax, DWORD PTR ___flags$[ebp]
  0002e	83 e0 01	 and	 eax, 1
  00031	85 c0		 test	 eax, eax
  00033	74 0c		 je	 SHORT $L93799
  00035	8b 45 f8	 mov	 eax, DWORD PTR _this$[ebp]
  00038	50		 push	 eax
  00039	e8 00 00 00 00	 call	 ??3@YAXPAX@Z		; operator delete
  0003e	83 c4 04	 add	 esp, 4
$L93799:
  00041	8b 45 f8	 mov	 eax, DWORD PTR _this$[ebp]
  00044	5f		 pop	 edi
  00045	5e		 pop	 esi
  00046	5b		 pop	 ebx
  00047	81 c4 cc 00 00
	00		 add	 esp, 204		; 000000ccH
  0004d	3b ec		 cmp	 ebp, esp
  0004f	e8 00 00 00 00	 call	 __RTC_CheckEsp
  00054	8b e5		 mov	 esp, ebp
  00056	5d		 pop	 ebp
  00057	c2 04 00	 ret	 4
??_GCMenuScrollingBackG@@QAEPAXI@Z ENDP			; CMenuScrollingBackG::`scalar deleting destructor'
_TEXT	ENDS
EXTRN	??1CMenuItem@@QAE@XZ:NEAR			; CMenuItem::~CMenuItem
; Function compile flags: /Odt /RTCsu /ZI
;	COMDAT ??_GCMenuItem@@QAEPAXI@Z
_TEXT	SEGMENT
_this$ = -8
___flags$ = 8
??_GCMenuItem@@QAEPAXI@Z PROC NEAR			; CMenuItem::`scalar deleting destructor', COMDAT
; _this$ = ecx
  00000	55		 push	 ebp
  00001	8b ec		 mov	 ebp, esp
  00003	81 ec cc 00 00
	00		 sub	 esp, 204		; 000000ccH
  00009	53		 push	 ebx
  0000a	56		 push	 esi
  0000b	57		 push	 edi
  0000c	51		 push	 ecx
  0000d	8d bd 34 ff ff
	ff		 lea	 edi, DWORD PTR [ebp-204]
  00013	b9 33 00 00 00	 mov	 ecx, 51			; 00000033H
  00018	b8 cc cc cc cc	 mov	 eax, -858993460		; ccccccccH
  0001d	f3 ab		 rep stosd
  0001f	59		 pop	 ecx
  00020	89 4d f8	 mov	 DWORD PTR _this$[ebp], ecx
  00023	8b 4d f8	 mov	 ecx, DWORD PTR _this$[ebp]
  00026	e8 00 00 00 00	 call	 ??1CMenuItem@@QAE@XZ	; CMenuItem::~CMenuItem
  0002b	8b 45 08	 mov	 eax, DWORD PTR ___flags$[ebp]
  0002e	83 e0 01	 and	 eax, 1
  00031	85 c0		 test	 eax, eax
  00033	74 0c		 je	 SHORT $L93802
  00035	8b 45 f8	 mov	 eax, DWORD PTR _this$[ebp]
  00038	50		 push	 eax
  00039	e8 00 00 00 00	 call	 ??3@YAXPAX@Z		; operator delete
  0003e	83 c4 04	 add	 esp, 4
$L93802:
  00041	8b 45 f8	 mov	 eax, DWORD PTR _this$[ebp]
  00044	5f		 pop	 edi
  00045	5e		 pop	 esi
  00046	5b		 pop	 ebx
  00047	81 c4 cc 00 00
	00		 add	 esp, 204		; 000000ccH
  0004d	3b ec		 cmp	 ebp, esp
  0004f	e8 00 00 00 00	 call	 __RTC_CheckEsp
  00054	8b e5		 mov	 esp, ebp
  00056	5d		 pop	 ebp
  00057	c2 04 00	 ret	 4
??_GCMenuItem@@QAEPAXI@Z ENDP				; CMenuItem::`scalar deleting destructor'
_TEXT	ENDS
EXTRN	__imp__EnableMenuItem@12:NEAR
; Function compile flags: /Odt /RTCsu /ZI
;	COMDAT ?SetViewMenuItems@CInGameMenu@@QAEHI@Z
_TEXT	SEGMENT
_this$ = -8
_s$ = 8
?SetViewMenuItems@CInGameMenu@@QAEHI@Z PROC NEAR	; CInGameMenu::SetViewMenuItems, COMDAT
; _this$ = ecx

; 191  : 	{

  00000	55		 push	 ebp
  00001	8b ec		 mov	 ebp, esp
  00003	81 ec cc 00 00
	00		 sub	 esp, 204		; 000000ccH
  00009	53		 push	 ebx
  0000a	56		 push	 esi
  0000b	57		 push	 edi
  0000c	51		 push	 ecx
  0000d	8d bd 34 ff ff
	ff		 lea	 edi, DWORD PTR [ebp-204]
  00013	b9 33 00 00 00	 mov	 ecx, 51			; 00000033H
  00018	b8 cc cc cc cc	 mov	 eax, -858993460		; ccccccccH
  0001d	f3 ab		 rep stosd
  0001f	59		 pop	 ecx
  00020	89 4d f8	 mov	 DWORD PTR _this$[ebp], ecx

; 192  : 		EnableMenuItem(m_pX7->m_hMenu, ID_VIEW_OBJECTS_SKYDOME, s) ;

  00023	8b f4		 mov	 esi, esp
  00025	8b 45 08	 mov	 eax, DWORD PTR _s$[ebp]
  00028	50		 push	 eax
  00029	68 4c 9c 00 00	 push	 40012			; 00009c4cH
  0002e	8b 4d f8	 mov	 ecx, DWORD PTR _this$[ebp]
  00031	8b 11		 mov	 edx, DWORD PTR [ecx]
  00033	8b 82 a8 a9 02
	00		 mov	 eax, DWORD PTR [edx+174504]
  00039	50		 push	 eax
  0003a	ff 15 00 00 00
	00		 call	 DWORD PTR __imp__EnableMenuItem@12
  00040	3b f4		 cmp	 esi, esp
  00042	e8 00 00 00 00	 call	 __RTC_CheckEsp

; 193  : 		EnableMenuItem(m_pX7->m_hMenu, ID_VIEW_OBJECTS_TERRAIN2, s) ;

  00047	8b f4		 mov	 esi, esp
  00049	8b 45 08	 mov	 eax, DWORD PTR _s$[ebp]
  0004c	50		 push	 eax
  0004d	68 56 9c 00 00	 push	 40022			; 00009c56H
  00052	8b 4d f8	 mov	 ecx, DWORD PTR _this$[ebp]
  00055	8b 11		 mov	 edx, DWORD PTR [ecx]
  00057	8b 82 a8 a9 02
	00		 mov	 eax, DWORD PTR [edx+174504]
  0005d	50		 push	 eax
  0005e	ff 15 00 00 00
	00		 call	 DWORD PTR __imp__EnableMenuItem@12
  00064	3b f4		 cmp	 esi, esp
  00066	e8 00 00 00 00	 call	 __RTC_CheckEsp

; 194  : 		EnableMenuItem(m_pX7->m_hMenu, ID_VIEW_OBJECTS_FLATGROUND, s) ;

  0006b	8b f4		 mov	 esi, esp
  0006d	8b 45 08	 mov	 eax, DWORD PTR _s$[ebp]
  00070	50		 push	 eax
  00071	68 57 9c 00 00	 push	 40023			; 00009c57H
  00076	8b 4d f8	 mov	 ecx, DWORD PTR _this$[ebp]
  00079	8b 11		 mov	 edx, DWORD PTR [ecx]
  0007b	8b 82 a8 a9 02
	00		 mov	 eax, DWORD PTR [edx+174504]
  00081	50		 push	 eax
  00082	ff 15 00 00 00
	00		 call	 DWORD PTR __imp__EnableMenuItem@12
  00088	3b f4		 cmp	 esi, esp
  0008a	e8 00 00 00 00	 call	 __RTC_CheckEsp

; 195  : 		EnableMenuItem(m_pX7->m_hMenu, ID_VIEW_OBJECTS_TRACK, s) ;

  0008f	8b f4		 mov	 esi, esp
  00091	8b 45 08	 mov	 eax, DWORD PTR _s$[ebp]
  00094	50		 push	 eax
  00095	68 4e 9c 00 00	 push	 40014			; 00009c4eH
  0009a	8b 4d f8	 mov	 ecx, DWORD PTR _this$[ebp]
  0009d	8b 11		 mov	 edx, DWORD PTR [ecx]
  0009f	8b 82 a8 a9 02
	00		 mov	 eax, DWORD PTR [edx+174504]
  000a5	50		 push	 eax
  000a6	ff 15 00 00 00
	00		 call	 DWORD PTR __imp__EnableMenuItem@12
  000ac	3b f4		 cmp	 esi, esp
  000ae	e8 00 00 00 00	 call	 __RTC_CheckEsp

; 196  : 		EnableMenuItem(m_pX7->m_hMenu, ID_VIEW_OBJECTS_FIGHTER, s) ;

  000b3	8b f4		 mov	 esi, esp
  000b5	8b 45 08	 mov	 eax, DWORD PTR _s$[ebp]
  000b8	50		 push	 eax
  000b9	68 4f 9c 00 00	 push	 40015			; 00009c4fH
  000be	8b 4d f8	 mov	 ecx, DWORD PTR _this$[ebp]
  000c1	8b 11		 mov	 edx, DWORD PTR [ecx]
  000c3	8b 82 a8 a9 02
	00		 mov	 eax, DWORD PTR [edx+174504]
  000c9	50		 push	 eax
  000ca	ff 15 00 00 00
	00		 call	 DWORD PTR __imp__EnableMenuItem@12
  000d0	3b f4		 cmp	 esi, esp
  000d2	e8 00 00 00 00	 call	 __RTC_CheckEsp

; 197  : 
; 198  : 		EnableMenuItem(m_pX7->m_hMenu, ID_VIEW_WIREFRAME, s) ;

  000d7	8b f4		 mov	 esi, esp
  000d9	8b 45 08	 mov	 eax, DWORD PTR _s$[ebp]
  000dc	50		 push	 eax
  000dd	68 50 9c 00 00	 push	 40016			; 00009c50H
  000e2	8b 4d f8	 mov	 ecx, DWORD PTR _this$[ebp]
  000e5	8b 11		 mov	 edx, DWORD PTR [ecx]
  000e7	8b 82 a8 a9 02
	00		 mov	 eax, DWORD PTR [edx+174504]
  000ed	50		 push	 eax
  000ee	ff 15 00 00 00
	00		 call	 DWORD PTR __imp__EnableMenuItem@12
  000f4	3b f4		 cmp	 esi, esp
  000f6	e8 00 00 00 00	 call	 __RTC_CheckEsp

; 199  : 
; 200  : 		EnableMenuItem(m_pX7->m_hMenu, ID_VIEW_CAMERA_FREE, s) ;

  000fb	8b f4		 mov	 esi, esp
  000fd	8b 45 08	 mov	 eax, DWORD PTR _s$[ebp]
  00100	50		 push	 eax
  00101	68 5c 9c 00 00	 push	 40028			; 00009c5cH
  00106	8b 4d f8	 mov	 ecx, DWORD PTR _this$[ebp]
  00109	8b 11		 mov	 edx, DWORD PTR [ecx]
  0010b	8b 82 a8 a9 02
	00		 mov	 eax, DWORD PTR [edx+174504]
  00111	50		 push	 eax
  00112	ff 15 00 00 00
	00		 call	 DWORD PTR __imp__EnableMenuItem@12
  00118	3b f4		 cmp	 esi, esp
  0011a	e8 00 00 00 00	 call	 __RTC_CheckEsp

; 201  : 		EnableMenuItem(m_pX7->m_hMenu, ID_VIEW_CAMERA_BEHINDFIXED1, s) ;

  0011f	8b f4		 mov	 esi, esp
  00121	8b 45 08	 mov	 eax, DWORD PTR _s$[ebp]
  00124	50		 push	 eax
  00125	68 61 9c 00 00	 push	 40033			; 00009c61H
  0012a	8b 4d f8	 mov	 ecx, DWORD PTR _this$[ebp]
  0012d	8b 11		 mov	 edx, DWORD PTR [ecx]
  0012f	8b 82 a8 a9 02
	00		 mov	 eax, DWORD PTR [edx+174504]
  00135	50		 push	 eax
  00136	ff 15 00 00 00
	00		 call	 DWORD PTR __imp__EnableMenuItem@12
  0013c	3b f4		 cmp	 esi, esp
  0013e	e8 00 00 00 00	 call	 __RTC_CheckEsp

; 202  : 		EnableMenuItem(m_pX7->m_hMenu, ID_VIEW_CAMERA_BEHINDFIXED2, s) ;

  00143	8b f4		 mov	 esi, esp
  00145	8b 45 08	 mov	 eax, DWORD PTR _s$[ebp]
  00148	50		 push	 eax
  00149	68 62 9c 00 00	 push	 40034			; 00009c62H
  0014e	8b 4d f8	 mov	 ecx, DWORD PTR _this$[ebp]
  00151	8b 11		 mov	 edx, DWORD PTR [ecx]
  00153	8b 82 a8 a9 02
	00		 mov	 eax, DWORD PTR [edx+174504]
  00159	50		 push	 eax
  0015a	ff 15 00 00 00
	00		 call	 DWORD PTR __imp__EnableMenuItem@12
  00160	3b f4		 cmp	 esi, esp
  00162	e8 00 00 00 00	 call	 __RTC_CheckEsp

; 203  : 		EnableMenuItem(m_pX7->m_hMenu, ID_VIEW_CAMERA_BEHINDFIXED3, s) ;

  00167	8b f4		 mov	 esi, esp
  00169	8b 45 08	 mov	 eax, DWORD PTR _s$[ebp]
  0016c	50		 push	 eax
  0016d	68 63 9c 00 00	 push	 40035			; 00009c63H
  00172	8b 4d f8	 mov	 ecx, DWORD PTR _this$[ebp]
  00175	8b 11		 mov	 edx, DWORD PTR [ecx]
  00177	8b 82 a8 a9 02
	00		 mov	 eax, DWORD PTR [edx+174504]
  0017d	50		 push	 eax
  0017e	ff 15 00 00 00
	00		 call	 DWORD PTR __imp__EnableMenuItem@12
  00184	3b f4		 cmp	 esi, esp
  00186	e8 00 00 00 00	 call	 __RTC_CheckEsp

; 204  : 		EnableMenuItem(m_pX7->m_hMenu, ID_VIEW_CAMERA_BEHINDVARIABLE1, s) ;

  0018b	8b f4		 mov	 esi, esp
  0018d	8b 45 08	 mov	 eax, DWORD PTR _s$[ebp]
  00190	50		 push	 eax
  00191	68 64 9c 00 00	 push	 40036			; 00009c64H
  00196	8b 4d f8	 mov	 ecx, DWORD PTR _this$[ebp]
  00199	8b 11		 mov	 edx, DWORD PTR [ecx]
  0019b	8b 82 a8 a9 02
	00		 mov	 eax, DWORD PTR [edx+174504]
  001a1	50		 push	 eax
  001a2	ff 15 00 00 00
	00		 call	 DWORD PTR __imp__EnableMenuItem@12
  001a8	3b f4		 cmp	 esi, esp
  001aa	e8 00 00 00 00	 call	 __RTC_CheckEsp

; 205  : 		EnableMenuItem(m_pX7->m_hMenu, ID_VIEW_CAMERA_BEHINDVARIABLE2, s) ;

  001af	8b f4		 mov	 esi, esp
  001b1	8b 45 08	 mov	 eax, DWORD PTR _s$[ebp]
  001b4	50		 push	 eax
  001b5	68 65 9c 00 00	 push	 40037			; 00009c65H
  001ba	8b 4d f8	 mov	 ecx, DWORD PTR _this$[ebp]
  001bd	8b 11		 mov	 edx, DWORD PTR [ecx]
  001bf	8b 82 a8 a9 02
	00		 mov	 eax, DWORD PTR [edx+174504]
  001c5	50		 push	 eax
  001c6	ff 15 00 00 00
	00		 call	 DWORD PTR __imp__EnableMenuItem@12
  001cc	3b f4		 cmp	 esi, esp
  001ce	e8 00 00 00 00	 call	 __RTC_CheckEsp

; 206  : 		EnableMenuItem(m_pX7->m_hMenu, ID_VIEW_CAMERA_BEHINDVARIABLE3, s) ;

  001d3	8b f4		 mov	 esi, esp
  001d5	8b 45 08	 mov	 eax, DWORD PTR _s$[ebp]
  001d8	50		 push	 eax
  001d9	68 66 9c 00 00	 push	 40038			; 00009c66H
  001de	8b 4d f8	 mov	 ecx, DWORD PTR _this$[ebp]
  001e1	8b 11		 mov	 edx, DWORD PTR [ecx]
  001e3	8b 82 a8 a9 02
	00		 mov	 eax, DWORD PTR [edx+174504]
  001e9	50		 push	 eax
  001ea	ff 15 00 00 00
	00		 call	 DWORD PTR __imp__EnableMenuItem@12
  001f0	3b f4		 cmp	 esi, esp
  001f2	e8 00 00 00 00	 call	 __RTC_CheckEsp

; 207  : 		EnableMenuItem(m_pX7->m_hMenu, ID_VIEW_CAMERA_COCKPITFIXED, s) ;

  001f7	8b f4		 mov	 esi, esp
  001f9	8b 45 08	 mov	 eax, DWORD PTR _s$[ebp]
  001fc	50		 push	 eax
  001fd	68 5a 9c 00 00	 push	 40026			; 00009c5aH
  00202	8b 4d f8	 mov	 ecx, DWORD PTR _this$[ebp]
  00205	8b 11		 mov	 edx, DWORD PTR [ecx]
  00207	8b 82 a8 a9 02
	00		 mov	 eax, DWORD PTR [edx+174504]
  0020d	50		 push	 eax
  0020e	ff 15 00 00 00
	00		 call	 DWORD PTR __imp__EnableMenuItem@12
  00214	3b f4		 cmp	 esi, esp
  00216	e8 00 00 00 00	 call	 __RTC_CheckEsp

; 208  : 		EnableMenuItem(m_pX7->m_hMenu, ID_VIEW_CAMERA_COCKPITROLL, s) ;

  0021b	8b f4		 mov	 esi, esp
  0021d	8b 45 08	 mov	 eax, DWORD PTR _s$[ebp]
  00220	50		 push	 eax
  00221	68 67 9c 00 00	 push	 40039			; 00009c67H
  00226	8b 4d f8	 mov	 ecx, DWORD PTR _this$[ebp]
  00229	8b 11		 mov	 edx, DWORD PTR [ecx]
  0022b	8b 82 a8 a9 02
	00		 mov	 eax, DWORD PTR [edx+174504]
  00231	50		 push	 eax
  00232	ff 15 00 00 00
	00		 call	 DWORD PTR __imp__EnableMenuItem@12
  00238	3b f4		 cmp	 esi, esp
  0023a	e8 00 00 00 00	 call	 __RTC_CheckEsp

; 209  : 		EnableMenuItem(m_pX7->m_hMenu, ID_VIEW_CAMERA_SHOWOFF, s) ;

  0023f	8b f4		 mov	 esi, esp
  00241	8b 45 08	 mov	 eax, DWORD PTR _s$[ebp]
  00244	50		 push	 eax
  00245	68 5d 9c 00 00	 push	 40029			; 00009c5dH
  0024a	8b 4d f8	 mov	 ecx, DWORD PTR _this$[ebp]
  0024d	8b 11		 mov	 edx, DWORD PTR [ecx]
  0024f	8b 82 a8 a9 02
	00		 mov	 eax, DWORD PTR [edx+174504]
  00255	50		 push	 eax
  00256	ff 15 00 00 00
	00		 call	 DWORD PTR __imp__EnableMenuItem@12
  0025c	3b f4		 cmp	 esi, esp
  0025e	e8 00 00 00 00	 call	 __RTC_CheckEsp

; 210  : 
; 211  : 		EnableMenuItem(m_pX7->m_hMenu, ID_VIEW_FIGHTER_NORMAL, s) ;

  00263	8b f4		 mov	 esi, esp
  00265	8b 45 08	 mov	 eax, DWORD PTR _s$[ebp]
  00268	50		 push	 eax
  00269	68 5e 9c 00 00	 push	 40030			; 00009c5eH
  0026e	8b 4d f8	 mov	 ecx, DWORD PTR _this$[ebp]
  00271	8b 11		 mov	 edx, DWORD PTR [ecx]
  00273	8b 82 a8 a9 02
	00		 mov	 eax, DWORD PTR [edx+174504]
  00279	50		 push	 eax
  0027a	ff 15 00 00 00
	00		 call	 DWORD PTR __imp__EnableMenuItem@12
  00280	3b f4		 cmp	 esi, esp
  00282	e8 00 00 00 00	 call	 __RTC_CheckEsp

; 212  : 		EnableMenuItem(m_pX7->m_hMenu, ID_VIEW_FIGHTER_CHROME, s) ;

  00287	8b f4		 mov	 esi, esp
  00289	8b 45 08	 mov	 eax, DWORD PTR _s$[ebp]
  0028c	50		 push	 eax
  0028d	68 5f 9c 00 00	 push	 40031			; 00009c5fH
  00292	8b 4d f8	 mov	 ecx, DWORD PTR _this$[ebp]
  00295	8b 11		 mov	 edx, DWORD PTR [ecx]
  00297	8b 82 a8 a9 02
	00		 mov	 eax, DWORD PTR [edx+174504]
  0029d	50		 push	 eax
  0029e	ff 15 00 00 00
	00		 call	 DWORD PTR __imp__EnableMenuItem@12
  002a4	3b f4		 cmp	 esi, esp
  002a6	e8 00 00 00 00	 call	 __RTC_CheckEsp

; 213  : 		EnableMenuItem(m_pX7->m_hMenu, ID_VIEW_FIGHTER_GLASS, s) ;

  002ab	8b f4		 mov	 esi, esp
  002ad	8b 45 08	 mov	 eax, DWORD PTR _s$[ebp]
  002b0	50		 push	 eax
  002b1	68 60 9c 00 00	 push	 40032			; 00009c60H
  002b6	8b 4d f8	 mov	 ecx, DWORD PTR _this$[ebp]
  002b9	8b 11		 mov	 edx, DWORD PTR [ecx]
  002bb	8b 82 a8 a9 02
	00		 mov	 eax, DWORD PTR [edx+174504]
  002c1	50		 push	 eax
  002c2	ff 15 00 00 00
	00		 call	 DWORD PTR __imp__EnableMenuItem@12
  002c8	3b f4		 cmp	 esi, esp
  002ca	e8 00 00 00 00	 call	 __RTC_CheckEsp

; 214  : 	}

  002cf	5f		 pop	 edi
  002d0	5e		 pop	 esi
  002d1	5b		 pop	 ebx
  002d2	81 c4 cc 00 00
	00		 add	 esp, 204		; 000000ccH
  002d8	3b ec		 cmp	 ebp, esp
  002da	e8 00 00 00 00	 call	 __RTC_CheckEsp
  002df	8b e5		 mov	 esp, ebp
  002e1	5d		 pop	 ebp
  002e2	c2 04 00	 ret	 4
?SetViewMenuItems@CInGameMenu@@QAEHI@Z ENDP		; CInGameMenu::SetViewMenuItems
; Function compile flags: /Odt /RTCsu /ZI
; File c:\dxsdk\include\d3dx8math.h
_TEXT	ENDS
;	COMDAT ??0D3DXMATRIX@@QAE@XZ
_TEXT	SEGMENT
_this$ = -8
??0D3DXMATRIX@@QAE@XZ PROC NEAR				; D3DXMATRIX::D3DXMATRIX, COMDAT
; _this$ = ecx

; 177  :     D3DXMATRIX() {};

  00000	55		 push	 ebp
  00001	8b ec		 mov	 ebp, esp
  00003	81 ec cc 00 00
	00		 sub	 esp, 204		; 000000ccH
  00009	53		 push	 ebx
  0000a	56		 push	 esi
  0000b	57		 push	 edi
  0000c	51		 push	 ecx
  0000d	8d bd 34 ff ff
	ff		 lea	 edi, DWORD PTR [ebp-204]
  00013	b9 33 00 00 00	 mov	 ecx, 51			; 00000033H
  00018	b8 cc cc cc cc	 mov	 eax, -858993460		; ccccccccH
  0001d	f3 ab		 rep stosd
  0001f	59		 pop	 ecx
  00020	89 4d f8	 mov	 DWORD PTR _this$[ebp], ecx
  00023	8b 45 f8	 mov	 eax, DWORD PTR _this$[ebp]
  00026	5f		 pop	 edi
  00027	5e		 pop	 esi
  00028	5b		 pop	 ebx
  00029	8b e5		 mov	 esp, ebp
  0002b	5d		 pop	 ebp
  0002c	c3		 ret	 0
??0D3DXMATRIX@@QAE@XZ ENDP				; D3DXMATRIX::D3DXMATRIX
_TEXT	ENDS
END
