; Listing generated by Microsoft (R) Optimizing Compiler Version 13.00.9466 

	TITLE	CMainMenu.cpp
	.386P
include listing.inc
if @Version gt 510
.model FLAT
else
_TEXT	SEGMENT PARA USE32 PUBLIC 'CODE'
_TEXT	ENDS
_DATA	SEGMENT DWORD USE32 PUBLIC 'DATA'
_DATA	ENDS
CONST	SEGMENT DWORD USE32 PUBLIC 'CONST'
CONST	ENDS
_BSS	SEGMENT DWORD USE32 PUBLIC 'BSS'
_BSS	ENDS
$$SYMBOLS	SEGMENT BYTE USE32 'DEBSYM'
$$SYMBOLS	ENDS
$$TYPES	SEGMENT BYTE USE32 'DEBTYP'
$$TYPES	ENDS
_TLS	SEGMENT DWORD USE32 PUBLIC 'TLS'
_TLS	ENDS
;	COMDAT ??_C@_0CB@JIFLGBFL@CMainMenu?3?3RestoreDeviceObjects?6@
CONST	SEGMENT DWORD USE32 PUBLIC 'CONST'
CONST	ENDS
;	COMDAT _IsEqualGUID
_TEXT	SEGMENT PARA USE32 PUBLIC 'CODE'
_TEXT	ENDS
;	COMDAT _==
_TEXT	SEGMENT PARA USE32 PUBLIC 'CODE'
_TEXT	ENDS
;	COMDAT _sqrtf
_TEXT	SEGMENT PARA USE32 PUBLIC 'CODE'
_TEXT	ENDS
;	COMDAT ??0D3DXVECTOR3@@QAE@XZ
_TEXT	SEGMENT PARA USE32 PUBLIC 'CODE'
_TEXT	ENDS
;	COMDAT ??0D3DXMATRIX@@QAE@XZ
_TEXT	SEGMENT PARA USE32 PUBLIC 'CODE'
_TEXT	ENDS
;	COMDAT ??0D3DXQUATERNION@@QAE@XZ
_TEXT	SEGMENT PARA USE32 PUBLIC 'CODE'
_TEXT	ENDS
;	COMDAT ??0D3DXVECTOR2@@QAE@MM@Z
_TEXT	SEGMENT PARA USE32 PUBLIC 'CODE'
_TEXT	ENDS
;	COMDAT ??0D3DXVECTOR3@@QAE@MMM@Z
_TEXT	SEGMENT PARA USE32 PUBLIC 'CODE'
_TEXT	ENDS
;	COMDAT ??0D3DXVECTOR4@@QAE@MMMM@Z
_TEXT	SEGMENT PARA USE32 PUBLIC 'CODE'
_TEXT	ENDS
;	COMDAT ??0D3DXMATRIX@@QAE@PBM@Z
_TEXT	SEGMENT PARA USE32 PUBLIC 'CODE'
_TEXT	ENDS
;	COMDAT ??0D3DXMATRIX@@QAE@ABU_D3DMATRIX@@@Z
_TEXT	SEGMENT PARA USE32 PUBLIC 'CODE'
_TEXT	ENDS
;	COMDAT ??0D3DXMATRIX@@QAE@MMMMMMMMMMMMMMMM@Z
_TEXT	SEGMENT PARA USE32 PUBLIC 'CODE'
_TEXT	ENDS
;	COMDAT ??0D3DXQUATERNION@@QAE@MMMM@Z
_TEXT	SEGMENT PARA USE32 PUBLIC 'CODE'
_TEXT	ENDS
;	COMDAT ??0D3DXPLANE@@QAE@MMMM@Z
_TEXT	SEGMENT PARA USE32 PUBLIC 'CODE'
_TEXT	ENDS
;	COMDAT ??0D3DXCOLOR@@QAE@MMMM@Z
_TEXT	SEGMENT PARA USE32 PUBLIC 'CODE'
_TEXT	ENDS
;	COMDAT ??0CMainMenu@@QAE@PAVCx7@@@Z
_TEXT	SEGMENT PARA USE32 PUBLIC 'CODE'
_TEXT	ENDS
;	COMDAT ??1CMainMenu@@QAE@XZ
_TEXT	SEGMENT PARA USE32 PUBLIC 'CODE'
_TEXT	ENDS
;	COMDAT ?EnterMenu@CMainMenu@@QAEHXZ
_TEXT	SEGMENT PARA USE32 PUBLIC 'CODE'
_TEXT	ENDS
;	COMDAT ?ExitMenu@CMainMenu@@QAEHXZ
_TEXT	SEGMENT PARA USE32 PUBLIC 'CODE'
_TEXT	ENDS
;	COMDAT ?Render@CMainMenu@@QAEJPAUIDirect3DDevice8@@PAVCScreenOverlayManager@@@Z
_TEXT	SEGMENT PARA USE32 PUBLIC 'CODE'
_TEXT	ENDS
;	COMDAT ?RestoreDeviceObjects@CMainMenu@@QAEJPAUIDirect3DDevice8@@MPAVCScreenOverlayManager@@PAVCMenuTextures@@@Z
_TEXT	SEGMENT PARA USE32 PUBLIC 'CODE'
_TEXT	ENDS
;	COMDAT ?FrameMove@CMainMenu@@QAEJPAUIDirect3DDevice8@@MPAVCScreenOverlayManager@@PAVCUserInput@@PAVCSoundManager@@MH@Z
_TEXT	SEGMENT PARA USE32 PUBLIC 'CODE'
_TEXT	ENDS
;	COMDAT ?InvalidateDeviceObjects@CMainMenu@@QAEJXZ
_TEXT	SEGMENT PARA USE32 PUBLIC 'CODE'
_TEXT	ENDS
;	COMDAT ??_GCMenuScrollingBackG@@QAEPAXI@Z
_TEXT	SEGMENT PARA USE32 PUBLIC 'CODE'
_TEXT	ENDS
;	COMDAT ??_GCScreenOverlay@@QAEPAXI@Z
_TEXT	SEGMENT PARA USE32 PUBLIC 'CODE'
_TEXT	ENDS
;	COMDAT ??_GCMenuItem@@QAEPAXI@Z
_TEXT	SEGMENT PARA USE32 PUBLIC 'CODE'
_TEXT	ENDS
;	COMDAT ?SetViewMenuItems@CMainMenu@@QAEHI@Z
_TEXT	SEGMENT PARA USE32 PUBLIC 'CODE'
_TEXT	ENDS
FLAT	GROUP _DATA, CONST, _BSS
	ASSUME	CS: FLAT, DS: FLAT, SS: FLAT
endif

INCLUDELIB LIBCMTD
INCLUDELIB OLDNAMES

_BSS	SEGMENT
?fRot1@?1??FrameMove@CMainMenu@@QAEJPAUIDirect3DDevice8@@MPAVCScreenOverlayManager@@PAVCUserInput@@PAVCSoundManager@@MH@Z@4MA DD 01H DUP (?) ; `CMainMenu::FrameMove'::`2'::fRot1
?fRot2@?1??FrameMove@CMainMenu@@QAEJPAUIDirect3DDevice8@@MPAVCScreenOverlayManager@@PAVCUserInput@@PAVCSoundManager@@MH@Z@4MA DD 01H DUP (?) ; `CMainMenu::FrameMove'::`2'::fRot2
?fRot3@?1??FrameMove@CMainMenu@@QAEJPAUIDirect3DDevice8@@MPAVCScreenOverlayManager@@PAVCUserInput@@PAVCSoundManager@@MH@Z@4MA DD 01H DUP (?) ; `CMainMenu::FrameMove'::`2'::fRot3
_BSS	ENDS
CONST	SEGMENT
_g_PI	DD	040490fdbr			; 3.14159
CONST	ENDS
PUBLIC	??0CMainMenu@@QAE@PAVCx7@@@Z			; CMainMenu::CMainMenu
EXTRN	??2@YAPAXI@Z:NEAR				; operator new
EXTRN	__RTC_InitBase:NEAR
EXTRN	__RTC_Shutdown:NEAR
EXTRN	__RTC_CheckEsp:NEAR
EXTRN	__fltused:NEAR
;	COMDAT rtc$IMZ
; File c:\documents and settings\dom\my documents\_dev\ae\xlr8a\x7g\cmainmenu.cpp
rtc$IMZ	SEGMENT
__RTC_InitBase.rtc$IMZ DD FLAT:__RTC_InitBase
rtc$IMZ	ENDS
;	COMDAT rtc$TMZ
rtc$TMZ	SEGMENT
__RTC_Shutdown.rtc$TMZ DD FLAT:__RTC_Shutdown
; Function compile flags: /Odt /RTCsu /ZI
rtc$TMZ	ENDS
;	COMDAT ??0CMainMenu@@QAE@PAVCx7@@@Z
_TEXT	SEGMENT
$T93851 = -224
_i$93673 = -20
_this$ = -8
_pX7$ = 8
??0CMainMenu@@QAE@PAVCx7@@@Z PROC NEAR			; CMainMenu::CMainMenu, COMDAT
; _this$ = ecx

; 9    : {

  00000	55		 push	 ebp
  00001	8b ec		 mov	 ebp, esp
  00003	81 ec e4 00 00
	00		 sub	 esp, 228		; 000000e4H
  00009	53		 push	 ebx
  0000a	56		 push	 esi
  0000b	57		 push	 edi
  0000c	51		 push	 ecx
  0000d	8d bd 1c ff ff
	ff		 lea	 edi, DWORD PTR [ebp-228]
  00013	b9 39 00 00 00	 mov	 ecx, 57			; 00000039H
  00018	b8 cc cc cc cc	 mov	 eax, -858993460		; ccccccccH
  0001d	f3 ab		 rep stosd
  0001f	59		 pop	 ecx
  00020	89 4d f8	 mov	 DWORD PTR _this$[ebp], ecx

; 10   : 	m_pX7 = pX7 ;

  00023	8b 45 f8	 mov	 eax, DWORD PTR _this$[ebp]
  00026	8b 4d 08	 mov	 ecx, DWORD PTR _pX7$[ebp]
  00029	89 08		 mov	 DWORD PTR [eax], ecx

; 11   : 	m_pBackG1 = NULL ;

  0002b	8b 45 f8	 mov	 eax, DWORD PTR _this$[ebp]
  0002e	c7 40 10 00 00
	00 00		 mov	 DWORD PTR [eax+16], 0

; 12   : 	m_pBackG2 = NULL ;

  00035	8b 45 f8	 mov	 eax, DWORD PTR _this$[ebp]
  00038	c7 40 14 00 00
	00 00		 mov	 DWORD PTR [eax+20], 0

; 13   : 	m_pTitle = NULL ;

  0003f	8b 45 f8	 mov	 eax, DWORD PTR _this$[ebp]
  00042	c7 40 18 00 00
	00 00		 mov	 DWORD PTR [eax+24], 0

; 14   : 	
; 15   : 	m_nMenuItems = 3 ;

  00049	8b 45 f8	 mov	 eax, DWORD PTR _this$[ebp]
  0004c	c7 40 0c 03 00
	00 00		 mov	 DWORD PTR [eax+12], 3

; 16   : 	m_ppMenuItems = new CMenuItem*[ m_nMenuItems ];

  00053	8b 45 f8	 mov	 eax, DWORD PTR _this$[ebp]
  00056	8b 48 0c	 mov	 ecx, DWORD PTR [eax+12]
  00059	c1 e1 02	 shl	 ecx, 2
  0005c	51		 push	 ecx
  0005d	e8 00 00 00 00	 call	 ??2@YAPAXI@Z		; operator new
  00062	83 c4 04	 add	 esp, 4
  00065	89 85 20 ff ff
	ff		 mov	 DWORD PTR $T93851[ebp], eax
  0006b	8b 55 f8	 mov	 edx, DWORD PTR _this$[ebp]
  0006e	8b 85 20 ff ff
	ff		 mov	 eax, DWORD PTR $T93851[ebp]
  00074	89 42 08	 mov	 DWORD PTR [edx+8], eax

; 17   : 
; 18   : 	for (int i = 0 ; i < m_nMenuItems ; i ++)

  00077	c7 45 ec 00 00
	00 00		 mov	 DWORD PTR _i$93673[ebp], 0
  0007e	eb 09		 jmp	 SHORT $L93674
$L93675:
  00080	8b 45 ec	 mov	 eax, DWORD PTR _i$93673[ebp]
  00083	83 c0 01	 add	 eax, 1
  00086	89 45 ec	 mov	 DWORD PTR _i$93673[ebp], eax
$L93674:
  00089	8b 45 f8	 mov	 eax, DWORD PTR _this$[ebp]
  0008c	8b 4d ec	 mov	 ecx, DWORD PTR _i$93673[ebp]
  0008f	3b 48 0c	 cmp	 ecx, DWORD PTR [eax+12]
  00092	7d 12		 jge	 SHORT $L93676

; 19   : 		m_ppMenuItems[i] = NULL ;

  00094	8b 45 f8	 mov	 eax, DWORD PTR _this$[ebp]
  00097	8b 48 08	 mov	 ecx, DWORD PTR [eax+8]
  0009a	8b 55 ec	 mov	 edx, DWORD PTR _i$93673[ebp]
  0009d	c7 04 91 00 00
	00 00		 mov	 DWORD PTR [ecx+edx*4], 0
  000a4	eb da		 jmp	 SHORT $L93675
$L93676:

; 20   : 	m_ndxMenuSelected = 0 ;

  000a6	8b 45 f8	 mov	 eax, DWORD PTR _this$[ebp]
  000a9	c7 40 1c 00 00
	00 00		 mov	 DWORD PTR [eax+28], 0

; 21   : 
; 22   : 	m_fMouseYMovement = 0.0f ;

  000b0	8b 45 f8	 mov	 eax, DWORD PTR _this$[ebp]
  000b3	c7 40 20 00 00
	00 00		 mov	 DWORD PTR [eax+32], 0

; 23   : 
; 24   : 	m_bActive = FALSE ;

  000ba	8b 45 f8	 mov	 eax, DWORD PTR _this$[ebp]
  000bd	c7 40 04 00 00
	00 00		 mov	 DWORD PTR [eax+4], 0

; 25   : 	
; 26   : 	m_msState = MS_IDLE ;

  000c4	8b 45 f8	 mov	 eax, DWORD PTR _this$[ebp]
  000c7	c7 40 24 01 00
	00 00		 mov	 DWORD PTR [eax+36], 1

; 27   : 	m_ndxSelected = 0 ;

  000ce	8b 45 f8	 mov	 eax, DWORD PTR _this$[ebp]
  000d1	c7 40 28 00 00
	00 00		 mov	 DWORD PTR [eax+40], 0

; 28   : }

  000d8	8b 45 f8	 mov	 eax, DWORD PTR _this$[ebp]
  000db	5f		 pop	 edi
  000dc	5e		 pop	 esi
  000dd	5b		 pop	 ebx
  000de	81 c4 e4 00 00
	00		 add	 esp, 228		; 000000e4H
  000e4	3b ec		 cmp	 ebp, esp
  000e6	e8 00 00 00 00	 call	 __RTC_CheckEsp
  000eb	8b e5		 mov	 esp, ebp
  000ed	5d		 pop	 ebp
  000ee	c2 04 00	 ret	 4
??0CMainMenu@@QAE@PAVCx7@@@Z ENDP			; CMainMenu::CMainMenu
_TEXT	ENDS
PUBLIC	??1CMainMenu@@QAE@XZ				; CMainMenu::~CMainMenu
EXTRN	??3@YAXPAX@Z:NEAR				; operator delete
; Function compile flags: /Odt /RTCsu /ZI
;	COMDAT ??1CMainMenu@@QAE@XZ
_TEXT	SEGMENT
$T93864 = -212
_this$ = -8
??1CMainMenu@@QAE@XZ PROC NEAR				; CMainMenu::~CMainMenu, COMDAT
; _this$ = ecx

; 31   : {

  00000	55		 push	 ebp
  00001	8b ec		 mov	 ebp, esp
  00003	81 ec d8 00 00
	00		 sub	 esp, 216		; 000000d8H
  00009	53		 push	 ebx
  0000a	56		 push	 esi
  0000b	57		 push	 edi
  0000c	51		 push	 ecx
  0000d	8d bd 28 ff ff
	ff		 lea	 edi, DWORD PTR [ebp-216]
  00013	b9 36 00 00 00	 mov	 ecx, 54			; 00000036H
  00018	b8 cc cc cc cc	 mov	 eax, -858993460		; ccccccccH
  0001d	f3 ab		 rep stosd
  0001f	59		 pop	 ecx
  00020	89 4d f8	 mov	 DWORD PTR _this$[ebp], ecx

; 32   : 	SAFE_DELETE_ARRAY( m_ppMenuItems )

  00023	8b 45 f8	 mov	 eax, DWORD PTR _this$[ebp]
  00026	83 78 08 00	 cmp	 DWORD PTR [eax+8], 0
  0002a	74 25		 je	 SHORT $L93679
  0002c	8b 45 f8	 mov	 eax, DWORD PTR _this$[ebp]
  0002f	8b 48 08	 mov	 ecx, DWORD PTR [eax+8]
  00032	89 8d 2c ff ff
	ff		 mov	 DWORD PTR $T93864[ebp], ecx
  00038	8b 95 2c ff ff
	ff		 mov	 edx, DWORD PTR $T93864[ebp]
  0003e	52		 push	 edx
  0003f	e8 00 00 00 00	 call	 ??3@YAXPAX@Z		; operator delete
  00044	83 c4 04	 add	 esp, 4
  00047	8b 45 f8	 mov	 eax, DWORD PTR _this$[ebp]
  0004a	c7 40 08 00 00
	00 00		 mov	 DWORD PTR [eax+8], 0
$L93679:

; 33   : }

  00051	5f		 pop	 edi
  00052	5e		 pop	 esi
  00053	5b		 pop	 ebx
  00054	81 c4 d8 00 00
	00		 add	 esp, 216		; 000000d8H
  0005a	3b ec		 cmp	 ebp, esp
  0005c	e8 00 00 00 00	 call	 __RTC_CheckEsp
  00061	8b e5		 mov	 esp, ebp
  00063	5d		 pop	 ebp
  00064	c3		 ret	 0
??1CMainMenu@@QAE@XZ ENDP				; CMainMenu::~CMainMenu
_TEXT	ENDS
PUBLIC	?EnterMenu@CMainMenu@@QAEHXZ			; CMainMenu::EnterMenu
PUBLIC	?SetViewMenuItems@CMainMenu@@QAEHI@Z		; CMainMenu::SetViewMenuItems
EXTRN	?g_matIdent@@3UD3DXMATRIX@@A:BYTE		; g_matIdent
; Function compile flags: /Odt /RTCsu /ZI
;	COMDAT ?EnterMenu@CMainMenu@@QAEHXZ
_TEXT	SEGMENT
_i$93685 = -20
_this$ = -8
?EnterMenu@CMainMenu@@QAEHXZ PROC NEAR			; CMainMenu::EnterMenu, COMDAT
; _this$ = ecx

; 36   : {

  00000	55		 push	 ebp
  00001	8b ec		 mov	 ebp, esp
  00003	81 ec d8 00 00
	00		 sub	 esp, 216		; 000000d8H
  00009	53		 push	 ebx
  0000a	56		 push	 esi
  0000b	57		 push	 edi
  0000c	51		 push	 ecx
  0000d	8d bd 28 ff ff
	ff		 lea	 edi, DWORD PTR [ebp-216]
  00013	b9 36 00 00 00	 mov	 ecx, 54			; 00000036H
  00018	b8 cc cc cc cc	 mov	 eax, -858993460		; ccccccccH
  0001d	f3 ab		 rep stosd
  0001f	59		 pop	 ecx
  00020	89 4d f8	 mov	 DWORD PTR _this$[ebp], ecx

; 37   : 	SetViewMenuItems(MF_GRAYED) ;

  00023	6a 01		 push	 1
  00025	8b 4d f8	 mov	 ecx, DWORD PTR _this$[ebp]
  00028	e8 00 00 00 00	 call	 ?SetViewMenuItems@CMainMenu@@QAEHI@Z ; CMainMenu::SetViewMenuItems

; 38   : 	m_msState = MS_IDLE ;

  0002d	8b 45 f8	 mov	 eax, DWORD PTR _this$[ebp]
  00030	c7 40 24 01 00
	00 00		 mov	 DWORD PTR [eax+36], 1

; 39   : 	m_ndxSelected = 0 ;

  00037	8b 45 f8	 mov	 eax, DWORD PTR _this$[ebp]
  0003a	c7 40 28 00 00
	00 00		 mov	 DWORD PTR [eax+40], 0

; 40   : 	m_bActive = TRUE ;

  00041	8b 45 f8	 mov	 eax, DWORD PTR _this$[ebp]
  00044	c7 40 04 01 00
	00 00		 mov	 DWORD PTR [eax+4], 1

; 41   : 
; 42   : 	m_pBackG1->m_bActive = TRUE ;

  0004b	8b 45 f8	 mov	 eax, DWORD PTR _this$[ebp]
  0004e	8b 48 10	 mov	 ecx, DWORD PTR [eax+16]
  00051	c7 81 84 00 00
	00 01 00 00 00	 mov	 DWORD PTR [ecx+132], 1

; 43   : 	m_pBackG1->m_bFrameMoveRequired = TRUE ;

  0005b	8b 45 f8	 mov	 eax, DWORD PTR _this$[ebp]
  0005e	8b 48 10	 mov	 ecx, DWORD PTR [eax+16]
  00061	c7 81 d0 00 00
	00 01 00 00 00	 mov	 DWORD PTR [ecx+208], 1

; 44   : 	m_pBackG1->m_matWorld = g_matIdent ;

  0006b	8b 45 f8	 mov	 eax, DWORD PTR _this$[ebp]
  0006e	8b 78 10	 mov	 edi, DWORD PTR [eax+16]
  00071	81 c7 88 00 00
	00		 add	 edi, 136		; 00000088H
  00077	b9 10 00 00 00	 mov	 ecx, 16			; 00000010H
  0007c	be 00 00 00 00	 mov	 esi, OFFSET FLAT:?g_matIdent@@3UD3DXMATRIX@@A ; g_matIdent
  00081	f3 a5		 rep movsd

; 45   : 
; 46   : 	m_pBackG2->m_bActive = TRUE ;

  00083	8b 45 f8	 mov	 eax, DWORD PTR _this$[ebp]
  00086	8b 48 14	 mov	 ecx, DWORD PTR [eax+20]
  00089	c7 81 84 00 00
	00 01 00 00 00	 mov	 DWORD PTR [ecx+132], 1

; 47   : 	m_pBackG2->m_bFrameMoveRequired = TRUE ;

  00093	8b 45 f8	 mov	 eax, DWORD PTR _this$[ebp]
  00096	8b 48 14	 mov	 ecx, DWORD PTR [eax+20]
  00099	c7 81 d0 00 00
	00 01 00 00 00	 mov	 DWORD PTR [ecx+208], 1

; 48   : 	m_pBackG2->m_matWorld = g_matIdent ;

  000a3	8b 45 f8	 mov	 eax, DWORD PTR _this$[ebp]
  000a6	8b 78 14	 mov	 edi, DWORD PTR [eax+20]
  000a9	81 c7 88 00 00
	00		 add	 edi, 136		; 00000088H
  000af	b9 10 00 00 00	 mov	 ecx, 16			; 00000010H
  000b4	be 00 00 00 00	 mov	 esi, OFFSET FLAT:?g_matIdent@@3UD3DXMATRIX@@A ; g_matIdent
  000b9	f3 a5		 rep movsd

; 49   : 
; 50   : 	m_pTitle->m_bActive = TRUE ;

  000bb	8b 45 f8	 mov	 eax, DWORD PTR _this$[ebp]
  000be	8b 48 18	 mov	 ecx, DWORD PTR [eax+24]
  000c1	c7 81 84 00 00
	00 01 00 00 00	 mov	 DWORD PTR [ecx+132], 1

; 51   : 	m_pTitle->m_bFrameMoveRequired = TRUE ;

  000cb	8b 45 f8	 mov	 eax, DWORD PTR _this$[ebp]
  000ce	8b 48 18	 mov	 ecx, DWORD PTR [eax+24]
  000d1	c7 81 d0 00 00
	00 01 00 00 00	 mov	 DWORD PTR [ecx+208], 1

; 52   : 	m_pTitle->m_matWorld = g_matIdent ;

  000db	8b 45 f8	 mov	 eax, DWORD PTR _this$[ebp]
  000de	8b 78 18	 mov	 edi, DWORD PTR [eax+24]
  000e1	81 c7 88 00 00
	00		 add	 edi, 136		; 00000088H
  000e7	b9 10 00 00 00	 mov	 ecx, 16			; 00000010H
  000ec	be 00 00 00 00	 mov	 esi, OFFSET FLAT:?g_matIdent@@3UD3DXMATRIX@@A ; g_matIdent
  000f1	f3 a5		 rep movsd

; 53   : 
; 54   : 	for (int i = 0 ; i < m_nMenuItems ; i ++)

  000f3	c7 45 ec 00 00
	00 00		 mov	 DWORD PTR _i$93685[ebp], 0
  000fa	eb 09		 jmp	 SHORT $L93686
$L93687:
  000fc	8b 45 ec	 mov	 eax, DWORD PTR _i$93685[ebp]
  000ff	83 c0 01	 add	 eax, 1
  00102	89 45 ec	 mov	 DWORD PTR _i$93685[ebp], eax
$L93686:
  00105	8b 45 f8	 mov	 eax, DWORD PTR _this$[ebp]
  00108	8b 4d ec	 mov	 ecx, DWORD PTR _i$93685[ebp]
  0010b	3b 48 0c	 cmp	 ecx, DWORD PTR [eax+12]
  0010e	7d 5b		 jge	 SHORT $L93684

; 55   : 		if (m_ppMenuItems[i])

  00110	8b 45 f8	 mov	 eax, DWORD PTR _this$[ebp]
  00113	8b 48 08	 mov	 ecx, DWORD PTR [eax+8]
  00116	8b 55 ec	 mov	 edx, DWORD PTR _i$93685[ebp]
  00119	83 3c 91 00	 cmp	 DWORD PTR [ecx+edx*4], 0
  0011d	74 4a		 je	 SHORT $L93689

; 56   : 		{
; 57   : 			m_ppMenuItems[i]->m_bActive = TRUE ;

  0011f	8b 45 f8	 mov	 eax, DWORD PTR _this$[ebp]
  00122	8b 48 08	 mov	 ecx, DWORD PTR [eax+8]
  00125	8b 55 ec	 mov	 edx, DWORD PTR _i$93685[ebp]
  00128	8b 04 91	 mov	 eax, DWORD PTR [ecx+edx*4]
  0012b	c7 80 84 00 00
	00 01 00 00 00	 mov	 DWORD PTR [eax+132], 1

; 58   : 			m_ppMenuItems[i]->m_bFrameMoveRequired = TRUE ;

  00135	8b 45 f8	 mov	 eax, DWORD PTR _this$[ebp]
  00138	8b 48 08	 mov	 ecx, DWORD PTR [eax+8]
  0013b	8b 55 ec	 mov	 edx, DWORD PTR _i$93685[ebp]
  0013e	8b 04 91	 mov	 eax, DWORD PTR [ecx+edx*4]
  00141	c7 80 d0 00 00
	00 01 00 00 00	 mov	 DWORD PTR [eax+208], 1

; 59   : 			m_ppMenuItems[i]->m_matWorld = g_matIdent ;

  0014b	8b 45 f8	 mov	 eax, DWORD PTR _this$[ebp]
  0014e	8b 48 08	 mov	 ecx, DWORD PTR [eax+8]
  00151	8b 55 ec	 mov	 edx, DWORD PTR _i$93685[ebp]
  00154	8b 3c 91	 mov	 edi, DWORD PTR [ecx+edx*4]
  00157	81 c7 88 00 00
	00		 add	 edi, 136		; 00000088H
  0015d	b9 10 00 00 00	 mov	 ecx, 16			; 00000010H
  00162	be 00 00 00 00	 mov	 esi, OFFSET FLAT:?g_matIdent@@3UD3DXMATRIX@@A ; g_matIdent
  00167	f3 a5		 rep movsd
$L93689:

; 60   : 		}
; 61   : }

  00169	eb 91		 jmp	 SHORT $L93687
$L93684:
  0016b	5f		 pop	 edi
  0016c	5e		 pop	 esi
  0016d	5b		 pop	 ebx
  0016e	81 c4 d8 00 00
	00		 add	 esp, 216		; 000000d8H
  00174	3b ec		 cmp	 ebp, esp
  00176	e8 00 00 00 00	 call	 __RTC_CheckEsp
  0017b	8b e5		 mov	 esp, ebp
  0017d	5d		 pop	 ebp
  0017e	c3		 ret	 0
?EnterMenu@CMainMenu@@QAEHXZ ENDP			; CMainMenu::EnterMenu
_TEXT	ENDS
PUBLIC	?ExitMenu@CMainMenu@@QAEHXZ			; CMainMenu::ExitMenu
; Function compile flags: /Odt /RTCsu /ZI
;	COMDAT ?ExitMenu@CMainMenu@@QAEHXZ
_TEXT	SEGMENT
_i$93693 = -20
_this$ = -8
?ExitMenu@CMainMenu@@QAEHXZ PROC NEAR			; CMainMenu::ExitMenu, COMDAT
; _this$ = ecx

; 63   : {

  00000	55		 push	 ebp
  00001	8b ec		 mov	 ebp, esp
  00003	81 ec d8 00 00
	00		 sub	 esp, 216		; 000000d8H
  00009	53		 push	 ebx
  0000a	56		 push	 esi
  0000b	57		 push	 edi
  0000c	51		 push	 ecx
  0000d	8d bd 28 ff ff
	ff		 lea	 edi, DWORD PTR [ebp-216]
  00013	b9 36 00 00 00	 mov	 ecx, 54			; 00000036H
  00018	b8 cc cc cc cc	 mov	 eax, -858993460		; ccccccccH
  0001d	f3 ab		 rep stosd
  0001f	59		 pop	 ecx
  00020	89 4d f8	 mov	 DWORD PTR _this$[ebp], ecx

; 64   : 	SetViewMenuItems(MF_ENABLED) ;

  00023	6a 00		 push	 0
  00025	8b 4d f8	 mov	 ecx, DWORD PTR _this$[ebp]
  00028	e8 00 00 00 00	 call	 ?SetViewMenuItems@CMainMenu@@QAEHI@Z ; CMainMenu::SetViewMenuItems

; 65   : 	m_bActive = FALSE ;

  0002d	8b 45 f8	 mov	 eax, DWORD PTR _this$[ebp]
  00030	c7 40 04 00 00
	00 00		 mov	 DWORD PTR [eax+4], 0

; 66   : 	m_pBackG1->m_bActive = FALSE ;

  00037	8b 45 f8	 mov	 eax, DWORD PTR _this$[ebp]
  0003a	8b 48 10	 mov	 ecx, DWORD PTR [eax+16]
  0003d	c7 81 84 00 00
	00 00 00 00 00	 mov	 DWORD PTR [ecx+132], 0

; 67   : 	m_pBackG2->m_bActive = FALSE ;

  00047	8b 45 f8	 mov	 eax, DWORD PTR _this$[ebp]
  0004a	8b 48 14	 mov	 ecx, DWORD PTR [eax+20]
  0004d	c7 81 84 00 00
	00 00 00 00 00	 mov	 DWORD PTR [ecx+132], 0

; 68   : 	m_pTitle->m_bActive = FALSE ;

  00057	8b 45 f8	 mov	 eax, DWORD PTR _this$[ebp]
  0005a	8b 48 18	 mov	 ecx, DWORD PTR [eax+24]
  0005d	c7 81 84 00 00
	00 00 00 00 00	 mov	 DWORD PTR [ecx+132], 0

; 69   : 	for (int i = 0 ; i < m_nMenuItems ; i ++)

  00067	c7 45 ec 00 00
	00 00		 mov	 DWORD PTR _i$93693[ebp], 0
  0006e	eb 09		 jmp	 SHORT $L93694
$L93695:
  00070	8b 45 ec	 mov	 eax, DWORD PTR _i$93693[ebp]
  00073	83 c0 01	 add	 eax, 1
  00076	89 45 ec	 mov	 DWORD PTR _i$93693[ebp], eax
$L93694:
  00079	8b 45 f8	 mov	 eax, DWORD PTR _this$[ebp]
  0007c	8b 4d ec	 mov	 ecx, DWORD PTR _i$93693[ebp]
  0007f	3b 48 0c	 cmp	 ecx, DWORD PTR [eax+12]
  00082	7d 27		 jge	 SHORT $L93692

; 70   : 		if (m_ppMenuItems[i])

  00084	8b 45 f8	 mov	 eax, DWORD PTR _this$[ebp]
  00087	8b 48 08	 mov	 ecx, DWORD PTR [eax+8]
  0008a	8b 55 ec	 mov	 edx, DWORD PTR _i$93693[ebp]
  0008d	83 3c 91 00	 cmp	 DWORD PTR [ecx+edx*4], 0
  00091	74 16		 je	 SHORT $L93697

; 71   : 			m_ppMenuItems[i]->m_bActive = FALSE ;

  00093	8b 45 f8	 mov	 eax, DWORD PTR _this$[ebp]
  00096	8b 48 08	 mov	 ecx, DWORD PTR [eax+8]
  00099	8b 55 ec	 mov	 edx, DWORD PTR _i$93693[ebp]
  0009c	8b 04 91	 mov	 eax, DWORD PTR [ecx+edx*4]
  0009f	c7 80 84 00 00
	00 00 00 00 00	 mov	 DWORD PTR [eax+132], 0
$L93697:

; 72   : }

  000a9	eb c5		 jmp	 SHORT $L93695
$L93692:
  000ab	5f		 pop	 edi
  000ac	5e		 pop	 esi
  000ad	5b		 pop	 ebx
  000ae	81 c4 d8 00 00
	00		 add	 esp, 216		; 000000d8H
  000b4	3b ec		 cmp	 ebp, esp
  000b6	e8 00 00 00 00	 call	 __RTC_CheckEsp
  000bb	8b e5		 mov	 esp, ebp
  000bd	5d		 pop	 ebp
  000be	c3		 ret	 0
?ExitMenu@CMainMenu@@QAEHXZ ENDP			; CMainMenu::ExitMenu
_TEXT	ENDS
PUBLIC	?Render@CMainMenu@@QAEJPAUIDirect3DDevice8@@PAVCScreenOverlayManager@@@Z ; CMainMenu::Render
EXTRN	?SetProjMat@CScreenOverlayManager@@QAEXPAUIDirect3DDevice8@@@Z:NEAR ; CScreenOverlayManager::SetProjMat
EXTRN	?Render@CScreenOverlayManager@@QAEJPAUIDirect3DDevice8@@HH@Z:NEAR ; CScreenOverlayManager::Render
; Function compile flags: /Odt /RTCsu /ZI
;	COMDAT ?Render@CMainMenu@@QAEJPAUIDirect3DDevice8@@PAVCScreenOverlayManager@@@Z
_TEXT	SEGMENT
_this$ = -8
_pDev$ = 8
_pOM$ = 12
?Render@CMainMenu@@QAEJPAUIDirect3DDevice8@@PAVCScreenOverlayManager@@@Z PROC NEAR ; CMainMenu::Render, COMDAT
; _this$ = ecx

; 75   : {

  00000	55		 push	 ebp
  00001	8b ec		 mov	 ebp, esp
  00003	81 ec cc 00 00
	00		 sub	 esp, 204		; 000000ccH
  00009	53		 push	 ebx
  0000a	56		 push	 esi
  0000b	57		 push	 edi
  0000c	51		 push	 ecx
  0000d	8d bd 34 ff ff
	ff		 lea	 edi, DWORD PTR [ebp-204]
  00013	b9 33 00 00 00	 mov	 ecx, 51			; 00000033H
  00018	b8 cc cc cc cc	 mov	 eax, -858993460		; ccccccccH
  0001d	f3 ab		 rep stosd
  0001f	59		 pop	 ecx
  00020	89 4d f8	 mov	 DWORD PTR _this$[ebp], ecx

; 76   : 	pDev->SetRenderState(D3DRS_LIGHTING, FALSE) ;

  00023	8b f4		 mov	 esi, esp
  00025	6a 00		 push	 0
  00027	68 89 00 00 00	 push	 137			; 00000089H
  0002c	8b 45 08	 mov	 eax, DWORD PTR _pDev$[ebp]
  0002f	8b 08		 mov	 ecx, DWORD PTR [eax]
  00031	8b 55 08	 mov	 edx, DWORD PTR _pDev$[ebp]
  00034	52		 push	 edx
  00035	ff 91 c8 00 00
	00		 call	 DWORD PTR [ecx+200]
  0003b	3b f4		 cmp	 esi, esp
  0003d	e8 00 00 00 00	 call	 __RTC_CheckEsp

; 77   : 	pDev->SetRenderState(D3DRS_CULLMODE, D3DCULL_NONE) ;

  00042	8b f4		 mov	 esi, esp
  00044	6a 01		 push	 1
  00046	6a 16		 push	 22			; 00000016H
  00048	8b 45 08	 mov	 eax, DWORD PTR _pDev$[ebp]
  0004b	8b 08		 mov	 ecx, DWORD PTR [eax]
  0004d	8b 55 08	 mov	 edx, DWORD PTR _pDev$[ebp]
  00050	52		 push	 edx
  00051	ff 91 c8 00 00
	00		 call	 DWORD PTR [ecx+200]
  00057	3b f4		 cmp	 esi, esp
  00059	e8 00 00 00 00	 call	 __RTC_CheckEsp

; 78   : 	pDev->SetRenderState(D3DRS_ALPHABLENDENABLE, TRUE) ;

  0005e	8b f4		 mov	 esi, esp
  00060	6a 01		 push	 1
  00062	6a 1b		 push	 27			; 0000001bH
  00064	8b 45 08	 mov	 eax, DWORD PTR _pDev$[ebp]
  00067	8b 08		 mov	 ecx, DWORD PTR [eax]
  00069	8b 55 08	 mov	 edx, DWORD PTR _pDev$[ebp]
  0006c	52		 push	 edx
  0006d	ff 91 c8 00 00
	00		 call	 DWORD PTR [ecx+200]
  00073	3b f4		 cmp	 esi, esp
  00075	e8 00 00 00 00	 call	 __RTC_CheckEsp

; 79   : 	pDev->SetRenderState(D3DRS_ZENABLE, FALSE) ;

  0007a	8b f4		 mov	 esi, esp
  0007c	6a 00		 push	 0
  0007e	6a 07		 push	 7
  00080	8b 45 08	 mov	 eax, DWORD PTR _pDev$[ebp]
  00083	8b 08		 mov	 ecx, DWORD PTR [eax]
  00085	8b 55 08	 mov	 edx, DWORD PTR _pDev$[ebp]
  00088	52		 push	 edx
  00089	ff 91 c8 00 00
	00		 call	 DWORD PTR [ecx+200]
  0008f	3b f4		 cmp	 esi, esp
  00091	e8 00 00 00 00	 call	 __RTC_CheckEsp

; 80   : 
; 81   : 	SetTextureColorStage(pDev, 0, D3DTA_TEXTURE, D3DTOP_MODULATE,	D3DTA_DIFFUSE)

  00096	8b f4		 mov	 esi, esp
  00098	6a 04		 push	 4
  0009a	6a 01		 push	 1
  0009c	6a 00		 push	 0
  0009e	8b 45 08	 mov	 eax, DWORD PTR _pDev$[ebp]
  000a1	8b 08		 mov	 ecx, DWORD PTR [eax]
  000a3	8b 55 08	 mov	 edx, DWORD PTR _pDev$[ebp]
  000a6	52		 push	 edx
  000a7	ff 91 fc 00 00
	00		 call	 DWORD PTR [ecx+252]
  000ad	3b f4		 cmp	 esi, esp
  000af	e8 00 00 00 00	 call	 __RTC_CheckEsp
  000b4	8b f4		 mov	 esi, esp
  000b6	6a 02		 push	 2
  000b8	6a 02		 push	 2
  000ba	6a 00		 push	 0
  000bc	8b 45 08	 mov	 eax, DWORD PTR _pDev$[ebp]
  000bf	8b 08		 mov	 ecx, DWORD PTR [eax]
  000c1	8b 55 08	 mov	 edx, DWORD PTR _pDev$[ebp]
  000c4	52		 push	 edx
  000c5	ff 91 fc 00 00
	00		 call	 DWORD PTR [ecx+252]
  000cb	3b f4		 cmp	 esi, esp
  000cd	e8 00 00 00 00	 call	 __RTC_CheckEsp
  000d2	8b f4		 mov	 esi, esp
  000d4	6a 00		 push	 0
  000d6	6a 03		 push	 3
  000d8	6a 00		 push	 0
  000da	8b 45 08	 mov	 eax, DWORD PTR _pDev$[ebp]
  000dd	8b 08		 mov	 ecx, DWORD PTR [eax]
  000df	8b 55 08	 mov	 edx, DWORD PTR _pDev$[ebp]
  000e2	52		 push	 edx
  000e3	ff 91 fc 00 00
	00		 call	 DWORD PTR [ecx+252]
  000e9	3b f4		 cmp	 esi, esp
  000eb	e8 00 00 00 00	 call	 __RTC_CheckEsp

; 82   : 	SetTextureColorStage(pDev, 1, D3DTA_CURRENT, D3DTOP_DISABLE,	D3DTA_CURRENT)

  000f0	8b f4		 mov	 esi, esp
  000f2	6a 01		 push	 1
  000f4	6a 01		 push	 1
  000f6	6a 01		 push	 1
  000f8	8b 45 08	 mov	 eax, DWORD PTR _pDev$[ebp]
  000fb	8b 08		 mov	 ecx, DWORD PTR [eax]
  000fd	8b 55 08	 mov	 edx, DWORD PTR _pDev$[ebp]
  00100	52		 push	 edx
  00101	ff 91 fc 00 00
	00		 call	 DWORD PTR [ecx+252]
  00107	3b f4		 cmp	 esi, esp
  00109	e8 00 00 00 00	 call	 __RTC_CheckEsp
  0010e	8b f4		 mov	 esi, esp
  00110	6a 01		 push	 1
  00112	6a 02		 push	 2
  00114	6a 01		 push	 1
  00116	8b 45 08	 mov	 eax, DWORD PTR _pDev$[ebp]
  00119	8b 08		 mov	 ecx, DWORD PTR [eax]
  0011b	8b 55 08	 mov	 edx, DWORD PTR _pDev$[ebp]
  0011e	52		 push	 edx
  0011f	ff 91 fc 00 00
	00		 call	 DWORD PTR [ecx+252]
  00125	3b f4		 cmp	 esi, esp
  00127	e8 00 00 00 00	 call	 __RTC_CheckEsp
  0012c	8b f4		 mov	 esi, esp
  0012e	6a 01		 push	 1
  00130	6a 03		 push	 3
  00132	6a 01		 push	 1
  00134	8b 45 08	 mov	 eax, DWORD PTR _pDev$[ebp]
  00137	8b 08		 mov	 ecx, DWORD PTR [eax]
  00139	8b 55 08	 mov	 edx, DWORD PTR _pDev$[ebp]
  0013c	52		 push	 edx
  0013d	ff 91 fc 00 00
	00		 call	 DWORD PTR [ecx+252]
  00143	3b f4		 cmp	 esi, esp
  00145	e8 00 00 00 00	 call	 __RTC_CheckEsp

; 83   : 
; 84   : 	SetTextureAlphaStage(pDev, 0, D3DTA_TEXTURE, D3DTOP_MODULATE,	D3DTA_DIFFUSE)

  0014a	8b f4		 mov	 esi, esp
  0014c	6a 04		 push	 4
  0014e	6a 04		 push	 4
  00150	6a 00		 push	 0
  00152	8b 45 08	 mov	 eax, DWORD PTR _pDev$[ebp]
  00155	8b 08		 mov	 ecx, DWORD PTR [eax]
  00157	8b 55 08	 mov	 edx, DWORD PTR _pDev$[ebp]
  0015a	52		 push	 edx
  0015b	ff 91 fc 00 00
	00		 call	 DWORD PTR [ecx+252]
  00161	3b f4		 cmp	 esi, esp
  00163	e8 00 00 00 00	 call	 __RTC_CheckEsp
  00168	8b f4		 mov	 esi, esp
  0016a	6a 02		 push	 2
  0016c	6a 05		 push	 5
  0016e	6a 00		 push	 0
  00170	8b 45 08	 mov	 eax, DWORD PTR _pDev$[ebp]
  00173	8b 08		 mov	 ecx, DWORD PTR [eax]
  00175	8b 55 08	 mov	 edx, DWORD PTR _pDev$[ebp]
  00178	52		 push	 edx
  00179	ff 91 fc 00 00
	00		 call	 DWORD PTR [ecx+252]
  0017f	3b f4		 cmp	 esi, esp
  00181	e8 00 00 00 00	 call	 __RTC_CheckEsp
  00186	8b f4		 mov	 esi, esp
  00188	6a 00		 push	 0
  0018a	6a 06		 push	 6
  0018c	6a 00		 push	 0
  0018e	8b 45 08	 mov	 eax, DWORD PTR _pDev$[ebp]
  00191	8b 08		 mov	 ecx, DWORD PTR [eax]
  00193	8b 55 08	 mov	 edx, DWORD PTR _pDev$[ebp]
  00196	52		 push	 edx
  00197	ff 91 fc 00 00
	00		 call	 DWORD PTR [ecx+252]
  0019d	3b f4		 cmp	 esi, esp
  0019f	e8 00 00 00 00	 call	 __RTC_CheckEsp

; 85   : 	SetTextureAlphaStage(pDev, 1, D3DTA_CURRENT, D3DTOP_DISABLE,	D3DTA_CURRENT)

  001a4	8b f4		 mov	 esi, esp
  001a6	6a 01		 push	 1
  001a8	6a 04		 push	 4
  001aa	6a 01		 push	 1
  001ac	8b 45 08	 mov	 eax, DWORD PTR _pDev$[ebp]
  001af	8b 08		 mov	 ecx, DWORD PTR [eax]
  001b1	8b 55 08	 mov	 edx, DWORD PTR _pDev$[ebp]
  001b4	52		 push	 edx
  001b5	ff 91 fc 00 00
	00		 call	 DWORD PTR [ecx+252]
  001bb	3b f4		 cmp	 esi, esp
  001bd	e8 00 00 00 00	 call	 __RTC_CheckEsp
  001c2	8b f4		 mov	 esi, esp
  001c4	6a 01		 push	 1
  001c6	6a 05		 push	 5
  001c8	6a 01		 push	 1
  001ca	8b 45 08	 mov	 eax, DWORD PTR _pDev$[ebp]
  001cd	8b 08		 mov	 ecx, DWORD PTR [eax]
  001cf	8b 55 08	 mov	 edx, DWORD PTR _pDev$[ebp]
  001d2	52		 push	 edx
  001d3	ff 91 fc 00 00
	00		 call	 DWORD PTR [ecx+252]
  001d9	3b f4		 cmp	 esi, esp
  001db	e8 00 00 00 00	 call	 __RTC_CheckEsp
  001e0	8b f4		 mov	 esi, esp
  001e2	6a 01		 push	 1
  001e4	6a 06		 push	 6
  001e6	6a 01		 push	 1
  001e8	8b 45 08	 mov	 eax, DWORD PTR _pDev$[ebp]
  001eb	8b 08		 mov	 ecx, DWORD PTR [eax]
  001ed	8b 55 08	 mov	 edx, DWORD PTR _pDev$[ebp]
  001f0	52		 push	 edx
  001f1	ff 91 fc 00 00
	00		 call	 DWORD PTR [ecx+252]
  001f7	3b f4		 cmp	 esi, esp
  001f9	e8 00 00 00 00	 call	 __RTC_CheckEsp

; 86   : 
; 87   : 	pOM->SetProjMat( pDev );

  001fe	8b 45 08	 mov	 eax, DWORD PTR _pDev$[ebp]
  00201	50		 push	 eax
  00202	8b 4d 0c	 mov	 ecx, DWORD PTR _pOM$[ebp]
  00205	e8 00 00 00 00	 call	 ?SetProjMat@CScreenOverlayManager@@QAEXPAUIDirect3DDevice8@@@Z ; CScreenOverlayManager::SetProjMat

; 88   : 	pOM->Render( pDev, OT_MENU, ORT_FAST );

  0020a	6a 01		 push	 1
  0020c	6a 0a		 push	 10			; 0000000aH
  0020e	8b 45 08	 mov	 eax, DWORD PTR _pDev$[ebp]
  00211	50		 push	 eax
  00212	8b 4d 0c	 mov	 ecx, DWORD PTR _pOM$[ebp]
  00215	e8 00 00 00 00	 call	 ?Render@CScreenOverlayManager@@QAEJPAUIDirect3DDevice8@@HH@Z ; CScreenOverlayManager::Render

; 89   : 
; 90   : 	return S_OK ;

  0021a	33 c0		 xor	 eax, eax

; 91   : }

  0021c	5f		 pop	 edi
  0021d	5e		 pop	 esi
  0021e	5b		 pop	 ebx
  0021f	81 c4 cc 00 00
	00		 add	 esp, 204		; 000000ccH
  00225	3b ec		 cmp	 ebp, esp
  00227	e8 00 00 00 00	 call	 __RTC_CheckEsp
  0022c	8b e5		 mov	 esp, ebp
  0022e	5d		 pop	 ebp
  0022f	c2 08 00	 ret	 8
?Render@CMainMenu@@QAEJPAUIDirect3DDevice8@@PAVCScreenOverlayManager@@@Z ENDP ; CMainMenu::Render
_TEXT	ENDS
PUBLIC	?RestoreDeviceObjects@CMainMenu@@QAEJPAUIDirect3DDevice8@@MPAVCScreenOverlayManager@@PAVCMenuTextures@@@Z ; CMainMenu::RestoreDeviceObjects
PUBLIC	??_C@_0CB@JIFLGBFL@CMainMenu?3?3RestoreDeviceObjects?6@ ; `string'
PUBLIC	__real@3f800000
EXTRN	??0CScreenOverlay@@QAE@PAUIDirect3DTexture8@@MMMMMMH@Z:NEAR ; CScreenOverlay::CScreenOverlay
EXTRN	?RegisterNewOverlay@CScreenOverlayManager@@QAEHPAVCScreenOverlay@@@Z:NEAR ; CScreenOverlayManager::RegisterNewOverlay
EXTRN	??0CMenuScrollingBackG@@QAE@PAUIDirect3DTexture8@@MMMMMMMM@Z:NEAR ; CMenuScrollingBackG::CMenuScrollingBackG
EXTRN	??0CMenuItem@@QAE@PAUIDirect3DTexture8@@MMMMMM@Z:NEAR ; CMenuItem::CMenuItem
EXTRN	?ods@@YAXPADZZ:NEAR				; ods
;	COMDAT ??_C@_0CB@JIFLGBFL@CMainMenu?3?3RestoreDeviceObjects?6@
CONST	SEGMENT
??_C@_0CB@JIFLGBFL@CMainMenu?3?3RestoreDeviceObjects?6@ DB 'CMainMenu::Re'
	DB	'storeDeviceObjects', 0aH, 00H		; `string'
CONST	ENDS
;	COMDAT __real@3f800000
CONST	SEGMENT
__real@3f800000 DD 03f800000r			; 1
; Function compile flags: /Odt /RTCsu /ZI
CONST	ENDS
;	COMDAT ?RestoreDeviceObjects@CMainMenu@@QAEJPAUIDirect3DDevice8@@MPAVCScreenOverlayManager@@PAVCMenuTextures@@@Z
_TEXT	SEGMENT
tv245 = -304
tv219 = -304
tv192 = -304
tv169 = -304
tv145 = -304
tv86 = -304
$T93888 = -296
$T93885 = -284
$T93882 = -272
$T93879 = -260
$T93876 = -248
$T93873 = -236
_fCoplanarSep$ = -32
_fLogoDistance$ = -20
_this$ = -8
_pDev$ = 8
_fAspect$ = 12
_pOM$ = 16
_pTex$ = 20
?RestoreDeviceObjects@CMainMenu@@QAEJPAUIDirect3DDevice8@@MPAVCScreenOverlayManager@@PAVCMenuTextures@@@Z PROC NEAR ; CMainMenu::RestoreDeviceObjects, COMDAT
; _this$ = ecx

; 94   : {

  00000	55		 push	 ebp
  00001	8b ec		 mov	 ebp, esp
  00003	81 ec 30 01 00
	00		 sub	 esp, 304		; 00000130H
  00009	53		 push	 ebx
  0000a	56		 push	 esi
  0000b	57		 push	 edi
  0000c	51		 push	 ecx
  0000d	8d bd d0 fe ff
	ff		 lea	 edi, DWORD PTR [ebp-304]
  00013	b9 4c 00 00 00	 mov	 ecx, 76			; 0000004cH
  00018	b8 cc cc cc cc	 mov	 eax, -858993460		; ccccccccH
  0001d	f3 ab		 rep stosd
  0001f	59		 pop	 ecx
  00020	89 4d f8	 mov	 DWORD PTR _this$[ebp], ecx

; 95   : 	ods( "CMainMenu::RestoreDeviceObjects\n" );

  00023	68 00 00 00 00	 push	 OFFSET FLAT:??_C@_0CB@JIFLGBFL@CMainMenu?3?3RestoreDeviceObjects?6@
  00028	e8 00 00 00 00	 call	 ?ods@@YAXPADZZ		; ods
  0002d	83 c4 04	 add	 esp, 4

; 96   : 
; 97   : 	float fLogoDistance = +0.2f ;

  00030	c7 45 ec cd cc
	4c 3e		 mov	 DWORD PTR _fLogoDistance$[ebp], 1045220557 ; 3e4ccccdH

; 98   : 	float fCoplanarSep = +0.0f ;

  00037	c7 45 e0 00 00
	00 00		 mov	 DWORD PTR _fCoplanarSep$[ebp], 0

; 99   : 
; 100  : // background 1
; 101  : 	pOM->RegisterNewOverlay((m_pBackG1 = new CMenuScrollingBackG(pTex->m_pTex[MENU_TEX_START + 0], 3.0f, 0.2f, 1.0f, 0.01f, 0.3f, fLogoDistance + fCoplanarSep * 2.0f, 0.98f, 0.4f)));

  0003e	68 60 01 00 00	 push	 352			; 00000160H
  00043	e8 00 00 00 00	 call	 ??2@YAPAXI@Z		; operator new
  00048	83 c4 04	 add	 esp, 4
  0004b	89 85 14 ff ff
	ff		 mov	 DWORD PTR $T93873[ebp], eax
  00051	83 bd 14 ff ff
	ff 00		 cmp	 DWORD PTR $T93873[ebp], 0
  00058	74 4c		 je	 SHORT $L93874
  0005a	68 cd cc cc 3e	 push	 1053609165		; 3ecccccdH
  0005f	68 48 e1 7a 3f	 push	 1065017672		; 3f7ae148H
  00064	d9 45 e0	 fld	 DWORD PTR _fCoplanarSep$[ebp]
  00067	dc c0		 fadd	 ST(0), ST(0)
  00069	d8 45 ec	 fadd	 DWORD PTR _fLogoDistance$[ebp]
  0006c	51		 push	 ecx
  0006d	d9 1c 24	 fstp	 DWORD PTR [esp]
  00070	68 9a 99 99 3e	 push	 1050253722		; 3e99999aH
  00075	68 0a d7 23 3c	 push	 1008981770		; 3c23d70aH
  0007a	68 00 00 80 3f	 push	 1065353216		; 3f800000H
  0007f	68 cd cc 4c 3e	 push	 1045220557		; 3e4ccccdH
  00084	68 00 00 40 40	 push	 1077936128		; 40400000H
  00089	8b 45 14	 mov	 eax, DWORD PTR _pTex$[ebp]
  0008c	8b 88 64 09 00
	00		 mov	 ecx, DWORD PTR [eax+2404]
  00092	51		 push	 ecx
  00093	8b 8d 14 ff ff
	ff		 mov	 ecx, DWORD PTR $T93873[ebp]
  00099	e8 00 00 00 00	 call	 ??0CMenuScrollingBackG@@QAE@PAUIDirect3DTexture8@@MMMMMMMM@Z ; CMenuScrollingBackG::CMenuScrollingBackG
  0009e	89 85 d0 fe ff
	ff		 mov	 DWORD PTR tv86[ebp], eax
  000a4	eb 0a		 jmp	 SHORT $L93875
$L93874:
  000a6	c7 85 d0 fe ff
	ff 00 00 00 00	 mov	 DWORD PTR tv86[ebp], 0
$L93875:
  000b0	8b 55 f8	 mov	 edx, DWORD PTR _this$[ebp]
  000b3	8b 85 d0 fe ff
	ff		 mov	 eax, DWORD PTR tv86[ebp]
  000b9	89 42 10	 mov	 DWORD PTR [edx+16], eax
  000bc	8b 8d d0 fe ff
	ff		 mov	 ecx, DWORD PTR tv86[ebp]
  000c2	51		 push	 ecx
  000c3	8b 4d 10	 mov	 ecx, DWORD PTR _pOM$[ebp]
  000c6	e8 00 00 00 00	 call	 ?RegisterNewOverlay@CScreenOverlayManager@@QAEHPAVCScreenOverlay@@@Z ; CScreenOverlayManager::RegisterNewOverlay

; 102  : 	m_pBackG1->m_bActive = m_bActive ;

  000cb	8b 45 f8	 mov	 eax, DWORD PTR _this$[ebp]
  000ce	8b 48 10	 mov	 ecx, DWORD PTR [eax+16]
  000d1	8b 55 f8	 mov	 edx, DWORD PTR _this$[ebp]
  000d4	8b 42 04	 mov	 eax, DWORD PTR [edx+4]
  000d7	89 81 84 00 00
	00		 mov	 DWORD PTR [ecx+132], eax

; 103  : 	m_pBackG1->m_bFrameMoveRequired  = TRUE ;

  000dd	8b 45 f8	 mov	 eax, DWORD PTR _this$[ebp]
  000e0	8b 48 10	 mov	 ecx, DWORD PTR [eax+16]
  000e3	c7 81 d0 00 00
	00 01 00 00 00	 mov	 DWORD PTR [ecx+208], 1

; 104  : 
; 105  : // background 2
; 106  : 	pOM->RegisterNewOverlay((m_pBackG2 = new CMenuScrollingBackG(pTex->m_pTex[MENU_TEX_START + 0], 1.0f, 1.0f, 0.75f, 0.01f, 0.3f, fLogoDistance + fCoplanarSep * 1.0f, 0.98f, 0.4f)));

  000ed	68 60 01 00 00	 push	 352			; 00000160H
  000f2	e8 00 00 00 00	 call	 ??2@YAPAXI@Z		; operator new
  000f7	83 c4 04	 add	 esp, 4
  000fa	89 85 08 ff ff
	ff		 mov	 DWORD PTR $T93876[ebp], eax
  00100	83 bd 08 ff ff
	ff 00		 cmp	 DWORD PTR $T93876[ebp], 0
  00107	74 50		 je	 SHORT $L93877
  00109	68 cd cc cc 3e	 push	 1053609165		; 3ecccccdH
  0010e	68 48 e1 7a 3f	 push	 1065017672		; 3f7ae148H
  00113	d9 45 e0	 fld	 DWORD PTR _fCoplanarSep$[ebp]
  00116	d8 0d 00 00 00
	00		 fmul	 DWORD PTR __real@3f800000
  0011c	d8 45 ec	 fadd	 DWORD PTR _fLogoDistance$[ebp]
  0011f	51		 push	 ecx
  00120	d9 1c 24	 fstp	 DWORD PTR [esp]
  00123	68 9a 99 99 3e	 push	 1050253722		; 3e99999aH
  00128	68 0a d7 23 3c	 push	 1008981770		; 3c23d70aH
  0012d	68 00 00 40 3f	 push	 1061158912		; 3f400000H
  00132	68 00 00 80 3f	 push	 1065353216		; 3f800000H
  00137	68 00 00 80 3f	 push	 1065353216		; 3f800000H
  0013c	8b 45 14	 mov	 eax, DWORD PTR _pTex$[ebp]
  0013f	8b 88 64 09 00
	00		 mov	 ecx, DWORD PTR [eax+2404]
  00145	51		 push	 ecx
  00146	8b 8d 08 ff ff
	ff		 mov	 ecx, DWORD PTR $T93876[ebp]
  0014c	e8 00 00 00 00	 call	 ??0CMenuScrollingBackG@@QAE@PAUIDirect3DTexture8@@MMMMMMMM@Z ; CMenuScrollingBackG::CMenuScrollingBackG
  00151	89 85 d0 fe ff
	ff		 mov	 DWORD PTR tv145[ebp], eax
  00157	eb 0a		 jmp	 SHORT $L93878
$L93877:
  00159	c7 85 d0 fe ff
	ff 00 00 00 00	 mov	 DWORD PTR tv145[ebp], 0
$L93878:
  00163	8b 55 f8	 mov	 edx, DWORD PTR _this$[ebp]
  00166	8b 85 d0 fe ff
	ff		 mov	 eax, DWORD PTR tv145[ebp]
  0016c	89 42 14	 mov	 DWORD PTR [edx+20], eax
  0016f	8b 8d d0 fe ff
	ff		 mov	 ecx, DWORD PTR tv145[ebp]
  00175	51		 push	 ecx
  00176	8b 4d 10	 mov	 ecx, DWORD PTR _pOM$[ebp]
  00179	e8 00 00 00 00	 call	 ?RegisterNewOverlay@CScreenOverlayManager@@QAEHPAVCScreenOverlay@@@Z ; CScreenOverlayManager::RegisterNewOverlay

; 107  : 	m_pBackG2->m_bActive = m_bActive ;

  0017e	8b 45 f8	 mov	 eax, DWORD PTR _this$[ebp]
  00181	8b 48 14	 mov	 ecx, DWORD PTR [eax+20]
  00184	8b 55 f8	 mov	 edx, DWORD PTR _this$[ebp]
  00187	8b 42 04	 mov	 eax, DWORD PTR [edx+4]
  0018a	89 81 84 00 00
	00		 mov	 DWORD PTR [ecx+132], eax

; 108  : 	m_pBackG2->m_bFrameMoveRequired  = TRUE ;

  00190	8b 45 f8	 mov	 eax, DWORD PTR _this$[ebp]
  00193	8b 48 14	 mov	 ecx, DWORD PTR [eax+20]
  00196	c7 81 d0 00 00
	00 01 00 00 00	 mov	 DWORD PTR [ecx+208], 1

; 109  : 
; 110  : // overlay
; 111  : 	pOM->RegisterNewOverlay((m_pTitle = new CScreenOverlay(pTex->m_pTex[MENU_TEX_START + 1], 1.0f, 0.0f, 0.0f, fLogoDistance, 1.0f, 1.0f, OT_MENU)));

  001a0	68 d4 00 00 00	 push	 212			; 000000d4H
  001a5	e8 00 00 00 00	 call	 ??2@YAPAXI@Z		; operator new
  001aa	83 c4 04	 add	 esp, 4
  001ad	89 85 fc fe ff
	ff		 mov	 DWORD PTR $T93879[ebp], eax
  001b3	83 bd fc fe ff
	ff 00		 cmp	 DWORD PTR $T93879[ebp], 0
  001ba	74 36		 je	 SHORT $L93880
  001bc	6a 0a		 push	 10			; 0000000aH
  001be	68 00 00 80 3f	 push	 1065353216		; 3f800000H
  001c3	68 00 00 80 3f	 push	 1065353216		; 3f800000H
  001c8	8b 45 ec	 mov	 eax, DWORD PTR _fLogoDistance$[ebp]
  001cb	50		 push	 eax
  001cc	6a 00		 push	 0
  001ce	6a 00		 push	 0
  001d0	68 00 00 80 3f	 push	 1065353216		; 3f800000H
  001d5	8b 4d 14	 mov	 ecx, DWORD PTR _pTex$[ebp]
  001d8	8b 91 68 09 00
	00		 mov	 edx, DWORD PTR [ecx+2408]
  001de	52		 push	 edx
  001df	8b 8d fc fe ff
	ff		 mov	 ecx, DWORD PTR $T93879[ebp]
  001e5	e8 00 00 00 00	 call	 ??0CScreenOverlay@@QAE@PAUIDirect3DTexture8@@MMMMMMH@Z ; CScreenOverlay::CScreenOverlay
  001ea	89 85 d0 fe ff
	ff		 mov	 DWORD PTR tv169[ebp], eax
  001f0	eb 0a		 jmp	 SHORT $L93881
$L93880:
  001f2	c7 85 d0 fe ff
	ff 00 00 00 00	 mov	 DWORD PTR tv169[ebp], 0
$L93881:
  001fc	8b 45 f8	 mov	 eax, DWORD PTR _this$[ebp]
  001ff	8b 8d d0 fe ff
	ff		 mov	 ecx, DWORD PTR tv169[ebp]
  00205	89 48 18	 mov	 DWORD PTR [eax+24], ecx
  00208	8b 95 d0 fe ff
	ff		 mov	 edx, DWORD PTR tv169[ebp]
  0020e	52		 push	 edx
  0020f	8b 4d 10	 mov	 ecx, DWORD PTR _pOM$[ebp]
  00212	e8 00 00 00 00	 call	 ?RegisterNewOverlay@CScreenOverlayManager@@QAEHPAVCScreenOverlay@@@Z ; CScreenOverlayManager::RegisterNewOverlay

; 112  : 	m_pTitle->m_bActive = m_bActive ;

  00217	8b 45 f8	 mov	 eax, DWORD PTR _this$[ebp]
  0021a	8b 48 18	 mov	 ecx, DWORD PTR [eax+24]
  0021d	8b 55 f8	 mov	 edx, DWORD PTR _this$[ebp]
  00220	8b 42 04	 mov	 eax, DWORD PTR [edx+4]
  00223	89 81 84 00 00
	00		 mov	 DWORD PTR [ecx+132], eax

; 113  : 	m_pTitle->m_bFrameMoveRequired  = TRUE ;

  00229	8b 45 f8	 mov	 eax, DWORD PTR _this$[ebp]
  0022c	8b 48 18	 mov	 ecx, DWORD PTR [eax+24]
  0022f	c7 81 d0 00 00
	00 01 00 00 00	 mov	 DWORD PTR [ecx+208], 1

; 114  : 
; 115  : // main menu: Play, Settings & Exit
; 116  : 	pOM->RegisterNewOverlay((m_ppMenuItems[0] = new CMenuItem(pTex->m_pTex[MENU_TEX_START + 2], 1.0f, 0.25f, 0.00f, 0.0f, 0.5f, 0.5f)));

  00239	68 e4 00 00 00	 push	 228			; 000000e4H
  0023e	e8 00 00 00 00	 call	 ??2@YAPAXI@Z		; operator new
  00243	83 c4 04	 add	 esp, 4
  00246	89 85 f0 fe ff
	ff		 mov	 DWORD PTR $T93882[ebp], eax
  0024c	83 bd f0 fe ff
	ff 00		 cmp	 DWORD PTR $T93882[ebp], 0
  00253	74 35		 je	 SHORT $L93883
  00255	68 00 00 00 3f	 push	 1056964608		; 3f000000H
  0025a	68 00 00 00 3f	 push	 1056964608		; 3f000000H
  0025f	6a 00		 push	 0
  00261	6a 00		 push	 0
  00263	68 00 00 80 3e	 push	 1048576000		; 3e800000H
  00268	68 00 00 80 3f	 push	 1065353216		; 3f800000H
  0026d	8b 45 14	 mov	 eax, DWORD PTR _pTex$[ebp]
  00270	8b 88 6c 09 00
	00		 mov	 ecx, DWORD PTR [eax+2412]
  00276	51		 push	 ecx
  00277	8b 8d f0 fe ff
	ff		 mov	 ecx, DWORD PTR $T93882[ebp]
  0027d	e8 00 00 00 00	 call	 ??0CMenuItem@@QAE@PAUIDirect3DTexture8@@MMMMMM@Z ; CMenuItem::CMenuItem
  00282	89 85 d0 fe ff
	ff		 mov	 DWORD PTR tv192[ebp], eax
  00288	eb 0a		 jmp	 SHORT $L93884
$L93883:
  0028a	c7 85 d0 fe ff
	ff 00 00 00 00	 mov	 DWORD PTR tv192[ebp], 0
$L93884:
  00294	8b 55 f8	 mov	 edx, DWORD PTR _this$[ebp]
  00297	8b 42 08	 mov	 eax, DWORD PTR [edx+8]
  0029a	8b 8d d0 fe ff
	ff		 mov	 ecx, DWORD PTR tv192[ebp]
  002a0	89 08		 mov	 DWORD PTR [eax], ecx
  002a2	8b 95 d0 fe ff
	ff		 mov	 edx, DWORD PTR tv192[ebp]
  002a8	52		 push	 edx
  002a9	8b 4d 10	 mov	 ecx, DWORD PTR _pOM$[ebp]
  002ac	e8 00 00 00 00	 call	 ?RegisterNewOverlay@CScreenOverlayManager@@QAEHPAVCScreenOverlay@@@Z ; CScreenOverlayManager::RegisterNewOverlay

; 117  : 	m_ppMenuItems[0]->m_bActive = m_bActive ;

  002b1	8b 45 f8	 mov	 eax, DWORD PTR _this$[ebp]
  002b4	8b 48 08	 mov	 ecx, DWORD PTR [eax+8]
  002b7	8b 11		 mov	 edx, DWORD PTR [ecx]
  002b9	8b 45 f8	 mov	 eax, DWORD PTR _this$[ebp]
  002bc	8b 48 04	 mov	 ecx, DWORD PTR [eax+4]
  002bf	89 8a 84 00 00
	00		 mov	 DWORD PTR [edx+132], ecx

; 118  : 	m_ppMenuItems[0]->m_bFrameMoveRequired  = TRUE ;

  002c5	8b 45 f8	 mov	 eax, DWORD PTR _this$[ebp]
  002c8	8b 48 08	 mov	 ecx, DWORD PTR [eax+8]
  002cb	8b 11		 mov	 edx, DWORD PTR [ecx]
  002cd	c7 82 d0 00 00
	00 01 00 00 00	 mov	 DWORD PTR [edx+208], 1

; 119  : 
; 120  : 	pOM->RegisterNewOverlay((m_ppMenuItems[1] = new CMenuItem(pTex->m_pTex[MENU_TEX_START + 3], 1.0f, 0.25f, 0.25f, 0.0f, 0.5f, 0.5f)));

  002d7	68 e4 00 00 00	 push	 228			; 000000e4H
  002dc	e8 00 00 00 00	 call	 ??2@YAPAXI@Z		; operator new
  002e1	83 c4 04	 add	 esp, 4
  002e4	89 85 e4 fe ff
	ff		 mov	 DWORD PTR $T93885[ebp], eax
  002ea	83 bd e4 fe ff
	ff 00		 cmp	 DWORD PTR $T93885[ebp], 0
  002f1	74 38		 je	 SHORT $L93886
  002f3	68 00 00 00 3f	 push	 1056964608		; 3f000000H
  002f8	68 00 00 00 3f	 push	 1056964608		; 3f000000H
  002fd	6a 00		 push	 0
  002ff	68 00 00 80 3e	 push	 1048576000		; 3e800000H
  00304	68 00 00 80 3e	 push	 1048576000		; 3e800000H
  00309	68 00 00 80 3f	 push	 1065353216		; 3f800000H
  0030e	8b 45 14	 mov	 eax, DWORD PTR _pTex$[ebp]
  00311	8b 88 70 09 00
	00		 mov	 ecx, DWORD PTR [eax+2416]
  00317	51		 push	 ecx
  00318	8b 8d e4 fe ff
	ff		 mov	 ecx, DWORD PTR $T93885[ebp]
  0031e	e8 00 00 00 00	 call	 ??0CMenuItem@@QAE@PAUIDirect3DTexture8@@MMMMMM@Z ; CMenuItem::CMenuItem
  00323	89 85 d0 fe ff
	ff		 mov	 DWORD PTR tv219[ebp], eax
  00329	eb 0a		 jmp	 SHORT $L93887
$L93886:
  0032b	c7 85 d0 fe ff
	ff 00 00 00 00	 mov	 DWORD PTR tv219[ebp], 0
$L93887:
  00335	8b 55 f8	 mov	 edx, DWORD PTR _this$[ebp]
  00338	8b 42 08	 mov	 eax, DWORD PTR [edx+8]
  0033b	8b 8d d0 fe ff
	ff		 mov	 ecx, DWORD PTR tv219[ebp]
  00341	89 48 04	 mov	 DWORD PTR [eax+4], ecx
  00344	8b 95 d0 fe ff
	ff		 mov	 edx, DWORD PTR tv219[ebp]
  0034a	52		 push	 edx
  0034b	8b 4d 10	 mov	 ecx, DWORD PTR _pOM$[ebp]
  0034e	e8 00 00 00 00	 call	 ?RegisterNewOverlay@CScreenOverlayManager@@QAEHPAVCScreenOverlay@@@Z ; CScreenOverlayManager::RegisterNewOverlay

; 121  : 	m_ppMenuItems[1]->m_bActive = m_bActive ;

  00353	8b 45 f8	 mov	 eax, DWORD PTR _this$[ebp]
  00356	8b 48 08	 mov	 ecx, DWORD PTR [eax+8]
  00359	8b 51 04	 mov	 edx, DWORD PTR [ecx+4]
  0035c	8b 45 f8	 mov	 eax, DWORD PTR _this$[ebp]
  0035f	8b 48 04	 mov	 ecx, DWORD PTR [eax+4]
  00362	89 8a 84 00 00
	00		 mov	 DWORD PTR [edx+132], ecx

; 122  : 	m_ppMenuItems[1]->m_bFrameMoveRequired  = TRUE ;

  00368	8b 45 f8	 mov	 eax, DWORD PTR _this$[ebp]
  0036b	8b 48 08	 mov	 ecx, DWORD PTR [eax+8]
  0036e	8b 51 04	 mov	 edx, DWORD PTR [ecx+4]
  00371	c7 82 d0 00 00
	00 01 00 00 00	 mov	 DWORD PTR [edx+208], 1

; 123  : 
; 124  : 	pOM->RegisterNewOverlay((m_ppMenuItems[2] = new CMenuItem(pTex->m_pTex[MENU_TEX_START + 4], 1.0f, 0.25f, 0.50f, 0.0f, 0.5f, 0.5f)));

  0037b	68 e4 00 00 00	 push	 228			; 000000e4H
  00380	e8 00 00 00 00	 call	 ??2@YAPAXI@Z		; operator new
  00385	83 c4 04	 add	 esp, 4
  00388	89 85 d8 fe ff
	ff		 mov	 DWORD PTR $T93888[ebp], eax
  0038e	83 bd d8 fe ff
	ff 00		 cmp	 DWORD PTR $T93888[ebp], 0
  00395	74 38		 je	 SHORT $L93889
  00397	68 00 00 00 3f	 push	 1056964608		; 3f000000H
  0039c	68 00 00 00 3f	 push	 1056964608		; 3f000000H
  003a1	6a 00		 push	 0
  003a3	68 00 00 00 3f	 push	 1056964608		; 3f000000H
  003a8	68 00 00 80 3e	 push	 1048576000		; 3e800000H
  003ad	68 00 00 80 3f	 push	 1065353216		; 3f800000H
  003b2	8b 45 14	 mov	 eax, DWORD PTR _pTex$[ebp]
  003b5	8b 88 74 09 00
	00		 mov	 ecx, DWORD PTR [eax+2420]
  003bb	51		 push	 ecx
  003bc	8b 8d d8 fe ff
	ff		 mov	 ecx, DWORD PTR $T93888[ebp]
  003c2	e8 00 00 00 00	 call	 ??0CMenuItem@@QAE@PAUIDirect3DTexture8@@MMMMMM@Z ; CMenuItem::CMenuItem
  003c7	89 85 d0 fe ff
	ff		 mov	 DWORD PTR tv245[ebp], eax
  003cd	eb 0a		 jmp	 SHORT $L93890
$L93889:
  003cf	c7 85 d0 fe ff
	ff 00 00 00 00	 mov	 DWORD PTR tv245[ebp], 0
$L93890:
  003d9	8b 55 f8	 mov	 edx, DWORD PTR _this$[ebp]
  003dc	8b 42 08	 mov	 eax, DWORD PTR [edx+8]
  003df	8b 8d d0 fe ff
	ff		 mov	 ecx, DWORD PTR tv245[ebp]
  003e5	89 48 08	 mov	 DWORD PTR [eax+8], ecx
  003e8	8b 95 d0 fe ff
	ff		 mov	 edx, DWORD PTR tv245[ebp]
  003ee	52		 push	 edx
  003ef	8b 4d 10	 mov	 ecx, DWORD PTR _pOM$[ebp]
  003f2	e8 00 00 00 00	 call	 ?RegisterNewOverlay@CScreenOverlayManager@@QAEHPAVCScreenOverlay@@@Z ; CScreenOverlayManager::RegisterNewOverlay

; 125  : 	m_ppMenuItems[2]->m_bActive = m_bActive ;

  003f7	8b 45 f8	 mov	 eax, DWORD PTR _this$[ebp]
  003fa	8b 48 08	 mov	 ecx, DWORD PTR [eax+8]
  003fd	8b 51 08	 mov	 edx, DWORD PTR [ecx+8]
  00400	8b 45 f8	 mov	 eax, DWORD PTR _this$[ebp]
  00403	8b 48 04	 mov	 ecx, DWORD PTR [eax+4]
  00406	89 8a 84 00 00
	00		 mov	 DWORD PTR [edx+132], ecx

; 126  : 	m_ppMenuItems[2]->m_bFrameMoveRequired  = TRUE ;

  0040c	8b 45 f8	 mov	 eax, DWORD PTR _this$[ebp]
  0040f	8b 48 08	 mov	 ecx, DWORD PTR [eax+8]
  00412	8b 51 08	 mov	 edx, DWORD PTR [ecx+8]
  00415	c7 82 d0 00 00
	00 01 00 00 00	 mov	 DWORD PTR [edx+208], 1

; 127  : 
; 128  : 	return S_OK ;

  0041f	33 c0		 xor	 eax, eax

; 129  : }

  00421	5f		 pop	 edi
  00422	5e		 pop	 esi
  00423	5b		 pop	 ebx
  00424	81 c4 30 01 00
	00		 add	 esp, 304		; 00000130H
  0042a	3b ec		 cmp	 ebp, esp
  0042c	e8 00 00 00 00	 call	 __RTC_CheckEsp
  00431	8b e5		 mov	 esp, ebp
  00433	5d		 pop	 ebp
  00434	c2 10 00	 ret	 16			; 00000010H
?RestoreDeviceObjects@CMainMenu@@QAEJPAUIDirect3DDevice8@@MPAVCScreenOverlayManager@@PAVCMenuTextures@@@Z ENDP ; CMainMenu::RestoreDeviceObjects
_TEXT	ENDS
PUBLIC	??0D3DXMATRIX@@QAE@XZ				; D3DXMATRIX::D3DXMATRIX
PUBLIC	?FrameMove@CMainMenu@@QAEJPAUIDirect3DDevice8@@MPAVCScreenOverlayManager@@PAVCUserInput@@PAVCSoundManager@@MH@Z ; CMainMenu::FrameMove
PUBLIC	__real@42700000
PUBLIC	__real@3ccccccd
PUBLIC	__real@00000000
PUBLIC	__real@c3160000
PUBLIC	__real@43160000
PUBLIC	__real@41a00000
EXTRN	?PlaySFX@CSoundManager@@QAEHH@Z:NEAR		; CSoundManager::PlaySFX
EXTRN	?StartGame@Cx7@@QAEXXZ:NEAR			; Cx7::StartGame
EXTRN	?SetSelected@CMenuItem@@QAEHHPAUOVERLAYVERTEX@@@Z:NEAR ; CMenuItem::SetSelected
EXTRN	@_RTC_CheckStackVars@8:NEAR
EXTRN	_D3DXMatrixMultiply@12:NEAR
EXTRN	_D3DXMatrixTranslation@16:NEAR
EXTRN	_D3DXMatrixRotationX@8:NEAR
EXTRN	_D3DXMatrixRotationY@8:NEAR
EXTRN	_D3DXMatrixRotationZ@8:NEAR
;	COMDAT __real@42700000
CONST	SEGMENT
__real@42700000 DD 042700000r			; 60
CONST	ENDS
;	COMDAT __real@3ccccccd
CONST	SEGMENT
__real@3ccccccd DD 03ccccccdr			; 0.025
CONST	ENDS
;	COMDAT __real@00000000
CONST	SEGMENT
__real@00000000 DD 000000000r			; 0
CONST	ENDS
;	COMDAT __real@c3160000
CONST	SEGMENT
__real@c3160000 DD 0c3160000r			; -150
CONST	ENDS
;	COMDAT __real@43160000
CONST	SEGMENT
__real@43160000 DD 043160000r			; 150
CONST	ENDS
;	COMDAT __real@41a00000
CONST	SEGMENT
__real@41a00000 DD 041a00000r			; 20
; Function compile flags: /Odt /RTCsu /ZI
CONST	ENDS
;	COMDAT ?FrameMove@CMainMenu@@QAEJPAUIDirect3DDevice8@@MPAVCScreenOverlayManager@@PAVCUserInput@@PAVCSoundManager@@MH@Z
_TEXT	SEGMENT
tv140 = -512
_matR$ = -312
_matR3$ = -240
_matR2$ = -168
_matR1$ = -96
_i$ = -20
_this$ = -8
_pDev$ = 8
_fFPS$ = 12
_pOM$ = 16
_pIn$ = 20
_pSM$ = 24
_fElapsedTime$ = 28
_bAutoStart$ = 32
?FrameMove@CMainMenu@@QAEJPAUIDirect3DDevice8@@MPAVCScreenOverlayManager@@PAVCUserInput@@PAVCSoundManager@@MH@Z PROC NEAR ; CMainMenu::FrameMove, COMDAT
; _this$ = ecx

; 132  : {

  00000	55		 push	 ebp
  00001	8b ec		 mov	 ebp, esp
  00003	81 ec 00 02 00
	00		 sub	 esp, 512		; 00000200H
  00009	53		 push	 ebx
  0000a	56		 push	 esi
  0000b	57		 push	 edi
  0000c	51		 push	 ecx
  0000d	8d bd 00 fe ff
	ff		 lea	 edi, DWORD PTR [ebp-512]
  00013	b9 80 00 00 00	 mov	 ecx, 128		; 00000080H
  00018	b8 cc cc cc cc	 mov	 eax, -858993460		; ccccccccH
  0001d	f3 ab		 rep stosd
  0001f	59		 pop	 ecx
  00020	89 4d f8	 mov	 DWORD PTR _this$[ebp], ecx

; 133  : 	int i ;
; 134  : 	static float fRot1 = 0.0f, fRot2 = 0.0f, fRot3 = 0.0f ;
; 135  : 	xMat matR1, matR2, matR3, matR ;

  00023	8d 4d a0	 lea	 ecx, DWORD PTR _matR1$[ebp]
  00026	e8 00 00 00 00	 call	 ??0D3DXMATRIX@@QAE@XZ	; D3DXMATRIX::D3DXMATRIX
  0002b	8d 8d 58 ff ff
	ff		 lea	 ecx, DWORD PTR _matR2$[ebp]
  00031	e8 00 00 00 00	 call	 ??0D3DXMATRIX@@QAE@XZ	; D3DXMATRIX::D3DXMATRIX
  00036	8d 8d 10 ff ff
	ff		 lea	 ecx, DWORD PTR _matR3$[ebp]
  0003c	e8 00 00 00 00	 call	 ??0D3DXMATRIX@@QAE@XZ	; D3DXMATRIX::D3DXMATRIX
  00041	8d 8d c8 fe ff
	ff		 lea	 ecx, DWORD PTR _matR$[ebp]
  00047	e8 00 00 00 00	 call	 ??0D3DXMATRIX@@QAE@XZ	; D3DXMATRIX::D3DXMATRIX

; 136  : 
; 137  : // animate the title & backg
; 138  : 	if ((fRot1 += (0.025f) * (60.0f/fFPS)) >= g_PI * 2.0f) fRot1 = 0.0f ;

  0004c	d9 05 00 00 00
	00		 fld	 DWORD PTR __real@42700000
  00052	d8 75 0c	 fdiv	 DWORD PTR _fFPS$[ebp]
  00055	d8 0d 00 00 00
	00		 fmul	 DWORD PTR __real@3ccccccd
  0005b	d8 05 00 00 00
	00		 fadd	 DWORD PTR ?fRot1@?1??FrameMove@CMainMenu@@QAEJPAUIDirect3DDevice8@@MPAVCScreenOverlayManager@@PAVCUserInput@@PAVCSoundManager@@MH@Z@4MA
  00061	d9 15 00 00 00
	00		 fst	 DWORD PTR ?fRot1@?1??FrameMove@CMainMenu@@QAEJPAUIDirect3DDevice8@@MPAVCScreenOverlayManager@@PAVCUserInput@@PAVCSoundManager@@MH@Z@4MA
  00067	d9 05 00 00 00
	00		 fld	 DWORD PTR _g_PI
  0006d	dc c0		 fadd	 ST(0), ST(0)
  0006f	de d9		 fcompp
  00071	df e0		 fnstsw	 ax
  00073	f6 c4 41	 test	 ah, 65			; 00000041H
  00076	7a 0a		 jp	 SHORT $L93748
  00078	c7 05 00 00 00
	00 00 00 00 00	 mov	 DWORD PTR ?fRot1@?1??FrameMove@CMainMenu@@QAEJPAUIDirect3DDevice8@@MPAVCScreenOverlayManager@@PAVCUserInput@@PAVCSoundManager@@MH@Z@4MA, 0
$L93748:

; 139  : 	if ((fRot2 += (0.00f) * (60.0f/fFPS)) >= g_PI * 2.0f) fRot2 = 0.0f ;

  00082	d9 05 00 00 00
	00		 fld	 DWORD PTR __real@42700000
  00088	d8 75 0c	 fdiv	 DWORD PTR _fFPS$[ebp]
  0008b	d8 0d 00 00 00
	00		 fmul	 DWORD PTR __real@00000000
  00091	d8 05 00 00 00
	00		 fadd	 DWORD PTR ?fRot2@?1??FrameMove@CMainMenu@@QAEJPAUIDirect3DDevice8@@MPAVCScreenOverlayManager@@PAVCUserInput@@PAVCSoundManager@@MH@Z@4MA
  00097	d9 15 00 00 00
	00		 fst	 DWORD PTR ?fRot2@?1??FrameMove@CMainMenu@@QAEJPAUIDirect3DDevice8@@MPAVCScreenOverlayManager@@PAVCUserInput@@PAVCSoundManager@@MH@Z@4MA
  0009d	d9 05 00 00 00
	00		 fld	 DWORD PTR _g_PI
  000a3	dc c0		 fadd	 ST(0), ST(0)
  000a5	de d9		 fcompp
  000a7	df e0		 fnstsw	 ax
  000a9	f6 c4 41	 test	 ah, 65			; 00000041H
  000ac	7a 0a		 jp	 SHORT $L93749
  000ae	c7 05 00 00 00
	00 00 00 00 00	 mov	 DWORD PTR ?fRot2@?1??FrameMove@CMainMenu@@QAEJPAUIDirect3DDevice8@@MPAVCScreenOverlayManager@@PAVCUserInput@@PAVCSoundManager@@MH@Z@4MA, 0
$L93749:

; 140  : 	if ((fRot3 += (0.00f) * (60.0f/fFPS)) >= g_PI * 2.0f) fRot3 = 0.0f ;

  000b8	d9 05 00 00 00
	00		 fld	 DWORD PTR __real@42700000
  000be	d8 75 0c	 fdiv	 DWORD PTR _fFPS$[ebp]
  000c1	d8 0d 00 00 00
	00		 fmul	 DWORD PTR __real@00000000
  000c7	d8 05 00 00 00
	00		 fadd	 DWORD PTR ?fRot3@?1??FrameMove@CMainMenu@@QAEJPAUIDirect3DDevice8@@MPAVCScreenOverlayManager@@PAVCUserInput@@PAVCSoundManager@@MH@Z@4MA
  000cd	d9 15 00 00 00
	00		 fst	 DWORD PTR ?fRot3@?1??FrameMove@CMainMenu@@QAEJPAUIDirect3DDevice8@@MPAVCScreenOverlayManager@@PAVCUserInput@@PAVCSoundManager@@MH@Z@4MA
  000d3	d9 05 00 00 00
	00		 fld	 DWORD PTR _g_PI
  000d9	dc c0		 fadd	 ST(0), ST(0)
  000db	de d9		 fcompp
  000dd	df e0		 fnstsw	 ax
  000df	f6 c4 41	 test	 ah, 65			; 00000041H
  000e2	7a 0a		 jp	 SHORT $L93750
  000e4	c7 05 00 00 00
	00 00 00 00 00	 mov	 DWORD PTR ?fRot3@?1??FrameMove@CMainMenu@@QAEJPAUIDirect3DDevice8@@MPAVCScreenOverlayManager@@PAVCUserInput@@PAVCSoundManager@@MH@Z@4MA, 0
$L93750:

; 141  : 	matR1 = matR2 = matR3 = g_matIdent ;

  000ee	b9 10 00 00 00	 mov	 ecx, 16			; 00000010H
  000f3	be 00 00 00 00	 mov	 esi, OFFSET FLAT:?g_matIdent@@3UD3DXMATRIX@@A ; g_matIdent
  000f8	8d bd 10 ff ff
	ff		 lea	 edi, DWORD PTR _matR3$[ebp]
  000fe	f3 a5		 rep movsd
  00100	b9 10 00 00 00	 mov	 ecx, 16			; 00000010H
  00105	8d b5 10 ff ff
	ff		 lea	 esi, DWORD PTR _matR3$[ebp]
  0010b	8d bd 58 ff ff
	ff		 lea	 edi, DWORD PTR _matR2$[ebp]
  00111	f3 a5		 rep movsd
  00113	b9 10 00 00 00	 mov	 ecx, 16			; 00000010H
  00118	8d b5 58 ff ff
	ff		 lea	 esi, DWORD PTR _matR2$[ebp]
  0011e	8d 7d a0	 lea	 edi, DWORD PTR _matR1$[ebp]
  00121	f3 a5		 rep movsd

; 142  : 	D3DXMatrixRotationY(&matR1, fRot1) ;

  00123	a1 00 00 00 00	 mov	 eax, DWORD PTR ?fRot1@?1??FrameMove@CMainMenu@@QAEJPAUIDirect3DDevice8@@MPAVCScreenOverlayManager@@PAVCUserInput@@PAVCSoundManager@@MH@Z@4MA
  00128	50		 push	 eax
  00129	8d 4d a0	 lea	 ecx, DWORD PTR _matR1$[ebp]
  0012c	51		 push	 ecx
  0012d	e8 00 00 00 00	 call	 _D3DXMatrixRotationY@8

; 143  : 	D3DXMatrixRotationX(&matR2, fRot2) ;

  00132	a1 00 00 00 00	 mov	 eax, DWORD PTR ?fRot2@?1??FrameMove@CMainMenu@@QAEJPAUIDirect3DDevice8@@MPAVCScreenOverlayManager@@PAVCUserInput@@PAVCSoundManager@@MH@Z@4MA
  00137	50		 push	 eax
  00138	8d 8d 58 ff ff
	ff		 lea	 ecx, DWORD PTR _matR2$[ebp]
  0013e	51		 push	 ecx
  0013f	e8 00 00 00 00	 call	 _D3DXMatrixRotationX@8

; 144  : 	D3DXMatrixRotationZ(&matR3, fRot3) ;

  00144	a1 00 00 00 00	 mov	 eax, DWORD PTR ?fRot3@?1??FrameMove@CMainMenu@@QAEJPAUIDirect3DDevice8@@MPAVCScreenOverlayManager@@PAVCUserInput@@PAVCSoundManager@@MH@Z@4MA
  00149	50		 push	 eax
  0014a	8d 8d 10 ff ff
	ff		 lea	 ecx, DWORD PTR _matR3$[ebp]
  00150	51		 push	 ecx
  00151	e8 00 00 00 00	 call	 _D3DXMatrixRotationZ@8

; 145  : 	D3DXMatrixMultiply(&matR, &matR1, &matR2) ;

  00156	8d 85 58 ff ff
	ff		 lea	 eax, DWORD PTR _matR2$[ebp]
  0015c	50		 push	 eax
  0015d	8d 4d a0	 lea	 ecx, DWORD PTR _matR1$[ebp]
  00160	51		 push	 ecx
  00161	8d 95 c8 fe ff
	ff		 lea	 edx, DWORD PTR _matR$[ebp]
  00167	52		 push	 edx
  00168	e8 00 00 00 00	 call	 _D3DXMatrixMultiply@12

; 146  : 	D3DXMatrixMultiply(&matR, &matR, &matR3) ;

  0016d	8d 85 10 ff ff
	ff		 lea	 eax, DWORD PTR _matR3$[ebp]
  00173	50		 push	 eax
  00174	8d 8d c8 fe ff
	ff		 lea	 ecx, DWORD PTR _matR$[ebp]
  0017a	51		 push	 ecx
  0017b	8d 95 c8 fe ff
	ff		 lea	 edx, DWORD PTR _matR$[ebp]
  00181	52		 push	 edx
  00182	e8 00 00 00 00	 call	 _D3DXMatrixMultiply@12

; 147  : 	m_pBackG1->m_matWorld = matR ;

  00187	8b 45 f8	 mov	 eax, DWORD PTR _this$[ebp]
  0018a	8b 78 10	 mov	 edi, DWORD PTR [eax+16]
  0018d	81 c7 88 00 00
	00		 add	 edi, 136		; 00000088H
  00193	b9 10 00 00 00	 mov	 ecx, 16			; 00000010H
  00198	8d b5 c8 fe ff
	ff		 lea	 esi, DWORD PTR _matR$[ebp]
  0019e	f3 a5		 rep movsd

; 148  : 	m_pBackG2->m_matWorld = matR ;

  001a0	8b 45 f8	 mov	 eax, DWORD PTR _this$[ebp]
  001a3	8b 78 14	 mov	 edi, DWORD PTR [eax+20]
  001a6	81 c7 88 00 00
	00		 add	 edi, 136		; 00000088H
  001ac	b9 10 00 00 00	 mov	 ecx, 16			; 00000010H
  001b1	8d b5 c8 fe ff
	ff		 lea	 esi, DWORD PTR _matR$[ebp]
  001b7	f3 a5		 rep movsd

; 149  : 	m_pTitle->m_matWorld = matR ;

  001b9	8b 45 f8	 mov	 eax, DWORD PTR _this$[ebp]
  001bc	8b 78 18	 mov	 edi, DWORD PTR [eax+24]
  001bf	81 c7 88 00 00
	00		 add	 edi, 136		; 00000088H
  001c5	b9 10 00 00 00	 mov	 ecx, 16			; 00000010H
  001ca	8d b5 c8 fe ff
	ff		 lea	 esi, DWORD PTR _matR$[ebp]
  001d0	f3 a5		 rep movsd

; 150  : 
; 151  : 	switch( m_msState )
; 152  : 	{

  001d2	8b 45 f8	 mov	 eax, DWORD PTR _this$[ebp]
  001d5	8b 48 24	 mov	 ecx, DWORD PTR [eax+36]
  001d8	89 8d 00 fe ff
	ff		 mov	 DWORD PTR tv140[ebp], ecx
  001de	83 bd 00 fe ff
	ff 01		 cmp	 DWORD PTR tv140[ebp], 1
  001e5	74 12		 je	 SHORT $L93755
  001e7	83 bd 00 fe ff
	ff 02		 cmp	 DWORD PTR tv140[ebp], 2
  001ee	0f 84 d4 01 00
	00		 je	 $L93770
  001f4	e9 de 02 00 00	 jmp	 $L93752
$L93755:

; 153  : 		case MS_IDLE:
; 154  : 		// move current item
; 155  : 			m_fMouseYMovement -= pIn->m_fMouseY ;

  001f9	8b 45 f8	 mov	 eax, DWORD PTR _this$[ebp]
  001fc	8b 4d 14	 mov	 ecx, DWORD PTR _pIn$[ebp]
  001ff	d9 40 20	 fld	 DWORD PTR [eax+32]
  00202	d8 a1 58 06 00
	00		 fsub	 DWORD PTR [ecx+1624]
  00208	8b 55 f8	 mov	 edx, DWORD PTR _this$[ebp]
  0020b	d9 5a 20	 fstp	 DWORD PTR [edx+32]

; 156  : 			if( pIn->m_bKB_Pressed[DIK_UP] ||
; 157  : 				pIn->m_bKB_Pressed[DIK_NUMPAD8] ||
; 158  : 				m_fMouseYMovement < -150.0f || 
; 159  : 				pIn->m_bMouseWheelUp )

  0020e	8b 45 14	 mov	 eax, DWORD PTR _pIn$[ebp]
  00211	83 b8 28 05 00
	00 00		 cmp	 DWORD PTR [eax+1320], 0
  00218	75 2d		 jne	 SHORT $L93757
  0021a	8b 45 14	 mov	 eax, DWORD PTR _pIn$[ebp]
  0021d	83 b8 28 03 00
	00 00		 cmp	 DWORD PTR [eax+808], 0
  00224	75 21		 jne	 SHORT $L93757
  00226	8b 45 f8	 mov	 eax, DWORD PTR _this$[ebp]
  00229	d9 40 20	 fld	 DWORD PTR [eax+32]
  0022c	d8 1d 00 00 00
	00		 fcomp	 DWORD PTR __real@c3160000
  00232	df e0		 fnstsw	 ax
  00234	f6 c4 05	 test	 ah, 5
  00237	7b 0e		 jnp	 SHORT $L93757
  00239	8b 45 14	 mov	 eax, DWORD PTR _pIn$[ebp]
  0023c	0f b6 88 6c 06
	00 00		 movzx	 ecx, BYTE PTR [eax+1644]
  00243	85 c9		 test	 ecx, ecx
  00245	74 3b		 je	 SHORT $L93756
$L93757:

; 160  : 			{
; 161  : 				m_fMouseYMovement = 0.0f ;

  00247	8b 45 f8	 mov	 eax, DWORD PTR _this$[ebp]
  0024a	c7 40 20 00 00
	00 00		 mov	 DWORD PTR [eax+32], 0

; 162  : 				if (--m_ndxMenuSelected < 0)

  00251	8b 45 f8	 mov	 eax, DWORD PTR _this$[ebp]
  00254	8b 48 1c	 mov	 ecx, DWORD PTR [eax+28]
  00257	83 e9 01	 sub	 ecx, 1
  0025a	8b 55 f8	 mov	 edx, DWORD PTR _this$[ebp]
  0025d	89 4a 1c	 mov	 DWORD PTR [edx+28], ecx
  00260	8b 45 f8	 mov	 eax, DWORD PTR _this$[ebp]
  00263	83 78 1c 00	 cmp	 DWORD PTR [eax+28], 0
  00267	7d 0f		 jge	 SHORT $L93758

; 163  : 					m_ndxMenuSelected = m_nMenuItems - 1 ;

  00269	8b 45 f8	 mov	 eax, DWORD PTR _this$[ebp]
  0026c	8b 48 0c	 mov	 ecx, DWORD PTR [eax+12]
  0026f	83 e9 01	 sub	 ecx, 1
  00272	8b 55 f8	 mov	 edx, DWORD PTR _this$[ebp]
  00275	89 4a 1c	 mov	 DWORD PTR [edx+28], ecx
$L93758:

; 164  : 				pSM->PlaySFX( SFX_MENU_MOVE );

  00278	6a 00		 push	 0
  0027a	8b 4d 18	 mov	 ecx, DWORD PTR _pSM$[ebp]
  0027d	e8 00 00 00 00	 call	 ?PlaySFX@CSoundManager@@QAEHH@Z ; CSoundManager::PlaySFX
$L93756:

; 165  : 			}
; 166  : 			if( pIn->m_bKB_Pressed[DIK_DOWN] ||
; 167  : 				pIn->m_bKB_Pressed[DIK_NUMPAD2] ||
; 168  : 				m_fMouseYMovement > +150.0f ||
; 169  : 				pIn->m_bMouseWheelDown )

  00282	8b 45 14	 mov	 eax, DWORD PTR _pIn$[ebp]
  00285	83 b8 48 05 00
	00 00		 cmp	 DWORD PTR [eax+1352], 0
  0028c	75 2d		 jne	 SHORT $L93760
  0028e	8b 45 14	 mov	 eax, DWORD PTR _pIn$[ebp]
  00291	83 b8 48 03 00
	00 00		 cmp	 DWORD PTR [eax+840], 0
  00298	75 21		 jne	 SHORT $L93760
  0029a	8b 45 f8	 mov	 eax, DWORD PTR _this$[ebp]
  0029d	d9 40 20	 fld	 DWORD PTR [eax+32]
  002a0	d8 1d 00 00 00
	00		 fcomp	 DWORD PTR __real@43160000
  002a6	df e0		 fnstsw	 ax
  002a8	f6 c4 41	 test	 ah, 65			; 00000041H
  002ab	74 0e		 je	 SHORT $L93760
  002ad	8b 45 14	 mov	 eax, DWORD PTR _pIn$[ebp]
  002b0	0f b6 88 6d 06
	00 00		 movzx	 ecx, BYTE PTR [eax+1645]
  002b7	85 c9		 test	 ecx, ecx
  002b9	74 3e		 je	 SHORT $L93759
$L93760:

; 170  : 			{
; 171  : 				m_fMouseYMovement = 0.0f ;

  002bb	8b 45 f8	 mov	 eax, DWORD PTR _this$[ebp]
  002be	c7 40 20 00 00
	00 00		 mov	 DWORD PTR [eax+32], 0

; 172  : 				if (++m_ndxMenuSelected > m_nMenuItems - 1)

  002c5	8b 45 f8	 mov	 eax, DWORD PTR _this$[ebp]
  002c8	8b 48 1c	 mov	 ecx, DWORD PTR [eax+28]
  002cb	83 c1 01	 add	 ecx, 1
  002ce	8b 55 f8	 mov	 edx, DWORD PTR _this$[ebp]
  002d1	89 4a 1c	 mov	 DWORD PTR [edx+28], ecx
  002d4	8b 45 f8	 mov	 eax, DWORD PTR _this$[ebp]
  002d7	8b 48 0c	 mov	 ecx, DWORD PTR [eax+12]
  002da	83 e9 01	 sub	 ecx, 1
  002dd	8b 55 f8	 mov	 edx, DWORD PTR _this$[ebp]
  002e0	39 4a 1c	 cmp	 DWORD PTR [edx+28], ecx
  002e3	7e 0a		 jle	 SHORT $L93761

; 173  : 					m_ndxMenuSelected = 0 ;

  002e5	8b 45 f8	 mov	 eax, DWORD PTR _this$[ebp]
  002e8	c7 40 1c 00 00
	00 00		 mov	 DWORD PTR [eax+28], 0
$L93761:

; 174  : 				pSM->PlaySFX( SFX_MENU_MOVE );

  002ef	6a 00		 push	 0
  002f1	8b 4d 18	 mov	 ecx, DWORD PTR _pSM$[ebp]
  002f4	e8 00 00 00 00	 call	 ?PlaySFX@CSoundManager@@QAEHH@Z ; CSoundManager::PlaySFX
$L93759:

; 175  : 			}
; 176  : 
; 177  : 		// update highlight
; 178  : 			for ( i = 0 ; i < m_nMenuItems ; i ++)

  002f9	c7 45 ec 00 00
	00 00		 mov	 DWORD PTR _i$[ebp], 0
  00300	eb 09		 jmp	 SHORT $L93762
$L93763:
  00302	8b 45 ec	 mov	 eax, DWORD PTR _i$[ebp]
  00305	83 c0 01	 add	 eax, 1
  00308	89 45 ec	 mov	 DWORD PTR _i$[ebp], eax
$L93762:
  0030b	8b 45 f8	 mov	 eax, DWORD PTR _this$[ebp]
  0030e	8b 4d ec	 mov	 ecx, DWORD PTR _i$[ebp]
  00311	3b 48 0c	 cmp	 ecx, DWORD PTR [eax+12]
  00314	7d 3b		 jge	 SHORT $L93764

; 179  : 				if (m_ppMenuItems[i])

  00316	8b 45 f8	 mov	 eax, DWORD PTR _this$[ebp]
  00319	8b 48 08	 mov	 ecx, DWORD PTR [eax+8]
  0031c	8b 55 ec	 mov	 edx, DWORD PTR _i$[ebp]
  0031f	83 3c 91 00	 cmp	 DWORD PTR [ecx+edx*4], 0
  00323	74 2a		 je	 SHORT $L93765

; 180  : 					m_ppMenuItems[i]->SetSelected(m_ndxMenuSelected == i, pOM->m_pVBVertices) ;

  00325	8b 45 10	 mov	 eax, DWORD PTR _pOM$[ebp]
  00328	8b 88 94 02 00
	00		 mov	 ecx, DWORD PTR [eax+660]
  0032e	51		 push	 ecx
  0032f	8b 55 f8	 mov	 edx, DWORD PTR _this$[ebp]
  00332	8b 42 1c	 mov	 eax, DWORD PTR [edx+28]
  00335	2b 45 ec	 sub	 eax, DWORD PTR _i$[ebp]
  00338	f7 d8		 neg	 eax
  0033a	1b c0		 sbb	 eax, eax
  0033c	40		 inc	 eax
  0033d	50		 push	 eax
  0033e	8b 4d f8	 mov	 ecx, DWORD PTR _this$[ebp]
  00341	8b 51 08	 mov	 edx, DWORD PTR [ecx+8]
  00344	8b 45 ec	 mov	 eax, DWORD PTR _i$[ebp]
  00347	8b 0c 82	 mov	 ecx, DWORD PTR [edx+eax*4]
  0034a	e8 00 00 00 00	 call	 ?SetSelected@CMenuItem@@QAEHHPAUOVERLAYVERTEX@@@Z ; CMenuItem::SetSelected
$L93765:

; 181  : 
; 182  : 		// test for selection
; 183  : 			if (pIn->m_bKB_Pressed[DIK_RETURN] ||

  0034f	eb b1		 jmp	 SHORT $L93763
$L93764:

; 184  : 				pIn->m_bKB_Pressed[DIK_NUMPADENTER] ||
; 185  : 				pIn->m_bKB_Pressed[DIK_SPACE] ||
; 186  : 				pIn->m_bMouseLB || 
; 187  : 				bAutoStart )

  00351	8b 45 14	 mov	 eax, DWORD PTR _pIn$[ebp]
  00354	83 b8 78 02 00
	00 00		 cmp	 DWORD PTR [eax+632], 0
  0035b	75 2a		 jne	 SHORT $L93767
  0035d	8b 45 14	 mov	 eax, DWORD PTR _pIn$[ebp]
  00360	83 b8 78 04 00
	00 00		 cmp	 DWORD PTR [eax+1144], 0
  00367	75 1e		 jne	 SHORT $L93767
  00369	8b 45 14	 mov	 eax, DWORD PTR _pIn$[ebp]
  0036c	83 b8 ec 02 00
	00 00		 cmp	 DWORD PTR [eax+748], 0
  00373	75 12		 jne	 SHORT $L93767
  00375	8b 45 14	 mov	 eax, DWORD PTR _pIn$[ebp]
  00378	83 b8 60 06 00
	00 00		 cmp	 DWORD PTR [eax+1632], 0
  0037f	75 06		 jne	 SHORT $L93767
  00381	83 7d 20 00	 cmp	 DWORD PTR _bAutoStart$[ebp], 0
  00385	74 3c		 je	 SHORT $L93766
$L93767:

; 188  : 			{
; 189  : 				if( m_ndxMenuSelected == 0 || m_ndxMenuSelected == 2 )

  00387	8b 45 f8	 mov	 eax, DWORD PTR _this$[ebp]
  0038a	83 78 1c 00	 cmp	 DWORD PTR [eax+28], 0
  0038e	74 09		 je	 SHORT $L93769
  00390	8b 45 f8	 mov	 eax, DWORD PTR _this$[ebp]
  00393	83 78 1c 02	 cmp	 DWORD PTR [eax+28], 2
  00397	75 2a		 jne	 SHORT $L93766
$L93769:

; 190  : 				{
; 191  : 					pSM->PlaySFX( SFX_MENU_SELECT );

  00399	6a 01		 push	 1
  0039b	8b 4d 18	 mov	 ecx, DWORD PTR _pSM$[ebp]
  0039e	e8 00 00 00 00	 call	 ?PlaySFX@CSoundManager@@QAEHH@Z ; CSoundManager::PlaySFX

; 192  : 					m_msState = MS_OUTRO ;

  003a3	8b 45 f8	 mov	 eax, DWORD PTR _this$[ebp]
  003a6	c7 40 24 02 00
	00 00		 mov	 DWORD PTR [eax+36], 2

; 193  : 					m_fOutroPlaytime = 0.0f ;

  003ad	8b 45 f8	 mov	 eax, DWORD PTR _this$[ebp]
  003b0	c7 40 2c 00 00
	00 00		 mov	 DWORD PTR [eax+44], 0

; 194  : 					m_ndxSelected = m_ndxMenuSelected ;

  003b7	8b 45 f8	 mov	 eax, DWORD PTR _this$[ebp]
  003ba	8b 4d f8	 mov	 ecx, DWORD PTR _this$[ebp]
  003bd	8b 51 1c	 mov	 edx, DWORD PTR [ecx+28]
  003c0	89 50 28	 mov	 DWORD PTR [eax+40], edx
$L93766:

; 195  : 				}
; 196  : 			}
; 197  : 			
; 198  : 			break ;

  003c3	e9 0f 01 00 00	 jmp	 $L93752
$L93770:

; 199  : 
; 200  : 		case MS_OUTRO:
; 201  : 		// spin non-picked menuitems
; 202  : 			m_fOutroPlaytime += (1.0f/fFPS) ;

  003c8	d9 05 00 00 00
	00		 fld	 DWORD PTR __real@3f800000
  003ce	d8 75 0c	 fdiv	 DWORD PTR _fFPS$[ebp]
  003d1	8b 45 f8	 mov	 eax, DWORD PTR _this$[ebp]
  003d4	d8 40 2c	 fadd	 DWORD PTR [eax+44]
  003d7	8b 4d f8	 mov	 ecx, DWORD PTR _this$[ebp]
  003da	d9 59 2c	 fstp	 DWORD PTR [ecx+44]

; 203  : 			for( i = 0 ; i < m_nMenuItems ; i++ )

  003dd	c7 45 ec 00 00
	00 00		 mov	 DWORD PTR _i$[ebp], 0
  003e4	eb 09		 jmp	 SHORT $L93771
$L93772:
  003e6	8b 45 ec	 mov	 eax, DWORD PTR _i$[ebp]
  003e9	83 c0 01	 add	 eax, 1
  003ec	89 45 ec	 mov	 DWORD PTR _i$[ebp], eax
$L93771:
  003ef	8b 45 f8	 mov	 eax, DWORD PTR _this$[ebp]
  003f2	8b 4d ec	 mov	 ecx, DWORD PTR _i$[ebp]
  003f5	3b 48 0c	 cmp	 ecx, DWORD PTR [eax+12]
  003f8	0f 8d 82 00 00
	00		 jge	 $L93773

; 204  : 				if( i != m_ndxSelected)

  003fe	8b 45 f8	 mov	 eax, DWORD PTR _this$[ebp]
  00401	8b 4d ec	 mov	 ecx, DWORD PTR _i$[ebp]
  00404	3b 48 28	 cmp	 ecx, DWORD PTR [eax+40]
  00407	74 3b		 je	 SHORT $L93774

; 205  : 				{
; 206  : 					D3DXMatrixTranslation( &matR1, 0.0f, 0.0f, m_fOutroPlaytime * 20.0f );

  00409	8b 45 f8	 mov	 eax, DWORD PTR _this$[ebp]
  0040c	d9 40 2c	 fld	 DWORD PTR [eax+44]
  0040f	d8 0d 00 00 00
	00		 fmul	 DWORD PTR __real@41a00000
  00415	51		 push	 ecx
  00416	d9 1c 24	 fstp	 DWORD PTR [esp]
  00419	6a 00		 push	 0
  0041b	6a 00		 push	 0
  0041d	8d 4d a0	 lea	 ecx, DWORD PTR _matR1$[ebp]
  00420	51		 push	 ecx
  00421	e8 00 00 00 00	 call	 _D3DXMatrixTranslation@16

; 207  : 					m_ppMenuItems[i]->m_matWorld = matR1 ;

  00426	8b 45 f8	 mov	 eax, DWORD PTR _this$[ebp]
  00429	8b 48 08	 mov	 ecx, DWORD PTR [eax+8]
  0042c	8b 55 ec	 mov	 edx, DWORD PTR _i$[ebp]
  0042f	8b 3c 91	 mov	 edi, DWORD PTR [ecx+edx*4]
  00432	81 c7 88 00 00
	00		 add	 edi, 136		; 00000088H
  00438	b9 10 00 00 00	 mov	 ecx, 16			; 00000010H
  0043d	8d 75 a0	 lea	 esi, DWORD PTR _matR1$[ebp]
  00440	f3 a5		 rep movsd

; 208  : 				}
; 209  : 				else

  00442	eb 37		 jmp	 SHORT $L93775
$L93774:

; 210  : 				{
; 211  : 					D3DXMatrixTranslation( &matR1, 0.0f, 0.0f, -m_fOutroPlaytime * 2.0f );

  00444	8b 45 f8	 mov	 eax, DWORD PTR _this$[ebp]
  00447	d9 40 2c	 fld	 DWORD PTR [eax+44]
  0044a	d9 e0		 fchs
  0044c	dc c0		 fadd	 ST(0), ST(0)
  0044e	51		 push	 ecx
  0044f	d9 1c 24	 fstp	 DWORD PTR [esp]
  00452	6a 00		 push	 0
  00454	6a 00		 push	 0
  00456	8d 4d a0	 lea	 ecx, DWORD PTR _matR1$[ebp]
  00459	51		 push	 ecx
  0045a	e8 00 00 00 00	 call	 _D3DXMatrixTranslation@16

; 212  : 					m_ppMenuItems[i]->m_matWorld = matR1 ;

  0045f	8b 45 f8	 mov	 eax, DWORD PTR _this$[ebp]
  00462	8b 48 08	 mov	 ecx, DWORD PTR [eax+8]
  00465	8b 55 ec	 mov	 edx, DWORD PTR _i$[ebp]
  00468	8b 3c 91	 mov	 edi, DWORD PTR [ecx+edx*4]
  0046b	81 c7 88 00 00
	00		 add	 edi, 136		; 00000088H
  00471	b9 10 00 00 00	 mov	 ecx, 16			; 00000010H
  00476	8d 75 a0	 lea	 esi, DWORD PTR _matR1$[ebp]
  00479	f3 a5		 rep movsd
$L93775:

; 213  : 				}

  0047b	e9 66 ff ff ff	 jmp	 $L93772
$L93773:

; 214  : 
; 215  : 			if( m_fOutroPlaytime > 1.0f )

  00480	8b 45 f8	 mov	 eax, DWORD PTR _this$[ebp]
  00483	d9 40 2c	 fld	 DWORD PTR [eax+44]
  00486	d8 1d 00 00 00
	00		 fcomp	 DWORD PTR __real@3f800000
  0048c	df e0		 fnstsw	 ax
  0048e	f6 c4 41	 test	 ah, 65			; 00000041H
  00491	75 44		 jne	 SHORT $L93752

; 216  : 			{
; 217  : 				if( m_ndxSelected == 0 ) // play

  00493	8b 45 f8	 mov	 eax, DWORD PTR _this$[ebp]
  00496	83 78 28 00	 cmp	 DWORD PTR [eax+40], 0
  0049a	75 1e		 jne	 SHORT $L93777

; 218  : 				{
; 219  : 					ExitMenu() ;

  0049c	8b 4d f8	 mov	 ecx, DWORD PTR _this$[ebp]
  0049f	e8 00 00 00 00	 call	 ?ExitMenu@CMainMenu@@QAEHXZ ; CMainMenu::ExitMenu

; 220  : 					m_pX7->m_bInMainMenu = FALSE ;

  004a4	8b 45 f8	 mov	 eax, DWORD PTR _this$[ebp]
  004a7	8b 08		 mov	 ecx, DWORD PTR [eax]
  004a9	c6 81 d8 a7 02
	00 00		 mov	 BYTE PTR [ecx+174040], 0

; 221  : 					m_pX7->StartGame() ;

  004b0	8b 45 f8	 mov	 eax, DWORD PTR _this$[ebp]
  004b3	8b 08		 mov	 ecx, DWORD PTR [eax]
  004b5	e8 00 00 00 00	 call	 ?StartGame@Cx7@@QAEXXZ	; Cx7::StartGame
$L93777:

; 222  : 				}
; 223  : 				if( m_ndxSelected == 2 ) // exit

  004ba	8b 45 f8	 mov	 eax, DWORD PTR _this$[ebp]
  004bd	83 78 28 02	 cmp	 DWORD PTR [eax+40], 2
  004c1	75 14		 jne	 SHORT $L93752

; 224  : 				{
; 225  : 					ExitMenu() ;

  004c3	8b 4d f8	 mov	 ecx, DWORD PTR _this$[ebp]
  004c6	e8 00 00 00 00	 call	 ?ExitMenu@CMainMenu@@QAEHXZ ; CMainMenu::ExitMenu

; 226  : 					m_pX7->m_bAppMustExit = TRUE ;

  004cb	8b 45 f8	 mov	 eax, DWORD PTR _this$[ebp]
  004ce	8b 08		 mov	 ecx, DWORD PTR [eax]
  004d0	c6 81 dd a7 02
	00 01		 mov	 BYTE PTR [ecx+174045], 1
$L93752:

; 227  : 				}
; 228  : 			}
; 229  : 			break ;
; 230  : 	}
; 231  : 
; 232  : 	return S_OK ;

  004d7	33 c0		 xor	 eax, eax

; 233  : }

  004d9	52		 push	 edx
  004da	8b cd		 mov	 ecx, ebp
  004dc	50		 push	 eax
  004dd	8d 15 00 00 00
	00		 lea	 edx, DWORD PTR $L93914
  004e3	e8 00 00 00 00	 call	 @_RTC_CheckStackVars@8
  004e8	58		 pop	 eax
  004e9	5a		 pop	 edx
  004ea	5f		 pop	 edi
  004eb	5e		 pop	 esi
  004ec	5b		 pop	 ebx
  004ed	81 c4 00 02 00
	00		 add	 esp, 512		; 00000200H
  004f3	3b ec		 cmp	 ebp, esp
  004f5	e8 00 00 00 00	 call	 __RTC_CheckEsp
  004fa	8b e5		 mov	 esp, ebp
  004fc	5d		 pop	 ebp
  004fd	c2 1c 00	 ret	 28			; 0000001cH
$L93914:
  00500	04 00 00 00	 DD	 4
  00504	00 00 00 00	 DD	 $L93913
$L93913:
  00508	a0 ff ff ff	 DD	 -96			; ffffffa0H
  0050c	40 00 00 00	 DD	 64			; 00000040H
  00510	00 00 00 00	 DD	 $L93909
  00514	58 ff ff ff	 DD	 -168			; ffffff58H
  00518	40 00 00 00	 DD	 64			; 00000040H
  0051c	00 00 00 00	 DD	 $L93910
  00520	10 ff ff ff	 DD	 -240			; ffffff10H
  00524	40 00 00 00	 DD	 64			; 00000040H
  00528	00 00 00 00	 DD	 $L93911
  0052c	c8 fe ff ff	 DD	 -312			; fffffec8H
  00530	40 00 00 00	 DD	 64			; 00000040H
  00534	00 00 00 00	 DD	 $L93912
$L93912:
  00538	6d		 DB	 109			; 0000006dH
  00539	61		 DB	 97			; 00000061H
  0053a	74		 DB	 116			; 00000074H
  0053b	52		 DB	 82			; 00000052H
  0053c	00		 DB	 0
$L93911:
  0053d	6d		 DB	 109			; 0000006dH
  0053e	61		 DB	 97			; 00000061H
  0053f	74		 DB	 116			; 00000074H
  00540	52		 DB	 82			; 00000052H
  00541	33		 DB	 51			; 00000033H
  00542	00		 DB	 0
$L93910:
  00543	6d		 DB	 109			; 0000006dH
  00544	61		 DB	 97			; 00000061H
  00545	74		 DB	 116			; 00000074H
  00546	52		 DB	 82			; 00000052H
  00547	32		 DB	 50			; 00000032H
  00548	00		 DB	 0
$L93909:
  00549	6d		 DB	 109			; 0000006dH
  0054a	61		 DB	 97			; 00000061H
  0054b	74		 DB	 116			; 00000074H
  0054c	52		 DB	 82			; 00000052H
  0054d	31		 DB	 49			; 00000031H
  0054e	00		 DB	 0
?FrameMove@CMainMenu@@QAEJPAUIDirect3DDevice8@@MPAVCScreenOverlayManager@@PAVCUserInput@@PAVCSoundManager@@MH@Z ENDP ; CMainMenu::FrameMove
_TEXT	ENDS
PUBLIC	??_GCScreenOverlay@@QAEPAXI@Z			; CScreenOverlay::`scalar deleting destructor'
PUBLIC	??_GCMenuScrollingBackG@@QAEPAXI@Z		; CMenuScrollingBackG::`scalar deleting destructor'
PUBLIC	?InvalidateDeviceObjects@CMainMenu@@QAEJXZ	; CMainMenu::InvalidateDeviceObjects
PUBLIC	??_GCMenuItem@@QAEPAXI@Z			; CMenuItem::`scalar deleting destructor'
; Function compile flags: /Odt /RTCsu /ZI
;	COMDAT ?InvalidateDeviceObjects@CMainMenu@@QAEJXZ
_TEXT	SEGMENT
tv137 = -316
tv89 = -316
tv80 = -316
tv71 = -316
$T93931 = -308
$T93930 = -296
$T93927 = -284
$T93926 = -272
$T93923 = -260
$T93922 = -248
$T93919 = -236
$T93918 = -224
_i$93792 = -20
_this$ = -8
?InvalidateDeviceObjects@CMainMenu@@QAEJXZ PROC NEAR	; CMainMenu::InvalidateDeviceObjects, COMDAT
; _this$ = ecx

; 236  : {

  00000	55		 push	 ebp
  00001	8b ec		 mov	 ebp, esp
  00003	81 ec 3c 01 00
	00		 sub	 esp, 316		; 0000013cH
  00009	53		 push	 ebx
  0000a	56		 push	 esi
  0000b	57		 push	 edi
  0000c	51		 push	 ecx
  0000d	8d bd c4 fe ff
	ff		 lea	 edi, DWORD PTR [ebp-316]
  00013	b9 4f 00 00 00	 mov	 ecx, 79			; 0000004fH
  00018	b8 cc cc cc cc	 mov	 eax, -858993460		; ccccccccH
  0001d	f3 ab		 rep stosd
  0001f	59		 pop	 ecx
  00020	89 4d f8	 mov	 DWORD PTR _this$[ebp], ecx

; 237  : 	SAFE_DELETE( m_pBackG1 )

  00023	8b 45 f8	 mov	 eax, DWORD PTR _this$[ebp]
  00026	83 78 10 00	 cmp	 DWORD PTR [eax+16], 0
  0002a	74 4a		 je	 SHORT $L93783
  0002c	8b 45 f8	 mov	 eax, DWORD PTR _this$[ebp]
  0002f	8b 48 10	 mov	 ecx, DWORD PTR [eax+16]
  00032	89 8d 14 ff ff
	ff		 mov	 DWORD PTR $T93919[ebp], ecx
  00038	8b 95 14 ff ff
	ff		 mov	 edx, DWORD PTR $T93919[ebp]
  0003e	89 95 20 ff ff
	ff		 mov	 DWORD PTR $T93918[ebp], edx
  00044	83 bd 20 ff ff
	ff 00		 cmp	 DWORD PTR $T93918[ebp], 0
  0004b	74 15		 je	 SHORT $L93920
  0004d	6a 01		 push	 1
  0004f	8b 8d 20 ff ff
	ff		 mov	 ecx, DWORD PTR $T93918[ebp]
  00055	e8 00 00 00 00	 call	 ??_GCMenuScrollingBackG@@QAEPAXI@Z
  0005a	89 85 c4 fe ff
	ff		 mov	 DWORD PTR tv71[ebp], eax
  00060	eb 0a		 jmp	 SHORT $L93921
$L93920:
  00062	c7 85 c4 fe ff
	ff 00 00 00 00	 mov	 DWORD PTR tv71[ebp], 0
$L93921:
  0006c	8b 45 f8	 mov	 eax, DWORD PTR _this$[ebp]
  0006f	c7 40 10 00 00
	00 00		 mov	 DWORD PTR [eax+16], 0
$L93783:

; 238  : 	SAFE_DELETE( m_pBackG2 )

  00076	8b 45 f8	 mov	 eax, DWORD PTR _this$[ebp]
  00079	83 78 14 00	 cmp	 DWORD PTR [eax+20], 0
  0007d	74 4a		 je	 SHORT $L93786
  0007f	8b 45 f8	 mov	 eax, DWORD PTR _this$[ebp]
  00082	8b 48 14	 mov	 ecx, DWORD PTR [eax+20]
  00085	89 8d fc fe ff
	ff		 mov	 DWORD PTR $T93923[ebp], ecx
  0008b	8b 95 fc fe ff
	ff		 mov	 edx, DWORD PTR $T93923[ebp]
  00091	89 95 08 ff ff
	ff		 mov	 DWORD PTR $T93922[ebp], edx
  00097	83 bd 08 ff ff
	ff 00		 cmp	 DWORD PTR $T93922[ebp], 0
  0009e	74 15		 je	 SHORT $L93924
  000a0	6a 01		 push	 1
  000a2	8b 8d 08 ff ff
	ff		 mov	 ecx, DWORD PTR $T93922[ebp]
  000a8	e8 00 00 00 00	 call	 ??_GCMenuScrollingBackG@@QAEPAXI@Z
  000ad	89 85 c4 fe ff
	ff		 mov	 DWORD PTR tv80[ebp], eax
  000b3	eb 0a		 jmp	 SHORT $L93925
$L93924:
  000b5	c7 85 c4 fe ff
	ff 00 00 00 00	 mov	 DWORD PTR tv80[ebp], 0
$L93925:
  000bf	8b 45 f8	 mov	 eax, DWORD PTR _this$[ebp]
  000c2	c7 40 14 00 00
	00 00		 mov	 DWORD PTR [eax+20], 0
$L93786:

; 239  : 	SAFE_DELETE( m_pTitle ) 

  000c9	8b 45 f8	 mov	 eax, DWORD PTR _this$[ebp]
  000cc	83 78 18 00	 cmp	 DWORD PTR [eax+24], 0
  000d0	74 4a		 je	 SHORT $L93789
  000d2	8b 45 f8	 mov	 eax, DWORD PTR _this$[ebp]
  000d5	8b 48 18	 mov	 ecx, DWORD PTR [eax+24]
  000d8	89 8d e4 fe ff
	ff		 mov	 DWORD PTR $T93927[ebp], ecx
  000de	8b 95 e4 fe ff
	ff		 mov	 edx, DWORD PTR $T93927[ebp]
  000e4	89 95 f0 fe ff
	ff		 mov	 DWORD PTR $T93926[ebp], edx
  000ea	83 bd f0 fe ff
	ff 00		 cmp	 DWORD PTR $T93926[ebp], 0
  000f1	74 15		 je	 SHORT $L93928
  000f3	6a 01		 push	 1
  000f5	8b 8d f0 fe ff
	ff		 mov	 ecx, DWORD PTR $T93926[ebp]
  000fb	e8 00 00 00 00	 call	 ??_GCScreenOverlay@@QAEPAXI@Z
  00100	89 85 c4 fe ff
	ff		 mov	 DWORD PTR tv89[ebp], eax
  00106	eb 0a		 jmp	 SHORT $L93929
$L93928:
  00108	c7 85 c4 fe ff
	ff 00 00 00 00	 mov	 DWORD PTR tv89[ebp], 0
$L93929:
  00112	8b 45 f8	 mov	 eax, DWORD PTR _this$[ebp]
  00115	c7 40 18 00 00
	00 00		 mov	 DWORD PTR [eax+24], 0
$L93789:

; 240  : 
; 241  : 	for (int i = 0 ; i < m_nMenuItems ; i ++)

  0011c	c7 45 ec 00 00
	00 00		 mov	 DWORD PTR _i$93792[ebp], 0
  00123	eb 09		 jmp	 SHORT $L93793
$L93794:
  00125	8b 45 ec	 mov	 eax, DWORD PTR _i$93792[ebp]
  00128	83 c0 01	 add	 eax, 1
  0012b	89 45 ec	 mov	 DWORD PTR _i$93792[ebp], eax
$L93793:
  0012e	8b 45 f8	 mov	 eax, DWORD PTR _this$[ebp]
  00131	8b 4d ec	 mov	 ecx, DWORD PTR _i$93792[ebp]
  00134	3b 48 0c	 cmp	 ecx, DWORD PTR [eax+12]
  00137	7d 67		 jge	 SHORT $L93795

; 242  : 		SAFE_DELETE( m_ppMenuItems[i] ) 

  00139	8b 45 f8	 mov	 eax, DWORD PTR _this$[ebp]
  0013c	8b 48 08	 mov	 ecx, DWORD PTR [eax+8]
  0013f	8b 55 ec	 mov	 edx, DWORD PTR _i$93792[ebp]
  00142	83 3c 91 00	 cmp	 DWORD PTR [ecx+edx*4], 0
  00146	74 56		 je	 SHORT $L93796
  00148	8b 45 f8	 mov	 eax, DWORD PTR _this$[ebp]
  0014b	8b 48 08	 mov	 ecx, DWORD PTR [eax+8]
  0014e	8b 55 ec	 mov	 edx, DWORD PTR _i$93792[ebp]
  00151	8b 04 91	 mov	 eax, DWORD PTR [ecx+edx*4]
  00154	89 85 cc fe ff
	ff		 mov	 DWORD PTR $T93931[ebp], eax
  0015a	8b 8d cc fe ff
	ff		 mov	 ecx, DWORD PTR $T93931[ebp]
  00160	89 8d d8 fe ff
	ff		 mov	 DWORD PTR $T93930[ebp], ecx
  00166	83 bd d8 fe ff
	ff 00		 cmp	 DWORD PTR $T93930[ebp], 0
  0016d	74 15		 je	 SHORT $L93932
  0016f	6a 01		 push	 1
  00171	8b 8d d8 fe ff
	ff		 mov	 ecx, DWORD PTR $T93930[ebp]
  00177	e8 00 00 00 00	 call	 ??_GCMenuItem@@QAEPAXI@Z
  0017c	89 85 c4 fe ff
	ff		 mov	 DWORD PTR tv137[ebp], eax
  00182	eb 0a		 jmp	 SHORT $L93933
$L93932:
  00184	c7 85 c4 fe ff
	ff 00 00 00 00	 mov	 DWORD PTR tv137[ebp], 0
$L93933:
  0018e	8b 45 f8	 mov	 eax, DWORD PTR _this$[ebp]
  00191	8b 48 08	 mov	 ecx, DWORD PTR [eax+8]
  00194	8b 55 ec	 mov	 edx, DWORD PTR _i$93792[ebp]
  00197	c7 04 91 00 00
	00 00		 mov	 DWORD PTR [ecx+edx*4], 0
$L93796:
  0019e	eb 85		 jmp	 SHORT $L93794
$L93795:

; 243  : 
; 244  : 	return S_OK ;

  001a0	33 c0		 xor	 eax, eax

; 245  : }

  001a2	5f		 pop	 edi
  001a3	5e		 pop	 esi
  001a4	5b		 pop	 ebx
  001a5	81 c4 3c 01 00
	00		 add	 esp, 316		; 0000013cH
  001ab	3b ec		 cmp	 ebp, esp
  001ad	e8 00 00 00 00	 call	 __RTC_CheckEsp
  001b2	8b e5		 mov	 esp, ebp
  001b4	5d		 pop	 ebp
  001b5	c3		 ret	 0
?InvalidateDeviceObjects@CMainMenu@@QAEJXZ ENDP		; CMainMenu::InvalidateDeviceObjects
_TEXT	ENDS
EXTRN	??1CMenuScrollingBackG@@QAE@XZ:NEAR		; CMenuScrollingBackG::~CMenuScrollingBackG
; Function compile flags: /Odt /RTCsu /ZI
;	COMDAT ??_GCMenuScrollingBackG@@QAEPAXI@Z
_TEXT	SEGMENT
_this$ = -8
___flags$ = 8
??_GCMenuScrollingBackG@@QAEPAXI@Z PROC NEAR		; CMenuScrollingBackG::`scalar deleting destructor', COMDAT
; _this$ = ecx
  00000	55		 push	 ebp
  00001	8b ec		 mov	 ebp, esp
  00003	81 ec cc 00 00
	00		 sub	 esp, 204		; 000000ccH
  00009	53		 push	 ebx
  0000a	56		 push	 esi
  0000b	57		 push	 edi
  0000c	51		 push	 ecx
  0000d	8d bd 34 ff ff
	ff		 lea	 edi, DWORD PTR [ebp-204]
  00013	b9 33 00 00 00	 mov	 ecx, 51			; 00000033H
  00018	b8 cc cc cc cc	 mov	 eax, -858993460		; ccccccccH
  0001d	f3 ab		 rep stosd
  0001f	59		 pop	 ecx
  00020	89 4d f8	 mov	 DWORD PTR _this$[ebp], ecx
  00023	8b 4d f8	 mov	 ecx, DWORD PTR _this$[ebp]
  00026	e8 00 00 00 00	 call	 ??1CMenuScrollingBackG@@QAE@XZ ; CMenuScrollingBackG::~CMenuScrollingBackG
  0002b	8b 45 08	 mov	 eax, DWORD PTR ___flags$[ebp]
  0002e	83 e0 01	 and	 eax, 1
  00031	85 c0		 test	 eax, eax
  00033	74 0c		 je	 SHORT $L93805
  00035	8b 45 f8	 mov	 eax, DWORD PTR _this$[ebp]
  00038	50		 push	 eax
  00039	e8 00 00 00 00	 call	 ??3@YAXPAX@Z		; operator delete
  0003e	83 c4 04	 add	 esp, 4
$L93805:
  00041	8b 45 f8	 mov	 eax, DWORD PTR _this$[ebp]
  00044	5f		 pop	 edi
  00045	5e		 pop	 esi
  00046	5b		 pop	 ebx
  00047	81 c4 cc 00 00
	00		 add	 esp, 204		; 000000ccH
  0004d	3b ec		 cmp	 ebp, esp
  0004f	e8 00 00 00 00	 call	 __RTC_CheckEsp
  00054	8b e5		 mov	 esp, ebp
  00056	5d		 pop	 ebp
  00057	c2 04 00	 ret	 4
??_GCMenuScrollingBackG@@QAEPAXI@Z ENDP			; CMenuScrollingBackG::`scalar deleting destructor'
_TEXT	ENDS
EXTRN	??1CScreenOverlay@@QAE@XZ:NEAR			; CScreenOverlay::~CScreenOverlay
; Function compile flags: /Odt /RTCsu /ZI
;	COMDAT ??_GCScreenOverlay@@QAEPAXI@Z
_TEXT	SEGMENT
_this$ = -8
___flags$ = 8
??_GCScreenOverlay@@QAEPAXI@Z PROC NEAR			; CScreenOverlay::`scalar deleting destructor', COMDAT
; _this$ = ecx
  00000	55		 push	 ebp
  00001	8b ec		 mov	 ebp, esp
  00003	81 ec cc 00 00
	00		 sub	 esp, 204		; 000000ccH
  00009	53		 push	 ebx
  0000a	56		 push	 esi
  0000b	57		 push	 edi
  0000c	51		 push	 ecx
  0000d	8d bd 34 ff ff
	ff		 lea	 edi, DWORD PTR [ebp-204]
  00013	b9 33 00 00 00	 mov	 ecx, 51			; 00000033H
  00018	b8 cc cc cc cc	 mov	 eax, -858993460		; ccccccccH
  0001d	f3 ab		 rep stosd
  0001f	59		 pop	 ecx
  00020	89 4d f8	 mov	 DWORD PTR _this$[ebp], ecx
  00023	8b 4d f8	 mov	 ecx, DWORD PTR _this$[ebp]
  00026	e8 00 00 00 00	 call	 ??1CScreenOverlay@@QAE@XZ ; CScreenOverlay::~CScreenOverlay
  0002b	8b 45 08	 mov	 eax, DWORD PTR ___flags$[ebp]
  0002e	83 e0 01	 and	 eax, 1
  00031	85 c0		 test	 eax, eax
  00033	74 0c		 je	 SHORT $L93808
  00035	8b 45 f8	 mov	 eax, DWORD PTR _this$[ebp]
  00038	50		 push	 eax
  00039	e8 00 00 00 00	 call	 ??3@YAXPAX@Z		; operator delete
  0003e	83 c4 04	 add	 esp, 4
$L93808:
  00041	8b 45 f8	 mov	 eax, DWORD PTR _this$[ebp]
  00044	5f		 pop	 edi
  00045	5e		 pop	 esi
  00046	5b		 pop	 ebx
  00047	81 c4 cc 00 00
	00		 add	 esp, 204		; 000000ccH
  0004d	3b ec		 cmp	 ebp, esp
  0004f	e8 00 00 00 00	 call	 __RTC_CheckEsp
  00054	8b e5		 mov	 esp, ebp
  00056	5d		 pop	 ebp
  00057	c2 04 00	 ret	 4
??_GCScreenOverlay@@QAEPAXI@Z ENDP			; CScreenOverlay::`scalar deleting destructor'
_TEXT	ENDS
EXTRN	??1CMenuItem@@QAE@XZ:NEAR			; CMenuItem::~CMenuItem
; Function compile flags: /Odt /RTCsu /ZI
;	COMDAT ??_GCMenuItem@@QAEPAXI@Z
_TEXT	SEGMENT
_this$ = -8
___flags$ = 8
??_GCMenuItem@@QAEPAXI@Z PROC NEAR			; CMenuItem::`scalar deleting destructor', COMDAT
; _this$ = ecx
  00000	55		 push	 ebp
  00001	8b ec		 mov	 ebp, esp
  00003	81 ec cc 00 00
	00		 sub	 esp, 204		; 000000ccH
  00009	53		 push	 ebx
  0000a	56		 push	 esi
  0000b	57		 push	 edi
  0000c	51		 push	 ecx
  0000d	8d bd 34 ff ff
	ff		 lea	 edi, DWORD PTR [ebp-204]
  00013	b9 33 00 00 00	 mov	 ecx, 51			; 00000033H
  00018	b8 cc cc cc cc	 mov	 eax, -858993460		; ccccccccH
  0001d	f3 ab		 rep stosd
  0001f	59		 pop	 ecx
  00020	89 4d f8	 mov	 DWORD PTR _this$[ebp], ecx
  00023	8b 4d f8	 mov	 ecx, DWORD PTR _this$[ebp]
  00026	e8 00 00 00 00	 call	 ??1CMenuItem@@QAE@XZ	; CMenuItem::~CMenuItem
  0002b	8b 45 08	 mov	 eax, DWORD PTR ___flags$[ebp]
  0002e	83 e0 01	 and	 eax, 1
  00031	85 c0		 test	 eax, eax
  00033	74 0c		 je	 SHORT $L93811
  00035	8b 45 f8	 mov	 eax, DWORD PTR _this$[ebp]
  00038	50		 push	 eax
  00039	e8 00 00 00 00	 call	 ??3@YAXPAX@Z		; operator delete
  0003e	83 c4 04	 add	 esp, 4
$L93811:
  00041	8b 45 f8	 mov	 eax, DWORD PTR _this$[ebp]
  00044	5f		 pop	 edi
  00045	5e		 pop	 esi
  00046	5b		 pop	 ebx
  00047	81 c4 cc 00 00
	00		 add	 esp, 204		; 000000ccH
  0004d	3b ec		 cmp	 ebp, esp
  0004f	e8 00 00 00 00	 call	 __RTC_CheckEsp
  00054	8b e5		 mov	 esp, ebp
  00056	5d		 pop	 ebp
  00057	c2 04 00	 ret	 4
??_GCMenuItem@@QAEPAXI@Z ENDP				; CMenuItem::`scalar deleting destructor'
_TEXT	ENDS
EXTRN	__imp__EnableMenuItem@12:NEAR
; Function compile flags: /Odt /RTCsu /ZI
;	COMDAT ?SetViewMenuItems@CMainMenu@@QAEHI@Z
_TEXT	SEGMENT
_this$ = -8
_s$ = 8
?SetViewMenuItems@CMainMenu@@QAEHI@Z PROC NEAR		; CMainMenu::SetViewMenuItems, COMDAT
; _this$ = ecx

; 248  : {

  00000	55		 push	 ebp
  00001	8b ec		 mov	 ebp, esp
  00003	81 ec cc 00 00
	00		 sub	 esp, 204		; 000000ccH
  00009	53		 push	 ebx
  0000a	56		 push	 esi
  0000b	57		 push	 edi
  0000c	51		 push	 ecx
  0000d	8d bd 34 ff ff
	ff		 lea	 edi, DWORD PTR [ebp-204]
  00013	b9 33 00 00 00	 mov	 ecx, 51			; 00000033H
  00018	b8 cc cc cc cc	 mov	 eax, -858993460		; ccccccccH
  0001d	f3 ab		 rep stosd
  0001f	59		 pop	 ecx
  00020	89 4d f8	 mov	 DWORD PTR _this$[ebp], ecx

; 249  : 	EnableMenuItem(m_pX7->m_hMenu, ID_VIEW_OBJECTS_SKYDOME, s) ;

  00023	8b f4		 mov	 esi, esp
  00025	8b 45 08	 mov	 eax, DWORD PTR _s$[ebp]
  00028	50		 push	 eax
  00029	68 4c 9c 00 00	 push	 40012			; 00009c4cH
  0002e	8b 4d f8	 mov	 ecx, DWORD PTR _this$[ebp]
  00031	8b 11		 mov	 edx, DWORD PTR [ecx]
  00033	8b 82 a8 a9 02
	00		 mov	 eax, DWORD PTR [edx+174504]
  00039	50		 push	 eax
  0003a	ff 15 00 00 00
	00		 call	 DWORD PTR __imp__EnableMenuItem@12
  00040	3b f4		 cmp	 esi, esp
  00042	e8 00 00 00 00	 call	 __RTC_CheckEsp

; 250  : 	EnableMenuItem(m_pX7->m_hMenu, ID_VIEW_OBJECTS_TERRAIN2, s) ;

  00047	8b f4		 mov	 esi, esp
  00049	8b 45 08	 mov	 eax, DWORD PTR _s$[ebp]
  0004c	50		 push	 eax
  0004d	68 56 9c 00 00	 push	 40022			; 00009c56H
  00052	8b 4d f8	 mov	 ecx, DWORD PTR _this$[ebp]
  00055	8b 11		 mov	 edx, DWORD PTR [ecx]
  00057	8b 82 a8 a9 02
	00		 mov	 eax, DWORD PTR [edx+174504]
  0005d	50		 push	 eax
  0005e	ff 15 00 00 00
	00		 call	 DWORD PTR __imp__EnableMenuItem@12
  00064	3b f4		 cmp	 esi, esp
  00066	e8 00 00 00 00	 call	 __RTC_CheckEsp

; 251  : 	EnableMenuItem(m_pX7->m_hMenu, ID_VIEW_OBJECTS_FLATGROUND, s) ;

  0006b	8b f4		 mov	 esi, esp
  0006d	8b 45 08	 mov	 eax, DWORD PTR _s$[ebp]
  00070	50		 push	 eax
  00071	68 57 9c 00 00	 push	 40023			; 00009c57H
  00076	8b 4d f8	 mov	 ecx, DWORD PTR _this$[ebp]
  00079	8b 11		 mov	 edx, DWORD PTR [ecx]
  0007b	8b 82 a8 a9 02
	00		 mov	 eax, DWORD PTR [edx+174504]
  00081	50		 push	 eax
  00082	ff 15 00 00 00
	00		 call	 DWORD PTR __imp__EnableMenuItem@12
  00088	3b f4		 cmp	 esi, esp
  0008a	e8 00 00 00 00	 call	 __RTC_CheckEsp

; 252  : 	EnableMenuItem(m_pX7->m_hMenu, ID_VIEW_OBJECTS_TRACK, s) ;

  0008f	8b f4		 mov	 esi, esp
  00091	8b 45 08	 mov	 eax, DWORD PTR _s$[ebp]
  00094	50		 push	 eax
  00095	68 4e 9c 00 00	 push	 40014			; 00009c4eH
  0009a	8b 4d f8	 mov	 ecx, DWORD PTR _this$[ebp]
  0009d	8b 11		 mov	 edx, DWORD PTR [ecx]
  0009f	8b 82 a8 a9 02
	00		 mov	 eax, DWORD PTR [edx+174504]
  000a5	50		 push	 eax
  000a6	ff 15 00 00 00
	00		 call	 DWORD PTR __imp__EnableMenuItem@12
  000ac	3b f4		 cmp	 esi, esp
  000ae	e8 00 00 00 00	 call	 __RTC_CheckEsp

; 253  : 	EnableMenuItem(m_pX7->m_hMenu, ID_VIEW_OBJECTS_FIGHTER, s) ;

  000b3	8b f4		 mov	 esi, esp
  000b5	8b 45 08	 mov	 eax, DWORD PTR _s$[ebp]
  000b8	50		 push	 eax
  000b9	68 4f 9c 00 00	 push	 40015			; 00009c4fH
  000be	8b 4d f8	 mov	 ecx, DWORD PTR _this$[ebp]
  000c1	8b 11		 mov	 edx, DWORD PTR [ecx]
  000c3	8b 82 a8 a9 02
	00		 mov	 eax, DWORD PTR [edx+174504]
  000c9	50		 push	 eax
  000ca	ff 15 00 00 00
	00		 call	 DWORD PTR __imp__EnableMenuItem@12
  000d0	3b f4		 cmp	 esi, esp
  000d2	e8 00 00 00 00	 call	 __RTC_CheckEsp

; 254  : 
; 255  : 	EnableMenuItem(m_pX7->m_hMenu, ID_VIEW_WIREFRAME, s) ;

  000d7	8b f4		 mov	 esi, esp
  000d9	8b 45 08	 mov	 eax, DWORD PTR _s$[ebp]
  000dc	50		 push	 eax
  000dd	68 50 9c 00 00	 push	 40016			; 00009c50H
  000e2	8b 4d f8	 mov	 ecx, DWORD PTR _this$[ebp]
  000e5	8b 11		 mov	 edx, DWORD PTR [ecx]
  000e7	8b 82 a8 a9 02
	00		 mov	 eax, DWORD PTR [edx+174504]
  000ed	50		 push	 eax
  000ee	ff 15 00 00 00
	00		 call	 DWORD PTR __imp__EnableMenuItem@12
  000f4	3b f4		 cmp	 esi, esp
  000f6	e8 00 00 00 00	 call	 __RTC_CheckEsp

; 256  : 
; 257  : 	EnableMenuItem(m_pX7->m_hMenu, ID_VIEW_CAMERA_FREE, s) ;

  000fb	8b f4		 mov	 esi, esp
  000fd	8b 45 08	 mov	 eax, DWORD PTR _s$[ebp]
  00100	50		 push	 eax
  00101	68 5c 9c 00 00	 push	 40028			; 00009c5cH
  00106	8b 4d f8	 mov	 ecx, DWORD PTR _this$[ebp]
  00109	8b 11		 mov	 edx, DWORD PTR [ecx]
  0010b	8b 82 a8 a9 02
	00		 mov	 eax, DWORD PTR [edx+174504]
  00111	50		 push	 eax
  00112	ff 15 00 00 00
	00		 call	 DWORD PTR __imp__EnableMenuItem@12
  00118	3b f4		 cmp	 esi, esp
  0011a	e8 00 00 00 00	 call	 __RTC_CheckEsp

; 258  : 	EnableMenuItem(m_pX7->m_hMenu, ID_VIEW_CAMERA_BEHINDFIXED1, s) ;

  0011f	8b f4		 mov	 esi, esp
  00121	8b 45 08	 mov	 eax, DWORD PTR _s$[ebp]
  00124	50		 push	 eax
  00125	68 61 9c 00 00	 push	 40033			; 00009c61H
  0012a	8b 4d f8	 mov	 ecx, DWORD PTR _this$[ebp]
  0012d	8b 11		 mov	 edx, DWORD PTR [ecx]
  0012f	8b 82 a8 a9 02
	00		 mov	 eax, DWORD PTR [edx+174504]
  00135	50		 push	 eax
  00136	ff 15 00 00 00
	00		 call	 DWORD PTR __imp__EnableMenuItem@12
  0013c	3b f4		 cmp	 esi, esp
  0013e	e8 00 00 00 00	 call	 __RTC_CheckEsp

; 259  : 	EnableMenuItem(m_pX7->m_hMenu, ID_VIEW_CAMERA_BEHINDFIXED2, s) ;

  00143	8b f4		 mov	 esi, esp
  00145	8b 45 08	 mov	 eax, DWORD PTR _s$[ebp]
  00148	50		 push	 eax
  00149	68 62 9c 00 00	 push	 40034			; 00009c62H
  0014e	8b 4d f8	 mov	 ecx, DWORD PTR _this$[ebp]
  00151	8b 11		 mov	 edx, DWORD PTR [ecx]
  00153	8b 82 a8 a9 02
	00		 mov	 eax, DWORD PTR [edx+174504]
  00159	50		 push	 eax
  0015a	ff 15 00 00 00
	00		 call	 DWORD PTR __imp__EnableMenuItem@12
  00160	3b f4		 cmp	 esi, esp
  00162	e8 00 00 00 00	 call	 __RTC_CheckEsp

; 260  : 	EnableMenuItem(m_pX7->m_hMenu, ID_VIEW_CAMERA_BEHINDFIXED3, s) ;

  00167	8b f4		 mov	 esi, esp
  00169	8b 45 08	 mov	 eax, DWORD PTR _s$[ebp]
  0016c	50		 push	 eax
  0016d	68 63 9c 00 00	 push	 40035			; 00009c63H
  00172	8b 4d f8	 mov	 ecx, DWORD PTR _this$[ebp]
  00175	8b 11		 mov	 edx, DWORD PTR [ecx]
  00177	8b 82 a8 a9 02
	00		 mov	 eax, DWORD PTR [edx+174504]
  0017d	50		 push	 eax
  0017e	ff 15 00 00 00
	00		 call	 DWORD PTR __imp__EnableMenuItem@12
  00184	3b f4		 cmp	 esi, esp
  00186	e8 00 00 00 00	 call	 __RTC_CheckEsp

; 261  : 	EnableMenuItem(m_pX7->m_hMenu, ID_VIEW_CAMERA_BEHINDVARIABLE1, s) ;

  0018b	8b f4		 mov	 esi, esp
  0018d	8b 45 08	 mov	 eax, DWORD PTR _s$[ebp]
  00190	50		 push	 eax
  00191	68 64 9c 00 00	 push	 40036			; 00009c64H
  00196	8b 4d f8	 mov	 ecx, DWORD PTR _this$[ebp]
  00199	8b 11		 mov	 edx, DWORD PTR [ecx]
  0019b	8b 82 a8 a9 02
	00		 mov	 eax, DWORD PTR [edx+174504]
  001a1	50		 push	 eax
  001a2	ff 15 00 00 00
	00		 call	 DWORD PTR __imp__EnableMenuItem@12
  001a8	3b f4		 cmp	 esi, esp
  001aa	e8 00 00 00 00	 call	 __RTC_CheckEsp

; 262  : 	EnableMenuItem(m_pX7->m_hMenu, ID_VIEW_CAMERA_BEHINDVARIABLE2, s) ;

  001af	8b f4		 mov	 esi, esp
  001b1	8b 45 08	 mov	 eax, DWORD PTR _s$[ebp]
  001b4	50		 push	 eax
  001b5	68 65 9c 00 00	 push	 40037			; 00009c65H
  001ba	8b 4d f8	 mov	 ecx, DWORD PTR _this$[ebp]
  001bd	8b 11		 mov	 edx, DWORD PTR [ecx]
  001bf	8b 82 a8 a9 02
	00		 mov	 eax, DWORD PTR [edx+174504]
  001c5	50		 push	 eax
  001c6	ff 15 00 00 00
	00		 call	 DWORD PTR __imp__EnableMenuItem@12
  001cc	3b f4		 cmp	 esi, esp
  001ce	e8 00 00 00 00	 call	 __RTC_CheckEsp

; 263  : 	EnableMenuItem(m_pX7->m_hMenu, ID_VIEW_CAMERA_BEHINDVARIABLE3, s) ;

  001d3	8b f4		 mov	 esi, esp
  001d5	8b 45 08	 mov	 eax, DWORD PTR _s$[ebp]
  001d8	50		 push	 eax
  001d9	68 66 9c 00 00	 push	 40038			; 00009c66H
  001de	8b 4d f8	 mov	 ecx, DWORD PTR _this$[ebp]
  001e1	8b 11		 mov	 edx, DWORD PTR [ecx]
  001e3	8b 82 a8 a9 02
	00		 mov	 eax, DWORD PTR [edx+174504]
  001e9	50		 push	 eax
  001ea	ff 15 00 00 00
	00		 call	 DWORD PTR __imp__EnableMenuItem@12
  001f0	3b f4		 cmp	 esi, esp
  001f2	e8 00 00 00 00	 call	 __RTC_CheckEsp

; 264  : 	EnableMenuItem(m_pX7->m_hMenu, ID_VIEW_CAMERA_COCKPITFIXED, s) ;

  001f7	8b f4		 mov	 esi, esp
  001f9	8b 45 08	 mov	 eax, DWORD PTR _s$[ebp]
  001fc	50		 push	 eax
  001fd	68 5a 9c 00 00	 push	 40026			; 00009c5aH
  00202	8b 4d f8	 mov	 ecx, DWORD PTR _this$[ebp]
  00205	8b 11		 mov	 edx, DWORD PTR [ecx]
  00207	8b 82 a8 a9 02
	00		 mov	 eax, DWORD PTR [edx+174504]
  0020d	50		 push	 eax
  0020e	ff 15 00 00 00
	00		 call	 DWORD PTR __imp__EnableMenuItem@12
  00214	3b f4		 cmp	 esi, esp
  00216	e8 00 00 00 00	 call	 __RTC_CheckEsp

; 265  : 	EnableMenuItem(m_pX7->m_hMenu, ID_VIEW_CAMERA_COCKPITROLL, s) ;

  0021b	8b f4		 mov	 esi, esp
  0021d	8b 45 08	 mov	 eax, DWORD PTR _s$[ebp]
  00220	50		 push	 eax
  00221	68 67 9c 00 00	 push	 40039			; 00009c67H
  00226	8b 4d f8	 mov	 ecx, DWORD PTR _this$[ebp]
  00229	8b 11		 mov	 edx, DWORD PTR [ecx]
  0022b	8b 82 a8 a9 02
	00		 mov	 eax, DWORD PTR [edx+174504]
  00231	50		 push	 eax
  00232	ff 15 00 00 00
	00		 call	 DWORD PTR __imp__EnableMenuItem@12
  00238	3b f4		 cmp	 esi, esp
  0023a	e8 00 00 00 00	 call	 __RTC_CheckEsp

; 266  : 	EnableMenuItem(m_pX7->m_hMenu, ID_VIEW_CAMERA_SHOWOFF, s) ;

  0023f	8b f4		 mov	 esi, esp
  00241	8b 45 08	 mov	 eax, DWORD PTR _s$[ebp]
  00244	50		 push	 eax
  00245	68 5d 9c 00 00	 push	 40029			; 00009c5dH
  0024a	8b 4d f8	 mov	 ecx, DWORD PTR _this$[ebp]
  0024d	8b 11		 mov	 edx, DWORD PTR [ecx]
  0024f	8b 82 a8 a9 02
	00		 mov	 eax, DWORD PTR [edx+174504]
  00255	50		 push	 eax
  00256	ff 15 00 00 00
	00		 call	 DWORD PTR __imp__EnableMenuItem@12
  0025c	3b f4		 cmp	 esi, esp
  0025e	e8 00 00 00 00	 call	 __RTC_CheckEsp

; 267  : 
; 268  : 	EnableMenuItem(m_pX7->m_hMenu, ID_VIEW_FIGHTER_NORMAL, s) ;

  00263	8b f4		 mov	 esi, esp
  00265	8b 45 08	 mov	 eax, DWORD PTR _s$[ebp]
  00268	50		 push	 eax
  00269	68 5e 9c 00 00	 push	 40030			; 00009c5eH
  0026e	8b 4d f8	 mov	 ecx, DWORD PTR _this$[ebp]
  00271	8b 11		 mov	 edx, DWORD PTR [ecx]
  00273	8b 82 a8 a9 02
	00		 mov	 eax, DWORD PTR [edx+174504]
  00279	50		 push	 eax
  0027a	ff 15 00 00 00
	00		 call	 DWORD PTR __imp__EnableMenuItem@12
  00280	3b f4		 cmp	 esi, esp
  00282	e8 00 00 00 00	 call	 __RTC_CheckEsp

; 269  : 	EnableMenuItem(m_pX7->m_hMenu, ID_VIEW_FIGHTER_CHROME, s) ;

  00287	8b f4		 mov	 esi, esp
  00289	8b 45 08	 mov	 eax, DWORD PTR _s$[ebp]
  0028c	50		 push	 eax
  0028d	68 5f 9c 00 00	 push	 40031			; 00009c5fH
  00292	8b 4d f8	 mov	 ecx, DWORD PTR _this$[ebp]
  00295	8b 11		 mov	 edx, DWORD PTR [ecx]
  00297	8b 82 a8 a9 02
	00		 mov	 eax, DWORD PTR [edx+174504]
  0029d	50		 push	 eax
  0029e	ff 15 00 00 00
	00		 call	 DWORD PTR __imp__EnableMenuItem@12
  002a4	3b f4		 cmp	 esi, esp
  002a6	e8 00 00 00 00	 call	 __RTC_CheckEsp

; 270  : 	EnableMenuItem(m_pX7->m_hMenu, ID_VIEW_FIGHTER_GLASS, s) ;

  002ab	8b f4		 mov	 esi, esp
  002ad	8b 45 08	 mov	 eax, DWORD PTR _s$[ebp]
  002b0	50		 push	 eax
  002b1	68 60 9c 00 00	 push	 40032			; 00009c60H
  002b6	8b 4d f8	 mov	 ecx, DWORD PTR _this$[ebp]
  002b9	8b 11		 mov	 edx, DWORD PTR [ecx]
  002bb	8b 82 a8 a9 02
	00		 mov	 eax, DWORD PTR [edx+174504]
  002c1	50		 push	 eax
  002c2	ff 15 00 00 00
	00		 call	 DWORD PTR __imp__EnableMenuItem@12
  002c8	3b f4		 cmp	 esi, esp
  002ca	e8 00 00 00 00	 call	 __RTC_CheckEsp

; 271  : }

  002cf	5f		 pop	 edi
  002d0	5e		 pop	 esi
  002d1	5b		 pop	 ebx
  002d2	81 c4 cc 00 00
	00		 add	 esp, 204		; 000000ccH
  002d8	3b ec		 cmp	 ebp, esp
  002da	e8 00 00 00 00	 call	 __RTC_CheckEsp
  002df	8b e5		 mov	 esp, ebp
  002e1	5d		 pop	 ebp
  002e2	c2 04 00	 ret	 4
?SetViewMenuItems@CMainMenu@@QAEHI@Z ENDP		; CMainMenu::SetViewMenuItems
; Function compile flags: /Odt /RTCsu /ZI
; File c:\dxsdk\include\d3dx8math.h
_TEXT	ENDS
;	COMDAT ??0D3DXMATRIX@@QAE@XZ
_TEXT	SEGMENT
_this$ = -8
??0D3DXMATRIX@@QAE@XZ PROC NEAR				; D3DXMATRIX::D3DXMATRIX, COMDAT
; _this$ = ecx

; 177  :     D3DXMATRIX() {};

  00000	55		 push	 ebp
  00001	8b ec		 mov	 ebp, esp
  00003	81 ec cc 00 00
	00		 sub	 esp, 204		; 000000ccH
  00009	53		 push	 ebx
  0000a	56		 push	 esi
  0000b	57		 push	 edi
  0000c	51		 push	 ecx
  0000d	8d bd 34 ff ff
	ff		 lea	 edi, DWORD PTR [ebp-204]
  00013	b9 33 00 00 00	 mov	 ecx, 51			; 00000033H
  00018	b8 cc cc cc cc	 mov	 eax, -858993460		; ccccccccH
  0001d	f3 ab		 rep stosd
  0001f	59		 pop	 ecx
  00020	89 4d f8	 mov	 DWORD PTR _this$[ebp], ecx
  00023	8b 45 f8	 mov	 eax, DWORD PTR _this$[ebp]
  00026	5f		 pop	 edi
  00027	5e		 pop	 esi
  00028	5b		 pop	 ebx
  00029	8b e5		 mov	 esp, ebp
  0002b	5d		 pop	 ebp
  0002c	c3		 ret	 0
??0D3DXMATRIX@@QAE@XZ ENDP				; D3DXMATRIX::D3DXMATRIX
_TEXT	ENDS
END
