; Listing generated by Microsoft (R) Optimizing Compiler Version 13.00.9466 

	TITLE	CMenuScrollingBackG.cpp
	.386P
include listing.inc
if @Version gt 510
.model FLAT
else
_TEXT	SEGMENT PARA USE32 PUBLIC 'CODE'
_TEXT	ENDS
_DATA	SEGMENT DWORD USE32 PUBLIC 'DATA'
_DATA	ENDS
CONST	SEGMENT DWORD USE32 PUBLIC 'CONST'
CONST	ENDS
_BSS	SEGMENT DWORD USE32 PUBLIC 'BSS'
_BSS	ENDS
$$SYMBOLS	SEGMENT BYTE USE32 'DEBSYM'
$$SYMBOLS	ENDS
$$TYPES	SEGMENT BYTE USE32 'DEBTYP'
$$TYPES	ENDS
_TLS	SEGMENT DWORD USE32 PUBLIC 'TLS'
_TLS	ENDS
;	COMDAT ??_C@_0CL@CBCJFLKF@CMenuScrollingBackG?3?3RestoreDevi@
CONST	SEGMENT DWORD USE32 PUBLIC 'CONST'
CONST	ENDS
;	COMDAT ??_C@_0FF@LMIHBGNP@c?3?2documents?5and?5settings?2dom?2my@
CONST	SEGMENT DWORD USE32 PUBLIC 'CONST'
CONST	ENDS
;	COMDAT ??_C@_0M@NKNCPJJD@?$CBFAILED?$CIhr?$CJ?$AA@
CONST	SEGMENT DWORD USE32 PUBLIC 'CONST'
CONST	ENDS
;	COMDAT _IsEqualGUID
_TEXT	SEGMENT PARA USE32 PUBLIC 'CODE'
_TEXT	ENDS
;	COMDAT _==
_TEXT	SEGMENT PARA USE32 PUBLIC 'CODE'
_TEXT	ENDS
;	COMDAT _sqrtf
_TEXT	SEGMENT PARA USE32 PUBLIC 'CODE'
_TEXT	ENDS
;	COMDAT ??0D3DXVECTOR3@@QAE@XZ
_TEXT	SEGMENT PARA USE32 PUBLIC 'CODE'
_TEXT	ENDS
;	COMDAT ??0D3DXMATRIX@@QAE@XZ
_TEXT	SEGMENT PARA USE32 PUBLIC 'CODE'
_TEXT	ENDS
;	COMDAT ??0D3DXQUATERNION@@QAE@XZ
_TEXT	SEGMENT PARA USE32 PUBLIC 'CODE'
_TEXT	ENDS
;	COMDAT ??0D3DXCOLOR@@QAE@XZ
_TEXT	SEGMENT PARA USE32 PUBLIC 'CODE'
_TEXT	ENDS
;	COMDAT ??0D3DXVECTOR2@@QAE@MM@Z
_TEXT	SEGMENT PARA USE32 PUBLIC 'CODE'
_TEXT	ENDS
;	COMDAT ??0D3DXVECTOR3@@QAE@MMM@Z
_TEXT	SEGMENT PARA USE32 PUBLIC 'CODE'
_TEXT	ENDS
;	COMDAT ??0D3DXVECTOR4@@QAE@MMMM@Z
_TEXT	SEGMENT PARA USE32 PUBLIC 'CODE'
_TEXT	ENDS
;	COMDAT ??0D3DXMATRIX@@QAE@PBM@Z
_TEXT	SEGMENT PARA USE32 PUBLIC 'CODE'
_TEXT	ENDS
;	COMDAT ??0D3DXMATRIX@@QAE@ABU_D3DMATRIX@@@Z
_TEXT	SEGMENT PARA USE32 PUBLIC 'CODE'
_TEXT	ENDS
;	COMDAT ??0D3DXMATRIX@@QAE@MMMMMMMMMMMMMMMM@Z
_TEXT	SEGMENT PARA USE32 PUBLIC 'CODE'
_TEXT	ENDS
;	COMDAT ??0D3DXQUATERNION@@QAE@MMMM@Z
_TEXT	SEGMENT PARA USE32 PUBLIC 'CODE'
_TEXT	ENDS
;	COMDAT ??0D3DXPLANE@@QAE@MMMM@Z
_TEXT	SEGMENT PARA USE32 PUBLIC 'CODE'
_TEXT	ENDS
;	COMDAT ??0D3DXCOLOR@@QAE@K@Z
_TEXT	SEGMENT PARA USE32 PUBLIC 'CODE'
_TEXT	ENDS
;	COMDAT ??0D3DXCOLOR@@QAE@MMMM@Z
_TEXT	SEGMENT PARA USE32 PUBLIC 'CODE'
_TEXT	ENDS
;	COMDAT ??BD3DXCOLOR@@QBEKXZ
_TEXT	SEGMENT PARA USE32 PUBLIC 'CODE'
_TEXT	ENDS
;	COMDAT ?D3DXColorLerp@@YAPAUD3DXCOLOR@@PAU1@PBU1@1M@Z
_TEXT	SEGMENT PARA USE32 PUBLIC 'CODE'
_TEXT	ENDS
;	COMDAT ??0CMenuScrollingBackG@@QAE@XZ
_TEXT	SEGMENT PARA USE32 PUBLIC 'CODE'
_TEXT	ENDS
;	COMDAT ??1CMenuScrollingBackG@@QAE@XZ
_TEXT	SEGMENT PARA USE32 PUBLIC 'CODE'
_TEXT	ENDS
;	COMDAT ??0CMenuScrollingBackG@@QAE@PAUIDirect3DTexture8@@MMMMMMMM@Z
_TEXT	SEGMENT PARA USE32 PUBLIC 'CODE'
_TEXT	ENDS
;	COMDAT ?RestoreDeviceObjects@CMenuScrollingBackG@@UAEJPAUIDirect3DDevice8@@M@Z
_TEXT	SEGMENT PARA USE32 PUBLIC 'CODE'
_TEXT	ENDS
;	COMDAT ?FrameMove@CMenuScrollingBackG@@UAEJPAUIDirect3DDevice8@@MMPAUOVERLAYVERTEX@@@Z
_TEXT	SEGMENT PARA USE32 PUBLIC 'CODE'
_TEXT	ENDS
;	COMDAT ?__LINE__Var@?1??RestoreDeviceObjects@CMenuScrollingBackG@@UAEJPAUIDirect3DDevice8@@M@Z@4JA
_DATA	SEGMENT DWORD USE32 PUBLIC 'DATA'
_DATA	ENDS
;	COMDAT ??_7CMenuScrollingBackG@@6B@
CONST	SEGMENT DWORD USE32 PUBLIC 'CONST'
CONST	ENDS
FLAT	GROUP _DATA, CONST, _BSS
	ASSUME	CS: FLAT, DS: FLAT, SS: FLAT
endif

INCLUDELIB LIBCMTD
INCLUDELIB OLDNAMES

PUBLIC	??0CMenuScrollingBackG@@QAE@XZ			; CMenuScrollingBackG::CMenuScrollingBackG
PUBLIC	?FrameMove@CMenuScrollingBackG@@UAEJPAUIDirect3DDevice8@@MMPAUOVERLAYVERTEX@@@Z ; CMenuScrollingBackG::FrameMove
PUBLIC	?RestoreDeviceObjects@CMenuScrollingBackG@@UAEJPAUIDirect3DDevice8@@M@Z ; CMenuScrollingBackG::RestoreDeviceObjects
PUBLIC	??_7CMenuScrollingBackG@@6B@			; CMenuScrollingBackG::`vftable'
PUBLIC	??0D3DXCOLOR@@QAE@XZ				; D3DXCOLOR::D3DXCOLOR
EXTRN	__RTC_InitBase:NEAR
EXTRN	__RTC_Shutdown:NEAR
EXTRN	__RTC_CheckEsp:NEAR
EXTRN	??0CScreenOverlay@@QAE@XZ:NEAR			; CScreenOverlay::CScreenOverlay
EXTRN	?Render@CScreenOverlay@@UAEJPAUIDirect3DDevice8@@@Z:NEAR ; CScreenOverlay::Render
;	COMDAT rtc$IMZ
; File c:\documents and settings\dom\my documents\_dev\ae\xlr8a\x7g\cmenuscrollingbackg.cpp
rtc$IMZ	SEGMENT
__RTC_InitBase.rtc$IMZ DD FLAT:__RTC_InitBase
rtc$IMZ	ENDS
;	COMDAT rtc$TMZ
rtc$TMZ	SEGMENT
__RTC_Shutdown.rtc$TMZ DD FLAT:__RTC_Shutdown
rtc$TMZ	ENDS
;	COMDAT ??_7CMenuScrollingBackG@@6B@
CONST	SEGMENT
??_7CMenuScrollingBackG@@6B@ DD FLAT:?Render@CScreenOverlay@@UAEJPAUIDirect3DDevice8@@@Z ; CMenuScrollingBackG::`vftable'
	DD	FLAT:?RestoreDeviceObjects@CMenuScrollingBackG@@UAEJPAUIDirect3DDevice8@@M@Z
	DD	FLAT:?FrameMove@CMenuScrollingBackG@@UAEJPAUIDirect3DDevice8@@MMPAUOVERLAYVERTEX@@@Z
; Function compile flags: /Odt /RTCsu /ZI
CONST	ENDS
;	COMDAT ??0CMenuScrollingBackG@@QAE@XZ
_TEXT	SEGMENT
_this$ = -8
??0CMenuScrollingBackG@@QAE@XZ PROC NEAR		; CMenuScrollingBackG::CMenuScrollingBackG, COMDAT
; _this$ = ecx

; 6    : {

  00000	55		 push	 ebp
  00001	8b ec		 mov	 ebp, esp
  00003	81 ec cc 00 00
	00		 sub	 esp, 204		; 000000ccH
  00009	53		 push	 ebx
  0000a	56		 push	 esi
  0000b	57		 push	 edi
  0000c	51		 push	 ecx
  0000d	8d bd 34 ff ff
	ff		 lea	 edi, DWORD PTR [ebp-204]
  00013	b9 33 00 00 00	 mov	 ecx, 51			; 00000033H
  00018	b8 cc cc cc cc	 mov	 eax, -858993460		; ccccccccH
  0001d	f3 ab		 rep stosd
  0001f	59		 pop	 ecx
  00020	89 4d f8	 mov	 DWORD PTR _this$[ebp], ecx
  00023	8b 4d f8	 mov	 ecx, DWORD PTR _this$[ebp]
  00026	e8 00 00 00 00	 call	 ??0CScreenOverlay@@QAE@XZ ; CScreenOverlay::CScreenOverlay
  0002b	8b 45 f8	 mov	 eax, DWORD PTR _this$[ebp]
  0002e	c7 00 00 00 00
	00		 mov	 DWORD PTR [eax], OFFSET FLAT:??_7CMenuScrollingBackG@@6B@
  00034	8b 4d f8	 mov	 ecx, DWORD PTR _this$[ebp]
  00037	81 c1 d4 00 00
	00		 add	 ecx, 212		; 000000d4H
  0003d	e8 00 00 00 00	 call	 ??0D3DXCOLOR@@QAE@XZ	; D3DXCOLOR::D3DXCOLOR
  00042	8b 4d f8	 mov	 ecx, DWORD PTR _this$[ebp]
  00045	81 c1 e4 00 00
	00		 add	 ecx, 228		; 000000e4H
  0004b	e8 00 00 00 00	 call	 ??0D3DXCOLOR@@QAE@XZ	; D3DXCOLOR::D3DXCOLOR
  00050	8b 4d f8	 mov	 ecx, DWORD PTR _this$[ebp]
  00053	81 c1 f4 00 00
	00		 add	 ecx, 244		; 000000f4H
  00059	e8 00 00 00 00	 call	 ??0D3DXCOLOR@@QAE@XZ	; D3DXCOLOR::D3DXCOLOR
  0005e	8b 4d f8	 mov	 ecx, DWORD PTR _this$[ebp]
  00061	81 c1 04 01 00
	00		 add	 ecx, 260		; 00000104H
  00067	e8 00 00 00 00	 call	 ??0D3DXCOLOR@@QAE@XZ	; D3DXCOLOR::D3DXCOLOR
  0006c	8b 4d f8	 mov	 ecx, DWORD PTR _this$[ebp]
  0006f	81 c1 14 01 00
	00		 add	 ecx, 276		; 00000114H
  00075	e8 00 00 00 00	 call	 ??0D3DXCOLOR@@QAE@XZ	; D3DXCOLOR::D3DXCOLOR
  0007a	8b 4d f8	 mov	 ecx, DWORD PTR _this$[ebp]
  0007d	81 c1 24 01 00
	00		 add	 ecx, 292		; 00000124H
  00083	e8 00 00 00 00	 call	 ??0D3DXCOLOR@@QAE@XZ	; D3DXCOLOR::D3DXCOLOR
  00088	8b 4d f8	 mov	 ecx, DWORD PTR _this$[ebp]
  0008b	81 c1 34 01 00
	00		 add	 ecx, 308		; 00000134H
  00091	e8 00 00 00 00	 call	 ??0D3DXCOLOR@@QAE@XZ	; D3DXCOLOR::D3DXCOLOR
  00096	8b 4d f8	 mov	 ecx, DWORD PTR _this$[ebp]
  00099	81 c1 44 01 00
	00		 add	 ecx, 324		; 00000144H
  0009f	e8 00 00 00 00	 call	 ??0D3DXCOLOR@@QAE@XZ	; D3DXCOLOR::D3DXCOLOR

; 7    : }

  000a4	8b 45 f8	 mov	 eax, DWORD PTR _this$[ebp]
  000a7	5f		 pop	 edi
  000a8	5e		 pop	 esi
  000a9	5b		 pop	 ebx
  000aa	81 c4 cc 00 00
	00		 add	 esp, 204		; 000000ccH
  000b0	3b ec		 cmp	 ebp, esp
  000b2	e8 00 00 00 00	 call	 __RTC_CheckEsp
  000b7	8b e5		 mov	 esp, ebp
  000b9	5d		 pop	 ebp
  000ba	c3		 ret	 0
??0CMenuScrollingBackG@@QAE@XZ ENDP			; CMenuScrollingBackG::CMenuScrollingBackG
_TEXT	ENDS
PUBLIC	??1CMenuScrollingBackG@@QAE@XZ			; CMenuScrollingBackG::~CMenuScrollingBackG
EXTRN	??1CScreenOverlay@@QAE@XZ:NEAR			; CScreenOverlay::~CScreenOverlay
; Function compile flags: /Odt /RTCsu /ZI
;	COMDAT ??1CMenuScrollingBackG@@QAE@XZ
_TEXT	SEGMENT
_this$ = -8
??1CMenuScrollingBackG@@QAE@XZ PROC NEAR		; CMenuScrollingBackG::~CMenuScrollingBackG, COMDAT
; _this$ = ecx

; 9    : {

  00000	55		 push	 ebp
  00001	8b ec		 mov	 ebp, esp
  00003	81 ec cc 00 00
	00		 sub	 esp, 204		; 000000ccH
  00009	53		 push	 ebx
  0000a	56		 push	 esi
  0000b	57		 push	 edi
  0000c	51		 push	 ecx
  0000d	8d bd 34 ff ff
	ff		 lea	 edi, DWORD PTR [ebp-204]
  00013	b9 33 00 00 00	 mov	 ecx, 51			; 00000033H
  00018	b8 cc cc cc cc	 mov	 eax, -858993460		; ccccccccH
  0001d	f3 ab		 rep stosd
  0001f	59		 pop	 ecx
  00020	89 4d f8	 mov	 DWORD PTR _this$[ebp], ecx
  00023	8b 45 f8	 mov	 eax, DWORD PTR _this$[ebp]
  00026	c7 00 00 00 00
	00		 mov	 DWORD PTR [eax], OFFSET FLAT:??_7CMenuScrollingBackG@@6B@

; 10   : }

  0002c	8b 4d f8	 mov	 ecx, DWORD PTR _this$[ebp]
  0002f	e8 00 00 00 00	 call	 ??1CScreenOverlay@@QAE@XZ ; CScreenOverlay::~CScreenOverlay
  00034	5f		 pop	 edi
  00035	5e		 pop	 esi
  00036	5b		 pop	 ebx
  00037	81 c4 cc 00 00
	00		 add	 esp, 204		; 000000ccH
  0003d	3b ec		 cmp	 ebp, esp
  0003f	e8 00 00 00 00	 call	 __RTC_CheckEsp
  00044	8b e5		 mov	 esp, ebp
  00046	5d		 pop	 ebp
  00047	c3		 ret	 0
??1CMenuScrollingBackG@@QAE@XZ ENDP			; CMenuScrollingBackG::~CMenuScrollingBackG
_TEXT	ENDS
PUBLIC	??0CMenuScrollingBackG@@QAE@PAUIDirect3DTexture8@@MMMMMMMM@Z ; CMenuScrollingBackG::CMenuScrollingBackG
EXTRN	__fltused:NEAR
EXTRN	??0CScreenOverlay@@QAE@PAUIDirect3DTexture8@@MMMMMMH@Z:NEAR ; CScreenOverlay::CScreenOverlay
; Function compile flags: /Odt /RTCsu /ZI
;	COMDAT ??0CMenuScrollingBackG@@QAE@PAUIDirect3DTexture8@@MMMMMMMM@Z
_TEXT	SEGMENT
_this$ = -8
_pTex$ = 8
_fTexRep$ = 12
_fMoveSpeed$ = 16
_fAlpha$ = 20
_fX$ = 24
_fY$ = 28
_fZ$ = 32
_fWidth$ = 36
_fHeight$ = 40
??0CMenuScrollingBackG@@QAE@PAUIDirect3DTexture8@@MMMMMMMM@Z PROC NEAR ; CMenuScrollingBackG::CMenuScrollingBackG, COMDAT
; _this$ = ecx

; 13   : {

  00000	55		 push	 ebp
  00001	8b ec		 mov	 ebp, esp
  00003	81 ec cc 00 00
	00		 sub	 esp, 204		; 000000ccH
  00009	53		 push	 ebx
  0000a	56		 push	 esi
  0000b	57		 push	 edi
  0000c	51		 push	 ecx
  0000d	8d bd 34 ff ff
	ff		 lea	 edi, DWORD PTR [ebp-204]
  00013	b9 33 00 00 00	 mov	 ecx, 51			; 00000033H
  00018	b8 cc cc cc cc	 mov	 eax, -858993460		; ccccccccH
  0001d	f3 ab		 rep stosd
  0001f	59		 pop	 ecx
  00020	89 4d f8	 mov	 DWORD PTR _this$[ebp], ecx
  00023	6a 0a		 push	 10			; 0000000aH
  00025	8b 45 28	 mov	 eax, DWORD PTR _fHeight$[ebp]
  00028	50		 push	 eax
  00029	8b 4d 24	 mov	 ecx, DWORD PTR _fWidth$[ebp]
  0002c	51		 push	 ecx
  0002d	8b 55 20	 mov	 edx, DWORD PTR _fZ$[ebp]
  00030	52		 push	 edx
  00031	8b 45 1c	 mov	 eax, DWORD PTR _fY$[ebp]
  00034	50		 push	 eax
  00035	8b 4d 18	 mov	 ecx, DWORD PTR _fX$[ebp]
  00038	51		 push	 ecx
  00039	8b 55 0c	 mov	 edx, DWORD PTR _fTexRep$[ebp]
  0003c	52		 push	 edx
  0003d	8b 45 08	 mov	 eax, DWORD PTR _pTex$[ebp]
  00040	50		 push	 eax
  00041	8b 4d f8	 mov	 ecx, DWORD PTR _this$[ebp]
  00044	e8 00 00 00 00	 call	 ??0CScreenOverlay@@QAE@PAUIDirect3DTexture8@@MMMMMMH@Z ; CScreenOverlay::CScreenOverlay
  00049	8b 45 f8	 mov	 eax, DWORD PTR _this$[ebp]
  0004c	c7 00 00 00 00
	00		 mov	 DWORD PTR [eax], OFFSET FLAT:??_7CMenuScrollingBackG@@6B@
  00052	8b 4d f8	 mov	 ecx, DWORD PTR _this$[ebp]
  00055	81 c1 d4 00 00
	00		 add	 ecx, 212		; 000000d4H
  0005b	e8 00 00 00 00	 call	 ??0D3DXCOLOR@@QAE@XZ	; D3DXCOLOR::D3DXCOLOR
  00060	8b 4d f8	 mov	 ecx, DWORD PTR _this$[ebp]
  00063	81 c1 e4 00 00
	00		 add	 ecx, 228		; 000000e4H
  00069	e8 00 00 00 00	 call	 ??0D3DXCOLOR@@QAE@XZ	; D3DXCOLOR::D3DXCOLOR
  0006e	8b 4d f8	 mov	 ecx, DWORD PTR _this$[ebp]
  00071	81 c1 f4 00 00
	00		 add	 ecx, 244		; 000000f4H
  00077	e8 00 00 00 00	 call	 ??0D3DXCOLOR@@QAE@XZ	; D3DXCOLOR::D3DXCOLOR
  0007c	8b 4d f8	 mov	 ecx, DWORD PTR _this$[ebp]
  0007f	81 c1 04 01 00
	00		 add	 ecx, 260		; 00000104H
  00085	e8 00 00 00 00	 call	 ??0D3DXCOLOR@@QAE@XZ	; D3DXCOLOR::D3DXCOLOR
  0008a	8b 4d f8	 mov	 ecx, DWORD PTR _this$[ebp]
  0008d	81 c1 14 01 00
	00		 add	 ecx, 276		; 00000114H
  00093	e8 00 00 00 00	 call	 ??0D3DXCOLOR@@QAE@XZ	; D3DXCOLOR::D3DXCOLOR
  00098	8b 4d f8	 mov	 ecx, DWORD PTR _this$[ebp]
  0009b	81 c1 24 01 00
	00		 add	 ecx, 292		; 00000124H
  000a1	e8 00 00 00 00	 call	 ??0D3DXCOLOR@@QAE@XZ	; D3DXCOLOR::D3DXCOLOR
  000a6	8b 4d f8	 mov	 ecx, DWORD PTR _this$[ebp]
  000a9	81 c1 34 01 00
	00		 add	 ecx, 308		; 00000134H
  000af	e8 00 00 00 00	 call	 ??0D3DXCOLOR@@QAE@XZ	; D3DXCOLOR::D3DXCOLOR
  000b4	8b 4d f8	 mov	 ecx, DWORD PTR _this$[ebp]
  000b7	81 c1 44 01 00
	00		 add	 ecx, 324		; 00000144H
  000bd	e8 00 00 00 00	 call	 ??0D3DXCOLOR@@QAE@XZ	; D3DXCOLOR::D3DXCOLOR

; 14   : 	m_fMoveSpeed = fMoveSpeed ;

  000c2	8b 45 f8	 mov	 eax, DWORD PTR _this$[ebp]
  000c5	8b 4d 10	 mov	 ecx, DWORD PTR _fMoveSpeed$[ebp]
  000c8	89 88 58 01 00
	00		 mov	 DWORD PTR [eax+344], ecx

; 15   : 	m_fAlpha = fAlpha ;

  000ce	8b 45 f8	 mov	 eax, DWORD PTR _this$[ebp]
  000d1	8b 4d 14	 mov	 ecx, DWORD PTR _fAlpha$[ebp]
  000d4	89 88 5c 01 00
	00		 mov	 DWORD PTR [eax+348], ecx

; 16   : }

  000da	8b 45 f8	 mov	 eax, DWORD PTR _this$[ebp]
  000dd	5f		 pop	 edi
  000de	5e		 pop	 esi
  000df	5b		 pop	 ebx
  000e0	81 c4 cc 00 00
	00		 add	 esp, 204		; 000000ccH
  000e6	3b ec		 cmp	 ebp, esp
  000e8	e8 00 00 00 00	 call	 __RTC_CheckEsp
  000ed	8b e5		 mov	 esp, ebp
  000ef	5d		 pop	 ebp
  000f0	c2 24 00	 ret	 36			; 00000024H
??0CMenuScrollingBackG@@QAE@PAUIDirect3DTexture8@@MMMMMMMM@Z ENDP ; CMenuScrollingBackG::CMenuScrollingBackG
_TEXT	ENDS
PUBLIC	??0D3DXCOLOR@@QAE@MMMM@Z			; D3DXCOLOR::D3DXCOLOR
PUBLIC	??BD3DXCOLOR@@QBEKXZ				; D3DXCOLOR::operator unsigned long
PUBLIC	??_C@_0CL@CBCJFLKF@CMenuScrollingBackG?3?3RestoreDevi@ ; `string'
PUBLIC	?__LINE__Var@?1??RestoreDeviceObjects@CMenuScrollingBackG@@UAEJPAUIDirect3DDevice8@@M@Z@4JA ; `CMenuScrollingBackG::RestoreDeviceObjects'::`2'::__LINE__Var
PUBLIC	??_C@_0FF@LMIHBGNP@c?3?2documents?5and?5settings?2dom?2my@ ; `string'
PUBLIC	??_C@_0M@NKNCPJJD@?$CBFAILED?$CIhr?$CJ?$AA@	; `string'
EXTRN	@_RTC_CheckStackVars@8:NEAR
EXTRN	__assert:NEAR
EXTRN	?ods@@YAXPADZZ:NEAR				; ods
EXTRN	?rnd@@YAMXZ:NEAR				; rnd
EXTRN	?RestoreDeviceObjects@CScreenOverlay@@UAEJPAUIDirect3DDevice8@@M@Z:NEAR ; CScreenOverlay::RestoreDeviceObjects
;	COMDAT ??_C@_0CL@CBCJFLKF@CMenuScrollingBackG?3?3RestoreDevi@
CONST	SEGMENT
??_C@_0CL@CBCJFLKF@CMenuScrollingBackG?3?3RestoreDevi@ DB 'CMenuScrolling'
	DB	'BackG::RestoreDeviceObjects', 0aH, 00H	; `string'
CONST	ENDS
;	COMDAT ?__LINE__Var@?1??RestoreDeviceObjects@CMenuScrollingBackG@@UAEJPAUIDirect3DDevice8@@M@Z@4JA
_DATA	SEGMENT
?__LINE__Var@?1??RestoreDeviceObjects@CMenuScrollingBackG@@UAEJPAUIDirect3DDevice8@@M@Z@4JA DD 013H ; `CMenuScrollingBackG::RestoreDeviceObjects'::`2'::__LINE__Var
_DATA	ENDS
;	COMDAT ??_C@_0FF@LMIHBGNP@c?3?2documents?5and?5settings?2dom?2my@
CONST	SEGMENT
??_C@_0FF@LMIHBGNP@c?3?2documents?5and?5settings?2dom?2my@ DB 'c:\documen'
	DB	'ts and settings\dom\my documents\_dev\ae\xlr8a\x7g\cmenuscrol'
	DB	'lingbackg.cpp', 00H				; `string'
CONST	ENDS
;	COMDAT ??_C@_0M@NKNCPJJD@?$CBFAILED?$CIhr?$CJ?$AA@
CONST	SEGMENT
??_C@_0M@NKNCPJJD@?$CBFAILED?$CIhr?$CJ?$AA@ DB '!FAILED(hr)', 00H ; `string'
; Function compile flags: /Odt /RTCsu /ZI
CONST	ENDS
;	COMDAT ?RestoreDeviceObjects@CMenuScrollingBackG@@UAEJPAUIDirect3DDevice8@@M@Z
_TEXT	SEGMENT
$T85370 = -320
$T85369 = -296
$T85368 = -272
$T85367 = -248
_pVertices$ = -32
_hr$ = -20
_this$ = -8
_pDev$ = 8
_fAspect$ = 12
?RestoreDeviceObjects@CMenuScrollingBackG@@UAEJPAUIDirect3DDevice8@@M@Z PROC NEAR ; CMenuScrollingBackG::RestoreDeviceObjects, COMDAT
; _this$ = ecx

; 19   : {

  00000	55		 push	 ebp
  00001	8b ec		 mov	 ebp, esp
  00003	81 ec 44 01 00
	00		 sub	 esp, 324		; 00000144H
  00009	53		 push	 ebx
  0000a	56		 push	 esi
  0000b	57		 push	 edi
  0000c	51		 push	 ecx
  0000d	8d bd bc fe ff
	ff		 lea	 edi, DWORD PTR [ebp-324]
  00013	b9 51 00 00 00	 mov	 ecx, 81			; 00000051H
  00018	b8 cc cc cc cc	 mov	 eax, -858993460		; ccccccccH
  0001d	f3 ab		 rep stosd
  0001f	59		 pop	 ecx
  00020	89 4d f8	 mov	 DWORD PTR _this$[ebp], ecx

; 20   : 	ods( "CMenuScrollingBackG::RestoreDeviceObjects\n" );

  00023	68 00 00 00 00	 push	 OFFSET FLAT:??_C@_0CL@CBCJFLKF@CMenuScrollingBackG?3?3RestoreDevi@
  00028	e8 00 00 00 00	 call	 ?ods@@YAXPADZZ		; ods
  0002d	83 c4 04	 add	 esp, 4

; 21   : 
; 22   : 	HRESULT hr ;
; 23   : 
; 24   : 	CScreenOverlay::RestoreDeviceObjects(pDev, fAspect) ;

  00030	8b 45 0c	 mov	 eax, DWORD PTR _fAspect$[ebp]
  00033	50		 push	 eax
  00034	8b 4d 08	 mov	 ecx, DWORD PTR _pDev$[ebp]
  00037	51		 push	 ecx
  00038	8b 4d f8	 mov	 ecx, DWORD PTR _this$[ebp]
  0003b	e8 00 00 00 00	 call	 ?RestoreDeviceObjects@CScreenOverlay@@UAEJPAUIDirect3DDevice8@@M@Z ; CScreenOverlay::RestoreDeviceObjects

; 25   : 
; 26   : 	m_fLERPDone = 0.0f ;

  00040	8b 45 f8	 mov	 eax, DWORD PTR _this$[ebp]
  00043	c7 80 54 01 00
	00 00 00 00 00	 mov	 DWORD PTR [eax+340], 0

; 27   : 
; 28   : //
; 29   : // Change the vertex colors from white to something more fun.
; 30   : //
; 31   : 	//ods("CMenuScrollingBackG::RestoreDeviceObjects - Lock: ") ;
; 32   :     OVERLAYVERTEX* pVertices ; 
; 33   :     hr = m_pSharedVB->Lock(0, 0, (BYTE**)&pVertices, NULL) ;

  0004d	8b f4		 mov	 esi, esp
  0004f	6a 00		 push	 0
  00051	8d 45 e0	 lea	 eax, DWORD PTR _pVertices$[ebp]
  00054	50		 push	 eax
  00055	6a 00		 push	 0
  00057	6a 00		 push	 0
  00059	8b 4d f8	 mov	 ecx, DWORD PTR _this$[ebp]
  0005c	8b 51 04	 mov	 edx, DWORD PTR [ecx+4]
  0005f	8b 45 f8	 mov	 eax, DWORD PTR _this$[ebp]
  00062	8b 48 04	 mov	 ecx, DWORD PTR [eax+4]
  00065	8b 12		 mov	 edx, DWORD PTR [edx]
  00067	51		 push	 ecx
  00068	ff 52 2c	 call	 DWORD PTR [edx+44]
  0006b	3b f4		 cmp	 esi, esp
  0006d	e8 00 00 00 00	 call	 __RTC_CheckEsp
  00072	89 45 ec	 mov	 DWORD PTR _hr$[ebp], eax

; 34   : 	assert( !FAILED(hr) );

  00075	83 7d ec 00	 cmp	 DWORD PTR _hr$[ebp], 0
  00079	7d 1b		 jge	 SHORT $L85366
  0007b	a1 00 00 00 00	 mov	 eax, DWORD PTR ?__LINE__Var@?1??RestoreDeviceObjects@CMenuScrollingBackG@@UAEJPAUIDirect3DDevice8@@M@Z@4JA
  00080	83 c0 0f	 add	 eax, 15			; 0000000fH
  00083	50		 push	 eax
  00084	68 00 00 00 00	 push	 OFFSET FLAT:??_C@_0FF@LMIHBGNP@c?3?2documents?5and?5settings?2dom?2my@
  00089	68 00 00 00 00	 push	 OFFSET FLAT:??_C@_0M@NKNCPJJD@?$CBFAILED?$CIhr?$CJ?$AA@
  0008e	e8 00 00 00 00	 call	 __assert
  00093	83 c4 0c	 add	 esp, 12			; 0000000cH
$L85366:

; 35   : 	//ods("OK\n") ;
; 36   : 
; 37   :     pVertices += m_dwIndexOffset ;

  00096	8b 45 f8	 mov	 eax, DWORD PTR _this$[ebp]
  00099	8b 48 08	 mov	 ecx, DWORD PTR [eax+8]
  0009c	6b c9 18	 imul	 ecx, 24			; 00000018H
  0009f	8b 55 e0	 mov	 edx, DWORD PTR _pVertices$[ebp]
  000a2	03 d1		 add	 edx, ecx
  000a4	89 55 e0	 mov	 DWORD PTR _pVertices$[ebp], edx

; 38   : 	
; 39   : 	pVertices->color = D3DXCOLOR(rnd(), rnd(), rnd(), m_fAlpha) ;

  000a7	8b 45 f8	 mov	 eax, DWORD PTR _this$[ebp]
  000aa	8b 88 5c 01 00
	00		 mov	 ecx, DWORD PTR [eax+348]
  000b0	51		 push	 ecx
  000b1	e8 00 00 00 00	 call	 ?rnd@@YAMXZ		; rnd
  000b6	51		 push	 ecx
  000b7	d9 1c 24	 fstp	 DWORD PTR [esp]
  000ba	e8 00 00 00 00	 call	 ?rnd@@YAMXZ		; rnd
  000bf	51		 push	 ecx
  000c0	d9 1c 24	 fstp	 DWORD PTR [esp]
  000c3	e8 00 00 00 00	 call	 ?rnd@@YAMXZ		; rnd
  000c8	51		 push	 ecx
  000c9	d9 1c 24	 fstp	 DWORD PTR [esp]
  000cc	8d 8d 08 ff ff
	ff		 lea	 ecx, DWORD PTR $T85367[ebp]
  000d2	e8 00 00 00 00	 call	 ??0D3DXCOLOR@@QAE@MMMM@Z ; D3DXCOLOR::D3DXCOLOR
  000d7	8b c8		 mov	 ecx, eax
  000d9	e8 00 00 00 00	 call	 ??BD3DXCOLOR@@QBEKXZ	; D3DXCOLOR::operator unsigned long
  000de	8b 55 e0	 mov	 edx, DWORD PTR _pVertices$[ebp]
  000e1	89 42 0c	 mov	 DWORD PTR [edx+12], eax

; 40   :     pVertices++ ;

  000e4	8b 45 e0	 mov	 eax, DWORD PTR _pVertices$[ebp]
  000e7	83 c0 18	 add	 eax, 24			; 00000018H
  000ea	89 45 e0	 mov	 DWORD PTR _pVertices$[ebp], eax

; 41   : 	pVertices->color = D3DXCOLOR(rnd(), rnd(), rnd(), m_fAlpha) ;

  000ed	8b 45 f8	 mov	 eax, DWORD PTR _this$[ebp]
  000f0	8b 88 5c 01 00
	00		 mov	 ecx, DWORD PTR [eax+348]
  000f6	51		 push	 ecx
  000f7	e8 00 00 00 00	 call	 ?rnd@@YAMXZ		; rnd
  000fc	51		 push	 ecx
  000fd	d9 1c 24	 fstp	 DWORD PTR [esp]
  00100	e8 00 00 00 00	 call	 ?rnd@@YAMXZ		; rnd
  00105	51		 push	 ecx
  00106	d9 1c 24	 fstp	 DWORD PTR [esp]
  00109	e8 00 00 00 00	 call	 ?rnd@@YAMXZ		; rnd
  0010e	51		 push	 ecx
  0010f	d9 1c 24	 fstp	 DWORD PTR [esp]
  00112	8d 8d f0 fe ff
	ff		 lea	 ecx, DWORD PTR $T85368[ebp]
  00118	e8 00 00 00 00	 call	 ??0D3DXCOLOR@@QAE@MMMM@Z ; D3DXCOLOR::D3DXCOLOR
  0011d	8b c8		 mov	 ecx, eax
  0011f	e8 00 00 00 00	 call	 ??BD3DXCOLOR@@QBEKXZ	; D3DXCOLOR::operator unsigned long
  00124	8b 55 e0	 mov	 edx, DWORD PTR _pVertices$[ebp]
  00127	89 42 0c	 mov	 DWORD PTR [edx+12], eax

; 42   :     pVertices++ ;

  0012a	8b 45 e0	 mov	 eax, DWORD PTR _pVertices$[ebp]
  0012d	83 c0 18	 add	 eax, 24			; 00000018H
  00130	89 45 e0	 mov	 DWORD PTR _pVertices$[ebp], eax

; 43   : 	pVertices->color = D3DXCOLOR(rnd(), rnd(), rnd(), m_fAlpha) ;

  00133	8b 45 f8	 mov	 eax, DWORD PTR _this$[ebp]
  00136	8b 88 5c 01 00
	00		 mov	 ecx, DWORD PTR [eax+348]
  0013c	51		 push	 ecx
  0013d	e8 00 00 00 00	 call	 ?rnd@@YAMXZ		; rnd
  00142	51		 push	 ecx
  00143	d9 1c 24	 fstp	 DWORD PTR [esp]
  00146	e8 00 00 00 00	 call	 ?rnd@@YAMXZ		; rnd
  0014b	51		 push	 ecx
  0014c	d9 1c 24	 fstp	 DWORD PTR [esp]
  0014f	e8 00 00 00 00	 call	 ?rnd@@YAMXZ		; rnd
  00154	51		 push	 ecx
  00155	d9 1c 24	 fstp	 DWORD PTR [esp]
  00158	8d 8d d8 fe ff
	ff		 lea	 ecx, DWORD PTR $T85369[ebp]
  0015e	e8 00 00 00 00	 call	 ??0D3DXCOLOR@@QAE@MMMM@Z ; D3DXCOLOR::D3DXCOLOR
  00163	8b c8		 mov	 ecx, eax
  00165	e8 00 00 00 00	 call	 ??BD3DXCOLOR@@QBEKXZ	; D3DXCOLOR::operator unsigned long
  0016a	8b 55 e0	 mov	 edx, DWORD PTR _pVertices$[ebp]
  0016d	89 42 0c	 mov	 DWORD PTR [edx+12], eax

; 44   :     pVertices++ ;

  00170	8b 45 e0	 mov	 eax, DWORD PTR _pVertices$[ebp]
  00173	83 c0 18	 add	 eax, 24			; 00000018H
  00176	89 45 e0	 mov	 DWORD PTR _pVertices$[ebp], eax

; 45   : 	pVertices->color = D3DXCOLOR(rnd(), rnd(), rnd(), m_fAlpha) ;

  00179	8b 45 f8	 mov	 eax, DWORD PTR _this$[ebp]
  0017c	8b 88 5c 01 00
	00		 mov	 ecx, DWORD PTR [eax+348]
  00182	51		 push	 ecx
  00183	e8 00 00 00 00	 call	 ?rnd@@YAMXZ		; rnd
  00188	51		 push	 ecx
  00189	d9 1c 24	 fstp	 DWORD PTR [esp]
  0018c	e8 00 00 00 00	 call	 ?rnd@@YAMXZ		; rnd
  00191	51		 push	 ecx
  00192	d9 1c 24	 fstp	 DWORD PTR [esp]
  00195	e8 00 00 00 00	 call	 ?rnd@@YAMXZ		; rnd
  0019a	51		 push	 ecx
  0019b	d9 1c 24	 fstp	 DWORD PTR [esp]
  0019e	8d 8d c0 fe ff
	ff		 lea	 ecx, DWORD PTR $T85370[ebp]
  001a4	e8 00 00 00 00	 call	 ??0D3DXCOLOR@@QAE@MMMM@Z ; D3DXCOLOR::D3DXCOLOR
  001a9	8b c8		 mov	 ecx, eax
  001ab	e8 00 00 00 00	 call	 ??BD3DXCOLOR@@QBEKXZ	; D3DXCOLOR::operator unsigned long
  001b0	8b 55 e0	 mov	 edx, DWORD PTR _pVertices$[ebp]
  001b3	89 42 0c	 mov	 DWORD PTR [edx+12], eax

; 46   :     pVertices++ ;

  001b6	8b 45 e0	 mov	 eax, DWORD PTR _pVertices$[ebp]
  001b9	83 c0 18	 add	 eax, 24			; 00000018H
  001bc	89 45 e0	 mov	 DWORD PTR _pVertices$[ebp], eax

; 47   : 
; 48   : 	//ods("CMenuScrollingBackG::RestoreDeviceObjects - Unlock: ") ;
; 49   :     hr = m_pSharedVB->Unlock();

  001bf	8b 45 f8	 mov	 eax, DWORD PTR _this$[ebp]
  001c2	8b 48 04	 mov	 ecx, DWORD PTR [eax+4]
  001c5	8b 55 f8	 mov	 edx, DWORD PTR _this$[ebp]
  001c8	8b 42 04	 mov	 eax, DWORD PTR [edx+4]
  001cb	8b 09		 mov	 ecx, DWORD PTR [ecx]
  001cd	8b f4		 mov	 esi, esp
  001cf	50		 push	 eax
  001d0	ff 51 30	 call	 DWORD PTR [ecx+48]
  001d3	3b f4		 cmp	 esi, esp
  001d5	e8 00 00 00 00	 call	 __RTC_CheckEsp
  001da	89 45 ec	 mov	 DWORD PTR _hr$[ebp], eax

; 50   : 	assert( !FAILED(hr) );

  001dd	83 7d ec 00	 cmp	 DWORD PTR _hr$[ebp], 0
  001e1	7d 1b		 jge	 SHORT $L85371
  001e3	a1 00 00 00 00	 mov	 eax, DWORD PTR ?__LINE__Var@?1??RestoreDeviceObjects@CMenuScrollingBackG@@UAEJPAUIDirect3DDevice8@@M@Z@4JA
  001e8	83 c0 1f	 add	 eax, 31			; 0000001fH
  001eb	50		 push	 eax
  001ec	68 00 00 00 00	 push	 OFFSET FLAT:??_C@_0FF@LMIHBGNP@c?3?2documents?5and?5settings?2dom?2my@
  001f1	68 00 00 00 00	 push	 OFFSET FLAT:??_C@_0M@NKNCPJJD@?$CBFAILED?$CIhr?$CJ?$AA@
  001f6	e8 00 00 00 00	 call	 __assert
  001fb	83 c4 0c	 add	 esp, 12			; 0000000cH
$L85371:

; 51   : 	//ods("OK\n") ;
; 52   : 
; 53   : 	return S_OK ;

  001fe	33 c0		 xor	 eax, eax

; 54   : }

  00200	52		 push	 edx
  00201	8b cd		 mov	 ecx, ebp
  00203	50		 push	 eax
  00204	8d 15 00 00 00
	00		 lea	 edx, DWORD PTR $L85374
  0020a	e8 00 00 00 00	 call	 @_RTC_CheckStackVars@8
  0020f	58		 pop	 eax
  00210	5a		 pop	 edx
  00211	5f		 pop	 edi
  00212	5e		 pop	 esi
  00213	5b		 pop	 ebx
  00214	81 c4 44 01 00
	00		 add	 esp, 324		; 00000144H
  0021a	3b ec		 cmp	 ebp, esp
  0021c	e8 00 00 00 00	 call	 __RTC_CheckEsp
  00221	8b e5		 mov	 esp, ebp
  00223	5d		 pop	 ebp
  00224	c2 08 00	 ret	 8
$L85374:
  00227	01 00 00 00	 DD	 1
  0022b	00 00 00 00	 DD	 $L85373
$L85373:
  0022f	e0 ff ff ff	 DD	 -32			; ffffffe0H
  00233	04 00 00 00	 DD	 4
  00237	00 00 00 00	 DD	 $L85372
$L85372:
  0023b	70		 DB	 112			; 00000070H
  0023c	56		 DB	 86			; 00000056H
  0023d	65		 DB	 101			; 00000065H
  0023e	72		 DB	 114			; 00000072H
  0023f	74		 DB	 116			; 00000074H
  00240	69		 DB	 105			; 00000069H
  00241	63		 DB	 99			; 00000063H
  00242	65		 DB	 101			; 00000065H
  00243	73		 DB	 115			; 00000073H
  00244	00		 DB	 0
?RestoreDeviceObjects@CMenuScrollingBackG@@UAEJPAUIDirect3DDevice8@@M@Z ENDP ; CMenuScrollingBackG::RestoreDeviceObjects
_TEXT	ENDS
PUBLIC	??0D3DXCOLOR@@QAE@K@Z				; D3DXCOLOR::D3DXCOLOR
PUBLIC	__real@3f800000
PUBLIC	__real@00000000
PUBLIC	__real@3f000000
PUBLIC	__real@3c23d70a
PUBLIC	?D3DXColorLerp@@YAPAUD3DXCOLOR@@PAU1@PBU1@1M@Z	; D3DXColorLerp
;	COMDAT __real@3f800000
CONST	SEGMENT
__real@3f800000 DD 03f800000r			; 1
CONST	ENDS
;	COMDAT __real@00000000
CONST	SEGMENT
__real@00000000 DD 000000000r			; 0
CONST	ENDS
;	COMDAT __real@3f000000
CONST	SEGMENT
__real@3f000000 DD 03f000000r			; 0.5
CONST	ENDS
;	COMDAT __real@3c23d70a
CONST	SEGMENT
__real@3c23d70a DD 03c23d70ar			; 0.01
; Function compile flags: /Odt /RTCsu /ZI
CONST	ENDS
;	COMDAT ?FrameMove@CMenuScrollingBackG@@UAEJPAUIDirect3DDevice8@@MMPAUOVERLAYVERTEX@@@Z
_TEXT	SEGMENT
$T85385 = -524
$T85384 = -500
$T85383 = -476
$T85382 = -452
$T85381 = -428
$T85380 = -404
$T85379 = -380
$T85378 = -356
_fLERP$ = -140
_cN$ = -128
_c4$ = -104
_c3$ = -80
_c2$ = -56
_c1$ = -32
_this$ = -8
_pDev$ = 8
_fTimeMult$ = 12
_fAspect$ = 16
_pVertices$ = 20
?FrameMove@CMenuScrollingBackG@@UAEJPAUIDirect3DDevice8@@MMPAUOVERLAYVERTEX@@@Z PROC NEAR ; CMenuScrollingBackG::FrameMove, COMDAT
; _this$ = ecx

; 57   : {

  00000	55		 push	 ebp
  00001	8b ec		 mov	 ebp, esp
  00003	81 ec 10 02 00
	00		 sub	 esp, 528		; 00000210H
  00009	53		 push	 ebx
  0000a	56		 push	 esi
  0000b	57		 push	 edi
  0000c	51		 push	 ecx
  0000d	8d bd f0 fd ff
	ff		 lea	 edi, DWORD PTR [ebp-528]
  00013	b9 84 00 00 00	 mov	 ecx, 132		; 00000084H
  00018	b8 cc cc cc cc	 mov	 eax, -858993460		; ccccccccH
  0001d	f3 ab		 rep stosd
  0001f	59		 pop	 ecx
  00020	89 4d f8	 mov	 DWORD PTR _this$[ebp], ecx

; 58   : 	D3DXCOLOR c1, c2, c3, c4, cN ;

  00023	8d 4d e0	 lea	 ecx, DWORD PTR _c1$[ebp]
  00026	e8 00 00 00 00	 call	 ??0D3DXCOLOR@@QAE@XZ	; D3DXCOLOR::D3DXCOLOR
  0002b	8d 4d c8	 lea	 ecx, DWORD PTR _c2$[ebp]
  0002e	e8 00 00 00 00	 call	 ??0D3DXCOLOR@@QAE@XZ	; D3DXCOLOR::D3DXCOLOR
  00033	8d 4d b0	 lea	 ecx, DWORD PTR _c3$[ebp]
  00036	e8 00 00 00 00	 call	 ??0D3DXCOLOR@@QAE@XZ	; D3DXCOLOR::D3DXCOLOR
  0003b	8d 4d 98	 lea	 ecx, DWORD PTR _c4$[ebp]
  0003e	e8 00 00 00 00	 call	 ??0D3DXCOLOR@@QAE@XZ	; D3DXCOLOR::D3DXCOLOR
  00043	8d 4d 80	 lea	 ecx, DWORD PTR _cN$[ebp]
  00046	e8 00 00 00 00	 call	 ??0D3DXCOLOR@@QAE@XZ	; D3DXCOLOR::D3DXCOLOR

; 59   : 	float fLERP ;
; 60   : 
; 61   : //
; 62   : // LERP the vertex color vales, and cycle tex. coords.
; 63   : //
; 64   :     /*OVERLAYVERTEX* pVertices ; 
; 65   :     if (FAILED(m_pSharedVB->Lock(0, 0, (BYTE**)&pVertices, NULL)))
; 66   :         return E_FAIL ;*/
; 67   :     pVertices += m_dwIndexOffset ;

  0004b	8b 45 f8	 mov	 eax, DWORD PTR _this$[ebp]
  0004e	8b 48 08	 mov	 ecx, DWORD PTR [eax+8]
  00051	6b c9 18	 imul	 ecx, 24			; 00000018H
  00054	8b 55 14	 mov	 edx, DWORD PTR _pVertices$[ebp]
  00057	03 d1		 add	 edx, ecx
  00059	89 55 14	 mov	 DWORD PTR _pVertices$[ebp], edx

; 68   : 	
; 69   : 	c1 = (pVertices+0)->color ;

  0005c	8b 45 14	 mov	 eax, DWORD PTR _pVertices$[ebp]
  0005f	8b 48 0c	 mov	 ecx, DWORD PTR [eax+12]
  00062	51		 push	 ecx
  00063	8d 8d 9c fe ff
	ff		 lea	 ecx, DWORD PTR $T85378[ebp]
  00069	e8 00 00 00 00	 call	 ??0D3DXCOLOR@@QAE@K@Z	; D3DXCOLOR::D3DXCOLOR
  0006e	8b 95 9c fe ff
	ff		 mov	 edx, DWORD PTR $T85378[ebp]
  00074	89 55 e0	 mov	 DWORD PTR _c1$[ebp], edx
  00077	8b 85 a0 fe ff
	ff		 mov	 eax, DWORD PTR $T85378[ebp+4]
  0007d	89 45 e4	 mov	 DWORD PTR _c1$[ebp+4], eax
  00080	8b 8d a4 fe ff
	ff		 mov	 ecx, DWORD PTR $T85378[ebp+8]
  00086	89 4d e8	 mov	 DWORD PTR _c1$[ebp+8], ecx
  00089	8b 95 a8 fe ff
	ff		 mov	 edx, DWORD PTR $T85378[ebp+12]
  0008f	89 55 ec	 mov	 DWORD PTR _c1$[ebp+12], edx

; 70   : 	c2 = (pVertices+1)->color ;

  00092	8b 45 14	 mov	 eax, DWORD PTR _pVertices$[ebp]
  00095	8b 48 24	 mov	 ecx, DWORD PTR [eax+36]
  00098	51		 push	 ecx
  00099	8d 8d 84 fe ff
	ff		 lea	 ecx, DWORD PTR $T85379[ebp]
  0009f	e8 00 00 00 00	 call	 ??0D3DXCOLOR@@QAE@K@Z	; D3DXCOLOR::D3DXCOLOR
  000a4	8b 95 84 fe ff
	ff		 mov	 edx, DWORD PTR $T85379[ebp]
  000aa	89 55 c8	 mov	 DWORD PTR _c2$[ebp], edx
  000ad	8b 85 88 fe ff
	ff		 mov	 eax, DWORD PTR $T85379[ebp+4]
  000b3	89 45 cc	 mov	 DWORD PTR _c2$[ebp+4], eax
  000b6	8b 8d 8c fe ff
	ff		 mov	 ecx, DWORD PTR $T85379[ebp+8]
  000bc	89 4d d0	 mov	 DWORD PTR _c2$[ebp+8], ecx
  000bf	8b 95 90 fe ff
	ff		 mov	 edx, DWORD PTR $T85379[ebp+12]
  000c5	89 55 d4	 mov	 DWORD PTR _c2$[ebp+12], edx

; 71   : 	c3 = (pVertices+2)->color ;

  000c8	8b 45 14	 mov	 eax, DWORD PTR _pVertices$[ebp]
  000cb	8b 48 3c	 mov	 ecx, DWORD PTR [eax+60]
  000ce	51		 push	 ecx
  000cf	8d 8d 6c fe ff
	ff		 lea	 ecx, DWORD PTR $T85380[ebp]
  000d5	e8 00 00 00 00	 call	 ??0D3DXCOLOR@@QAE@K@Z	; D3DXCOLOR::D3DXCOLOR
  000da	8b 95 6c fe ff
	ff		 mov	 edx, DWORD PTR $T85380[ebp]
  000e0	89 55 b0	 mov	 DWORD PTR _c3$[ebp], edx
  000e3	8b 85 70 fe ff
	ff		 mov	 eax, DWORD PTR $T85380[ebp+4]
  000e9	89 45 b4	 mov	 DWORD PTR _c3$[ebp+4], eax
  000ec	8b 8d 74 fe ff
	ff		 mov	 ecx, DWORD PTR $T85380[ebp+8]
  000f2	89 4d b8	 mov	 DWORD PTR _c3$[ebp+8], ecx
  000f5	8b 95 78 fe ff
	ff		 mov	 edx, DWORD PTR $T85380[ebp+12]
  000fb	89 55 bc	 mov	 DWORD PTR _c3$[ebp+12], edx

; 72   : 	c4 = (pVertices+3)->color ;

  000fe	8b 45 14	 mov	 eax, DWORD PTR _pVertices$[ebp]
  00101	8b 48 54	 mov	 ecx, DWORD PTR [eax+84]
  00104	51		 push	 ecx
  00105	8d 8d 54 fe ff
	ff		 lea	 ecx, DWORD PTR $T85381[ebp]
  0010b	e8 00 00 00 00	 call	 ??0D3DXCOLOR@@QAE@K@Z	; D3DXCOLOR::D3DXCOLOR
  00110	8b 95 54 fe ff
	ff		 mov	 edx, DWORD PTR $T85381[ebp]
  00116	89 55 98	 mov	 DWORD PTR _c4$[ebp], edx
  00119	8b 85 58 fe ff
	ff		 mov	 eax, DWORD PTR $T85381[ebp+4]
  0011f	89 45 9c	 mov	 DWORD PTR _c4$[ebp+4], eax
  00122	8b 8d 5c fe ff
	ff		 mov	 ecx, DWORD PTR $T85381[ebp+8]
  00128	89 4d a0	 mov	 DWORD PTR _c4$[ebp+8], ecx
  0012b	8b 95 60 fe ff
	ff		 mov	 edx, DWORD PTR $T85381[ebp+12]
  00131	89 55 a4	 mov	 DWORD PTR _c4$[ebp+12], edx

; 73   : 
; 74   : 	fLERP = 1.0f / (60.0f * 1.0f) ;	// 1 sec. cycle

  00134	c7 85 74 ff ff
	ff 89 88 88 3c	 mov	 DWORD PTR _fLERP$[ebp], 1015580809 ; 3c888889H

; 75   : 	fLERP *= fTimeMult ;

  0013e	d9 85 74 ff ff
	ff		 fld	 DWORD PTR _fLERP$[ebp]
  00144	d8 4d 0c	 fmul	 DWORD PTR _fTimeMult$[ebp]
  00147	d9 9d 74 ff ff
	ff		 fstp	 DWORD PTR _fLERP$[ebp]

; 76   : 	if (m_fLERPDone >= 1.0f)

  0014d	8b 45 f8	 mov	 eax, DWORD PTR _this$[ebp]
  00150	d9 80 54 01 00
	00		 fld	 DWORD PTR [eax+340]
  00156	d8 1d 00 00 00
	00		 fcomp	 DWORD PTR __real@3f800000
  0015c	df e0		 fnstsw	 ax
  0015e	f6 c4 01	 test	 ah, 1
  00161	75 0d		 jne	 SHORT $L85308

; 77   : 		m_fLERPDone = 0.0f ;

  00163	8b 45 f8	 mov	 eax, DWORD PTR _this$[ebp]
  00166	c7 80 54 01 00
	00 00 00 00 00	 mov	 DWORD PTR [eax+340], 0
$L85308:

; 78   : 	if (m_fLERPDone == 0.0f)

  00170	8b 45 f8	 mov	 eax, DWORD PTR _this$[ebp]
  00173	d9 80 54 01 00
	00		 fld	 DWORD PTR [eax+340]
  00179	d8 1d 00 00 00
	00		 fcomp	 DWORD PTR __real@00000000
  0017f	df e0		 fnstsw	 ax
  00181	f6 c4 44	 test	 ah, 68			; 00000044H
  00184	0f 8a f6 01 00
	00		 jp	 $L85309

; 79   : 	{
; 80   : 		m_c1 = D3DXCOLOR(0.0f, 0.5f + rnd() * 0.5f, 0.5f + rnd() * 0.5f, m_fAlpha) ;

  0018a	8b 45 f8	 mov	 eax, DWORD PTR _this$[ebp]
  0018d	8b 88 5c 01 00
	00		 mov	 ecx, DWORD PTR [eax+348]
  00193	51		 push	 ecx
  00194	e8 00 00 00 00	 call	 ?rnd@@YAMXZ		; rnd
  00199	d8 0d 00 00 00
	00		 fmul	 DWORD PTR __real@3f000000
  0019f	d8 05 00 00 00
	00		 fadd	 DWORD PTR __real@3f000000
  001a5	51		 push	 ecx
  001a6	d9 1c 24	 fstp	 DWORD PTR [esp]
  001a9	e8 00 00 00 00	 call	 ?rnd@@YAMXZ		; rnd
  001ae	d8 0d 00 00 00
	00		 fmul	 DWORD PTR __real@3f000000
  001b4	d8 05 00 00 00
	00		 fadd	 DWORD PTR __real@3f000000
  001ba	51		 push	 ecx
  001bb	d9 1c 24	 fstp	 DWORD PTR [esp]
  001be	6a 00		 push	 0
  001c0	8d 8d 3c fe ff
	ff		 lea	 ecx, DWORD PTR $T85382[ebp]
  001c6	e8 00 00 00 00	 call	 ??0D3DXCOLOR@@QAE@MMMM@Z ; D3DXCOLOR::D3DXCOLOR
  001cb	8b 55 f8	 mov	 edx, DWORD PTR _this$[ebp]
  001ce	81 c2 d4 00 00
	00		 add	 edx, 212		; 000000d4H
  001d4	8b 08		 mov	 ecx, DWORD PTR [eax]
  001d6	89 0a		 mov	 DWORD PTR [edx], ecx
  001d8	8b 48 04	 mov	 ecx, DWORD PTR [eax+4]
  001db	89 4a 04	 mov	 DWORD PTR [edx+4], ecx
  001de	8b 48 08	 mov	 ecx, DWORD PTR [eax+8]
  001e1	89 4a 08	 mov	 DWORD PTR [edx+8], ecx
  001e4	8b 40 0c	 mov	 eax, DWORD PTR [eax+12]
  001e7	89 42 0c	 mov	 DWORD PTR [edx+12], eax

; 81   : 		m_c2 = D3DXCOLOR(0.5f + rnd() * 0.5f, 1.0f, 0.5f + rnd() * 0.5f, m_fAlpha) ;

  001ea	8b 45 f8	 mov	 eax, DWORD PTR _this$[ebp]
  001ed	8b 88 5c 01 00
	00		 mov	 ecx, DWORD PTR [eax+348]
  001f3	51		 push	 ecx
  001f4	e8 00 00 00 00	 call	 ?rnd@@YAMXZ		; rnd
  001f9	d8 0d 00 00 00
	00		 fmul	 DWORD PTR __real@3f000000
  001ff	d8 05 00 00 00
	00		 fadd	 DWORD PTR __real@3f000000
  00205	51		 push	 ecx
  00206	d9 1c 24	 fstp	 DWORD PTR [esp]
  00209	68 00 00 80 3f	 push	 1065353216		; 3f800000H
  0020e	e8 00 00 00 00	 call	 ?rnd@@YAMXZ		; rnd
  00213	d8 0d 00 00 00
	00		 fmul	 DWORD PTR __real@3f000000
  00219	d8 05 00 00 00
	00		 fadd	 DWORD PTR __real@3f000000
  0021f	51		 push	 ecx
  00220	d9 1c 24	 fstp	 DWORD PTR [esp]
  00223	8d 8d 24 fe ff
	ff		 lea	 ecx, DWORD PTR $T85383[ebp]
  00229	e8 00 00 00 00	 call	 ??0D3DXCOLOR@@QAE@MMMM@Z ; D3DXCOLOR::D3DXCOLOR
  0022e	8b 55 f8	 mov	 edx, DWORD PTR _this$[ebp]
  00231	81 c2 e4 00 00
	00		 add	 edx, 228		; 000000e4H
  00237	8b 08		 mov	 ecx, DWORD PTR [eax]
  00239	89 0a		 mov	 DWORD PTR [edx], ecx
  0023b	8b 48 04	 mov	 ecx, DWORD PTR [eax+4]
  0023e	89 4a 04	 mov	 DWORD PTR [edx+4], ecx
  00241	8b 48 08	 mov	 ecx, DWORD PTR [eax+8]
  00244	89 4a 08	 mov	 DWORD PTR [edx+8], ecx
  00247	8b 40 0c	 mov	 eax, DWORD PTR [eax+12]
  0024a	89 42 0c	 mov	 DWORD PTR [edx+12], eax

; 82   : 		m_c3 = D3DXCOLOR(0.5f + rnd() * 0.5f, 0.0f, 1.0f, m_fAlpha) ;

  0024d	8b 45 f8	 mov	 eax, DWORD PTR _this$[ebp]
  00250	8b 88 5c 01 00
	00		 mov	 ecx, DWORD PTR [eax+348]
  00256	51		 push	 ecx
  00257	68 00 00 80 3f	 push	 1065353216		; 3f800000H
  0025c	6a 00		 push	 0
  0025e	e8 00 00 00 00	 call	 ?rnd@@YAMXZ		; rnd
  00263	d8 0d 00 00 00
	00		 fmul	 DWORD PTR __real@3f000000
  00269	d8 05 00 00 00
	00		 fadd	 DWORD PTR __real@3f000000
  0026f	51		 push	 ecx
  00270	d9 1c 24	 fstp	 DWORD PTR [esp]
  00273	8d 8d 0c fe ff
	ff		 lea	 ecx, DWORD PTR $T85384[ebp]
  00279	e8 00 00 00 00	 call	 ??0D3DXCOLOR@@QAE@MMMM@Z ; D3DXCOLOR::D3DXCOLOR
  0027e	8b 55 f8	 mov	 edx, DWORD PTR _this$[ebp]
  00281	81 c2 f4 00 00
	00		 add	 edx, 244		; 000000f4H
  00287	8b 08		 mov	 ecx, DWORD PTR [eax]
  00289	89 0a		 mov	 DWORD PTR [edx], ecx
  0028b	8b 48 04	 mov	 ecx, DWORD PTR [eax+4]
  0028e	89 4a 04	 mov	 DWORD PTR [edx+4], ecx
  00291	8b 48 08	 mov	 ecx, DWORD PTR [eax+8]
  00294	89 4a 08	 mov	 DWORD PTR [edx+8], ecx
  00297	8b 40 0c	 mov	 eax, DWORD PTR [eax+12]
  0029a	89 42 0c	 mov	 DWORD PTR [edx+12], eax

; 83   : 		m_c4 = D3DXCOLOR(0.5f + rnd() * 0.5f, 0.5f + rnd() * 0.5f, rnd(), m_fAlpha) ;

  0029d	8b 45 f8	 mov	 eax, DWORD PTR _this$[ebp]
  002a0	8b 88 5c 01 00
	00		 mov	 ecx, DWORD PTR [eax+348]
  002a6	51		 push	 ecx
  002a7	e8 00 00 00 00	 call	 ?rnd@@YAMXZ		; rnd
  002ac	51		 push	 ecx
  002ad	d9 1c 24	 fstp	 DWORD PTR [esp]
  002b0	e8 00 00 00 00	 call	 ?rnd@@YAMXZ		; rnd
  002b5	d8 0d 00 00 00
	00		 fmul	 DWORD PTR __real@3f000000
  002bb	d8 05 00 00 00
	00		 fadd	 DWORD PTR __real@3f000000
  002c1	51		 push	 ecx
  002c2	d9 1c 24	 fstp	 DWORD PTR [esp]
  002c5	e8 00 00 00 00	 call	 ?rnd@@YAMXZ		; rnd
  002ca	d8 0d 00 00 00
	00		 fmul	 DWORD PTR __real@3f000000
  002d0	d8 05 00 00 00
	00		 fadd	 DWORD PTR __real@3f000000
  002d6	51		 push	 ecx
  002d7	d9 1c 24	 fstp	 DWORD PTR [esp]
  002da	8d 8d f4 fd ff
	ff		 lea	 ecx, DWORD PTR $T85385[ebp]
  002e0	e8 00 00 00 00	 call	 ??0D3DXCOLOR@@QAE@MMMM@Z ; D3DXCOLOR::D3DXCOLOR
  002e5	8b 55 f8	 mov	 edx, DWORD PTR _this$[ebp]
  002e8	81 c2 04 01 00
	00		 add	 edx, 260		; 00000104H
  002ee	8b 08		 mov	 ecx, DWORD PTR [eax]
  002f0	89 0a		 mov	 DWORD PTR [edx], ecx
  002f2	8b 48 04	 mov	 ecx, DWORD PTR [eax+4]
  002f5	89 4a 04	 mov	 DWORD PTR [edx+4], ecx
  002f8	8b 48 08	 mov	 ecx, DWORD PTR [eax+8]
  002fb	89 4a 08	 mov	 DWORD PTR [edx+8], ecx
  002fe	8b 40 0c	 mov	 eax, DWORD PTR [eax+12]
  00301	89 42 0c	 mov	 DWORD PTR [edx+12], eax

; 84   : 		m_co1 = c1 ;

  00304	8b 45 f8	 mov	 eax, DWORD PTR _this$[ebp]
  00307	05 14 01 00 00	 add	 eax, 276		; 00000114H
  0030c	8b 4d e0	 mov	 ecx, DWORD PTR _c1$[ebp]
  0030f	89 08		 mov	 DWORD PTR [eax], ecx
  00311	8b 55 e4	 mov	 edx, DWORD PTR _c1$[ebp+4]
  00314	89 50 04	 mov	 DWORD PTR [eax+4], edx
  00317	8b 4d e8	 mov	 ecx, DWORD PTR _c1$[ebp+8]
  0031a	89 48 08	 mov	 DWORD PTR [eax+8], ecx
  0031d	8b 55 ec	 mov	 edx, DWORD PTR _c1$[ebp+12]
  00320	89 50 0c	 mov	 DWORD PTR [eax+12], edx

; 85   : 		m_co2 = c2 ;

  00323	8b 45 f8	 mov	 eax, DWORD PTR _this$[ebp]
  00326	05 24 01 00 00	 add	 eax, 292		; 00000124H
  0032b	8b 4d c8	 mov	 ecx, DWORD PTR _c2$[ebp]
  0032e	89 08		 mov	 DWORD PTR [eax], ecx
  00330	8b 55 cc	 mov	 edx, DWORD PTR _c2$[ebp+4]
  00333	89 50 04	 mov	 DWORD PTR [eax+4], edx
  00336	8b 4d d0	 mov	 ecx, DWORD PTR _c2$[ebp+8]
  00339	89 48 08	 mov	 DWORD PTR [eax+8], ecx
  0033c	8b 55 d4	 mov	 edx, DWORD PTR _c2$[ebp+12]
  0033f	89 50 0c	 mov	 DWORD PTR [eax+12], edx

; 86   : 		m_co3 = c3 ;

  00342	8b 45 f8	 mov	 eax, DWORD PTR _this$[ebp]
  00345	05 34 01 00 00	 add	 eax, 308		; 00000134H
  0034a	8b 4d b0	 mov	 ecx, DWORD PTR _c3$[ebp]
  0034d	89 08		 mov	 DWORD PTR [eax], ecx
  0034f	8b 55 b4	 mov	 edx, DWORD PTR _c3$[ebp+4]
  00352	89 50 04	 mov	 DWORD PTR [eax+4], edx
  00355	8b 4d b8	 mov	 ecx, DWORD PTR _c3$[ebp+8]
  00358	89 48 08	 mov	 DWORD PTR [eax+8], ecx
  0035b	8b 55 bc	 mov	 edx, DWORD PTR _c3$[ebp+12]
  0035e	89 50 0c	 mov	 DWORD PTR [eax+12], edx

; 87   : 		m_co4 = c4 ;

  00361	8b 45 f8	 mov	 eax, DWORD PTR _this$[ebp]
  00364	05 44 01 00 00	 add	 eax, 324		; 00000144H
  00369	8b 4d 98	 mov	 ecx, DWORD PTR _c4$[ebp]
  0036c	89 08		 mov	 DWORD PTR [eax], ecx
  0036e	8b 55 9c	 mov	 edx, DWORD PTR _c4$[ebp+4]
  00371	89 50 04	 mov	 DWORD PTR [eax+4], edx
  00374	8b 4d a0	 mov	 ecx, DWORD PTR _c4$[ebp+8]
  00377	89 48 08	 mov	 DWORD PTR [eax+8], ecx
  0037a	8b 55 a4	 mov	 edx, DWORD PTR _c4$[ebp+12]
  0037d	89 50 0c	 mov	 DWORD PTR [eax+12], edx
$L85309:

; 88   : 	}
; 89   : 
; 90   : 	D3DXColorLerp(&cN, &m_co1, &m_c1, m_fLERPDone) ;

  00380	8b 45 f8	 mov	 eax, DWORD PTR _this$[ebp]
  00383	8b 88 54 01 00
	00		 mov	 ecx, DWORD PTR [eax+340]
  00389	51		 push	 ecx
  0038a	8b 55 f8	 mov	 edx, DWORD PTR _this$[ebp]
  0038d	81 c2 d4 00 00
	00		 add	 edx, 212		; 000000d4H
  00393	52		 push	 edx
  00394	8b 45 f8	 mov	 eax, DWORD PTR _this$[ebp]
  00397	05 14 01 00 00	 add	 eax, 276		; 00000114H
  0039c	50		 push	 eax
  0039d	8d 4d 80	 lea	 ecx, DWORD PTR _cN$[ebp]
  003a0	51		 push	 ecx
  003a1	e8 00 00 00 00	 call	 ?D3DXColorLerp@@YAPAUD3DXCOLOR@@PAU1@PBU1@1M@Z ; D3DXColorLerp
  003a6	83 c4 10	 add	 esp, 16			; 00000010H

; 91   : 	(pVertices+0)->color = cN ;

  003a9	8d 4d 80	 lea	 ecx, DWORD PTR _cN$[ebp]
  003ac	e8 00 00 00 00	 call	 ??BD3DXCOLOR@@QBEKXZ	; D3DXCOLOR::operator unsigned long
  003b1	8b 4d 14	 mov	 ecx, DWORD PTR _pVertices$[ebp]
  003b4	89 41 0c	 mov	 DWORD PTR [ecx+12], eax

; 92   : 	(pVertices+0)->tu += 0.01f * fTimeMult * m_fMoveSpeed ;

  003b7	d9 05 00 00 00
	00		 fld	 DWORD PTR __real@3c23d70a
  003bd	d8 4d 0c	 fmul	 DWORD PTR _fTimeMult$[ebp]
  003c0	8b 45 f8	 mov	 eax, DWORD PTR _this$[ebp]
  003c3	d8 88 58 01 00
	00		 fmul	 DWORD PTR [eax+344]
  003c9	8b 4d 14	 mov	 ecx, DWORD PTR _pVertices$[ebp]
  003cc	d8 41 10	 fadd	 DWORD PTR [ecx+16]
  003cf	8b 55 14	 mov	 edx, DWORD PTR _pVertices$[ebp]
  003d2	d9 5a 10	 fstp	 DWORD PTR [edx+16]

; 93   : 	D3DXColorLerp(&cN, &m_co2, &m_c2, m_fLERPDone) ;

  003d5	8b 45 f8	 mov	 eax, DWORD PTR _this$[ebp]
  003d8	8b 88 54 01 00
	00		 mov	 ecx, DWORD PTR [eax+340]
  003de	51		 push	 ecx
  003df	8b 55 f8	 mov	 edx, DWORD PTR _this$[ebp]
  003e2	81 c2 e4 00 00
	00		 add	 edx, 228		; 000000e4H
  003e8	52		 push	 edx
  003e9	8b 45 f8	 mov	 eax, DWORD PTR _this$[ebp]
  003ec	05 24 01 00 00	 add	 eax, 292		; 00000124H
  003f1	50		 push	 eax
  003f2	8d 4d 80	 lea	 ecx, DWORD PTR _cN$[ebp]
  003f5	51		 push	 ecx
  003f6	e8 00 00 00 00	 call	 ?D3DXColorLerp@@YAPAUD3DXCOLOR@@PAU1@PBU1@1M@Z ; D3DXColorLerp
  003fb	83 c4 10	 add	 esp, 16			; 00000010H

; 94   : 	(pVertices+1)->color = cN ;

  003fe	8d 4d 80	 lea	 ecx, DWORD PTR _cN$[ebp]
  00401	e8 00 00 00 00	 call	 ??BD3DXCOLOR@@QBEKXZ	; D3DXCOLOR::operator unsigned long
  00406	8b 4d 14	 mov	 ecx, DWORD PTR _pVertices$[ebp]
  00409	89 41 24	 mov	 DWORD PTR [ecx+36], eax

; 95   : 	(pVertices+1)->tu += 0.01f * fTimeMult * m_fMoveSpeed ;

  0040c	d9 05 00 00 00
	00		 fld	 DWORD PTR __real@3c23d70a
  00412	d8 4d 0c	 fmul	 DWORD PTR _fTimeMult$[ebp]
  00415	8b 45 f8	 mov	 eax, DWORD PTR _this$[ebp]
  00418	d8 88 58 01 00
	00		 fmul	 DWORD PTR [eax+344]
  0041e	8b 4d 14	 mov	 ecx, DWORD PTR _pVertices$[ebp]
  00421	d8 41 28	 fadd	 DWORD PTR [ecx+40]
  00424	8b 55 14	 mov	 edx, DWORD PTR _pVertices$[ebp]
  00427	d9 5a 28	 fstp	 DWORD PTR [edx+40]

; 96   : 	D3DXColorLerp(&cN, &m_co3, &m_c3, m_fLERPDone) ;

  0042a	8b 45 f8	 mov	 eax, DWORD PTR _this$[ebp]
  0042d	8b 88 54 01 00
	00		 mov	 ecx, DWORD PTR [eax+340]
  00433	51		 push	 ecx
  00434	8b 55 f8	 mov	 edx, DWORD PTR _this$[ebp]
  00437	81 c2 f4 00 00
	00		 add	 edx, 244		; 000000f4H
  0043d	52		 push	 edx
  0043e	8b 45 f8	 mov	 eax, DWORD PTR _this$[ebp]
  00441	05 34 01 00 00	 add	 eax, 308		; 00000134H
  00446	50		 push	 eax
  00447	8d 4d 80	 lea	 ecx, DWORD PTR _cN$[ebp]
  0044a	51		 push	 ecx
  0044b	e8 00 00 00 00	 call	 ?D3DXColorLerp@@YAPAUD3DXCOLOR@@PAU1@PBU1@1M@Z ; D3DXColorLerp
  00450	83 c4 10	 add	 esp, 16			; 00000010H

; 97   : 	(pVertices+2)->color = cN ;

  00453	8d 4d 80	 lea	 ecx, DWORD PTR _cN$[ebp]
  00456	e8 00 00 00 00	 call	 ??BD3DXCOLOR@@QBEKXZ	; D3DXCOLOR::operator unsigned long
  0045b	8b 4d 14	 mov	 ecx, DWORD PTR _pVertices$[ebp]
  0045e	89 41 3c	 mov	 DWORD PTR [ecx+60], eax

; 98   : 	(pVertices+2)->tu += 0.01f * fTimeMult * m_fMoveSpeed ;

  00461	d9 05 00 00 00
	00		 fld	 DWORD PTR __real@3c23d70a
  00467	d8 4d 0c	 fmul	 DWORD PTR _fTimeMult$[ebp]
  0046a	8b 45 f8	 mov	 eax, DWORD PTR _this$[ebp]
  0046d	d8 88 58 01 00
	00		 fmul	 DWORD PTR [eax+344]
  00473	8b 4d 14	 mov	 ecx, DWORD PTR _pVertices$[ebp]
  00476	d8 41 40	 fadd	 DWORD PTR [ecx+64]
  00479	8b 55 14	 mov	 edx, DWORD PTR _pVertices$[ebp]
  0047c	d9 5a 40	 fstp	 DWORD PTR [edx+64]

; 99   : 	D3DXColorLerp(&cN, &m_co4, &m_c4, m_fLERPDone) ;

  0047f	8b 45 f8	 mov	 eax, DWORD PTR _this$[ebp]
  00482	8b 88 54 01 00
	00		 mov	 ecx, DWORD PTR [eax+340]
  00488	51		 push	 ecx
  00489	8b 55 f8	 mov	 edx, DWORD PTR _this$[ebp]
  0048c	81 c2 04 01 00
	00		 add	 edx, 260		; 00000104H
  00492	52		 push	 edx
  00493	8b 45 f8	 mov	 eax, DWORD PTR _this$[ebp]
  00496	05 44 01 00 00	 add	 eax, 324		; 00000144H
  0049b	50		 push	 eax
  0049c	8d 4d 80	 lea	 ecx, DWORD PTR _cN$[ebp]
  0049f	51		 push	 ecx
  004a0	e8 00 00 00 00	 call	 ?D3DXColorLerp@@YAPAUD3DXCOLOR@@PAU1@PBU1@1M@Z ; D3DXColorLerp
  004a5	83 c4 10	 add	 esp, 16			; 00000010H

; 100  : 	(pVertices+3)->color = cN ;

  004a8	8d 4d 80	 lea	 ecx, DWORD PTR _cN$[ebp]
  004ab	e8 00 00 00 00	 call	 ??BD3DXCOLOR@@QBEKXZ	; D3DXCOLOR::operator unsigned long
  004b0	8b 4d 14	 mov	 ecx, DWORD PTR _pVertices$[ebp]
  004b3	89 41 54	 mov	 DWORD PTR [ecx+84], eax

; 101  : 	(pVertices+3)->tu += 0.01f * fTimeMult * m_fMoveSpeed ;

  004b6	d9 05 00 00 00
	00		 fld	 DWORD PTR __real@3c23d70a
  004bc	d8 4d 0c	 fmul	 DWORD PTR _fTimeMult$[ebp]
  004bf	8b 45 f8	 mov	 eax, DWORD PTR _this$[ebp]
  004c2	d8 88 58 01 00
	00		 fmul	 DWORD PTR [eax+344]
  004c8	8b 4d 14	 mov	 ecx, DWORD PTR _pVertices$[ebp]
  004cb	d8 41 58	 fadd	 DWORD PTR [ecx+88]
  004ce	8b 55 14	 mov	 edx, DWORD PTR _pVertices$[ebp]
  004d1	d9 5a 58	 fstp	 DWORD PTR [edx+88]

; 102  : 
; 103  : 	m_fLERPDone += fLERP ;

  004d4	8b 45 f8	 mov	 eax, DWORD PTR _this$[ebp]
  004d7	d9 85 74 ff ff
	ff		 fld	 DWORD PTR _fLERP$[ebp]
  004dd	d8 80 54 01 00
	00		 fadd	 DWORD PTR [eax+340]
  004e3	8b 4d f8	 mov	 ecx, DWORD PTR _this$[ebp]
  004e6	d9 99 54 01 00
	00		 fstp	 DWORD PTR [ecx+340]

; 104  :     /*m_pSharedVB->Unlock();*/
; 105  : 
; 106  : 	return S_OK ;

  004ec	33 c0		 xor	 eax, eax

; 107  : }

  004ee	52		 push	 edx
  004ef	8b cd		 mov	 ecx, ebp
  004f1	50		 push	 eax
  004f2	8d 15 00 00 00
	00		 lea	 edx, DWORD PTR $L85400
  004f8	e8 00 00 00 00	 call	 @_RTC_CheckStackVars@8
  004fd	58		 pop	 eax
  004fe	5a		 pop	 edx
  004ff	5f		 pop	 edi
  00500	5e		 pop	 esi
  00501	5b		 pop	 ebx
  00502	81 c4 10 02 00
	00		 add	 esp, 528		; 00000210H
  00508	3b ec		 cmp	 ebp, esp
  0050a	e8 00 00 00 00	 call	 __RTC_CheckEsp
  0050f	8b e5		 mov	 esp, ebp
  00511	5d		 pop	 ebp
  00512	c2 10 00	 ret	 16			; 00000010H
$L85400:
  00515	05 00 00 00	 DD	 5
  00519	00 00 00 00	 DD	 $L85399
$L85399:
  0051d	e0 ff ff ff	 DD	 -32			; ffffffe0H
  00521	10 00 00 00	 DD	 16			; 00000010H
  00525	00 00 00 00	 DD	 $L85394
  00529	c8 ff ff ff	 DD	 -56			; ffffffc8H
  0052d	10 00 00 00	 DD	 16			; 00000010H
  00531	00 00 00 00	 DD	 $L85395
  00535	b0 ff ff ff	 DD	 -80			; ffffffb0H
  00539	10 00 00 00	 DD	 16			; 00000010H
  0053d	00 00 00 00	 DD	 $L85396
  00541	98 ff ff ff	 DD	 -104			; ffffff98H
  00545	10 00 00 00	 DD	 16			; 00000010H
  00549	00 00 00 00	 DD	 $L85397
  0054d	80 ff ff ff	 DD	 -128			; ffffff80H
  00551	10 00 00 00	 DD	 16			; 00000010H
  00555	00 00 00 00	 DD	 $L85398
$L85398:
  00559	63		 DB	 99			; 00000063H
  0055a	4e		 DB	 78			; 0000004eH
  0055b	00		 DB	 0
$L85397:
  0055c	63		 DB	 99			; 00000063H
  0055d	34		 DB	 52			; 00000034H
  0055e	00		 DB	 0
$L85396:
  0055f	63		 DB	 99			; 00000063H
  00560	33		 DB	 51			; 00000033H
  00561	00		 DB	 0
$L85395:
  00562	63		 DB	 99			; 00000063H
  00563	32		 DB	 50			; 00000032H
  00564	00		 DB	 0
$L85394:
  00565	63		 DB	 99			; 00000063H
  00566	31		 DB	 49			; 00000031H
  00567	00		 DB	 0
?FrameMove@CMenuScrollingBackG@@UAEJPAUIDirect3DDevice8@@MMPAUOVERLAYVERTEX@@@Z ENDP ; CMenuScrollingBackG::FrameMove
; Function compile flags: /Odt /RTCsu /ZI
; File c:\dxsdk\include\d3dx8math.h
_TEXT	ENDS
;	COMDAT ??0D3DXCOLOR@@QAE@XZ
_TEXT	SEGMENT
_this$ = -8
??0D3DXCOLOR@@QAE@XZ PROC NEAR				; D3DXCOLOR::D3DXCOLOR, COMDAT
; _this$ = ecx

; 409  :     D3DXCOLOR() {}

  00000	55		 push	 ebp
  00001	8b ec		 mov	 ebp, esp
  00003	81 ec cc 00 00
	00		 sub	 esp, 204		; 000000ccH
  00009	53		 push	 ebx
  0000a	56		 push	 esi
  0000b	57		 push	 edi
  0000c	51		 push	 ecx
  0000d	8d bd 34 ff ff
	ff		 lea	 edi, DWORD PTR [ebp-204]
  00013	b9 33 00 00 00	 mov	 ecx, 51			; 00000033H
  00018	b8 cc cc cc cc	 mov	 eax, -858993460		; ccccccccH
  0001d	f3 ab		 rep stosd
  0001f	59		 pop	 ecx
  00020	89 4d f8	 mov	 DWORD PTR _this$[ebp], ecx
  00023	8b 45 f8	 mov	 eax, DWORD PTR _this$[ebp]
  00026	5f		 pop	 edi
  00027	5e		 pop	 esi
  00028	5b		 pop	 ebx
  00029	8b e5		 mov	 esp, ebp
  0002b	5d		 pop	 ebp
  0002c	c3		 ret	 0
??0D3DXCOLOR@@QAE@XZ ENDP				; D3DXCOLOR::D3DXCOLOR
; Function compile flags: /Odt /RTCsu /ZI
; File c:\dxsdk\include\d3dx8math.inl
_TEXT	ENDS
;	COMDAT ??0D3DXCOLOR@@QAE@K@Z
_TEXT	SEGMENT
tv94 = -220
tv91 = -220
tv89 = -220
tv86 = -220
_f$ = -20
_this$ = -8
_dw$ = 8
??0D3DXCOLOR@@QAE@K@Z PROC NEAR				; D3DXCOLOR::D3DXCOLOR, COMDAT
; _this$ = ecx

; 886  : {

  00000	55		 push	 ebp
  00001	8b ec		 mov	 ebp, esp
  00003	81 ec dc 00 00
	00		 sub	 esp, 220		; 000000dcH
  00009	53		 push	 ebx
  0000a	56		 push	 esi
  0000b	57		 push	 edi
  0000c	51		 push	 ecx
  0000d	8d bd 24 ff ff
	ff		 lea	 edi, DWORD PTR [ebp-220]
  00013	b9 37 00 00 00	 mov	 ecx, 55			; 00000037H
  00018	b8 cc cc cc cc	 mov	 eax, -858993460		; ccccccccH
  0001d	f3 ab		 rep stosd
  0001f	59		 pop	 ecx
  00020	89 4d f8	 mov	 DWORD PTR _this$[ebp], ecx

; 887  :     CONST FLOAT f = 1.0f / 255.0f;

  00023	c7 45 ec 81 80
	80 3b		 mov	 DWORD PTR _f$[ebp], 998277249 ; 3b808081H

; 888  :     r = f * (FLOAT) (unsigned char) (dw >> 16);

  0002a	8b 45 08	 mov	 eax, DWORD PTR _dw$[ebp]
  0002d	c1 e8 10	 shr	 eax, 16			; 00000010H
  00030	0f b6 c8	 movzx	 ecx, al
  00033	89 8d 24 ff ff
	ff		 mov	 DWORD PTR tv86[ebp], ecx
  00039	db 85 24 ff ff
	ff		 fild	 DWORD PTR tv86[ebp]
  0003f	d8 4d ec	 fmul	 DWORD PTR _f$[ebp]
  00042	8b 55 f8	 mov	 edx, DWORD PTR _this$[ebp]
  00045	d9 1a		 fstp	 DWORD PTR [edx]

; 889  :     g = f * (FLOAT) (unsigned char) (dw >>  8);

  00047	8b 45 08	 mov	 eax, DWORD PTR _dw$[ebp]
  0004a	c1 e8 08	 shr	 eax, 8
  0004d	0f b6 c8	 movzx	 ecx, al
  00050	89 8d 24 ff ff
	ff		 mov	 DWORD PTR tv89[ebp], ecx
  00056	db 85 24 ff ff
	ff		 fild	 DWORD PTR tv89[ebp]
  0005c	d8 4d ec	 fmul	 DWORD PTR _f$[ebp]
  0005f	8b 55 f8	 mov	 edx, DWORD PTR _this$[ebp]
  00062	d9 5a 04	 fstp	 DWORD PTR [edx+4]

; 890  :     b = f * (FLOAT) (unsigned char) (dw >>  0);

  00065	0f b6 45 08	 movzx	 eax, BYTE PTR _dw$[ebp]
  00069	89 85 24 ff ff
	ff		 mov	 DWORD PTR tv91[ebp], eax
  0006f	db 85 24 ff ff
	ff		 fild	 DWORD PTR tv91[ebp]
  00075	d8 4d ec	 fmul	 DWORD PTR _f$[ebp]
  00078	8b 4d f8	 mov	 ecx, DWORD PTR _this$[ebp]
  0007b	d9 59 08	 fstp	 DWORD PTR [ecx+8]

; 891  :     a = f * (FLOAT) (unsigned char) (dw >> 24);

  0007e	8b 45 08	 mov	 eax, DWORD PTR _dw$[ebp]
  00081	c1 e8 18	 shr	 eax, 24			; 00000018H
  00084	0f b6 c8	 movzx	 ecx, al
  00087	89 8d 24 ff ff
	ff		 mov	 DWORD PTR tv94[ebp], ecx
  0008d	db 85 24 ff ff
	ff		 fild	 DWORD PTR tv94[ebp]
  00093	d8 4d ec	 fmul	 DWORD PTR _f$[ebp]
  00096	8b 55 f8	 mov	 edx, DWORD PTR _this$[ebp]
  00099	d9 5a 0c	 fstp	 DWORD PTR [edx+12]

; 892  : }

  0009c	8b 45 f8	 mov	 eax, DWORD PTR _this$[ebp]
  0009f	5f		 pop	 edi
  000a0	5e		 pop	 esi
  000a1	5b		 pop	 ebx
  000a2	8b e5		 mov	 esp, ebp
  000a4	5d		 pop	 ebp
  000a5	c2 04 00	 ret	 4
??0D3DXCOLOR@@QAE@K@Z ENDP				; D3DXCOLOR::D3DXCOLOR
; Function compile flags: /Odt /RTCsu /ZI
_TEXT	ENDS
;	COMDAT ??0D3DXCOLOR@@QAE@MMMM@Z
_TEXT	SEGMENT
_this$ = -8
_fr$ = 8
_fg$ = 12
_fb$ = 16
_fa$ = 20
??0D3DXCOLOR@@QAE@MMMM@Z PROC NEAR			; D3DXCOLOR::D3DXCOLOR, COMDAT
; _this$ = ecx

; 919  : {

  00000	55		 push	 ebp
  00001	8b ec		 mov	 ebp, esp
  00003	81 ec cc 00 00
	00		 sub	 esp, 204		; 000000ccH
  00009	53		 push	 ebx
  0000a	56		 push	 esi
  0000b	57		 push	 edi
  0000c	51		 push	 ecx
  0000d	8d bd 34 ff ff
	ff		 lea	 edi, DWORD PTR [ebp-204]
  00013	b9 33 00 00 00	 mov	 ecx, 51			; 00000033H
  00018	b8 cc cc cc cc	 mov	 eax, -858993460		; ccccccccH
  0001d	f3 ab		 rep stosd
  0001f	59		 pop	 ecx
  00020	89 4d f8	 mov	 DWORD PTR _this$[ebp], ecx

; 920  :     r = fr;

  00023	8b 45 f8	 mov	 eax, DWORD PTR _this$[ebp]
  00026	8b 4d 08	 mov	 ecx, DWORD PTR _fr$[ebp]
  00029	89 08		 mov	 DWORD PTR [eax], ecx

; 921  :     g = fg;

  0002b	8b 45 f8	 mov	 eax, DWORD PTR _this$[ebp]
  0002e	8b 4d 0c	 mov	 ecx, DWORD PTR _fg$[ebp]
  00031	89 48 04	 mov	 DWORD PTR [eax+4], ecx

; 922  :     b = fb;

  00034	8b 45 f8	 mov	 eax, DWORD PTR _this$[ebp]
  00037	8b 4d 10	 mov	 ecx, DWORD PTR _fb$[ebp]
  0003a	89 48 08	 mov	 DWORD PTR [eax+8], ecx

; 923  :     a = fa;

  0003d	8b 45 f8	 mov	 eax, DWORD PTR _this$[ebp]
  00040	8b 4d 14	 mov	 ecx, DWORD PTR _fa$[ebp]
  00043	89 48 0c	 mov	 DWORD PTR [eax+12], ecx

; 924  : }

  00046	8b 45 f8	 mov	 eax, DWORD PTR _this$[ebp]
  00049	5f		 pop	 edi
  0004a	5e		 pop	 esi
  0004b	5b		 pop	 ebx
  0004c	8b e5		 mov	 esp, ebp
  0004e	5d		 pop	 ebp
  0004f	c2 10 00	 ret	 16			; 00000010H
??0D3DXCOLOR@@QAE@MMMM@Z ENDP				; D3DXCOLOR::D3DXCOLOR
_TEXT	ENDS
PUBLIC	__real@437f0000
EXTRN	__ftol2:NEAR
;	COMDAT __real@437f0000
CONST	SEGMENT
__real@437f0000 DD 0437f0000r			; 255
; Function compile flags: /Odt /RTCsu /ZI
CONST	ENDS
;	COMDAT ??BD3DXCOLOR@@QBEKXZ
_TEXT	SEGMENT
tv135 = -260
tv92 = -260
tv81 = -260
tv70 = -260
tv136 = -256
tv93 = -256
tv82 = -256
tv71 = -256
_dwA$ = -56
_dwB$ = -44
_dwG$ = -32
_dwR$ = -20
_this$ = -8
??BD3DXCOLOR@@QBEKXZ PROC NEAR				; D3DXCOLOR::operator unsigned long, COMDAT
; _this$ = ecx

; 930  : {

  00000	55		 push	 ebp
  00001	8b ec		 mov	 ebp, esp
  00003	81 ec 04 01 00
	00		 sub	 esp, 260		; 00000104H
  00009	53		 push	 ebx
  0000a	56		 push	 esi
  0000b	57		 push	 edi
  0000c	51		 push	 ecx
  0000d	8d bd fc fe ff
	ff		 lea	 edi, DWORD PTR [ebp-260]
  00013	b9 41 00 00 00	 mov	 ecx, 65			; 00000041H
  00018	b8 cc cc cc cc	 mov	 eax, -858993460		; ccccccccH
  0001d	f3 ab		 rep stosd
  0001f	59		 pop	 ecx
  00020	89 4d f8	 mov	 DWORD PTR _this$[ebp], ecx

; 931  :     DWORD dwR = r >= 1.0f ? 0xff : r <= 0.0f ? 0x00 : (DWORD) (r * 255.0f + 0.5f);

  00023	8b 45 f8	 mov	 eax, DWORD PTR _this$[ebp]
  00026	d9 00		 fld	 DWORD PTR [eax]
  00028	d8 1d 00 00 00
	00		 fcomp	 DWORD PTR __real@3f800000
  0002e	df e0		 fnstsw	 ax
  00030	f6 c4 01	 test	 ah, 1
  00033	75 0c		 jne	 SHORT $L85411
  00035	c7 85 00 ff ff
	ff ff 00 00 00	 mov	 DWORD PTR tv71[ebp], 255 ; 000000ffH
  0003f	eb 46		 jmp	 SHORT $L85412
$L85411:
  00041	8b 4d f8	 mov	 ecx, DWORD PTR _this$[ebp]
  00044	d9 01		 fld	 DWORD PTR [ecx]
  00046	d8 1d 00 00 00
	00		 fcomp	 DWORD PTR __real@00000000
  0004c	df e0		 fnstsw	 ax
  0004e	f6 c4 41	 test	 ah, 65			; 00000041H
  00051	7a 0c		 jp	 SHORT $L85409
  00053	c7 85 fc fe ff
	ff 00 00 00 00	 mov	 DWORD PTR tv70[ebp], 0
  0005d	eb 1c		 jmp	 SHORT $L85410
$L85409:
  0005f	8b 55 f8	 mov	 edx, DWORD PTR _this$[ebp]
  00062	d9 02		 fld	 DWORD PTR [edx]
  00064	d8 0d 00 00 00
	00		 fmul	 DWORD PTR __real@437f0000
  0006a	d8 05 00 00 00
	00		 fadd	 DWORD PTR __real@3f000000
  00070	e8 00 00 00 00	 call	 __ftol2
  00075	89 85 fc fe ff
	ff		 mov	 DWORD PTR tv70[ebp], eax
$L85410:
  0007b	8b 85 fc fe ff
	ff		 mov	 eax, DWORD PTR tv70[ebp]
  00081	89 85 00 ff ff
	ff		 mov	 DWORD PTR tv71[ebp], eax
$L85412:
  00087	8b 8d 00 ff ff
	ff		 mov	 ecx, DWORD PTR tv71[ebp]
  0008d	89 4d ec	 mov	 DWORD PTR _dwR$[ebp], ecx

; 932  :     DWORD dwG = g >= 1.0f ? 0xff : g <= 0.0f ? 0x00 : (DWORD) (g * 255.0f + 0.5f);

  00090	8b 45 f8	 mov	 eax, DWORD PTR _this$[ebp]
  00093	d9 40 04	 fld	 DWORD PTR [eax+4]
  00096	d8 1d 00 00 00
	00		 fcomp	 DWORD PTR __real@3f800000
  0009c	df e0		 fnstsw	 ax
  0009e	f6 c4 01	 test	 ah, 1
  000a1	75 0c		 jne	 SHORT $L85415
  000a3	c7 85 00 ff ff
	ff ff 00 00 00	 mov	 DWORD PTR tv82[ebp], 255 ; 000000ffH
  000ad	eb 48		 jmp	 SHORT $L85416
$L85415:
  000af	8b 4d f8	 mov	 ecx, DWORD PTR _this$[ebp]
  000b2	d9 41 04	 fld	 DWORD PTR [ecx+4]
  000b5	d8 1d 00 00 00
	00		 fcomp	 DWORD PTR __real@00000000
  000bb	df e0		 fnstsw	 ax
  000bd	f6 c4 41	 test	 ah, 65			; 00000041H
  000c0	7a 0c		 jp	 SHORT $L85413
  000c2	c7 85 fc fe ff
	ff 00 00 00 00	 mov	 DWORD PTR tv81[ebp], 0
  000cc	eb 1d		 jmp	 SHORT $L85414
$L85413:
  000ce	8b 55 f8	 mov	 edx, DWORD PTR _this$[ebp]
  000d1	d9 42 04	 fld	 DWORD PTR [edx+4]
  000d4	d8 0d 00 00 00
	00		 fmul	 DWORD PTR __real@437f0000
  000da	d8 05 00 00 00
	00		 fadd	 DWORD PTR __real@3f000000
  000e0	e8 00 00 00 00	 call	 __ftol2
  000e5	89 85 fc fe ff
	ff		 mov	 DWORD PTR tv81[ebp], eax
$L85414:
  000eb	8b 85 fc fe ff
	ff		 mov	 eax, DWORD PTR tv81[ebp]
  000f1	89 85 00 ff ff
	ff		 mov	 DWORD PTR tv82[ebp], eax
$L85416:
  000f7	8b 8d 00 ff ff
	ff		 mov	 ecx, DWORD PTR tv82[ebp]
  000fd	89 4d e0	 mov	 DWORD PTR _dwG$[ebp], ecx

; 933  :     DWORD dwB = b >= 1.0f ? 0xff : b <= 0.0f ? 0x00 : (DWORD) (b * 255.0f + 0.5f);

  00100	8b 45 f8	 mov	 eax, DWORD PTR _this$[ebp]
  00103	d9 40 08	 fld	 DWORD PTR [eax+8]
  00106	d8 1d 00 00 00
	00		 fcomp	 DWORD PTR __real@3f800000
  0010c	df e0		 fnstsw	 ax
  0010e	f6 c4 01	 test	 ah, 1
  00111	75 0c		 jne	 SHORT $L85419
  00113	c7 85 00 ff ff
	ff ff 00 00 00	 mov	 DWORD PTR tv93[ebp], 255 ; 000000ffH
  0011d	eb 48		 jmp	 SHORT $L85420
$L85419:
  0011f	8b 4d f8	 mov	 ecx, DWORD PTR _this$[ebp]
  00122	d9 41 08	 fld	 DWORD PTR [ecx+8]
  00125	d8 1d 00 00 00
	00		 fcomp	 DWORD PTR __real@00000000
  0012b	df e0		 fnstsw	 ax
  0012d	f6 c4 41	 test	 ah, 65			; 00000041H
  00130	7a 0c		 jp	 SHORT $L85417
  00132	c7 85 fc fe ff
	ff 00 00 00 00	 mov	 DWORD PTR tv92[ebp], 0
  0013c	eb 1d		 jmp	 SHORT $L85418
$L85417:
  0013e	8b 55 f8	 mov	 edx, DWORD PTR _this$[ebp]
  00141	d9 42 08	 fld	 DWORD PTR [edx+8]
  00144	d8 0d 00 00 00
	00		 fmul	 DWORD PTR __real@437f0000
  0014a	d8 05 00 00 00
	00		 fadd	 DWORD PTR __real@3f000000
  00150	e8 00 00 00 00	 call	 __ftol2
  00155	89 85 fc fe ff
	ff		 mov	 DWORD PTR tv92[ebp], eax
$L85418:
  0015b	8b 85 fc fe ff
	ff		 mov	 eax, DWORD PTR tv92[ebp]
  00161	89 85 00 ff ff
	ff		 mov	 DWORD PTR tv93[ebp], eax
$L85420:
  00167	8b 8d 00 ff ff
	ff		 mov	 ecx, DWORD PTR tv93[ebp]
  0016d	89 4d d4	 mov	 DWORD PTR _dwB$[ebp], ecx

; 934  :     DWORD dwA = a >= 1.0f ? 0xff : a <= 0.0f ? 0x00 : (DWORD) (a * 255.0f + 0.5f);

  00170	8b 45 f8	 mov	 eax, DWORD PTR _this$[ebp]
  00173	d9 40 0c	 fld	 DWORD PTR [eax+12]
  00176	d8 1d 00 00 00
	00		 fcomp	 DWORD PTR __real@3f800000
  0017c	df e0		 fnstsw	 ax
  0017e	f6 c4 01	 test	 ah, 1
  00181	75 0c		 jne	 SHORT $L85423
  00183	c7 85 00 ff ff
	ff ff 00 00 00	 mov	 DWORD PTR tv136[ebp], 255 ; 000000ffH
  0018d	eb 48		 jmp	 SHORT $L85424
$L85423:
  0018f	8b 4d f8	 mov	 ecx, DWORD PTR _this$[ebp]
  00192	d9 41 0c	 fld	 DWORD PTR [ecx+12]
  00195	d8 1d 00 00 00
	00		 fcomp	 DWORD PTR __real@00000000
  0019b	df e0		 fnstsw	 ax
  0019d	f6 c4 41	 test	 ah, 65			; 00000041H
  001a0	7a 0c		 jp	 SHORT $L85421
  001a2	c7 85 fc fe ff
	ff 00 00 00 00	 mov	 DWORD PTR tv135[ebp], 0
  001ac	eb 1d		 jmp	 SHORT $L85422
$L85421:
  001ae	8b 55 f8	 mov	 edx, DWORD PTR _this$[ebp]
  001b1	d9 42 0c	 fld	 DWORD PTR [edx+12]
  001b4	d8 0d 00 00 00
	00		 fmul	 DWORD PTR __real@437f0000
  001ba	d8 05 00 00 00
	00		 fadd	 DWORD PTR __real@3f000000
  001c0	e8 00 00 00 00	 call	 __ftol2
  001c5	89 85 fc fe ff
	ff		 mov	 DWORD PTR tv135[ebp], eax
$L85422:
  001cb	8b 85 fc fe ff
	ff		 mov	 eax, DWORD PTR tv135[ebp]
  001d1	89 85 00 ff ff
	ff		 mov	 DWORD PTR tv136[ebp], eax
$L85424:
  001d7	8b 8d 00 ff ff
	ff		 mov	 ecx, DWORD PTR tv136[ebp]
  001dd	89 4d c8	 mov	 DWORD PTR _dwA$[ebp], ecx

; 935  : 
; 936  :     return (dwA << 24) | (dwR << 16) | (dwG << 8) | dwB;

  001e0	8b 45 c8	 mov	 eax, DWORD PTR _dwA$[ebp]
  001e3	c1 e0 18	 shl	 eax, 24			; 00000018H
  001e6	8b 4d ec	 mov	 ecx, DWORD PTR _dwR$[ebp]
  001e9	c1 e1 10	 shl	 ecx, 16			; 00000010H
  001ec	0b c1		 or	 eax, ecx
  001ee	8b 55 e0	 mov	 edx, DWORD PTR _dwG$[ebp]
  001f1	c1 e2 08	 shl	 edx, 8
  001f4	0b c2		 or	 eax, edx
  001f6	0b 45 d4	 or	 eax, DWORD PTR _dwB$[ebp]

; 937  : }

  001f9	5f		 pop	 edi
  001fa	5e		 pop	 esi
  001fb	5b		 pop	 ebx
  001fc	8b e5		 mov	 esp, ebp
  001fe	5d		 pop	 ebp
  001ff	c3		 ret	 0
??BD3DXCOLOR@@QBEKXZ ENDP				; D3DXCOLOR::operator unsigned long
; Function compile flags: /Odt /RTCsu /ZI
_TEXT	ENDS
;	COMDAT ?D3DXColorLerp@@YAPAUD3DXCOLOR@@PAU1@PBU1@1M@Z
_TEXT	SEGMENT
_pOut$ = 8
_pC1$ = 12
_pC2$ = 16
_s$ = 20
?D3DXColorLerp@@YAPAUD3DXCOLOR@@PAU1@PBU1@1M@Z PROC NEAR ; D3DXColorLerp, COMDAT

; 1743 : {

  00000	55		 push	 ebp
  00001	8b ec		 mov	 ebp, esp
  00003	81 ec c0 00 00
	00		 sub	 esp, 192		; 000000c0H
  00009	53		 push	 ebx
  0000a	56		 push	 esi
  0000b	57		 push	 edi
  0000c	8d bd 40 ff ff
	ff		 lea	 edi, DWORD PTR [ebp-192]
  00012	b9 30 00 00 00	 mov	 ecx, 48			; 00000030H
  00017	b8 cc cc cc cc	 mov	 eax, -858993460		; ccccccccH
  0001c	f3 ab		 rep stosd

; 1744 : #ifdef D3DX_DEBUG
; 1745 :     if(!pOut || !pC1 || !pC2)
; 1746 :         return NULL;
; 1747 : #endif
; 1748 : 
; 1749 :     pOut->r = pC1->r + s * (pC2->r - pC1->r);

  0001e	8b 45 10	 mov	 eax, DWORD PTR _pC2$[ebp]
  00021	8b 4d 0c	 mov	 ecx, DWORD PTR _pC1$[ebp]
  00024	d9 00		 fld	 DWORD PTR [eax]
  00026	d8 21		 fsub	 DWORD PTR [ecx]
  00028	d8 4d 14	 fmul	 DWORD PTR _s$[ebp]
  0002b	8b 55 0c	 mov	 edx, DWORD PTR _pC1$[ebp]
  0002e	d8 02		 fadd	 DWORD PTR [edx]
  00030	8b 45 08	 mov	 eax, DWORD PTR _pOut$[ebp]
  00033	d9 18		 fstp	 DWORD PTR [eax]

; 1750 :     pOut->g = pC1->g + s * (pC2->g - pC1->g);

  00035	8b 45 10	 mov	 eax, DWORD PTR _pC2$[ebp]
  00038	8b 4d 0c	 mov	 ecx, DWORD PTR _pC1$[ebp]
  0003b	d9 40 04	 fld	 DWORD PTR [eax+4]
  0003e	d8 61 04	 fsub	 DWORD PTR [ecx+4]
  00041	d8 4d 14	 fmul	 DWORD PTR _s$[ebp]
  00044	8b 55 0c	 mov	 edx, DWORD PTR _pC1$[ebp]
  00047	d8 42 04	 fadd	 DWORD PTR [edx+4]
  0004a	8b 45 08	 mov	 eax, DWORD PTR _pOut$[ebp]
  0004d	d9 58 04	 fstp	 DWORD PTR [eax+4]

; 1751 :     pOut->b = pC1->b + s * (pC2->b - pC1->b);

  00050	8b 45 10	 mov	 eax, DWORD PTR _pC2$[ebp]
  00053	8b 4d 0c	 mov	 ecx, DWORD PTR _pC1$[ebp]
  00056	d9 40 08	 fld	 DWORD PTR [eax+8]
  00059	d8 61 08	 fsub	 DWORD PTR [ecx+8]
  0005c	d8 4d 14	 fmul	 DWORD PTR _s$[ebp]
  0005f	8b 55 0c	 mov	 edx, DWORD PTR _pC1$[ebp]
  00062	d8 42 08	 fadd	 DWORD PTR [edx+8]
  00065	8b 45 08	 mov	 eax, DWORD PTR _pOut$[ebp]
  00068	d9 58 08	 fstp	 DWORD PTR [eax+8]

; 1752 :     pOut->a = pC1->a + s * (pC2->a - pC1->a);

  0006b	8b 45 10	 mov	 eax, DWORD PTR _pC2$[ebp]
  0006e	8b 4d 0c	 mov	 ecx, DWORD PTR _pC1$[ebp]
  00071	d9 40 0c	 fld	 DWORD PTR [eax+12]
  00074	d8 61 0c	 fsub	 DWORD PTR [ecx+12]
  00077	d8 4d 14	 fmul	 DWORD PTR _s$[ebp]
  0007a	8b 55 0c	 mov	 edx, DWORD PTR _pC1$[ebp]
  0007d	d8 42 0c	 fadd	 DWORD PTR [edx+12]
  00080	8b 45 08	 mov	 eax, DWORD PTR _pOut$[ebp]
  00083	d9 58 0c	 fstp	 DWORD PTR [eax+12]

; 1753 :     return pOut;

  00086	8b 45 08	 mov	 eax, DWORD PTR _pOut$[ebp]

; 1754 : }

  00089	5f		 pop	 edi
  0008a	5e		 pop	 esi
  0008b	5b		 pop	 ebx
  0008c	8b e5		 mov	 esp, ebp
  0008e	5d		 pop	 ebp
  0008f	c3		 ret	 0
?D3DXColorLerp@@YAPAUD3DXCOLOR@@PAU1@PBU1@1M@Z ENDP	; D3DXColorLerp
_TEXT	ENDS
END
