; Listing generated by Microsoft (R) Optimizing Compiler Version 13.00.9466 

	TITLE	CMenuItem.cpp
	.386P
include listing.inc
if @Version gt 510
.model FLAT
else
_TEXT	SEGMENT PARA USE32 PUBLIC 'CODE'
_TEXT	ENDS
_DATA	SEGMENT DWORD USE32 PUBLIC 'DATA'
_DATA	ENDS
CONST	SEGMENT DWORD USE32 PUBLIC 'CONST'
CONST	ENDS
_BSS	SEGMENT DWORD USE32 PUBLIC 'BSS'
_BSS	ENDS
$$SYMBOLS	SEGMENT BYTE USE32 'DEBSYM'
$$SYMBOLS	ENDS
$$TYPES	SEGMENT BYTE USE32 'DEBTYP'
$$TYPES	ENDS
_TLS	SEGMENT DWORD USE32 PUBLIC 'TLS'
_TLS	ENDS
;	COMDAT ??_C@_0EL@FFOAPLCB@c?3?2documents?5and?5settings?2dom?2my@
CONST	SEGMENT DWORD USE32 PUBLIC 'CONST'
CONST	ENDS
;	COMDAT ??_C@_0M@NKNCPJJD@?$CBFAILED?$CIhr?$CJ?$AA@
CONST	SEGMENT DWORD USE32 PUBLIC 'CONST'
CONST	ENDS
;	COMDAT ??_C@_0CB@HOLHHIBB@CMenuItem?3?3RestoreDeviceObjects?6@
CONST	SEGMENT DWORD USE32 PUBLIC 'CONST'
CONST	ENDS
;	COMDAT _IsEqualGUID
_TEXT	SEGMENT PARA USE32 PUBLIC 'CODE'
_TEXT	ENDS
;	COMDAT _==
_TEXT	SEGMENT PARA USE32 PUBLIC 'CODE'
_TEXT	ENDS
;	COMDAT _sqrtf
_TEXT	SEGMENT PARA USE32 PUBLIC 'CODE'
_TEXT	ENDS
;	COMDAT ??0D3DXVECTOR3@@QAE@XZ
_TEXT	SEGMENT PARA USE32 PUBLIC 'CODE'
_TEXT	ENDS
;	COMDAT ??0D3DXMATRIX@@QAE@XZ
_TEXT	SEGMENT PARA USE32 PUBLIC 'CODE'
_TEXT	ENDS
;	COMDAT ??0D3DXQUATERNION@@QAE@XZ
_TEXT	SEGMENT PARA USE32 PUBLIC 'CODE'
_TEXT	ENDS
;	COMDAT ??0D3DXVECTOR2@@QAE@MM@Z
_TEXT	SEGMENT PARA USE32 PUBLIC 'CODE'
_TEXT	ENDS
;	COMDAT ??0D3DXVECTOR3@@QAE@MMM@Z
_TEXT	SEGMENT PARA USE32 PUBLIC 'CODE'
_TEXT	ENDS
;	COMDAT ??0D3DXVECTOR4@@QAE@MMMM@Z
_TEXT	SEGMENT PARA USE32 PUBLIC 'CODE'
_TEXT	ENDS
;	COMDAT ??0D3DXMATRIX@@QAE@PBM@Z
_TEXT	SEGMENT PARA USE32 PUBLIC 'CODE'
_TEXT	ENDS
;	COMDAT ??0D3DXMATRIX@@QAE@ABU_D3DMATRIX@@@Z
_TEXT	SEGMENT PARA USE32 PUBLIC 'CODE'
_TEXT	ENDS
;	COMDAT ??0D3DXMATRIX@@QAE@MMMMMMMMMMMMMMMM@Z
_TEXT	SEGMENT PARA USE32 PUBLIC 'CODE'
_TEXT	ENDS
;	COMDAT ??0D3DXQUATERNION@@QAE@MMMM@Z
_TEXT	SEGMENT PARA USE32 PUBLIC 'CODE'
_TEXT	ENDS
;	COMDAT ??0D3DXPLANE@@QAE@MMMM@Z
_TEXT	SEGMENT PARA USE32 PUBLIC 'CODE'
_TEXT	ENDS
;	COMDAT ??0D3DXCOLOR@@QAE@MMMM@Z
_TEXT	SEGMENT PARA USE32 PUBLIC 'CODE'
_TEXT	ENDS
;	COMDAT ??BD3DXCOLOR@@QBEKXZ
_TEXT	SEGMENT PARA USE32 PUBLIC 'CODE'
_TEXT	ENDS
;	COMDAT ??0CMenuItem@@QAE@XZ
_TEXT	SEGMENT PARA USE32 PUBLIC 'CODE'
_TEXT	ENDS
;	COMDAT ??1CMenuItem@@QAE@XZ
_TEXT	SEGMENT PARA USE32 PUBLIC 'CODE'
_TEXT	ENDS
;	COMDAT ??0CMenuItem@@QAE@PAUIDirect3DTexture8@@MMMMMM@Z
_TEXT	SEGMENT PARA USE32 PUBLIC 'CODE'
_TEXT	ENDS
;	COMDAT ?SetSelected@CMenuItem@@QAEHHPAUOVERLAYVERTEX@@@Z
_TEXT	SEGMENT PARA USE32 PUBLIC 'CODE'
_TEXT	ENDS
;	COMDAT ?RestoreDeviceObjects@CMenuItem@@UAEJPAUIDirect3DDevice8@@M@Z
_TEXT	SEGMENT PARA USE32 PUBLIC 'CODE'
_TEXT	ENDS
;	COMDAT ?FrameMove@CMenuItem@@UAEJPAUIDirect3DDevice8@@MMPAUOVERLAYVERTEX@@@Z
_TEXT	SEGMENT PARA USE32 PUBLIC 'CODE'
_TEXT	ENDS
;	COMDAT ??_7CMenuItem@@6B@
CONST	SEGMENT DWORD USE32 PUBLIC 'CONST'
CONST	ENDS
;	COMDAT ?__LINE__Var@?1??SetSelected@CMenuItem@@QAEHHPAUOVERLAYVERTEX@@@Z@4JA
_DATA	SEGMENT DWORD USE32 PUBLIC 'DATA'
_DATA	ENDS
FLAT	GROUP _DATA, CONST, _BSS
	ASSUME	CS: FLAT, DS: FLAT, SS: FLAT
endif

INCLUDELIB LIBCMTD
INCLUDELIB OLDNAMES

CONST	SEGMENT
_g_DEGTORAD DD	03c8efa35r			; 0.0174533
CONST	ENDS
PUBLIC	??0CMenuItem@@QAE@XZ				; CMenuItem::CMenuItem
PUBLIC	?FrameMove@CMenuItem@@UAEJPAUIDirect3DDevice8@@MMPAUOVERLAYVERTEX@@@Z ; CMenuItem::FrameMove
PUBLIC	?RestoreDeviceObjects@CMenuItem@@UAEJPAUIDirect3DDevice8@@M@Z ; CMenuItem::RestoreDeviceObjects
PUBLIC	??_7CMenuItem@@6B@				; CMenuItem::`vftable'
EXTRN	__RTC_InitBase:NEAR
EXTRN	__RTC_Shutdown:NEAR
EXTRN	__RTC_CheckEsp:NEAR
EXTRN	??0CScreenOverlay@@QAE@XZ:NEAR			; CScreenOverlay::CScreenOverlay
EXTRN	?Render@CScreenOverlay@@UAEJPAUIDirect3DDevice8@@@Z:NEAR ; CScreenOverlay::Render
;	COMDAT rtc$IMZ
; File c:\documents and settings\dom\my documents\_dev\ae\xlr8a\x7g\cmenuitem.cpp
rtc$IMZ	SEGMENT
__RTC_InitBase.rtc$IMZ DD FLAT:__RTC_InitBase
rtc$IMZ	ENDS
;	COMDAT rtc$TMZ
rtc$TMZ	SEGMENT
__RTC_Shutdown.rtc$TMZ DD FLAT:__RTC_Shutdown
rtc$TMZ	ENDS
;	COMDAT ??_7CMenuItem@@6B@
CONST	SEGMENT
??_7CMenuItem@@6B@ DD FLAT:?Render@CScreenOverlay@@UAEJPAUIDirect3DDevice8@@@Z ; CMenuItem::`vftable'
	DD	FLAT:?RestoreDeviceObjects@CMenuItem@@UAEJPAUIDirect3DDevice8@@M@Z
	DD	FLAT:?FrameMove@CMenuItem@@UAEJPAUIDirect3DDevice8@@MMPAUOVERLAYVERTEX@@@Z
; Function compile flags: /Odt /RTCsu /ZI
CONST	ENDS
;	COMDAT ??0CMenuItem@@QAE@XZ
_TEXT	SEGMENT
_this$ = -8
??0CMenuItem@@QAE@XZ PROC NEAR				; CMenuItem::CMenuItem, COMDAT
; _this$ = ecx

; 6    : {

  00000	55		 push	 ebp
  00001	8b ec		 mov	 ebp, esp
  00003	81 ec cc 00 00
	00		 sub	 esp, 204		; 000000ccH
  00009	53		 push	 ebx
  0000a	56		 push	 esi
  0000b	57		 push	 edi
  0000c	51		 push	 ecx
  0000d	8d bd 34 ff ff
	ff		 lea	 edi, DWORD PTR [ebp-204]
  00013	b9 33 00 00 00	 mov	 ecx, 51			; 00000033H
  00018	b8 cc cc cc cc	 mov	 eax, -858993460		; ccccccccH
  0001d	f3 ab		 rep stosd
  0001f	59		 pop	 ecx
  00020	89 4d f8	 mov	 DWORD PTR _this$[ebp], ecx
  00023	8b 4d f8	 mov	 ecx, DWORD PTR _this$[ebp]
  00026	e8 00 00 00 00	 call	 ??0CScreenOverlay@@QAE@XZ ; CScreenOverlay::CScreenOverlay
  0002b	8b 45 f8	 mov	 eax, DWORD PTR _this$[ebp]
  0002e	c7 00 00 00 00
	00		 mov	 DWORD PTR [eax], OFFSET FLAT:??_7CMenuItem@@6B@

; 7    : }

  00034	8b 45 f8	 mov	 eax, DWORD PTR _this$[ebp]
  00037	5f		 pop	 edi
  00038	5e		 pop	 esi
  00039	5b		 pop	 ebx
  0003a	81 c4 cc 00 00
	00		 add	 esp, 204		; 000000ccH
  00040	3b ec		 cmp	 ebp, esp
  00042	e8 00 00 00 00	 call	 __RTC_CheckEsp
  00047	8b e5		 mov	 esp, ebp
  00049	5d		 pop	 ebp
  0004a	c3		 ret	 0
??0CMenuItem@@QAE@XZ ENDP				; CMenuItem::CMenuItem
_TEXT	ENDS
PUBLIC	??1CMenuItem@@QAE@XZ				; CMenuItem::~CMenuItem
EXTRN	??1CScreenOverlay@@QAE@XZ:NEAR			; CScreenOverlay::~CScreenOverlay
; Function compile flags: /Odt /RTCsu /ZI
;	COMDAT ??1CMenuItem@@QAE@XZ
_TEXT	SEGMENT
_this$ = -8
??1CMenuItem@@QAE@XZ PROC NEAR				; CMenuItem::~CMenuItem, COMDAT
; _this$ = ecx

; 9    : {

  00000	55		 push	 ebp
  00001	8b ec		 mov	 ebp, esp
  00003	81 ec cc 00 00
	00		 sub	 esp, 204		; 000000ccH
  00009	53		 push	 ebx
  0000a	56		 push	 esi
  0000b	57		 push	 edi
  0000c	51		 push	 ecx
  0000d	8d bd 34 ff ff
	ff		 lea	 edi, DWORD PTR [ebp-204]
  00013	b9 33 00 00 00	 mov	 ecx, 51			; 00000033H
  00018	b8 cc cc cc cc	 mov	 eax, -858993460		; ccccccccH
  0001d	f3 ab		 rep stosd
  0001f	59		 pop	 ecx
  00020	89 4d f8	 mov	 DWORD PTR _this$[ebp], ecx
  00023	8b 45 f8	 mov	 eax, DWORD PTR _this$[ebp]
  00026	c7 00 00 00 00
	00		 mov	 DWORD PTR [eax], OFFSET FLAT:??_7CMenuItem@@6B@

; 10   : }

  0002c	8b 4d f8	 mov	 ecx, DWORD PTR _this$[ebp]
  0002f	e8 00 00 00 00	 call	 ??1CScreenOverlay@@QAE@XZ ; CScreenOverlay::~CScreenOverlay
  00034	5f		 pop	 edi
  00035	5e		 pop	 esi
  00036	5b		 pop	 ebx
  00037	81 c4 cc 00 00
	00		 add	 esp, 204		; 000000ccH
  0003d	3b ec		 cmp	 ebp, esp
  0003f	e8 00 00 00 00	 call	 __RTC_CheckEsp
  00044	8b e5		 mov	 esp, ebp
  00046	5d		 pop	 ebp
  00047	c3		 ret	 0
??1CMenuItem@@QAE@XZ ENDP				; CMenuItem::~CMenuItem
_TEXT	ENDS
PUBLIC	??0CMenuItem@@QAE@PAUIDirect3DTexture8@@MMMMMM@Z ; CMenuItem::CMenuItem
EXTRN	__fltused:NEAR
EXTRN	??0CScreenOverlay@@QAE@PAUIDirect3DTexture8@@MMMMMMH@Z:NEAR ; CScreenOverlay::CScreenOverlay
; Function compile flags: /Odt /RTCsu /ZI
;	COMDAT ??0CMenuItem@@QAE@PAUIDirect3DTexture8@@MMMMMM@Z
_TEXT	SEGMENT
_this$ = -8
_pTex$ = 8
_fTexRep$ = 12
_fX$ = 16
_fY$ = 20
_fZ$ = 24
_fWidth$ = 28
_fHeight$ = 32
??0CMenuItem@@QAE@PAUIDirect3DTexture8@@MMMMMM@Z PROC NEAR ; CMenuItem::CMenuItem, COMDAT
; _this$ = ecx

; 13   : {

  00000	55		 push	 ebp
  00001	8b ec		 mov	 ebp, esp
  00003	81 ec cc 00 00
	00		 sub	 esp, 204		; 000000ccH
  00009	53		 push	 ebx
  0000a	56		 push	 esi
  0000b	57		 push	 edi
  0000c	51		 push	 ecx
  0000d	8d bd 34 ff ff
	ff		 lea	 edi, DWORD PTR [ebp-204]
  00013	b9 33 00 00 00	 mov	 ecx, 51			; 00000033H
  00018	b8 cc cc cc cc	 mov	 eax, -858993460		; ccccccccH
  0001d	f3 ab		 rep stosd
  0001f	59		 pop	 ecx
  00020	89 4d f8	 mov	 DWORD PTR _this$[ebp], ecx
  00023	6a 0a		 push	 10			; 0000000aH
  00025	8b 45 20	 mov	 eax, DWORD PTR _fHeight$[ebp]
  00028	50		 push	 eax
  00029	8b 4d 1c	 mov	 ecx, DWORD PTR _fWidth$[ebp]
  0002c	51		 push	 ecx
  0002d	8b 55 18	 mov	 edx, DWORD PTR _fZ$[ebp]
  00030	52		 push	 edx
  00031	8b 45 14	 mov	 eax, DWORD PTR _fY$[ebp]
  00034	50		 push	 eax
  00035	8b 4d 10	 mov	 ecx, DWORD PTR _fX$[ebp]
  00038	51		 push	 ecx
  00039	8b 55 0c	 mov	 edx, DWORD PTR _fTexRep$[ebp]
  0003c	52		 push	 edx
  0003d	8b 45 08	 mov	 eax, DWORD PTR _pTex$[ebp]
  00040	50		 push	 eax
  00041	8b 4d f8	 mov	 ecx, DWORD PTR _this$[ebp]
  00044	e8 00 00 00 00	 call	 ??0CScreenOverlay@@QAE@PAUIDirect3DTexture8@@MMMMMMH@Z ; CScreenOverlay::CScreenOverlay
  00049	8b 45 f8	 mov	 eax, DWORD PTR _this$[ebp]
  0004c	c7 00 00 00 00
	00		 mov	 DWORD PTR [eax], OFFSET FLAT:??_7CMenuItem@@6B@

; 14   : 	m_fUnselectedAlpha = 0.5f ;

  00052	8b 45 f8	 mov	 eax, DWORD PTR _this$[ebp]
  00055	c7 80 d8 00 00
	00 00 00 00 3f	 mov	 DWORD PTR [eax+216], 1056964608 ; 3f000000H

; 15   : 	m_fSelectedAlpha = 0.95f ;

  0005f	8b 45 f8	 mov	 eax, DWORD PTR _this$[ebp]
  00062	c7 80 dc 00 00
	00 33 33 73 3f	 mov	 DWORD PTR [eax+220], 1064514355 ; 3f733333H

; 16   : 	m_bSelected = FALSE ;

  0006c	8b 45 f8	 mov	 eax, DWORD PTR _this$[ebp]
  0006f	c7 80 d4 00 00
	00 00 00 00 00	 mov	 DWORD PTR [eax+212], 0

; 17   : }

  00079	8b 45 f8	 mov	 eax, DWORD PTR _this$[ebp]
  0007c	5f		 pop	 edi
  0007d	5e		 pop	 esi
  0007e	5b		 pop	 ebx
  0007f	81 c4 cc 00 00
	00		 add	 esp, 204		; 000000ccH
  00085	3b ec		 cmp	 ebp, esp
  00087	e8 00 00 00 00	 call	 __RTC_CheckEsp
  0008c	8b e5		 mov	 esp, ebp
  0008e	5d		 pop	 ebp
  0008f	c2 1c 00	 ret	 28			; 0000001cH
??0CMenuItem@@QAE@PAUIDirect3DTexture8@@MMMMMM@Z ENDP	; CMenuItem::CMenuItem
_TEXT	ENDS
PUBLIC	?SetSelected@CMenuItem@@QAEHHPAUOVERLAYVERTEX@@@Z ; CMenuItem::SetSelected
PUBLIC	??0D3DXCOLOR@@QAE@MMMM@Z			; D3DXCOLOR::D3DXCOLOR
PUBLIC	??BD3DXCOLOR@@QBEKXZ				; D3DXCOLOR::operator unsigned long
PUBLIC	?__LINE__Var@?1??SetSelected@CMenuItem@@QAEHHPAUOVERLAYVERTEX@@@Z@4JA ; `CMenuItem::SetSelected'::`2'::__LINE__Var
PUBLIC	??_C@_0EL@FFOAPLCB@c?3?2documents?5and?5settings?2dom?2my@ ; `string'
PUBLIC	??_C@_0M@NKNCPJJD@?$CBFAILED?$CIhr?$CJ?$AA@	; `string'
EXTRN	@_RTC_CheckStackVars@8:NEAR
EXTRN	__assert:NEAR
;	COMDAT ?__LINE__Var@?1??SetSelected@CMenuItem@@QAEHHPAUOVERLAYVERTEX@@@Z@4JA
_DATA	SEGMENT
?__LINE__Var@?1??SetSelected@CMenuItem@@QAEHHPAUOVERLAYVERTEX@@@Z@4JA DD 014H ; `CMenuItem::SetSelected'::`2'::__LINE__Var
_DATA	ENDS
;	COMDAT ??_C@_0EL@FFOAPLCB@c?3?2documents?5and?5settings?2dom?2my@
CONST	SEGMENT
??_C@_0EL@FFOAPLCB@c?3?2documents?5and?5settings?2dom?2my@ DB 'c:\documen'
	DB	'ts and settings\dom\my documents\_dev\ae\xlr8a\x7g\cmenuitem.'
	DB	'cpp', 00H					; `string'
CONST	ENDS
;	COMDAT ??_C@_0M@NKNCPJJD@?$CBFAILED?$CIhr?$CJ?$AA@
CONST	SEGMENT
??_C@_0M@NKNCPJJD@?$CBFAILED?$CIhr?$CJ?$AA@ DB '!FAILED(hr)', 00H ; `string'
; Function compile flags: /Odt /RTCsu /ZI
CONST	ENDS
;	COMDAT ?SetSelected@CMenuItem@@QAEHHPAUOVERLAYVERTEX@@@Z
_TEXT	SEGMENT
$T85374 = -320
$T85373 = -296
$T85372 = -272
$T85371 = -248
_pVertices$ = -32
_hr$ = -20
_this$ = -8
_bSelected$ = 8
__pVertices$ = 12
?SetSelected@CMenuItem@@QAEHHPAUOVERLAYVERTEX@@@Z PROC NEAR ; CMenuItem::SetSelected, COMDAT
; _this$ = ecx

; 20   : {

  00000	55		 push	 ebp
  00001	8b ec		 mov	 ebp, esp
  00003	81 ec 44 01 00
	00		 sub	 esp, 324		; 00000144H
  00009	53		 push	 ebx
  0000a	56		 push	 esi
  0000b	57		 push	 edi
  0000c	51		 push	 ecx
  0000d	8d bd bc fe ff
	ff		 lea	 edi, DWORD PTR [ebp-324]
  00013	b9 51 00 00 00	 mov	 ecx, 81			; 00000051H
  00018	b8 cc cc cc cc	 mov	 eax, -858993460		; ccccccccH
  0001d	f3 ab		 rep stosd
  0001f	59		 pop	 ecx
  00020	89 4d f8	 mov	 DWORD PTR _this$[ebp], ecx

; 21   : 	HRESULT hr ;
; 22   : 
; 23   : 	if (m_bSelected && bSelected)

  00023	8b 45 f8	 mov	 eax, DWORD PTR _this$[ebp]
  00026	83 b8 d4 00 00
	00 00		 cmp	 DWORD PTR [eax+212], 0
  0002d	74 0d		 je	 SHORT $L85273
  0002f	83 7d 08 00	 cmp	 DWORD PTR _bSelected$[ebp], 0
  00033	74 07		 je	 SHORT $L85273

; 24   : 		return S_OK ;

  00035	33 c0		 xor	 eax, eax
  00037	e9 e0 01 00 00	 jmp	 $L85271
$L85273:

; 25   : 
; 26   : 	m_bSelected = bSelected ;

  0003c	8b 45 f8	 mov	 eax, DWORD PTR _this$[ebp]
  0003f	8b 4d 08	 mov	 ecx, DWORD PTR _bSelected$[ebp]
  00042	89 88 d4 00 00
	00		 mov	 DWORD PTR [eax+212], ecx

; 27   : 	
; 28   : 	if (m_bSelected)

  00048	8b 45 f8	 mov	 eax, DWORD PTR _this$[ebp]
  0004b	83 b8 d4 00 00
	00 00		 cmp	 DWORD PTR [eax+212], 0
  00052	74 0d		 je	 SHORT $L85275

; 29   : 		m_fTimeSelected = 0.0f ;

  00054	8b 45 f8	 mov	 eax, DWORD PTR _this$[ebp]
  00057	c7 80 e0 00 00
	00 00 00 00 00	 mov	 DWORD PTR [eax+224], 0
$L85275:

; 30   : 
; 31   : //
; 32   : // Change the vertex colors either to white or to something more fun,
; 33   : // depending on the Selected status:
; 34   : //
; 35   : 	//ods("CMenuItem::SetSelected - Lock: ") ;
; 36   :     OVERLAYVERTEX* pVertices ; 
; 37   :     hr = m_pSharedVB->Lock(0, 0, (BYTE**)&pVertices, NULL) ;

  00061	8b f4		 mov	 esi, esp
  00063	6a 00		 push	 0
  00065	8d 45 e0	 lea	 eax, DWORD PTR _pVertices$[ebp]
  00068	50		 push	 eax
  00069	6a 00		 push	 0
  0006b	6a 00		 push	 0
  0006d	8b 4d f8	 mov	 ecx, DWORD PTR _this$[ebp]
  00070	8b 51 04	 mov	 edx, DWORD PTR [ecx+4]
  00073	8b 45 f8	 mov	 eax, DWORD PTR _this$[ebp]
  00076	8b 48 04	 mov	 ecx, DWORD PTR [eax+4]
  00079	8b 12		 mov	 edx, DWORD PTR [edx]
  0007b	51		 push	 ecx
  0007c	ff 52 2c	 call	 DWORD PTR [edx+44]
  0007f	3b f4		 cmp	 esi, esp
  00081	e8 00 00 00 00	 call	 __RTC_CheckEsp
  00086	89 45 ec	 mov	 DWORD PTR _hr$[ebp], eax

; 38   : 	assert( !FAILED(hr) );

  00089	83 7d ec 00	 cmp	 DWORD PTR _hr$[ebp], 0
  0008d	7d 1b		 jge	 SHORT $L85370
  0008f	a1 00 00 00 00	 mov	 eax, DWORD PTR ?__LINE__Var@?1??SetSelected@CMenuItem@@QAEHHPAUOVERLAYVERTEX@@@Z@4JA
  00094	83 c0 12	 add	 eax, 18			; 00000012H
  00097	50		 push	 eax
  00098	68 00 00 00 00	 push	 OFFSET FLAT:??_C@_0EL@FFOAPLCB@c?3?2documents?5and?5settings?2dom?2my@
  0009d	68 00 00 00 00	 push	 OFFSET FLAT:??_C@_0M@NKNCPJJD@?$CBFAILED?$CIhr?$CJ?$AA@
  000a2	e8 00 00 00 00	 call	 __assert
  000a7	83 c4 0c	 add	 esp, 12			; 0000000cH
$L85370:

; 39   : 	//ods("OK\n") ;
; 40   : 
; 41   :     pVertices += m_dwIndexOffset ;

  000aa	8b 45 f8	 mov	 eax, DWORD PTR _this$[ebp]
  000ad	8b 48 08	 mov	 ecx, DWORD PTR [eax+8]
  000b0	6b c9 18	 imul	 ecx, 24			; 00000018H
  000b3	8b 55 e0	 mov	 edx, DWORD PTR _pVertices$[ebp]
  000b6	03 d1		 add	 edx, ecx
  000b8	89 55 e0	 mov	 DWORD PTR _pVertices$[ebp], edx

; 42   : 	
; 43   : 	if (m_bSelected)

  000bb	8b 45 f8	 mov	 eax, DWORD PTR _this$[ebp]
  000be	83 b8 d4 00 00
	00 00		 cmp	 DWORD PTR [eax+212], 0
  000c5	74 02		 je	 SHORT $L85283

; 44   : 		;//pVertices->color = D3DXCOLOR(0.5, 0.0f, 0.0f, m_fSelectedAlpha) ;
; 45   : 	else

  000c7	eb 31		 jmp	 SHORT $L85284
$L85283:

; 46   : 		pVertices->color = D3DXCOLOR(1.0f, 1.0f, 1.0f, m_fUnselectedAlpha) ;

  000c9	8b 45 f8	 mov	 eax, DWORD PTR _this$[ebp]
  000cc	8b 88 d8 00 00
	00		 mov	 ecx, DWORD PTR [eax+216]
  000d2	51		 push	 ecx
  000d3	68 00 00 80 3f	 push	 1065353216		; 3f800000H
  000d8	68 00 00 80 3f	 push	 1065353216		; 3f800000H
  000dd	68 00 00 80 3f	 push	 1065353216		; 3f800000H
  000e2	8d 8d 08 ff ff
	ff		 lea	 ecx, DWORD PTR $T85371[ebp]
  000e8	e8 00 00 00 00	 call	 ??0D3DXCOLOR@@QAE@MMMM@Z ; D3DXCOLOR::D3DXCOLOR
  000ed	8b c8		 mov	 ecx, eax
  000ef	e8 00 00 00 00	 call	 ??BD3DXCOLOR@@QBEKXZ	; D3DXCOLOR::operator unsigned long
  000f4	8b 55 e0	 mov	 edx, DWORD PTR _pVertices$[ebp]
  000f7	89 42 0c	 mov	 DWORD PTR [edx+12], eax
$L85284:

; 47   :     pVertices++ ;

  000fa	8b 45 e0	 mov	 eax, DWORD PTR _pVertices$[ebp]
  000fd	83 c0 18	 add	 eax, 24			; 00000018H
  00100	89 45 e0	 mov	 DWORD PTR _pVertices$[ebp], eax

; 48   : 
; 49   : 	if (m_bSelected)

  00103	8b 45 f8	 mov	 eax, DWORD PTR _this$[ebp]
  00106	83 b8 d4 00 00
	00 00		 cmp	 DWORD PTR [eax+212], 0
  0010d	74 02		 je	 SHORT $L85286

; 50   : 		;//pVertices->color = D3DXCOLOR(0.0f, 0.5, 0.0f, m_fSelectedAlpha) ;
; 51   : 	else

  0010f	eb 31		 jmp	 SHORT $L85287
$L85286:

; 52   : 		pVertices->color = D3DXCOLOR(1.0f, 1.0f, 1.0f, m_fUnselectedAlpha) ;

  00111	8b 45 f8	 mov	 eax, DWORD PTR _this$[ebp]
  00114	8b 88 d8 00 00
	00		 mov	 ecx, DWORD PTR [eax+216]
  0011a	51		 push	 ecx
  0011b	68 00 00 80 3f	 push	 1065353216		; 3f800000H
  00120	68 00 00 80 3f	 push	 1065353216		; 3f800000H
  00125	68 00 00 80 3f	 push	 1065353216		; 3f800000H
  0012a	8d 8d f0 fe ff
	ff		 lea	 ecx, DWORD PTR $T85372[ebp]
  00130	e8 00 00 00 00	 call	 ??0D3DXCOLOR@@QAE@MMMM@Z ; D3DXCOLOR::D3DXCOLOR
  00135	8b c8		 mov	 ecx, eax
  00137	e8 00 00 00 00	 call	 ??BD3DXCOLOR@@QBEKXZ	; D3DXCOLOR::operator unsigned long
  0013c	8b 55 e0	 mov	 edx, DWORD PTR _pVertices$[ebp]
  0013f	89 42 0c	 mov	 DWORD PTR [edx+12], eax
$L85287:

; 53   :     pVertices++ ;

  00142	8b 45 e0	 mov	 eax, DWORD PTR _pVertices$[ebp]
  00145	83 c0 18	 add	 eax, 24			; 00000018H
  00148	89 45 e0	 mov	 DWORD PTR _pVertices$[ebp], eax

; 54   : 
; 55   : 	if (m_bSelected)

  0014b	8b 45 f8	 mov	 eax, DWORD PTR _this$[ebp]
  0014e	83 b8 d4 00 00
	00 00		 cmp	 DWORD PTR [eax+212], 0
  00155	74 02		 je	 SHORT $L85289

; 56   : 		;//pVertices->color = D3DXCOLOR(0.5, 0.0f, 0.0f, m_fSelectedAlpha) ;
; 57   : 	else

  00157	eb 31		 jmp	 SHORT $L85290
$L85289:

; 58   : 		pVertices->color = D3DXCOLOR(1.0f, 1.0f, 1.0f, m_fUnselectedAlpha) ;

  00159	8b 45 f8	 mov	 eax, DWORD PTR _this$[ebp]
  0015c	8b 88 d8 00 00
	00		 mov	 ecx, DWORD PTR [eax+216]
  00162	51		 push	 ecx
  00163	68 00 00 80 3f	 push	 1065353216		; 3f800000H
  00168	68 00 00 80 3f	 push	 1065353216		; 3f800000H
  0016d	68 00 00 80 3f	 push	 1065353216		; 3f800000H
  00172	8d 8d d8 fe ff
	ff		 lea	 ecx, DWORD PTR $T85373[ebp]
  00178	e8 00 00 00 00	 call	 ??0D3DXCOLOR@@QAE@MMMM@Z ; D3DXCOLOR::D3DXCOLOR
  0017d	8b c8		 mov	 ecx, eax
  0017f	e8 00 00 00 00	 call	 ??BD3DXCOLOR@@QBEKXZ	; D3DXCOLOR::operator unsigned long
  00184	8b 55 e0	 mov	 edx, DWORD PTR _pVertices$[ebp]
  00187	89 42 0c	 mov	 DWORD PTR [edx+12], eax
$L85290:

; 59   :     pVertices++ ;

  0018a	8b 45 e0	 mov	 eax, DWORD PTR _pVertices$[ebp]
  0018d	83 c0 18	 add	 eax, 24			; 00000018H
  00190	89 45 e0	 mov	 DWORD PTR _pVertices$[ebp], eax

; 60   : 
; 61   : 	if (m_bSelected)

  00193	8b 45 f8	 mov	 eax, DWORD PTR _this$[ebp]
  00196	83 b8 d4 00 00
	00 00		 cmp	 DWORD PTR [eax+212], 0
  0019d	74 02		 je	 SHORT $L85292

; 62   : 		;//pVertices->color = D3DXCOLOR(0.0f, 0.5, 0.0f, m_fSelectedAlpha) ;
; 63   : 	else

  0019f	eb 31		 jmp	 SHORT $L85293
$L85292:

; 64   : 		pVertices->color = D3DXCOLOR(1.0f, 1.0f, 1.0f, m_fUnselectedAlpha) ;

  001a1	8b 45 f8	 mov	 eax, DWORD PTR _this$[ebp]
  001a4	8b 88 d8 00 00
	00		 mov	 ecx, DWORD PTR [eax+216]
  001aa	51		 push	 ecx
  001ab	68 00 00 80 3f	 push	 1065353216		; 3f800000H
  001b0	68 00 00 80 3f	 push	 1065353216		; 3f800000H
  001b5	68 00 00 80 3f	 push	 1065353216		; 3f800000H
  001ba	8d 8d c0 fe ff
	ff		 lea	 ecx, DWORD PTR $T85374[ebp]
  001c0	e8 00 00 00 00	 call	 ??0D3DXCOLOR@@QAE@MMMM@Z ; D3DXCOLOR::D3DXCOLOR
  001c5	8b c8		 mov	 ecx, eax
  001c7	e8 00 00 00 00	 call	 ??BD3DXCOLOR@@QBEKXZ	; D3DXCOLOR::operator unsigned long
  001cc	8b 55 e0	 mov	 edx, DWORD PTR _pVertices$[ebp]
  001cf	89 42 0c	 mov	 DWORD PTR [edx+12], eax
$L85293:

; 65   :     pVertices++ ;

  001d2	8b 45 e0	 mov	 eax, DWORD PTR _pVertices$[ebp]
  001d5	83 c0 18	 add	 eax, 24			; 00000018H
  001d8	89 45 e0	 mov	 DWORD PTR _pVertices$[ebp], eax

; 66   : 
; 67   : 	//ods("CMenuItem::SetSelected - Unlock: ") ;
; 68   :     hr = m_pSharedVB->Unlock();

  001db	8b 45 f8	 mov	 eax, DWORD PTR _this$[ebp]
  001de	8b 48 04	 mov	 ecx, DWORD PTR [eax+4]
  001e1	8b 55 f8	 mov	 edx, DWORD PTR _this$[ebp]
  001e4	8b 42 04	 mov	 eax, DWORD PTR [edx+4]
  001e7	8b 09		 mov	 ecx, DWORD PTR [ecx]
  001e9	8b f4		 mov	 esi, esp
  001eb	50		 push	 eax
  001ec	ff 51 30	 call	 DWORD PTR [ecx+48]
  001ef	3b f4		 cmp	 esi, esp
  001f1	e8 00 00 00 00	 call	 __RTC_CheckEsp
  001f6	89 45 ec	 mov	 DWORD PTR _hr$[ebp], eax

; 69   : 	assert( !FAILED(hr) );

  001f9	83 7d ec 00	 cmp	 DWORD PTR _hr$[ebp], 0
  001fd	7d 1b		 jge	 SHORT $L85375
  001ff	a1 00 00 00 00	 mov	 eax, DWORD PTR ?__LINE__Var@?1??SetSelected@CMenuItem@@QAEHHPAUOVERLAYVERTEX@@@Z@4JA
  00204	83 c0 31	 add	 eax, 49			; 00000031H
  00207	50		 push	 eax
  00208	68 00 00 00 00	 push	 OFFSET FLAT:??_C@_0EL@FFOAPLCB@c?3?2documents?5and?5settings?2dom?2my@
  0020d	68 00 00 00 00	 push	 OFFSET FLAT:??_C@_0M@NKNCPJJD@?$CBFAILED?$CIhr?$CJ?$AA@
  00212	e8 00 00 00 00	 call	 __assert
  00217	83 c4 0c	 add	 esp, 12			; 0000000cH
$L85375:

; 70   : 	//ods("OK\n") ;
; 71   : 	return S_OK ;

  0021a	33 c0		 xor	 eax, eax
$L85271:

; 72   : }

  0021c	52		 push	 edx
  0021d	8b cd		 mov	 ecx, ebp
  0021f	50		 push	 eax
  00220	8d 15 00 00 00
	00		 lea	 edx, DWORD PTR $L85378
  00226	e8 00 00 00 00	 call	 @_RTC_CheckStackVars@8
  0022b	58		 pop	 eax
  0022c	5a		 pop	 edx
  0022d	5f		 pop	 edi
  0022e	5e		 pop	 esi
  0022f	5b		 pop	 ebx
  00230	81 c4 44 01 00
	00		 add	 esp, 324		; 00000144H
  00236	3b ec		 cmp	 ebp, esp
  00238	e8 00 00 00 00	 call	 __RTC_CheckEsp
  0023d	8b e5		 mov	 esp, ebp
  0023f	5d		 pop	 ebp
  00240	c2 08 00	 ret	 8
$L85378:
  00243	01 00 00 00	 DD	 1
  00247	00 00 00 00	 DD	 $L85377
$L85377:
  0024b	e0 ff ff ff	 DD	 -32			; ffffffe0H
  0024f	04 00 00 00	 DD	 4
  00253	00 00 00 00	 DD	 $L85376
$L85376:
  00257	70		 DB	 112			; 00000070H
  00258	56		 DB	 86			; 00000056H
  00259	65		 DB	 101			; 00000065H
  0025a	72		 DB	 114			; 00000072H
  0025b	74		 DB	 116			; 00000074H
  0025c	69		 DB	 105			; 00000069H
  0025d	63		 DB	 99			; 00000063H
  0025e	65		 DB	 101			; 00000065H
  0025f	73		 DB	 115			; 00000073H
  00260	00		 DB	 0
?SetSelected@CMenuItem@@QAEHHPAUOVERLAYVERTEX@@@Z ENDP	; CMenuItem::SetSelected
_TEXT	ENDS
PUBLIC	??_C@_0CB@HOLHHIBB@CMenuItem?3?3RestoreDeviceObjects?6@ ; `string'
EXTRN	?ods@@YAXPADZZ:NEAR				; ods
EXTRN	?RestoreDeviceObjects@CScreenOverlay@@UAEJPAUIDirect3DDevice8@@M@Z:NEAR ; CScreenOverlay::RestoreDeviceObjects
;	COMDAT ??_C@_0CB@HOLHHIBB@CMenuItem?3?3RestoreDeviceObjects?6@
CONST	SEGMENT
??_C@_0CB@HOLHHIBB@CMenuItem?3?3RestoreDeviceObjects?6@ DB 'CMenuItem::Re'
	DB	'storeDeviceObjects', 0aH, 00H		; `string'
; Function compile flags: /Odt /RTCsu /ZI
CONST	ENDS
;	COMDAT ?RestoreDeviceObjects@CMenuItem@@UAEJPAUIDirect3DDevice8@@M@Z
_TEXT	SEGMENT
_this$ = -8
_pDev$ = 8
_fAspect$ = 12
?RestoreDeviceObjects@CMenuItem@@UAEJPAUIDirect3DDevice8@@M@Z PROC NEAR ; CMenuItem::RestoreDeviceObjects, COMDAT
; _this$ = ecx

; 75   : {

  00000	55		 push	 ebp
  00001	8b ec		 mov	 ebp, esp
  00003	81 ec cc 00 00
	00		 sub	 esp, 204		; 000000ccH
  00009	53		 push	 ebx
  0000a	56		 push	 esi
  0000b	57		 push	 edi
  0000c	51		 push	 ecx
  0000d	8d bd 34 ff ff
	ff		 lea	 edi, DWORD PTR [ebp-204]
  00013	b9 33 00 00 00	 mov	 ecx, 51			; 00000033H
  00018	b8 cc cc cc cc	 mov	 eax, -858993460		; ccccccccH
  0001d	f3 ab		 rep stosd
  0001f	59		 pop	 ecx
  00020	89 4d f8	 mov	 DWORD PTR _this$[ebp], ecx

; 76   : 	ods( "CMenuItem::RestoreDeviceObjects\n" );

  00023	68 00 00 00 00	 push	 OFFSET FLAT:??_C@_0CB@HOLHHIBB@CMenuItem?3?3RestoreDeviceObjects?6@
  00028	e8 00 00 00 00	 call	 ?ods@@YAXPADZZ		; ods
  0002d	83 c4 04	 add	 esp, 4

; 77   : 
; 78   : 	CScreenOverlay::RestoreDeviceObjects(pDev, fAspect) ;

  00030	8b 45 0c	 mov	 eax, DWORD PTR _fAspect$[ebp]
  00033	50		 push	 eax
  00034	8b 4d 08	 mov	 ecx, DWORD PTR _pDev$[ebp]
  00037	51		 push	 ecx
  00038	8b 4d f8	 mov	 ecx, DWORD PTR _this$[ebp]
  0003b	e8 00 00 00 00	 call	 ?RestoreDeviceObjects@CScreenOverlay@@UAEJPAUIDirect3DDevice8@@M@Z ; CScreenOverlay::RestoreDeviceObjects

; 79   : 
; 80   : 	return S_OK ;

  00040	33 c0		 xor	 eax, eax

; 81   : }

  00042	5f		 pop	 edi
  00043	5e		 pop	 esi
  00044	5b		 pop	 ebx
  00045	81 c4 cc 00 00
	00		 add	 esp, 204		; 000000ccH
  0004b	3b ec		 cmp	 ebp, esp
  0004d	e8 00 00 00 00	 call	 __RTC_CheckEsp
  00052	8b e5		 mov	 esp, ebp
  00054	5d		 pop	 ebp
  00055	c2 08 00	 ret	 8
?RestoreDeviceObjects@CMenuItem@@UAEJPAUIDirect3DDevice8@@M@Z ENDP ; CMenuItem::RestoreDeviceObjects
_TEXT	ENDS
PUBLIC	__real@42700000
PUBLIC	__real@3f800000
PUBLIC	__real@408f400000000000
PUBLIC	__real@3ff0000000000000
PUBLIC	__real@4000000000000000
PUBLIC	__real@3e800000
PUBLIC	__real@3f400000
EXTRN	_sin:NEAR
;	COMDAT __real@42700000
CONST	SEGMENT
__real@42700000 DD 042700000r			; 60
CONST	ENDS
;	COMDAT __real@3f800000
CONST	SEGMENT
__real@3f800000 DD 03f800000r			; 1
CONST	ENDS
;	COMDAT __real@408f400000000000
CONST	SEGMENT
__real@408f400000000000 DQ 0408f400000000000r	; 1000
CONST	ENDS
;	COMDAT __real@3ff0000000000000
CONST	SEGMENT
__real@3ff0000000000000 DQ 03ff0000000000000r	; 1
CONST	ENDS
;	COMDAT __real@4000000000000000
CONST	SEGMENT
__real@4000000000000000 DQ 04000000000000000r	; 2
CONST	ENDS
;	COMDAT __real@3e800000
CONST	SEGMENT
__real@3e800000 DD 03e800000r			; 0.25
CONST	ENDS
;	COMDAT __real@3f400000
CONST	SEGMENT
__real@3f400000 DD 03f400000r			; 0.75
; Function compile flags: /Odt /RTCsu /ZI
CONST	ENDS
;	COMDAT ?FrameMove@CMenuItem@@UAEJPAUIDirect3DDevice8@@MMPAUOVERLAYVERTEX@@@Z
_TEXT	SEGMENT
tv177 = -316
$T85387 = -308
$T85386 = -284
$T85385 = -260
$T85384 = -236
_fS$85313 = -20
_this$ = -8
_pDev$ = 8
_fTimeMult$ = 12
_fAspect$ = 16
_pVertices$ = 20
?FrameMove@CMenuItem@@UAEJPAUIDirect3DDevice8@@MMPAUOVERLAYVERTEX@@@Z PROC NEAR ; CMenuItem::FrameMove, COMDAT
; _this$ = ecx

; 84   : {

  00000	55		 push	 ebp
  00001	8b ec		 mov	 ebp, esp
  00003	81 ec 3c 01 00
	00		 sub	 esp, 316		; 0000013cH
  00009	53		 push	 ebx
  0000a	56		 push	 esi
  0000b	57		 push	 edi
  0000c	51		 push	 ecx
  0000d	8d bd c4 fe ff
	ff		 lea	 edi, DWORD PTR [ebp-316]
  00013	b9 4f 00 00 00	 mov	 ecx, 79			; 0000004fH
  00018	b8 cc cc cc cc	 mov	 eax, -858993460		; ccccccccH
  0001d	f3 ab		 rep stosd
  0001f	59		 pop	 ecx
  00020	89 4d f8	 mov	 DWORD PTR _this$[ebp], ecx

; 85   : //
; 86   : // Flash if selected
; 87   : //
; 88   :     if (m_bSelected)

  00023	8b 45 f8	 mov	 eax, DWORD PTR _this$[ebp]
  00026	83 b8 d4 00 00
	00 00		 cmp	 DWORD PTR [eax+212], 0
  0002d	0f 84 66 01 00
	00		 je	 $L85312

; 89   : 	{
; 90   : 		m_fTimeSelected += 1.0f / (60.0f / fTimeMult) ;	// seconds

  00033	d9 05 00 00 00
	00		 fld	 DWORD PTR __real@42700000
  00039	d8 75 0c	 fdiv	 DWORD PTR _fTimeMult$[ebp]
  0003c	d8 3d 00 00 00
	00		 fdivr	 DWORD PTR __real@3f800000
  00042	8b 45 f8	 mov	 eax, DWORD PTR _this$[ebp]
  00045	d8 80 e0 00 00
	00		 fadd	 DWORD PTR [eax+224]
  0004b	8b 4d f8	 mov	 ecx, DWORD PTR _this$[ebp]
  0004e	d9 99 e0 00 00
	00		 fstp	 DWORD PTR [ecx+224]

; 91   : 
; 92   : 		/*OVERLAYVERTEX* pVertices ;
; 93   : 		if (FAILED(m_pSharedVB->Lock(0, 0, (BYTE**)&pVertices, NULL)))
; 94   : 			return E_FAIL ;*/
; 95   : 		pVertices += m_dwIndexOffset ;

  00054	8b 45 f8	 mov	 eax, DWORD PTR _this$[ebp]
  00057	8b 48 08	 mov	 ecx, DWORD PTR [eax+8]
  0005a	6b c9 18	 imul	 ecx, 24			; 00000018H
  0005d	8b 55 14	 mov	 edx, DWORD PTR _pVertices$[ebp]
  00060	03 d1		 add	 edx, ecx
  00062	89 55 14	 mov	 DWORD PTR _pVertices$[ebp], edx

; 96   : 		
; 97   : 		float fS = 0.25f * (float)((sin((double)m_fTimeSelected * 1000.0f * g_DEGTORAD) + 1.0f) / 2.0f) ;

  00065	8b 45 f8	 mov	 eax, DWORD PTR _this$[ebp]
  00068	d9 80 e0 00 00
	00		 fld	 DWORD PTR [eax+224]
  0006e	dc 0d 00 00 00
	00		 fmul	 QWORD PTR __real@408f400000000000
  00074	d8 0d 00 00 00
	00		 fmul	 DWORD PTR _g_DEGTORAD
  0007a	83 ec 08	 sub	 esp, 8
  0007d	dd 1c 24	 fstp	 QWORD PTR [esp]
  00080	e8 00 00 00 00	 call	 _sin
  00085	83 c4 08	 add	 esp, 8
  00088	dc 05 00 00 00
	00		 fadd	 QWORD PTR __real@3ff0000000000000
  0008e	dc 35 00 00 00
	00		 fdiv	 QWORD PTR __real@4000000000000000
  00094	d9 95 c4 fe ff
	ff		 fst	 DWORD PTR tv177[ebp]
  0009a	d8 0d 00 00 00
	00		 fmul	 DWORD PTR __real@3e800000
  000a0	d9 5d ec	 fstp	 DWORD PTR _fS$85313[ebp]

; 98   : 
; 99   : 		pVertices->color = D3DXCOLOR(0.75f + fS,0.0f,		0.0f,	m_fSelectedAlpha) ;

  000a3	8b 45 f8	 mov	 eax, DWORD PTR _this$[ebp]
  000a6	8b 88 dc 00 00
	00		 mov	 ecx, DWORD PTR [eax+220]
  000ac	51		 push	 ecx
  000ad	6a 00		 push	 0
  000af	6a 00		 push	 0
  000b1	d9 05 00 00 00
	00		 fld	 DWORD PTR __real@3f400000
  000b7	d8 45 ec	 fadd	 DWORD PTR _fS$85313[ebp]
  000ba	51		 push	 ecx
  000bb	d9 1c 24	 fstp	 DWORD PTR [esp]
  000be	8d 8d 14 ff ff
	ff		 lea	 ecx, DWORD PTR $T85384[ebp]
  000c4	e8 00 00 00 00	 call	 ??0D3DXCOLOR@@QAE@MMMM@Z ; D3DXCOLOR::D3DXCOLOR
  000c9	8b c8		 mov	 ecx, eax
  000cb	e8 00 00 00 00	 call	 ??BD3DXCOLOR@@QBEKXZ	; D3DXCOLOR::operator unsigned long
  000d0	8b 55 14	 mov	 edx, DWORD PTR _pVertices$[ebp]
  000d3	89 42 0c	 mov	 DWORD PTR [edx+12], eax

; 100  : 		pVertices++ ;

  000d6	8b 45 14	 mov	 eax, DWORD PTR _pVertices$[ebp]
  000d9	83 c0 18	 add	 eax, 24			; 00000018H
  000dc	89 45 14	 mov	 DWORD PTR _pVertices$[ebp], eax

; 101  : 
; 102  : 		pVertices->color = D3DXCOLOR(0.75f,		0.75f + fS,	0.0f,	m_fSelectedAlpha) ;

  000df	8b 45 f8	 mov	 eax, DWORD PTR _this$[ebp]
  000e2	8b 88 dc 00 00
	00		 mov	 ecx, DWORD PTR [eax+220]
  000e8	51		 push	 ecx
  000e9	6a 00		 push	 0
  000eb	d9 05 00 00 00
	00		 fld	 DWORD PTR __real@3f400000
  000f1	d8 45 ec	 fadd	 DWORD PTR _fS$85313[ebp]
  000f4	51		 push	 ecx
  000f5	d9 1c 24	 fstp	 DWORD PTR [esp]
  000f8	68 00 00 40 3f	 push	 1061158912		; 3f400000H
  000fd	8d 8d fc fe ff
	ff		 lea	 ecx, DWORD PTR $T85385[ebp]
  00103	e8 00 00 00 00	 call	 ??0D3DXCOLOR@@QAE@MMMM@Z ; D3DXCOLOR::D3DXCOLOR
  00108	8b c8		 mov	 ecx, eax
  0010a	e8 00 00 00 00	 call	 ??BD3DXCOLOR@@QBEKXZ	; D3DXCOLOR::operator unsigned long
  0010f	8b 55 14	 mov	 edx, DWORD PTR _pVertices$[ebp]
  00112	89 42 0c	 mov	 DWORD PTR [edx+12], eax

; 103  : 		pVertices++ ;

  00115	8b 45 14	 mov	 eax, DWORD PTR _pVertices$[ebp]
  00118	83 c0 18	 add	 eax, 24			; 00000018H
  0011b	89 45 14	 mov	 DWORD PTR _pVertices$[ebp], eax

; 104  : 
; 105  : 		pVertices->color = D3DXCOLOR(0.75f + fS,0.0f,		0.0f,	m_fSelectedAlpha) ;

  0011e	8b 45 f8	 mov	 eax, DWORD PTR _this$[ebp]
  00121	8b 88 dc 00 00
	00		 mov	 ecx, DWORD PTR [eax+220]
  00127	51		 push	 ecx
  00128	6a 00		 push	 0
  0012a	6a 00		 push	 0
  0012c	d9 05 00 00 00
	00		 fld	 DWORD PTR __real@3f400000
  00132	d8 45 ec	 fadd	 DWORD PTR _fS$85313[ebp]
  00135	51		 push	 ecx
  00136	d9 1c 24	 fstp	 DWORD PTR [esp]
  00139	8d 8d e4 fe ff
	ff		 lea	 ecx, DWORD PTR $T85386[ebp]
  0013f	e8 00 00 00 00	 call	 ??0D3DXCOLOR@@QAE@MMMM@Z ; D3DXCOLOR::D3DXCOLOR
  00144	8b c8		 mov	 ecx, eax
  00146	e8 00 00 00 00	 call	 ??BD3DXCOLOR@@QBEKXZ	; D3DXCOLOR::operator unsigned long
  0014b	8b 55 14	 mov	 edx, DWORD PTR _pVertices$[ebp]
  0014e	89 42 0c	 mov	 DWORD PTR [edx+12], eax

; 106  : 		pVertices++ ;

  00151	8b 45 14	 mov	 eax, DWORD PTR _pVertices$[ebp]
  00154	83 c0 18	 add	 eax, 24			; 00000018H
  00157	89 45 14	 mov	 DWORD PTR _pVertices$[ebp], eax

; 107  : 
; 108  : 		pVertices->color = D3DXCOLOR(0.75f,		0.75f + fS,	0.0f,	m_fSelectedAlpha) ;

  0015a	8b 45 f8	 mov	 eax, DWORD PTR _this$[ebp]
  0015d	8b 88 dc 00 00
	00		 mov	 ecx, DWORD PTR [eax+220]
  00163	51		 push	 ecx
  00164	6a 00		 push	 0
  00166	d9 05 00 00 00
	00		 fld	 DWORD PTR __real@3f400000
  0016c	d8 45 ec	 fadd	 DWORD PTR _fS$85313[ebp]
  0016f	51		 push	 ecx
  00170	d9 1c 24	 fstp	 DWORD PTR [esp]
  00173	68 00 00 40 3f	 push	 1061158912		; 3f400000H
  00178	8d 8d cc fe ff
	ff		 lea	 ecx, DWORD PTR $T85387[ebp]
  0017e	e8 00 00 00 00	 call	 ??0D3DXCOLOR@@QAE@MMMM@Z ; D3DXCOLOR::D3DXCOLOR
  00183	8b c8		 mov	 ecx, eax
  00185	e8 00 00 00 00	 call	 ??BD3DXCOLOR@@QBEKXZ	; D3DXCOLOR::operator unsigned long
  0018a	8b 55 14	 mov	 edx, DWORD PTR _pVertices$[ebp]
  0018d	89 42 0c	 mov	 DWORD PTR [edx+12], eax

; 109  : 		pVertices++ ;

  00190	8b 45 14	 mov	 eax, DWORD PTR _pVertices$[ebp]
  00193	83 c0 18	 add	 eax, 24			; 00000018H
  00196	89 45 14	 mov	 DWORD PTR _pVertices$[ebp], eax
$L85312:

; 110  : 
; 111  : 		/*m_pSharedVB->Unlock();*/
; 112  : 	}
; 113  : 
; 114  : 	return S_OK ;

  00199	33 c0		 xor	 eax, eax

; 115  : }

  0019b	5f		 pop	 edi
  0019c	5e		 pop	 esi
  0019d	5b		 pop	 ebx
  0019e	81 c4 3c 01 00
	00		 add	 esp, 316		; 0000013cH
  001a4	3b ec		 cmp	 ebp, esp
  001a6	e8 00 00 00 00	 call	 __RTC_CheckEsp
  001ab	8b e5		 mov	 esp, ebp
  001ad	5d		 pop	 ebp
  001ae	c2 10 00	 ret	 16			; 00000010H
?FrameMove@CMenuItem@@UAEJPAUIDirect3DDevice8@@MMPAUOVERLAYVERTEX@@@Z ENDP ; CMenuItem::FrameMove
; Function compile flags: /Odt /RTCsu /ZI
; File c:\dxsdk\include\d3dx8math.inl
_TEXT	ENDS
;	COMDAT ??0D3DXCOLOR@@QAE@MMMM@Z
_TEXT	SEGMENT
_this$ = -8
_fr$ = 8
_fg$ = 12
_fb$ = 16
_fa$ = 20
??0D3DXCOLOR@@QAE@MMMM@Z PROC NEAR			; D3DXCOLOR::D3DXCOLOR, COMDAT
; _this$ = ecx

; 919  : {

  00000	55		 push	 ebp
  00001	8b ec		 mov	 ebp, esp
  00003	81 ec cc 00 00
	00		 sub	 esp, 204		; 000000ccH
  00009	53		 push	 ebx
  0000a	56		 push	 esi
  0000b	57		 push	 edi
  0000c	51		 push	 ecx
  0000d	8d bd 34 ff ff
	ff		 lea	 edi, DWORD PTR [ebp-204]
  00013	b9 33 00 00 00	 mov	 ecx, 51			; 00000033H
  00018	b8 cc cc cc cc	 mov	 eax, -858993460		; ccccccccH
  0001d	f3 ab		 rep stosd
  0001f	59		 pop	 ecx
  00020	89 4d f8	 mov	 DWORD PTR _this$[ebp], ecx

; 920  :     r = fr;

  00023	8b 45 f8	 mov	 eax, DWORD PTR _this$[ebp]
  00026	8b 4d 08	 mov	 ecx, DWORD PTR _fr$[ebp]
  00029	89 08		 mov	 DWORD PTR [eax], ecx

; 921  :     g = fg;

  0002b	8b 45 f8	 mov	 eax, DWORD PTR _this$[ebp]
  0002e	8b 4d 0c	 mov	 ecx, DWORD PTR _fg$[ebp]
  00031	89 48 04	 mov	 DWORD PTR [eax+4], ecx

; 922  :     b = fb;

  00034	8b 45 f8	 mov	 eax, DWORD PTR _this$[ebp]
  00037	8b 4d 10	 mov	 ecx, DWORD PTR _fb$[ebp]
  0003a	89 48 08	 mov	 DWORD PTR [eax+8], ecx

; 923  :     a = fa;

  0003d	8b 45 f8	 mov	 eax, DWORD PTR _this$[ebp]
  00040	8b 4d 14	 mov	 ecx, DWORD PTR _fa$[ebp]
  00043	89 48 0c	 mov	 DWORD PTR [eax+12], ecx

; 924  : }

  00046	8b 45 f8	 mov	 eax, DWORD PTR _this$[ebp]
  00049	5f		 pop	 edi
  0004a	5e		 pop	 esi
  0004b	5b		 pop	 ebx
  0004c	8b e5		 mov	 esp, ebp
  0004e	5d		 pop	 ebp
  0004f	c2 10 00	 ret	 16			; 00000010H
??0D3DXCOLOR@@QAE@MMMM@Z ENDP				; D3DXCOLOR::D3DXCOLOR
_TEXT	ENDS
PUBLIC	__real@00000000
PUBLIC	__real@437f0000
PUBLIC	__real@3f000000
EXTRN	__ftol2:NEAR
;	COMDAT __real@00000000
CONST	SEGMENT
__real@00000000 DD 000000000r			; 0
CONST	ENDS
;	COMDAT __real@437f0000
CONST	SEGMENT
__real@437f0000 DD 0437f0000r			; 255
CONST	ENDS
;	COMDAT __real@3f000000
CONST	SEGMENT
__real@3f000000 DD 03f000000r			; 0.5
; Function compile flags: /Odt /RTCsu /ZI
CONST	ENDS
;	COMDAT ??BD3DXCOLOR@@QBEKXZ
_TEXT	SEGMENT
tv135 = -260
tv92 = -260
tv81 = -260
tv70 = -260
tv136 = -256
tv93 = -256
tv82 = -256
tv71 = -256
_dwA$ = -56
_dwB$ = -44
_dwG$ = -32
_dwR$ = -20
_this$ = -8
??BD3DXCOLOR@@QBEKXZ PROC NEAR				; D3DXCOLOR::operator unsigned long, COMDAT
; _this$ = ecx

; 930  : {

  00000	55		 push	 ebp
  00001	8b ec		 mov	 ebp, esp
  00003	81 ec 04 01 00
	00		 sub	 esp, 260		; 00000104H
  00009	53		 push	 ebx
  0000a	56		 push	 esi
  0000b	57		 push	 edi
  0000c	51		 push	 ecx
  0000d	8d bd fc fe ff
	ff		 lea	 edi, DWORD PTR [ebp-260]
  00013	b9 41 00 00 00	 mov	 ecx, 65			; 00000041H
  00018	b8 cc cc cc cc	 mov	 eax, -858993460		; ccccccccH
  0001d	f3 ab		 rep stosd
  0001f	59		 pop	 ecx
  00020	89 4d f8	 mov	 DWORD PTR _this$[ebp], ecx

; 931  :     DWORD dwR = r >= 1.0f ? 0xff : r <= 0.0f ? 0x00 : (DWORD) (r * 255.0f + 0.5f);

  00023	8b 45 f8	 mov	 eax, DWORD PTR _this$[ebp]
  00026	d9 00		 fld	 DWORD PTR [eax]
  00028	d8 1d 00 00 00
	00		 fcomp	 DWORD PTR __real@3f800000
  0002e	df e0		 fnstsw	 ax
  00030	f6 c4 01	 test	 ah, 1
  00033	75 0c		 jne	 SHORT $L85408
  00035	c7 85 00 ff ff
	ff ff 00 00 00	 mov	 DWORD PTR tv71[ebp], 255 ; 000000ffH
  0003f	eb 46		 jmp	 SHORT $L85409
$L85408:
  00041	8b 4d f8	 mov	 ecx, DWORD PTR _this$[ebp]
  00044	d9 01		 fld	 DWORD PTR [ecx]
  00046	d8 1d 00 00 00
	00		 fcomp	 DWORD PTR __real@00000000
  0004c	df e0		 fnstsw	 ax
  0004e	f6 c4 41	 test	 ah, 65			; 00000041H
  00051	7a 0c		 jp	 SHORT $L85406
  00053	c7 85 fc fe ff
	ff 00 00 00 00	 mov	 DWORD PTR tv70[ebp], 0
  0005d	eb 1c		 jmp	 SHORT $L85407
$L85406:
  0005f	8b 55 f8	 mov	 edx, DWORD PTR _this$[ebp]
  00062	d9 02		 fld	 DWORD PTR [edx]
  00064	d8 0d 00 00 00
	00		 fmul	 DWORD PTR __real@437f0000
  0006a	d8 05 00 00 00
	00		 fadd	 DWORD PTR __real@3f000000
  00070	e8 00 00 00 00	 call	 __ftol2
  00075	89 85 fc fe ff
	ff		 mov	 DWORD PTR tv70[ebp], eax
$L85407:
  0007b	8b 85 fc fe ff
	ff		 mov	 eax, DWORD PTR tv70[ebp]
  00081	89 85 00 ff ff
	ff		 mov	 DWORD PTR tv71[ebp], eax
$L85409:
  00087	8b 8d 00 ff ff
	ff		 mov	 ecx, DWORD PTR tv71[ebp]
  0008d	89 4d ec	 mov	 DWORD PTR _dwR$[ebp], ecx

; 932  :     DWORD dwG = g >= 1.0f ? 0xff : g <= 0.0f ? 0x00 : (DWORD) (g * 255.0f + 0.5f);

  00090	8b 45 f8	 mov	 eax, DWORD PTR _this$[ebp]
  00093	d9 40 04	 fld	 DWORD PTR [eax+4]
  00096	d8 1d 00 00 00
	00		 fcomp	 DWORD PTR __real@3f800000
  0009c	df e0		 fnstsw	 ax
  0009e	f6 c4 01	 test	 ah, 1
  000a1	75 0c		 jne	 SHORT $L85412
  000a3	c7 85 00 ff ff
	ff ff 00 00 00	 mov	 DWORD PTR tv82[ebp], 255 ; 000000ffH
  000ad	eb 48		 jmp	 SHORT $L85413
$L85412:
  000af	8b 4d f8	 mov	 ecx, DWORD PTR _this$[ebp]
  000b2	d9 41 04	 fld	 DWORD PTR [ecx+4]
  000b5	d8 1d 00 00 00
	00		 fcomp	 DWORD PTR __real@00000000
  000bb	df e0		 fnstsw	 ax
  000bd	f6 c4 41	 test	 ah, 65			; 00000041H
  000c0	7a 0c		 jp	 SHORT $L85410
  000c2	c7 85 fc fe ff
	ff 00 00 00 00	 mov	 DWORD PTR tv81[ebp], 0
  000cc	eb 1d		 jmp	 SHORT $L85411
$L85410:
  000ce	8b 55 f8	 mov	 edx, DWORD PTR _this$[ebp]
  000d1	d9 42 04	 fld	 DWORD PTR [edx+4]
  000d4	d8 0d 00 00 00
	00		 fmul	 DWORD PTR __real@437f0000
  000da	d8 05 00 00 00
	00		 fadd	 DWORD PTR __real@3f000000
  000e0	e8 00 00 00 00	 call	 __ftol2
  000e5	89 85 fc fe ff
	ff		 mov	 DWORD PTR tv81[ebp], eax
$L85411:
  000eb	8b 85 fc fe ff
	ff		 mov	 eax, DWORD PTR tv81[ebp]
  000f1	89 85 00 ff ff
	ff		 mov	 DWORD PTR tv82[ebp], eax
$L85413:
  000f7	8b 8d 00 ff ff
	ff		 mov	 ecx, DWORD PTR tv82[ebp]
  000fd	89 4d e0	 mov	 DWORD PTR _dwG$[ebp], ecx

; 933  :     DWORD dwB = b >= 1.0f ? 0xff : b <= 0.0f ? 0x00 : (DWORD) (b * 255.0f + 0.5f);

  00100	8b 45 f8	 mov	 eax, DWORD PTR _this$[ebp]
  00103	d9 40 08	 fld	 DWORD PTR [eax+8]
  00106	d8 1d 00 00 00
	00		 fcomp	 DWORD PTR __real@3f800000
  0010c	df e0		 fnstsw	 ax
  0010e	f6 c4 01	 test	 ah, 1
  00111	75 0c		 jne	 SHORT $L85416
  00113	c7 85 00 ff ff
	ff ff 00 00 00	 mov	 DWORD PTR tv93[ebp], 255 ; 000000ffH
  0011d	eb 48		 jmp	 SHORT $L85417
$L85416:
  0011f	8b 4d f8	 mov	 ecx, DWORD PTR _this$[ebp]
  00122	d9 41 08	 fld	 DWORD PTR [ecx+8]
  00125	d8 1d 00 00 00
	00		 fcomp	 DWORD PTR __real@00000000
  0012b	df e0		 fnstsw	 ax
  0012d	f6 c4 41	 test	 ah, 65			; 00000041H
  00130	7a 0c		 jp	 SHORT $L85414
  00132	c7 85 fc fe ff
	ff 00 00 00 00	 mov	 DWORD PTR tv92[ebp], 0
  0013c	eb 1d		 jmp	 SHORT $L85415
$L85414:
  0013e	8b 55 f8	 mov	 edx, DWORD PTR _this$[ebp]
  00141	d9 42 08	 fld	 DWORD PTR [edx+8]
  00144	d8 0d 00 00 00
	00		 fmul	 DWORD PTR __real@437f0000
  0014a	d8 05 00 00 00
	00		 fadd	 DWORD PTR __real@3f000000
  00150	e8 00 00 00 00	 call	 __ftol2
  00155	89 85 fc fe ff
	ff		 mov	 DWORD PTR tv92[ebp], eax
$L85415:
  0015b	8b 85 fc fe ff
	ff		 mov	 eax, DWORD PTR tv92[ebp]
  00161	89 85 00 ff ff
	ff		 mov	 DWORD PTR tv93[ebp], eax
$L85417:
  00167	8b 8d 00 ff ff
	ff		 mov	 ecx, DWORD PTR tv93[ebp]
  0016d	89 4d d4	 mov	 DWORD PTR _dwB$[ebp], ecx

; 934  :     DWORD dwA = a >= 1.0f ? 0xff : a <= 0.0f ? 0x00 : (DWORD) (a * 255.0f + 0.5f);

  00170	8b 45 f8	 mov	 eax, DWORD PTR _this$[ebp]
  00173	d9 40 0c	 fld	 DWORD PTR [eax+12]
  00176	d8 1d 00 00 00
	00		 fcomp	 DWORD PTR __real@3f800000
  0017c	df e0		 fnstsw	 ax
  0017e	f6 c4 01	 test	 ah, 1
  00181	75 0c		 jne	 SHORT $L85420
  00183	c7 85 00 ff ff
	ff ff 00 00 00	 mov	 DWORD PTR tv136[ebp], 255 ; 000000ffH
  0018d	eb 48		 jmp	 SHORT $L85421
$L85420:
  0018f	8b 4d f8	 mov	 ecx, DWORD PTR _this$[ebp]
  00192	d9 41 0c	 fld	 DWORD PTR [ecx+12]
  00195	d8 1d 00 00 00
	00		 fcomp	 DWORD PTR __real@00000000
  0019b	df e0		 fnstsw	 ax
  0019d	f6 c4 41	 test	 ah, 65			; 00000041H
  001a0	7a 0c		 jp	 SHORT $L85418
  001a2	c7 85 fc fe ff
	ff 00 00 00 00	 mov	 DWORD PTR tv135[ebp], 0
  001ac	eb 1d		 jmp	 SHORT $L85419
$L85418:
  001ae	8b 55 f8	 mov	 edx, DWORD PTR _this$[ebp]
  001b1	d9 42 0c	 fld	 DWORD PTR [edx+12]
  001b4	d8 0d 00 00 00
	00		 fmul	 DWORD PTR __real@437f0000
  001ba	d8 05 00 00 00
	00		 fadd	 DWORD PTR __real@3f000000
  001c0	e8 00 00 00 00	 call	 __ftol2
  001c5	89 85 fc fe ff
	ff		 mov	 DWORD PTR tv135[ebp], eax
$L85419:
  001cb	8b 85 fc fe ff
	ff		 mov	 eax, DWORD PTR tv135[ebp]
  001d1	89 85 00 ff ff
	ff		 mov	 DWORD PTR tv136[ebp], eax
$L85421:
  001d7	8b 8d 00 ff ff
	ff		 mov	 ecx, DWORD PTR tv136[ebp]
  001dd	89 4d c8	 mov	 DWORD PTR _dwA$[ebp], ecx

; 935  : 
; 936  :     return (dwA << 24) | (dwR << 16) | (dwG << 8) | dwB;

  001e0	8b 45 c8	 mov	 eax, DWORD PTR _dwA$[ebp]
  001e3	c1 e0 18	 shl	 eax, 24			; 00000018H
  001e6	8b 4d ec	 mov	 ecx, DWORD PTR _dwR$[ebp]
  001e9	c1 e1 10	 shl	 ecx, 16			; 00000010H
  001ec	0b c1		 or	 eax, ecx
  001ee	8b 55 e0	 mov	 edx, DWORD PTR _dwG$[ebp]
  001f1	c1 e2 08	 shl	 edx, 8
  001f4	0b c2		 or	 eax, edx
  001f6	0b 45 d4	 or	 eax, DWORD PTR _dwB$[ebp]

; 937  : }

  001f9	5f		 pop	 edi
  001fa	5e		 pop	 esi
  001fb	5b		 pop	 ebx
  001fc	8b e5		 mov	 esp, ebp
  001fe	5d		 pop	 ebp
  001ff	c3		 ret	 0
??BD3DXCOLOR@@QBEKXZ ENDP				; D3DXCOLOR::operator unsigned long
_TEXT	ENDS
END
