; Listing generated by Microsoft (R) Optimizing Compiler Version 13.00.9466 

	TITLE	CMenuTextures.cpp
	.386P
include listing.inc
if @Version gt 510
.model FLAT
else
_TEXT	SEGMENT PARA USE32 PUBLIC 'CODE'
_TEXT	ENDS
_DATA	SEGMENT DWORD USE32 PUBLIC 'DATA'
_DATA	ENDS
CONST	SEGMENT DWORD USE32 PUBLIC 'CONST'
CONST	ENDS
_BSS	SEGMENT DWORD USE32 PUBLIC 'BSS'
_BSS	ENDS
$$SYMBOLS	SEGMENT BYTE USE32 'DEBSYM'
$$SYMBOLS	ENDS
$$TYPES	SEGMENT BYTE USE32 'DEBTYP'
$$TYPES	ENDS
_TLS	SEGMENT DWORD USE32 PUBLIC 'TLS'
_TLS	ENDS
;	COMDAT ??_C@_0BO@BHBDCIGL@?4?4?2Resource?2tex?2menu?2?$CF03d?4DDS?$AA@
CONST	SEGMENT DWORD USE32 PUBLIC 'CONST'
CONST	ENDS
;	COMDAT ??_C@_0CI@LKDEHFPM@Potential?5User?9Error?3?6?6FAIL?3?5men@
CONST	SEGMENT DWORD USE32 PUBLIC 'CONST'
CONST	ENDS
;	COMDAT ??_C@_0CF@BFBFFCAF@CMenuTextures?3?3RestoreDeviceObje@
CONST	SEGMENT DWORD USE32 PUBLIC 'CONST'
CONST	ENDS
;	COMDAT _IsEqualGUID
_TEXT	SEGMENT PARA USE32 PUBLIC 'CODE'
_TEXT	ENDS
;	COMDAT _==
_TEXT	SEGMENT PARA USE32 PUBLIC 'CODE'
_TEXT	ENDS
;	COMDAT _sqrtf
_TEXT	SEGMENT PARA USE32 PUBLIC 'CODE'
_TEXT	ENDS
;	COMDAT ??0D3DXVECTOR3@@QAE@XZ
_TEXT	SEGMENT PARA USE32 PUBLIC 'CODE'
_TEXT	ENDS
;	COMDAT ??0D3DXMATRIX@@QAE@XZ
_TEXT	SEGMENT PARA USE32 PUBLIC 'CODE'
_TEXT	ENDS
;	COMDAT ??0D3DXQUATERNION@@QAE@XZ
_TEXT	SEGMENT PARA USE32 PUBLIC 'CODE'
_TEXT	ENDS
;	COMDAT ??0D3DXVECTOR2@@QAE@MM@Z
_TEXT	SEGMENT PARA USE32 PUBLIC 'CODE'
_TEXT	ENDS
;	COMDAT ??0D3DXVECTOR3@@QAE@MMM@Z
_TEXT	SEGMENT PARA USE32 PUBLIC 'CODE'
_TEXT	ENDS
;	COMDAT ??0D3DXVECTOR4@@QAE@MMMM@Z
_TEXT	SEGMENT PARA USE32 PUBLIC 'CODE'
_TEXT	ENDS
;	COMDAT ??0D3DXMATRIX@@QAE@PBM@Z
_TEXT	SEGMENT PARA USE32 PUBLIC 'CODE'
_TEXT	ENDS
;	COMDAT ??0D3DXMATRIX@@QAE@ABU_D3DMATRIX@@@Z
_TEXT	SEGMENT PARA USE32 PUBLIC 'CODE'
_TEXT	ENDS
;	COMDAT ??0D3DXMATRIX@@QAE@MMMMMMMMMMMMMMMM@Z
_TEXT	SEGMENT PARA USE32 PUBLIC 'CODE'
_TEXT	ENDS
;	COMDAT ??0D3DXQUATERNION@@QAE@MMMM@Z
_TEXT	SEGMENT PARA USE32 PUBLIC 'CODE'
_TEXT	ENDS
;	COMDAT ??0D3DXPLANE@@QAE@MMMM@Z
_TEXT	SEGMENT PARA USE32 PUBLIC 'CODE'
_TEXT	ENDS
;	COMDAT ??0D3DXCOLOR@@QAE@MMMM@Z
_TEXT	SEGMENT PARA USE32 PUBLIC 'CODE'
_TEXT	ENDS
;	COMDAT ??0CMenuTextures@@QAE@XZ
_TEXT	SEGMENT PARA USE32 PUBLIC 'CODE'
_TEXT	ENDS
;	COMDAT ??1CMenuTextures@@QAE@XZ
_TEXT	SEGMENT PARA USE32 PUBLIC 'CODE'
_TEXT	ENDS
;	COMDAT ?LoadAllTex@CMenuTextures@@QAEJPAUIDirect3DDevice8@@@Z
_TEXT	SEGMENT PARA USE32 PUBLIC 'CODE'
_TEXT	ENDS
;	COMDAT ?RestoreDeviceObjects@CMenuTextures@@QAEJPAUIDirect3D8@@PAUIDirect3DDevice8@@@Z
_TEXT	SEGMENT PARA USE32 PUBLIC 'CODE'
_TEXT	ENDS
;	COMDAT ?InvalidateDeviceObjects@CMenuTextures@@QAEJXZ
_TEXT	SEGMENT PARA USE32 PUBLIC 'CODE'
_TEXT	ENDS
FLAT	GROUP _DATA, CONST, _BSS
	ASSUME	CS: FLAT, DS: FLAT, SS: FLAT
endif

INCLUDELIB LIBCMTD
INCLUDELIB OLDNAMES

PUBLIC	??0CMenuTextures@@QAE@XZ			; CMenuTextures::CMenuTextures
EXTRN	__RTC_InitBase:NEAR
EXTRN	__RTC_Shutdown:NEAR
;	COMDAT rtc$IMZ
; File c:\documents and settings\dom\my documents\_dev\ae\xlr8a\x7g\cmenutextures.cpp
rtc$IMZ	SEGMENT
__RTC_InitBase.rtc$IMZ DD FLAT:__RTC_InitBase
rtc$IMZ	ENDS
;	COMDAT rtc$TMZ
rtc$TMZ	SEGMENT
__RTC_Shutdown.rtc$TMZ DD FLAT:__RTC_Shutdown
; Function compile flags: /Odt /RTCsu /ZI
rtc$TMZ	ENDS
;	COMDAT ??0CMenuTextures@@QAE@XZ
_TEXT	SEGMENT
_i$84901 = -20
_this$ = -8
??0CMenuTextures@@QAE@XZ PROC NEAR			; CMenuTextures::CMenuTextures, COMDAT
; _this$ = ecx

; 11   : 	{

  00000	55		 push	 ebp
  00001	8b ec		 mov	 ebp, esp
  00003	81 ec d8 00 00
	00		 sub	 esp, 216		; 000000d8H
  00009	53		 push	 ebx
  0000a	56		 push	 esi
  0000b	57		 push	 edi
  0000c	51		 push	 ecx
  0000d	8d bd 28 ff ff
	ff		 lea	 edi, DWORD PTR [ebp-216]
  00013	b9 36 00 00 00	 mov	 ecx, 54			; 00000036H
  00018	b8 cc cc cc cc	 mov	 eax, -858993460		; ccccccccH
  0001d	f3 ab		 rep stosd
  0001f	59		 pop	 ecx
  00020	89 4d f8	 mov	 DWORD PTR _this$[ebp], ecx

; 12   : 		for (unsigned i = 0 ; i < MAX_TEX ; i ++)

  00023	c7 45 ec 00 00
	00 00		 mov	 DWORD PTR _i$84901[ebp], 0
  0002a	eb 09		 jmp	 SHORT $L84902
$L84903:
  0002c	8b 45 ec	 mov	 eax, DWORD PTR _i$84901[ebp]
  0002f	83 c0 01	 add	 eax, 1
  00032	89 45 ec	 mov	 DWORD PTR _i$84901[ebp], eax
$L84902:
  00035	81 7d ec 00 04
	00 00		 cmp	 DWORD PTR _i$84901[ebp], 1024 ; 00000400H
  0003c	73 10		 jae	 SHORT $L84904

; 13   : 			m_pTex[i] = NULL ;

  0003e	8b 45 ec	 mov	 eax, DWORD PTR _i$84901[ebp]
  00041	8b 4d f8	 mov	 ecx, DWORD PTR _this$[ebp]
  00044	c7 44 81 04 00
	00 00 00	 mov	 DWORD PTR [ecx+eax*4+4], 0
  0004c	eb de		 jmp	 SHORT $L84903
$L84904:

; 14   : 		m_nTex = 0 ;

  0004e	8b 45 f8	 mov	 eax, DWORD PTR _this$[ebp]
  00051	c7 00 00 00 00
	00		 mov	 DWORD PTR [eax], 0

; 15   : 	}

  00057	8b 45 f8	 mov	 eax, DWORD PTR _this$[ebp]
  0005a	5f		 pop	 edi
  0005b	5e		 pop	 esi
  0005c	5b		 pop	 ebx
  0005d	8b e5		 mov	 esp, ebp
  0005f	5d		 pop	 ebp
  00060	c3		 ret	 0
??0CMenuTextures@@QAE@XZ ENDP				; CMenuTextures::CMenuTextures
_TEXT	ENDS
PUBLIC	??1CMenuTextures@@QAE@XZ			; CMenuTextures::~CMenuTextures
PUBLIC	?InvalidateDeviceObjects@CMenuTextures@@QAEJXZ	; CMenuTextures::InvalidateDeviceObjects
EXTRN	__RTC_CheckEsp:NEAR
; Function compile flags: /Odt /RTCsu /ZI
;	COMDAT ??1CMenuTextures@@QAE@XZ
_TEXT	SEGMENT
_this$ = -8
??1CMenuTextures@@QAE@XZ PROC NEAR			; CMenuTextures::~CMenuTextures, COMDAT
; _this$ = ecx

; 17   : 	{

  00000	55		 push	 ebp
  00001	8b ec		 mov	 ebp, esp
  00003	81 ec cc 00 00
	00		 sub	 esp, 204		; 000000ccH
  00009	53		 push	 ebx
  0000a	56		 push	 esi
  0000b	57		 push	 edi
  0000c	51		 push	 ecx
  0000d	8d bd 34 ff ff
	ff		 lea	 edi, DWORD PTR [ebp-204]
  00013	b9 33 00 00 00	 mov	 ecx, 51			; 00000033H
  00018	b8 cc cc cc cc	 mov	 eax, -858993460		; ccccccccH
  0001d	f3 ab		 rep stosd
  0001f	59		 pop	 ecx
  00020	89 4d f8	 mov	 DWORD PTR _this$[ebp], ecx

; 18   : 		InvalidateDeviceObjects() ;

  00023	8b 4d f8	 mov	 ecx, DWORD PTR _this$[ebp]
  00026	e8 00 00 00 00	 call	 ?InvalidateDeviceObjects@CMenuTextures@@QAEJXZ ; CMenuTextures::InvalidateDeviceObjects

; 19   : 	}

  0002b	5f		 pop	 edi
  0002c	5e		 pop	 esi
  0002d	5b		 pop	 ebx
  0002e	81 c4 cc 00 00
	00		 add	 esp, 204		; 000000ccH
  00034	3b ec		 cmp	 ebp, esp
  00036	e8 00 00 00 00	 call	 __RTC_CheckEsp
  0003b	8b e5		 mov	 esp, ebp
  0003d	5d		 pop	 ebp
  0003e	c3		 ret	 0
??1CMenuTextures@@QAE@XZ ENDP				; CMenuTextures::~CMenuTextures
_TEXT	ENDS
PUBLIC	?LoadAllTex@CMenuTextures@@QAEJPAUIDirect3DDevice8@@@Z ; CMenuTextures::LoadAllTex
PUBLIC	??_C@_0BO@BHBDCIGL@?4?4?2Resource?2tex?2menu?2?$CF03d?4DDS?$AA@ ; `string'
PUBLIC	??_C@_0CI@LKDEHFPM@Potential?5User?9Error?3?6?6FAIL?3?5men@ ; `string'
EXTRN	_sprintf:NEAR
EXTRN	_D3DXCreateTextureFromFileA@12:NEAR
EXTRN	?Msg@@YAXPAD@Z:NEAR				; Msg
EXTRN	___security_cookie:DWORD
EXTRN	@_RTC_CheckStackVars@8:NEAR
EXTRN	@__security_check_cookie@4:NEAR
;	COMDAT ??_C@_0BO@BHBDCIGL@?4?4?2Resource?2tex?2menu?2?$CF03d?4DDS?$AA@
CONST	SEGMENT
??_C@_0BO@BHBDCIGL@?4?4?2Resource?2tex?2menu?2?$CF03d?4DDS?$AA@ DB '..\Re'
	DB	'source\tex\menu\%03d.DDS', 00H		; `string'
CONST	ENDS
;	COMDAT ??_C@_0CI@LKDEHFPM@Potential?5User?9Error?3?6?6FAIL?3?5men@
CONST	SEGMENT
??_C@_0CI@LKDEHFPM@Potential?5User?9Error?3?6?6FAIL?3?5men@ DB 'Potential'
	DB	' User-Error:', 0aH, 0aH, 'FAIL: menu_tex_1', 00H ; `string'
; Function compile flags: /Odt /RTCsu /ZI
CONST	ENDS
;	COMDAT ?LoadAllTex@CMenuTextures@@QAEJPAUIDirect3DDevice8@@@Z
_TEXT	SEGMENT
_i$ = -248
_hr$ = -236
_sz$ = -224
_this$ = -12
__$ArrayPad$ = -4
__$ReturnAddr$ = 4
_pDev$ = 8
?LoadAllTex@CMenuTextures@@QAEJPAUIDirect3DDevice8@@@Z PROC NEAR ; CMenuTextures::LoadAllTex, COMDAT
; _this$ = ecx

; 27   : 	{

  00000	55		 push	 ebp
  00001	8b ec		 mov	 ebp, esp
  00003	81 ec bc 01 00
	00		 sub	 esp, 444		; 000001bcH
  00009	53		 push	 ebx
  0000a	56		 push	 esi
  0000b	57		 push	 edi
  0000c	51		 push	 ecx
  0000d	8d bd 44 fe ff
	ff		 lea	 edi, DWORD PTR [ebp-444]
  00013	b9 6f 00 00 00	 mov	 ecx, 111		; 0000006fH
  00018	b8 cc cc cc cc	 mov	 eax, -858993460		; ccccccccH
  0001d	f3 ab		 rep stosd
  0001f	59		 pop	 ecx
  00020	a1 00 00 00 00	 mov	 eax, DWORD PTR ___security_cookie
  00025	33 45 04	 xor	 eax, DWORD PTR __$ReturnAddr$[ebp]
  00028	89 45 fc	 mov	 DWORD PTR __$ArrayPad$[ebp], eax
  0002b	89 4d f4	 mov	 DWORD PTR _this$[ebp], ecx

; 28   : 		char sz[200] ;
; 29   : 		HRESULT hr = S_OK ;

  0002e	c7 85 14 ff ff
	ff 00 00 00 00	 mov	 DWORD PTR _hr$[ebp], 0

; 30   : 		int i ;
; 31   : 		
; 32   : 	//
; 33   : 	// Menu Textures:
; 34   : 	//
; 35   : 		for (i = 1 ; i <= 8 ; i ++)

  00038	c7 85 08 ff ff
	ff 01 00 00 00	 mov	 DWORD PTR _i$[ebp], 1
  00042	eb 0f		 jmp	 SHORT $L84916
$L84917:
  00044	8b 85 08 ff ff
	ff		 mov	 eax, DWORD PTR _i$[ebp]
  0004a	83 c0 01	 add	 eax, 1
  0004d	89 85 08 ff ff
	ff		 mov	 DWORD PTR _i$[ebp], eax
$L84916:
  00053	83 bd 08 ff ff
	ff 08		 cmp	 DWORD PTR _i$[ebp], 8
  0005a	7f 5e		 jg	 SHORT $L84918

; 36   : 		{
; 37   : #ifdef LOAD_RES_FROM_FILE
; 38   : 			sprintf(sz, "..\\Resource\\tex\\menu\\%03d.DDS", (int)i) ;

  0005c	8b 85 08 ff ff
	ff		 mov	 eax, DWORD PTR _i$[ebp]
  00062	50		 push	 eax
  00063	68 00 00 00 00	 push	 OFFSET FLAT:??_C@_0BO@BHBDCIGL@?4?4?2Resource?2tex?2menu?2?$CF03d?4DDS?$AA@
  00068	8d 8d 20 ff ff
	ff		 lea	 ecx, DWORD PTR _sz$[ebp]
  0006e	51		 push	 ecx
  0006f	e8 00 00 00 00	 call	 _sprintf
  00074	83 c4 0c	 add	 esp, 12			; 0000000cH

; 39   : 			if (FAILED(D3DXCreateTextureFromFileA(pDev, sz, &m_pTex[MENU_TEX_START + i - 1])))

  00077	8b 85 08 ff ff
	ff		 mov	 eax, DWORD PTR _i$[ebp]
  0007d	8b 4d f4	 mov	 ecx, DWORD PTR _this$[ebp]
  00080	8d 94 81 60 09
	00 00		 lea	 edx, DWORD PTR [ecx+eax*4+2400]
  00087	52		 push	 edx
  00088	8d 85 20 ff ff
	ff		 lea	 eax, DWORD PTR _sz$[ebp]
  0008e	50		 push	 eax
  0008f	8b 4d 08	 mov	 ecx, DWORD PTR _pDev$[ebp]
  00092	51		 push	 ecx
  00093	e8 00 00 00 00	 call	 _D3DXCreateTextureFromFileA@12
  00098	85 c0		 test	 eax, eax
  0009a	7d 0f		 jge	 SHORT $L84922

; 40   : 				Msg("Potential User-Error:\n\nFAIL: menu_tex_1") ;

  0009c	68 00 00 00 00	 push	 OFFSET FLAT:??_C@_0CI@LKDEHFPM@Potential?5User?9Error?3?6?6FAIL?3?5men@
  000a1	e8 00 00 00 00	 call	 ?Msg@@YAXPAD@Z		; Msg
  000a6	83 c4 04	 add	 esp, 4

; 41   : 			else

  000a9	eb 0d		 jmp	 SHORT $L84924
$L84922:

; 42   : 				m_nTex++ ;

  000ab	8b 45 f4	 mov	 eax, DWORD PTR _this$[ebp]
  000ae	8b 08		 mov	 ecx, DWORD PTR [eax]
  000b0	83 c1 01	 add	 ecx, 1
  000b3	8b 55 f4	 mov	 edx, DWORD PTR _this$[ebp]
  000b6	89 0a		 mov	 DWORD PTR [edx], ecx
$L84924:

; 43   : #else
; 44   : 			hr = LoadDDSTextureFromResource( pDev,
; 45   : 											 MAKEINTRESOURCE(IDR_DDS_MENU_001 + (i-1)),
; 46   : 											 &m_pTex[MENU_TEX_START + i - 1],
; 47   : 											 "DDS" );
; 48   : 			assert( S_OK==hr );
; 49   : 			m_nTex++ ;
; 50   : #endif
; 51   : 		}

  000b8	eb 8a		 jmp	 SHORT $L84917
$L84918:

; 52   : 
; 53   : 		return S_OK ;

  000ba	33 c0		 xor	 eax, eax

; 54   : 	}

  000bc	52		 push	 edx
  000bd	8b cd		 mov	 ecx, ebp
  000bf	50		 push	 eax
  000c0	8d 15 00 00 00
	00		 lea	 edx, DWORD PTR $L84988
  000c6	e8 00 00 00 00	 call	 @_RTC_CheckStackVars@8
  000cb	58		 pop	 eax
  000cc	5a		 pop	 edx
  000cd	8b 4d fc	 mov	 ecx, DWORD PTR __$ArrayPad$[ebp]
  000d0	33 4d 04	 xor	 ecx, DWORD PTR __$ReturnAddr$[ebp]
  000d3	e8 00 00 00 00	 call	 @__security_check_cookie@4
  000d8	5f		 pop	 edi
  000d9	5e		 pop	 esi
  000da	5b		 pop	 ebx
  000db	81 c4 bc 01 00
	00		 add	 esp, 444		; 000001bcH
  000e1	3b ec		 cmp	 ebp, esp
  000e3	e8 00 00 00 00	 call	 __RTC_CheckEsp
  000e8	8b e5		 mov	 esp, ebp
  000ea	5d		 pop	 ebp
  000eb	c2 04 00	 ret	 4
$L84988:
  000ee	01 00 00 00	 DD	 1
  000f2	00 00 00 00	 DD	 $L84987
$L84987:
  000f6	20 ff ff ff	 DD	 -224			; ffffff20H
  000fa	c8 00 00 00	 DD	 200			; 000000c8H
  000fe	00 00 00 00	 DD	 $L84984
$L84984:
  00102	73		 DB	 115			; 00000073H
  00103	7a		 DB	 122			; 0000007aH
  00104	00		 DB	 0
?LoadAllTex@CMenuTextures@@QAEJPAUIDirect3DDevice8@@@Z ENDP ; CMenuTextures::LoadAllTex
_TEXT	ENDS
PUBLIC	?RestoreDeviceObjects@CMenuTextures@@QAEJPAUIDirect3D8@@PAUIDirect3DDevice8@@@Z ; CMenuTextures::RestoreDeviceObjects
PUBLIC	??_C@_0CF@BFBFFCAF@CMenuTextures?3?3RestoreDeviceObje@ ; `string'
EXTRN	?ods@@YAXPADZZ:NEAR				; ods
;	COMDAT ??_C@_0CF@BFBFFCAF@CMenuTextures?3?3RestoreDeviceObje@
CONST	SEGMENT
??_C@_0CF@BFBFFCAF@CMenuTextures?3?3RestoreDeviceObje@ DB 'CMenuTextures:'
	DB	':RestoreDeviceObjects', 0aH, 00H		; `string'
; Function compile flags: /Odt /RTCsu /ZI
CONST	ENDS
;	COMDAT ?RestoreDeviceObjects@CMenuTextures@@QAEJPAUIDirect3D8@@PAUIDirect3DDevice8@@@Z
_TEXT	SEGMENT
_this$ = -8
_pD3D$ = 8
_pDev$ = 12
?RestoreDeviceObjects@CMenuTextures@@QAEJPAUIDirect3D8@@PAUIDirect3DDevice8@@@Z PROC NEAR ; CMenuTextures::RestoreDeviceObjects, COMDAT
; _this$ = ecx

; 62   : 	{

  00000	55		 push	 ebp
  00001	8b ec		 mov	 ebp, esp
  00003	81 ec cc 00 00
	00		 sub	 esp, 204		; 000000ccH
  00009	53		 push	 ebx
  0000a	56		 push	 esi
  0000b	57		 push	 edi
  0000c	51		 push	 ecx
  0000d	8d bd 34 ff ff
	ff		 lea	 edi, DWORD PTR [ebp-204]
  00013	b9 33 00 00 00	 mov	 ecx, 51			; 00000033H
  00018	b8 cc cc cc cc	 mov	 eax, -858993460		; ccccccccH
  0001d	f3 ab		 rep stosd
  0001f	59		 pop	 ecx
  00020	89 4d f8	 mov	 DWORD PTR _this$[ebp], ecx

; 63   : 		ods( "CMenuTextures::RestoreDeviceObjects\n" );

  00023	68 00 00 00 00	 push	 OFFSET FLAT:??_C@_0CF@BFBFFCAF@CMenuTextures?3?3RestoreDeviceObje@
  00028	e8 00 00 00 00	 call	 ?ods@@YAXPADZZ		; ods
  0002d	83 c4 04	 add	 esp, 4

; 64   : 
; 65   : 		return LoadAllTex(pDev) ;

  00030	8b 45 0c	 mov	 eax, DWORD PTR _pDev$[ebp]
  00033	50		 push	 eax
  00034	8b 4d f8	 mov	 ecx, DWORD PTR _this$[ebp]
  00037	e8 00 00 00 00	 call	 ?LoadAllTex@CMenuTextures@@QAEJPAUIDirect3DDevice8@@@Z ; CMenuTextures::LoadAllTex

; 66   : 	}

  0003c	5f		 pop	 edi
  0003d	5e		 pop	 esi
  0003e	5b		 pop	 ebx
  0003f	81 c4 cc 00 00
	00		 add	 esp, 204		; 000000ccH
  00045	3b ec		 cmp	 ebp, esp
  00047	e8 00 00 00 00	 call	 __RTC_CheckEsp
  0004c	8b e5		 mov	 esp, ebp
  0004e	5d		 pop	 ebp
  0004f	c2 08 00	 ret	 8
?RestoreDeviceObjects@CMenuTextures@@QAEJPAUIDirect3D8@@PAUIDirect3DDevice8@@@Z ENDP ; CMenuTextures::RestoreDeviceObjects
; Function compile flags: /Odt /RTCsu /ZI
_TEXT	ENDS
;	COMDAT ?InvalidateDeviceObjects@CMenuTextures@@QAEJXZ
_TEXT	SEGMENT
_i$84935 = -20
_this$ = -8
?InvalidateDeviceObjects@CMenuTextures@@QAEJXZ PROC NEAR ; CMenuTextures::InvalidateDeviceObjects, COMDAT
; _this$ = ecx

; 68   : 	{

  00000	55		 push	 ebp
  00001	8b ec		 mov	 ebp, esp
  00003	81 ec d8 00 00
	00		 sub	 esp, 216		; 000000d8H
  00009	53		 push	 ebx
  0000a	56		 push	 esi
  0000b	57		 push	 edi
  0000c	51		 push	 ecx
  0000d	8d bd 28 ff ff
	ff		 lea	 edi, DWORD PTR [ebp-216]
  00013	b9 36 00 00 00	 mov	 ecx, 54			; 00000036H
  00018	b8 cc cc cc cc	 mov	 eax, -858993460		; ccccccccH
  0001d	f3 ab		 rep stosd
  0001f	59		 pop	 ecx
  00020	89 4d f8	 mov	 DWORD PTR _this$[ebp], ecx

; 69   : 		for (unsigned long i = 0 ; i < MAX_TEX ; i ++)

  00023	c7 45 ec 00 00
	00 00		 mov	 DWORD PTR _i$84935[ebp], 0
  0002a	eb 09		 jmp	 SHORT $L84936
$L84937:
  0002c	8b 45 ec	 mov	 eax, DWORD PTR _i$84935[ebp]
  0002f	83 c0 01	 add	 eax, 1
  00032	89 45 ec	 mov	 DWORD PTR _i$84935[ebp], eax
$L84936:
  00035	81 7d ec 00 04
	00 00		 cmp	 DWORD PTR _i$84935[ebp], 1024 ; 00000400H
  0003c	73 40		 jae	 SHORT $L84938

; 70   : 		{
; 71   : 			if (m_pTex[i])

  0003e	8b 45 ec	 mov	 eax, DWORD PTR _i$84935[ebp]
  00041	8b 4d f8	 mov	 ecx, DWORD PTR _this$[ebp]
  00044	83 7c 81 04 00	 cmp	 DWORD PTR [ecx+eax*4+4], 0
  00049	74 23		 je	 SHORT $L84939

; 72   : 				m_pTex[i]->Release() ;

  0004b	8b 45 ec	 mov	 eax, DWORD PTR _i$84935[ebp]
  0004e	8b 4d f8	 mov	 ecx, DWORD PTR _this$[ebp]
  00051	8b 54 81 04	 mov	 edx, DWORD PTR [ecx+eax*4+4]
  00055	8b 45 ec	 mov	 eax, DWORD PTR _i$84935[ebp]
  00058	8b 4d f8	 mov	 ecx, DWORD PTR _this$[ebp]
  0005b	8b 44 81 04	 mov	 eax, DWORD PTR [ecx+eax*4+4]
  0005f	8b 0a		 mov	 ecx, DWORD PTR [edx]
  00061	8b f4		 mov	 esi, esp
  00063	50		 push	 eax
  00064	ff 51 08	 call	 DWORD PTR [ecx+8]
  00067	3b f4		 cmp	 esi, esp
  00069	e8 00 00 00 00	 call	 __RTC_CheckEsp
$L84939:

; 73   : 			m_pTex[i] = NULL ;

  0006e	8b 45 ec	 mov	 eax, DWORD PTR _i$84935[ebp]
  00071	8b 4d f8	 mov	 ecx, DWORD PTR _this$[ebp]
  00074	c7 44 81 04 00
	00 00 00	 mov	 DWORD PTR [ecx+eax*4+4], 0

; 74   : 		}

  0007c	eb ae		 jmp	 SHORT $L84937
$L84938:

; 75   : 		m_nTex = 0 ;

  0007e	8b 45 f8	 mov	 eax, DWORD PTR _this$[ebp]
  00081	c7 00 00 00 00
	00		 mov	 DWORD PTR [eax], 0

; 76   : 		return S_OK ;

  00087	33 c0		 xor	 eax, eax

; 77   : 	}

  00089	5f		 pop	 edi
  0008a	5e		 pop	 esi
  0008b	5b		 pop	 ebx
  0008c	81 c4 d8 00 00
	00		 add	 esp, 216		; 000000d8H
  00092	3b ec		 cmp	 ebp, esp
  00094	e8 00 00 00 00	 call	 __RTC_CheckEsp
  00099	8b e5		 mov	 esp, ebp
  0009b	5d		 pop	 ebp
  0009c	c3		 ret	 0
?InvalidateDeviceObjects@CMenuTextures@@QAEJXZ ENDP	; CMenuTextures::InvalidateDeviceObjects
_TEXT	ENDS
END
