; Listing generated by Microsoft (R) Optimizing Compiler Version 13.00.9466 

	TITLE	COcean.cpp
	.386P
include listing.inc
if @Version gt 510
.model FLAT
else
_TEXT	SEGMENT PARA USE32 PUBLIC 'CODE'
_TEXT	ENDS
_DATA	SEGMENT DWORD USE32 PUBLIC 'DATA'
_DATA	ENDS
CONST	SEGMENT DWORD USE32 PUBLIC 'CONST'
CONST	ENDS
_BSS	SEGMENT DWORD USE32 PUBLIC 'BSS'
_BSS	ENDS
$$SYMBOLS	SEGMENT BYTE USE32 'DEBSYM'
$$SYMBOLS	ENDS
$$TYPES	SEGMENT BYTE USE32 'DEBTYP'
$$TYPES	ENDS
_TLS	SEGMENT DWORD USE32 PUBLIC 'TLS'
_TLS	ENDS
;	COMDAT ??_C@_0EI@MKCDFFBE@c?3?2documents?5and?5settings?2dom?2my@
CONST	SEGMENT DWORD USE32 PUBLIC 'CONST'
CONST	ENDS
;	COMDAT ??_C@_05DDPCBDEK@m_pRO?$AA@
CONST	SEGMENT DWORD USE32 PUBLIC 'CONST'
CONST	ENDS
;	COMDAT ??_C@_08OFPOHIDN@hr?$DN?$DNS_OK?$AA@
CONST	SEGMENT DWORD USE32 PUBLIC 'CONST'
CONST	ENDS
;	COMDAT ??_C@_0BO@JOJHPOFC@COcean?3?3RestoreDeviceObjects?6?$AA@
CONST	SEGMENT DWORD USE32 PUBLIC 'CONST'
CONST	ENDS
;	COMDAT ??_C@_09GPIEGEMI@pVertices?$AA@
CONST	SEGMENT DWORD USE32 PUBLIC 'CONST'
CONST	ENDS
;	COMDAT ??_C@_08GANEOFJJ@pIndices?$AA@
CONST	SEGMENT DWORD USE32 PUBLIC 'CONST'
CONST	ENDS
;	COMDAT _IsEqualGUID
_TEXT	SEGMENT PARA USE32 PUBLIC 'CODE'
_TEXT	ENDS
;	COMDAT _==
_TEXT	SEGMENT PARA USE32 PUBLIC 'CODE'
_TEXT	ENDS
;	COMDAT _sqrtf
_TEXT	SEGMENT PARA USE32 PUBLIC 'CODE'
_TEXT	ENDS
;	COMDAT ??0D3DXVECTOR2@@QAE@XZ
_TEXT	SEGMENT PARA USE32 PUBLIC 'CODE'
_TEXT	ENDS
;	COMDAT ??0D3DXVECTOR3@@QAE@XZ
_TEXT	SEGMENT PARA USE32 PUBLIC 'CODE'
_TEXT	ENDS
;	COMDAT ??0D3DXMATRIX@@QAE@XZ
_TEXT	SEGMENT PARA USE32 PUBLIC 'CODE'
_TEXT	ENDS
;	COMDAT ??0D3DXQUATERNION@@QAE@XZ
_TEXT	SEGMENT PARA USE32 PUBLIC 'CODE'
_TEXT	ENDS
;	COMDAT ??0D3DXCOLOR@@QAE@XZ
_TEXT	SEGMENT PARA USE32 PUBLIC 'CODE'
_TEXT	ENDS
;	COMDAT ??0D3DXVECTOR2@@QAE@MM@Z
_TEXT	SEGMENT PARA USE32 PUBLIC 'CODE'
_TEXT	ENDS
;	COMDAT ??0D3DXVECTOR3@@QAE@MMM@Z
_TEXT	SEGMENT PARA USE32 PUBLIC 'CODE'
_TEXT	ENDS
;	COMDAT ??0D3DXVECTOR4@@QAE@MMMM@Z
_TEXT	SEGMENT PARA USE32 PUBLIC 'CODE'
_TEXT	ENDS
;	COMDAT ??0D3DXMATRIX@@QAE@PBM@Z
_TEXT	SEGMENT PARA USE32 PUBLIC 'CODE'
_TEXT	ENDS
;	COMDAT ??0D3DXMATRIX@@QAE@ABU_D3DMATRIX@@@Z
_TEXT	SEGMENT PARA USE32 PUBLIC 'CODE'
_TEXT	ENDS
;	COMDAT ??0D3DXMATRIX@@QAE@MMMMMMMMMMMMMMMM@Z
_TEXT	SEGMENT PARA USE32 PUBLIC 'CODE'
_TEXT	ENDS
;	COMDAT ??0D3DXQUATERNION@@QAE@MMMM@Z
_TEXT	SEGMENT PARA USE32 PUBLIC 'CODE'
_TEXT	ENDS
;	COMDAT ??0D3DXPLANE@@QAE@MMMM@Z
_TEXT	SEGMENT PARA USE32 PUBLIC 'CODE'
_TEXT	ENDS
;	COMDAT ??0D3DXCOLOR@@QAE@MMMM@Z
_TEXT	SEGMENT PARA USE32 PUBLIC 'CODE'
_TEXT	ENDS
;	COMDAT ??BD3DXCOLOR@@QBEKXZ
_TEXT	SEGMENT PARA USE32 PUBLIC 'CODE'
_TEXT	ENDS
;	COMDAT ??0UNCOLOREDVERTEX@@QAE@XZ
_TEXT	SEGMENT PARA USE32 PUBLIC 'CODE'
_TEXT	ENDS
;	COMDAT ??0COcean@@QAE@MHPAUD3DXCOLOR@@@Z
_TEXT	SEGMENT PARA USE32 PUBLIC 'CODE'
_TEXT	ENDS
;	COMDAT ??1COcean@@QAE@XZ
_TEXT	SEGMENT PARA USE32 PUBLIC 'CODE'
_TEXT	ENDS
;	COMDAT ??_GCProceduralRenderObject@@QAEPAXI@Z
_TEXT	SEGMENT PARA USE32 PUBLIC 'CODE'
_TEXT	ENDS
;	COMDAT ?RestoreDeviceObjects@COcean@@QAEJPAUIDirect3D8@@PAUIDirect3DDevice8@@@Z
_TEXT	SEGMENT PARA USE32 PUBLIC 'CODE'
_TEXT	ENDS
;	COMDAT ?InvalidateDeviceObjects@COcean@@QAEJXZ
_TEXT	SEGMENT PARA USE32 PUBLIC 'CODE'
_TEXT	ENDS
;	COMDAT ?Render@COcean@@QAEJPAUIDirect3DDevice8@@PAVCTextures@@PAKPAUD3DXMATRIX@@PAUD3DXVECTOR3@@@Z
_TEXT	SEGMENT PARA USE32 PUBLIC 'CODE'
_TEXT	ENDS
;	COMDAT ?FrameMove@COcean@@QAEJPAUIDirect3DDevice8@@PAVCUserInput@@MPAVCCamera@@PAUD3DXMATRIX@@PAU_D3DVIEWPORT8@@@Z
_TEXT	SEGMENT PARA USE32 PUBLIC 'CODE'
_TEXT	ENDS
;	COMDAT ?Create@COcean@@QAEJXZ
_TEXT	SEGMENT PARA USE32 PUBLIC 'CODE'
_TEXT	ENDS
;	COMDAT ??_H@YGXPAXIHP6EPAX0@Z@Z
_TEXT	SEGMENT PARA USE32 PUBLIC 'CODE'
_TEXT	ENDS
;	COMDAT ?__LINE__Var@?1??Create@COcean@@QAEJXZ@4JA
_DATA	SEGMENT DWORD USE32 PUBLIC 'DATA'
_DATA	ENDS
;	COMDAT ?__LINE__Var@?1???0COcean@@QAE@MHPAUD3DXCOLOR@@@Z@4JA
_DATA	SEGMENT DWORD USE32 PUBLIC 'DATA'
_DATA	ENDS
FLAT	GROUP _DATA, CONST, _BSS
	ASSUME	CS: FLAT, DS: FLAT, SS: FLAT
endif

INCLUDELIB LIBCMTD
INCLUDELIB OLDNAMES

_BSS	SEGMENT
?fTime@?1??FrameMove@COcean@@QAEJPAUIDirect3DDevice8@@PAVCUserInput@@MPAVCCamera@@PAUD3DXMATRIX@@PAU_D3DVIEWPORT8@@@Z@4MA DD 01H DUP (?) ; `COcean::FrameMove'::`2'::fTime
_BSS	ENDS
PUBLIC	??0D3DXCOLOR@@QAE@XZ				; D3DXCOLOR::D3DXCOLOR
PUBLIC	??0COcean@@QAE@MHPAUD3DXCOLOR@@@Z		; COcean::COcean
PUBLIC	?Create@COcean@@QAEJXZ				; COcean::Create
PUBLIC	?__LINE__Var@?1???0COcean@@QAE@MHPAUD3DXCOLOR@@@Z@4JA ; `COcean::COcean'::`2'::__LINE__Var
PUBLIC	??_C@_0EI@MKCDFFBE@c?3?2documents?5and?5settings?2dom?2my@ ; `string'
PUBLIC	??_C@_05DDPCBDEK@m_pRO?$AA@			; `string'
PUBLIC	??_C@_08OFPOHIDN@hr?$DN?$DNS_OK?$AA@		; `string'
PUBLIC	__real@44fa0000
PUBLIC	??0D3DXVECTOR2@@QAE@XZ				; D3DXVECTOR2::D3DXVECTOR2
PUBLIC	??0D3DXVECTOR2@@QAE@MM@Z			; D3DXVECTOR2::D3DXVECTOR2
EXTRN	??2@YAPAXI@Z:NEAR				; operator new
EXTRN	??0CProceduralRenderObject@@QAE@XZ:NEAR		; CProceduralRenderObject::CProceduralRenderObject
EXTRN	?ScaleX7LTs@CProceduralRenderObject@@QAEXM@Z:NEAR ; CProceduralRenderObject::ScaleX7LTs
EXTRN	?IndexToList@CProceduralRenderObject@@QAEJXZ:NEAR ; CProceduralRenderObject::IndexToList
EXTRN	__assert:NEAR
EXTRN	__RTC_InitBase:NEAR
EXTRN	__RTC_Shutdown:NEAR
EXTRN	__RTC_CheckEsp:NEAR
EXTRN	__fltused:NEAR
EXTRN	?rnd@@YAMXZ:NEAR				; rnd
;	COMDAT rtc$IMZ
; File c:\documents and settings\dom\my documents\_dev\ae\xlr8a\x7g\cocean.cpp
rtc$IMZ	SEGMENT
__RTC_InitBase.rtc$IMZ DD FLAT:__RTC_InitBase
rtc$IMZ	ENDS
;	COMDAT rtc$TMZ
rtc$TMZ	SEGMENT
__RTC_Shutdown.rtc$TMZ DD FLAT:__RTC_Shutdown
rtc$TMZ	ENDS
;	COMDAT ?__LINE__Var@?1???0COcean@@QAE@MHPAUD3DXCOLOR@@@Z@4JA
_DATA	SEGMENT
?__LINE__Var@?1???0COcean@@QAE@MHPAUD3DXCOLOR@@@Z@4JA DD 0bH ; `COcean::COcean'::`2'::__LINE__Var
_DATA	ENDS
;	COMDAT ??_C@_0EI@MKCDFFBE@c?3?2documents?5and?5settings?2dom?2my@
CONST	SEGMENT
??_C@_0EI@MKCDFFBE@c?3?2documents?5and?5settings?2dom?2my@ DB 'c:\documen'
	DB	'ts and settings\dom\my documents\_dev\ae\xlr8a\x7g\cocean.cpp'
	DB	00H						; `string'
CONST	ENDS
;	COMDAT ??_C@_05DDPCBDEK@m_pRO?$AA@
CONST	SEGMENT
??_C@_05DDPCBDEK@m_pRO?$AA@ DB 'm_pRO', 00H		; `string'
CONST	ENDS
;	COMDAT ??_C@_08OFPOHIDN@hr?$DN?$DNS_OK?$AA@
CONST	SEGMENT
??_C@_08OFPOHIDN@hr?$DN?$DNS_OK?$AA@ DB 'hr==S_OK', 00H	; `string'
CONST	ENDS
;	COMDAT __real@44fa0000
CONST	SEGMENT
__real@44fa0000 DD 044fa0000r			; 2000
; Function compile flags: /Odt /RTCsu /ZI
CONST	ENDS
;	COMDAT ??0COcean@@QAE@MHPAUD3DXCOLOR@@@Z
_TEXT	SEGMENT
tv73 = -248
$T85579 = -240
$T85573 = -224
_hr$ = -20
_this$ = -8
_f$ = 8
_nTex$ = 12
_pColour$ = 16
??0COcean@@QAE@MHPAUD3DXCOLOR@@@Z PROC NEAR		; COcean::COcean, COMDAT
; _this$ = ecx

; 11   : 	{

  00000	55		 push	 ebp
  00001	8b ec		 mov	 ebp, esp
  00003	81 ec f8 00 00
	00		 sub	 esp, 248		; 000000f8H
  00009	53		 push	 ebx
  0000a	56		 push	 esi
  0000b	57		 push	 edi
  0000c	51		 push	 ecx
  0000d	8d bd 08 ff ff
	ff		 lea	 edi, DWORD PTR [ebp-248]
  00013	b9 3e 00 00 00	 mov	 ecx, 62			; 0000003eH
  00018	b8 cc cc cc cc	 mov	 eax, -858993460		; ccccccccH
  0001d	f3 ab		 rep stosd
  0001f	59		 pop	 ecx
  00020	89 4d f8	 mov	 DWORD PTR _this$[ebp], ecx
  00023	8b 4d f8	 mov	 ecx, DWORD PTR _this$[ebp]
  00026	83 c1 14	 add	 ecx, 20			; 00000014H
  00029	e8 00 00 00 00	 call	 ??0D3DXVECTOR2@@QAE@XZ	; D3DXVECTOR2::D3DXVECTOR2
  0002e	8b 4d f8	 mov	 ecx, DWORD PTR _this$[ebp]
  00031	83 c1 20	 add	 ecx, 32			; 00000020H
  00034	e8 00 00 00 00	 call	 ??0D3DXCOLOR@@QAE@XZ	; D3DXCOLOR::D3DXCOLOR

; 12   : 	//
; 13   : 	// Render Object:
; 14   : 	//
; 15   : 
; 16   : 		m_pRO = NULL ;

  00039	8b 45 f8	 mov	 eax, DWORD PTR _this$[ebp]
  0003c	c7 00 00 00 00
	00		 mov	 DWORD PTR [eax], 0

; 17   : 		m_pRO = new CProceduralRenderObject() ;

  00042	68 b8 0a 00 00	 push	 2744			; 00000ab8H
  00047	e8 00 00 00 00	 call	 ??2@YAPAXI@Z		; operator new
  0004c	83 c4 04	 add	 esp, 4
  0004f	89 85 20 ff ff
	ff		 mov	 DWORD PTR $T85573[ebp], eax
  00055	83 bd 20 ff ff
	ff 00		 cmp	 DWORD PTR $T85573[ebp], 0
  0005c	74 13		 je	 SHORT $L85574
  0005e	8b 8d 20 ff ff
	ff		 mov	 ecx, DWORD PTR $T85573[ebp]
  00064	e8 00 00 00 00	 call	 ??0CProceduralRenderObject@@QAE@XZ ; CProceduralRenderObject::CProceduralRenderObject
  00069	89 85 08 ff ff
	ff		 mov	 DWORD PTR tv73[ebp], eax
  0006f	eb 0a		 jmp	 SHORT $L85575
$L85574:
  00071	c7 85 08 ff ff
	ff 00 00 00 00	 mov	 DWORD PTR tv73[ebp], 0
$L85575:
  0007b	8b 45 f8	 mov	 eax, DWORD PTR _this$[ebp]
  0007e	8b 8d 08 ff ff
	ff		 mov	 ecx, DWORD PTR tv73[ebp]
  00084	89 08		 mov	 DWORD PTR [eax], ecx

; 18   : 		assert( m_pRO );

  00086	8b 45 f8	 mov	 eax, DWORD PTR _this$[ebp]
  00089	83 38 00	 cmp	 DWORD PTR [eax], 0
  0008c	75 1c		 jne	 SHORT $L85576
  0008e	8b 0d 00 00 00
	00		 mov	 ecx, DWORD PTR ?__LINE__Var@?1???0COcean@@QAE@MHPAUD3DXCOLOR@@@Z@4JA
  00094	83 c1 07	 add	 ecx, 7
  00097	51		 push	 ecx
  00098	68 00 00 00 00	 push	 OFFSET FLAT:??_C@_0EI@MKCDFFBE@c?3?2documents?5and?5settings?2dom?2my@
  0009d	68 00 00 00 00	 push	 OFFSET FLAT:??_C@_05DDPCBDEK@m_pRO?$AA@
  000a2	e8 00 00 00 00	 call	 __assert
  000a7	83 c4 0c	 add	 esp, 12			; 0000000cH
$L85576:

; 19   : 
; 20   : 		m_pRO->m_dwFVF = MYFVF_COLOREDVERTEX/*2TEX*/ ;

  000aa	8b 45 f8	 mov	 eax, DWORD PTR _this$[ebp]
  000ad	8b 08		 mov	 ecx, DWORD PTR [eax]
  000af	c7 01 c2 01 00
	00		 mov	 DWORD PTR [ecx], 450	; 000001c2H

; 21   : 		m_pRO->m_dwMeshOptions = D3DXMESH_VB_WRITEONLY | D3DXMESH_IB_WRITEONLY ;

  000b5	8b 45 f8	 mov	 eax, DWORD PTR _this$[ebp]
  000b8	8b 08		 mov	 ecx, DWORD PTR [eax]
  000ba	c7 81 4c 0a 00
	00 40 04 00 00	 mov	 DWORD PTR [ecx+2636], 1088 ; 00000440H

; 22   : 		
; 23   : 		//m_pRO->m_bUseD3DXMesh = FALSE ;
; 24   : 		//m_pRO->m_dwUsageOptions = D3DUSAGE_WRITEONLY ;
; 25   : 
; 26   : 		m_nTex = nTex ;

  000c4	8b 45 f8	 mov	 eax, DWORD PTR _this$[ebp]
  000c7	8b 4d 0c	 mov	 ecx, DWORD PTR _nTex$[ebp]
  000ca	89 48 1c	 mov	 DWORD PTR [eax+28], ecx

; 27   : 		m_Colour = *pColour ;

  000cd	8b 45 10	 mov	 eax, DWORD PTR _pColour$[ebp]
  000d0	8b 4d f8	 mov	 ecx, DWORD PTR _this$[ebp]
  000d3	83 c1 20	 add	 ecx, 32			; 00000020H
  000d6	8b 10		 mov	 edx, DWORD PTR [eax]
  000d8	89 11		 mov	 DWORD PTR [ecx], edx
  000da	8b 50 04	 mov	 edx, DWORD PTR [eax+4]
  000dd	89 51 04	 mov	 DWORD PTR [ecx+4], edx
  000e0	8b 50 08	 mov	 edx, DWORD PTR [eax+8]
  000e3	89 51 08	 mov	 DWORD PTR [ecx+8], edx
  000e6	8b 40 0c	 mov	 eax, DWORD PTR [eax+12]
  000e9	89 41 0c	 mov	 DWORD PTR [ecx+12], eax

; 28   : 		
; 29   : 	//
; 30   : 	// Geometry:
; 31   : 	//
; 32   : 		HRESULT hr ;
; 33   : 		hr = Create() ;

  000ec	8b 4d f8	 mov	 ecx, DWORD PTR _this$[ebp]
  000ef	e8 00 00 00 00	 call	 ?Create@COcean@@QAEJXZ	; COcean::Create
  000f4	89 45 ec	 mov	 DWORD PTR _hr$[ebp], eax

; 34   : 		assert( hr==S_OK );

  000f7	83 7d ec 00	 cmp	 DWORD PTR _hr$[ebp], 0
  000fb	74 1b		 je	 SHORT $L85577
  000fd	a1 00 00 00 00	 mov	 eax, DWORD PTR ?__LINE__Var@?1???0COcean@@QAE@MHPAUD3DXCOLOR@@@Z@4JA
  00102	83 c0 17	 add	 eax, 23			; 00000017H
  00105	50		 push	 eax
  00106	68 00 00 00 00	 push	 OFFSET FLAT:??_C@_0EI@MKCDFFBE@c?3?2documents?5and?5settings?2dom?2my@
  0010b	68 00 00 00 00	 push	 OFFSET FLAT:??_C@_08OFPOHIDN@hr?$DN?$DNS_OK?$AA@
  00110	e8 00 00 00 00	 call	 __assert
  00115	83 c4 0c	 add	 esp, 12			; 0000000cH
$L85577:

; 35   : 		
; 36   : 		m_pRO->ScaleX7LTs( f );

  00118	8b 45 08	 mov	 eax, DWORD PTR _f$[ebp]
  0011b	50		 push	 eax
  0011c	8b 4d f8	 mov	 ecx, DWORD PTR _this$[ebp]
  0011f	8b 09		 mov	 ecx, DWORD PTR [ecx]
  00121	e8 00 00 00 00	 call	 ?ScaleX7LTs@CProceduralRenderObject@@QAEXM@Z ; CProceduralRenderObject::ScaleX7LTs

; 37   : 
; 38   : 		hr = m_pRO->IndexToList() ; 

  00126	8b 45 f8	 mov	 eax, DWORD PTR _this$[ebp]
  00129	8b 08		 mov	 ecx, DWORD PTR [eax]
  0012b	e8 00 00 00 00	 call	 ?IndexToList@CProceduralRenderObject@@QAEJXZ ; CProceduralRenderObject::IndexToList
  00130	89 45 ec	 mov	 DWORD PTR _hr$[ebp], eax

; 39   : 		assert( hr==S_OK );

  00133	83 7d ec 00	 cmp	 DWORD PTR _hr$[ebp], 0
  00137	74 1b		 je	 SHORT $L85578
  00139	a1 00 00 00 00	 mov	 eax, DWORD PTR ?__LINE__Var@?1???0COcean@@QAE@MHPAUD3DXCOLOR@@@Z@4JA
  0013e	83 c0 1c	 add	 eax, 28			; 0000001cH
  00141	50		 push	 eax
  00142	68 00 00 00 00	 push	 OFFSET FLAT:??_C@_0EI@MKCDFFBE@c?3?2documents?5and?5settings?2dom?2my@
  00147	68 00 00 00 00	 push	 OFFSET FLAT:??_C@_08OFPOHIDN@hr?$DN?$DNS_OK?$AA@
  0014c	e8 00 00 00 00	 call	 __assert
  00151	83 c4 0c	 add	 esp, 12			; 0000000cH
$L85578:

; 40   : 
; 41   : 	//
; 42   : 	// Tide:
; 43   : 	//
; 44   : 		m_fTideDirection = +1.0f ;

  00154	8b 45 f8	 mov	 eax, DWORD PTR _this$[ebp]
  00157	c7 40 04 00 00
	80 3f		 mov	 DWORD PTR [eax+4], 1065353216 ; 3f800000H

; 45   : 		m_fTideHeight = 0.0f ;

  0015e	8b 45 f8	 mov	 eax, DWORD PTR _this$[ebp]
  00161	c7 40 08 00 00
	00 00		 mov	 DWORD PTR [eax+8], 0

; 46   : 		m_fTideMaxHeight = +f / 2000.0f ;

  00168	d9 45 08	 fld	 DWORD PTR _f$[ebp]
  0016b	d8 35 00 00 00
	00		 fdiv	 DWORD PTR __real@44fa0000
  00171	8b 45 f8	 mov	 eax, DWORD PTR _this$[ebp]
  00174	d9 58 0c	 fstp	 DWORD PTR [eax+12]

; 47   : 		m_fTideMinHeight = -f / 2000.0f ;

  00177	d9 45 08	 fld	 DWORD PTR _f$[ebp]
  0017a	d9 e0		 fchs
  0017c	d8 35 00 00 00
	00		 fdiv	 DWORD PTR __real@44fa0000
  00182	8b 45 f8	 mov	 eax, DWORD PTR _this$[ebp]
  00185	d9 58 10	 fstp	 DWORD PTR [eax+16]

; 48   : 
; 49   : 	//
; 50   : 	// Texture Movement:
; 51   : 	//
; 52   : 		m_vTexVel = xVec2( rnd(), rnd() );

  00188	e8 00 00 00 00	 call	 ?rnd@@YAMXZ		; rnd
  0018d	51		 push	 ecx
  0018e	d9 1c 24	 fstp	 DWORD PTR [esp]
  00191	e8 00 00 00 00	 call	 ?rnd@@YAMXZ		; rnd
  00196	51		 push	 ecx
  00197	d9 1c 24	 fstp	 DWORD PTR [esp]
  0019a	8d 8d 10 ff ff
	ff		 lea	 ecx, DWORD PTR $T85579[ebp]
  001a0	e8 00 00 00 00	 call	 ??0D3DXVECTOR2@@QAE@MM@Z ; D3DXVECTOR2::D3DXVECTOR2
  001a5	8b 08		 mov	 ecx, DWORD PTR [eax]
  001a7	8b 50 04	 mov	 edx, DWORD PTR [eax+4]
  001aa	8b 45 f8	 mov	 eax, DWORD PTR _this$[ebp]
  001ad	89 48 14	 mov	 DWORD PTR [eax+20], ecx
  001b0	89 50 18	 mov	 DWORD PTR [eax+24], edx

; 53   : 		m_ndxCurTex = 0 ;

  001b3	8b 45 f8	 mov	 eax, DWORD PTR _this$[ebp]
  001b6	c7 40 30 00 00
	00 00		 mov	 DWORD PTR [eax+48], 0

; 54   : 	}

  001bd	8b 45 f8	 mov	 eax, DWORD PTR _this$[ebp]
  001c0	5f		 pop	 edi
  001c1	5e		 pop	 esi
  001c2	5b		 pop	 ebx
  001c3	81 c4 f8 00 00
	00		 add	 esp, 248		; 000000f8H
  001c9	3b ec		 cmp	 ebp, esp
  001cb	e8 00 00 00 00	 call	 __RTC_CheckEsp
  001d0	8b e5		 mov	 esp, ebp
  001d2	5d		 pop	 ebp
  001d3	c2 0c 00	 ret	 12			; 0000000cH
??0COcean@@QAE@MHPAUD3DXCOLOR@@@Z ENDP			; COcean::COcean
_TEXT	ENDS
PUBLIC	??_GCProceduralRenderObject@@QAEPAXI@Z		; CProceduralRenderObject::`scalar deleting destructor'
PUBLIC	??1COcean@@QAE@XZ				; COcean::~COcean
; Function compile flags: /Odt /RTCsu /ZI
;	COMDAT ??1COcean@@QAE@XZ
_TEXT	SEGMENT
tv69 = -232
$T85595 = -224
$T85594 = -212
_this$ = -8
??1COcean@@QAE@XZ PROC NEAR				; COcean::~COcean, COMDAT
; _this$ = ecx

; 56   : 	{

  00000	55		 push	 ebp
  00001	8b ec		 mov	 ebp, esp
  00003	81 ec e8 00 00
	00		 sub	 esp, 232		; 000000e8H
  00009	53		 push	 ebx
  0000a	56		 push	 esi
  0000b	57		 push	 edi
  0000c	51		 push	 ecx
  0000d	8d bd 18 ff ff
	ff		 lea	 edi, DWORD PTR [ebp-232]
  00013	b9 3a 00 00 00	 mov	 ecx, 58			; 0000003aH
  00018	b8 cc cc cc cc	 mov	 eax, -858993460		; ccccccccH
  0001d	f3 ab		 rep stosd
  0001f	59		 pop	 ecx
  00020	89 4d f8	 mov	 DWORD PTR _this$[ebp], ecx

; 57   : 		SAFE_DELETE(m_pRO)

  00023	8b 45 f8	 mov	 eax, DWORD PTR _this$[ebp]
  00026	83 38 00	 cmp	 DWORD PTR [eax], 0
  00029	74 48		 je	 SHORT $L85421
  0002b	8b 45 f8	 mov	 eax, DWORD PTR _this$[ebp]
  0002e	8b 08		 mov	 ecx, DWORD PTR [eax]
  00030	89 8d 20 ff ff
	ff		 mov	 DWORD PTR $T85595[ebp], ecx
  00036	8b 95 20 ff ff
	ff		 mov	 edx, DWORD PTR $T85595[ebp]
  0003c	89 95 2c ff ff
	ff		 mov	 DWORD PTR $T85594[ebp], edx
  00042	83 bd 2c ff ff
	ff 00		 cmp	 DWORD PTR $T85594[ebp], 0
  00049	74 15		 je	 SHORT $L85596
  0004b	6a 01		 push	 1
  0004d	8b 8d 2c ff ff
	ff		 mov	 ecx, DWORD PTR $T85594[ebp]
  00053	e8 00 00 00 00	 call	 ??_GCProceduralRenderObject@@QAEPAXI@Z
  00058	89 85 18 ff ff
	ff		 mov	 DWORD PTR tv69[ebp], eax
  0005e	eb 0a		 jmp	 SHORT $L85597
$L85596:
  00060	c7 85 18 ff ff
	ff 00 00 00 00	 mov	 DWORD PTR tv69[ebp], 0
$L85597:
  0006a	8b 45 f8	 mov	 eax, DWORD PTR _this$[ebp]
  0006d	c7 00 00 00 00
	00		 mov	 DWORD PTR [eax], 0
$L85421:

; 58   : 	}

  00073	5f		 pop	 edi
  00074	5e		 pop	 esi
  00075	5b		 pop	 ebx
  00076	81 c4 e8 00 00
	00		 add	 esp, 232		; 000000e8H
  0007c	3b ec		 cmp	 ebp, esp
  0007e	e8 00 00 00 00	 call	 __RTC_CheckEsp
  00083	8b e5		 mov	 esp, ebp
  00085	5d		 pop	 ebp
  00086	c3		 ret	 0
??1COcean@@QAE@XZ ENDP					; COcean::~COcean
_TEXT	ENDS
EXTRN	??3@YAXPAX@Z:NEAR				; operator delete
EXTRN	??1CProceduralRenderObject@@QAE@XZ:NEAR		; CProceduralRenderObject::~CProceduralRenderObject
; Function compile flags: /Odt /RTCsu /ZI
;	COMDAT ??_GCProceduralRenderObject@@QAEPAXI@Z
_TEXT	SEGMENT
_this$ = -8
___flags$ = 8
??_GCProceduralRenderObject@@QAEPAXI@Z PROC NEAR	; CProceduralRenderObject::`scalar deleting destructor', COMDAT
; _this$ = ecx
  00000	55		 push	 ebp
  00001	8b ec		 mov	 ebp, esp
  00003	81 ec cc 00 00
	00		 sub	 esp, 204		; 000000ccH
  00009	53		 push	 ebx
  0000a	56		 push	 esi
  0000b	57		 push	 edi
  0000c	51		 push	 ecx
  0000d	8d bd 34 ff ff
	ff		 lea	 edi, DWORD PTR [ebp-204]
  00013	b9 33 00 00 00	 mov	 ecx, 51			; 00000033H
  00018	b8 cc cc cc cc	 mov	 eax, -858993460		; ccccccccH
  0001d	f3 ab		 rep stosd
  0001f	59		 pop	 ecx
  00020	89 4d f8	 mov	 DWORD PTR _this$[ebp], ecx
  00023	8b 4d f8	 mov	 ecx, DWORD PTR _this$[ebp]
  00026	e8 00 00 00 00	 call	 ??1CProceduralRenderObject@@QAE@XZ ; CProceduralRenderObject::~CProceduralRenderObject
  0002b	8b 45 08	 mov	 eax, DWORD PTR ___flags$[ebp]
  0002e	83 e0 01	 and	 eax, 1
  00031	85 c0		 test	 eax, eax
  00033	74 0c		 je	 SHORT $L85428
  00035	8b 45 f8	 mov	 eax, DWORD PTR _this$[ebp]
  00038	50		 push	 eax
  00039	e8 00 00 00 00	 call	 ??3@YAXPAX@Z		; operator delete
  0003e	83 c4 04	 add	 esp, 4
$L85428:
  00041	8b 45 f8	 mov	 eax, DWORD PTR _this$[ebp]
  00044	5f		 pop	 edi
  00045	5e		 pop	 esi
  00046	5b		 pop	 ebx
  00047	81 c4 cc 00 00
	00		 add	 esp, 204		; 000000ccH
  0004d	3b ec		 cmp	 ebp, esp
  0004f	e8 00 00 00 00	 call	 __RTC_CheckEsp
  00054	8b e5		 mov	 esp, ebp
  00056	5d		 pop	 ebp
  00057	c2 04 00	 ret	 4
??_GCProceduralRenderObject@@QAEPAXI@Z ENDP		; CProceduralRenderObject::`scalar deleting destructor'
_TEXT	ENDS
PUBLIC	?RestoreDeviceObjects@COcean@@QAEJPAUIDirect3D8@@PAUIDirect3DDevice8@@@Z ; COcean::RestoreDeviceObjects
PUBLIC	??_C@_0BO@JOJHPOFC@COcean?3?3RestoreDeviceObjects?6?$AA@ ; `string'
EXTRN	?RestoreDeviceObjects@CProceduralRenderObject@@QAEJPAUIDirect3D8@@PAUIDirect3DDevice8@@@Z:NEAR ; CProceduralRenderObject::RestoreDeviceObjects
EXTRN	?ods@@YAXPADZZ:NEAR				; ods
;	COMDAT ??_C@_0BO@JOJHPOFC@COcean?3?3RestoreDeviceObjects?6?$AA@
CONST	SEGMENT
??_C@_0BO@JOJHPOFC@COcean?3?3RestoreDeviceObjects?6?$AA@ DB 'COcean::Rest'
	DB	'oreDeviceObjects', 0aH, 00H			; `string'
; Function compile flags: /Odt /RTCsu /ZI
CONST	ENDS
;	COMDAT ?RestoreDeviceObjects@COcean@@QAEJPAUIDirect3D8@@PAUIDirect3DDevice8@@@Z
_TEXT	SEGMENT
_this$ = -8
_pD3D$ = 8
_pDev$ = 12
?RestoreDeviceObjects@COcean@@QAEJPAUIDirect3D8@@PAUIDirect3DDevice8@@@Z PROC NEAR ; COcean::RestoreDeviceObjects, COMDAT
; _this$ = ecx

; 66   : 	{

  00000	55		 push	 ebp
  00001	8b ec		 mov	 ebp, esp
  00003	81 ec cc 00 00
	00		 sub	 esp, 204		; 000000ccH
  00009	53		 push	 ebx
  0000a	56		 push	 esi
  0000b	57		 push	 edi
  0000c	51		 push	 ecx
  0000d	8d bd 34 ff ff
	ff		 lea	 edi, DWORD PTR [ebp-204]
  00013	b9 33 00 00 00	 mov	 ecx, 51			; 00000033H
  00018	b8 cc cc cc cc	 mov	 eax, -858993460		; ccccccccH
  0001d	f3 ab		 rep stosd
  0001f	59		 pop	 ecx
  00020	89 4d f8	 mov	 DWORD PTR _this$[ebp], ecx

; 67   : 		ods( "COcean::RestoreDeviceObjects\n" );

  00023	68 00 00 00 00	 push	 OFFSET FLAT:??_C@_0BO@JOJHPOFC@COcean?3?3RestoreDeviceObjects?6?$AA@
  00028	e8 00 00 00 00	 call	 ?ods@@YAXPADZZ		; ods
  0002d	83 c4 04	 add	 esp, 4

; 68   : 
; 69   : 		if (FAILED(m_pRO->RestoreDeviceObjects(pD3D, pDev)))

  00030	8b 45 0c	 mov	 eax, DWORD PTR _pDev$[ebp]
  00033	50		 push	 eax
  00034	8b 4d 08	 mov	 ecx, DWORD PTR _pD3D$[ebp]
  00037	51		 push	 ecx
  00038	8b 55 f8	 mov	 edx, DWORD PTR _this$[ebp]
  0003b	8b 0a		 mov	 ecx, DWORD PTR [edx]
  0003d	e8 00 00 00 00	 call	 ?RestoreDeviceObjects@CProceduralRenderObject@@QAEJPAUIDirect3D8@@PAUIDirect3DDevice8@@@Z ; CProceduralRenderObject::RestoreDeviceObjects
  00042	85 c0		 test	 eax, eax
  00044	7d 07		 jge	 SHORT $L85436

; 70   : 			return E_FAIL ;

  00046	b8 05 40 00 80	 mov	 eax, -2147467259	; 80004005H
  0004b	eb 02		 jmp	 SHORT $L85433
$L85436:

; 71   : 
; 72   : 		return S_OK ;

  0004d	33 c0		 xor	 eax, eax
$L85433:

; 73   : 	}

  0004f	5f		 pop	 edi
  00050	5e		 pop	 esi
  00051	5b		 pop	 ebx
  00052	81 c4 cc 00 00
	00		 add	 esp, 204		; 000000ccH
  00058	3b ec		 cmp	 ebp, esp
  0005a	e8 00 00 00 00	 call	 __RTC_CheckEsp
  0005f	8b e5		 mov	 esp, ebp
  00061	5d		 pop	 ebp
  00062	c2 08 00	 ret	 8
?RestoreDeviceObjects@COcean@@QAEJPAUIDirect3D8@@PAUIDirect3DDevice8@@@Z ENDP ; COcean::RestoreDeviceObjects
_TEXT	ENDS
PUBLIC	?InvalidateDeviceObjects@COcean@@QAEJXZ		; COcean::InvalidateDeviceObjects
EXTRN	?InvalidateDeviceObjects@CProceduralRenderObject@@QAEJXZ:NEAR ; CProceduralRenderObject::InvalidateDeviceObjects
; Function compile flags: /Odt /RTCsu /ZI
;	COMDAT ?InvalidateDeviceObjects@COcean@@QAEJXZ
_TEXT	SEGMENT
_this$ = -8
?InvalidateDeviceObjects@COcean@@QAEJXZ PROC NEAR	; COcean::InvalidateDeviceObjects, COMDAT
; _this$ = ecx

; 75   : 	{

  00000	55		 push	 ebp
  00001	8b ec		 mov	 ebp, esp
  00003	81 ec cc 00 00
	00		 sub	 esp, 204		; 000000ccH
  00009	53		 push	 ebx
  0000a	56		 push	 esi
  0000b	57		 push	 edi
  0000c	51		 push	 ecx
  0000d	8d bd 34 ff ff
	ff		 lea	 edi, DWORD PTR [ebp-204]
  00013	b9 33 00 00 00	 mov	 ecx, 51			; 00000033H
  00018	b8 cc cc cc cc	 mov	 eax, -858993460		; ccccccccH
  0001d	f3 ab		 rep stosd
  0001f	59		 pop	 ecx
  00020	89 4d f8	 mov	 DWORD PTR _this$[ebp], ecx

; 76   : 		m_pRO->InvalidateDeviceObjects() ;

  00023	8b 45 f8	 mov	 eax, DWORD PTR _this$[ebp]
  00026	8b 08		 mov	 ecx, DWORD PTR [eax]
  00028	e8 00 00 00 00	 call	 ?InvalidateDeviceObjects@CProceduralRenderObject@@QAEJXZ ; CProceduralRenderObject::InvalidateDeviceObjects

; 77   : 		return S_OK ;

  0002d	33 c0		 xor	 eax, eax

; 78   : 	}

  0002f	5f		 pop	 edi
  00030	5e		 pop	 esi
  00031	5b		 pop	 ebx
  00032	81 c4 cc 00 00
	00		 add	 esp, 204		; 000000ccH
  00038	3b ec		 cmp	 ebp, esp
  0003a	e8 00 00 00 00	 call	 __RTC_CheckEsp
  0003f	8b e5		 mov	 esp, ebp
  00041	5d		 pop	 ebp
  00042	c3		 ret	 0
?InvalidateDeviceObjects@COcean@@QAEJXZ ENDP		; COcean::InvalidateDeviceObjects
_TEXT	ENDS
PUBLIC	??0D3DXMATRIX@@QAE@XZ				; D3DXMATRIX::D3DXMATRIX
PUBLIC	?Render@COcean@@QAEJPAUIDirect3DDevice8@@PAVCTextures@@PAKPAUD3DXMATRIX@@PAUD3DXVECTOR3@@@Z ; COcean::Render
PUBLIC	__real@3f400000
EXTRN	?Render@CProceduralRenderObject@@QAEJPAUIDirect3DDevice8@@PAVCTextures@@PAKHPAUD3DXMATRIX@@_N@Z:NEAR ; CProceduralRenderObject::Render
EXTRN	_D3DXMatrixMultiply@12:NEAR
EXTRN	_D3DXMatrixTranslation@16:NEAR
EXTRN	@_RTC_CheckStackVars@8:NEAR
;	COMDAT __real@3f400000
CONST	SEGMENT
__real@3f400000 DD 03f400000r			; 0.75
; Function compile flags: /Odt /RTCsu /ZI
CONST	ENDS
;	COMDAT ?Render@COcean@@QAEJPAUIDirect3DDevice8@@PAVCTextures@@PAKPAUD3DXMATRIX@@PAUD3DXVECTOR3@@@Z
_TEXT	SEGMENT
_matWorld$ = -152
_matTrans$ = -80
_this$ = -8
_pDev$ = 8
_pTex$ = 12
_pulPolyCount$ = 16
_pmatCurWorld$ = 20
_pvEyePt$ = 24
?Render@COcean@@QAEJPAUIDirect3DDevice8@@PAVCTextures@@PAKPAUD3DXMATRIX@@PAUD3DXVECTOR3@@@Z PROC NEAR ; COcean::Render, COMDAT
; _this$ = ecx

; 84   : 	{

  00000	55		 push	 ebp
  00001	8b ec		 mov	 ebp, esp
  00003	81 ec 5c 01 00
	00		 sub	 esp, 348		; 0000015cH
  00009	53		 push	 ebx
  0000a	56		 push	 esi
  0000b	57		 push	 edi
  0000c	51		 push	 ecx
  0000d	8d bd a4 fe ff
	ff		 lea	 edi, DWORD PTR [ebp-348]
  00013	b9 57 00 00 00	 mov	 ecx, 87			; 00000057H
  00018	b8 cc cc cc cc	 mov	 eax, -858993460		; ccccccccH
  0001d	f3 ab		 rep stosd
  0001f	59		 pop	 ecx
  00020	89 4d f8	 mov	 DWORD PTR _this$[ebp], ecx

; 85   : 		xMat matTrans, matWorld ;

  00023	8d 4d b0	 lea	 ecx, DWORD PTR _matTrans$[ebp]
  00026	e8 00 00 00 00	 call	 ??0D3DXMATRIX@@QAE@XZ	; D3DXMATRIX::D3DXMATRIX
  0002b	8d 8d 68 ff ff
	ff		 lea	 ecx, DWORD PTR _matWorld$[ebp]
  00031	e8 00 00 00 00	 call	 ??0D3DXMATRIX@@QAE@XZ	; D3DXMATRIX::D3DXMATRIX

; 86   : 		D3DXMatrixTranslation( &matTrans, pvEyePt->x * 0.75f, 0.0f, pvEyePt->z  * 0.75f );

  00036	8b 45 18	 mov	 eax, DWORD PTR _pvEyePt$[ebp]
  00039	d9 40 08	 fld	 DWORD PTR [eax+8]
  0003c	d8 0d 00 00 00
	00		 fmul	 DWORD PTR __real@3f400000
  00042	51		 push	 ecx
  00043	d9 1c 24	 fstp	 DWORD PTR [esp]
  00046	6a 00		 push	 0
  00048	8b 4d 18	 mov	 ecx, DWORD PTR _pvEyePt$[ebp]
  0004b	d9 01		 fld	 DWORD PTR [ecx]
  0004d	d8 0d 00 00 00
	00		 fmul	 DWORD PTR __real@3f400000
  00053	51		 push	 ecx
  00054	d9 1c 24	 fstp	 DWORD PTR [esp]
  00057	8d 55 b0	 lea	 edx, DWORD PTR _matTrans$[ebp]
  0005a	52		 push	 edx
  0005b	e8 00 00 00 00	 call	 _D3DXMatrixTranslation@16

; 87   : 		D3DXMatrixMultiply( &matWorld, &matTrans, pmatCurWorld );

  00060	8b 45 14	 mov	 eax, DWORD PTR _pmatCurWorld$[ebp]
  00063	50		 push	 eax
  00064	8d 4d b0	 lea	 ecx, DWORD PTR _matTrans$[ebp]
  00067	51		 push	 ecx
  00068	8d 95 68 ff ff
	ff		 lea	 edx, DWORD PTR _matWorld$[ebp]
  0006e	52		 push	 edx
  0006f	e8 00 00 00 00	 call	 _D3DXMatrixMultiply@12

; 88   : 
; 89   : 		m_pRO->Render( pDev, pTex, pulPolyCount, 0, &matWorld, false );

  00074	6a 00		 push	 0
  00076	8d 85 68 ff ff
	ff		 lea	 eax, DWORD PTR _matWorld$[ebp]
  0007c	50		 push	 eax
  0007d	6a 00		 push	 0
  0007f	8b 4d 10	 mov	 ecx, DWORD PTR _pulPolyCount$[ebp]
  00082	51		 push	 ecx
  00083	8b 55 0c	 mov	 edx, DWORD PTR _pTex$[ebp]
  00086	52		 push	 edx
  00087	8b 45 08	 mov	 eax, DWORD PTR _pDev$[ebp]
  0008a	50		 push	 eax
  0008b	8b 4d f8	 mov	 ecx, DWORD PTR _this$[ebp]
  0008e	8b 09		 mov	 ecx, DWORD PTR [ecx]
  00090	e8 00 00 00 00	 call	 ?Render@CProceduralRenderObject@@QAEJPAUIDirect3DDevice8@@PAVCTextures@@PAKHPAUD3DXMATRIX@@_N@Z ; CProceduralRenderObject::Render

; 90   : 
; 91   : 		return S_OK ;

  00095	33 c0		 xor	 eax, eax

; 92   : 	}

  00097	52		 push	 edx
  00098	8b cd		 mov	 ecx, ebp
  0009a	50		 push	 eax
  0009b	8d 15 00 00 00
	00		 lea	 edx, DWORD PTR $L85611
  000a1	e8 00 00 00 00	 call	 @_RTC_CheckStackVars@8
  000a6	58		 pop	 eax
  000a7	5a		 pop	 edx
  000a8	5f		 pop	 edi
  000a9	5e		 pop	 esi
  000aa	5b		 pop	 ebx
  000ab	81 c4 5c 01 00
	00		 add	 esp, 348		; 0000015cH
  000b1	3b ec		 cmp	 ebp, esp
  000b3	e8 00 00 00 00	 call	 __RTC_CheckEsp
  000b8	8b e5		 mov	 esp, ebp
  000ba	5d		 pop	 ebp
  000bb	c2 14 00	 ret	 20			; 00000014H
$L85611:
  000be	02 00 00 00	 DD	 2
  000c2	00 00 00 00	 DD	 $L85610
$L85610:
  000c6	b0 ff ff ff	 DD	 -80			; ffffffb0H
  000ca	40 00 00 00	 DD	 64			; 00000040H
  000ce	00 00 00 00	 DD	 $L85608
  000d2	68 ff ff ff	 DD	 -152			; ffffff68H
  000d6	40 00 00 00	 DD	 64			; 00000040H
  000da	00 00 00 00	 DD	 $L85609
$L85609:
  000de	6d		 DB	 109			; 0000006dH
  000df	61		 DB	 97			; 00000061H
  000e0	74		 DB	 116			; 00000074H
  000e1	57		 DB	 87			; 00000057H
  000e2	6f		 DB	 111			; 0000006fH
  000e3	72		 DB	 114			; 00000072H
  000e4	6c		 DB	 108			; 0000006cH
  000e5	64		 DB	 100			; 00000064H
  000e6	00		 DB	 0
$L85608:
  000e7	6d		 DB	 109			; 0000006dH
  000e8	61		 DB	 97			; 00000061H
  000e9	74		 DB	 116			; 00000074H
  000ea	54		 DB	 84			; 00000054H
  000eb	72		 DB	 114			; 00000072H
  000ec	61		 DB	 97			; 00000061H
  000ed	6e		 DB	 110			; 0000006eH
  000ee	73		 DB	 115			; 00000073H
  000ef	00		 DB	 0
?Render@COcean@@QAEJPAUIDirect3DDevice8@@PAVCTextures@@PAKPAUD3DXMATRIX@@PAUD3DXVECTOR3@@@Z ENDP ; COcean::Render
_TEXT	ENDS
PUBLIC	?FrameMove@COcean@@QAEJPAUIDirect3DDevice8@@PAVCUserInput@@MPAVCCamera@@PAUD3DXMATRIX@@PAU_D3DVIEWPORT8@@@Z ; COcean::FrameMove
PUBLIC	__real@3f000000
PUBLIC	__real@42000000
EXTRN	__ftol2:NEAR
;	COMDAT __real@3f000000
CONST	SEGMENT
__real@3f000000 DD 03f000000r			; 0.5
CONST	ENDS
;	COMDAT __real@42000000
CONST	SEGMENT
__real@42000000 DD 042000000r			; 32
; Function compile flags: /Odt /RTCsu /ZI
CONST	ENDS
;	COMDAT ?FrameMove@COcean@@QAEJPAUIDirect3DDevice8@@PAVCUserInput@@MPAVCCamera@@PAUD3DXMATRIX@@PAU_D3DVIEWPORT8@@@Z
_TEXT	SEGMENT
_this$ = -8
_pDev$ = 8
_pInput$ = 12
_fFPS$ = 16
_pCamera$ = 20
_pmatProj$ = 24
_pVP$ = 28
?FrameMove@COcean@@QAEJPAUIDirect3DDevice8@@PAVCUserInput@@MPAVCCamera@@PAUD3DXMATRIX@@PAU_D3DVIEWPORT8@@@Z PROC NEAR ; COcean::FrameMove, COMDAT
; _this$ = ecx

; 99   : 	{

  00000	55		 push	 ebp
  00001	8b ec		 mov	 ebp, esp
  00003	81 ec cc 00 00
	00		 sub	 esp, 204		; 000000ccH
  00009	53		 push	 ebx
  0000a	56		 push	 esi
  0000b	57		 push	 edi
  0000c	51		 push	 ecx
  0000d	8d bd 34 ff ff
	ff		 lea	 edi, DWORD PTR [ebp-204]
  00013	b9 33 00 00 00	 mov	 ecx, 51			; 00000033H
  00018	b8 cc cc cc cc	 mov	 eax, -858993460		; ccccccccH
  0001d	f3 ab		 rep stosd
  0001f	59		 pop	 ecx
  00020	89 4d f8	 mov	 DWORD PTR _this$[ebp], ecx

; 100  : 
; 101  : 
; 102  : 		static float fTime = 0.0f ;
; 103  : 
; 104  : 	//
; 105  : 	// Modulate tide height:
; 106  : 	//
; 107  : 		/*m_fTideHeight += 0.2f * (60.0f / fFPS) * m_fTideDirection ;
; 108  : 		if (m_fTideHeight >= m_fTideMaxHeight || m_fTideHeight <= m_fTideMinHeight)
; 109  : 			m_fTideDirection *= -1.0f ;
; 110  : 		D3DXMatrixTranslation(&m_pRO->m_matWorld, 0.0f, m_fTideHeight, 0.0f) ;*/
; 111  : 
; 112  : 	//
; 113  : 	// Rotate caustic texture:
; 114  : 	//
; 115  : 		m_ndxCurTex = (int)((fTime+=(0.5f/fFPS))*32.0f)%31;

  00023	d9 05 00 00 00
	00		 fld	 DWORD PTR __real@3f000000
  00029	d8 75 10	 fdiv	 DWORD PTR _fFPS$[ebp]
  0002c	d8 05 00 00 00
	00		 fadd	 DWORD PTR ?fTime@?1??FrameMove@COcean@@QAEJPAUIDirect3DDevice8@@PAVCUserInput@@MPAVCCamera@@PAUD3DXMATRIX@@PAU_D3DVIEWPORT8@@@Z@4MA
  00032	d9 15 00 00 00
	00		 fst	 DWORD PTR ?fTime@?1??FrameMove@COcean@@QAEJPAUIDirect3DDevice8@@PAVCUserInput@@MPAVCCamera@@PAUD3DXMATRIX@@PAU_D3DVIEWPORT8@@@Z@4MA
  00038	d8 0d 00 00 00
	00		 fmul	 DWORD PTR __real@42000000
  0003e	e8 00 00 00 00	 call	 __ftol2
  00043	99		 cdq
  00044	b9 1f 00 00 00	 mov	 ecx, 31			; 0000001fH
  00049	f7 f9		 idiv	 ecx
  0004b	8b 45 f8	 mov	 eax, DWORD PTR _this$[ebp]
  0004e	89 50 30	 mov	 DWORD PTR [eax+48], edx

; 116  : 		m_pRO->m_ntvRS[0].ndxTex = m_nTex/*CAUSTIC2_TEX_START*/ + m_ndxCurTex ;

  00051	8b 45 f8	 mov	 eax, DWORD PTR _this$[ebp]
  00054	8b 48 1c	 mov	 ecx, DWORD PTR [eax+28]
  00057	8b 55 f8	 mov	 edx, DWORD PTR _this$[ebp]
  0005a	03 4a 30	 add	 ecx, DWORD PTR [edx+48]
  0005d	8b 45 f8	 mov	 eax, DWORD PTR _this$[ebp]
  00060	8b 10		 mov	 edx, DWORD PTR [eax]
  00062	89 4a 28	 mov	 DWORD PTR [edx+40], ecx

; 117  : 
; 118  : 		// move texture offsets
; 119  : 		//
; 120  : 		// should do this with texture animation;
; 121  : 		/*for (int nRS = 0 ; nRS < m_pRO->m_nRSs ; nRS ++)
; 122  : 		{
; 123  : 			LPCOLOREDVERTEX pVerts ;
; 124  : 			if (FAILED(m_pRO->m_ntvRS[nRS].pMesh->LockVertexBuffer(0, (BYTE**)&pVerts)))
; 125  : 			{
; 126  : 				Msg("COcean::FrameMove: FAILED(pMesh->LockVertexBuffer(...)) == TRUE") ;
; 127  : 				return E_FAIL ;
; 128  : 			}
; 129  : 			for (unsigned int i = 0 ; i < m_pRO->m_ntvRS[nRS].dwNumVertices ; i ++)
; 130  : 			{
; 131  : 				COLOREDVERTEX cv ;
; 132  : 				xVec3 v3 ;
; 133  : 				cv = *pVerts ;
; 134  : 				cv.tu1 += (60.0f / fFPS) * m_vTexVel.x * 0.001f ;
; 135  : 				cv.tv1 += (60.0f / fFPS) * m_vTexVel.y * 0.001f ;
; 136  : 				*pVerts = cv ;
; 137  : 				pVerts++ ;
; 138  : 			}
; 139  : 			m_pRO->m_ntvRS[nRS].pMesh->UnlockVertexBuffer() ;
; 140  : 		}
; 141  : 		m_vTexVel.x *= 0.99f ;
; 142  : 		m_vTexVel.y *= 0.99f ;
; 143  : 		if (fabs(m_vTexVel.x) < 0.01f || fabs(m_vTexVel.y) < 0.01f)
; 144  : 			m_vTexVel = xVec2(rnd() - 0.5f, rnd() - 0.5f) ;*/
; 145  : 
; 146  : 		return S_OK ;

  00065	33 c0		 xor	 eax, eax

; 147  : 	}

  00067	5f		 pop	 edi
  00068	5e		 pop	 esi
  00069	5b		 pop	 ebx
  0006a	8b e5		 mov	 esp, ebp
  0006c	5d		 pop	 ebp
  0006d	c2 18 00	 ret	 24			; 00000018H
?FrameMove@COcean@@QAEJPAUIDirect3DDevice8@@PAVCUserInput@@MPAVCCamera@@PAUD3DXMATRIX@@PAU_D3DVIEWPORT8@@@Z ENDP ; COcean::FrameMove
_TEXT	ENDS
PUBLIC	??_H@YGXPAXIHP6EPAX0@Z@Z			; `vector constructor iterator'
PUBLIC	??0D3DXCOLOR@@QAE@MMMM@Z			; D3DXCOLOR::D3DXCOLOR
PUBLIC	??BD3DXCOLOR@@QBEKXZ				; D3DXCOLOR::operator unsigned long
PUBLIC	??0UNCOLOREDVERTEX@@QAE@XZ			; UNCOLOREDVERTEX::UNCOLOREDVERTEX
PUBLIC	?__LINE__Var@?1??Create@COcean@@QAEJXZ@4JA	; `COcean::Create'::`2'::__LINE__Var
PUBLIC	??_C@_09GPIEGEMI@pVertices?$AA@			; `string'
PUBLIC	??_C@_08GANEOFJJ@pIndices?$AA@			; `string'
PUBLIC	__real@40e00000
EXTRN	?AddX7LT@CProceduralRenderObject@@QAEPAUX7LT@@PAUUNCOLOREDVERTEX@@PAK1KKPAM2@Z:NEAR ; CProceduralRenderObject::AddX7LT
EXTRN	_memcpy:NEAR
EXTRN	_free:NEAR
EXTRN	_malloc:NEAR
;	COMDAT ?__LINE__Var@?1??Create@COcean@@QAEJXZ@4JA
_DATA	SEGMENT
?__LINE__Var@?1??Create@COcean@@QAEJXZ@4JA DD 09bH	; `COcean::Create'::`2'::__LINE__Var
_DATA	ENDS
;	COMDAT ??_C@_09GPIEGEMI@pVertices?$AA@
CONST	SEGMENT
??_C@_09GPIEGEMI@pVertices?$AA@ DB 'pVertices', 00H	; `string'
CONST	ENDS
;	COMDAT ??_C@_08GANEOFJJ@pIndices?$AA@
CONST	SEGMENT
??_C@_08GANEOFJJ@pIndices?$AA@ DB 'pIndices', 00H	; `string'
CONST	ENDS
;	COMDAT __real@40e00000
CONST	SEGMENT
__real@40e00000 DD 040e00000r			; 7
; Function compile flags: /Odt /RTCsu /ZI
CONST	ENDS
;	COMDAT ?Create@COcean@@QAEJXZ
_TEXT	SEGMENT
$T85624 = -568
_fTV2$85516 = -352
_fTU2$85515 = -332
_s$85513 = -312
_c$85512 = -292
_v$85507 = -272
_i$85503 = -164
_fY$85496 = -152
_fX$85495 = -140
_x$85491 = -128
_y$85487 = -116
_nIndex$ = -104
_nVert$ = -92
_t$ = -80
_SQ$ = -68
_dwNumIndices$ = -56
_pIndices$ = -44
_dwNumVertices$ = -32
_pVertices$ = -20
_this$ = -8
?Create@COcean@@QAEJXZ PROC NEAR			; COcean::Create, COMDAT
; _this$ = ecx

; 155  : 	{

  00000	55		 push	 ebp
  00001	8b ec		 mov	 ebp, esp
  00003	81 ec 3c 02 00
	00		 sub	 esp, 572		; 0000023cH
  00009	53		 push	 ebx
  0000a	56		 push	 esi
  0000b	57		 push	 edi
  0000c	51		 push	 ecx
  0000d	8d bd c4 fd ff
	ff		 lea	 edi, DWORD PTR [ebp-572]
  00013	b9 8f 00 00 00	 mov	 ecx, 143		; 0000008fH
  00018	b8 cc cc cc cc	 mov	 eax, -858993460		; ccccccccH
  0001d	f3 ab		 rep stosd
  0001f	59		 pop	 ecx
  00020	89 4d f8	 mov	 DWORD PTR _this$[ebp], ecx

; 156  : 		UNCOLOREDVERTEX *pVertices ;
; 157  : 		DWORD	         dwNumVertices ;
; 158  : 		WORD			*pIndices ;
; 159  : 		DWORD			 dwNumIndices ;
; 160  : 
; 161  : 	//
; 162  : 	// Allocate and create geom.
; 163  : 	//
; 164  : 		/*dwNumVertices = 4 ;
; 165  : 		pVertices = (UNCOLOREDVERTEX*)malloc(sizeof(UNCOLOREDVERTEX) * dwNumVertices) ;
; 166  : 		if (!pVertices)
; 167  : 		{
; 168  : 			Msg("COcean::Create: malloc[1] == NULL") ;
; 169  : 			return E_FAIL ;
; 170  : 		}
; 171  : 		dwNumIndices = 6 ;
; 172  : 		pIndices = (WORD*)malloc(sizeof(WORD) * dwNumIndices) ;
; 173  : 		if (!pIndices)
; 174  : 		{
; 175  : 			Msg("COcean::Create: malloc[2] == NULL") ;
; 176  : 			return E_FAIL ;
; 177  : 		}
; 178  : 		// single quad
; 179  : 		float t = 150.0f ;
; 180  : 		pVertices[0].x = -0.5f ; pVertices[0].y = +0.0f ; pVertices[0].z = -0.5f ; pVertices[0].tu1 = 0.00f * t ; pVertices[0].tv1 = 1.00f * t  ;
; 181  : 		pVertices[1].x = +0.5f ; pVertices[1].y = +0.0f ; pVertices[1].z = -0.5f ; pVertices[1].tu1 = 0.00f * t ; pVertices[1].tv1 = 0.00f * t  ;
; 182  : 		pVertices[2].x = -0.5f ; pVertices[2].y = +0.0f ; pVertices[2].z = +0.5f ; pVertices[2].tu1 = 1.00f * t ; pVertices[2].tv1 = 1.00f * t  ;
; 183  : 		pVertices[3].x = +0.5f ; pVertices[3].y = +0.0f ; pVertices[3].z = +0.5f ; pVertices[3].tu1 = 1.00f * t ; pVertices[3].tv1 = 0.00f * t  ;
; 184  : 		pIndices[0] = 0 ; pIndices[1] = 1 ; pIndices[2] = 2 ;
; 185  : 		pIndices[3] = 1 ; pIndices[4] = 2 ; pIndices[5] = 3 ;*/
; 186  : 
; 187  : 		const int SQ = 8 ;

  00023	c7 45 bc 08 00
	00 00		 mov	 DWORD PTR _SQ$[ebp], 8

; 188  : 		float t = 150.0f ;

  0002a	c7 45 b0 00 00
	16 43		 mov	 DWORD PTR _t$[ebp], 1125515264 ; 43160000H

; 189  : 		dwNumVertices = SQ * SQ ;

  00031	c7 45 e0 40 00
	00 00		 mov	 DWORD PTR _dwNumVertices$[ebp], 64 ; 00000040H

; 190  : 		pVertices = (UNCOLOREDVERTEX*)malloc(sizeof(UNCOLOREDVERTEX) * dwNumVertices) ;

  00038	8b 45 e0	 mov	 eax, DWORD PTR _dwNumVertices$[ebp]
  0003b	c1 e0 05	 shl	 eax, 5
  0003e	50		 push	 eax
  0003f	e8 00 00 00 00	 call	 _malloc
  00044	83 c4 04	 add	 esp, 4
  00047	89 45 ec	 mov	 DWORD PTR _pVertices$[ebp], eax

; 191  : 		assert( pVertices );

  0004a	83 7d ec 00	 cmp	 DWORD PTR _pVertices$[ebp], 0
  0004e	75 1b		 jne	 SHORT $L85622
  00050	a1 00 00 00 00	 mov	 eax, DWORD PTR ?__LINE__Var@?1??Create@COcean@@QAEJXZ@4JA
  00055	83 c0 24	 add	 eax, 36			; 00000024H
  00058	50		 push	 eax
  00059	68 00 00 00 00	 push	 OFFSET FLAT:??_C@_0EI@MKCDFFBE@c?3?2documents?5and?5settings?2dom?2my@
  0005e	68 00 00 00 00	 push	 OFFSET FLAT:??_C@_09GPIEGEMI@pVertices?$AA@
  00063	e8 00 00 00 00	 call	 __assert
  00068	83 c4 0c	 add	 esp, 12			; 0000000cH
$L85622:

; 192  : 
; 193  : 		dwNumIndices = (SQ - 1) * (SQ - 1) * 2 * 3 ;

  0006b	c7 45 c8 26 01
	00 00		 mov	 DWORD PTR _dwNumIndices$[ebp], 294 ; 00000126H

; 194  : 		pIndices = (WORD*)malloc(sizeof(WORD) * dwNumIndices) ;

  00072	8b 45 c8	 mov	 eax, DWORD PTR _dwNumIndices$[ebp]
  00075	d1 e0		 shl	 eax, 1
  00077	50		 push	 eax
  00078	e8 00 00 00 00	 call	 _malloc
  0007d	83 c4 04	 add	 esp, 4
  00080	89 45 d4	 mov	 DWORD PTR _pIndices$[ebp], eax

; 195  : 		assert( pIndices );

  00083	83 7d d4 00	 cmp	 DWORD PTR _pIndices$[ebp], 0
  00087	75 1b		 jne	 SHORT $L85623
  00089	a1 00 00 00 00	 mov	 eax, DWORD PTR ?__LINE__Var@?1??Create@COcean@@QAEJXZ@4JA
  0008e	83 c0 28	 add	 eax, 40			; 00000028H
  00091	50		 push	 eax
  00092	68 00 00 00 00	 push	 OFFSET FLAT:??_C@_0EI@MKCDFFBE@c?3?2documents?5and?5settings?2dom?2my@
  00097	68 00 00 00 00	 push	 OFFSET FLAT:??_C@_08GANEOFJJ@pIndices?$AA@
  0009c	e8 00 00 00 00	 call	 __assert
  000a1	83 c4 0c	 add	 esp, 12			; 0000000cH
$L85623:

; 196  : 
; 197  : 		int nVert = 0, nIndex = 0 ;

  000a4	c7 45 a4 00 00
	00 00		 mov	 DWORD PTR _nVert$[ebp], 0
  000ab	c7 45 98 00 00
	00 00		 mov	 DWORD PTR _nIndex$[ebp], 0

; 198  : 		for (int y = 0 ; y < SQ ; y ++)

  000b2	c7 45 8c 00 00
	00 00		 mov	 DWORD PTR _y$85487[ebp], 0
  000b9	eb 09		 jmp	 SHORT $L85488
$L85489:
  000bb	8b 45 8c	 mov	 eax, DWORD PTR _y$85487[ebp]
  000be	83 c0 01	 add	 eax, 1
  000c1	89 45 8c	 mov	 DWORD PTR _y$85487[ebp], eax
$L85488:
  000c4	83 7d 8c 08	 cmp	 DWORD PTR _y$85487[ebp], 8
  000c8	0f 8d 65 01 00
	00		 jge	 $L85490

; 199  : 		{
; 200  : 			for (int x = 0 ; x < SQ ; x ++)

  000ce	c7 45 80 00 00
	00 00		 mov	 DWORD PTR _x$85491[ebp], 0
  000d5	eb 09		 jmp	 SHORT $L85492
$L85493:
  000d7	8b 45 80	 mov	 eax, DWORD PTR _x$85491[ebp]
  000da	83 c0 01	 add	 eax, 1
  000dd	89 45 80	 mov	 DWORD PTR _x$85491[ebp], eax
$L85492:
  000e0	83 7d 80 08	 cmp	 DWORD PTR _x$85491[ebp], 8
  000e4	0f 8d 44 01 00
	00		 jge	 $L85494

; 201  : 			{
; 202  : 				// build verts
; 203  : 				float fX, fY ;
; 204  : 				fX = (float)x / (float)(SQ - 1) ;

  000ea	db 45 80	 fild	 DWORD PTR _x$85491[ebp]
  000ed	d8 35 00 00 00
	00		 fdiv	 DWORD PTR __real@40e00000
  000f3	d9 9d 74 ff ff
	ff		 fstp	 DWORD PTR _fX$85495[ebp]

; 205  : 				fY = (float)y / (float)(SQ - 1) ;

  000f9	db 45 8c	 fild	 DWORD PTR _y$85487[ebp]
  000fc	d8 35 00 00 00
	00		 fdiv	 DWORD PTR __real@40e00000
  00102	d9 9d 68 ff ff
	ff		 fstp	 DWORD PTR _fY$85496[ebp]

; 206  : 				pVertices[nVert].tu1 = fX * t ;

  00108	d9 85 74 ff ff
	ff		 fld	 DWORD PTR _fX$85495[ebp]
  0010e	d8 4d b0	 fmul	 DWORD PTR _t$[ebp]
  00111	8b 45 a4	 mov	 eax, DWORD PTR _nVert$[ebp]
  00114	c1 e0 05	 shl	 eax, 5
  00117	8b 4d ec	 mov	 ecx, DWORD PTR _pVertices$[ebp]
  0011a	d9 5c 01 18	 fstp	 DWORD PTR [ecx+eax+24]

; 207  : 				pVertices[nVert].tv1 = fY * t ;

  0011e	d9 85 68 ff ff
	ff		 fld	 DWORD PTR _fY$85496[ebp]
  00124	d8 4d b0	 fmul	 DWORD PTR _t$[ebp]
  00127	8b 45 a4	 mov	 eax, DWORD PTR _nVert$[ebp]
  0012a	c1 e0 05	 shl	 eax, 5
  0012d	8b 4d ec	 mov	 ecx, DWORD PTR _pVertices$[ebp]
  00130	d9 5c 01 1c	 fstp	 DWORD PTR [ecx+eax+28]

; 208  : 				pVertices[nVert].x = fX - 0.5f ;

  00134	d9 85 74 ff ff
	ff		 fld	 DWORD PTR _fX$85495[ebp]
  0013a	d8 25 00 00 00
	00		 fsub	 DWORD PTR __real@3f000000
  00140	8b 45 a4	 mov	 eax, DWORD PTR _nVert$[ebp]
  00143	c1 e0 05	 shl	 eax, 5
  00146	8b 4d ec	 mov	 ecx, DWORD PTR _pVertices$[ebp]
  00149	d9 1c 01	 fstp	 DWORD PTR [ecx+eax]

; 209  : 				pVertices[nVert].y = 0.0f ;

  0014c	8b 45 a4	 mov	 eax, DWORD PTR _nVert$[ebp]
  0014f	c1 e0 05	 shl	 eax, 5
  00152	8b 4d ec	 mov	 ecx, DWORD PTR _pVertices$[ebp]
  00155	c7 44 01 04 00
	00 00 00	 mov	 DWORD PTR [ecx+eax+4], 0

; 210  : 				pVertices[nVert].z = fY - 0.5f ;

  0015d	d9 85 68 ff ff
	ff		 fld	 DWORD PTR _fY$85496[ebp]
  00163	d8 25 00 00 00
	00		 fsub	 DWORD PTR __real@3f000000
  00169	8b 45 a4	 mov	 eax, DWORD PTR _nVert$[ebp]
  0016c	c1 e0 05	 shl	 eax, 5
  0016f	8b 4d ec	 mov	 ecx, DWORD PTR _pVertices$[ebp]
  00172	d9 5c 01 08	 fstp	 DWORD PTR [ecx+eax+8]

; 211  : 				
; 212  : 				// build indices
; 213  : 				if (x < SQ - 1 && y < SQ - 1)

  00176	83 7d 80 07	 cmp	 DWORD PTR _x$85491[ebp], 7
  0017a	7d 4f		 jge	 SHORT $L85501
  0017c	83 7d 8c 07	 cmp	 DWORD PTR _y$85487[ebp], 7
  00180	7d 49		 jge	 SHORT $L85501

; 214  : 				{
; 215  : 					pIndices[nIndex++] = nVert ;

  00182	8b 45 98	 mov	 eax, DWORD PTR _nIndex$[ebp]
  00185	8b 4d d4	 mov	 ecx, DWORD PTR _pIndices$[ebp]
  00188	66 8b 55 a4	 mov	 dx, WORD PTR _nVert$[ebp]
  0018c	66 89 14 41	 mov	 WORD PTR [ecx+eax*2], dx
  00190	8b 45 98	 mov	 eax, DWORD PTR _nIndex$[ebp]
  00193	83 c0 01	 add	 eax, 1
  00196	89 45 98	 mov	 DWORD PTR _nIndex$[ebp], eax

; 216  : 					pIndices[nIndex++] = nVert + 1 ;

  00199	8b 45 a4	 mov	 eax, DWORD PTR _nVert$[ebp]
  0019c	83 c0 01	 add	 eax, 1
  0019f	8b 4d 98	 mov	 ecx, DWORD PTR _nIndex$[ebp]
  001a2	8b 55 d4	 mov	 edx, DWORD PTR _pIndices$[ebp]
  001a5	66 89 04 4a	 mov	 WORD PTR [edx+ecx*2], ax
  001a9	8b 45 98	 mov	 eax, DWORD PTR _nIndex$[ebp]
  001ac	83 c0 01	 add	 eax, 1
  001af	89 45 98	 mov	 DWORD PTR _nIndex$[ebp], eax

; 217  : 					pIndices[nIndex++] = nVert + SQ ;

  001b2	8b 45 a4	 mov	 eax, DWORD PTR _nVert$[ebp]
  001b5	83 c0 08	 add	 eax, 8
  001b8	8b 4d 98	 mov	 ecx, DWORD PTR _nIndex$[ebp]
  001bb	8b 55 d4	 mov	 edx, DWORD PTR _pIndices$[ebp]
  001be	66 89 04 4a	 mov	 WORD PTR [edx+ecx*2], ax
  001c2	8b 45 98	 mov	 eax, DWORD PTR _nIndex$[ebp]
  001c5	83 c0 01	 add	 eax, 1
  001c8	89 45 98	 mov	 DWORD PTR _nIndex$[ebp], eax
$L85501:

; 218  : 				}
; 219  : 				if (x < SQ - 1 && y > 0)

  001cb	83 7d 80 07	 cmp	 DWORD PTR _x$85491[ebp], 7
  001cf	7d 4f		 jge	 SHORT $L85502
  001d1	83 7d 8c 00	 cmp	 DWORD PTR _y$85487[ebp], 0
  001d5	7e 49		 jle	 SHORT $L85502

; 220  : 				{
; 221  : 					pIndices[nIndex++] = nVert ;

  001d7	8b 45 98	 mov	 eax, DWORD PTR _nIndex$[ebp]
  001da	8b 4d d4	 mov	 ecx, DWORD PTR _pIndices$[ebp]
  001dd	66 8b 55 a4	 mov	 dx, WORD PTR _nVert$[ebp]
  001e1	66 89 14 41	 mov	 WORD PTR [ecx+eax*2], dx
  001e5	8b 45 98	 mov	 eax, DWORD PTR _nIndex$[ebp]
  001e8	83 c0 01	 add	 eax, 1
  001eb	89 45 98	 mov	 DWORD PTR _nIndex$[ebp], eax

; 222  : 					pIndices[nIndex++] = nVert + 1 ;

  001ee	8b 45 a4	 mov	 eax, DWORD PTR _nVert$[ebp]
  001f1	83 c0 01	 add	 eax, 1
  001f4	8b 4d 98	 mov	 ecx, DWORD PTR _nIndex$[ebp]
  001f7	8b 55 d4	 mov	 edx, DWORD PTR _pIndices$[ebp]
  001fa	66 89 04 4a	 mov	 WORD PTR [edx+ecx*2], ax
  001fe	8b 45 98	 mov	 eax, DWORD PTR _nIndex$[ebp]
  00201	83 c0 01	 add	 eax, 1
  00204	89 45 98	 mov	 DWORD PTR _nIndex$[ebp], eax

; 223  : 					pIndices[nIndex++] = nVert + 1 - SQ ;

  00207	8b 45 a4	 mov	 eax, DWORD PTR _nVert$[ebp]
  0020a	83 e8 07	 sub	 eax, 7
  0020d	8b 4d 98	 mov	 ecx, DWORD PTR _nIndex$[ebp]
  00210	8b 55 d4	 mov	 edx, DWORD PTR _pIndices$[ebp]
  00213	66 89 04 4a	 mov	 WORD PTR [edx+ecx*2], ax
  00217	8b 45 98	 mov	 eax, DWORD PTR _nIndex$[ebp]
  0021a	83 c0 01	 add	 eax, 1
  0021d	89 45 98	 mov	 DWORD PTR _nIndex$[ebp], eax
$L85502:

; 224  : 				}
; 225  : 				
; 226  : 				nVert++ ;

  00220	8b 45 a4	 mov	 eax, DWORD PTR _nVert$[ebp]
  00223	83 c0 01	 add	 eax, 1
  00226	89 45 a4	 mov	 DWORD PTR _nVert$[ebp], eax

; 227  : 			}

  00229	e9 a9 fe ff ff	 jmp	 $L85493
$L85494:

; 228  : 		}

  0022e	e9 88 fe ff ff	 jmp	 $L85489
$L85490:

; 229  : 		
; 230  : 	//
; 231  : 	// xfer vertex data to underlying RenderObject:
; 232  : 	//
; 233  : 		/*float r = rnd(), g = rnd(), b = rnd() ;*/
; 234  : 
; 235  : 		for (unsigned i = 0 ; i < dwNumIndices ; i += 3)

  00233	c7 85 5c ff ff
	ff 00 00 00 00	 mov	 DWORD PTR _i$85503[ebp], 0
  0023d	eb 0f		 jmp	 SHORT $L85504
$L85505:
  0023f	8b 85 5c ff ff
	ff		 mov	 eax, DWORD PTR _i$85503[ebp]
  00245	83 c0 03	 add	 eax, 3
  00248	89 85 5c ff ff
	ff		 mov	 DWORD PTR _i$85503[ebp], eax
$L85504:
  0024e	8b 85 5c ff ff
	ff		 mov	 eax, DWORD PTR _i$85503[ebp]
  00254	3b 45 c8	 cmp	 eax, DWORD PTR _dwNumIndices$[ebp]
  00257	0f 83 7a 01 00
	00		 jae	 $L85506

; 236  : 		{
; 237  : 			UNCOLOREDVERTEX v[3] ;

  0025d	68 00 00 00 00	 push	 OFFSET FLAT:??0UNCOLOREDVERTEX@@QAE@XZ ; UNCOLOREDVERTEX::UNCOLOREDVERTEX
  00262	6a 03		 push	 3
  00264	6a 20		 push	 32			; 00000020H
  00266	8d 85 f0 fe ff
	ff		 lea	 eax, DWORD PTR _v$85507[ebp]
  0026c	50		 push	 eax
  0026d	e8 00 00 00 00	 call	 ??_H@YGXPAXIHP6EPAX0@Z@Z

; 238  : 			memcpy(&v[0], &pVertices[pIndices[i+0]], sizeof(UNCOLOREDVERTEX)) ;

  00272	6a 20		 push	 32			; 00000020H
  00274	8b 85 5c ff ff
	ff		 mov	 eax, DWORD PTR _i$85503[ebp]
  0027a	8b 4d d4	 mov	 ecx, DWORD PTR _pIndices$[ebp]
  0027d	0f b7 14 41	 movzx	 edx, WORD PTR [ecx+eax*2]
  00281	c1 e2 05	 shl	 edx, 5
  00284	8b 45 ec	 mov	 eax, DWORD PTR _pVertices$[ebp]
  00287	03 c2		 add	 eax, edx
  00289	50		 push	 eax
  0028a	8d 8d f0 fe ff
	ff		 lea	 ecx, DWORD PTR _v$85507[ebp]
  00290	51		 push	 ecx
  00291	e8 00 00 00 00	 call	 _memcpy
  00296	83 c4 0c	 add	 esp, 12			; 0000000cH

; 239  : 			memcpy(&v[1], &pVertices[pIndices[i+1]], sizeof(UNCOLOREDVERTEX)) ;

  00299	6a 20		 push	 32			; 00000020H
  0029b	8b 85 5c ff ff
	ff		 mov	 eax, DWORD PTR _i$85503[ebp]
  002a1	8b 4d d4	 mov	 ecx, DWORD PTR _pIndices$[ebp]
  002a4	0f b7 54 41 02	 movzx	 edx, WORD PTR [ecx+eax*2+2]
  002a9	c1 e2 05	 shl	 edx, 5
  002ac	8b 45 ec	 mov	 eax, DWORD PTR _pVertices$[ebp]
  002af	03 c2		 add	 eax, edx
  002b1	50		 push	 eax
  002b2	8d 8d 10 ff ff
	ff		 lea	 ecx, DWORD PTR _v$85507[ebp+32]
  002b8	51		 push	 ecx
  002b9	e8 00 00 00 00	 call	 _memcpy
  002be	83 c4 0c	 add	 esp, 12			; 0000000cH

; 240  : 			memcpy(&v[2], &pVertices[pIndices[i+2]], sizeof(UNCOLOREDVERTEX)) ;

  002c1	6a 20		 push	 32			; 00000020H
  002c3	8b 85 5c ff ff
	ff		 mov	 eax, DWORD PTR _i$85503[ebp]
  002c9	8b 4d d4	 mov	 ecx, DWORD PTR _pIndices$[ebp]
  002cc	0f b7 54 41 04	 movzx	 edx, WORD PTR [ecx+eax*2+4]
  002d1	c1 e2 05	 shl	 edx, 5
  002d4	8b 45 ec	 mov	 eax, DWORD PTR _pVertices$[ebp]
  002d7	03 c2		 add	 eax, edx
  002d9	50		 push	 eax
  002da	8d 8d 30 ff ff
	ff		 lea	 ecx, DWORD PTR _v$85507[ebp+64]
  002e0	51		 push	 ecx
  002e1	e8 00 00 00 00	 call	 _memcpy
  002e6	83 c4 0c	 add	 esp, 12			; 0000000cH

; 241  : 			
; 242  : 			D3DCOLOR c[3] ;
; 243  : 			D3DCOLOR s[3] ;
; 244  : 			c[ 0 ] = c[ 1 ] = c[ 2 ] = /*D3DXCOLOR( 1, 0, 0, 0.5f );*/	m_Colour ;

  002e9	8b 4d f8	 mov	 ecx, DWORD PTR _this$[ebp]
  002ec	83 c1 20	 add	 ecx, 32			; 00000020H
  002ef	e8 00 00 00 00	 call	 ??BD3DXCOLOR@@QBEKXZ	; D3DXCOLOR::operator unsigned long
  002f4	89 85 e4 fe ff
	ff		 mov	 DWORD PTR _c$85512[ebp+8], eax
  002fa	8b 85 e4 fe ff
	ff		 mov	 eax, DWORD PTR _c$85512[ebp+8]
  00300	89 85 e0 fe ff
	ff		 mov	 DWORD PTR _c$85512[ebp+4], eax
  00306	8b 8d e0 fe ff
	ff		 mov	 ecx, DWORD PTR _c$85512[ebp+4]
  0030c	89 8d dc fe ff
	ff		 mov	 DWORD PTR _c$85512[ebp], ecx

; 245  : 			s[ 0 ] = s[ 1 ] = s[ 2 ] = D3DXCOLOR( 1, 1, 1, 0 );	

  00312	6a 00		 push	 0
  00314	68 00 00 80 3f	 push	 1065353216		; 3f800000H
  00319	68 00 00 80 3f	 push	 1065353216		; 3f800000H
  0031e	68 00 00 80 3f	 push	 1065353216		; 3f800000H
  00323	8d 8d c8 fd ff
	ff		 lea	 ecx, DWORD PTR $T85624[ebp]
  00329	e8 00 00 00 00	 call	 ??0D3DXCOLOR@@QAE@MMMM@Z ; D3DXCOLOR::D3DXCOLOR
  0032e	8b c8		 mov	 ecx, eax
  00330	e8 00 00 00 00	 call	 ??BD3DXCOLOR@@QBEKXZ	; D3DXCOLOR::operator unsigned long
  00335	89 85 d0 fe ff
	ff		 mov	 DWORD PTR _s$85513[ebp+8], eax
  0033b	8b 85 d0 fe ff
	ff		 mov	 eax, DWORD PTR _s$85513[ebp+8]
  00341	89 85 cc fe ff
	ff		 mov	 DWORD PTR _s$85513[ebp+4], eax
  00347	8b 8d cc fe ff
	ff		 mov	 ecx, DWORD PTR _s$85513[ebp+4]
  0034d	89 8d c8 fe ff
	ff		 mov	 DWORD PTR _s$85513[ebp], ecx

; 246  : 
; 247  : 			float fTU2[3], fTV2[3] ;
; 248  : 			fTU2[0] = v[0].tu1 ; fTV2[0] = v[0].tv1 ;

  00353	8b 85 08 ff ff
	ff		 mov	 eax, DWORD PTR _v$85507[ebp+24]
  00359	89 85 b4 fe ff
	ff		 mov	 DWORD PTR _fTU2$85515[ebp], eax
  0035f	8b 85 0c ff ff
	ff		 mov	 eax, DWORD PTR _v$85507[ebp+28]
  00365	89 85 a0 fe ff
	ff		 mov	 DWORD PTR _fTV2$85516[ebp], eax

; 249  : 			fTU2[1] = v[1].tu1 ; fTV2[1] = v[1].tv1 ;

  0036b	8b 85 28 ff ff
	ff		 mov	 eax, DWORD PTR _v$85507[ebp+56]
  00371	89 85 b8 fe ff
	ff		 mov	 DWORD PTR _fTU2$85515[ebp+4], eax
  00377	8b 85 2c ff ff
	ff		 mov	 eax, DWORD PTR _v$85507[ebp+60]
  0037d	89 85 a4 fe ff
	ff		 mov	 DWORD PTR _fTV2$85516[ebp+4], eax

; 250  : 			fTU2[2] = v[2].tu1 ; fTV2[2] = v[2].tv1 ;

  00383	8b 85 48 ff ff
	ff		 mov	 eax, DWORD PTR _v$85507[ebp+88]
  00389	89 85 bc fe ff
	ff		 mov	 DWORD PTR _fTU2$85515[ebp+8], eax
  0038f	8b 85 4c ff ff
	ff		 mov	 eax, DWORD PTR _v$85507[ebp+92]
  00395	89 85 a8 fe ff
	ff		 mov	 DWORD PTR _fTV2$85516[ebp+8], eax

; 251  : 
; 252  : 			if (m_pRO->AddX7LT( v,
; 253  : 								&c[0],
; 254  : 								&s[0],
; 255  : 								/*CAUSTIC2_TEX_START*/m_nTex + 0,
; 256  : 								NULL/*TRACK_TEX_START + 1*/,
; 257  : 								NULL/*fTU2*/,
; 258  : 								NULL/*fTV*/
; 259  : 							   ) == NULL)

  0039b	6a 00		 push	 0
  0039d	6a 00		 push	 0
  0039f	6a 00		 push	 0
  003a1	8b 45 f8	 mov	 eax, DWORD PTR _this$[ebp]
  003a4	8b 48 1c	 mov	 ecx, DWORD PTR [eax+28]
  003a7	51		 push	 ecx
  003a8	8d 95 c8 fe ff
	ff		 lea	 edx, DWORD PTR _s$85513[ebp]
  003ae	52		 push	 edx
  003af	8d 85 dc fe ff
	ff		 lea	 eax, DWORD PTR _c$85512[ebp]
  003b5	50		 push	 eax
  003b6	8d 8d f0 fe ff
	ff		 lea	 ecx, DWORD PTR _v$85507[ebp]
  003bc	51		 push	 ecx
  003bd	8b 55 f8	 mov	 edx, DWORD PTR _this$[ebp]
  003c0	8b 0a		 mov	 ecx, DWORD PTR [edx]
  003c2	e8 00 00 00 00	 call	 ?AddX7LT@CProceduralRenderObject@@QAEPAUX7LT@@PAUUNCOLOREDVERTEX@@PAK1KKPAM2@Z ; CProceduralRenderObject::AddX7LT
  003c7	85 c0		 test	 eax, eax
  003c9	75 07		 jne	 SHORT $L85517

; 260  : 				return E_FAIL ;

  003cb	b8 05 40 00 80	 mov	 eax, -2147467259	; 80004005H
  003d0	eb 1f		 jmp	 SHORT $L85469
$L85517:

; 261  : 		}

  003d2	e9 68 fe ff ff	 jmp	 $L85505
$L85506:

; 262  : 
; 263  : 	//
; 264  : 	// Release mem.:
; 265  : 	//
; 266  : 		free( pVertices );

  003d7	8b 45 ec	 mov	 eax, DWORD PTR _pVertices$[ebp]
  003da	50		 push	 eax
  003db	e8 00 00 00 00	 call	 _free
  003e0	83 c4 04	 add	 esp, 4

; 267  : 		free( pIndices );

  003e3	8b 45 d4	 mov	 eax, DWORD PTR _pIndices$[ebp]
  003e6	50		 push	 eax
  003e7	e8 00 00 00 00	 call	 _free
  003ec	83 c4 04	 add	 esp, 4

; 268  : 
; 269  : 		return S_OK ;

  003ef	33 c0		 xor	 eax, eax
$L85469:

; 270  : 	}

  003f1	52		 push	 edx
  003f2	8b cd		 mov	 ecx, ebp
  003f4	50		 push	 eax
  003f5	8d 15 00 00 00
	00		 lea	 edx, DWORD PTR $L85633
  003fb	e8 00 00 00 00	 call	 @_RTC_CheckStackVars@8
  00400	58		 pop	 eax
  00401	5a		 pop	 edx
  00402	5f		 pop	 edi
  00403	5e		 pop	 esi
  00404	5b		 pop	 ebx
  00405	81 c4 3c 02 00
	00		 add	 esp, 572		; 0000023cH
  0040b	3b ec		 cmp	 ebp, esp
  0040d	e8 00 00 00 00	 call	 __RTC_CheckEsp
  00412	8b e5		 mov	 esp, ebp
  00414	5d		 pop	 ebp
  00415	c3		 ret	 0
$L85633:
  00416	05 00 00 00	 DD	 5
  0041a	00 00 00 00	 DD	 $L85632
$L85632:
  0041e	f0 fe ff ff	 DD	 -272			; fffffef0H
  00422	60 00 00 00	 DD	 96			; 00000060H
  00426	00 00 00 00	 DD	 $L85627
  0042a	dc fe ff ff	 DD	 -292			; fffffedcH
  0042e	0c 00 00 00	 DD	 12			; 0000000cH
  00432	00 00 00 00	 DD	 $L85628
  00436	c8 fe ff ff	 DD	 -312			; fffffec8H
  0043a	0c 00 00 00	 DD	 12			; 0000000cH
  0043e	00 00 00 00	 DD	 $L85629
  00442	b4 fe ff ff	 DD	 -332			; fffffeb4H
  00446	0c 00 00 00	 DD	 12			; 0000000cH
  0044a	00 00 00 00	 DD	 $L85630
  0044e	a0 fe ff ff	 DD	 -352			; fffffea0H
  00452	0c 00 00 00	 DD	 12			; 0000000cH
  00456	00 00 00 00	 DD	 $L85631
$L85631:
  0045a	66		 DB	 102			; 00000066H
  0045b	54		 DB	 84			; 00000054H
  0045c	56		 DB	 86			; 00000056H
  0045d	32		 DB	 50			; 00000032H
  0045e	00		 DB	 0
$L85630:
  0045f	66		 DB	 102			; 00000066H
  00460	54		 DB	 84			; 00000054H
  00461	55		 DB	 85			; 00000055H
  00462	32		 DB	 50			; 00000032H
  00463	00		 DB	 0
$L85629:
  00464	73		 DB	 115			; 00000073H
  00465	00		 DB	 0
$L85628:
  00466	63		 DB	 99			; 00000063H
  00467	00		 DB	 0
$L85627:
  00468	76		 DB	 118			; 00000076H
  00469	00		 DB	 0
?Create@COcean@@QAEJXZ ENDP				; COcean::Create
; Function compile flags: /Odt /RTCsu /ZI
_TEXT	ENDS
;	COMDAT ??_H@YGXPAXIHP6EPAX0@Z@Z
_TEXT	SEGMENT
___t$ = 8
___s$ = 12
___n$ = 16
___f$ = 20
??_H@YGXPAXIHP6EPAX0@Z@Z PROC NEAR			; `vector constructor iterator', COMDAT
  00000	55		 push	 ebp
  00001	8b ec		 mov	 ebp, esp
  00003	81 ec c0 00 00
	00		 sub	 esp, 192		; 000000c0H
  00009	53		 push	 ebx
  0000a	56		 push	 esi
  0000b	57		 push	 edi
  0000c	8d bd 40 ff ff
	ff		 lea	 edi, DWORD PTR [ebp-192]
  00012	b9 30 00 00 00	 mov	 ecx, 48			; 00000030H
  00017	b8 cc cc cc cc	 mov	 eax, -858993460		; ccccccccH
  0001c	f3 ab		 rep stosd
$L85528:
  0001e	8b 45 10	 mov	 eax, DWORD PTR ___n$[ebp]
  00021	83 e8 01	 sub	 eax, 1
  00024	89 45 10	 mov	 DWORD PTR ___n$[ebp], eax
  00027	83 7d 10 00	 cmp	 DWORD PTR ___n$[ebp], 0
  0002b	7c 1a		 jl	 SHORT $L85526
  0002d	8b f4		 mov	 esi, esp
  0002f	8b 4d 08	 mov	 ecx, DWORD PTR ___t$[ebp]
  00032	ff 55 14	 call	 DWORD PTR ___f$[ebp]
  00035	3b f4		 cmp	 esi, esp
  00037	e8 00 00 00 00	 call	 __RTC_CheckEsp
  0003c	8b 45 08	 mov	 eax, DWORD PTR ___t$[ebp]
  0003f	03 45 0c	 add	 eax, DWORD PTR ___s$[ebp]
  00042	89 45 08	 mov	 DWORD PTR ___t$[ebp], eax
  00045	eb d7		 jmp	 SHORT $L85528
$L85526:
  00047	5f		 pop	 edi
  00048	5e		 pop	 esi
  00049	5b		 pop	 ebx
  0004a	81 c4 c0 00 00
	00		 add	 esp, 192		; 000000c0H
  00050	3b ec		 cmp	 ebp, esp
  00052	e8 00 00 00 00	 call	 __RTC_CheckEsp
  00057	8b e5		 mov	 esp, ebp
  00059	5d		 pop	 ebp
  0005a	c2 10 00	 ret	 16			; 00000010H
??_H@YGXPAXIHP6EPAX0@Z@Z ENDP				; `vector constructor iterator'
; Function compile flags: /Odt /RTCsu /ZI
; File c:\dxsdk\include\d3dx8math.h
_TEXT	ENDS
;	COMDAT ??0D3DXVECTOR2@@QAE@XZ
_TEXT	SEGMENT
_this$ = -8
??0D3DXVECTOR2@@QAE@XZ PROC NEAR			; D3DXVECTOR2::D3DXVECTOR2, COMDAT
; _this$ = ecx

; 46   :     D3DXVECTOR2() {};

  00000	55		 push	 ebp
  00001	8b ec		 mov	 ebp, esp
  00003	81 ec cc 00 00
	00		 sub	 esp, 204		; 000000ccH
  00009	53		 push	 ebx
  0000a	56		 push	 esi
  0000b	57		 push	 edi
  0000c	51		 push	 ecx
  0000d	8d bd 34 ff ff
	ff		 lea	 edi, DWORD PTR [ebp-204]
  00013	b9 33 00 00 00	 mov	 ecx, 51			; 00000033H
  00018	b8 cc cc cc cc	 mov	 eax, -858993460		; ccccccccH
  0001d	f3 ab		 rep stosd
  0001f	59		 pop	 ecx
  00020	89 4d f8	 mov	 DWORD PTR _this$[ebp], ecx
  00023	8b 45 f8	 mov	 eax, DWORD PTR _this$[ebp]
  00026	5f		 pop	 edi
  00027	5e		 pop	 esi
  00028	5b		 pop	 ebx
  00029	8b e5		 mov	 esp, ebp
  0002b	5d		 pop	 ebp
  0002c	c3		 ret	 0
??0D3DXVECTOR2@@QAE@XZ ENDP				; D3DXVECTOR2::D3DXVECTOR2
; Function compile flags: /Odt /RTCsu /ZI
_TEXT	ENDS
;	COMDAT ??0D3DXMATRIX@@QAE@XZ
_TEXT	SEGMENT
_this$ = -8
??0D3DXMATRIX@@QAE@XZ PROC NEAR				; D3DXMATRIX::D3DXMATRIX, COMDAT
; _this$ = ecx

; 177  :     D3DXMATRIX() {};

  00000	55		 push	 ebp
  00001	8b ec		 mov	 ebp, esp
  00003	81 ec cc 00 00
	00		 sub	 esp, 204		; 000000ccH
  00009	53		 push	 ebx
  0000a	56		 push	 esi
  0000b	57		 push	 edi
  0000c	51		 push	 ecx
  0000d	8d bd 34 ff ff
	ff		 lea	 edi, DWORD PTR [ebp-204]
  00013	b9 33 00 00 00	 mov	 ecx, 51			; 00000033H
  00018	b8 cc cc cc cc	 mov	 eax, -858993460		; ccccccccH
  0001d	f3 ab		 rep stosd
  0001f	59		 pop	 ecx
  00020	89 4d f8	 mov	 DWORD PTR _this$[ebp], ecx
  00023	8b 45 f8	 mov	 eax, DWORD PTR _this$[ebp]
  00026	5f		 pop	 edi
  00027	5e		 pop	 esi
  00028	5b		 pop	 ebx
  00029	8b e5		 mov	 esp, ebp
  0002b	5d		 pop	 ebp
  0002c	c3		 ret	 0
??0D3DXMATRIX@@QAE@XZ ENDP				; D3DXMATRIX::D3DXMATRIX
; Function compile flags: /Odt /RTCsu /ZI
_TEXT	ENDS
;	COMDAT ??0D3DXCOLOR@@QAE@XZ
_TEXT	SEGMENT
_this$ = -8
??0D3DXCOLOR@@QAE@XZ PROC NEAR				; D3DXCOLOR::D3DXCOLOR, COMDAT
; _this$ = ecx

; 409  :     D3DXCOLOR() {}

  00000	55		 push	 ebp
  00001	8b ec		 mov	 ebp, esp
  00003	81 ec cc 00 00
	00		 sub	 esp, 204		; 000000ccH
  00009	53		 push	 ebx
  0000a	56		 push	 esi
  0000b	57		 push	 edi
  0000c	51		 push	 ecx
  0000d	8d bd 34 ff ff
	ff		 lea	 edi, DWORD PTR [ebp-204]
  00013	b9 33 00 00 00	 mov	 ecx, 51			; 00000033H
  00018	b8 cc cc cc cc	 mov	 eax, -858993460		; ccccccccH
  0001d	f3 ab		 rep stosd
  0001f	59		 pop	 ecx
  00020	89 4d f8	 mov	 DWORD PTR _this$[ebp], ecx
  00023	8b 45 f8	 mov	 eax, DWORD PTR _this$[ebp]
  00026	5f		 pop	 edi
  00027	5e		 pop	 esi
  00028	5b		 pop	 ebx
  00029	8b e5		 mov	 esp, ebp
  0002b	5d		 pop	 ebp
  0002c	c3		 ret	 0
??0D3DXCOLOR@@QAE@XZ ENDP				; D3DXCOLOR::D3DXCOLOR
; Function compile flags: /Odt /RTCsu /ZI
; File c:\dxsdk\include\d3dx8math.inl
_TEXT	ENDS
;	COMDAT ??0D3DXVECTOR2@@QAE@MM@Z
_TEXT	SEGMENT
_this$ = -8
_fx$ = 8
_fy$ = 12
??0D3DXVECTOR2@@QAE@MM@Z PROC NEAR			; D3DXVECTOR2::D3DXVECTOR2, COMDAT
; _this$ = ecx

; 40   : {

  00000	55		 push	 ebp
  00001	8b ec		 mov	 ebp, esp
  00003	81 ec cc 00 00
	00		 sub	 esp, 204		; 000000ccH
  00009	53		 push	 ebx
  0000a	56		 push	 esi
  0000b	57		 push	 edi
  0000c	51		 push	 ecx
  0000d	8d bd 34 ff ff
	ff		 lea	 edi, DWORD PTR [ebp-204]
  00013	b9 33 00 00 00	 mov	 ecx, 51			; 00000033H
  00018	b8 cc cc cc cc	 mov	 eax, -858993460		; ccccccccH
  0001d	f3 ab		 rep stosd
  0001f	59		 pop	 ecx
  00020	89 4d f8	 mov	 DWORD PTR _this$[ebp], ecx

; 41   :     x = fx;

  00023	8b 45 f8	 mov	 eax, DWORD PTR _this$[ebp]
  00026	8b 4d 08	 mov	 ecx, DWORD PTR _fx$[ebp]
  00029	89 08		 mov	 DWORD PTR [eax], ecx

; 42   :     y = fy;

  0002b	8b 45 f8	 mov	 eax, DWORD PTR _this$[ebp]
  0002e	8b 4d 0c	 mov	 ecx, DWORD PTR _fy$[ebp]
  00031	89 48 04	 mov	 DWORD PTR [eax+4], ecx

; 43   : }

  00034	8b 45 f8	 mov	 eax, DWORD PTR _this$[ebp]
  00037	5f		 pop	 edi
  00038	5e		 pop	 esi
  00039	5b		 pop	 ebx
  0003a	8b e5		 mov	 esp, ebp
  0003c	5d		 pop	 ebp
  0003d	c2 08 00	 ret	 8
??0D3DXVECTOR2@@QAE@MM@Z ENDP				; D3DXVECTOR2::D3DXVECTOR2
; Function compile flags: /Odt /RTCsu /ZI
_TEXT	ENDS
;	COMDAT ??0D3DXCOLOR@@QAE@MMMM@Z
_TEXT	SEGMENT
_this$ = -8
_fr$ = 8
_fg$ = 12
_fb$ = 16
_fa$ = 20
??0D3DXCOLOR@@QAE@MMMM@Z PROC NEAR			; D3DXCOLOR::D3DXCOLOR, COMDAT
; _this$ = ecx

; 919  : {

  00000	55		 push	 ebp
  00001	8b ec		 mov	 ebp, esp
  00003	81 ec cc 00 00
	00		 sub	 esp, 204		; 000000ccH
  00009	53		 push	 ebx
  0000a	56		 push	 esi
  0000b	57		 push	 edi
  0000c	51		 push	 ecx
  0000d	8d bd 34 ff ff
	ff		 lea	 edi, DWORD PTR [ebp-204]
  00013	b9 33 00 00 00	 mov	 ecx, 51			; 00000033H
  00018	b8 cc cc cc cc	 mov	 eax, -858993460		; ccccccccH
  0001d	f3 ab		 rep stosd
  0001f	59		 pop	 ecx
  00020	89 4d f8	 mov	 DWORD PTR _this$[ebp], ecx

; 920  :     r = fr;

  00023	8b 45 f8	 mov	 eax, DWORD PTR _this$[ebp]
  00026	8b 4d 08	 mov	 ecx, DWORD PTR _fr$[ebp]
  00029	89 08		 mov	 DWORD PTR [eax], ecx

; 921  :     g = fg;

  0002b	8b 45 f8	 mov	 eax, DWORD PTR _this$[ebp]
  0002e	8b 4d 0c	 mov	 ecx, DWORD PTR _fg$[ebp]
  00031	89 48 04	 mov	 DWORD PTR [eax+4], ecx

; 922  :     b = fb;

  00034	8b 45 f8	 mov	 eax, DWORD PTR _this$[ebp]
  00037	8b 4d 10	 mov	 ecx, DWORD PTR _fb$[ebp]
  0003a	89 48 08	 mov	 DWORD PTR [eax+8], ecx

; 923  :     a = fa;

  0003d	8b 45 f8	 mov	 eax, DWORD PTR _this$[ebp]
  00040	8b 4d 14	 mov	 ecx, DWORD PTR _fa$[ebp]
  00043	89 48 0c	 mov	 DWORD PTR [eax+12], ecx

; 924  : }

  00046	8b 45 f8	 mov	 eax, DWORD PTR _this$[ebp]
  00049	5f		 pop	 edi
  0004a	5e		 pop	 esi
  0004b	5b		 pop	 ebx
  0004c	8b e5		 mov	 esp, ebp
  0004e	5d		 pop	 ebp
  0004f	c2 10 00	 ret	 16			; 00000010H
??0D3DXCOLOR@@QAE@MMMM@Z ENDP				; D3DXCOLOR::D3DXCOLOR
_TEXT	ENDS
PUBLIC	__real@3f800000
PUBLIC	__real@00000000
PUBLIC	__real@437f0000
;	COMDAT __real@3f800000
CONST	SEGMENT
__real@3f800000 DD 03f800000r			; 1
CONST	ENDS
;	COMDAT __real@00000000
CONST	SEGMENT
__real@00000000 DD 000000000r			; 0
CONST	ENDS
;	COMDAT __real@437f0000
CONST	SEGMENT
__real@437f0000 DD 0437f0000r			; 255
; Function compile flags: /Odt /RTCsu /ZI
CONST	ENDS
;	COMDAT ??BD3DXCOLOR@@QBEKXZ
_TEXT	SEGMENT
tv135 = -260
tv92 = -260
tv81 = -260
tv70 = -260
tv136 = -256
tv93 = -256
tv82 = -256
tv71 = -256
_dwA$ = -56
_dwB$ = -44
_dwG$ = -32
_dwR$ = -20
_this$ = -8
??BD3DXCOLOR@@QBEKXZ PROC NEAR				; D3DXCOLOR::operator unsigned long, COMDAT
; _this$ = ecx

; 930  : {

  00000	55		 push	 ebp
  00001	8b ec		 mov	 ebp, esp
  00003	81 ec 04 01 00
	00		 sub	 esp, 260		; 00000104H
  00009	53		 push	 ebx
  0000a	56		 push	 esi
  0000b	57		 push	 edi
  0000c	51		 push	 ecx
  0000d	8d bd fc fe ff
	ff		 lea	 edi, DWORD PTR [ebp-260]
  00013	b9 41 00 00 00	 mov	 ecx, 65			; 00000041H
  00018	b8 cc cc cc cc	 mov	 eax, -858993460		; ccccccccH
  0001d	f3 ab		 rep stosd
  0001f	59		 pop	 ecx
  00020	89 4d f8	 mov	 DWORD PTR _this$[ebp], ecx

; 931  :     DWORD dwR = r >= 1.0f ? 0xff : r <= 0.0f ? 0x00 : (DWORD) (r * 255.0f + 0.5f);

  00023	8b 45 f8	 mov	 eax, DWORD PTR _this$[ebp]
  00026	d9 00		 fld	 DWORD PTR [eax]
  00028	d8 1d 00 00 00
	00		 fcomp	 DWORD PTR __real@3f800000
  0002e	df e0		 fnstsw	 ax
  00030	f6 c4 01	 test	 ah, 1
  00033	75 0c		 jne	 SHORT $L85650
  00035	c7 85 00 ff ff
	ff ff 00 00 00	 mov	 DWORD PTR tv71[ebp], 255 ; 000000ffH
  0003f	eb 46		 jmp	 SHORT $L85651
$L85650:
  00041	8b 4d f8	 mov	 ecx, DWORD PTR _this$[ebp]
  00044	d9 01		 fld	 DWORD PTR [ecx]
  00046	d8 1d 00 00 00
	00		 fcomp	 DWORD PTR __real@00000000
  0004c	df e0		 fnstsw	 ax
  0004e	f6 c4 41	 test	 ah, 65			; 00000041H
  00051	7a 0c		 jp	 SHORT $L85648
  00053	c7 85 fc fe ff
	ff 00 00 00 00	 mov	 DWORD PTR tv70[ebp], 0
  0005d	eb 1c		 jmp	 SHORT $L85649
$L85648:
  0005f	8b 55 f8	 mov	 edx, DWORD PTR _this$[ebp]
  00062	d9 02		 fld	 DWORD PTR [edx]
  00064	d8 0d 00 00 00
	00		 fmul	 DWORD PTR __real@437f0000
  0006a	d8 05 00 00 00
	00		 fadd	 DWORD PTR __real@3f000000
  00070	e8 00 00 00 00	 call	 __ftol2
  00075	89 85 fc fe ff
	ff		 mov	 DWORD PTR tv70[ebp], eax
$L85649:
  0007b	8b 85 fc fe ff
	ff		 mov	 eax, DWORD PTR tv70[ebp]
  00081	89 85 00 ff ff
	ff		 mov	 DWORD PTR tv71[ebp], eax
$L85651:
  00087	8b 8d 00 ff ff
	ff		 mov	 ecx, DWORD PTR tv71[ebp]
  0008d	89 4d ec	 mov	 DWORD PTR _dwR$[ebp], ecx

; 932  :     DWORD dwG = g >= 1.0f ? 0xff : g <= 0.0f ? 0x00 : (DWORD) (g * 255.0f + 0.5f);

  00090	8b 45 f8	 mov	 eax, DWORD PTR _this$[ebp]
  00093	d9 40 04	 fld	 DWORD PTR [eax+4]
  00096	d8 1d 00 00 00
	00		 fcomp	 DWORD PTR __real@3f800000
  0009c	df e0		 fnstsw	 ax
  0009e	f6 c4 01	 test	 ah, 1
  000a1	75 0c		 jne	 SHORT $L85654
  000a3	c7 85 00 ff ff
	ff ff 00 00 00	 mov	 DWORD PTR tv82[ebp], 255 ; 000000ffH
  000ad	eb 48		 jmp	 SHORT $L85655
$L85654:
  000af	8b 4d f8	 mov	 ecx, DWORD PTR _this$[ebp]
  000b2	d9 41 04	 fld	 DWORD PTR [ecx+4]
  000b5	d8 1d 00 00 00
	00		 fcomp	 DWORD PTR __real@00000000
  000bb	df e0		 fnstsw	 ax
  000bd	f6 c4 41	 test	 ah, 65			; 00000041H
  000c0	7a 0c		 jp	 SHORT $L85652
  000c2	c7 85 fc fe ff
	ff 00 00 00 00	 mov	 DWORD PTR tv81[ebp], 0
  000cc	eb 1d		 jmp	 SHORT $L85653
$L85652:
  000ce	8b 55 f8	 mov	 edx, DWORD PTR _this$[ebp]
  000d1	d9 42 04	 fld	 DWORD PTR [edx+4]
  000d4	d8 0d 00 00 00
	00		 fmul	 DWORD PTR __real@437f0000
  000da	d8 05 00 00 00
	00		 fadd	 DWORD PTR __real@3f000000
  000e0	e8 00 00 00 00	 call	 __ftol2
  000e5	89 85 fc fe ff
	ff		 mov	 DWORD PTR tv81[ebp], eax
$L85653:
  000eb	8b 85 fc fe ff
	ff		 mov	 eax, DWORD PTR tv81[ebp]
  000f1	89 85 00 ff ff
	ff		 mov	 DWORD PTR tv82[ebp], eax
$L85655:
  000f7	8b 8d 00 ff ff
	ff		 mov	 ecx, DWORD PTR tv82[ebp]
  000fd	89 4d e0	 mov	 DWORD PTR _dwG$[ebp], ecx

; 933  :     DWORD dwB = b >= 1.0f ? 0xff : b <= 0.0f ? 0x00 : (DWORD) (b * 255.0f + 0.5f);

  00100	8b 45 f8	 mov	 eax, DWORD PTR _this$[ebp]
  00103	d9 40 08	 fld	 DWORD PTR [eax+8]
  00106	d8 1d 00 00 00
	00		 fcomp	 DWORD PTR __real@3f800000
  0010c	df e0		 fnstsw	 ax
  0010e	f6 c4 01	 test	 ah, 1
  00111	75 0c		 jne	 SHORT $L85658
  00113	c7 85 00 ff ff
	ff ff 00 00 00	 mov	 DWORD PTR tv93[ebp], 255 ; 000000ffH
  0011d	eb 48		 jmp	 SHORT $L85659
$L85658:
  0011f	8b 4d f8	 mov	 ecx, DWORD PTR _this$[ebp]
  00122	d9 41 08	 fld	 DWORD PTR [ecx+8]
  00125	d8 1d 00 00 00
	00		 fcomp	 DWORD PTR __real@00000000
  0012b	df e0		 fnstsw	 ax
  0012d	f6 c4 41	 test	 ah, 65			; 00000041H
  00130	7a 0c		 jp	 SHORT $L85656
  00132	c7 85 fc fe ff
	ff 00 00 00 00	 mov	 DWORD PTR tv92[ebp], 0
  0013c	eb 1d		 jmp	 SHORT $L85657
$L85656:
  0013e	8b 55 f8	 mov	 edx, DWORD PTR _this$[ebp]
  00141	d9 42 08	 fld	 DWORD PTR [edx+8]
  00144	d8 0d 00 00 00
	00		 fmul	 DWORD PTR __real@437f0000
  0014a	d8 05 00 00 00
	00		 fadd	 DWORD PTR __real@3f000000
  00150	e8 00 00 00 00	 call	 __ftol2
  00155	89 85 fc fe ff
	ff		 mov	 DWORD PTR tv92[ebp], eax
$L85657:
  0015b	8b 85 fc fe ff
	ff		 mov	 eax, DWORD PTR tv92[ebp]
  00161	89 85 00 ff ff
	ff		 mov	 DWORD PTR tv93[ebp], eax
$L85659:
  00167	8b 8d 00 ff ff
	ff		 mov	 ecx, DWORD PTR tv93[ebp]
  0016d	89 4d d4	 mov	 DWORD PTR _dwB$[ebp], ecx

; 934  :     DWORD dwA = a >= 1.0f ? 0xff : a <= 0.0f ? 0x00 : (DWORD) (a * 255.0f + 0.5f);

  00170	8b 45 f8	 mov	 eax, DWORD PTR _this$[ebp]
  00173	d9 40 0c	 fld	 DWORD PTR [eax+12]
  00176	d8 1d 00 00 00
	00		 fcomp	 DWORD PTR __real@3f800000
  0017c	df e0		 fnstsw	 ax
  0017e	f6 c4 01	 test	 ah, 1
  00181	75 0c		 jne	 SHORT $L85662
  00183	c7 85 00 ff ff
	ff ff 00 00 00	 mov	 DWORD PTR tv136[ebp], 255 ; 000000ffH
  0018d	eb 48		 jmp	 SHORT $L85663
$L85662:
  0018f	8b 4d f8	 mov	 ecx, DWORD PTR _this$[ebp]
  00192	d9 41 0c	 fld	 DWORD PTR [ecx+12]
  00195	d8 1d 00 00 00
	00		 fcomp	 DWORD PTR __real@00000000
  0019b	df e0		 fnstsw	 ax
  0019d	f6 c4 41	 test	 ah, 65			; 00000041H
  001a0	7a 0c		 jp	 SHORT $L85660
  001a2	c7 85 fc fe ff
	ff 00 00 00 00	 mov	 DWORD PTR tv135[ebp], 0
  001ac	eb 1d		 jmp	 SHORT $L85661
$L85660:
  001ae	8b 55 f8	 mov	 edx, DWORD PTR _this$[ebp]
  001b1	d9 42 0c	 fld	 DWORD PTR [edx+12]
  001b4	d8 0d 00 00 00
	00		 fmul	 DWORD PTR __real@437f0000
  001ba	d8 05 00 00 00
	00		 fadd	 DWORD PTR __real@3f000000
  001c0	e8 00 00 00 00	 call	 __ftol2
  001c5	89 85 fc fe ff
	ff		 mov	 DWORD PTR tv135[ebp], eax
$L85661:
  001cb	8b 85 fc fe ff
	ff		 mov	 eax, DWORD PTR tv135[ebp]
  001d1	89 85 00 ff ff
	ff		 mov	 DWORD PTR tv136[ebp], eax
$L85663:
  001d7	8b 8d 00 ff ff
	ff		 mov	 ecx, DWORD PTR tv136[ebp]
  001dd	89 4d c8	 mov	 DWORD PTR _dwA$[ebp], ecx

; 935  : 
; 936  :     return (dwA << 24) | (dwR << 16) | (dwG << 8) | dwB;

  001e0	8b 45 c8	 mov	 eax, DWORD PTR _dwA$[ebp]
  001e3	c1 e0 18	 shl	 eax, 24			; 00000018H
  001e6	8b 4d ec	 mov	 ecx, DWORD PTR _dwR$[ebp]
  001e9	c1 e1 10	 shl	 ecx, 16			; 00000010H
  001ec	0b c1		 or	 eax, ecx
  001ee	8b 55 e0	 mov	 edx, DWORD PTR _dwG$[ebp]
  001f1	c1 e2 08	 shl	 edx, 8
  001f4	0b c2		 or	 eax, edx
  001f6	0b 45 d4	 or	 eax, DWORD PTR _dwB$[ebp]

; 937  : }

  001f9	5f		 pop	 edi
  001fa	5e		 pop	 esi
  001fb	5b		 pop	 ebx
  001fc	8b e5		 mov	 esp, ebp
  001fe	5d		 pop	 ebp
  001ff	c3		 ret	 0
??BD3DXCOLOR@@QBEKXZ ENDP				; D3DXCOLOR::operator unsigned long
; Function compile flags: /Odt /RTCsu /ZI
; File c:\documents and settings\dom\my documents\_dev\ae\xlr8a\x7g\x7_primitives.h
_TEXT	ENDS
;	COMDAT ??0UNCOLOREDVERTEX@@QAE@XZ
_TEXT	SEGMENT
_this$ = -8
??0UNCOLOREDVERTEX@@QAE@XZ PROC NEAR			; UNCOLOREDVERTEX::UNCOLOREDVERTEX, COMDAT
; _this$ = ecx

; 185  :     UNCOLOREDVERTEX() {} ;

  00000	55		 push	 ebp
  00001	8b ec		 mov	 ebp, esp
  00003	81 ec cc 00 00
	00		 sub	 esp, 204		; 000000ccH
  00009	53		 push	 ebx
  0000a	56		 push	 esi
  0000b	57		 push	 edi
  0000c	51		 push	 ecx
  0000d	8d bd 34 ff ff
	ff		 lea	 edi, DWORD PTR [ebp-204]
  00013	b9 33 00 00 00	 mov	 ecx, 51			; 00000033H
  00018	b8 cc cc cc cc	 mov	 eax, -858993460		; ccccccccH
  0001d	f3 ab		 rep stosd
  0001f	59		 pop	 ecx
  00020	89 4d f8	 mov	 DWORD PTR _this$[ebp], ecx
  00023	8b 45 f8	 mov	 eax, DWORD PTR _this$[ebp]
  00026	5f		 pop	 edi
  00027	5e		 pop	 esi
  00028	5b		 pop	 ebx
  00029	8b e5		 mov	 esp, ebp
  0002b	5d		 pop	 ebp
  0002c	c3		 ret	 0
??0UNCOLOREDVERTEX@@QAE@XZ ENDP				; UNCOLOREDVERTEX::UNCOLOREDVERTEX
_TEXT	ENDS
END
