; Listing generated by Microsoft (R) Optimizing Compiler Version 13.00.9466 

	TITLE	CProceduralRenderObject.cpp
	.386P
include listing.inc
if @Version gt 510
.model FLAT
else
_TEXT	SEGMENT PARA USE32 PUBLIC 'CODE'
_TEXT	ENDS
_DATA	SEGMENT DWORD USE32 PUBLIC 'DATA'
_DATA	ENDS
CONST	SEGMENT DWORD USE32 PUBLIC 'CONST'
CONST	ENDS
_BSS	SEGMENT DWORD USE32 PUBLIC 'BSS'
_BSS	ENDS
$$SYMBOLS	SEGMENT BYTE USE32 'DEBSYM'
$$SYMBOLS	ENDS
$$TYPES	SEGMENT BYTE USE32 'DEBTYP'
$$TYPES	ENDS
_TLS	SEGMENT DWORD USE32 PUBLIC 'TLS'
_TLS	ENDS
;	COMDAT ??_C@_0FJ@JJKKIHO@c?3?2documents?5and?5settings?2dom?2my@
CONST	SEGMENT DWORD USE32 PUBLIC 'CONST'
CONST	ENDS
;	COMDAT ??_C@_08JJANBJDD@m_pX7LTs?$AA@
CONST	SEGMENT DWORD USE32 PUBLIC 'CONST'
CONST	ENDS
;	COMDAT ??_C@_0N@DFPKBKHI@pLast?9?$DOpNext?$AA@
CONST	SEGMENT DWORD USE32 PUBLIC 'CONST'
CONST	ENDS
;	COMDAT ??_C@_0N@EHOCOBJ@m_dwFVF?5?$CB?$DN?50?$AA@
CONST	SEGMENT DWORD USE32 PUBLIC 'CONST'
CONST	ENDS
;	COMDAT ??_C@_0M@NKNCPJJD@?$CBFAILED?$CIhr?$CJ?$AA@
CONST	SEGMENT DWORD USE32 PUBLIC 'CONST'
CONST	ENDS
;	COMDAT ??_C@_0BH@IFENJJCI@hr1?$DN?$DNS_OK?5?$CG?$CG?5hr2?$DN?$DNS_OK?$AA@
CONST	SEGMENT DWORD USE32 PUBLIC 'CONST'
CONST	ENDS
;	COMDAT ??_C@_0L@CJJJJEMF@hr?$DN?$DND3D_OK?$AA@
CONST	SEGMENT DWORD USE32 PUBLIC 'CONST'
CONST	ENDS
;	COMDAT ??_C@_03JFMEENOE@ERR?$AA@
CONST	SEGMENT DWORD USE32 PUBLIC 'CONST'
CONST	ENDS
;	COMDAT _IsEqualGUID
_TEXT	SEGMENT PARA USE32 PUBLIC 'CODE'
_TEXT	ENDS
;	COMDAT _==
_TEXT	SEGMENT PARA USE32 PUBLIC 'CODE'
_TEXT	ENDS
;	COMDAT _sqrtf
_TEXT	SEGMENT PARA USE32 PUBLIC 'CODE'
_TEXT	ENDS
;	COMDAT ??0D3DXVECTOR3@@QAE@XZ
_TEXT	SEGMENT PARA USE32 PUBLIC 'CODE'
_TEXT	ENDS
;	COMDAT ??0D3DXVECTOR4@@QAE@XZ
_TEXT	SEGMENT PARA USE32 PUBLIC 'CODE'
_TEXT	ENDS
;	COMDAT ??0D3DXMATRIX@@QAE@XZ
_TEXT	SEGMENT PARA USE32 PUBLIC 'CODE'
_TEXT	ENDS
;	COMDAT ??0D3DXQUATERNION@@QAE@XZ
_TEXT	SEGMENT PARA USE32 PUBLIC 'CODE'
_TEXT	ENDS
;	COMDAT ??0D3DXVECTOR2@@QAE@MM@Z
_TEXT	SEGMENT PARA USE32 PUBLIC 'CODE'
_TEXT	ENDS
;	COMDAT ??0D3DXVECTOR3@@QAE@MMM@Z
_TEXT	SEGMENT PARA USE32 PUBLIC 'CODE'
_TEXT	ENDS
;	COMDAT ??0D3DXVECTOR4@@QAE@MMMM@Z
_TEXT	SEGMENT PARA USE32 PUBLIC 'CODE'
_TEXT	ENDS
;	COMDAT ??0D3DXMATRIX@@QAE@PBM@Z
_TEXT	SEGMENT PARA USE32 PUBLIC 'CODE'
_TEXT	ENDS
;	COMDAT ??0D3DXMATRIX@@QAE@ABU_D3DMATRIX@@@Z
_TEXT	SEGMENT PARA USE32 PUBLIC 'CODE'
_TEXT	ENDS
;	COMDAT ??0D3DXMATRIX@@QAE@MMMMMMMMMMMMMMMM@Z
_TEXT	SEGMENT PARA USE32 PUBLIC 'CODE'
_TEXT	ENDS
;	COMDAT ??0D3DXQUATERNION@@QAE@MMMM@Z
_TEXT	SEGMENT PARA USE32 PUBLIC 'CODE'
_TEXT	ENDS
;	COMDAT ??0D3DXPLANE@@QAE@MMMM@Z
_TEXT	SEGMENT PARA USE32 PUBLIC 'CODE'
_TEXT	ENDS
;	COMDAT ??0D3DXCOLOR@@QAE@MMMM@Z
_TEXT	SEGMENT PARA USE32 PUBLIC 'CODE'
_TEXT	ENDS
;	COMDAT ??0COLOREDVERTEXWITHNORMAL2TEX@@QAE@XZ
_TEXT	SEGMENT PARA USE32 PUBLIC 'CODE'
_TEXT	ENDS
;	COMDAT ??0COLOREDVERTEXWITHNORMAL@@QAE@XZ
_TEXT	SEGMENT PARA USE32 PUBLIC 'CODE'
_TEXT	ENDS
;	COMDAT ??0UNCOLOREDVERTEX@@QAE@XZ
_TEXT	SEGMENT PARA USE32 PUBLIC 'CODE'
_TEXT	ENDS
;	COMDAT ??0COLOREDVERTEX@@QAE@XZ
_TEXT	SEGMENT PARA USE32 PUBLIC 'CODE'
_TEXT	ENDS
;	COMDAT ??0COLOREDVERTEX2TEX@@QAE@XZ
_TEXT	SEGMENT PARA USE32 PUBLIC 'CODE'
_TEXT	ENDS
;	COMDAT ??0CProceduralRenderObject@@QAE@XZ
_TEXT	SEGMENT PARA USE32 PUBLIC 'CODE'
_TEXT	ENDS
;	COMDAT ??1CProceduralRenderObject@@QAE@XZ
_TEXT	SEGMENT PARA USE32 PUBLIC 'CODE'
_TEXT	ENDS
;	COMDAT ??_GCBoundingBox@@QAEPAXI@Z
_TEXT	SEGMENT PARA USE32 PUBLIC 'CODE'
_TEXT	ENDS
;	COMDAT ?AddX7LT@CProceduralRenderObject@@QAEPAUX7LT@@PAUUNCOLOREDVERTEX@@PAK1KKPAM2@Z
_TEXT	SEGMENT PARA USE32 PUBLIC 'CODE'
_TEXT	ENDS
;	COMDAT ?LastX7LT@CProceduralRenderObject@@QAEPAUX7LT@@XZ
_TEXT	SEGMENT PARA USE32 PUBLIC 'CODE'
_TEXT	ENDS
;	COMDAT ?FirstX7LT@CProceduralRenderObject@@QAEPAUX7LT@@XZ
_TEXT	SEGMENT PARA USE32 PUBLIC 'CODE'
_TEXT	ENDS
;	COMDAT ?TranslateX7LTs@CProceduralRenderObject@@QAEXMMM@Z
_TEXT	SEGMENT PARA USE32 PUBLIC 'CODE'
_TEXT	ENDS
;	COMDAT ?ScaleX7LTs@CProceduralRenderObject@@QAEXM@Z
_TEXT	SEGMENT PARA USE32 PUBLIC 'CODE'
_TEXT	ENDS
;	COMDAT ?RotateX7LTsY@CProceduralRenderObject@@QAEXMPAUD3DXVECTOR3@@@Z
_TEXT	SEGMENT PARA USE32 PUBLIC 'CODE'
_TEXT	ENDS
;	COMDAT ?IndexToList@CProceduralRenderObject@@QAEJXZ
_TEXT	SEGMENT PARA USE32 PUBLIC 'CODE'
_TEXT	ENDS
;	COMDAT ??_H@YGXPAXIHP6EPAX0@Z@Z
_TEXT	SEGMENT PARA USE32 PUBLIC 'CODE'
_TEXT	ENDS
;	COMDAT ?GetDistinctRenderStates@CProceduralRenderObject@@QAEXXZ
_TEXT	SEGMENT PARA USE32 PUBLIC 'CODE'
_TEXT	ENDS
;	COMDAT ?CompareIndexedVertex@CProceduralRenderObject@@QAEHIPAUX7LT@@HH@Z
_TEXT	SEGMENT PARA USE32 PUBLIC 'CODE'
_TEXT	ENDS
;	COMDAT ?AddIndexedVertex@CProceduralRenderObject@@QAEXIPAUX7LT@@HH@Z
_TEXT	SEGMENT PARA USE32 PUBLIC 'CODE'
_TEXT	ENDS
;	COMDAT ?MakeRenderData@CProceduralRenderObject@@QAEJPAUIDirect3D8@@PAUIDirect3DDevice8@@@Z
_TEXT	SEGMENT PARA USE32 PUBLIC 'CODE'
_TEXT	ENDS
;	COMDAT ?MakeBoundingBox@CProceduralRenderObject@@QAEJPAUIDirect3D8@@PAUIDirect3DDevice8@@@Z
_TEXT	SEGMENT PARA USE32 PUBLIC 'CODE'
_TEXT	ENDS
;	COMDAT ?RestoreDeviceObjects@CProceduralRenderObject@@QAEJPAUIDirect3D8@@PAUIDirect3DDevice8@@@Z
_TEXT	SEGMENT PARA USE32 PUBLIC 'CODE'
_TEXT	ENDS
;	COMDAT ?InvalidateDeviceObjects@CProceduralRenderObject@@QAEJXZ
_TEXT	SEGMENT PARA USE32 PUBLIC 'CODE'
_TEXT	ENDS
;	COMDAT ?WorldRotateX@CProceduralRenderObject@@QAEXMPAUD3DXVECTOR3@@@Z
_TEXT	SEGMENT PARA USE32 PUBLIC 'CODE'
_TEXT	ENDS
;	COMDAT ?WorldRotateY@CProceduralRenderObject@@QAEXMPAUD3DXVECTOR3@@@Z
_TEXT	SEGMENT PARA USE32 PUBLIC 'CODE'
_TEXT	ENDS
;	COMDAT ?WorldRotateZ@CProceduralRenderObject@@QAEXMPAUD3DXVECTOR3@@@Z
_TEXT	SEGMENT PARA USE32 PUBLIC 'CODE'
_TEXT	ENDS
;	COMDAT ?WorldTranslate@CProceduralRenderObject@@QAEXPAUD3DXVECTOR3@@@Z
_TEXT	SEGMENT PARA USE32 PUBLIC 'CODE'
_TEXT	ENDS
;	COMDAT ?GetBBoxVisibilityFlags@CProceduralRenderObject@@QAEHPAUIDirect3DDevice8@@PAUD3DXMATRIX@@PAVCCamera@@PAU_D3DVIEWPORT8@@@Z
_TEXT	SEGMENT PARA USE32 PUBLIC 'CODE'
_TEXT	ENDS
;	COMDAT ?Render@CProceduralRenderObject@@QAEJPAUIDirect3DDevice8@@PAVCTextures@@PAKHPAUD3DXMATRIX@@_N@Z
_TEXT	SEGMENT PARA USE32 PUBLIC 'CODE'
_TEXT	ENDS
;	COMDAT ?RenderDetailPass@CProceduralRenderObject@@QAEJPAUIDirect3DDevice8@@PAUIDirect3DTexture8@@PAKHPAUD3DXMATRIX@@@Z
_TEXT	SEGMENT PARA USE32 PUBLIC 'CODE'
_TEXT	ENDS
;	COMDAT ?__LINE__Var@?1??RenderDetailPass@CProceduralRenderObject@@QAEJPAUIDirect3DDevice8@@PAUIDirect3DTexture8@@PAKHPAUD3DXMATRIX@@@Z@4JA
_DATA	SEGMENT DWORD USE32 PUBLIC 'DATA'
_DATA	ENDS
;	COMDAT ?__LINE__Var@?1??Render@CProceduralRenderObject@@QAEJPAUIDirect3DDevice8@@PAVCTextures@@PAKHPAUD3DXMATRIX@@_N@Z@4JA
_DATA	SEGMENT DWORD USE32 PUBLIC 'DATA'
_DATA	ENDS
;	COMDAT ?__LINE__Var@?1??RestoreDeviceObjects@CProceduralRenderObject@@QAEJPAUIDirect3D8@@PAUIDirect3DDevice8@@@Z@4JA
_DATA	SEGMENT DWORD USE32 PUBLIC 'DATA'
_DATA	ENDS
;	COMDAT ?__LINE__Var@?1??MakeBoundingBox@CProceduralRenderObject@@QAEJPAUIDirect3D8@@PAUIDirect3DDevice8@@@Z@4JA
_DATA	SEGMENT DWORD USE32 PUBLIC 'DATA'
_DATA	ENDS
;	COMDAT ?__LINE__Var@?1??MakeRenderData@CProceduralRenderObject@@QAEJPAUIDirect3D8@@PAUIDirect3DDevice8@@@Z@4JA
_DATA	SEGMENT DWORD USE32 PUBLIC 'DATA'
_DATA	ENDS
;	COMDAT ?__LINE__Var@?1??IndexToList@CProceduralRenderObject@@QAEJXZ@4JA
_DATA	SEGMENT DWORD USE32 PUBLIC 'DATA'
_DATA	ENDS
;	COMDAT ?__LINE__Var@?1??AddX7LT@CProceduralRenderObject@@QAEPAUX7LT@@PAUUNCOLOREDVERTEX@@PAK1KKPAM2@Z@4JA
_DATA	SEGMENT DWORD USE32 PUBLIC 'DATA'
_DATA	ENDS
FLAT	GROUP _DATA, CONST, _BSS
	ASSUME	CS: FLAT, DS: FLAT, SS: FLAT
endif

INCLUDELIB LIBCMTD
INCLUDELIB OLDNAMES

PUBLIC	??0D3DXMATRIX@@QAE@XZ				; D3DXMATRIX::D3DXMATRIX
PUBLIC	??0CProceduralRenderObject@@QAE@XZ		; CProceduralRenderObject::CProceduralRenderObject
PUBLIC	??0D3DXVECTOR3@@QAE@XZ				; D3DXVECTOR3::D3DXVECTOR3
EXTRN	_memset:NEAR
EXTRN	?g_matIdent@@3UD3DXMATRIX@@A:BYTE		; g_matIdent
EXTRN	?D3DUtil_InitMaterial@@YAXAAU_D3DMATERIAL8@@MMMM@Z:NEAR ; D3DUtil_InitMaterial
EXTRN	__RTC_InitBase:NEAR
EXTRN	__RTC_Shutdown:NEAR
EXTRN	__RTC_CheckEsp:NEAR
EXTRN	__fltused:NEAR
;	COMDAT rtc$IMZ
; File c:\documents and settings\dom\my documents\_dev\ae\xlr8a\x7g\cproceduralrenderobject.cpp
rtc$IMZ	SEGMENT
__RTC_InitBase.rtc$IMZ DD FLAT:__RTC_InitBase
rtc$IMZ	ENDS
;	COMDAT rtc$TMZ
rtc$TMZ	SEGMENT
__RTC_Shutdown.rtc$TMZ DD FLAT:__RTC_Shutdown
; Function compile flags: /Odt /RTCsu /ZI
rtc$TMZ	ENDS
;	COMDAT ??0CProceduralRenderObject@@QAE@XZ
_TEXT	SEGMENT
_i$85360 = -20
_this$ = -8
??0CProceduralRenderObject@@QAE@XZ PROC NEAR		; CProceduralRenderObject::CProceduralRenderObject, COMDAT
; _this$ = ecx

; 11   : 	{

  00000	55		 push	 ebp
  00001	8b ec		 mov	 ebp, esp
  00003	81 ec d8 00 00
	00		 sub	 esp, 216		; 000000d8H
  00009	53		 push	 ebx
  0000a	56		 push	 esi
  0000b	57		 push	 edi
  0000c	51		 push	 ecx
  0000d	8d bd 28 ff ff
	ff		 lea	 edi, DWORD PTR [ebp-216]
  00013	b9 36 00 00 00	 mov	 ecx, 54			; 00000036H
  00018	b8 cc cc cc cc	 mov	 eax, -858993460		; ccccccccH
  0001d	f3 ab		 rep stosd
  0001f	59		 pop	 ecx
  00020	89 4d f8	 mov	 DWORD PTR _this$[ebp], ecx
  00023	8b 4d f8	 mov	 ecx, DWORD PTR _this$[ebp]
  00026	81 c1 58 0a 00
	00		 add	 ecx, 2648		; 00000a58H
  0002c	e8 00 00 00 00	 call	 ??0D3DXVECTOR3@@QAE@XZ	; D3DXVECTOR3::D3DXVECTOR3
  00031	8b 4d f8	 mov	 ecx, DWORD PTR _this$[ebp]
  00034	81 c1 64 0a 00
	00		 add	 ecx, 2660		; 00000a64H
  0003a	e8 00 00 00 00	 call	 ??0D3DXVECTOR3@@QAE@XZ	; D3DXVECTOR3::D3DXVECTOR3
  0003f	8b 4d f8	 mov	 ecx, DWORD PTR _this$[ebp]
  00042	81 c1 74 0a 00
	00		 add	 ecx, 2676		; 00000a74H
  00048	e8 00 00 00 00	 call	 ??0D3DXMATRIX@@QAE@XZ	; D3DXMATRIX::D3DXMATRIX

; 12   : 	//
; 13   : 	// Base procedural geometry and FVF:
; 14   : 	//
; 15   : 		m_nBaseX7LTs = 0 ;

  0004d	8b 45 f8	 mov	 eax, DWORD PTR _this$[ebp]
  00050	c7 40 08 00 00
	00 00		 mov	 DWORD PTR [eax+8], 0

; 16   : 		m_pX7LTs = NULL ;

  00057	8b 45 f8	 mov	 eax, DWORD PTR _this$[ebp]
  0005a	c7 40 0c 00 00
	00 00		 mov	 DWORD PTR [eax+12], 0

; 17   : 		m_pFastLastX7LT = NULL ;

  00061	8b 45 f8	 mov	 eax, DWORD PTR _this$[ebp]
  00064	c7 40 10 00 00
	00 00		 mov	 DWORD PTR [eax+16], 0

; 18   : 		m_dwFVF = 0 ;

  0006b	8b 45 f8	 mov	 eax, DWORD PTR _this$[ebp]
  0006e	c7 00 00 00 00
	00		 mov	 DWORD PTR [eax], 0

; 19   : 		
; 20   : 	//
; 21   : 	// Render States:
; 22   : 	//
; 23   : 		m_nRSs = 0 ;

  00074	8b 45 f8	 mov	 eax, DWORD PTR _this$[ebp]
  00077	c7 80 48 0a 00
	00 00 00 00 00	 mov	 DWORD PTR [eax+2632], 0

; 24   : 		for (int i = 0 ; i < 8 ; i ++)

  00081	c7 45 ec 00 00
	00 00		 mov	 DWORD PTR _i$85360[ebp], 0
  00088	eb 09		 jmp	 SHORT $L85361
$L85362:
  0008a	8b 45 ec	 mov	 eax, DWORD PTR _i$85360[ebp]
  0008d	83 c0 01	 add	 eax, 1
  00090	89 45 ec	 mov	 DWORD PTR _i$85360[ebp], eax
$L85361:
  00093	83 7d ec 08	 cmp	 DWORD PTR _i$85360[ebp], 8
  00097	0f 8d ce 01 00
	00		 jge	 $L85363

; 25   : 		{
; 26   : 			m_ntvRS[i].dwNumVertices = 0 ;

  0009d	8b 45 ec	 mov	 eax, DWORD PTR _i$85360[ebp]
  000a0	69 c0 44 01 00
	00		 imul	 eax, 324		; 00000144H
  000a6	8b 4d f8	 mov	 ecx, DWORD PTR _this$[ebp]
  000a9	c7 44 01 48 00
	00 00 00	 mov	 DWORD PTR [ecx+eax+72], 0

; 27   : 			m_ntvRS[i].dwNumIndices = 0 ;

  000b1	8b 45 ec	 mov	 eax, DWORD PTR _i$85360[ebp]
  000b4	69 c0 44 01 00
	00		 imul	 eax, 324		; 00000144H
  000ba	8b 4d f8	 mov	 ecx, DWORD PTR _this$[ebp]
  000bd	c7 44 01 4c 00
	00 00 00	 mov	 DWORD PTR [ecx+eax+76], 0

; 28   : 
; 29   : 			m_ntvRS[i].pUnlitVertices = NULL ;

  000c5	8b 45 ec	 mov	 eax, DWORD PTR _i$85360[ebp]
  000c8	69 c0 44 01 00
	00		 imul	 eax, 324		; 00000144H
  000ce	8b 4d f8	 mov	 ecx, DWORD PTR _this$[ebp]
  000d1	c7 44 01 30 00
	00 00 00	 mov	 DWORD PTR [ecx+eax+48], 0

; 30   : 			m_ntvRS[i].pLitVertices = NULL ;

  000d9	8b 45 ec	 mov	 eax, DWORD PTR _i$85360[ebp]
  000dc	69 c0 44 01 00
	00		 imul	 eax, 324		; 00000144H
  000e2	8b 4d f8	 mov	 ecx, DWORD PTR _this$[ebp]
  000e5	c7 44 01 34 00
	00 00 00	 mov	 DWORD PTR [ecx+eax+52], 0

; 31   : 			m_ntvRS[i].pLitVertices2Tex = NULL ;

  000ed	8b 45 ec	 mov	 eax, DWORD PTR _i$85360[ebp]
  000f0	69 c0 44 01 00
	00		 imul	 eax, 324		; 00000144H
  000f6	8b 4d f8	 mov	 ecx, DWORD PTR _this$[ebp]
  000f9	c7 44 01 38 00
	00 00 00	 mov	 DWORD PTR [ecx+eax+56], 0

; 32   : 			m_ntvRS[i].pLitVerticesWithNormals = NULL ;

  00101	8b 45 ec	 mov	 eax, DWORD PTR _i$85360[ebp]
  00104	69 c0 44 01 00
	00		 imul	 eax, 324		; 00000144H
  0010a	8b 4d f8	 mov	 ecx, DWORD PTR _this$[ebp]
  0010d	c7 44 01 3c 00
	00 00 00	 mov	 DWORD PTR [ecx+eax+60], 0

; 33   : 			m_ntvRS[i].pLitVerticesWithNormals2Tex = NULL ;

  00115	8b 45 ec	 mov	 eax, DWORD PTR _i$85360[ebp]
  00118	69 c0 44 01 00
	00		 imul	 eax, 324		; 00000144H
  0011e	8b 4d f8	 mov	 ecx, DWORD PTR _this$[ebp]
  00121	c7 44 01 40 00
	00 00 00	 mov	 DWORD PTR [ecx+eax+64], 0

; 34   : 
; 35   : 			m_ntvRS[i].pIndices = NULL ;

  00129	8b 45 ec	 mov	 eax, DWORD PTR _i$85360[ebp]
  0012c	69 c0 44 01 00
	00		 imul	 eax, 324		; 00000144H
  00132	8b 4d f8	 mov	 ecx, DWORD PTR _this$[ebp]
  00135	c7 44 01 44 00
	00 00 00	 mov	 DWORD PTR [ecx+eax+68], 0

; 36   : 			m_ntvRS[i].pMesh = NULL ;

  0013d	8b 45 ec	 mov	 eax, DWORD PTR _i$85360[ebp]
  00140	69 c0 44 01 00
	00		 imul	 eax, 324		; 00000144H
  00146	8b 4d f8	 mov	 ecx, DWORD PTR _this$[ebp]
  00149	c7 84 01 94 00
	00 00 00 00 00
	00		 mov	 DWORD PTR [ecx+eax+148], 0

; 37   : 			
; 38   : 			m_ntvRS[i].pVB = NULL ;

  00154	8b 45 ec	 mov	 eax, DWORD PTR _i$85360[ebp]
  00157	69 c0 44 01 00
	00		 imul	 eax, 324		; 00000144H
  0015d	8b 4d f8	 mov	 ecx, DWORD PTR _this$[ebp]
  00160	c7 84 01 98 00
	00 00 00 00 00
	00		 mov	 DWORD PTR [ecx+eax+152], 0

; 39   : 			m_ntvRS[i].pIB = NULL ;

  0016b	8b 45 ec	 mov	 eax, DWORD PTR _i$85360[ebp]
  0016e	69 c0 44 01 00
	00		 imul	 eax, 324		; 00000144H
  00174	8b 4d f8	 mov	 ecx, DWORD PTR _this$[ebp]
  00177	c7 84 01 9c 00
	00 00 00 00 00
	00		 mov	 DWORD PTR [ecx+eax+156], 0

; 40   : 				
; 41   : 			m_ntvRS[i].nDSs = 0 ;

  00182	8b 45 ec	 mov	 eax, DWORD PTR _i$85360[ebp]
  00185	69 c0 44 01 00
	00		 imul	 eax, 324		; 00000144H
  0018b	8b 4d f8	 mov	 ecx, DWORD PTR _this$[ebp]
  0018e	c7 84 01 a0 00
	00 00 00 00 00
	00		 mov	 DWORD PTR [ecx+eax+160], 0

; 42   : 			
; 43   : 			ZeroMemory(m_ntvRS[i].dwSS_MinIndex, sizeof(DWORD) * MAX_DS) ;

  00199	6a 28		 push	 40			; 00000028H
  0019b	6a 00		 push	 0
  0019d	8b 45 ec	 mov	 eax, DWORD PTR _i$85360[ebp]
  001a0	69 c0 44 01 00
	00		 imul	 eax, 324		; 00000144H
  001a6	8b 4d f8	 mov	 ecx, DWORD PTR _this$[ebp]
  001a9	8d 94 01 a4 00
	00 00		 lea	 edx, DWORD PTR [ecx+eax+164]
  001b0	52		 push	 edx
  001b1	e8 00 00 00 00	 call	 _memset
  001b6	83 c4 0c	 add	 esp, 12			; 0000000cH

; 44   : 			ZeroMemory(m_ntvRS[i].dwSS_MaxIndex, sizeof(DWORD) * MAX_DS) ;

  001b9	6a 28		 push	 40			; 00000028H
  001bb	6a 00		 push	 0
  001bd	8b 45 ec	 mov	 eax, DWORD PTR _i$85360[ebp]
  001c0	69 c0 44 01 00
	00		 imul	 eax, 324		; 00000144H
  001c6	8b 4d f8	 mov	 ecx, DWORD PTR _this$[ebp]
  001c9	8d 94 01 cc 00
	00 00		 lea	 edx, DWORD PTR [ecx+eax+204]
  001d0	52		 push	 edx
  001d1	e8 00 00 00 00	 call	 _memset
  001d6	83 c4 0c	 add	 esp, 12			; 0000000cH

; 45   : 			ZeroMemory(m_ntvRS[i].dwSS_NumVerts, sizeof(DWORD) * MAX_DS) ;

  001d9	6a 28		 push	 40			; 00000028H
  001db	6a 00		 push	 0
  001dd	8b 45 ec	 mov	 eax, DWORD PTR _i$85360[ebp]
  001e0	69 c0 44 01 00
	00		 imul	 eax, 324		; 00000144H
  001e6	8b 4d f8	 mov	 ecx, DWORD PTR _this$[ebp]
  001e9	8d 94 01 f4 00
	00 00		 lea	 edx, DWORD PTR [ecx+eax+244]
  001f0	52		 push	 edx
  001f1	e8 00 00 00 00	 call	 _memset
  001f6	83 c4 0c	 add	 esp, 12			; 0000000cH

; 46   : 			ZeroMemory(m_ntvRS[i].dwSS_StartIndex, sizeof(DWORD) * MAX_DS) ;

  001f9	6a 28		 push	 40			; 00000028H
  001fb	6a 00		 push	 0
  001fd	8b 45 ec	 mov	 eax, DWORD PTR _i$85360[ebp]
  00200	69 c0 44 01 00
	00		 imul	 eax, 324		; 00000144H
  00206	8b 4d f8	 mov	 ecx, DWORD PTR _this$[ebp]
  00209	8d 94 01 1c 01
	00 00		 lea	 edx, DWORD PTR [ecx+eax+284]
  00210	52		 push	 edx
  00211	e8 00 00 00 00	 call	 _memset
  00216	83 c4 0c	 add	 esp, 12			; 0000000cH

; 47   : 			ZeroMemory(m_ntvRS[i].dwSS_PrimCount, sizeof(DWORD) * MAX_DS) ;

  00219	6a 28		 push	 40			; 00000028H
  0021b	6a 00		 push	 0
  0021d	8b 45 ec	 mov	 eax, DWORD PTR _i$85360[ebp]
  00220	69 c0 44 01 00
	00		 imul	 eax, 324		; 00000144H
  00226	8b 4d f8	 mov	 ecx, DWORD PTR _this$[ebp]
  00229	8d 94 01 44 01
	00 00		 lea	 edx, DWORD PTR [ecx+eax+324]
  00230	52		 push	 edx
  00231	e8 00 00 00 00	 call	 _memset
  00236	83 c4 0c	 add	 esp, 12			; 0000000cH

; 48   : 
; 49   : 			D3DUtil_InitMaterial(m_ntvRS[i].mtrlMaterial, 1, 1, 1) ;

  00239	68 00 00 80 3f	 push	 1065353216		; 3f800000H
  0023e	68 00 00 80 3f	 push	 1065353216		; 3f800000H
  00243	68 00 00 80 3f	 push	 1065353216		; 3f800000H
  00248	68 00 00 80 3f	 push	 1065353216		; 3f800000H
  0024d	8b 45 ec	 mov	 eax, DWORD PTR _i$85360[ebp]
  00250	69 c0 44 01 00
	00		 imul	 eax, 324		; 00000144H
  00256	8b 4d f8	 mov	 ecx, DWORD PTR _this$[ebp]
  00259	8d 54 01 50	 lea	 edx, DWORD PTR [ecx+eax+80]
  0025d	52		 push	 edx
  0025e	e8 00 00 00 00	 call	 ?D3DUtil_InitMaterial@@YAXAAU_D3DMATERIAL8@@MMMM@Z ; D3DUtil_InitMaterial
  00263	83 c4 14	 add	 esp, 20			; 00000014H

; 50   : 		}

  00266	e9 1f fe ff ff	 jmp	 $L85362
$L85363:

; 51   : 
; 52   : 	//
; 53   : 	// D3D resources options:
; 54   : 	//
; 55   : 		m_dwMeshOptions = D3DXMESH_WRITEONLY ;

  0026b	8b 45 f8	 mov	 eax, DWORD PTR _this$[ebp]
  0026e	c7 80 4c 0a 00
	00 40 04 00 00	 mov	 DWORD PTR [eax+2636], 1088 ; 00000440H

; 56   : 		m_dwUsageOptions = D3DUSAGE_WRITEONLY ;

  00278	8b 45 f8	 mov	 eax, DWORD PTR _this$[ebp]
  0027b	c7 80 50 0a 00
	00 08 00 00 00	 mov	 DWORD PTR [eax+2640], 8

; 57   : 		m_bUseD3DXMesh = TRUE ;

  00285	8b 45 f8	 mov	 eax, DWORD PTR _this$[ebp]
  00288	c7 80 54 0a 00
	00 01 00 00 00	 mov	 DWORD PTR [eax+2644], 1

; 58   : 		m_bUse32bitIndexesIfAvailable = false ;

  00292	8b 45 f8	 mov	 eax, DWORD PTR _this$[ebp]
  00295	c6 40 04 00	 mov	 BYTE PTR [eax+4], 0

; 59   : 
; 60   : 	//
; 61   : 	// Bounding box and world matrix:
; 62   : 	//
; 63   : 		m_pBBox = NULL ;

  00299	8b 45 f8	 mov	 eax, DWORD PTR _this$[ebp]
  0029c	c7 80 70 0a 00
	00 00 00 00 00	 mov	 DWORD PTR [eax+2672], 0

; 64   : 		m_matWorld = g_matIdent ;

  002a6	8b 7d f8	 mov	 edi, DWORD PTR _this$[ebp]
  002a9	81 c7 74 0a 00
	00		 add	 edi, 2676		; 00000a74H
  002af	b9 10 00 00 00	 mov	 ecx, 16			; 00000010H
  002b4	be 00 00 00 00	 mov	 esi, OFFSET FLAT:?g_matIdent@@3UD3DXMATRIX@@A ; g_matIdent
  002b9	f3 a5		 rep movsd

; 65   : 
; 66   : 	//
; 67   : 	// Memory Usage Monitors:
; 68   : 	//	
; 69   : 		m_dwMem = 0 ;

  002bb	8b 45 f8	 mov	 eax, DWORD PTR _this$[ebp]
  002be	c7 40 14 00 00
	00 00		 mov	 DWORD PTR [eax+20], 0

; 70   : 		m_dwMem += sizeof(CProceduralRenderObject) ;

  002c5	8b 45 f8	 mov	 eax, DWORD PTR _this$[ebp]
  002c8	8b 48 14	 mov	 ecx, DWORD PTR [eax+20]
  002cb	81 c1 b8 0a 00
	00		 add	 ecx, 2744		; 00000ab8H
  002d1	8b 55 f8	 mov	 edx, DWORD PTR _this$[ebp]
  002d4	89 4a 14	 mov	 DWORD PTR [edx+20], ecx

; 71   : 		m_dwMem_X7LTs = 0 ;

  002d7	8b 45 f8	 mov	 eax, DWORD PTR _this$[ebp]
  002da	c7 40 18 00 00
	00 00		 mov	 DWORD PTR [eax+24], 0

; 72   : 		m_dwMem_IndexedVerts = 0 ;

  002e1	8b 45 f8	 mov	 eax, DWORD PTR _this$[ebp]
  002e4	c7 40 1c 00 00
	00 00		 mov	 DWORD PTR [eax+28], 0

; 73   : 		m_dwMem_RenderData = 0 ;

  002eb	8b 45 f8	 mov	 eax, DWORD PTR _this$[ebp]
  002ee	c7 40 20 00 00
	00 00		 mov	 DWORD PTR [eax+32], 0

; 74   : 		m_dwMem_BBox = 0 ;

  002f5	8b 45 f8	 mov	 eax, DWORD PTR _this$[ebp]
  002f8	c7 40 24 00 00
	00 00		 mov	 DWORD PTR [eax+36], 0

; 75   : 	}

  002ff	8b 45 f8	 mov	 eax, DWORD PTR _this$[ebp]
  00302	5f		 pop	 edi
  00303	5e		 pop	 esi
  00304	5b		 pop	 ebx
  00305	81 c4 d8 00 00
	00		 add	 esp, 216		; 000000d8H
  0030b	3b ec		 cmp	 ebp, esp
  0030d	e8 00 00 00 00	 call	 __RTC_CheckEsp
  00312	8b e5		 mov	 esp, ebp
  00314	5d		 pop	 ebp
  00315	c3		 ret	 0
??0CProceduralRenderObject@@QAE@XZ ENDP			; CProceduralRenderObject::CProceduralRenderObject
_TEXT	ENDS
PUBLIC	??_GCBoundingBox@@QAEPAXI@Z			; CBoundingBox::`scalar deleting destructor'
PUBLIC	??1CProceduralRenderObject@@QAE@XZ		; CProceduralRenderObject::~CProceduralRenderObject
EXTRN	??3@YAXPAX@Z:NEAR				; operator delete
EXTRN	_free:NEAR
; Function compile flags: /Odt /RTCsu /ZI
;	COMDAT ??1CProceduralRenderObject@@QAE@XZ
_TEXT	SEGMENT
tv199 = -340
$T86012 = -332
$T86011 = -320
$T86010 = -308
$T86009 = -296
$T86008 = -284
$T86007 = -272
$T86006 = -260
$T86005 = -248
_i$85380 = -44
_p2$85375 = -32
_p$85374 = -20
_this$ = -8
??1CProceduralRenderObject@@QAE@XZ PROC NEAR		; CProceduralRenderObject::~CProceduralRenderObject, COMDAT
; _this$ = ecx

; 77   : 	{

  00000	55		 push	 ebp
  00001	8b ec		 mov	 ebp, esp
  00003	81 ec 54 01 00
	00		 sub	 esp, 340		; 00000154H
  00009	53		 push	 ebx
  0000a	56		 push	 esi
  0000b	57		 push	 edi
  0000c	51		 push	 ecx
  0000d	8d bd ac fe ff
	ff		 lea	 edi, DWORD PTR [ebp-340]
  00013	b9 55 00 00 00	 mov	 ecx, 85			; 00000055H
  00018	b8 cc cc cc cc	 mov	 eax, -858993460		; ccccccccH
  0001d	f3 ab		 rep stosd
  0001f	59		 pop	 ecx
  00020	89 4d f8	 mov	 DWORD PTR _this$[ebp], ecx

; 78   : 		if (m_pX7LTs)

  00023	8b 45 f8	 mov	 eax, DWORD PTR _this$[ebp]
  00026	83 78 0c 00	 cmp	 DWORD PTR [eax+12], 0
  0002a	74 4b		 je	 SHORT $L85373

; 79   : 		{
; 80   : 			X7LT *p, *p2 ;
; 81   : 
; 82   : 			p = m_pX7LTs ;

  0002c	8b 45 f8	 mov	 eax, DWORD PTR _this$[ebp]
  0002f	8b 48 0c	 mov	 ecx, DWORD PTR [eax+12]
  00032	89 4d ec	 mov	 DWORD PTR _p$85374[ebp], ecx
$L85377:

; 83   : 			while (p->pNext)

  00035	8b 45 ec	 mov	 eax, DWORD PTR _p$85374[ebp]
  00038	83 b8 9c 00 00
	00 00		 cmp	 DWORD PTR [eax+156], 0
  0003f	74 20		 je	 SHORT $L85378

; 84   : 			{
; 85   : 				p2 = (X7LT*)p->pNext ;

  00041	8b 45 ec	 mov	 eax, DWORD PTR _p$85374[ebp]
  00044	8b 88 9c 00 00
	00		 mov	 ecx, DWORD PTR [eax+156]
  0004a	89 4d e0	 mov	 DWORD PTR _p2$85375[ebp], ecx

; 86   : 				free(p) ;

  0004d	8b 45 ec	 mov	 eax, DWORD PTR _p$85374[ebp]
  00050	50		 push	 eax
  00051	e8 00 00 00 00	 call	 _free
  00056	83 c4 04	 add	 esp, 4

; 87   : 				p = p2 ;

  00059	8b 45 e0	 mov	 eax, DWORD PTR _p2$85375[ebp]
  0005c	89 45 ec	 mov	 DWORD PTR _p$85374[ebp], eax

; 88   : 			}

  0005f	eb d4		 jmp	 SHORT $L85377
$L85378:

; 89   : 			free(p) ;

  00061	8b 45 ec	 mov	 eax, DWORD PTR _p$85374[ebp]
  00064	50		 push	 eax
  00065	e8 00 00 00 00	 call	 _free
  0006a	83 c4 04	 add	 esp, 4

; 90   : 			m_pX7LTs = NULL ;

  0006d	8b 45 f8	 mov	 eax, DWORD PTR _this$[ebp]
  00070	c7 40 0c 00 00
	00 00		 mov	 DWORD PTR [eax+12], 0
$L85373:

; 91   : 		}
; 92   : 		
; 93   : 		for (int i = 0 ; i < m_nRSs ; i ++)

  00077	c7 45 d4 00 00
	00 00		 mov	 DWORD PTR _i$85380[ebp], 0
  0007e	eb 09		 jmp	 SHORT $L85381
$L85382:
  00080	8b 45 d4	 mov	 eax, DWORD PTR _i$85380[ebp]
  00083	83 c0 01	 add	 eax, 1
  00086	89 45 d4	 mov	 DWORD PTR _i$85380[ebp], eax
$L85381:
  00089	8b 45 f8	 mov	 eax, DWORD PTR _this$[ebp]
  0008c	8b 4d d4	 mov	 ecx, DWORD PTR _i$85380[ebp]
  0008f	3b 88 48 0a 00
	00		 cmp	 ecx, DWORD PTR [eax+2632]
  00095	0f 8d cd 01 00
	00		 jge	 $L85383

; 94   : 		{
; 95   : 			if (m_ntvRS[i].pUnlitVertices)

  0009b	8b 45 d4	 mov	 eax, DWORD PTR _i$85380[ebp]
  0009e	69 c0 44 01 00
	00		 imul	 eax, 324		; 00000144H
  000a4	8b 4d f8	 mov	 ecx, DWORD PTR _this$[ebp]
  000a7	83 7c 01 30 00	 cmp	 DWORD PTR [ecx+eax+48], 0
  000ac	74 39		 je	 SHORT $L85384

; 96   : 			{
; 97   : 				delete m_ntvRS[i].pUnlitVertices ;

  000ae	8b 45 d4	 mov	 eax, DWORD PTR _i$85380[ebp]
  000b1	69 c0 44 01 00
	00		 imul	 eax, 324		; 00000144H
  000b7	8b 4d f8	 mov	 ecx, DWORD PTR _this$[ebp]
  000ba	8b 54 01 30	 mov	 edx, DWORD PTR [ecx+eax+48]
  000be	89 95 08 ff ff
	ff		 mov	 DWORD PTR $T86005[ebp], edx
  000c4	8b 85 08 ff ff
	ff		 mov	 eax, DWORD PTR $T86005[ebp]
  000ca	50		 push	 eax
  000cb	e8 00 00 00 00	 call	 ??3@YAXPAX@Z		; operator delete
  000d0	83 c4 04	 add	 esp, 4

; 98   : 				m_ntvRS[i].pUnlitVertices = NULL ;

  000d3	8b 45 d4	 mov	 eax, DWORD PTR _i$85380[ebp]
  000d6	69 c0 44 01 00
	00		 imul	 eax, 324		; 00000144H
  000dc	8b 4d f8	 mov	 ecx, DWORD PTR _this$[ebp]
  000df	c7 44 01 30 00
	00 00 00	 mov	 DWORD PTR [ecx+eax+48], 0
$L85384:

; 99   : 			}
; 100  : 			if (m_ntvRS[i].pLitVertices)

  000e7	8b 45 d4	 mov	 eax, DWORD PTR _i$85380[ebp]
  000ea	69 c0 44 01 00
	00		 imul	 eax, 324		; 00000144H
  000f0	8b 4d f8	 mov	 ecx, DWORD PTR _this$[ebp]
  000f3	83 7c 01 34 00	 cmp	 DWORD PTR [ecx+eax+52], 0
  000f8	74 39		 je	 SHORT $L85386

; 101  : 			{
; 102  : 				delete m_ntvRS[i].pLitVertices ;

  000fa	8b 45 d4	 mov	 eax, DWORD PTR _i$85380[ebp]
  000fd	69 c0 44 01 00
	00		 imul	 eax, 324		; 00000144H
  00103	8b 4d f8	 mov	 ecx, DWORD PTR _this$[ebp]
  00106	8b 54 01 34	 mov	 edx, DWORD PTR [ecx+eax+52]
  0010a	89 95 fc fe ff
	ff		 mov	 DWORD PTR $T86006[ebp], edx
  00110	8b 85 fc fe ff
	ff		 mov	 eax, DWORD PTR $T86006[ebp]
  00116	50		 push	 eax
  00117	e8 00 00 00 00	 call	 ??3@YAXPAX@Z		; operator delete
  0011c	83 c4 04	 add	 esp, 4

; 103  : 				m_ntvRS[i].pLitVertices = NULL ;

  0011f	8b 45 d4	 mov	 eax, DWORD PTR _i$85380[ebp]
  00122	69 c0 44 01 00
	00		 imul	 eax, 324		; 00000144H
  00128	8b 4d f8	 mov	 ecx, DWORD PTR _this$[ebp]
  0012b	c7 44 01 34 00
	00 00 00	 mov	 DWORD PTR [ecx+eax+52], 0
$L85386:

; 104  : 			}
; 105  : 			if (m_ntvRS[i].pLitVertices2Tex)

  00133	8b 45 d4	 mov	 eax, DWORD PTR _i$85380[ebp]
  00136	69 c0 44 01 00
	00		 imul	 eax, 324		; 00000144H
  0013c	8b 4d f8	 mov	 ecx, DWORD PTR _this$[ebp]
  0013f	83 7c 01 38 00	 cmp	 DWORD PTR [ecx+eax+56], 0
  00144	74 39		 je	 SHORT $L85388

; 106  : 			{
; 107  : 				delete m_ntvRS[i].pLitVertices2Tex ;

  00146	8b 45 d4	 mov	 eax, DWORD PTR _i$85380[ebp]
  00149	69 c0 44 01 00
	00		 imul	 eax, 324		; 00000144H
  0014f	8b 4d f8	 mov	 ecx, DWORD PTR _this$[ebp]
  00152	8b 54 01 38	 mov	 edx, DWORD PTR [ecx+eax+56]
  00156	89 95 f0 fe ff
	ff		 mov	 DWORD PTR $T86007[ebp], edx
  0015c	8b 85 f0 fe ff
	ff		 mov	 eax, DWORD PTR $T86007[ebp]
  00162	50		 push	 eax
  00163	e8 00 00 00 00	 call	 ??3@YAXPAX@Z		; operator delete
  00168	83 c4 04	 add	 esp, 4

; 108  : 				m_ntvRS[i].pLitVertices2Tex = NULL ;

  0016b	8b 45 d4	 mov	 eax, DWORD PTR _i$85380[ebp]
  0016e	69 c0 44 01 00
	00		 imul	 eax, 324		; 00000144H
  00174	8b 4d f8	 mov	 ecx, DWORD PTR _this$[ebp]
  00177	c7 44 01 38 00
	00 00 00	 mov	 DWORD PTR [ecx+eax+56], 0
$L85388:

; 109  : 			}
; 110  : 			if (m_ntvRS[i].pLitVerticesWithNormals)

  0017f	8b 45 d4	 mov	 eax, DWORD PTR _i$85380[ebp]
  00182	69 c0 44 01 00
	00		 imul	 eax, 324		; 00000144H
  00188	8b 4d f8	 mov	 ecx, DWORD PTR _this$[ebp]
  0018b	83 7c 01 3c 00	 cmp	 DWORD PTR [ecx+eax+60], 0
  00190	74 39		 je	 SHORT $L85390

; 111  : 			{
; 112  : 				delete m_ntvRS[i].pLitVerticesWithNormals ;

  00192	8b 45 d4	 mov	 eax, DWORD PTR _i$85380[ebp]
  00195	69 c0 44 01 00
	00		 imul	 eax, 324		; 00000144H
  0019b	8b 4d f8	 mov	 ecx, DWORD PTR _this$[ebp]
  0019e	8b 54 01 3c	 mov	 edx, DWORD PTR [ecx+eax+60]
  001a2	89 95 e4 fe ff
	ff		 mov	 DWORD PTR $T86008[ebp], edx
  001a8	8b 85 e4 fe ff
	ff		 mov	 eax, DWORD PTR $T86008[ebp]
  001ae	50		 push	 eax
  001af	e8 00 00 00 00	 call	 ??3@YAXPAX@Z		; operator delete
  001b4	83 c4 04	 add	 esp, 4

; 113  : 				m_ntvRS[i].pLitVerticesWithNormals = NULL ;

  001b7	8b 45 d4	 mov	 eax, DWORD PTR _i$85380[ebp]
  001ba	69 c0 44 01 00
	00		 imul	 eax, 324		; 00000144H
  001c0	8b 4d f8	 mov	 ecx, DWORD PTR _this$[ebp]
  001c3	c7 44 01 3c 00
	00 00 00	 mov	 DWORD PTR [ecx+eax+60], 0
$L85390:

; 114  : 			}
; 115  : 			if (m_ntvRS[i].pLitVerticesWithNormals2Tex)

  001cb	8b 45 d4	 mov	 eax, DWORD PTR _i$85380[ebp]
  001ce	69 c0 44 01 00
	00		 imul	 eax, 324		; 00000144H
  001d4	8b 4d f8	 mov	 ecx, DWORD PTR _this$[ebp]
  001d7	83 7c 01 40 00	 cmp	 DWORD PTR [ecx+eax+64], 0
  001dc	74 39		 je	 SHORT $L85392

; 116  : 			{
; 117  : 				delete m_ntvRS[i].pLitVerticesWithNormals2Tex ;

  001de	8b 45 d4	 mov	 eax, DWORD PTR _i$85380[ebp]
  001e1	69 c0 44 01 00
	00		 imul	 eax, 324		; 00000144H
  001e7	8b 4d f8	 mov	 ecx, DWORD PTR _this$[ebp]
  001ea	8b 54 01 40	 mov	 edx, DWORD PTR [ecx+eax+64]
  001ee	89 95 d8 fe ff
	ff		 mov	 DWORD PTR $T86009[ebp], edx
  001f4	8b 85 d8 fe ff
	ff		 mov	 eax, DWORD PTR $T86009[ebp]
  001fa	50		 push	 eax
  001fb	e8 00 00 00 00	 call	 ??3@YAXPAX@Z		; operator delete
  00200	83 c4 04	 add	 esp, 4

; 118  : 				m_ntvRS[i].pLitVerticesWithNormals2Tex = NULL ;

  00203	8b 45 d4	 mov	 eax, DWORD PTR _i$85380[ebp]
  00206	69 c0 44 01 00
	00		 imul	 eax, 324		; 00000144H
  0020c	8b 4d f8	 mov	 ecx, DWORD PTR _this$[ebp]
  0020f	c7 44 01 40 00
	00 00 00	 mov	 DWORD PTR [ecx+eax+64], 0
$L85392:

; 119  : 			}
; 120  : 
; 121  : 			if (m_ntvRS[i].pIndices)

  00217	8b 45 d4	 mov	 eax, DWORD PTR _i$85380[ebp]
  0021a	69 c0 44 01 00
	00		 imul	 eax, 324		; 00000144H
  00220	8b 4d f8	 mov	 ecx, DWORD PTR _this$[ebp]
  00223	83 7c 01 44 00	 cmp	 DWORD PTR [ecx+eax+68], 0
  00228	74 39		 je	 SHORT $L85394

; 122  : 			{
; 123  : 				delete m_ntvRS[i].pIndices ;

  0022a	8b 45 d4	 mov	 eax, DWORD PTR _i$85380[ebp]
  0022d	69 c0 44 01 00
	00		 imul	 eax, 324		; 00000144H
  00233	8b 4d f8	 mov	 ecx, DWORD PTR _this$[ebp]
  00236	8b 54 01 44	 mov	 edx, DWORD PTR [ecx+eax+68]
  0023a	89 95 cc fe ff
	ff		 mov	 DWORD PTR $T86010[ebp], edx
  00240	8b 85 cc fe ff
	ff		 mov	 eax, DWORD PTR $T86010[ebp]
  00246	50		 push	 eax
  00247	e8 00 00 00 00	 call	 ??3@YAXPAX@Z		; operator delete
  0024c	83 c4 04	 add	 esp, 4

; 124  : 				m_ntvRS[i].pIndices = NULL ;

  0024f	8b 45 d4	 mov	 eax, DWORD PTR _i$85380[ebp]
  00252	69 c0 44 01 00
	00		 imul	 eax, 324		; 00000144H
  00258	8b 4d f8	 mov	 ecx, DWORD PTR _this$[ebp]
  0025b	c7 44 01 44 00
	00 00 00	 mov	 DWORD PTR [ecx+eax+68], 0
$L85394:

; 125  : 			}
; 126  : 		}

  00263	e9 18 fe ff ff	 jmp	 $L85382
$L85383:

; 127  : 		
; 128  : 		SAFE_DELETE(m_pBBox)

  00268	8b 45 f8	 mov	 eax, DWORD PTR _this$[ebp]
  0026b	83 b8 70 0a 00
	00 00		 cmp	 DWORD PTR [eax+2672], 0
  00272	74 50		 je	 SHORT $L85372
  00274	8b 45 f8	 mov	 eax, DWORD PTR _this$[ebp]
  00277	8b 88 70 0a 00
	00		 mov	 ecx, DWORD PTR [eax+2672]
  0027d	89 8d b4 fe ff
	ff		 mov	 DWORD PTR $T86012[ebp], ecx
  00283	8b 95 b4 fe ff
	ff		 mov	 edx, DWORD PTR $T86012[ebp]
  00289	89 95 c0 fe ff
	ff		 mov	 DWORD PTR $T86011[ebp], edx
  0028f	83 bd c0 fe ff
	ff 00		 cmp	 DWORD PTR $T86011[ebp], 0
  00296	74 15		 je	 SHORT $L86013
  00298	6a 01		 push	 1
  0029a	8b 8d c0 fe ff
	ff		 mov	 ecx, DWORD PTR $T86011[ebp]
  002a0	e8 00 00 00 00	 call	 ??_GCBoundingBox@@QAEPAXI@Z
  002a5	89 85 ac fe ff
	ff		 mov	 DWORD PTR tv199[ebp], eax
  002ab	eb 0a		 jmp	 SHORT $L86014
$L86013:
  002ad	c7 85 ac fe ff
	ff 00 00 00 00	 mov	 DWORD PTR tv199[ebp], 0
$L86014:
  002b7	8b 45 f8	 mov	 eax, DWORD PTR _this$[ebp]
  002ba	c7 80 70 0a 00
	00 00 00 00 00	 mov	 DWORD PTR [eax+2672], 0
$L85372:

; 129  : 	}

  002c4	5f		 pop	 edi
  002c5	5e		 pop	 esi
  002c6	5b		 pop	 ebx
  002c7	81 c4 54 01 00
	00		 add	 esp, 340		; 00000154H
  002cd	3b ec		 cmp	 ebp, esp
  002cf	e8 00 00 00 00	 call	 __RTC_CheckEsp
  002d4	8b e5		 mov	 esp, ebp
  002d6	5d		 pop	 ebp
  002d7	c3		 ret	 0
??1CProceduralRenderObject@@QAE@XZ ENDP			; CProceduralRenderObject::~CProceduralRenderObject
_TEXT	ENDS
EXTRN	??1CBoundingBox@@QAE@XZ:NEAR			; CBoundingBox::~CBoundingBox
; Function compile flags: /Odt /RTCsu /ZI
;	COMDAT ??_GCBoundingBox@@QAEPAXI@Z
_TEXT	SEGMENT
_this$ = -8
___flags$ = 8
??_GCBoundingBox@@QAEPAXI@Z PROC NEAR			; CBoundingBox::`scalar deleting destructor', COMDAT
; _this$ = ecx
  00000	55		 push	 ebp
  00001	8b ec		 mov	 ebp, esp
  00003	81 ec cc 00 00
	00		 sub	 esp, 204		; 000000ccH
  00009	53		 push	 ebx
  0000a	56		 push	 esi
  0000b	57		 push	 edi
  0000c	51		 push	 ecx
  0000d	8d bd 34 ff ff
	ff		 lea	 edi, DWORD PTR [ebp-204]
  00013	b9 33 00 00 00	 mov	 ecx, 51			; 00000033H
  00018	b8 cc cc cc cc	 mov	 eax, -858993460		; ccccccccH
  0001d	f3 ab		 rep stosd
  0001f	59		 pop	 ecx
  00020	89 4d f8	 mov	 DWORD PTR _this$[ebp], ecx
  00023	8b 4d f8	 mov	 ecx, DWORD PTR _this$[ebp]
  00026	e8 00 00 00 00	 call	 ??1CBoundingBox@@QAE@XZ	; CBoundingBox::~CBoundingBox
  0002b	8b 45 08	 mov	 eax, DWORD PTR ___flags$[ebp]
  0002e	83 e0 01	 and	 eax, 1
  00031	85 c0		 test	 eax, eax
  00033	74 0c		 je	 SHORT $L85402
  00035	8b 45 f8	 mov	 eax, DWORD PTR _this$[ebp]
  00038	50		 push	 eax
  00039	e8 00 00 00 00	 call	 ??3@YAXPAX@Z		; operator delete
  0003e	83 c4 04	 add	 esp, 4
$L85402:
  00041	8b 45 f8	 mov	 eax, DWORD PTR _this$[ebp]
  00044	5f		 pop	 edi
  00045	5e		 pop	 esi
  00046	5b		 pop	 ebx
  00047	81 c4 cc 00 00
	00		 add	 esp, 204		; 000000ccH
  0004d	3b ec		 cmp	 ebp, esp
  0004f	e8 00 00 00 00	 call	 __RTC_CheckEsp
  00054	8b e5		 mov	 esp, ebp
  00056	5d		 pop	 ebp
  00057	c2 04 00	 ret	 4
??_GCBoundingBox@@QAEPAXI@Z ENDP			; CBoundingBox::`scalar deleting destructor'
_TEXT	ENDS
PUBLIC	?AddX7LT@CProceduralRenderObject@@QAEPAUX7LT@@PAUUNCOLOREDVERTEX@@PAK1KKPAM2@Z ; CProceduralRenderObject::AddX7LT
PUBLIC	?LastX7LT@CProceduralRenderObject@@QAEPAUX7LT@@XZ ; CProceduralRenderObject::LastX7LT
PUBLIC	?__LINE__Var@?1??AddX7LT@CProceduralRenderObject@@QAEPAUX7LT@@PAUUNCOLOREDVERTEX@@PAK1KKPAM2@Z@4JA ; `CProceduralRenderObject::AddX7LT'::`2'::__LINE__Var
PUBLIC	??_C@_0FJ@JJKKIHO@c?3?2documents?5and?5settings?2dom?2my@ ; `string'
PUBLIC	??_C@_08JJANBJDD@m_pX7LTs?$AA@			; `string'
PUBLIC	??_C@_0N@DFPKBKHI@pLast?9?$DOpNext?$AA@		; `string'
EXTRN	_memcpy:NEAR
EXTRN	_malloc:NEAR
EXTRN	__assert:NEAR
;	COMDAT ?__LINE__Var@?1??AddX7LT@CProceduralRenderObject@@QAEPAUX7LT@@PAUUNCOLOREDVERTEX@@PAK1KKPAM2@Z@4JA
_DATA	SEGMENT
?__LINE__Var@?1??AddX7LT@CProceduralRenderObject@@QAEPAUX7LT@@PAUUNCOLOREDVERTEX@@PAK1KKPAM2@Z@4JA DD 091H ; `CProceduralRenderObject::AddX7LT'::`2'::__LINE__Var
_DATA	ENDS
;	COMDAT ??_C@_0FJ@JJKKIHO@c?3?2documents?5and?5settings?2dom?2my@
CONST	SEGMENT
??_C@_0FJ@JJKKIHO@c?3?2documents?5and?5settings?2dom?2my@ DB 'c:\document'
	DB	's and settings\dom\my documents\_dev\ae\xlr8a\x7g\cprocedural'
	DB	'renderobject.cpp', 00H			; `string'
CONST	ENDS
;	COMDAT ??_C@_08JJANBJDD@m_pX7LTs?$AA@
CONST	SEGMENT
??_C@_08JJANBJDD@m_pX7LTs?$AA@ DB 'm_pX7LTs', 00H	; `string'
CONST	ENDS
;	COMDAT ??_C@_0N@DFPKBKHI@pLast?9?$DOpNext?$AA@
CONST	SEGMENT
??_C@_0N@DFPKBKHI@pLast?9?$DOpNext?$AA@ DB 'pLast->pNext', 00H ; `string'
; Function compile flags: /Odt /RTCsu /ZI
CONST	ENDS
;	COMDAT ?AddX7LT@CProceduralRenderObject@@QAEPAUX7LT@@PAUUNCOLOREDVERTEX@@PAK1KKPAM2@Z
_TEXT	SEGMENT
_i$85429 = -44
_pNew$ = -32
_pLast$ = -20
_this$ = -8
_pVerts$ = 8
_pColors$ = 12
_pSpecularColors$ = 16
_ndxTex$ = 20
_ndxTex2$ = 24
_pfTU2$ = 28
_pfTV2$ = 32
?AddX7LT@CProceduralRenderObject@@QAEPAUX7LT@@PAUUNCOLOREDVERTEX@@PAK1KKPAM2@Z PROC NEAR ; CProceduralRenderObject::AddX7LT, COMDAT
; _this$ = ecx

; 145  : 	{

  00000	55		 push	 ebp
  00001	8b ec		 mov	 ebp, esp
  00003	81 ec f0 00 00
	00		 sub	 esp, 240		; 000000f0H
  00009	53		 push	 ebx
  0000a	56		 push	 esi
  0000b	57		 push	 edi
  0000c	51		 push	 ecx
  0000d	8d bd 10 ff ff
	ff		 lea	 edi, DWORD PTR [ebp-240]
  00013	b9 3c 00 00 00	 mov	 ecx, 60			; 0000003cH
  00018	b8 cc cc cc cc	 mov	 eax, -858993460		; ccccccccH
  0001d	f3 ab		 rep stosd
  0001f	59		 pop	 ecx
  00020	89 4d f8	 mov	 DWORD PTR _this$[ebp], ecx

; 146  : 		X7LT *pLast, *pNew ;
; 147  : 		
; 148  : 		m_dwMem_X7LTs += sizeof(X7LT) ;

  00023	8b 45 f8	 mov	 eax, DWORD PTR _this$[ebp]
  00026	8b 48 18	 mov	 ecx, DWORD PTR [eax+24]
  00029	81 c1 ac 00 00
	00		 add	 ecx, 172		; 000000acH
  0002f	8b 55 f8	 mov	 edx, DWORD PTR _this$[ebp]
  00032	89 4a 18	 mov	 DWORD PTR [edx+24], ecx

; 149  : 
; 150  : 	//
; 151  : 	// First triangle in the linked list needs special attention:
; 152  : 	//
; 153  : 		if (!m_pX7LTs)

  00035	8b 45 f8	 mov	 eax, DWORD PTR _this$[ebp]
  00038	83 78 0c 00	 cmp	 DWORD PTR [eax+12], 0
  0003c	0f 85 f0 00 00
	00		 jne	 $L85416

; 154  : 		{
; 155  : 			m_pX7LTs = (X7LT*)malloc(sizeof(X7LT)) ;

  00042	68 ac 00 00 00	 push	 172			; 000000acH
  00047	e8 00 00 00 00	 call	 _malloc
  0004c	83 c4 04	 add	 esp, 4
  0004f	8b 4d f8	 mov	 ecx, DWORD PTR _this$[ebp]
  00052	89 41 0c	 mov	 DWORD PTR [ecx+12], eax

; 156  : 			assert( m_pX7LTs );

  00055	8b 45 f8	 mov	 eax, DWORD PTR _this$[ebp]
  00058	83 78 0c 00	 cmp	 DWORD PTR [eax+12], 0
  0005c	75 1c		 jne	 SHORT $L86019
  0005e	8b 0d 00 00 00
	00		 mov	 ecx, DWORD PTR ?__LINE__Var@?1??AddX7LT@CProceduralRenderObject@@QAEPAUX7LT@@PAUUNCOLOREDVERTEX@@PAK1KKPAM2@Z@4JA
  00064	83 c1 0b	 add	 ecx, 11			; 0000000bH
  00067	51		 push	 ecx
  00068	68 00 00 00 00	 push	 OFFSET FLAT:??_C@_0FJ@JJKKIHO@c?3?2documents?5and?5settings?2dom?2my@
  0006d	68 00 00 00 00	 push	 OFFSET FLAT:??_C@_08JJANBJDD@m_pX7LTs?$AA@
  00072	e8 00 00 00 00	 call	 __assert
  00077	83 c4 0c	 add	 esp, 12			; 0000000cH
$L86019:

; 157  : 			m_pX7LTs->pPrevious = NULL ;

  0007a	8b 45 f8	 mov	 eax, DWORD PTR _this$[ebp]
  0007d	8b 48 0c	 mov	 ecx, DWORD PTR [eax+12]
  00080	c7 81 a0 00 00
	00 00 00 00 00	 mov	 DWORD PTR [ecx+160], 0

; 158  : 			m_pX7LTs->pNext = NULL ;

  0008a	8b 45 f8	 mov	 eax, DWORD PTR _this$[ebp]
  0008d	8b 48 0c	 mov	 ecx, DWORD PTR [eax+12]
  00090	c7 81 9c 00 00
	00 00 00 00 00	 mov	 DWORD PTR [ecx+156], 0

; 159  : 			m_pX7LTs->bColors = m_pX7LTs->bSpecularColors = FALSE ;

  0009a	8b 45 f8	 mov	 eax, DWORD PTR _this$[ebp]
  0009d	8b 48 0c	 mov	 ecx, DWORD PTR [eax+12]
  000a0	c7 41 70 00 00
	00 00		 mov	 DWORD PTR [ecx+112], 0
  000a7	8b 55 f8	 mov	 edx, DWORD PTR _this$[ebp]
  000aa	8b 42 0c	 mov	 eax, DWORD PTR [edx+12]
  000ad	c7 40 60 00 00
	00 00		 mov	 DWORD PTR [eax+96], 0

; 160  : 			m_pX7LTs->fTU2[0] = m_pX7LTs->fTU2[1] = m_pX7LTs->fTU2[2] = 0.0f ;

  000b4	8b 45 f8	 mov	 eax, DWORD PTR _this$[ebp]
  000b7	8b 48 0c	 mov	 ecx, DWORD PTR [eax+12]
  000ba	c7 81 8c 00 00
	00 00 00 00 00	 mov	 DWORD PTR [ecx+140], 0
  000c4	8b 55 f8	 mov	 edx, DWORD PTR _this$[ebp]
  000c7	8b 42 0c	 mov	 eax, DWORD PTR [edx+12]
  000ca	c7 80 88 00 00
	00 00 00 00 00	 mov	 DWORD PTR [eax+136], 0
  000d4	8b 4d f8	 mov	 ecx, DWORD PTR _this$[ebp]
  000d7	8b 51 0c	 mov	 edx, DWORD PTR [ecx+12]
  000da	c7 82 84 00 00
	00 00 00 00 00	 mov	 DWORD PTR [edx+132], 0

; 161  : 			m_pX7LTs->fTV2[0] = m_pX7LTs->fTV2[1] = m_pX7LTs->fTV2[2] = 0.0f ;

  000e4	8b 45 f8	 mov	 eax, DWORD PTR _this$[ebp]
  000e7	8b 48 0c	 mov	 ecx, DWORD PTR [eax+12]
  000ea	c7 81 98 00 00
	00 00 00 00 00	 mov	 DWORD PTR [ecx+152], 0
  000f4	8b 55 f8	 mov	 edx, DWORD PTR _this$[ebp]
  000f7	8b 42 0c	 mov	 eax, DWORD PTR [edx+12]
  000fa	c7 80 94 00 00
	00 00 00 00 00	 mov	 DWORD PTR [eax+148], 0
  00104	8b 4d f8	 mov	 ecx, DWORD PTR _this$[ebp]
  00107	8b 51 0c	 mov	 edx, DWORD PTR [ecx+12]
  0010a	c7 82 90 00 00
	00 00 00 00 00	 mov	 DWORD PTR [edx+144], 0

; 162  : 			m_pX7LTs->ndxTex2 = 0 ;

  00114	8b 45 f8	 mov	 eax, DWORD PTR _this$[ebp]
  00117	8b 48 0c	 mov	 ecx, DWORD PTR [eax+12]
  0011a	c7 81 a8 00 00
	00 00 00 00 00	 mov	 DWORD PTR [ecx+168], 0

; 163  : 			pNew = m_pX7LTs ;

  00124	8b 45 f8	 mov	 eax, DWORD PTR _this$[ebp]
  00127	8b 48 0c	 mov	 ecx, DWORD PTR [eax+12]
  0012a	89 4d e0	 mov	 DWORD PTR _pNew$[ebp], ecx

; 164  : 		}
; 165  : 	//
; 166  : 	// All others follow the same pattern:
; 167  : 	//
; 168  : 		else

  0012d	e9 dd 00 00 00	 jmp	 $L85423
$L85416:

; 169  : 		{
; 170  : 			pLast = LastX7LT() ;

  00132	8b 4d f8	 mov	 ecx, DWORD PTR _this$[ebp]
  00135	e8 00 00 00 00	 call	 ?LastX7LT@CProceduralRenderObject@@QAEPAUX7LT@@XZ ; CProceduralRenderObject::LastX7LT
  0013a	89 45 ec	 mov	 DWORD PTR _pLast$[ebp], eax

; 171  : 			pLast->pNext = (X7LT*)malloc(sizeof(X7LT)) ;

  0013d	68 ac 00 00 00	 push	 172			; 000000acH
  00142	e8 00 00 00 00	 call	 _malloc
  00147	83 c4 04	 add	 esp, 4
  0014a	8b 4d ec	 mov	 ecx, DWORD PTR _pLast$[ebp]
  0014d	89 81 9c 00 00
	00		 mov	 DWORD PTR [ecx+156], eax

; 172  : 			assert( pLast->pNext );

  00153	8b 45 ec	 mov	 eax, DWORD PTR _pLast$[ebp]
  00156	83 b8 9c 00 00
	00 00		 cmp	 DWORD PTR [eax+156], 0
  0015d	75 1c		 jne	 SHORT $L86020
  0015f	8b 0d 00 00 00
	00		 mov	 ecx, DWORD PTR ?__LINE__Var@?1??AddX7LT@CProceduralRenderObject@@QAEPAUX7LT@@PAUUNCOLOREDVERTEX@@PAK1KKPAM2@Z@4JA
  00165	83 c1 1b	 add	 ecx, 27			; 0000001bH
  00168	51		 push	 ecx
  00169	68 00 00 00 00	 push	 OFFSET FLAT:??_C@_0FJ@JJKKIHO@c?3?2documents?5and?5settings?2dom?2my@
  0016e	68 00 00 00 00	 push	 OFFSET FLAT:??_C@_0N@DFPKBKHI@pLast?9?$DOpNext?$AA@
  00173	e8 00 00 00 00	 call	 __assert
  00178	83 c4 0c	 add	 esp, 12			; 0000000cH
$L86020:

; 173  : 
; 174  : 			pNew = (X7LT*)pLast->pNext ;

  0017b	8b 45 ec	 mov	 eax, DWORD PTR _pLast$[ebp]
  0017e	8b 88 9c 00 00
	00		 mov	 ecx, DWORD PTR [eax+156]
  00184	89 4d e0	 mov	 DWORD PTR _pNew$[ebp], ecx

; 175  : 			pNew->pPrevious = pLast ;

  00187	8b 45 e0	 mov	 eax, DWORD PTR _pNew$[ebp]
  0018a	8b 4d ec	 mov	 ecx, DWORD PTR _pLast$[ebp]
  0018d	89 88 a0 00 00
	00		 mov	 DWORD PTR [eax+160], ecx

; 176  : 			pNew->pNext = NULL ;

  00193	8b 45 e0	 mov	 eax, DWORD PTR _pNew$[ebp]
  00196	c7 80 9c 00 00
	00 00 00 00 00	 mov	 DWORD PTR [eax+156], 0

; 177  : 			pNew->bColors = pNew->bSpecularColors = FALSE ;

  001a0	8b 45 e0	 mov	 eax, DWORD PTR _pNew$[ebp]
  001a3	c7 40 70 00 00
	00 00		 mov	 DWORD PTR [eax+112], 0
  001aa	8b 4d e0	 mov	 ecx, DWORD PTR _pNew$[ebp]
  001ad	c7 41 60 00 00
	00 00		 mov	 DWORD PTR [ecx+96], 0

; 178  : 			pNew->fTU2[0] = pNew->fTU2[1] = pNew->fTU2[2] = 0.0f ;

  001b4	8b 45 e0	 mov	 eax, DWORD PTR _pNew$[ebp]
  001b7	c7 80 8c 00 00
	00 00 00 00 00	 mov	 DWORD PTR [eax+140], 0
  001c1	8b 4d e0	 mov	 ecx, DWORD PTR _pNew$[ebp]
  001c4	c7 81 88 00 00
	00 00 00 00 00	 mov	 DWORD PTR [ecx+136], 0
  001ce	8b 55 e0	 mov	 edx, DWORD PTR _pNew$[ebp]
  001d1	c7 82 84 00 00
	00 00 00 00 00	 mov	 DWORD PTR [edx+132], 0

; 179  : 			pNew->fTV2[0] = pNew->fTV2[1] = pNew->fTV2[2] = 0.0f ;

  001db	8b 45 e0	 mov	 eax, DWORD PTR _pNew$[ebp]
  001de	c7 80 98 00 00
	00 00 00 00 00	 mov	 DWORD PTR [eax+152], 0
  001e8	8b 4d e0	 mov	 ecx, DWORD PTR _pNew$[ebp]
  001eb	c7 81 94 00 00
	00 00 00 00 00	 mov	 DWORD PTR [ecx+148], 0
  001f5	8b 55 e0	 mov	 edx, DWORD PTR _pNew$[ebp]
  001f8	c7 82 90 00 00
	00 00 00 00 00	 mov	 DWORD PTR [edx+144], 0

; 180  : 			pNew->ndxTex2 = 0 ;

  00202	8b 45 e0	 mov	 eax, DWORD PTR _pNew$[ebp]
  00205	c7 80 a8 00 00
	00 00 00 00 00	 mov	 DWORD PTR [eax+168], 0
$L85423:

; 181  : 		}
; 182  : 		
; 183  : 	//
; 184  : 	// pNew is now the target address for the new vertex data:
; 185  : 	//
; 186  : 		for (int i = 0 ; i < 3 ; i ++)

  0020f	c7 45 d4 00 00
	00 00		 mov	 DWORD PTR _i$85429[ebp], 0
  00216	eb 09		 jmp	 SHORT $L85430
$L85431:
  00218	8b 45 d4	 mov	 eax, DWORD PTR _i$85429[ebp]
  0021b	83 c0 01	 add	 eax, 1
  0021e	89 45 d4	 mov	 DWORD PTR _i$85429[ebp], eax
$L85430:
  00221	83 7d d4 03	 cmp	 DWORD PTR _i$85429[ebp], 3
  00225	0f 8d bf 00 00
	00		 jge	 $L85432

; 187  : 		{
; 188  : 			memcpy((UNCOLOREDVERTEX*)&(pNew->Points[i]),
; 189  : 				   (UNCOLOREDVERTEX*)&(pVerts[i]),
; 190  : 					sizeof(UNCOLOREDVERTEX)) ;

  0022b	6a 20		 push	 32			; 00000020H
  0022d	8b 45 d4	 mov	 eax, DWORD PTR _i$85429[ebp]
  00230	c1 e0 05	 shl	 eax, 5
  00233	8b 4d 08	 mov	 ecx, DWORD PTR _pVerts$[ebp]
  00236	03 c8		 add	 ecx, eax
  00238	51		 push	 ecx
  00239	8b 55 d4	 mov	 edx, DWORD PTR _i$85429[ebp]
  0023c	c1 e2 05	 shl	 edx, 5
  0023f	8b 45 e0	 mov	 eax, DWORD PTR _pNew$[ebp]
  00242	03 c2		 add	 eax, edx
  00244	50		 push	 eax
  00245	e8 00 00 00 00	 call	 _memcpy
  0024a	83 c4 0c	 add	 esp, 12			; 0000000cH

; 191  : 			
; 192  : 			if (pColors)

  0024d	83 7d 0c 00	 cmp	 DWORD PTR _pColors$[ebp], 0
  00251	74 1d		 je	 SHORT $L85436

; 193  : 			{
; 194  : 				pNew->Colors[i] = pColors[i] ;

  00253	8b 45 d4	 mov	 eax, DWORD PTR _i$85429[ebp]
  00256	8b 4d e0	 mov	 ecx, DWORD PTR _pNew$[ebp]
  00259	8b 55 d4	 mov	 edx, DWORD PTR _i$85429[ebp]
  0025c	8b 75 0c	 mov	 esi, DWORD PTR _pColors$[ebp]
  0025f	8b 14 96	 mov	 edx, DWORD PTR [esi+edx*4]
  00262	89 54 81 64	 mov	 DWORD PTR [ecx+eax*4+100], edx

; 195  : 				pNew->bColors = TRUE ;

  00266	8b 45 e0	 mov	 eax, DWORD PTR _pNew$[ebp]
  00269	c7 40 60 01 00
	00 00		 mov	 DWORD PTR [eax+96], 1
$L85436:

; 196  : 			}
; 197  : 			if (pSpecularColors)

  00270	83 7d 10 00	 cmp	 DWORD PTR _pSpecularColors$[ebp], 0
  00274	74 1d		 je	 SHORT $L85437

; 198  : 			{		
; 199  : 				pNew->SpecularColors[i] = pSpecularColors[i] ;

  00276	8b 45 d4	 mov	 eax, DWORD PTR _i$85429[ebp]
  00279	8b 4d e0	 mov	 ecx, DWORD PTR _pNew$[ebp]
  0027c	8b 55 d4	 mov	 edx, DWORD PTR _i$85429[ebp]
  0027f	8b 75 10	 mov	 esi, DWORD PTR _pSpecularColors$[ebp]
  00282	8b 14 96	 mov	 edx, DWORD PTR [esi+edx*4]
  00285	89 54 81 74	 mov	 DWORD PTR [ecx+eax*4+116], edx

; 200  : 				pNew->bSpecularColors = TRUE ;

  00289	8b 45 e0	 mov	 eax, DWORD PTR _pNew$[ebp]
  0028c	c7 40 70 01 00
	00 00		 mov	 DWORD PTR [eax+112], 1
$L85437:

; 201  : 			}
; 202  : 
; 203  : 			if (pfTU2)

  00293	83 7d 1c 00	 cmp	 DWORD PTR _pfTU2$[ebp], 0
  00297	74 23		 je	 SHORT $L85438

; 204  : 			{
; 205  : 				pNew->fTU2[i] = pfTU2[i] ;

  00299	8b 45 d4	 mov	 eax, DWORD PTR _i$85429[ebp]
  0029c	8b 4d e0	 mov	 ecx, DWORD PTR _pNew$[ebp]
  0029f	8b 55 d4	 mov	 edx, DWORD PTR _i$85429[ebp]
  002a2	8b 75 1c	 mov	 esi, DWORD PTR _pfTU2$[ebp]
  002a5	8b 14 96	 mov	 edx, DWORD PTR [esi+edx*4]
  002a8	89 94 81 84 00
	00 00		 mov	 DWORD PTR [ecx+eax*4+132], edx

; 206  : 				pNew->b2Tex = TRUE ;

  002af	8b 45 e0	 mov	 eax, DWORD PTR _pNew$[ebp]
  002b2	c7 80 80 00 00
	00 01 00 00 00	 mov	 DWORD PTR [eax+128], 1
$L85438:

; 207  : 			}
; 208  : 			if (pfTV2)

  002bc	83 7d 20 00	 cmp	 DWORD PTR _pfTV2$[ebp], 0
  002c0	74 23		 je	 SHORT $L85439

; 209  : 			{
; 210  : 				pNew->fTV2[i] = pfTV2[i] ;

  002c2	8b 45 d4	 mov	 eax, DWORD PTR _i$85429[ebp]
  002c5	8b 4d e0	 mov	 ecx, DWORD PTR _pNew$[ebp]
  002c8	8b 55 d4	 mov	 edx, DWORD PTR _i$85429[ebp]
  002cb	8b 75 20	 mov	 esi, DWORD PTR _pfTV2$[ebp]
  002ce	8b 14 96	 mov	 edx, DWORD PTR [esi+edx*4]
  002d1	89 94 81 90 00
	00 00		 mov	 DWORD PTR [ecx+eax*4+144], edx

; 211  : 				pNew->b2Tex = TRUE ;

  002d8	8b 45 e0	 mov	 eax, DWORD PTR _pNew$[ebp]
  002db	c7 80 80 00 00
	00 01 00 00 00	 mov	 DWORD PTR [eax+128], 1
$L85439:

; 212  : 			}
; 213  : 		}

  002e5	e9 2e ff ff ff	 jmp	 $L85431
$L85432:

; 214  : 		pNew->ndxTex = ndxTex ;

  002ea	8b 45 e0	 mov	 eax, DWORD PTR _pNew$[ebp]
  002ed	8b 4d 14	 mov	 ecx, DWORD PTR _ndxTex$[ebp]
  002f0	89 88 a4 00 00
	00		 mov	 DWORD PTR [eax+164], ecx

; 215  : 		pNew->ndxTex2 = ndxTex2 ;

  002f6	8b 45 e0	 mov	 eax, DWORD PTR _pNew$[ebp]
  002f9	8b 4d 18	 mov	 ecx, DWORD PTR _ndxTex2$[ebp]
  002fc	89 88 a8 00 00
	00		 mov	 DWORD PTR [eax+168], ecx

; 216  : 
; 217  : 		m_pFastLastX7LT = LastX7LT() ;

  00302	8b 4d f8	 mov	 ecx, DWORD PTR _this$[ebp]
  00305	e8 00 00 00 00	 call	 ?LastX7LT@CProceduralRenderObject@@QAEPAUX7LT@@XZ ; CProceduralRenderObject::LastX7LT
  0030a	8b 4d f8	 mov	 ecx, DWORD PTR _this$[ebp]
  0030d	89 41 10	 mov	 DWORD PTR [ecx+16], eax

; 218  : 		m_nBaseX7LTs ++ ;

  00310	8b 45 f8	 mov	 eax, DWORD PTR _this$[ebp]
  00313	8b 48 08	 mov	 ecx, DWORD PTR [eax+8]
  00316	83 c1 01	 add	 ecx, 1
  00319	8b 55 f8	 mov	 edx, DWORD PTR _this$[ebp]
  0031c	89 4a 08	 mov	 DWORD PTR [edx+8], ecx

; 219  : 
; 220  : 		return pNew ;

  0031f	8b 45 e0	 mov	 eax, DWORD PTR _pNew$[ebp]

; 221  : 	}

  00322	5f		 pop	 edi
  00323	5e		 pop	 esi
  00324	5b		 pop	 ebx
  00325	81 c4 f0 00 00
	00		 add	 esp, 240		; 000000f0H
  0032b	3b ec		 cmp	 ebp, esp
  0032d	e8 00 00 00 00	 call	 __RTC_CheckEsp
  00332	8b e5		 mov	 esp, ebp
  00334	5d		 pop	 ebp
  00335	c2 1c 00	 ret	 28			; 0000001cH
?AddX7LT@CProceduralRenderObject@@QAEPAUX7LT@@PAUUNCOLOREDVERTEX@@PAK1KKPAM2@Z ENDP ; CProceduralRenderObject::AddX7LT
; Function compile flags: /Odt /RTCsu /ZI
_TEXT	ENDS
;	COMDAT ?LastX7LT@CProceduralRenderObject@@QAEPAUX7LT@@XZ
_TEXT	SEGMENT
_p$ = -20
_this$ = -8
?LastX7LT@CProceduralRenderObject@@QAEPAUX7LT@@XZ PROC NEAR ; CProceduralRenderObject::LastX7LT, COMDAT
; _this$ = ecx

; 223  : 	{

  00000	55		 push	 ebp
  00001	8b ec		 mov	 ebp, esp
  00003	81 ec d8 00 00
	00		 sub	 esp, 216		; 000000d8H
  00009	53		 push	 ebx
  0000a	56		 push	 esi
  0000b	57		 push	 edi
  0000c	51		 push	 ecx
  0000d	8d bd 28 ff ff
	ff		 lea	 edi, DWORD PTR [ebp-216]
  00013	b9 36 00 00 00	 mov	 ecx, 54			; 00000036H
  00018	b8 cc cc cc cc	 mov	 eax, -858993460		; ccccccccH
  0001d	f3 ab		 rep stosd
  0001f	59		 pop	 ecx
  00020	89 4d f8	 mov	 DWORD PTR _this$[ebp], ecx

; 224  : 		X7LT *p ;
; 225  : 
; 226  : 		p = m_pX7LTs ;

  00023	8b 45 f8	 mov	 eax, DWORD PTR _this$[ebp]
  00026	8b 48 0c	 mov	 ecx, DWORD PTR [eax+12]
  00029	89 4d ec	 mov	 DWORD PTR _p$[ebp], ecx
$L85445:

; 227  : 		while (p->pNext)

  0002c	8b 45 ec	 mov	 eax, DWORD PTR _p$[ebp]
  0002f	83 b8 9c 00 00
	00 00		 cmp	 DWORD PTR [eax+156], 0
  00036	74 0e		 je	 SHORT $L85446

; 228  : 			p = (X7LT*)p->pNext ;

  00038	8b 45 ec	 mov	 eax, DWORD PTR _p$[ebp]
  0003b	8b 88 9c 00 00
	00		 mov	 ecx, DWORD PTR [eax+156]
  00041	89 4d ec	 mov	 DWORD PTR _p$[ebp], ecx
  00044	eb e6		 jmp	 SHORT $L85445
$L85446:

; 229  : 		
; 230  : 		return p ;

  00046	8b 45 ec	 mov	 eax, DWORD PTR _p$[ebp]

; 231  : 	}

  00049	5f		 pop	 edi
  0004a	5e		 pop	 esi
  0004b	5b		 pop	 ebx
  0004c	8b e5		 mov	 esp, ebp
  0004e	5d		 pop	 ebp
  0004f	c3		 ret	 0
?LastX7LT@CProceduralRenderObject@@QAEPAUX7LT@@XZ ENDP	; CProceduralRenderObject::LastX7LT
_TEXT	ENDS
PUBLIC	?FirstX7LT@CProceduralRenderObject@@QAEPAUX7LT@@XZ ; CProceduralRenderObject::FirstX7LT
; Function compile flags: /Odt /RTCsu /ZI
;	COMDAT ?FirstX7LT@CProceduralRenderObject@@QAEPAUX7LT@@XZ
_TEXT	SEGMENT
_this$ = -8
?FirstX7LT@CProceduralRenderObject@@QAEPAUX7LT@@XZ PROC NEAR ; CProceduralRenderObject::FirstX7LT, COMDAT
; _this$ = ecx

; 233  : 	{

  00000	55		 push	 ebp
  00001	8b ec		 mov	 ebp, esp
  00003	81 ec cc 00 00
	00		 sub	 esp, 204		; 000000ccH
  00009	53		 push	 ebx
  0000a	56		 push	 esi
  0000b	57		 push	 edi
  0000c	51		 push	 ecx
  0000d	8d bd 34 ff ff
	ff		 lea	 edi, DWORD PTR [ebp-204]
  00013	b9 33 00 00 00	 mov	 ecx, 51			; 00000033H
  00018	b8 cc cc cc cc	 mov	 eax, -858993460		; ccccccccH
  0001d	f3 ab		 rep stosd
  0001f	59		 pop	 ecx
  00020	89 4d f8	 mov	 DWORD PTR _this$[ebp], ecx

; 234  : 		return m_pX7LTs ;

  00023	8b 45 f8	 mov	 eax, DWORD PTR _this$[ebp]
  00026	8b 40 0c	 mov	 eax, DWORD PTR [eax+12]

; 235  : 	}

  00029	5f		 pop	 edi
  0002a	5e		 pop	 esi
  0002b	5b		 pop	 ebx
  0002c	8b e5		 mov	 esp, ebp
  0002e	5d		 pop	 ebp
  0002f	c3		 ret	 0
?FirstX7LT@CProceduralRenderObject@@QAEPAUX7LT@@XZ ENDP	; CProceduralRenderObject::FirstX7LT
_TEXT	ENDS
PUBLIC	?TranslateX7LTs@CProceduralRenderObject@@QAEXMMM@Z ; CProceduralRenderObject::TranslateX7LTs
; Function compile flags: /Odt /RTCsu /ZI
;	COMDAT ?TranslateX7LTs@CProceduralRenderObject@@QAEXMMM@Z
_TEXT	SEGMENT
_i$85461 = -32
_p$ = -20
_this$ = -8
_x$ = 8
_y$ = 12
_z$ = 16
?TranslateX7LTs@CProceduralRenderObject@@QAEXMMM@Z PROC NEAR ; CProceduralRenderObject::TranslateX7LTs, COMDAT
; _this$ = ecx

; 238  : 	{

  00000	55		 push	 ebp
  00001	8b ec		 mov	 ebp, esp
  00003	81 ec e4 00 00
	00		 sub	 esp, 228		; 000000e4H
  00009	53		 push	 ebx
  0000a	56		 push	 esi
  0000b	57		 push	 edi
  0000c	51		 push	 ecx
  0000d	8d bd 1c ff ff
	ff		 lea	 edi, DWORD PTR [ebp-228]
  00013	b9 39 00 00 00	 mov	 ecx, 57			; 00000039H
  00018	b8 cc cc cc cc	 mov	 eax, -858993460		; ccccccccH
  0001d	f3 ab		 rep stosd
  0001f	59		 pop	 ecx
  00020	89 4d f8	 mov	 DWORD PTR _this$[ebp], ecx

; 239  : 		X7LT *p ;
; 240  : 
; 241  : 		p = m_pX7LTs ;

  00023	8b 45 f8	 mov	 eax, DWORD PTR _this$[ebp]
  00026	8b 48 0c	 mov	 ecx, DWORD PTR [eax+12]
  00029	89 4d ec	 mov	 DWORD PTR _p$[ebp], ecx
$L85459:

; 242  : 		while (p)

  0002c	83 7d ec 00	 cmp	 DWORD PTR _p$[ebp], 0
  00030	0f 84 80 00 00
	00		 je	 $L85456

; 243  : 		{
; 244  : 			for (int i = 0 ; i < 3 ; i ++)

  00036	c7 45 e0 00 00
	00 00		 mov	 DWORD PTR _i$85461[ebp], 0
  0003d	eb 09		 jmp	 SHORT $L85462
$L85463:
  0003f	8b 45 e0	 mov	 eax, DWORD PTR _i$85461[ebp]
  00042	83 c0 01	 add	 eax, 1
  00045	89 45 e0	 mov	 DWORD PTR _i$85461[ebp], eax
$L85462:
  00048	83 7d e0 03	 cmp	 DWORD PTR _i$85461[ebp], 3
  0004c	7d 57		 jge	 SHORT $L85464

; 245  : 			{
; 246  : 				p->Points[i].x += x ;

  0004e	8b 45 e0	 mov	 eax, DWORD PTR _i$85461[ebp]
  00051	c1 e0 05	 shl	 eax, 5
  00054	8b 4d ec	 mov	 ecx, DWORD PTR _p$[ebp]
  00057	d9 45 08	 fld	 DWORD PTR _x$[ebp]
  0005a	d8 04 01	 fadd	 DWORD PTR [ecx+eax]
  0005d	8b 55 e0	 mov	 edx, DWORD PTR _i$85461[ebp]
  00060	c1 e2 05	 shl	 edx, 5
  00063	8b 45 ec	 mov	 eax, DWORD PTR _p$[ebp]
  00066	d9 1c 10	 fstp	 DWORD PTR [eax+edx]

; 247  : 				p->Points[i].y += y ;

  00069	8b 45 e0	 mov	 eax, DWORD PTR _i$85461[ebp]
  0006c	c1 e0 05	 shl	 eax, 5
  0006f	8b 4d ec	 mov	 ecx, DWORD PTR _p$[ebp]
  00072	d9 45 0c	 fld	 DWORD PTR _y$[ebp]
  00075	d8 44 01 04	 fadd	 DWORD PTR [ecx+eax+4]
  00079	8b 55 e0	 mov	 edx, DWORD PTR _i$85461[ebp]
  0007c	c1 e2 05	 shl	 edx, 5
  0007f	8b 45 ec	 mov	 eax, DWORD PTR _p$[ebp]
  00082	d9 5c 10 04	 fstp	 DWORD PTR [eax+edx+4]

; 248  : 				p->Points[i].z += z ;

  00086	8b 45 e0	 mov	 eax, DWORD PTR _i$85461[ebp]
  00089	c1 e0 05	 shl	 eax, 5
  0008c	8b 4d ec	 mov	 ecx, DWORD PTR _p$[ebp]
  0008f	d9 45 10	 fld	 DWORD PTR _z$[ebp]
  00092	d8 44 01 08	 fadd	 DWORD PTR [ecx+eax+8]
  00096	8b 55 e0	 mov	 edx, DWORD PTR _i$85461[ebp]
  00099	c1 e2 05	 shl	 edx, 5
  0009c	8b 45 ec	 mov	 eax, DWORD PTR _p$[ebp]
  0009f	d9 5c 10 08	 fstp	 DWORD PTR [eax+edx+8]

; 249  : 			}

  000a3	eb 9a		 jmp	 SHORT $L85463
$L85464:

; 250  : 			p = (X7LT*)p->pNext ;

  000a5	8b 45 ec	 mov	 eax, DWORD PTR _p$[ebp]
  000a8	8b 88 9c 00 00
	00		 mov	 ecx, DWORD PTR [eax+156]
  000ae	89 4d ec	 mov	 DWORD PTR _p$[ebp], ecx

; 251  : 		}

  000b1	e9 76 ff ff ff	 jmp	 $L85459
$L85456:

; 252  : 	}

  000b6	5f		 pop	 edi
  000b7	5e		 pop	 esi
  000b8	5b		 pop	 ebx
  000b9	8b e5		 mov	 esp, ebp
  000bb	5d		 pop	 ebp
  000bc	c2 0c 00	 ret	 12			; 0000000cH
?TranslateX7LTs@CProceduralRenderObject@@QAEXMMM@Z ENDP	; CProceduralRenderObject::TranslateX7LTs
_TEXT	ENDS
PUBLIC	?ScaleX7LTs@CProceduralRenderObject@@QAEXM@Z	; CProceduralRenderObject::ScaleX7LTs
; Function compile flags: /Odt /RTCsu /ZI
;	COMDAT ?ScaleX7LTs@CProceduralRenderObject@@QAEXM@Z
_TEXT	SEGMENT
_i$85474 = -32
_p$ = -20
_this$ = -8
_s$ = 8
?ScaleX7LTs@CProceduralRenderObject@@QAEXM@Z PROC NEAR	; CProceduralRenderObject::ScaleX7LTs, COMDAT
; _this$ = ecx

; 254  : 	{

  00000	55		 push	 ebp
  00001	8b ec		 mov	 ebp, esp
  00003	81 ec e4 00 00
	00		 sub	 esp, 228		; 000000e4H
  00009	53		 push	 ebx
  0000a	56		 push	 esi
  0000b	57		 push	 edi
  0000c	51		 push	 ecx
  0000d	8d bd 1c ff ff
	ff		 lea	 edi, DWORD PTR [ebp-228]
  00013	b9 39 00 00 00	 mov	 ecx, 57			; 00000039H
  00018	b8 cc cc cc cc	 mov	 eax, -858993460		; ccccccccH
  0001d	f3 ab		 rep stosd
  0001f	59		 pop	 ecx
  00020	89 4d f8	 mov	 DWORD PTR _this$[ebp], ecx

; 255  : 		X7LT *p ;
; 256  : 
; 257  : 		p = m_pX7LTs ;

  00023	8b 45 f8	 mov	 eax, DWORD PTR _this$[ebp]
  00026	8b 48 0c	 mov	 ecx, DWORD PTR [eax+12]
  00029	89 4d ec	 mov	 DWORD PTR _p$[ebp], ecx
$L85472:

; 258  : 		while (p)

  0002c	83 7d ec 00	 cmp	 DWORD PTR _p$[ebp], 0
  00030	0f 84 80 00 00
	00		 je	 $L85469

; 259  : 		{
; 260  : 			for (int i = 0 ; i < 3 ; i ++)

  00036	c7 45 e0 00 00
	00 00		 mov	 DWORD PTR _i$85474[ebp], 0
  0003d	eb 09		 jmp	 SHORT $L85475
$L85476:
  0003f	8b 45 e0	 mov	 eax, DWORD PTR _i$85474[ebp]
  00042	83 c0 01	 add	 eax, 1
  00045	89 45 e0	 mov	 DWORD PTR _i$85474[ebp], eax
$L85475:
  00048	83 7d e0 03	 cmp	 DWORD PTR _i$85474[ebp], 3
  0004c	7d 57		 jge	 SHORT $L85477

; 261  : 			{
; 262  : 				p->Points[i].x *= s ;

  0004e	8b 45 e0	 mov	 eax, DWORD PTR _i$85474[ebp]
  00051	c1 e0 05	 shl	 eax, 5
  00054	8b 4d ec	 mov	 ecx, DWORD PTR _p$[ebp]
  00057	d9 45 08	 fld	 DWORD PTR _s$[ebp]
  0005a	d8 0c 01	 fmul	 DWORD PTR [ecx+eax]
  0005d	8b 55 e0	 mov	 edx, DWORD PTR _i$85474[ebp]
  00060	c1 e2 05	 shl	 edx, 5
  00063	8b 45 ec	 mov	 eax, DWORD PTR _p$[ebp]
  00066	d9 1c 10	 fstp	 DWORD PTR [eax+edx]

; 263  : 				p->Points[i].y *= s ;

  00069	8b 45 e0	 mov	 eax, DWORD PTR _i$85474[ebp]
  0006c	c1 e0 05	 shl	 eax, 5
  0006f	8b 4d ec	 mov	 ecx, DWORD PTR _p$[ebp]
  00072	d9 45 08	 fld	 DWORD PTR _s$[ebp]
  00075	d8 4c 01 04	 fmul	 DWORD PTR [ecx+eax+4]
  00079	8b 55 e0	 mov	 edx, DWORD PTR _i$85474[ebp]
  0007c	c1 e2 05	 shl	 edx, 5
  0007f	8b 45 ec	 mov	 eax, DWORD PTR _p$[ebp]
  00082	d9 5c 10 04	 fstp	 DWORD PTR [eax+edx+4]

; 264  : 				p->Points[i].z *= s ;

  00086	8b 45 e0	 mov	 eax, DWORD PTR _i$85474[ebp]
  00089	c1 e0 05	 shl	 eax, 5
  0008c	8b 4d ec	 mov	 ecx, DWORD PTR _p$[ebp]
  0008f	d9 45 08	 fld	 DWORD PTR _s$[ebp]
  00092	d8 4c 01 08	 fmul	 DWORD PTR [ecx+eax+8]
  00096	8b 55 e0	 mov	 edx, DWORD PTR _i$85474[ebp]
  00099	c1 e2 05	 shl	 edx, 5
  0009c	8b 45 ec	 mov	 eax, DWORD PTR _p$[ebp]
  0009f	d9 5c 10 08	 fstp	 DWORD PTR [eax+edx+8]

; 265  : 			}

  000a3	eb 9a		 jmp	 SHORT $L85476
$L85477:

; 266  : 			p = (X7LT*)p->pNext ;

  000a5	8b 45 ec	 mov	 eax, DWORD PTR _p$[ebp]
  000a8	8b 88 9c 00 00
	00		 mov	 ecx, DWORD PTR [eax+156]
  000ae	89 4d ec	 mov	 DWORD PTR _p$[ebp], ecx

; 267  : 		}

  000b1	e9 76 ff ff ff	 jmp	 $L85472
$L85469:

; 268  : 	}

  000b6	5f		 pop	 edi
  000b7	5e		 pop	 esi
  000b8	5b		 pop	 ebx
  000b9	8b e5		 mov	 esp, ebp
  000bb	5d		 pop	 ebp
  000bc	c2 04 00	 ret	 4
?ScaleX7LTs@CProceduralRenderObject@@QAEXM@Z ENDP	; CProceduralRenderObject::ScaleX7LTs
_TEXT	ENDS
PUBLIC	?RotateX7LTsY@CProceduralRenderObject@@QAEXMPAUD3DXVECTOR3@@@Z ; CProceduralRenderObject::RotateX7LTsY
PUBLIC	??0D3DXVECTOR3@@QAE@MMM@Z			; D3DXVECTOR3::D3DXVECTOR3
EXTRN	@_RTC_CheckStackVars@8:NEAR
EXTRN	?RotateVectorY@@YAXPAUD3DXVECTOR3@@M0@Z:NEAR	; RotateVectorY
; Function compile flags: /Odt /RTCsu /ZI
;	COMDAT ?RotateX7LTsY@CProceduralRenderObject@@QAEXMPAUD3DXVECTOR3@@@Z
_TEXT	SEGMENT
$T86032 = -284
$T86031 = -264
_v$85492 = -52
_i$85488 = -32
_p$ = -20
_this$ = -8
_n$ = 8
_pvO$ = 12
?RotateX7LTsY@CProceduralRenderObject@@QAEXMPAUD3DXVECTOR3@@@Z PROC NEAR ; CProceduralRenderObject::RotateX7LTsY, COMDAT
; _this$ = ecx

; 270  : 	{

  00000	55		 push	 ebp
  00001	8b ec		 mov	 ebp, esp
  00003	81 ec 20 01 00
	00		 sub	 esp, 288		; 00000120H
  00009	53		 push	 ebx
  0000a	56		 push	 esi
  0000b	57		 push	 edi
  0000c	51		 push	 ecx
  0000d	8d bd e0 fe ff
	ff		 lea	 edi, DWORD PTR [ebp-288]
  00013	b9 48 00 00 00	 mov	 ecx, 72			; 00000048H
  00018	b8 cc cc cc cc	 mov	 eax, -858993460		; ccccccccH
  0001d	f3 ab		 rep stosd
  0001f	59		 pop	 ecx
  00020	89 4d f8	 mov	 DWORD PTR _this$[ebp], ecx

; 271  : 		X7LT *p ;
; 272  : 
; 273  : 		p = m_pX7LTs ;

  00023	8b 45 f8	 mov	 eax, DWORD PTR _this$[ebp]
  00026	8b 48 0c	 mov	 ecx, DWORD PTR [eax+12]
  00029	89 4d ec	 mov	 DWORD PTR _p$[ebp], ecx
$L85486:

; 274  : 		while (p)

  0002c	83 7d ec 00	 cmp	 DWORD PTR _p$[ebp], 0
  00030	0f 84 4c 01 00
	00		 je	 $L85483

; 275  : 		{
; 276  : 			for (int i = 0 ; i < 3 ; i ++)

  00036	c7 45 e0 00 00
	00 00		 mov	 DWORD PTR _i$85488[ebp], 0
  0003d	eb 09		 jmp	 SHORT $L85489
$L85490:
  0003f	8b 45 e0	 mov	 eax, DWORD PTR _i$85488[ebp]
  00042	83 c0 01	 add	 eax, 1
  00045	89 45 e0	 mov	 DWORD PTR _i$85488[ebp], eax
$L85489:
  00048	83 7d e0 03	 cmp	 DWORD PTR _i$85488[ebp], 3
  0004c	0f 8d 1f 01 00
	00		 jge	 $L85491

; 277  : 			{
; 278  : 				xVec3 v ;

  00052	8d 4d cc	 lea	 ecx, DWORD PTR _v$85492[ebp]
  00055	e8 00 00 00 00	 call	 ??0D3DXVECTOR3@@QAE@XZ	; D3DXVECTOR3::D3DXVECTOR3

; 279  : 				
; 280  : 				v = xVec3(p->Points[i].x, p->Points[i].y, p->Points[i].z) ;

  0005a	8b 45 e0	 mov	 eax, DWORD PTR _i$85488[ebp]
  0005d	c1 e0 05	 shl	 eax, 5
  00060	8b 4d ec	 mov	 ecx, DWORD PTR _p$[ebp]
  00063	8b 54 01 08	 mov	 edx, DWORD PTR [ecx+eax+8]
  00067	52		 push	 edx
  00068	8b 45 e0	 mov	 eax, DWORD PTR _i$85488[ebp]
  0006b	c1 e0 05	 shl	 eax, 5
  0006e	8b 4d ec	 mov	 ecx, DWORD PTR _p$[ebp]
  00071	8b 54 01 04	 mov	 edx, DWORD PTR [ecx+eax+4]
  00075	52		 push	 edx
  00076	8b 45 e0	 mov	 eax, DWORD PTR _i$85488[ebp]
  00079	c1 e0 05	 shl	 eax, 5
  0007c	8b 4d ec	 mov	 ecx, DWORD PTR _p$[ebp]
  0007f	8b 14 01	 mov	 edx, DWORD PTR [ecx+eax]
  00082	52		 push	 edx
  00083	8d 8d f8 fe ff
	ff		 lea	 ecx, DWORD PTR $T86031[ebp]
  00089	e8 00 00 00 00	 call	 ??0D3DXVECTOR3@@QAE@MMM@Z ; D3DXVECTOR3::D3DXVECTOR3
  0008e	8b 08		 mov	 ecx, DWORD PTR [eax]
  00090	89 4d cc	 mov	 DWORD PTR _v$85492[ebp], ecx
  00093	8b 50 04	 mov	 edx, DWORD PTR [eax+4]
  00096	89 55 d0	 mov	 DWORD PTR _v$85492[ebp+4], edx
  00099	8b 40 08	 mov	 eax, DWORD PTR [eax+8]
  0009c	89 45 d4	 mov	 DWORD PTR _v$85492[ebp+8], eax

; 281  : 				RotateVectorY(&v, n, pvO) ;

  0009f	8b 45 0c	 mov	 eax, DWORD PTR _pvO$[ebp]
  000a2	50		 push	 eax
  000a3	8b 4d 08	 mov	 ecx, DWORD PTR _n$[ebp]
  000a6	51		 push	 ecx
  000a7	8d 55 cc	 lea	 edx, DWORD PTR _v$85492[ebp]
  000aa	52		 push	 edx
  000ab	e8 00 00 00 00	 call	 ?RotateVectorY@@YAXPAUD3DXVECTOR3@@M0@Z ; RotateVectorY
  000b0	83 c4 0c	 add	 esp, 12			; 0000000cH

; 282  : 				p->Points[i].x = v.x ;

  000b3	8b 45 e0	 mov	 eax, DWORD PTR _i$85488[ebp]
  000b6	c1 e0 05	 shl	 eax, 5
  000b9	8b 4d ec	 mov	 ecx, DWORD PTR _p$[ebp]
  000bc	8b 55 cc	 mov	 edx, DWORD PTR _v$85492[ebp]
  000bf	89 14 01	 mov	 DWORD PTR [ecx+eax], edx

; 283  : 				p->Points[i].y = v.y ;

  000c2	8b 45 e0	 mov	 eax, DWORD PTR _i$85488[ebp]
  000c5	c1 e0 05	 shl	 eax, 5
  000c8	8b 4d ec	 mov	 ecx, DWORD PTR _p$[ebp]
  000cb	8b 55 d0	 mov	 edx, DWORD PTR _v$85492[ebp+4]
  000ce	89 54 01 04	 mov	 DWORD PTR [ecx+eax+4], edx

; 284  : 				p->Points[i].z = v.z ;

  000d2	8b 45 e0	 mov	 eax, DWORD PTR _i$85488[ebp]
  000d5	c1 e0 05	 shl	 eax, 5
  000d8	8b 4d ec	 mov	 ecx, DWORD PTR _p$[ebp]
  000db	8b 55 d4	 mov	 edx, DWORD PTR _v$85492[ebp+8]
  000de	89 54 01 08	 mov	 DWORD PTR [ecx+eax+8], edx

; 285  : 
; 286  : 				v = xVec3(p->Points[i].nx, p->Points[i].ny, p->Points[i].nz) ;

  000e2	8b 45 e0	 mov	 eax, DWORD PTR _i$85488[ebp]
  000e5	c1 e0 05	 shl	 eax, 5
  000e8	8b 4d ec	 mov	 ecx, DWORD PTR _p$[ebp]
  000eb	8b 54 01 14	 mov	 edx, DWORD PTR [ecx+eax+20]
  000ef	52		 push	 edx
  000f0	8b 45 e0	 mov	 eax, DWORD PTR _i$85488[ebp]
  000f3	c1 e0 05	 shl	 eax, 5
  000f6	8b 4d ec	 mov	 ecx, DWORD PTR _p$[ebp]
  000f9	8b 54 01 10	 mov	 edx, DWORD PTR [ecx+eax+16]
  000fd	52		 push	 edx
  000fe	8b 45 e0	 mov	 eax, DWORD PTR _i$85488[ebp]
  00101	c1 e0 05	 shl	 eax, 5
  00104	8b 4d ec	 mov	 ecx, DWORD PTR _p$[ebp]
  00107	8b 54 01 0c	 mov	 edx, DWORD PTR [ecx+eax+12]
  0010b	52		 push	 edx
  0010c	8d 8d e4 fe ff
	ff		 lea	 ecx, DWORD PTR $T86032[ebp]
  00112	e8 00 00 00 00	 call	 ??0D3DXVECTOR3@@QAE@MMM@Z ; D3DXVECTOR3::D3DXVECTOR3
  00117	8b 08		 mov	 ecx, DWORD PTR [eax]
  00119	89 4d cc	 mov	 DWORD PTR _v$85492[ebp], ecx
  0011c	8b 50 04	 mov	 edx, DWORD PTR [eax+4]
  0011f	89 55 d0	 mov	 DWORD PTR _v$85492[ebp+4], edx
  00122	8b 40 08	 mov	 eax, DWORD PTR [eax+8]
  00125	89 45 d4	 mov	 DWORD PTR _v$85492[ebp+8], eax

; 287  : 				RotateVectorY(&v, n, pvO) ;

  00128	8b 45 0c	 mov	 eax, DWORD PTR _pvO$[ebp]
  0012b	50		 push	 eax
  0012c	8b 4d 08	 mov	 ecx, DWORD PTR _n$[ebp]
  0012f	51		 push	 ecx
  00130	8d 55 cc	 lea	 edx, DWORD PTR _v$85492[ebp]
  00133	52		 push	 edx
  00134	e8 00 00 00 00	 call	 ?RotateVectorY@@YAXPAUD3DXVECTOR3@@M0@Z ; RotateVectorY
  00139	83 c4 0c	 add	 esp, 12			; 0000000cH

; 288  : 				p->Points[i].nx = v.x ;

  0013c	8b 45 e0	 mov	 eax, DWORD PTR _i$85488[ebp]
  0013f	c1 e0 05	 shl	 eax, 5
  00142	8b 4d ec	 mov	 ecx, DWORD PTR _p$[ebp]
  00145	8b 55 cc	 mov	 edx, DWORD PTR _v$85492[ebp]
  00148	89 54 01 0c	 mov	 DWORD PTR [ecx+eax+12], edx

; 289  : 				p->Points[i].ny = v.y ;

  0014c	8b 45 e0	 mov	 eax, DWORD PTR _i$85488[ebp]
  0014f	c1 e0 05	 shl	 eax, 5
  00152	8b 4d ec	 mov	 ecx, DWORD PTR _p$[ebp]
  00155	8b 55 d0	 mov	 edx, DWORD PTR _v$85492[ebp+4]
  00158	89 54 01 10	 mov	 DWORD PTR [ecx+eax+16], edx

; 290  : 				p->Points[i].nz = v.z ;

  0015c	8b 45 e0	 mov	 eax, DWORD PTR _i$85488[ebp]
  0015f	c1 e0 05	 shl	 eax, 5
  00162	8b 4d ec	 mov	 ecx, DWORD PTR _p$[ebp]
  00165	8b 55 d4	 mov	 edx, DWORD PTR _v$85492[ebp+8]
  00168	89 54 01 14	 mov	 DWORD PTR [ecx+eax+20], edx

; 291  : 			}

  0016c	e9 ce fe ff ff	 jmp	 $L85490
$L85491:

; 292  : 			p = (X7LT*)p->pNext ;

  00171	8b 45 ec	 mov	 eax, DWORD PTR _p$[ebp]
  00174	8b 88 9c 00 00
	00		 mov	 ecx, DWORD PTR [eax+156]
  0017a	89 4d ec	 mov	 DWORD PTR _p$[ebp], ecx

; 293  : 		}

  0017d	e9 aa fe ff ff	 jmp	 $L85486
$L85483:

; 294  : 	}

  00182	52		 push	 edx
  00183	8b cd		 mov	 ecx, ebp
  00185	50		 push	 eax
  00186	8d 15 00 00 00
	00		 lea	 edx, DWORD PTR $L86035
  0018c	e8 00 00 00 00	 call	 @_RTC_CheckStackVars@8
  00191	58		 pop	 eax
  00192	5a		 pop	 edx
  00193	5f		 pop	 edi
  00194	5e		 pop	 esi
  00195	5b		 pop	 ebx
  00196	81 c4 20 01 00
	00		 add	 esp, 288		; 00000120H
  0019c	3b ec		 cmp	 ebp, esp
  0019e	e8 00 00 00 00	 call	 __RTC_CheckEsp
  001a3	8b e5		 mov	 esp, ebp
  001a5	5d		 pop	 ebp
  001a6	c2 08 00	 ret	 8
$L86035:
  001a9	01 00 00 00	 DD	 1
  001ad	00 00 00 00	 DD	 $L86034
$L86034:
  001b1	cc ff ff ff	 DD	 -52			; ffffffccH
  001b5	0c 00 00 00	 DD	 12			; 0000000cH
  001b9	00 00 00 00	 DD	 $L86033
$L86033:
  001bd	76		 DB	 118			; 00000076H
  001be	00		 DB	 0
?RotateX7LTsY@CProceduralRenderObject@@QAEXMPAUD3DXVECTOR3@@@Z ENDP ; CProceduralRenderObject::RotateX7LTsY
_TEXT	ENDS
PUBLIC	??_H@YGXPAXIHP6EPAX0@Z@Z			; `vector constructor iterator'
PUBLIC	?IndexToList@CProceduralRenderObject@@QAEJXZ	; CProceduralRenderObject::IndexToList
PUBLIC	?GetDistinctRenderStates@CProceduralRenderObject@@QAEXXZ ; CProceduralRenderObject::GetDistinctRenderStates
PUBLIC	?CompareIndexedVertex@CProceduralRenderObject@@QAEHIPAUX7LT@@HH@Z ; CProceduralRenderObject::CompareIndexedVertex
PUBLIC	?AddIndexedVertex@CProceduralRenderObject@@QAEXIPAUX7LT@@HH@Z ; CProceduralRenderObject::AddIndexedVertex
PUBLIC	??0COLOREDVERTEXWITHNORMAL2TEX@@QAE@XZ		; COLOREDVERTEXWITHNORMAL2TEX::COLOREDVERTEXWITHNORMAL2TEX
PUBLIC	??0COLOREDVERTEXWITHNORMAL@@QAE@XZ		; COLOREDVERTEXWITHNORMAL::COLOREDVERTEXWITHNORMAL
PUBLIC	??0UNCOLOREDVERTEX@@QAE@XZ			; UNCOLOREDVERTEX::UNCOLOREDVERTEX
PUBLIC	??0COLOREDVERTEX@@QAE@XZ			; COLOREDVERTEX::COLOREDVERTEX
PUBLIC	?__LINE__Var@?1??IndexToList@CProceduralRenderObject@@QAEJXZ@4JA ; `CProceduralRenderObject::IndexToList'::`2'::__LINE__Var
PUBLIC	??_C@_0N@EHOCOBJ@m_dwFVF?5?$CB?$DN?50?$AA@	; `string'
PUBLIC	??0COLOREDVERTEX2TEX@@QAE@XZ			; COLOREDVERTEX2TEX::COLOREDVERTEX2TEX
EXTRN	??2@YAPAXI@Z:NEAR				; operator new
;	COMDAT ?__LINE__Var@?1??IndexToList@CProceduralRenderObject@@QAEJXZ@4JA
_DATA	SEGMENT
?__LINE__Var@?1??IndexToList@CProceduralRenderObject@@QAEJXZ@4JA DD 012eH ; `CProceduralRenderObject::IndexToList'::`2'::__LINE__Var
_DATA	ENDS
;	COMDAT ??_C@_0N@EHOCOBJ@m_dwFVF?5?$CB?$DN?50?$AA@
CONST	SEGMENT
??_C@_0N@EHOCOBJ@m_dwFVF?5?$CB?$DN?50?$AA@ DB 'm_dwFVF != 0', 00H ; `string'
; Function compile flags: /Odt /RTCsu /ZI
CONST	ENDS
;	COMDAT ?IndexToList@CProceduralRenderObject@@QAEJXZ
_TEXT	SEGMENT
tv212 = -400
tv190 = -400
tv168 = -400
tv146 = -400
tv92 = -400
$T86060 = -392
$T86057 = -380
$T86056 = -368
$T86053 = -356
$T86052 = -344
$T86049 = -332
$T86048 = -320
$T86045 = -308
$T86044 = -296
$T86041 = -284
$T86040 = -272
_nRS$85507 = -68
_bVertIsAlreadyThere$ = -56
_pTri$ = -44
_j$ = -32
_i$ = -20
_this$ = -8
?IndexToList@CProceduralRenderObject@@QAEJXZ PROC NEAR	; CProceduralRenderObject::IndexToList, COMDAT
; _this$ = ecx

; 302  : 	{

  00000	55		 push	 ebp
  00001	8b ec		 mov	 ebp, esp
  00003	81 ec 90 01 00
	00		 sub	 esp, 400		; 00000190H
  00009	53		 push	 ebx
  0000a	56		 push	 esi
  0000b	57		 push	 edi
  0000c	51		 push	 ecx
  0000d	8d bd 70 fe ff
	ff		 lea	 edi, DWORD PTR [ebp-400]
  00013	b9 64 00 00 00	 mov	 ecx, 100		; 00000064H
  00018	b8 cc cc cc cc	 mov	 eax, -858993460		; ccccccccH
  0001d	f3 ab		 rep stosd
  0001f	59		 pop	 ecx
  00020	89 4d f8	 mov	 DWORD PTR _this$[ebp], ecx

; 303  : 		unsigned	 i, j ;
; 304  : 		X7LT		*pTri ;
; 305  : 		BOOL		 bVertIsAlreadyThere ;
; 306  : 
; 307  : 		assert( m_dwFVF != 0 );

  00023	8b 45 f8	 mov	 eax, DWORD PTR _this$[ebp]
  00026	83 38 00	 cmp	 DWORD PTR [eax], 0
  00029	75 1c		 jne	 SHORT $L86039
  0002b	8b 0d 00 00 00
	00		 mov	 ecx, DWORD PTR ?__LINE__Var@?1??IndexToList@CProceduralRenderObject@@QAEJXZ@4JA
  00031	83 c1 05	 add	 ecx, 5
  00034	51		 push	 ecx
  00035	68 00 00 00 00	 push	 OFFSET FLAT:??_C@_0FJ@JJKKIHO@c?3?2documents?5and?5settings?2dom?2my@
  0003a	68 00 00 00 00	 push	 OFFSET FLAT:??_C@_0N@EHOCOBJ@m_dwFVF?5?$CB?$DN?50?$AA@
  0003f	e8 00 00 00 00	 call	 __assert
  00044	83 c4 0c	 add	 esp, 12			; 0000000cH
$L86039:

; 308  : 
; 309  : 		m_pFastLastX7LT = LastX7LT() ;

  00047	8b 4d f8	 mov	 ecx, DWORD PTR _this$[ebp]
  0004a	e8 00 00 00 00	 call	 ?LastX7LT@CProceduralRenderObject@@QAEPAUX7LT@@XZ ; CProceduralRenderObject::LastX7LT
  0004f	8b 4d f8	 mov	 ecx, DWORD PTR _this$[ebp]
  00052	89 41 10	 mov	 DWORD PTR [ecx+16], eax

; 310  : 		GetDistinctRenderStates() ;

  00055	8b 4d f8	 mov	 ecx, DWORD PTR _this$[ebp]
  00058	e8 00 00 00 00	 call	 ?GetDistinctRenderStates@CProceduralRenderObject@@QAEXXZ ; CProceduralRenderObject::GetDistinctRenderStates

; 311  : 
; 312  : 	//
; 313  : 	// For each distinct render state, go get all the verts, & index them.
; 314  : 	//
; 315  : 		for (int nRS = 0 ; nRS < m_nRSs ; nRS ++)

  0005d	c7 45 bc 00 00
	00 00		 mov	 DWORD PTR _nRS$85507[ebp], 0
  00064	eb 09		 jmp	 SHORT $L85508
$L85509:
  00066	8b 45 bc	 mov	 eax, DWORD PTR _nRS$85507[ebp]
  00069	83 c0 01	 add	 eax, 1
  0006c	89 45 bc	 mov	 DWORD PTR _nRS$85507[ebp], eax
$L85508:
  0006f	8b 45 f8	 mov	 eax, DWORD PTR _this$[ebp]
  00072	8b 4d bc	 mov	 ecx, DWORD PTR _nRS$85507[ebp]
  00075	3b 88 48 0a 00
	00		 cmp	 ecx, DWORD PTR [eax+2632]
  0007b	0f 8d 37 06 00
	00		 jge	 $L85510

; 316  : 		{
; 317  : 			/*m_ntvRS[nRS].bStrip = FALSE ;
; 318  : 			m_ntvRS[nRS].bList  = TRUE  ; */
; 319  : 
; 320  : 		//
; 321  : 		// This will alloc. **WAY** too much memory for p[Lit]Vertices, but WTF!
; 322  : 		//
; 323  : 			if (m_dwFVF == MYFVF_UNCOLOREDVERTEX)

  00081	8b 45 f8	 mov	 eax, DWORD PTR _this$[ebp]
  00084	81 38 12 01 00
	00		 cmp	 DWORD PTR [eax], 274	; 00000112H
  0008a	0f 85 90 00 00
	00		 jne	 $L85511

; 324  : 			{
; 325  : 				m_ntvRS[nRS].pUnlitVertices = new UNCOLOREDVERTEX[m_nBaseX7LTs * 3] ;

  00090	8b 45 f8	 mov	 eax, DWORD PTR _this$[ebp]
  00093	8b 48 08	 mov	 ecx, DWORD PTR [eax+8]
  00096	6b c9 03	 imul	 ecx, 3
  00099	89 8d f0 fe ff
	ff		 mov	 DWORD PTR $T86040[ebp], ecx
  0009f	8b 95 f0 fe ff
	ff		 mov	 edx, DWORD PTR $T86040[ebp]
  000a5	c1 e2 05	 shl	 edx, 5
  000a8	52		 push	 edx
  000a9	e8 00 00 00 00	 call	 ??2@YAPAXI@Z		; operator new
  000ae	83 c4 04	 add	 esp, 4
  000b1	89 85 e4 fe ff
	ff		 mov	 DWORD PTR $T86041[ebp], eax
  000b7	83 bd e4 fe ff
	ff 00		 cmp	 DWORD PTR $T86041[ebp], 0
  000be	74 28		 je	 SHORT $L86042
  000c0	68 00 00 00 00	 push	 OFFSET FLAT:??0UNCOLOREDVERTEX@@QAE@XZ ; UNCOLOREDVERTEX::UNCOLOREDVERTEX
  000c5	8b 85 f0 fe ff
	ff		 mov	 eax, DWORD PTR $T86040[ebp]
  000cb	50		 push	 eax
  000cc	6a 20		 push	 32			; 00000020H
  000ce	8b 8d e4 fe ff
	ff		 mov	 ecx, DWORD PTR $T86041[ebp]
  000d4	51		 push	 ecx
  000d5	e8 00 00 00 00	 call	 ??_H@YGXPAXIHP6EPAX0@Z@Z
  000da	8b 95 e4 fe ff
	ff		 mov	 edx, DWORD PTR $T86041[ebp]
  000e0	89 95 70 fe ff
	ff		 mov	 DWORD PTR tv92[ebp], edx
  000e6	eb 0a		 jmp	 SHORT $L86043
$L86042:
  000e8	c7 85 70 fe ff
	ff 00 00 00 00	 mov	 DWORD PTR tv92[ebp], 0
$L86043:
  000f2	8b 45 bc	 mov	 eax, DWORD PTR _nRS$85507[ebp]
  000f5	69 c0 44 01 00
	00		 imul	 eax, 324		; 00000144H
  000fb	8b 4d f8	 mov	 ecx, DWORD PTR _this$[ebp]
  000fe	8b 95 70 fe ff
	ff		 mov	 edx, DWORD PTR tv92[ebp]
  00104	89 54 01 30	 mov	 DWORD PTR [ecx+eax+48], edx

; 326  : 				m_dwMem_IndexedVerts += sizeof(UNCOLOREDVERTEX) * m_nBaseX7LTs * 3 ;

  00108	8b 45 f8	 mov	 eax, DWORD PTR _this$[ebp]
  0010b	8b 48 08	 mov	 ecx, DWORD PTR [eax+8]
  0010e	c1 e1 05	 shl	 ecx, 5
  00111	6b c9 03	 imul	 ecx, 3
  00114	8b 55 f8	 mov	 edx, DWORD PTR _this$[ebp]
  00117	03 4a 1c	 add	 ecx, DWORD PTR [edx+28]
  0011a	8b 45 f8	 mov	 eax, DWORD PTR _this$[ebp]
  0011d	89 48 1c	 mov	 DWORD PTR [eax+28], ecx
$L85511:

; 327  : 			}
; 328  : 			if (m_dwFVF == MYFVF_COLOREDVERTEX)

  00120	8b 45 f8	 mov	 eax, DWORD PTR _this$[ebp]
  00123	81 38 c2 01 00
	00		 cmp	 DWORD PTR [eax], 450	; 000001c2H
  00129	0f 85 90 00 00
	00		 jne	 $L85517

; 329  : 			{
; 330  : 				m_ntvRS[nRS].pLitVertices = new COLOREDVERTEX[m_nBaseX7LTs * 3] ;

  0012f	8b 45 f8	 mov	 eax, DWORD PTR _this$[ebp]
  00132	8b 48 08	 mov	 ecx, DWORD PTR [eax+8]
  00135	6b c9 03	 imul	 ecx, 3
  00138	89 8d d8 fe ff
	ff		 mov	 DWORD PTR $T86044[ebp], ecx
  0013e	8b 95 d8 fe ff
	ff		 mov	 edx, DWORD PTR $T86044[ebp]
  00144	6b d2 1c	 imul	 edx, 28			; 0000001cH
  00147	52		 push	 edx
  00148	e8 00 00 00 00	 call	 ??2@YAPAXI@Z		; operator new
  0014d	83 c4 04	 add	 esp, 4
  00150	89 85 cc fe ff
	ff		 mov	 DWORD PTR $T86045[ebp], eax
  00156	83 bd cc fe ff
	ff 00		 cmp	 DWORD PTR $T86045[ebp], 0
  0015d	74 28		 je	 SHORT $L86046
  0015f	68 00 00 00 00	 push	 OFFSET FLAT:??0COLOREDVERTEX@@QAE@XZ ; COLOREDVERTEX::COLOREDVERTEX
  00164	8b 85 d8 fe ff
	ff		 mov	 eax, DWORD PTR $T86044[ebp]
  0016a	50		 push	 eax
  0016b	6a 1c		 push	 28			; 0000001cH
  0016d	8b 8d cc fe ff
	ff		 mov	 ecx, DWORD PTR $T86045[ebp]
  00173	51		 push	 ecx
  00174	e8 00 00 00 00	 call	 ??_H@YGXPAXIHP6EPAX0@Z@Z
  00179	8b 95 cc fe ff
	ff		 mov	 edx, DWORD PTR $T86045[ebp]
  0017f	89 95 70 fe ff
	ff		 mov	 DWORD PTR tv146[ebp], edx
  00185	eb 0a		 jmp	 SHORT $L86047
$L86046:
  00187	c7 85 70 fe ff
	ff 00 00 00 00	 mov	 DWORD PTR tv146[ebp], 0
$L86047:
  00191	8b 45 bc	 mov	 eax, DWORD PTR _nRS$85507[ebp]
  00194	69 c0 44 01 00
	00		 imul	 eax, 324		; 00000144H
  0019a	8b 4d f8	 mov	 ecx, DWORD PTR _this$[ebp]
  0019d	8b 95 70 fe ff
	ff		 mov	 edx, DWORD PTR tv146[ebp]
  001a3	89 54 01 34	 mov	 DWORD PTR [ecx+eax+52], edx

; 331  : 				m_dwMem_IndexedVerts += sizeof(COLOREDVERTEX) * m_nBaseX7LTs * 3 ;

  001a7	8b 45 f8	 mov	 eax, DWORD PTR _this$[ebp]
  001aa	8b 48 08	 mov	 ecx, DWORD PTR [eax+8]
  001ad	6b c9 1c	 imul	 ecx, 28			; 0000001cH
  001b0	6b c9 03	 imul	 ecx, 3
  001b3	8b 55 f8	 mov	 edx, DWORD PTR _this$[ebp]
  001b6	03 4a 1c	 add	 ecx, DWORD PTR [edx+28]
  001b9	8b 45 f8	 mov	 eax, DWORD PTR _this$[ebp]
  001bc	89 48 1c	 mov	 DWORD PTR [eax+28], ecx
$L85517:

; 332  : 			}
; 333  : 			if (m_dwFVF == MYFVF_COLOREDVERTEXWITHNORMAL)

  001bf	8b 45 f8	 mov	 eax, DWORD PTR _this$[ebp]
  001c2	81 38 d2 01 00
	00		 cmp	 DWORD PTR [eax], 466	; 000001d2H
  001c8	0f 85 90 00 00
	00		 jne	 $L85523

; 334  : 			{
; 335  : 				m_ntvRS[nRS].pLitVerticesWithNormals = new COLOREDVERTEXWITHNORMAL[m_nBaseX7LTs * 3] ;

  001ce	8b 45 f8	 mov	 eax, DWORD PTR _this$[ebp]
  001d1	8b 48 08	 mov	 ecx, DWORD PTR [eax+8]
  001d4	6b c9 03	 imul	 ecx, 3
  001d7	89 8d c0 fe ff
	ff		 mov	 DWORD PTR $T86048[ebp], ecx
  001dd	8b 95 c0 fe ff
	ff		 mov	 edx, DWORD PTR $T86048[ebp]
  001e3	6b d2 28	 imul	 edx, 40			; 00000028H
  001e6	52		 push	 edx
  001e7	e8 00 00 00 00	 call	 ??2@YAPAXI@Z		; operator new
  001ec	83 c4 04	 add	 esp, 4
  001ef	89 85 b4 fe ff
	ff		 mov	 DWORD PTR $T86049[ebp], eax
  001f5	83 bd b4 fe ff
	ff 00		 cmp	 DWORD PTR $T86049[ebp], 0
  001fc	74 28		 je	 SHORT $L86050
  001fe	68 00 00 00 00	 push	 OFFSET FLAT:??0COLOREDVERTEXWITHNORMAL@@QAE@XZ ; COLOREDVERTEXWITHNORMAL::COLOREDVERTEXWITHNORMAL
  00203	8b 85 c0 fe ff
	ff		 mov	 eax, DWORD PTR $T86048[ebp]
  00209	50		 push	 eax
  0020a	6a 28		 push	 40			; 00000028H
  0020c	8b 8d b4 fe ff
	ff		 mov	 ecx, DWORD PTR $T86049[ebp]
  00212	51		 push	 ecx
  00213	e8 00 00 00 00	 call	 ??_H@YGXPAXIHP6EPAX0@Z@Z
  00218	8b 95 b4 fe ff
	ff		 mov	 edx, DWORD PTR $T86049[ebp]
  0021e	89 95 70 fe ff
	ff		 mov	 DWORD PTR tv168[ebp], edx
  00224	eb 0a		 jmp	 SHORT $L86051
$L86050:
  00226	c7 85 70 fe ff
	ff 00 00 00 00	 mov	 DWORD PTR tv168[ebp], 0
$L86051:
  00230	8b 45 bc	 mov	 eax, DWORD PTR _nRS$85507[ebp]
  00233	69 c0 44 01 00
	00		 imul	 eax, 324		; 00000144H
  00239	8b 4d f8	 mov	 ecx, DWORD PTR _this$[ebp]
  0023c	8b 95 70 fe ff
	ff		 mov	 edx, DWORD PTR tv168[ebp]
  00242	89 54 01 3c	 mov	 DWORD PTR [ecx+eax+60], edx

; 336  : 				m_dwMem_IndexedVerts += sizeof(COLOREDVERTEXWITHNORMAL) * m_nBaseX7LTs * 3 ;

  00246	8b 45 f8	 mov	 eax, DWORD PTR _this$[ebp]
  00249	8b 48 08	 mov	 ecx, DWORD PTR [eax+8]
  0024c	6b c9 28	 imul	 ecx, 40			; 00000028H
  0024f	6b c9 03	 imul	 ecx, 3
  00252	8b 55 f8	 mov	 edx, DWORD PTR _this$[ebp]
  00255	03 4a 1c	 add	 ecx, DWORD PTR [edx+28]
  00258	8b 45 f8	 mov	 eax, DWORD PTR _this$[ebp]
  0025b	89 48 1c	 mov	 DWORD PTR [eax+28], ecx
$L85523:

; 337  : 			}
; 338  : 			if (m_dwFVF == MYFVF_COLOREDVERTEXWITHNORMAL2TEX)

  0025e	8b 45 f8	 mov	 eax, DWORD PTR _this$[ebp]
  00261	81 38 d2 02 00
	00		 cmp	 DWORD PTR [eax], 722	; 000002d2H
  00267	0f 85 90 00 00
	00		 jne	 $L85529

; 339  : 			{
; 340  : 				m_ntvRS[nRS].pLitVerticesWithNormals2Tex = new COLOREDVERTEXWITHNORMAL2TEX[m_nBaseX7LTs * 3] ;

  0026d	8b 45 f8	 mov	 eax, DWORD PTR _this$[ebp]
  00270	8b 48 08	 mov	 ecx, DWORD PTR [eax+8]
  00273	6b c9 03	 imul	 ecx, 3
  00276	89 8d a8 fe ff
	ff		 mov	 DWORD PTR $T86052[ebp], ecx
  0027c	8b 95 a8 fe ff
	ff		 mov	 edx, DWORD PTR $T86052[ebp]
  00282	6b d2 30	 imul	 edx, 48			; 00000030H
  00285	52		 push	 edx
  00286	e8 00 00 00 00	 call	 ??2@YAPAXI@Z		; operator new
  0028b	83 c4 04	 add	 esp, 4
  0028e	89 85 9c fe ff
	ff		 mov	 DWORD PTR $T86053[ebp], eax
  00294	83 bd 9c fe ff
	ff 00		 cmp	 DWORD PTR $T86053[ebp], 0
  0029b	74 28		 je	 SHORT $L86054
  0029d	68 00 00 00 00	 push	 OFFSET FLAT:??0COLOREDVERTEXWITHNORMAL2TEX@@QAE@XZ ; COLOREDVERTEXWITHNORMAL2TEX::COLOREDVERTEXWITHNORMAL2TEX
  002a2	8b 85 a8 fe ff
	ff		 mov	 eax, DWORD PTR $T86052[ebp]
  002a8	50		 push	 eax
  002a9	6a 30		 push	 48			; 00000030H
  002ab	8b 8d 9c fe ff
	ff		 mov	 ecx, DWORD PTR $T86053[ebp]
  002b1	51		 push	 ecx
  002b2	e8 00 00 00 00	 call	 ??_H@YGXPAXIHP6EPAX0@Z@Z
  002b7	8b 95 9c fe ff
	ff		 mov	 edx, DWORD PTR $T86053[ebp]
  002bd	89 95 70 fe ff
	ff		 mov	 DWORD PTR tv190[ebp], edx
  002c3	eb 0a		 jmp	 SHORT $L86055
$L86054:
  002c5	c7 85 70 fe ff
	ff 00 00 00 00	 mov	 DWORD PTR tv190[ebp], 0
$L86055:
  002cf	8b 45 bc	 mov	 eax, DWORD PTR _nRS$85507[ebp]
  002d2	69 c0 44 01 00
	00		 imul	 eax, 324		; 00000144H
  002d8	8b 4d f8	 mov	 ecx, DWORD PTR _this$[ebp]
  002db	8b 95 70 fe ff
	ff		 mov	 edx, DWORD PTR tv190[ebp]
  002e1	89 54 01 40	 mov	 DWORD PTR [ecx+eax+64], edx

; 341  : 				m_dwMem_IndexedVerts += sizeof(COLOREDVERTEXWITHNORMAL2TEX) * m_nBaseX7LTs * 3 ;

  002e5	8b 45 f8	 mov	 eax, DWORD PTR _this$[ebp]
  002e8	8b 48 08	 mov	 ecx, DWORD PTR [eax+8]
  002eb	6b c9 30	 imul	 ecx, 48			; 00000030H
  002ee	6b c9 03	 imul	 ecx, 3
  002f1	8b 55 f8	 mov	 edx, DWORD PTR _this$[ebp]
  002f4	03 4a 1c	 add	 ecx, DWORD PTR [edx+28]
  002f7	8b 45 f8	 mov	 eax, DWORD PTR _this$[ebp]
  002fa	89 48 1c	 mov	 DWORD PTR [eax+28], ecx
$L85529:

; 342  : 			}
; 343  : 			if (m_dwFVF == MYFVF_COLOREDVERTEX2TEX)

  002fd	8b 45 f8	 mov	 eax, DWORD PTR _this$[ebp]
  00300	81 38 c2 02 00
	00		 cmp	 DWORD PTR [eax], 706	; 000002c2H
  00306	0f 85 90 00 00
	00		 jne	 $L85535

; 344  : 			{
; 345  : 				m_ntvRS[nRS].pLitVertices2Tex = new COLOREDVERTEX2TEX[m_nBaseX7LTs * 3] ;

  0030c	8b 45 f8	 mov	 eax, DWORD PTR _this$[ebp]
  0030f	8b 48 08	 mov	 ecx, DWORD PTR [eax+8]
  00312	6b c9 03	 imul	 ecx, 3
  00315	89 8d 90 fe ff
	ff		 mov	 DWORD PTR $T86056[ebp], ecx
  0031b	8b 95 90 fe ff
	ff		 mov	 edx, DWORD PTR $T86056[ebp]
  00321	6b d2 24	 imul	 edx, 36			; 00000024H
  00324	52		 push	 edx
  00325	e8 00 00 00 00	 call	 ??2@YAPAXI@Z		; operator new
  0032a	83 c4 04	 add	 esp, 4
  0032d	89 85 84 fe ff
	ff		 mov	 DWORD PTR $T86057[ebp], eax
  00333	83 bd 84 fe ff
	ff 00		 cmp	 DWORD PTR $T86057[ebp], 0
  0033a	74 28		 je	 SHORT $L86058
  0033c	68 00 00 00 00	 push	 OFFSET FLAT:??0COLOREDVERTEX2TEX@@QAE@XZ ; COLOREDVERTEX2TEX::COLOREDVERTEX2TEX
  00341	8b 85 90 fe ff
	ff		 mov	 eax, DWORD PTR $T86056[ebp]
  00347	50		 push	 eax
  00348	6a 24		 push	 36			; 00000024H
  0034a	8b 8d 84 fe ff
	ff		 mov	 ecx, DWORD PTR $T86057[ebp]
  00350	51		 push	 ecx
  00351	e8 00 00 00 00	 call	 ??_H@YGXPAXIHP6EPAX0@Z@Z
  00356	8b 95 84 fe ff
	ff		 mov	 edx, DWORD PTR $T86057[ebp]
  0035c	89 95 70 fe ff
	ff		 mov	 DWORD PTR tv212[ebp], edx
  00362	eb 0a		 jmp	 SHORT $L86059
$L86058:
  00364	c7 85 70 fe ff
	ff 00 00 00 00	 mov	 DWORD PTR tv212[ebp], 0
$L86059:
  0036e	8b 45 bc	 mov	 eax, DWORD PTR _nRS$85507[ebp]
  00371	69 c0 44 01 00
	00		 imul	 eax, 324		; 00000144H
  00377	8b 4d f8	 mov	 ecx, DWORD PTR _this$[ebp]
  0037a	8b 95 70 fe ff
	ff		 mov	 edx, DWORD PTR tv212[ebp]
  00380	89 54 01 38	 mov	 DWORD PTR [ecx+eax+56], edx

; 346  : 				m_dwMem_IndexedVerts += sizeof(COLOREDVERTEX2TEX) * m_nBaseX7LTs * 3 ;

  00384	8b 45 f8	 mov	 eax, DWORD PTR _this$[ebp]
  00387	8b 48 08	 mov	 ecx, DWORD PTR [eax+8]
  0038a	6b c9 24	 imul	 ecx, 36			; 00000024H
  0038d	6b c9 03	 imul	 ecx, 3
  00390	8b 55 f8	 mov	 edx, DWORD PTR _this$[ebp]
  00393	03 4a 1c	 add	 ecx, DWORD PTR [edx+28]
  00396	8b 45 f8	 mov	 eax, DWORD PTR _this$[ebp]
  00399	89 48 1c	 mov	 DWORD PTR [eax+28], ecx
$L85535:

; 347  : 			}
; 348  : 			m_ntvRS[nRS].pIndices = new WORD [m_nBaseX7LTs * 3] ;

  0039c	8b 45 f8	 mov	 eax, DWORD PTR _this$[ebp]
  0039f	8b 48 08	 mov	 ecx, DWORD PTR [eax+8]
  003a2	6b c9 03	 imul	 ecx, 3
  003a5	d1 e1		 shl	 ecx, 1
  003a7	51		 push	 ecx
  003a8	e8 00 00 00 00	 call	 ??2@YAPAXI@Z		; operator new
  003ad	83 c4 04	 add	 esp, 4
  003b0	89 85 78 fe ff
	ff		 mov	 DWORD PTR $T86060[ebp], eax
  003b6	8b 55 bc	 mov	 edx, DWORD PTR _nRS$85507[ebp]
  003b9	69 d2 44 01 00
	00		 imul	 edx, 324		; 00000144H
  003bf	8b 45 f8	 mov	 eax, DWORD PTR _this$[ebp]
  003c2	8b 8d 78 fe ff
	ff		 mov	 ecx, DWORD PTR $T86060[ebp]
  003c8	89 4c 10 44	 mov	 DWORD PTR [eax+edx+68], ecx

; 349  : 			m_dwMem_IndexedVerts += sizeof(WORD) * m_nBaseX7LTs * 3 ;

  003cc	8b 45 f8	 mov	 eax, DWORD PTR _this$[ebp]
  003cf	8b 48 08	 mov	 ecx, DWORD PTR [eax+8]
  003d2	d1 e1		 shl	 ecx, 1
  003d4	6b c9 03	 imul	 ecx, 3
  003d7	8b 55 f8	 mov	 edx, DWORD PTR _this$[ebp]
  003da	03 4a 1c	 add	 ecx, DWORD PTR [edx+28]
  003dd	8b 45 f8	 mov	 eax, DWORD PTR _this$[ebp]
  003e0	89 48 1c	 mov	 DWORD PTR [eax+28], ecx

; 350  : 
; 351  : 		//
; 352  : 		// Get distinct vertices, and put into pUnlitVertices:
; 353  : 		//
; 354  : 			pTri = FirstX7LT() ;

  003e3	8b 4d f8	 mov	 ecx, DWORD PTR _this$[ebp]
  003e6	e8 00 00 00 00	 call	 ?FirstX7LT@CProceduralRenderObject@@QAEPAUX7LT@@XZ ; CProceduralRenderObject::FirstX7LT
  003eb	89 45 d4	 mov	 DWORD PTR _pTri$[ebp], eax
$L85545:

; 355  : 			while (pTri)

  003ee	83 7d d4 00	 cmp	 DWORD PTR _pTri$[ebp], 0
  003f2	0f 84 fe 00 00
	00		 je	 $L85546

; 356  : 			{
; 357  : 				if (pTri->ndxTex != m_ntvRS[nRS].ndxTex)

  003f8	8b 45 bc	 mov	 eax, DWORD PTR _nRS$85507[ebp]
  003fb	69 c0 44 01 00
	00		 imul	 eax, 324		; 00000144H
  00401	8b 4d d4	 mov	 ecx, DWORD PTR _pTri$[ebp]
  00404	8b 55 f8	 mov	 edx, DWORD PTR _this$[ebp]
  00407	8b 89 a4 00 00
	00		 mov	 ecx, DWORD PTR [ecx+164]
  0040d	3b 4c 02 28	 cmp	 ecx, DWORD PTR [edx+eax+40]
  00411	74 0e		 je	 SHORT $L85547

; 358  : 				{
; 359  : 					pTri = (X7LT*)pTri->pNext ;

  00413	8b 45 d4	 mov	 eax, DWORD PTR _pTri$[ebp]
  00416	8b 88 9c 00 00
	00		 mov	 ecx, DWORD PTR [eax+156]
  0041c	89 4d d4	 mov	 DWORD PTR _pTri$[ebp], ecx

; 360  : 					continue ;

  0041f	eb cd		 jmp	 SHORT $L85545
$L85547:

; 361  : 				}
; 362  : 
; 363  : 				for (i = 0 ; i < 3 ; i ++)

  00421	c7 45 ec 00 00
	00 00		 mov	 DWORD PTR _i$[ebp], 0
  00428	eb 09		 jmp	 SHORT $L85549
$L85550:
  0042a	8b 45 ec	 mov	 eax, DWORD PTR _i$[ebp]
  0042d	83 c0 01	 add	 eax, 1
  00430	89 45 ec	 mov	 DWORD PTR _i$[ebp], eax
$L85549:
  00433	83 7d ec 03	 cmp	 DWORD PTR _i$[ebp], 3
  00437	0f 83 a8 00 00
	00		 jae	 $L85551

; 364  : 				{
; 365  : 				//
; 366  : 				// Do we already have this vertex?
; 367  : 				//
; 368  : 					bVertIsAlreadyThere = FALSE ;

  0043d	c7 45 c8 00 00
	00 00		 mov	 DWORD PTR _bVertIsAlreadyThere$[ebp], 0

; 369  : 					for (j = 0 ; j < m_ntvRS[nRS].dwNumVertices ; j ++)

  00444	c7 45 e0 00 00
	00 00		 mov	 DWORD PTR _j$[ebp], 0
  0044b	eb 09		 jmp	 SHORT $L85552
$L85553:
  0044d	8b 45 e0	 mov	 eax, DWORD PTR _j$[ebp]
  00450	83 c0 01	 add	 eax, 1
  00453	89 45 e0	 mov	 DWORD PTR _j$[ebp], eax
$L85552:
  00456	8b 45 bc	 mov	 eax, DWORD PTR _nRS$85507[ebp]
  00459	69 c0 44 01 00
	00		 imul	 eax, 324		; 00000144H
  0045f	8b 4d f8	 mov	 ecx, DWORD PTR _this$[ebp]
  00462	8b 55 e0	 mov	 edx, DWORD PTR _j$[ebp]
  00465	3b 54 01 48	 cmp	 edx, DWORD PTR [ecx+eax+72]
  00469	73 27		 jae	 SHORT $L85554

; 370  : 						if (CompareIndexedVertex(j, pTri, i, nRS))

  0046b	8b 45 bc	 mov	 eax, DWORD PTR _nRS$85507[ebp]
  0046e	50		 push	 eax
  0046f	8b 4d ec	 mov	 ecx, DWORD PTR _i$[ebp]
  00472	51		 push	 ecx
  00473	8b 55 d4	 mov	 edx, DWORD PTR _pTri$[ebp]
  00476	52		 push	 edx
  00477	8b 45 e0	 mov	 eax, DWORD PTR _j$[ebp]
  0047a	50		 push	 eax
  0047b	8b 4d f8	 mov	 ecx, DWORD PTR _this$[ebp]
  0047e	e8 00 00 00 00	 call	 ?CompareIndexedVertex@CProceduralRenderObject@@QAEHIPAUX7LT@@HH@Z ; CProceduralRenderObject::CompareIndexedVertex
  00483	85 c0		 test	 eax, eax
  00485	74 09		 je	 SHORT $L85555

; 371  : 						{
; 372  : 							bVertIsAlreadyThere = TRUE ;

  00487	c7 45 c8 01 00
	00 00		 mov	 DWORD PTR _bVertIsAlreadyThere$[ebp], 1

; 373  : 							break ;

  0048e	eb 02		 jmp	 SHORT $L85554
$L85555:

; 374  : 						}
; 375  : 
; 376  : 				//
; 377  : 				// If not, insert it into pUnlitVertices:
; 378  : 				//
; 379  : 					if (bVertIsAlreadyThere == FALSE)

  00490	eb bb		 jmp	 SHORT $L85553
$L85554:
  00492	83 7d c8 00	 cmp	 DWORD PTR _bVertIsAlreadyThere$[ebp], 0
  00496	75 48		 jne	 SHORT $L85556

; 380  : 					{
; 381  : 						AddIndexedVertex(m_ntvRS[nRS].dwNumVertices, pTri, i, nRS) ;

  00498	8b 45 bc	 mov	 eax, DWORD PTR _nRS$85507[ebp]
  0049b	50		 push	 eax
  0049c	8b 4d ec	 mov	 ecx, DWORD PTR _i$[ebp]
  0049f	51		 push	 ecx
  004a0	8b 55 d4	 mov	 edx, DWORD PTR _pTri$[ebp]
  004a3	52		 push	 edx
  004a4	8b 45 bc	 mov	 eax, DWORD PTR _nRS$85507[ebp]
  004a7	69 c0 44 01 00
	00		 imul	 eax, 324		; 00000144H
  004ad	8b 4d f8	 mov	 ecx, DWORD PTR _this$[ebp]
  004b0	8b 54 01 48	 mov	 edx, DWORD PTR [ecx+eax+72]
  004b4	52		 push	 edx
  004b5	8b 4d f8	 mov	 ecx, DWORD PTR _this$[ebp]
  004b8	e8 00 00 00 00	 call	 ?AddIndexedVertex@CProceduralRenderObject@@QAEXIPAUX7LT@@HH@Z ; CProceduralRenderObject::AddIndexedVertex

; 382  : 						m_ntvRS[nRS].dwNumVertices ++ ;

  004bd	8b 45 bc	 mov	 eax, DWORD PTR _nRS$85507[ebp]
  004c0	69 c0 44 01 00
	00		 imul	 eax, 324		; 00000144H
  004c6	8b 4d f8	 mov	 ecx, DWORD PTR _this$[ebp]
  004c9	8b 54 01 48	 mov	 edx, DWORD PTR [ecx+eax+72]
  004cd	83 c2 01	 add	 edx, 1
  004d0	8b 45 bc	 mov	 eax, DWORD PTR _nRS$85507[ebp]
  004d3	69 c0 44 01 00
	00		 imul	 eax, 324		; 00000144H
  004d9	8b 4d f8	 mov	 ecx, DWORD PTR _this$[ebp]
  004dc	89 54 01 48	 mov	 DWORD PTR [ecx+eax+72], edx
$L85556:

; 383  : 					}
; 384  : 				}

  004e0	e9 45 ff ff ff	 jmp	 $L85550
$L85551:

; 385  : 				pTri = (X7LT*)pTri->pNext ;

  004e5	8b 45 d4	 mov	 eax, DWORD PTR _pTri$[ebp]
  004e8	8b 88 9c 00 00
	00		 mov	 ecx, DWORD PTR [eax+156]
  004ee	89 4d d4	 mov	 DWORD PTR _pTri$[ebp], ecx

; 386  : 			}

  004f1	e9 f8 fe ff ff	 jmp	 $L85545
$L85546:

; 387  : 			
; 388  : 		//
; 389  : 		// Now we've got all the distinct vertices, go through each triangle's verts.
; 390  : 		// and determine which index to use.
; 391  : 		//
; 392  : 			pTri = FirstX7LT() ;

  004f6	8b 4d f8	 mov	 ecx, DWORD PTR _this$[ebp]
  004f9	e8 00 00 00 00	 call	 ?FirstX7LT@CProceduralRenderObject@@QAEPAUX7LT@@XZ ; CProceduralRenderObject::FirstX7LT
  004fe	89 45 d4	 mov	 DWORD PTR _pTri$[ebp], eax
$L85559:

; 393  : 			while (pTri)

  00501	83 7d d4 00	 cmp	 DWORD PTR _pTri$[ebp], 0
  00505	0f 84 ee 00 00
	00		 je	 $L85560

; 394  : 			{
; 395  : 				if (pTri->ndxTex != m_ntvRS[nRS].ndxTex)

  0050b	8b 45 bc	 mov	 eax, DWORD PTR _nRS$85507[ebp]
  0050e	69 c0 44 01 00
	00		 imul	 eax, 324		; 00000144H
  00514	8b 4d d4	 mov	 ecx, DWORD PTR _pTri$[ebp]
  00517	8b 55 f8	 mov	 edx, DWORD PTR _this$[ebp]
  0051a	8b 89 a4 00 00
	00		 mov	 ecx, DWORD PTR [ecx+164]
  00520	3b 4c 02 28	 cmp	 ecx, DWORD PTR [edx+eax+40]
  00524	74 0e		 je	 SHORT $L85561

; 396  : 				{
; 397  : 					pTri = (X7LT*)pTri->pNext ;

  00526	8b 45 d4	 mov	 eax, DWORD PTR _pTri$[ebp]
  00529	8b 88 9c 00 00
	00		 mov	 ecx, DWORD PTR [eax+156]
  0052f	89 4d d4	 mov	 DWORD PTR _pTri$[ebp], ecx

; 398  : 					continue ;

  00532	eb cd		 jmp	 SHORT $L85559
$L85561:

; 399  : 				}
; 400  : 				for (i = 0 ; i < 3 ; i ++)

  00534	c7 45 ec 00 00
	00 00		 mov	 DWORD PTR _i$[ebp], 0
  0053b	eb 09		 jmp	 SHORT $L85563
$L85564:
  0053d	8b 45 ec	 mov	 eax, DWORD PTR _i$[ebp]
  00540	83 c0 01	 add	 eax, 1
  00543	89 45 ec	 mov	 DWORD PTR _i$[ebp], eax
$L85563:
  00546	83 7d ec 03	 cmp	 DWORD PTR _i$[ebp], 3
  0054a	0f 83 98 00 00
	00		 jae	 $L85565

; 401  : 					for (j = 0 ; j < m_ntvRS[nRS].dwNumVertices ; j ++)

  00550	c7 45 e0 00 00
	00 00		 mov	 DWORD PTR _j$[ebp], 0
  00557	eb 09		 jmp	 SHORT $L85566
$L85567:
  00559	8b 45 e0	 mov	 eax, DWORD PTR _j$[ebp]
  0055c	83 c0 01	 add	 eax, 1
  0055f	89 45 e0	 mov	 DWORD PTR _j$[ebp], eax
$L85566:
  00562	8b 45 bc	 mov	 eax, DWORD PTR _nRS$85507[ebp]
  00565	69 c0 44 01 00
	00		 imul	 eax, 324		; 00000144H
  0056b	8b 4d f8	 mov	 ecx, DWORD PTR _this$[ebp]
  0056e	8b 55 e0	 mov	 edx, DWORD PTR _j$[ebp]
  00571	3b 54 01 48	 cmp	 edx, DWORD PTR [ecx+eax+72]
  00575	73 6c		 jae	 SHORT $L85568

; 402  : 						if (CompareIndexedVertex(j, pTri, i, nRS))

  00577	8b 45 bc	 mov	 eax, DWORD PTR _nRS$85507[ebp]
  0057a	50		 push	 eax
  0057b	8b 4d ec	 mov	 ecx, DWORD PTR _i$[ebp]
  0057e	51		 push	 ecx
  0057f	8b 55 d4	 mov	 edx, DWORD PTR _pTri$[ebp]
  00582	52		 push	 edx
  00583	8b 45 e0	 mov	 eax, DWORD PTR _j$[ebp]
  00586	50		 push	 eax
  00587	8b 4d f8	 mov	 ecx, DWORD PTR _this$[ebp]
  0058a	e8 00 00 00 00	 call	 ?CompareIndexedVertex@CProceduralRenderObject@@QAEHIPAUX7LT@@HH@Z ; CProceduralRenderObject::CompareIndexedVertex
  0058f	85 c0		 test	 eax, eax
  00591	74 4b		 je	 SHORT $L85569

; 403  : 							m_ntvRS[nRS].pIndices[m_ntvRS[nRS].dwNumIndices++] = j ;

  00593	8b 45 bc	 mov	 eax, DWORD PTR _nRS$85507[ebp]
  00596	69 c0 44 01 00
	00		 imul	 eax, 324		; 00000144H
  0059c	8b 4d bc	 mov	 ecx, DWORD PTR _nRS$85507[ebp]
  0059f	69 c9 44 01 00
	00		 imul	 ecx, 324		; 00000144H
  005a5	8b 55 f8	 mov	 edx, DWORD PTR _this$[ebp]
  005a8	8b 4c 0a 4c	 mov	 ecx, DWORD PTR [edx+ecx+76]
  005ac	8b 55 f8	 mov	 edx, DWORD PTR _this$[ebp]
  005af	8b 44 02 44	 mov	 eax, DWORD PTR [edx+eax+68]
  005b3	66 8b 55 e0	 mov	 dx, WORD PTR _j$[ebp]
  005b7	66 89 14 48	 mov	 WORD PTR [eax+ecx*2], dx
  005bb	8b 45 bc	 mov	 eax, DWORD PTR _nRS$85507[ebp]
  005be	69 c0 44 01 00
	00		 imul	 eax, 324		; 00000144H
  005c4	8b 4d f8	 mov	 ecx, DWORD PTR _this$[ebp]
  005c7	8b 54 01 4c	 mov	 edx, DWORD PTR [ecx+eax+76]
  005cb	83 c2 01	 add	 edx, 1
  005ce	8b 45 bc	 mov	 eax, DWORD PTR _nRS$85507[ebp]
  005d1	69 c0 44 01 00
	00		 imul	 eax, 324		; 00000144H
  005d7	8b 4d f8	 mov	 ecx, DWORD PTR _this$[ebp]
  005da	89 54 01 4c	 mov	 DWORD PTR [ecx+eax+76], edx
$L85569:

; 404  : 
; 405  : 				pTri = (X7LT*)pTri->pNext ;

  005de	e9 76 ff ff ff	 jmp	 $L85567
$L85568:
  005e3	e9 55 ff ff ff	 jmp	 $L85564
$L85565:
  005e8	8b 45 d4	 mov	 eax, DWORD PTR _pTri$[ebp]
  005eb	8b 88 9c 00 00
	00		 mov	 ecx, DWORD PTR [eax+156]
  005f1	89 4d d4	 mov	 DWORD PTR _pTri$[ebp], ecx

; 406  : 			}

  005f4	e9 08 ff ff ff	 jmp	 $L85559
$L85560:

; 407  : 
; 408  : 		//
; 409  : 		// Build list of drawing subsets -- only 1!
; 410  : 		//
; 411  : 			m_ntvRS[nRS].nDSs = 1 ;

  005f9	8b 45 bc	 mov	 eax, DWORD PTR _nRS$85507[ebp]
  005fc	69 c0 44 01 00
	00		 imul	 eax, 324		; 00000144H
  00602	8b 4d f8	 mov	 ecx, DWORD PTR _this$[ebp]
  00605	c7 84 01 a0 00
	00 00 01 00 00
	00		 mov	 DWORD PTR [ecx+eax+160], 1

; 412  : 			m_ntvRS[nRS].dwSS_NumVerts[0] = m_ntvRS[nRS].dwNumVertices ;

  00610	8b 45 bc	 mov	 eax, DWORD PTR _nRS$85507[ebp]
  00613	69 c0 44 01 00
	00		 imul	 eax, 324		; 00000144H
  00619	8b 4d bc	 mov	 ecx, DWORD PTR _nRS$85507[ebp]
  0061c	69 c9 44 01 00
	00		 imul	 ecx, 324		; 00000144H
  00622	8b 55 f8	 mov	 edx, DWORD PTR _this$[ebp]
  00625	8b 75 f8	 mov	 esi, DWORD PTR _this$[ebp]
  00628	8b 44 06 48	 mov	 eax, DWORD PTR [esi+eax+72]
  0062c	89 84 0a f4 00
	00 00		 mov	 DWORD PTR [edx+ecx+244], eax

; 413  : 			m_ntvRS[nRS].dwSS_MinIndex[0] = 0 ;

  00633	8b 45 bc	 mov	 eax, DWORD PTR _nRS$85507[ebp]
  00636	69 c0 44 01 00
	00		 imul	 eax, 324		; 00000144H
  0063c	8b 4d f8	 mov	 ecx, DWORD PTR _this$[ebp]
  0063f	c7 84 01 a4 00
	00 00 00 00 00
	00		 mov	 DWORD PTR [ecx+eax+164], 0

; 414  : 			m_ntvRS[nRS].dwSS_MaxIndex[0] = m_ntvRS[nRS].dwNumVertices - 1 ;

  0064a	8b 45 bc	 mov	 eax, DWORD PTR _nRS$85507[ebp]
  0064d	69 c0 44 01 00
	00		 imul	 eax, 324		; 00000144H
  00653	8b 4d f8	 mov	 ecx, DWORD PTR _this$[ebp]
  00656	8b 54 01 48	 mov	 edx, DWORD PTR [ecx+eax+72]
  0065a	83 ea 01	 sub	 edx, 1
  0065d	8b 45 bc	 mov	 eax, DWORD PTR _nRS$85507[ebp]
  00660	69 c0 44 01 00
	00		 imul	 eax, 324		; 00000144H
  00666	8b 4d f8	 mov	 ecx, DWORD PTR _this$[ebp]
  00669	89 94 01 cc 00
	00 00		 mov	 DWORD PTR [ecx+eax+204], edx

; 415  : 			m_ntvRS[nRS].dwSS_StartIndex[0] = 0 ;

  00670	8b 45 bc	 mov	 eax, DWORD PTR _nRS$85507[ebp]
  00673	69 c0 44 01 00
	00		 imul	 eax, 324		; 00000144H
  00679	8b 4d f8	 mov	 ecx, DWORD PTR _this$[ebp]
  0067c	c7 84 01 1c 01
	00 00 00 00 00
	00		 mov	 DWORD PTR [ecx+eax+284], 0

; 416  : 			m_ntvRS[nRS].dwSS_PrimCount[0] = m_ntvRS[nRS].dwNumIndices / 3 ;

  00687	8b 45 bc	 mov	 eax, DWORD PTR _nRS$85507[ebp]
  0068a	69 c0 44 01 00
	00		 imul	 eax, 324		; 00000144H
  00690	8b 4d f8	 mov	 ecx, DWORD PTR _this$[ebp]
  00693	8b 44 01 4c	 mov	 eax, DWORD PTR [ecx+eax+76]
  00697	33 d2		 xor	 edx, edx
  00699	b9 03 00 00 00	 mov	 ecx, 3
  0069e	f7 f1		 div	 ecx
  006a0	8b 55 bc	 mov	 edx, DWORD PTR _nRS$85507[ebp]
  006a3	69 d2 44 01 00
	00		 imul	 edx, 324		; 00000144H
  006a9	8b 4d f8	 mov	 ecx, DWORD PTR _this$[ebp]
  006ac	89 84 11 44 01
	00 00		 mov	 DWORD PTR [ecx+edx+324], eax

; 417  : 		}

  006b3	e9 ae f9 ff ff	 jmp	 $L85509
$L85510:

; 418  : 
; 419  : 		return S_OK ;

  006b8	33 c0		 xor	 eax, eax

; 420  : 	}

  006ba	5f		 pop	 edi
  006bb	5e		 pop	 esi
  006bc	5b		 pop	 ebx
  006bd	81 c4 90 01 00
	00		 add	 esp, 400		; 00000190H
  006c3	3b ec		 cmp	 ebp, esp
  006c5	e8 00 00 00 00	 call	 __RTC_CheckEsp
  006ca	8b e5		 mov	 esp, ebp
  006cc	5d		 pop	 ebp
  006cd	c3		 ret	 0
?IndexToList@CProceduralRenderObject@@QAEJXZ ENDP	; CProceduralRenderObject::IndexToList
; Function compile flags: /Odt /RTCsu /ZI
; File c:\dxsdk\include\d3dx8math.h
_TEXT	ENDS
;	COMDAT ??0D3DXVECTOR3@@QAE@XZ
_TEXT	SEGMENT
_this$ = -8
??0D3DXVECTOR3@@QAE@XZ PROC NEAR			; D3DXVECTOR3::D3DXVECTOR3, COMDAT
; _this$ = ecx

; 89   :     D3DXVECTOR3() {};

  00000	55		 push	 ebp
  00001	8b ec		 mov	 ebp, esp
  00003	81 ec cc 00 00
	00		 sub	 esp, 204		; 000000ccH
  00009	53		 push	 ebx
  0000a	56		 push	 esi
  0000b	57		 push	 edi
  0000c	51		 push	 ecx
  0000d	8d bd 34 ff ff
	ff		 lea	 edi, DWORD PTR [ebp-204]
  00013	b9 33 00 00 00	 mov	 ecx, 51			; 00000033H
  00018	b8 cc cc cc cc	 mov	 eax, -858993460		; ccccccccH
  0001d	f3 ab		 rep stosd
  0001f	59		 pop	 ecx
  00020	89 4d f8	 mov	 DWORD PTR _this$[ebp], ecx
  00023	8b 45 f8	 mov	 eax, DWORD PTR _this$[ebp]
  00026	5f		 pop	 edi
  00027	5e		 pop	 esi
  00028	5b		 pop	 ebx
  00029	8b e5		 mov	 esp, ebp
  0002b	5d		 pop	 ebp
  0002c	c3		 ret	 0
??0D3DXVECTOR3@@QAE@XZ ENDP				; D3DXVECTOR3::D3DXVECTOR3
; Function compile flags: /Odt /RTCsu /ZI
_TEXT	ENDS
;	COMDAT ??0D3DXMATRIX@@QAE@XZ
_TEXT	SEGMENT
_this$ = -8
??0D3DXMATRIX@@QAE@XZ PROC NEAR				; D3DXMATRIX::D3DXMATRIX, COMDAT
; _this$ = ecx

; 177  :     D3DXMATRIX() {};

  00000	55		 push	 ebp
  00001	8b ec		 mov	 ebp, esp
  00003	81 ec cc 00 00
	00		 sub	 esp, 204		; 000000ccH
  00009	53		 push	 ebx
  0000a	56		 push	 esi
  0000b	57		 push	 edi
  0000c	51		 push	 ecx
  0000d	8d bd 34 ff ff
	ff		 lea	 edi, DWORD PTR [ebp-204]
  00013	b9 33 00 00 00	 mov	 ecx, 51			; 00000033H
  00018	b8 cc cc cc cc	 mov	 eax, -858993460		; ccccccccH
  0001d	f3 ab		 rep stosd
  0001f	59		 pop	 ecx
  00020	89 4d f8	 mov	 DWORD PTR _this$[ebp], ecx
  00023	8b 45 f8	 mov	 eax, DWORD PTR _this$[ebp]
  00026	5f		 pop	 edi
  00027	5e		 pop	 esi
  00028	5b		 pop	 ebx
  00029	8b e5		 mov	 esp, ebp
  0002b	5d		 pop	 ebp
  0002c	c3		 ret	 0
??0D3DXMATRIX@@QAE@XZ ENDP				; D3DXMATRIX::D3DXMATRIX
; Function compile flags: /Odt /RTCsu /ZI
_TEXT	ENDS
;	COMDAT ??_H@YGXPAXIHP6EPAX0@Z@Z
_TEXT	SEGMENT
___t$ = 8
___s$ = 12
___n$ = 16
___f$ = 20
??_H@YGXPAXIHP6EPAX0@Z@Z PROC NEAR			; `vector constructor iterator', COMDAT
  00000	55		 push	 ebp
  00001	8b ec		 mov	 ebp, esp
  00003	81 ec c0 00 00
	00		 sub	 esp, 192		; 000000c0H
  00009	53		 push	 ebx
  0000a	56		 push	 esi
  0000b	57		 push	 edi
  0000c	8d bd 40 ff ff
	ff		 lea	 edi, DWORD PTR [ebp-192]
  00012	b9 30 00 00 00	 mov	 ecx, 48			; 00000030H
  00017	b8 cc cc cc cc	 mov	 eax, -858993460		; ccccccccH
  0001c	f3 ab		 rep stosd
$L85580:
  0001e	8b 45 10	 mov	 eax, DWORD PTR ___n$[ebp]
  00021	83 e8 01	 sub	 eax, 1
  00024	89 45 10	 mov	 DWORD PTR ___n$[ebp], eax
  00027	83 7d 10 00	 cmp	 DWORD PTR ___n$[ebp], 0
  0002b	7c 1a		 jl	 SHORT $L85578
  0002d	8b f4		 mov	 esi, esp
  0002f	8b 4d 08	 mov	 ecx, DWORD PTR ___t$[ebp]
  00032	ff 55 14	 call	 DWORD PTR ___f$[ebp]
  00035	3b f4		 cmp	 esi, esp
  00037	e8 00 00 00 00	 call	 __RTC_CheckEsp
  0003c	8b 45 08	 mov	 eax, DWORD PTR ___t$[ebp]
  0003f	03 45 0c	 add	 eax, DWORD PTR ___s$[ebp]
  00042	89 45 08	 mov	 DWORD PTR ___t$[ebp], eax
  00045	eb d7		 jmp	 SHORT $L85580
$L85578:
  00047	5f		 pop	 edi
  00048	5e		 pop	 esi
  00049	5b		 pop	 ebx
  0004a	81 c4 c0 00 00
	00		 add	 esp, 192		; 000000c0H
  00050	3b ec		 cmp	 ebp, esp
  00052	e8 00 00 00 00	 call	 __RTC_CheckEsp
  00057	8b e5		 mov	 esp, ebp
  00059	5d		 pop	 ebp
  0005a	c2 10 00	 ret	 16			; 00000010H
??_H@YGXPAXIHP6EPAX0@Z@Z ENDP				; `vector constructor iterator'
; Function compile flags: /Odt /RTCsu /ZI
; File c:\documents and settings\dom\my documents\_dev\ae\xlr8a\x7g\cproceduralrenderobject.cpp
_TEXT	ENDS
;	COMDAT ?GetDistinctRenderStates@CProceduralRenderObject@@QAEXXZ
_TEXT	SEGMENT
_i$85594 = -96
_nDistinctTex$ = -84
_ndxDistinctTex$ = -72
_bTexIsAlreadyThere$ = -32
_pTri$ = -20
_this$ = -8
?GetDistinctRenderStates@CProceduralRenderObject@@QAEXXZ PROC NEAR ; CProceduralRenderObject::GetDistinctRenderStates, COMDAT
; _this$ = ecx

; 427  : 	{

  00000	55		 push	 ebp
  00001	8b ec		 mov	 ebp, esp
  00003	81 ec 24 01 00
	00		 sub	 esp, 292		; 00000124H
  00009	53		 push	 ebx
  0000a	56		 push	 esi
  0000b	57		 push	 edi
  0000c	51		 push	 ecx
  0000d	8d bd dc fe ff
	ff		 lea	 edi, DWORD PTR [ebp-292]
  00013	b9 49 00 00 00	 mov	 ecx, 73			; 00000049H
  00018	b8 cc cc cc cc	 mov	 eax, -858993460		; ccccccccH
  0001d	f3 ab		 rep stosd
  0001f	59		 pop	 ecx
  00020	89 4d f8	 mov	 DWORD PTR _this$[ebp], ecx

; 428  : 		X7LT	*pTri ;
; 429  : 		BOOL     bTexIsAlreadyThere ;
; 430  : 		unsigned ndxDistinctTex[8] ;
; 431  : 		unsigned nDistinctTex = 0 ;

  00023	c7 45 ac 00 00
	00 00		 mov	 DWORD PTR _nDistinctTex$[ebp], 0

; 432  : 
; 433  : 		pTri = FirstX7LT() ;

  0002a	8b 4d f8	 mov	 ecx, DWORD PTR _this$[ebp]
  0002d	e8 00 00 00 00	 call	 ?FirstX7LT@CProceduralRenderObject@@QAEPAUX7LT@@XZ ; CProceduralRenderObject::FirstX7LT
  00032	89 45 ec	 mov	 DWORD PTR _pTri$[ebp], eax
$L85592:

; 434  : 		while (pTri)

  00035	83 7d ec 00	 cmp	 DWORD PTR _pTri$[ebp], 0
  00039	0f 84 a0 00 00
	00		 je	 $L85593

; 435  : 		{
; 436  : 			bTexIsAlreadyThere = FALSE ;

  0003f	c7 45 e0 00 00
	00 00		 mov	 DWORD PTR _bTexIsAlreadyThere$[ebp], 0

; 437  : 			for (unsigned i = 0 ; i < nDistinctTex ; i ++)

  00046	c7 45 a0 00 00
	00 00		 mov	 DWORD PTR _i$85594[ebp], 0
  0004d	eb 09		 jmp	 SHORT $L85595
$L85596:
  0004f	8b 45 a0	 mov	 eax, DWORD PTR _i$85594[ebp]
  00052	83 c0 01	 add	 eax, 1
  00055	89 45 a0	 mov	 DWORD PTR _i$85594[ebp], eax
$L85595:
  00058	8b 45 a0	 mov	 eax, DWORD PTR _i$85594[ebp]
  0005b	3b 45 ac	 cmp	 eax, DWORD PTR _nDistinctTex$[ebp]
  0005e	73 1d		 jae	 SHORT $L85597

; 438  : 				if (pTri->ndxTex == ndxDistinctTex[i])

  00060	8b 45 ec	 mov	 eax, DWORD PTR _pTri$[ebp]
  00063	8b 4d a0	 mov	 ecx, DWORD PTR _i$85594[ebp]
  00066	8b 90 a4 00 00
	00		 mov	 edx, DWORD PTR [eax+164]
  0006c	3b 54 8d b8	 cmp	 edx, DWORD PTR _ndxDistinctTex$[ebp+ecx*4]
  00070	75 09		 jne	 SHORT $L85598

; 439  : 				{
; 440  : 					bTexIsAlreadyThere = TRUE ;

  00072	c7 45 e0 01 00
	00 00		 mov	 DWORD PTR _bTexIsAlreadyThere$[ebp], 1

; 441  : 					/*m_ntvRS[i].nPolys ++ ;*/
; 442  : 					break ;

  00079	eb 02		 jmp	 SHORT $L85597
$L85598:

; 443  : 				}
; 444  : 
; 445  : 			if (bTexIsAlreadyThere == FALSE)

  0007b	eb d2		 jmp	 SHORT $L85596
$L85597:
  0007d	83 7d e0 00	 cmp	 DWORD PTR _bTexIsAlreadyThere$[ebp], 0
  00081	75 4b		 jne	 SHORT $L85599

; 446  : 			{
; 447  : 				/*m_ntvRS[nDistinctTex].nPolys = 1 ;*/
; 448  : 				m_ntvRS[nDistinctTex].ndxTex = pTri->ndxTex ;

  00083	8b 45 ac	 mov	 eax, DWORD PTR _nDistinctTex$[ebp]
  00086	69 c0 44 01 00
	00		 imul	 eax, 324		; 00000144H
  0008c	8b 4d f8	 mov	 ecx, DWORD PTR _this$[ebp]
  0008f	8b 55 ec	 mov	 edx, DWORD PTR _pTri$[ebp]
  00092	8b 92 a4 00 00
	00		 mov	 edx, DWORD PTR [edx+164]
  00098	89 54 01 28	 mov	 DWORD PTR [ecx+eax+40], edx

; 449  : 				m_ntvRS[nDistinctTex].ndxTex2 = pTri->ndxTex2 ;

  0009c	8b 45 ac	 mov	 eax, DWORD PTR _nDistinctTex$[ebp]
  0009f	69 c0 44 01 00
	00		 imul	 eax, 324		; 00000144H
  000a5	8b 4d f8	 mov	 ecx, DWORD PTR _this$[ebp]
  000a8	8b 55 ec	 mov	 edx, DWORD PTR _pTri$[ebp]
  000ab	8b 92 a8 00 00
	00		 mov	 edx, DWORD PTR [edx+168]
  000b1	89 54 01 2c	 mov	 DWORD PTR [ecx+eax+44], edx

; 450  : 				ndxDistinctTex[nDistinctTex ++] = pTri->ndxTex ;

  000b5	8b 45 ac	 mov	 eax, DWORD PTR _nDistinctTex$[ebp]
  000b8	8b 4d ec	 mov	 ecx, DWORD PTR _pTri$[ebp]
  000bb	8b 91 a4 00 00
	00		 mov	 edx, DWORD PTR [ecx+164]
  000c1	89 54 85 b8	 mov	 DWORD PTR _ndxDistinctTex$[ebp+eax*4], edx
  000c5	8b 45 ac	 mov	 eax, DWORD PTR _nDistinctTex$[ebp]
  000c8	83 c0 01	 add	 eax, 1
  000cb	89 45 ac	 mov	 DWORD PTR _nDistinctTex$[ebp], eax
$L85599:

; 451  : 			}
; 452  : 
; 453  : 			pTri = (X7LT*)pTri->pNext ;

  000ce	8b 45 ec	 mov	 eax, DWORD PTR _pTri$[ebp]
  000d1	8b 88 9c 00 00
	00		 mov	 ecx, DWORD PTR [eax+156]
  000d7	89 4d ec	 mov	 DWORD PTR _pTri$[ebp], ecx

; 454  : 		}

  000da	e9 56 ff ff ff	 jmp	 $L85592
$L85593:

; 455  : 		m_nRSs = nDistinctTex ;

  000df	8b 45 f8	 mov	 eax, DWORD PTR _this$[ebp]
  000e2	8b 4d ac	 mov	 ecx, DWORD PTR _nDistinctTex$[ebp]
  000e5	89 88 48 0a 00
	00		 mov	 DWORD PTR [eax+2632], ecx

; 456  : 	}

  000eb	52		 push	 edx
  000ec	8b cd		 mov	 ecx, ebp
  000ee	50		 push	 eax
  000ef	8d 15 00 00 00
	00		 lea	 edx, DWORD PTR $L86073
  000f5	e8 00 00 00 00	 call	 @_RTC_CheckStackVars@8
  000fa	58		 pop	 eax
  000fb	5a		 pop	 edx
  000fc	5f		 pop	 edi
  000fd	5e		 pop	 esi
  000fe	5b		 pop	 ebx
  000ff	81 c4 24 01 00
	00		 add	 esp, 292		; 00000124H
  00105	3b ec		 cmp	 ebp, esp
  00107	e8 00 00 00 00	 call	 __RTC_CheckEsp
  0010c	8b e5		 mov	 esp, ebp
  0010e	5d		 pop	 ebp
  0010f	c3		 ret	 0
$L86073:
  00110	01 00 00 00	 DD	 1
  00114	00 00 00 00	 DD	 $L86072
$L86072:
  00118	b8 ff ff ff	 DD	 -72			; ffffffb8H
  0011c	20 00 00 00	 DD	 32			; 00000020H
  00120	00 00 00 00	 DD	 $L86071
$L86071:
  00124	6e		 DB	 110			; 0000006eH
  00125	64		 DB	 100			; 00000064H
  00126	78		 DB	 120			; 00000078H
  00127	44		 DB	 68			; 00000044H
  00128	69		 DB	 105			; 00000069H
  00129	73		 DB	 115			; 00000073H
  0012a	74		 DB	 116			; 00000074H
  0012b	69		 DB	 105			; 00000069H
  0012c	6e		 DB	 110			; 0000006eH
  0012d	63		 DB	 99			; 00000063H
  0012e	74		 DB	 116			; 00000074H
  0012f	54		 DB	 84			; 00000054H
  00130	65		 DB	 101			; 00000065H
  00131	78		 DB	 120			; 00000078H
  00132	00		 DB	 0
?GetDistinctRenderStates@CProceduralRenderObject@@QAEXXZ ENDP ; CProceduralRenderObject::GetDistinctRenderStates
; Function compile flags: /Odt /RTCsu /ZI
_TEXT	ENDS
;	COMDAT ?CompareIndexedVertex@CProceduralRenderObject@@QAEHIPAUX7LT@@HH@Z
_TEXT	SEGMENT
_this$ = -8
_ndx$ = 8
_tri$ = 12
_v$ = 16
_nRS$ = 20
?CompareIndexedVertex@CProceduralRenderObject@@QAEHIPAUX7LT@@HH@Z PROC NEAR ; CProceduralRenderObject::CompareIndexedVertex, COMDAT
; _this$ = ecx

; 458  : 	{

  00000	55		 push	 ebp
  00001	8b ec		 mov	 ebp, esp
  00003	81 ec cc 00 00
	00		 sub	 esp, 204		; 000000ccH
  00009	53		 push	 ebx
  0000a	56		 push	 esi
  0000b	57		 push	 edi
  0000c	51		 push	 ecx
  0000d	8d bd 34 ff ff
	ff		 lea	 edi, DWORD PTR [ebp-204]
  00013	b9 33 00 00 00	 mov	 ecx, 51			; 00000033H
  00018	b8 cc cc cc cc	 mov	 eax, -858993460		; ccccccccH
  0001d	f3 ab		 rep stosd
  0001f	59		 pop	 ecx
  00020	89 4d f8	 mov	 DWORD PTR _this$[ebp], ecx

; 459  : 		if (m_dwFVF == MYFVF_UNCOLOREDVERTEX)

  00023	8b 45 f8	 mov	 eax, DWORD PTR _this$[ebp]
  00026	81 38 12 01 00
	00		 cmp	 DWORD PTR [eax], 274	; 00000112H
  0002c	0f 85 f6 00 00
	00		 jne	 $L85608

; 460  : 		{
; 461  : 			if (m_ntvRS[nRS].pUnlitVertices[ndx].x == tri->Points[v].x &&
; 462  : 				m_ntvRS[nRS].pUnlitVertices[ndx].y == tri->Points[v].y &&
; 463  : 				m_ntvRS[nRS].pUnlitVertices[ndx].z == tri->Points[v].z &&
; 464  : 				m_ntvRS[nRS].pUnlitVertices[ndx].tu1 == tri->Points[v].tu1 &&
; 465  : 				m_ntvRS[nRS].pUnlitVertices[ndx].tv1 == tri->Points[v].tv1)

  00032	8b 45 14	 mov	 eax, DWORD PTR _nRS$[ebp]
  00035	69 c0 44 01 00
	00		 imul	 eax, 324		; 00000144H
  0003b	8b 4d 08	 mov	 ecx, DWORD PTR _ndx$[ebp]
  0003e	c1 e1 05	 shl	 ecx, 5
  00041	8b 55 f8	 mov	 edx, DWORD PTR _this$[ebp]
  00044	8b 44 02 30	 mov	 eax, DWORD PTR [edx+eax+48]
  00048	8b 55 10	 mov	 edx, DWORD PTR _v$[ebp]
  0004b	c1 e2 05	 shl	 edx, 5
  0004e	8b 75 0c	 mov	 esi, DWORD PTR _tri$[ebp]
  00051	d9 04 01	 fld	 DWORD PTR [ecx+eax]
  00054	d8 1c 16	 fcomp	 DWORD PTR [esi+edx]
  00057	df e0		 fnstsw	 ax
  00059	f6 c4 44	 test	 ah, 68			; 00000044H
  0005c	0f 8a c6 00 00
	00		 jp	 $L85608
  00062	8b 45 14	 mov	 eax, DWORD PTR _nRS$[ebp]
  00065	69 c0 44 01 00
	00		 imul	 eax, 324		; 00000144H
  0006b	8b 4d 08	 mov	 ecx, DWORD PTR _ndx$[ebp]
  0006e	c1 e1 05	 shl	 ecx, 5
  00071	8b 55 f8	 mov	 edx, DWORD PTR _this$[ebp]
  00074	8b 44 02 30	 mov	 eax, DWORD PTR [edx+eax+48]
  00078	8b 55 10	 mov	 edx, DWORD PTR _v$[ebp]
  0007b	c1 e2 05	 shl	 edx, 5
  0007e	8b 75 0c	 mov	 esi, DWORD PTR _tri$[ebp]
  00081	d9 44 08 04	 fld	 DWORD PTR [eax+ecx+4]
  00085	d8 5c 16 04	 fcomp	 DWORD PTR [esi+edx+4]
  00089	df e0		 fnstsw	 ax
  0008b	f6 c4 44	 test	 ah, 68			; 00000044H
  0008e	0f 8a 94 00 00
	00		 jp	 $L85608
  00094	8b 45 14	 mov	 eax, DWORD PTR _nRS$[ebp]
  00097	69 c0 44 01 00
	00		 imul	 eax, 324		; 00000144H
  0009d	8b 4d 08	 mov	 ecx, DWORD PTR _ndx$[ebp]
  000a0	c1 e1 05	 shl	 ecx, 5
  000a3	8b 55 f8	 mov	 edx, DWORD PTR _this$[ebp]
  000a6	8b 44 02 30	 mov	 eax, DWORD PTR [edx+eax+48]
  000aa	8b 55 10	 mov	 edx, DWORD PTR _v$[ebp]
  000ad	c1 e2 05	 shl	 edx, 5
  000b0	8b 75 0c	 mov	 esi, DWORD PTR _tri$[ebp]
  000b3	d9 44 08 08	 fld	 DWORD PTR [eax+ecx+8]
  000b7	d8 5c 16 08	 fcomp	 DWORD PTR [esi+edx+8]
  000bb	df e0		 fnstsw	 ax
  000bd	f6 c4 44	 test	 ah, 68			; 00000044H
  000c0	7a 66		 jp	 SHORT $L85608
  000c2	8b 45 14	 mov	 eax, DWORD PTR _nRS$[ebp]
  000c5	69 c0 44 01 00
	00		 imul	 eax, 324		; 00000144H
  000cb	8b 4d 08	 mov	 ecx, DWORD PTR _ndx$[ebp]
  000ce	c1 e1 05	 shl	 ecx, 5
  000d1	8b 55 f8	 mov	 edx, DWORD PTR _this$[ebp]
  000d4	8b 44 02 30	 mov	 eax, DWORD PTR [edx+eax+48]
  000d8	8b 55 10	 mov	 edx, DWORD PTR _v$[ebp]
  000db	c1 e2 05	 shl	 edx, 5
  000de	8b 75 0c	 mov	 esi, DWORD PTR _tri$[ebp]
  000e1	d9 44 08 18	 fld	 DWORD PTR [eax+ecx+24]
  000e5	d8 5c 16 18	 fcomp	 DWORD PTR [esi+edx+24]
  000e9	df e0		 fnstsw	 ax
  000eb	f6 c4 44	 test	 ah, 68			; 00000044H
  000ee	7a 38		 jp	 SHORT $L85608
  000f0	8b 45 14	 mov	 eax, DWORD PTR _nRS$[ebp]
  000f3	69 c0 44 01 00
	00		 imul	 eax, 324		; 00000144H
  000f9	8b 4d 08	 mov	 ecx, DWORD PTR _ndx$[ebp]
  000fc	c1 e1 05	 shl	 ecx, 5
  000ff	8b 55 f8	 mov	 edx, DWORD PTR _this$[ebp]
  00102	8b 44 02 30	 mov	 eax, DWORD PTR [edx+eax+48]
  00106	8b 55 10	 mov	 edx, DWORD PTR _v$[ebp]
  00109	c1 e2 05	 shl	 edx, 5
  0010c	8b 75 0c	 mov	 esi, DWORD PTR _tri$[ebp]
  0010f	d9 44 08 1c	 fld	 DWORD PTR [eax+ecx+28]
  00113	d8 5c 16 1c	 fcomp	 DWORD PTR [esi+edx+28]
  00117	df e0		 fnstsw	 ax
  00119	f6 c4 44	 test	 ah, 68			; 00000044H
  0011c	7a 0a		 jp	 SHORT $L85608

; 466  : 				return TRUE ;

  0011e	b8 01 00 00 00	 mov	 eax, 1
  00123	e9 af 06 00 00	 jmp	 $L85607
$L85608:

; 467  : 		}
; 468  : 		if (m_dwFVF == MYFVF_COLOREDVERTEX)

  00128	8b 45 f8	 mov	 eax, DWORD PTR _this$[ebp]
  0012b	81 38 c2 01 00
	00		 cmp	 DWORD PTR [eax], 450	; 000001c2H
  00131	0f 85 20 01 00
	00		 jne	 $L85610

; 469  : 		{
; 470  : 			if (m_ntvRS[nRS].pLitVertices[ndx].x == tri->Points[v].x &&
; 471  : 				m_ntvRS[nRS].pLitVertices[ndx].y == tri->Points[v].y &&
; 472  : 				m_ntvRS[nRS].pLitVertices[ndx].z == tri->Points[v].z &&
; 473  : 				m_ntvRS[nRS].pLitVertices[ndx].tu1 == tri->Points[v].tu1 &&
; 474  : 				m_ntvRS[nRS].pLitVertices[ndx].tv1 == tri->Points[v].tv1 &&
; 475  : 				m_ntvRS[nRS].pLitVertices[ndx].color == tri->Colors[v])

  00137	8b 45 14	 mov	 eax, DWORD PTR _nRS$[ebp]
  0013a	69 c0 44 01 00
	00		 imul	 eax, 324		; 00000144H
  00140	8b 4d 08	 mov	 ecx, DWORD PTR _ndx$[ebp]
  00143	6b c9 1c	 imul	 ecx, 28			; 0000001cH
  00146	8b 55 f8	 mov	 edx, DWORD PTR _this$[ebp]
  00149	8b 44 02 34	 mov	 eax, DWORD PTR [edx+eax+52]
  0014d	8b 55 10	 mov	 edx, DWORD PTR _v$[ebp]
  00150	c1 e2 05	 shl	 edx, 5
  00153	8b 75 0c	 mov	 esi, DWORD PTR _tri$[ebp]
  00156	d9 04 01	 fld	 DWORD PTR [ecx+eax]
  00159	d8 1c 16	 fcomp	 DWORD PTR [esi+edx]
  0015c	df e0		 fnstsw	 ax
  0015e	f6 c4 44	 test	 ah, 68			; 00000044H
  00161	0f 8a f0 00 00
	00		 jp	 $L85610
  00167	8b 45 14	 mov	 eax, DWORD PTR _nRS$[ebp]
  0016a	69 c0 44 01 00
	00		 imul	 eax, 324		; 00000144H
  00170	8b 4d 08	 mov	 ecx, DWORD PTR _ndx$[ebp]
  00173	6b c9 1c	 imul	 ecx, 28			; 0000001cH
  00176	8b 55 f8	 mov	 edx, DWORD PTR _this$[ebp]
  00179	8b 44 02 34	 mov	 eax, DWORD PTR [edx+eax+52]
  0017d	8b 55 10	 mov	 edx, DWORD PTR _v$[ebp]
  00180	c1 e2 05	 shl	 edx, 5
  00183	8b 75 0c	 mov	 esi, DWORD PTR _tri$[ebp]
  00186	d9 44 08 04	 fld	 DWORD PTR [eax+ecx+4]
  0018a	d8 5c 16 04	 fcomp	 DWORD PTR [esi+edx+4]
  0018e	df e0		 fnstsw	 ax
  00190	f6 c4 44	 test	 ah, 68			; 00000044H
  00193	0f 8a be 00 00
	00		 jp	 $L85610
  00199	8b 45 14	 mov	 eax, DWORD PTR _nRS$[ebp]
  0019c	69 c0 44 01 00
	00		 imul	 eax, 324		; 00000144H
  001a2	8b 4d 08	 mov	 ecx, DWORD PTR _ndx$[ebp]
  001a5	6b c9 1c	 imul	 ecx, 28			; 0000001cH
  001a8	8b 55 f8	 mov	 edx, DWORD PTR _this$[ebp]
  001ab	8b 44 02 34	 mov	 eax, DWORD PTR [edx+eax+52]
  001af	8b 55 10	 mov	 edx, DWORD PTR _v$[ebp]
  001b2	c1 e2 05	 shl	 edx, 5
  001b5	8b 75 0c	 mov	 esi, DWORD PTR _tri$[ebp]
  001b8	d9 44 08 08	 fld	 DWORD PTR [eax+ecx+8]
  001bc	d8 5c 16 08	 fcomp	 DWORD PTR [esi+edx+8]
  001c0	df e0		 fnstsw	 ax
  001c2	f6 c4 44	 test	 ah, 68			; 00000044H
  001c5	0f 8a 8c 00 00
	00		 jp	 $L85610
  001cb	8b 45 14	 mov	 eax, DWORD PTR _nRS$[ebp]
  001ce	69 c0 44 01 00
	00		 imul	 eax, 324		; 00000144H
  001d4	8b 4d 08	 mov	 ecx, DWORD PTR _ndx$[ebp]
  001d7	6b c9 1c	 imul	 ecx, 28			; 0000001cH
  001da	8b 55 f8	 mov	 edx, DWORD PTR _this$[ebp]
  001dd	8b 44 02 34	 mov	 eax, DWORD PTR [edx+eax+52]
  001e1	8b 55 10	 mov	 edx, DWORD PTR _v$[ebp]
  001e4	c1 e2 05	 shl	 edx, 5
  001e7	8b 75 0c	 mov	 esi, DWORD PTR _tri$[ebp]
  001ea	d9 44 08 14	 fld	 DWORD PTR [eax+ecx+20]
  001ee	d8 5c 16 18	 fcomp	 DWORD PTR [esi+edx+24]
  001f2	df e0		 fnstsw	 ax
  001f4	f6 c4 44	 test	 ah, 68			; 00000044H
  001f7	7a 5e		 jp	 SHORT $L85610
  001f9	8b 45 14	 mov	 eax, DWORD PTR _nRS$[ebp]
  001fc	69 c0 44 01 00
	00		 imul	 eax, 324		; 00000144H
  00202	8b 4d 08	 mov	 ecx, DWORD PTR _ndx$[ebp]
  00205	6b c9 1c	 imul	 ecx, 28			; 0000001cH
  00208	8b 55 f8	 mov	 edx, DWORD PTR _this$[ebp]
  0020b	8b 44 02 34	 mov	 eax, DWORD PTR [edx+eax+52]
  0020f	8b 55 10	 mov	 edx, DWORD PTR _v$[ebp]
  00212	c1 e2 05	 shl	 edx, 5
  00215	8b 75 0c	 mov	 esi, DWORD PTR _tri$[ebp]
  00218	d9 44 08 18	 fld	 DWORD PTR [eax+ecx+24]
  0021c	d8 5c 16 1c	 fcomp	 DWORD PTR [esi+edx+28]
  00220	df e0		 fnstsw	 ax
  00222	f6 c4 44	 test	 ah, 68			; 00000044H
  00225	7a 30		 jp	 SHORT $L85610
  00227	8b 45 14	 mov	 eax, DWORD PTR _nRS$[ebp]
  0022a	69 c0 44 01 00
	00		 imul	 eax, 324		; 00000144H
  00230	8b 4d 08	 mov	 ecx, DWORD PTR _ndx$[ebp]
  00233	6b c9 1c	 imul	 ecx, 28			; 0000001cH
  00236	8b 55 f8	 mov	 edx, DWORD PTR _this$[ebp]
  00239	8b 44 02 34	 mov	 eax, DWORD PTR [edx+eax+52]
  0023d	8b 55 10	 mov	 edx, DWORD PTR _v$[ebp]
  00240	8b 75 0c	 mov	 esi, DWORD PTR _tri$[ebp]
  00243	8b 44 08 0c	 mov	 eax, DWORD PTR [eax+ecx+12]
  00247	3b 44 96 64	 cmp	 eax, DWORD PTR [esi+edx*4+100]
  0024b	75 0a		 jne	 SHORT $L85610

; 476  : 				return TRUE ;

  0024d	b8 01 00 00 00	 mov	 eax, 1
  00252	e9 80 05 00 00	 jmp	 $L85607
$L85610:

; 477  : 		}
; 478  : 		if (m_dwFVF == MYFVF_COLOREDVERTEX2TEX)

  00257	8b 45 f8	 mov	 eax, DWORD PTR _this$[ebp]
  0025a	81 38 c2 02 00
	00		 cmp	 DWORD PTR [eax], 706	; 000002c2H
  00260	0f 85 84 01 00
	00		 jne	 $L85612

; 479  : 		{
; 480  : 			if (m_ntvRS[nRS].pLitVertices2Tex[ndx].x == tri->Points[v].x &&
; 481  : 				m_ntvRS[nRS].pLitVertices2Tex[ndx].y == tri->Points[v].y &&
; 482  : 				m_ntvRS[nRS].pLitVertices2Tex[ndx].z == tri->Points[v].z &&
; 483  : 				m_ntvRS[nRS].pLitVertices2Tex[ndx].tu1 == tri->Points[v].tu1 &&
; 484  : 				m_ntvRS[nRS].pLitVertices2Tex[ndx].tv1 == tri->Points[v].tv1 &&
; 485  : 				m_ntvRS[nRS].pLitVertices2Tex[ndx].tu2 == tri->fTU2[v] &&
; 486  : 				m_ntvRS[nRS].pLitVertices2Tex[ndx].tv2 == tri->fTV2[v] &&
; 487  : 				m_ntvRS[nRS].pLitVertices2Tex[ndx].color == tri->Colors[v])

  00266	8b 45 14	 mov	 eax, DWORD PTR _nRS$[ebp]
  00269	69 c0 44 01 00
	00		 imul	 eax, 324		; 00000144H
  0026f	8b 4d 08	 mov	 ecx, DWORD PTR _ndx$[ebp]
  00272	6b c9 24	 imul	 ecx, 36			; 00000024H
  00275	8b 55 f8	 mov	 edx, DWORD PTR _this$[ebp]
  00278	8b 44 02 38	 mov	 eax, DWORD PTR [edx+eax+56]
  0027c	8b 55 10	 mov	 edx, DWORD PTR _v$[ebp]
  0027f	c1 e2 05	 shl	 edx, 5
  00282	8b 75 0c	 mov	 esi, DWORD PTR _tri$[ebp]
  00285	d9 04 01	 fld	 DWORD PTR [ecx+eax]
  00288	d8 1c 16	 fcomp	 DWORD PTR [esi+edx]
  0028b	df e0		 fnstsw	 ax
  0028d	f6 c4 44	 test	 ah, 68			; 00000044H
  00290	0f 8a 54 01 00
	00		 jp	 $L85612
  00296	8b 45 14	 mov	 eax, DWORD PTR _nRS$[ebp]
  00299	69 c0 44 01 00
	00		 imul	 eax, 324		; 00000144H
  0029f	8b 4d 08	 mov	 ecx, DWORD PTR _ndx$[ebp]
  002a2	6b c9 24	 imul	 ecx, 36			; 00000024H
  002a5	8b 55 f8	 mov	 edx, DWORD PTR _this$[ebp]
  002a8	8b 44 02 38	 mov	 eax, DWORD PTR [edx+eax+56]
  002ac	8b 55 10	 mov	 edx, DWORD PTR _v$[ebp]
  002af	c1 e2 05	 shl	 edx, 5
  002b2	8b 75 0c	 mov	 esi, DWORD PTR _tri$[ebp]
  002b5	d9 44 08 04	 fld	 DWORD PTR [eax+ecx+4]
  002b9	d8 5c 16 04	 fcomp	 DWORD PTR [esi+edx+4]
  002bd	df e0		 fnstsw	 ax
  002bf	f6 c4 44	 test	 ah, 68			; 00000044H
  002c2	0f 8a 22 01 00
	00		 jp	 $L85612
  002c8	8b 45 14	 mov	 eax, DWORD PTR _nRS$[ebp]
  002cb	69 c0 44 01 00
	00		 imul	 eax, 324		; 00000144H
  002d1	8b 4d 08	 mov	 ecx, DWORD PTR _ndx$[ebp]
  002d4	6b c9 24	 imul	 ecx, 36			; 00000024H
  002d7	8b 55 f8	 mov	 edx, DWORD PTR _this$[ebp]
  002da	8b 44 02 38	 mov	 eax, DWORD PTR [edx+eax+56]
  002de	8b 55 10	 mov	 edx, DWORD PTR _v$[ebp]
  002e1	c1 e2 05	 shl	 edx, 5
  002e4	8b 75 0c	 mov	 esi, DWORD PTR _tri$[ebp]
  002e7	d9 44 08 08	 fld	 DWORD PTR [eax+ecx+8]
  002eb	d8 5c 16 08	 fcomp	 DWORD PTR [esi+edx+8]
  002ef	df e0		 fnstsw	 ax
  002f1	f6 c4 44	 test	 ah, 68			; 00000044H
  002f4	0f 8a f0 00 00
	00		 jp	 $L85612
  002fa	8b 45 14	 mov	 eax, DWORD PTR _nRS$[ebp]
  002fd	69 c0 44 01 00
	00		 imul	 eax, 324		; 00000144H
  00303	8b 4d 08	 mov	 ecx, DWORD PTR _ndx$[ebp]
  00306	6b c9 24	 imul	 ecx, 36			; 00000024H
  00309	8b 55 f8	 mov	 edx, DWORD PTR _this$[ebp]
  0030c	8b 44 02 38	 mov	 eax, DWORD PTR [edx+eax+56]
  00310	8b 55 10	 mov	 edx, DWORD PTR _v$[ebp]
  00313	c1 e2 05	 shl	 edx, 5
  00316	8b 75 0c	 mov	 esi, DWORD PTR _tri$[ebp]
  00319	d9 44 08 14	 fld	 DWORD PTR [eax+ecx+20]
  0031d	d8 5c 16 18	 fcomp	 DWORD PTR [esi+edx+24]
  00321	df e0		 fnstsw	 ax
  00323	f6 c4 44	 test	 ah, 68			; 00000044H
  00326	0f 8a be 00 00
	00		 jp	 $L85612
  0032c	8b 45 14	 mov	 eax, DWORD PTR _nRS$[ebp]
  0032f	69 c0 44 01 00
	00		 imul	 eax, 324		; 00000144H
  00335	8b 4d 08	 mov	 ecx, DWORD PTR _ndx$[ebp]
  00338	6b c9 24	 imul	 ecx, 36			; 00000024H
  0033b	8b 55 f8	 mov	 edx, DWORD PTR _this$[ebp]
  0033e	8b 44 02 38	 mov	 eax, DWORD PTR [edx+eax+56]
  00342	8b 55 10	 mov	 edx, DWORD PTR _v$[ebp]
  00345	c1 e2 05	 shl	 edx, 5
  00348	8b 75 0c	 mov	 esi, DWORD PTR _tri$[ebp]
  0034b	d9 44 08 18	 fld	 DWORD PTR [eax+ecx+24]
  0034f	d8 5c 16 1c	 fcomp	 DWORD PTR [esi+edx+28]
  00353	df e0		 fnstsw	 ax
  00355	f6 c4 44	 test	 ah, 68			; 00000044H
  00358	0f 8a 8c 00 00
	00		 jp	 $L85612
  0035e	8b 45 14	 mov	 eax, DWORD PTR _nRS$[ebp]
  00361	69 c0 44 01 00
	00		 imul	 eax, 324		; 00000144H
  00367	8b 4d 08	 mov	 ecx, DWORD PTR _ndx$[ebp]
  0036a	6b c9 24	 imul	 ecx, 36			; 00000024H
  0036d	8b 55 f8	 mov	 edx, DWORD PTR _this$[ebp]
  00370	8b 44 02 38	 mov	 eax, DWORD PTR [edx+eax+56]
  00374	8b 55 10	 mov	 edx, DWORD PTR _v$[ebp]
  00377	8b 75 0c	 mov	 esi, DWORD PTR _tri$[ebp]
  0037a	d9 44 08 1c	 fld	 DWORD PTR [eax+ecx+28]
  0037e	d8 9c 96 84 00
	00 00		 fcomp	 DWORD PTR [esi+edx*4+132]
  00385	df e0		 fnstsw	 ax
  00387	f6 c4 44	 test	 ah, 68			; 00000044H
  0038a	7a 5e		 jp	 SHORT $L85612
  0038c	8b 45 14	 mov	 eax, DWORD PTR _nRS$[ebp]
  0038f	69 c0 44 01 00
	00		 imul	 eax, 324		; 00000144H
  00395	8b 4d 08	 mov	 ecx, DWORD PTR _ndx$[ebp]
  00398	6b c9 24	 imul	 ecx, 36			; 00000024H
  0039b	8b 55 f8	 mov	 edx, DWORD PTR _this$[ebp]
  0039e	8b 44 02 38	 mov	 eax, DWORD PTR [edx+eax+56]
  003a2	8b 55 10	 mov	 edx, DWORD PTR _v$[ebp]
  003a5	8b 75 0c	 mov	 esi, DWORD PTR _tri$[ebp]
  003a8	d9 44 08 20	 fld	 DWORD PTR [eax+ecx+32]
  003ac	d8 9c 96 90 00
	00 00		 fcomp	 DWORD PTR [esi+edx*4+144]
  003b3	df e0		 fnstsw	 ax
  003b5	f6 c4 44	 test	 ah, 68			; 00000044H
  003b8	7a 30		 jp	 SHORT $L85612
  003ba	8b 45 14	 mov	 eax, DWORD PTR _nRS$[ebp]
  003bd	69 c0 44 01 00
	00		 imul	 eax, 324		; 00000144H
  003c3	8b 4d 08	 mov	 ecx, DWORD PTR _ndx$[ebp]
  003c6	6b c9 24	 imul	 ecx, 36			; 00000024H
  003c9	8b 55 f8	 mov	 edx, DWORD PTR _this$[ebp]
  003cc	8b 44 02 38	 mov	 eax, DWORD PTR [edx+eax+56]
  003d0	8b 55 10	 mov	 edx, DWORD PTR _v$[ebp]
  003d3	8b 75 0c	 mov	 esi, DWORD PTR _tri$[ebp]
  003d6	8b 44 08 0c	 mov	 eax, DWORD PTR [eax+ecx+12]
  003da	3b 44 96 64	 cmp	 eax, DWORD PTR [esi+edx*4+100]
  003de	75 0a		 jne	 SHORT $L85612

; 488  : 				return TRUE ;

  003e0	b8 01 00 00 00	 mov	 eax, 1
  003e5	e9 ed 03 00 00	 jmp	 $L85607
$L85612:

; 489  : 		}
; 490  : 		if (m_dwFVF == MYFVF_COLOREDVERTEXWITHNORMAL)

  003ea	8b 45 f8	 mov	 eax, DWORD PTR _this$[ebp]
  003ed	81 38 d2 01 00
	00		 cmp	 DWORD PTR [eax], 466	; 000001d2H
  003f3	0f 85 b6 01 00
	00		 jne	 $L85614

; 491  : 		{
; 492  : 			if (m_ntvRS[nRS].pLitVerticesWithNormals[ndx].x == tri->Points[v].x &&
; 493  : 				m_ntvRS[nRS].pLitVerticesWithNormals[ndx].y == tri->Points[v].y &&
; 494  : 				m_ntvRS[nRS].pLitVerticesWithNormals[ndx].z == tri->Points[v].z &&
; 495  : 				m_ntvRS[nRS].pLitVerticesWithNormals[ndx].tu1 == tri->Points[v].tu1 &&
; 496  : 				m_ntvRS[nRS].pLitVerticesWithNormals[ndx].tv1 == tri->Points[v].tv1 &&
; 497  : 				m_ntvRS[nRS].pLitVerticesWithNormals[ndx].nx == tri->Points[v].nx &&
; 498  : 				m_ntvRS[nRS].pLitVerticesWithNormals[ndx].ny == tri->Points[v].ny &&
; 499  : 				m_ntvRS[nRS].pLitVerticesWithNormals[ndx].nz == tri->Points[v].nz &&
; 500  : 				m_ntvRS[nRS].pLitVerticesWithNormals[ndx].color == tri->Colors[v])

  003f9	8b 45 14	 mov	 eax, DWORD PTR _nRS$[ebp]
  003fc	69 c0 44 01 00
	00		 imul	 eax, 324		; 00000144H
  00402	8b 4d 08	 mov	 ecx, DWORD PTR _ndx$[ebp]
  00405	6b c9 28	 imul	 ecx, 40			; 00000028H
  00408	8b 55 f8	 mov	 edx, DWORD PTR _this$[ebp]
  0040b	8b 44 02 3c	 mov	 eax, DWORD PTR [edx+eax+60]
  0040f	8b 55 10	 mov	 edx, DWORD PTR _v$[ebp]
  00412	c1 e2 05	 shl	 edx, 5
  00415	8b 75 0c	 mov	 esi, DWORD PTR _tri$[ebp]
  00418	d9 04 01	 fld	 DWORD PTR [ecx+eax]
  0041b	d8 1c 16	 fcomp	 DWORD PTR [esi+edx]
  0041e	df e0		 fnstsw	 ax
  00420	f6 c4 44	 test	 ah, 68			; 00000044H
  00423	0f 8a 86 01 00
	00		 jp	 $L85614
  00429	8b 45 14	 mov	 eax, DWORD PTR _nRS$[ebp]
  0042c	69 c0 44 01 00
	00		 imul	 eax, 324		; 00000144H
  00432	8b 4d 08	 mov	 ecx, DWORD PTR _ndx$[ebp]
  00435	6b c9 28	 imul	 ecx, 40			; 00000028H
  00438	8b 55 f8	 mov	 edx, DWORD PTR _this$[ebp]
  0043b	8b 44 02 3c	 mov	 eax, DWORD PTR [edx+eax+60]
  0043f	8b 55 10	 mov	 edx, DWORD PTR _v$[ebp]
  00442	c1 e2 05	 shl	 edx, 5
  00445	8b 75 0c	 mov	 esi, DWORD PTR _tri$[ebp]
  00448	d9 44 08 04	 fld	 DWORD PTR [eax+ecx+4]
  0044c	d8 5c 16 04	 fcomp	 DWORD PTR [esi+edx+4]
  00450	df e0		 fnstsw	 ax
  00452	f6 c4 44	 test	 ah, 68			; 00000044H
  00455	0f 8a 54 01 00
	00		 jp	 $L85614
  0045b	8b 45 14	 mov	 eax, DWORD PTR _nRS$[ebp]
  0045e	69 c0 44 01 00
	00		 imul	 eax, 324		; 00000144H
  00464	8b 4d 08	 mov	 ecx, DWORD PTR _ndx$[ebp]
  00467	6b c9 28	 imul	 ecx, 40			; 00000028H
  0046a	8b 55 f8	 mov	 edx, DWORD PTR _this$[ebp]
  0046d	8b 44 02 3c	 mov	 eax, DWORD PTR [edx+eax+60]
  00471	8b 55 10	 mov	 edx, DWORD PTR _v$[ebp]
  00474	c1 e2 05	 shl	 edx, 5
  00477	8b 75 0c	 mov	 esi, DWORD PTR _tri$[ebp]
  0047a	d9 44 08 08	 fld	 DWORD PTR [eax+ecx+8]
  0047e	d8 5c 16 08	 fcomp	 DWORD PTR [esi+edx+8]
  00482	df e0		 fnstsw	 ax
  00484	f6 c4 44	 test	 ah, 68			; 00000044H
  00487	0f 8a 22 01 00
	00		 jp	 $L85614
  0048d	8b 45 14	 mov	 eax, DWORD PTR _nRS$[ebp]
  00490	69 c0 44 01 00
	00		 imul	 eax, 324		; 00000144H
  00496	8b 4d 08	 mov	 ecx, DWORD PTR _ndx$[ebp]
  00499	6b c9 28	 imul	 ecx, 40			; 00000028H
  0049c	8b 55 f8	 mov	 edx, DWORD PTR _this$[ebp]
  0049f	8b 44 02 3c	 mov	 eax, DWORD PTR [edx+eax+60]
  004a3	8b 55 10	 mov	 edx, DWORD PTR _v$[ebp]
  004a6	c1 e2 05	 shl	 edx, 5
  004a9	8b 75 0c	 mov	 esi, DWORD PTR _tri$[ebp]
  004ac	d9 44 08 20	 fld	 DWORD PTR [eax+ecx+32]
  004b0	d8 5c 16 18	 fcomp	 DWORD PTR [esi+edx+24]
  004b4	df e0		 fnstsw	 ax
  004b6	f6 c4 44	 test	 ah, 68			; 00000044H
  004b9	0f 8a f0 00 00
	00		 jp	 $L85614
  004bf	8b 45 14	 mov	 eax, DWORD PTR _nRS$[ebp]
  004c2	69 c0 44 01 00
	00		 imul	 eax, 324		; 00000144H
  004c8	8b 4d 08	 mov	 ecx, DWORD PTR _ndx$[ebp]
  004cb	6b c9 28	 imul	 ecx, 40			; 00000028H
  004ce	8b 55 f8	 mov	 edx, DWORD PTR _this$[ebp]
  004d1	8b 44 02 3c	 mov	 eax, DWORD PTR [edx+eax+60]
  004d5	8b 55 10	 mov	 edx, DWORD PTR _v$[ebp]
  004d8	c1 e2 05	 shl	 edx, 5
  004db	8b 75 0c	 mov	 esi, DWORD PTR _tri$[ebp]
  004de	d9 44 08 24	 fld	 DWORD PTR [eax+ecx+36]
  004e2	d8 5c 16 1c	 fcomp	 DWORD PTR [esi+edx+28]
  004e6	df e0		 fnstsw	 ax
  004e8	f6 c4 44	 test	 ah, 68			; 00000044H
  004eb	0f 8a be 00 00
	00		 jp	 $L85614
  004f1	8b 45 14	 mov	 eax, DWORD PTR _nRS$[ebp]
  004f4	69 c0 44 01 00
	00		 imul	 eax, 324		; 00000144H
  004fa	8b 4d 08	 mov	 ecx, DWORD PTR _ndx$[ebp]
  004fd	6b c9 28	 imul	 ecx, 40			; 00000028H
  00500	8b 55 f8	 mov	 edx, DWORD PTR _this$[ebp]
  00503	8b 44 02 3c	 mov	 eax, DWORD PTR [edx+eax+60]
  00507	8b 55 10	 mov	 edx, DWORD PTR _v$[ebp]
  0050a	c1 e2 05	 shl	 edx, 5
  0050d	8b 75 0c	 mov	 esi, DWORD PTR _tri$[ebp]
  00510	d9 44 08 0c	 fld	 DWORD PTR [eax+ecx+12]
  00514	d8 5c 16 0c	 fcomp	 DWORD PTR [esi+edx+12]
  00518	df e0		 fnstsw	 ax
  0051a	f6 c4 44	 test	 ah, 68			; 00000044H
  0051d	0f 8a 8c 00 00
	00		 jp	 $L85614
  00523	8b 45 14	 mov	 eax, DWORD PTR _nRS$[ebp]
  00526	69 c0 44 01 00
	00		 imul	 eax, 324		; 00000144H
  0052c	8b 4d 08	 mov	 ecx, DWORD PTR _ndx$[ebp]
  0052f	6b c9 28	 imul	 ecx, 40			; 00000028H
  00532	8b 55 f8	 mov	 edx, DWORD PTR _this$[ebp]
  00535	8b 44 02 3c	 mov	 eax, DWORD PTR [edx+eax+60]
  00539	8b 55 10	 mov	 edx, DWORD PTR _v$[ebp]
  0053c	c1 e2 05	 shl	 edx, 5
  0053f	8b 75 0c	 mov	 esi, DWORD PTR _tri$[ebp]
  00542	d9 44 08 10	 fld	 DWORD PTR [eax+ecx+16]
  00546	d8 5c 16 10	 fcomp	 DWORD PTR [esi+edx+16]
  0054a	df e0		 fnstsw	 ax
  0054c	f6 c4 44	 test	 ah, 68			; 00000044H
  0054f	7a 5e		 jp	 SHORT $L85614
  00551	8b 45 14	 mov	 eax, DWORD PTR _nRS$[ebp]
  00554	69 c0 44 01 00
	00		 imul	 eax, 324		; 00000144H
  0055a	8b 4d 08	 mov	 ecx, DWORD PTR _ndx$[ebp]
  0055d	6b c9 28	 imul	 ecx, 40			; 00000028H
  00560	8b 55 f8	 mov	 edx, DWORD PTR _this$[ebp]
  00563	8b 44 02 3c	 mov	 eax, DWORD PTR [edx+eax+60]
  00567	8b 55 10	 mov	 edx, DWORD PTR _v$[ebp]
  0056a	c1 e2 05	 shl	 edx, 5
  0056d	8b 75 0c	 mov	 esi, DWORD PTR _tri$[ebp]
  00570	d9 44 08 14	 fld	 DWORD PTR [eax+ecx+20]
  00574	d8 5c 16 14	 fcomp	 DWORD PTR [esi+edx+20]
  00578	df e0		 fnstsw	 ax
  0057a	f6 c4 44	 test	 ah, 68			; 00000044H
  0057d	7a 30		 jp	 SHORT $L85614
  0057f	8b 45 14	 mov	 eax, DWORD PTR _nRS$[ebp]
  00582	69 c0 44 01 00
	00		 imul	 eax, 324		; 00000144H
  00588	8b 4d 08	 mov	 ecx, DWORD PTR _ndx$[ebp]
  0058b	6b c9 28	 imul	 ecx, 40			; 00000028H
  0058e	8b 55 f8	 mov	 edx, DWORD PTR _this$[ebp]
  00591	8b 44 02 3c	 mov	 eax, DWORD PTR [edx+eax+60]
  00595	8b 55 10	 mov	 edx, DWORD PTR _v$[ebp]
  00598	8b 75 0c	 mov	 esi, DWORD PTR _tri$[ebp]
  0059b	8b 44 08 18	 mov	 eax, DWORD PTR [eax+ecx+24]
  0059f	3b 44 96 64	 cmp	 eax, DWORD PTR [esi+edx*4+100]
  005a3	75 0a		 jne	 SHORT $L85614

; 501  : 				return TRUE ;

  005a5	b8 01 00 00 00	 mov	 eax, 1
  005aa	e9 28 02 00 00	 jmp	 $L85607
$L85614:

; 502  : 		}
; 503  : 		if (m_dwFVF == MYFVF_COLOREDVERTEXWITHNORMAL2TEX)

  005af	8b 45 f8	 mov	 eax, DWORD PTR _this$[ebp]
  005b2	81 38 d2 02 00
	00		 cmp	 DWORD PTR [eax], 722	; 000002d2H
  005b8	0f 85 17 02 00
	00		 jne	 $L85616

; 504  : 		{
; 505  : 			if (m_ntvRS[nRS].pLitVerticesWithNormals2Tex[ndx].x == tri->Points[v].x &&
; 506  : 				m_ntvRS[nRS].pLitVerticesWithNormals2Tex[ndx].y == tri->Points[v].y &&
; 507  : 				m_ntvRS[nRS].pLitVerticesWithNormals2Tex[ndx].z == tri->Points[v].z &&
; 508  : 				m_ntvRS[nRS].pLitVerticesWithNormals2Tex[ndx].tu1 == tri->Points[v].tu1 &&
; 509  : 				m_ntvRS[nRS].pLitVerticesWithNormals2Tex[ndx].tv1 == tri->Points[v].tv1 &&
; 510  : 				m_ntvRS[nRS].pLitVerticesWithNormals2Tex[ndx].tu2 == tri->fTU2[v] &&
; 511  : 				m_ntvRS[nRS].pLitVerticesWithNormals2Tex[ndx].tv2 == tri->fTV2[v] &&
; 512  : 				m_ntvRS[nRS].pLitVerticesWithNormals2Tex[ndx].nx == tri->Points[v].nx &&
; 513  : 				m_ntvRS[nRS].pLitVerticesWithNormals2Tex[ndx].ny == tri->Points[v].ny &&
; 514  : 				m_ntvRS[nRS].pLitVerticesWithNormals2Tex[ndx].nz == tri->Points[v].nz &&
; 515  : 				m_ntvRS[nRS].pLitVerticesWithNormals2Tex[ndx].color == tri->Colors[v])

  005be	8b 45 14	 mov	 eax, DWORD PTR _nRS$[ebp]
  005c1	69 c0 44 01 00
	00		 imul	 eax, 324		; 00000144H
  005c7	8b 4d 08	 mov	 ecx, DWORD PTR _ndx$[ebp]
  005ca	6b c9 30	 imul	 ecx, 48			; 00000030H
  005cd	8b 55 f8	 mov	 edx, DWORD PTR _this$[ebp]
  005d0	8b 44 02 40	 mov	 eax, DWORD PTR [edx+eax+64]
  005d4	8b 55 10	 mov	 edx, DWORD PTR _v$[ebp]
  005d7	c1 e2 05	 shl	 edx, 5
  005da	8b 75 0c	 mov	 esi, DWORD PTR _tri$[ebp]
  005dd	d9 04 01	 fld	 DWORD PTR [ecx+eax]
  005e0	d8 1c 16	 fcomp	 DWORD PTR [esi+edx]
  005e3	df e0		 fnstsw	 ax
  005e5	f6 c4 44	 test	 ah, 68			; 00000044H
  005e8	0f 8a e7 01 00
	00		 jp	 $L85616
  005ee	8b 45 14	 mov	 eax, DWORD PTR _nRS$[ebp]
  005f1	69 c0 44 01 00
	00		 imul	 eax, 324		; 00000144H
  005f7	8b 4d 08	 mov	 ecx, DWORD PTR _ndx$[ebp]
  005fa	6b c9 30	 imul	 ecx, 48			; 00000030H
  005fd	8b 55 f8	 mov	 edx, DWORD PTR _this$[ebp]
  00600	8b 44 02 40	 mov	 eax, DWORD PTR [edx+eax+64]
  00604	8b 55 10	 mov	 edx, DWORD PTR _v$[ebp]
  00607	c1 e2 05	 shl	 edx, 5
  0060a	8b 75 0c	 mov	 esi, DWORD PTR _tri$[ebp]
  0060d	d9 44 08 04	 fld	 DWORD PTR [eax+ecx+4]
  00611	d8 5c 16 04	 fcomp	 DWORD PTR [esi+edx+4]
  00615	df e0		 fnstsw	 ax
  00617	f6 c4 44	 test	 ah, 68			; 00000044H
  0061a	0f 8a b5 01 00
	00		 jp	 $L85616
  00620	8b 45 14	 mov	 eax, DWORD PTR _nRS$[ebp]
  00623	69 c0 44 01 00
	00		 imul	 eax, 324		; 00000144H
  00629	8b 4d 08	 mov	 ecx, DWORD PTR _ndx$[ebp]
  0062c	6b c9 30	 imul	 ecx, 48			; 00000030H
  0062f	8b 55 f8	 mov	 edx, DWORD PTR _this$[ebp]
  00632	8b 44 02 40	 mov	 eax, DWORD PTR [edx+eax+64]
  00636	8b 55 10	 mov	 edx, DWORD PTR _v$[ebp]
  00639	c1 e2 05	 shl	 edx, 5
  0063c	8b 75 0c	 mov	 esi, DWORD PTR _tri$[ebp]
  0063f	d9 44 08 08	 fld	 DWORD PTR [eax+ecx+8]
  00643	d8 5c 16 08	 fcomp	 DWORD PTR [esi+edx+8]
  00647	df e0		 fnstsw	 ax
  00649	f6 c4 44	 test	 ah, 68			; 00000044H
  0064c	0f 8a 83 01 00
	00		 jp	 $L85616
  00652	8b 45 14	 mov	 eax, DWORD PTR _nRS$[ebp]
  00655	69 c0 44 01 00
	00		 imul	 eax, 324		; 00000144H
  0065b	8b 4d 08	 mov	 ecx, DWORD PTR _ndx$[ebp]
  0065e	6b c9 30	 imul	 ecx, 48			; 00000030H
  00661	8b 55 f8	 mov	 edx, DWORD PTR _this$[ebp]
  00664	8b 44 02 40	 mov	 eax, DWORD PTR [edx+eax+64]
  00668	8b 55 10	 mov	 edx, DWORD PTR _v$[ebp]
  0066b	c1 e2 05	 shl	 edx, 5
  0066e	8b 75 0c	 mov	 esi, DWORD PTR _tri$[ebp]
  00671	d9 44 08 20	 fld	 DWORD PTR [eax+ecx+32]
  00675	d8 5c 16 18	 fcomp	 DWORD PTR [esi+edx+24]
  00679	df e0		 fnstsw	 ax
  0067b	f6 c4 44	 test	 ah, 68			; 00000044H
  0067e	0f 8a 51 01 00
	00		 jp	 $L85616
  00684	8b 45 14	 mov	 eax, DWORD PTR _nRS$[ebp]
  00687	69 c0 44 01 00
	00		 imul	 eax, 324		; 00000144H
  0068d	8b 4d 08	 mov	 ecx, DWORD PTR _ndx$[ebp]
  00690	6b c9 30	 imul	 ecx, 48			; 00000030H
  00693	8b 55 f8	 mov	 edx, DWORD PTR _this$[ebp]
  00696	8b 44 02 40	 mov	 eax, DWORD PTR [edx+eax+64]
  0069a	8b 55 10	 mov	 edx, DWORD PTR _v$[ebp]
  0069d	c1 e2 05	 shl	 edx, 5
  006a0	8b 75 0c	 mov	 esi, DWORD PTR _tri$[ebp]
  006a3	d9 44 08 24	 fld	 DWORD PTR [eax+ecx+36]
  006a7	d8 5c 16 1c	 fcomp	 DWORD PTR [esi+edx+28]
  006ab	df e0		 fnstsw	 ax
  006ad	f6 c4 44	 test	 ah, 68			; 00000044H
  006b0	0f 8a 1f 01 00
	00		 jp	 $L85616
  006b6	8b 45 14	 mov	 eax, DWORD PTR _nRS$[ebp]
  006b9	69 c0 44 01 00
	00		 imul	 eax, 324		; 00000144H
  006bf	8b 4d 08	 mov	 ecx, DWORD PTR _ndx$[ebp]
  006c2	6b c9 30	 imul	 ecx, 48			; 00000030H
  006c5	8b 55 f8	 mov	 edx, DWORD PTR _this$[ebp]
  006c8	8b 44 02 40	 mov	 eax, DWORD PTR [edx+eax+64]
  006cc	8b 55 10	 mov	 edx, DWORD PTR _v$[ebp]
  006cf	8b 75 0c	 mov	 esi, DWORD PTR _tri$[ebp]
  006d2	d9 44 08 28	 fld	 DWORD PTR [eax+ecx+40]
  006d6	d8 9c 96 84 00
	00 00		 fcomp	 DWORD PTR [esi+edx*4+132]
  006dd	df e0		 fnstsw	 ax
  006df	f6 c4 44	 test	 ah, 68			; 00000044H
  006e2	0f 8a ed 00 00
	00		 jp	 $L85616
  006e8	8b 45 14	 mov	 eax, DWORD PTR _nRS$[ebp]
  006eb	69 c0 44 01 00
	00		 imul	 eax, 324		; 00000144H
  006f1	8b 4d 08	 mov	 ecx, DWORD PTR _ndx$[ebp]
  006f4	6b c9 30	 imul	 ecx, 48			; 00000030H
  006f7	8b 55 f8	 mov	 edx, DWORD PTR _this$[ebp]
  006fa	8b 44 02 40	 mov	 eax, DWORD PTR [edx+eax+64]
  006fe	8b 55 10	 mov	 edx, DWORD PTR _v$[ebp]
  00701	8b 75 0c	 mov	 esi, DWORD PTR _tri$[ebp]
  00704	d9 44 08 2c	 fld	 DWORD PTR [eax+ecx+44]
  00708	d8 9c 96 90 00
	00 00		 fcomp	 DWORD PTR [esi+edx*4+144]
  0070f	df e0		 fnstsw	 ax
  00711	f6 c4 44	 test	 ah, 68			; 00000044H
  00714	0f 8a bb 00 00
	00		 jp	 $L85616
  0071a	8b 45 14	 mov	 eax, DWORD PTR _nRS$[ebp]
  0071d	69 c0 44 01 00
	00		 imul	 eax, 324		; 00000144H
  00723	8b 4d 08	 mov	 ecx, DWORD PTR _ndx$[ebp]
  00726	6b c9 30	 imul	 ecx, 48			; 00000030H
  00729	8b 55 f8	 mov	 edx, DWORD PTR _this$[ebp]
  0072c	8b 44 02 40	 mov	 eax, DWORD PTR [edx+eax+64]
  00730	8b 55 10	 mov	 edx, DWORD PTR _v$[ebp]
  00733	c1 e2 05	 shl	 edx, 5
  00736	8b 75 0c	 mov	 esi, DWORD PTR _tri$[ebp]
  00739	d9 44 08 0c	 fld	 DWORD PTR [eax+ecx+12]
  0073d	d8 5c 16 0c	 fcomp	 DWORD PTR [esi+edx+12]
  00741	df e0		 fnstsw	 ax
  00743	f6 c4 44	 test	 ah, 68			; 00000044H
  00746	0f 8a 89 00 00
	00		 jp	 $L85616
  0074c	8b 45 14	 mov	 eax, DWORD PTR _nRS$[ebp]
  0074f	69 c0 44 01 00
	00		 imul	 eax, 324		; 00000144H
  00755	8b 4d 08	 mov	 ecx, DWORD PTR _ndx$[ebp]
  00758	6b c9 30	 imul	 ecx, 48			; 00000030H
  0075b	8b 55 f8	 mov	 edx, DWORD PTR _this$[ebp]
  0075e	8b 44 02 40	 mov	 eax, DWORD PTR [edx+eax+64]
  00762	8b 55 10	 mov	 edx, DWORD PTR _v$[ebp]
  00765	c1 e2 05	 shl	 edx, 5
  00768	8b 75 0c	 mov	 esi, DWORD PTR _tri$[ebp]
  0076b	d9 44 08 10	 fld	 DWORD PTR [eax+ecx+16]
  0076f	d8 5c 16 10	 fcomp	 DWORD PTR [esi+edx+16]
  00773	df e0		 fnstsw	 ax
  00775	f6 c4 44	 test	 ah, 68			; 00000044H
  00778	7a 5b		 jp	 SHORT $L85616
  0077a	8b 45 14	 mov	 eax, DWORD PTR _nRS$[ebp]
  0077d	69 c0 44 01 00
	00		 imul	 eax, 324		; 00000144H
  00783	8b 4d 08	 mov	 ecx, DWORD PTR _ndx$[ebp]
  00786	6b c9 30	 imul	 ecx, 48			; 00000030H
  00789	8b 55 f8	 mov	 edx, DWORD PTR _this$[ebp]
  0078c	8b 44 02 40	 mov	 eax, DWORD PTR [edx+eax+64]
  00790	8b 55 10	 mov	 edx, DWORD PTR _v$[ebp]
  00793	c1 e2 05	 shl	 edx, 5
  00796	8b 75 0c	 mov	 esi, DWORD PTR _tri$[ebp]
  00799	d9 44 08 14	 fld	 DWORD PTR [eax+ecx+20]
  0079d	d8 5c 16 14	 fcomp	 DWORD PTR [esi+edx+20]
  007a1	df e0		 fnstsw	 ax
  007a3	f6 c4 44	 test	 ah, 68			; 00000044H
  007a6	7a 2d		 jp	 SHORT $L85616
  007a8	8b 45 14	 mov	 eax, DWORD PTR _nRS$[ebp]
  007ab	69 c0 44 01 00
	00		 imul	 eax, 324		; 00000144H
  007b1	8b 4d 08	 mov	 ecx, DWORD PTR _ndx$[ebp]
  007b4	6b c9 30	 imul	 ecx, 48			; 00000030H
  007b7	8b 55 f8	 mov	 edx, DWORD PTR _this$[ebp]
  007ba	8b 44 02 40	 mov	 eax, DWORD PTR [edx+eax+64]
  007be	8b 55 10	 mov	 edx, DWORD PTR _v$[ebp]
  007c1	8b 75 0c	 mov	 esi, DWORD PTR _tri$[ebp]
  007c4	8b 44 08 18	 mov	 eax, DWORD PTR [eax+ecx+24]
  007c8	3b 44 96 64	 cmp	 eax, DWORD PTR [esi+edx*4+100]
  007cc	75 07		 jne	 SHORT $L85616

; 516  : 				return TRUE ;

  007ce	b8 01 00 00 00	 mov	 eax, 1
  007d3	eb 02		 jmp	 SHORT $L85607
$L85616:

; 517  : 		}
; 518  : 		return FALSE ;

  007d5	33 c0		 xor	 eax, eax
$L85607:

; 519  : 	}

  007d7	5f		 pop	 edi
  007d8	5e		 pop	 esi
  007d9	5b		 pop	 ebx
  007da	8b e5		 mov	 esp, ebp
  007dc	5d		 pop	 ebp
  007dd	c2 10 00	 ret	 16			; 00000010H
?CompareIndexedVertex@CProceduralRenderObject@@QAEHIPAUX7LT@@HH@Z ENDP ; CProceduralRenderObject::CompareIndexedVertex
; Function compile flags: /Odt /RTCsu /ZI
; File c:\dxsdk\include\d3dx8math.inl
_TEXT	ENDS
;	COMDAT ??0D3DXVECTOR3@@QAE@MMM@Z
_TEXT	SEGMENT
_this$ = -8
_fx$ = 8
_fy$ = 12
_fz$ = 16
??0D3DXVECTOR3@@QAE@MMM@Z PROC NEAR			; D3DXVECTOR3::D3DXVECTOR3, COMDAT
; _this$ = ecx

; 179  : {

  00000	55		 push	 ebp
  00001	8b ec		 mov	 ebp, esp
  00003	81 ec cc 00 00
	00		 sub	 esp, 204		; 000000ccH
  00009	53		 push	 ebx
  0000a	56		 push	 esi
  0000b	57		 push	 edi
  0000c	51		 push	 ecx
  0000d	8d bd 34 ff ff
	ff		 lea	 edi, DWORD PTR [ebp-204]
  00013	b9 33 00 00 00	 mov	 ecx, 51			; 00000033H
  00018	b8 cc cc cc cc	 mov	 eax, -858993460		; ccccccccH
  0001d	f3 ab		 rep stosd
  0001f	59		 pop	 ecx
  00020	89 4d f8	 mov	 DWORD PTR _this$[ebp], ecx

; 180  :     x = fx;

  00023	8b 45 f8	 mov	 eax, DWORD PTR _this$[ebp]
  00026	8b 4d 08	 mov	 ecx, DWORD PTR _fx$[ebp]
  00029	89 08		 mov	 DWORD PTR [eax], ecx

; 181  :     y = fy;

  0002b	8b 45 f8	 mov	 eax, DWORD PTR _this$[ebp]
  0002e	8b 4d 0c	 mov	 ecx, DWORD PTR _fy$[ebp]
  00031	89 48 04	 mov	 DWORD PTR [eax+4], ecx

; 182  :     z = fz;

  00034	8b 45 f8	 mov	 eax, DWORD PTR _this$[ebp]
  00037	8b 4d 10	 mov	 ecx, DWORD PTR _fz$[ebp]
  0003a	89 48 08	 mov	 DWORD PTR [eax+8], ecx

; 183  : }

  0003d	8b 45 f8	 mov	 eax, DWORD PTR _this$[ebp]
  00040	5f		 pop	 edi
  00041	5e		 pop	 esi
  00042	5b		 pop	 ebx
  00043	8b e5		 mov	 esp, ebp
  00045	5d		 pop	 ebp
  00046	c2 0c 00	 ret	 12			; 0000000cH
??0D3DXVECTOR3@@QAE@MMM@Z ENDP				; D3DXVECTOR3::D3DXVECTOR3
; Function compile flags: /Odt /RTCsu /ZI
; File c:\documents and settings\dom\my documents\_dev\ae\xlr8a\x7g\cproceduralrenderobject.cpp
_TEXT	ENDS
;	COMDAT ?AddIndexedVertex@CProceduralRenderObject@@QAEXIPAUX7LT@@HH@Z
_TEXT	SEGMENT
_lvn$85636 = -56
_lvn$85634 = -44
_lv$85632 = -32
_lv$85630 = -20
_this$ = -8
_ndx$ = 8
_tri$ = 12
_v$ = 16
_nRS$ = 20
?AddIndexedVertex@CProceduralRenderObject@@QAEXIPAUX7LT@@HH@Z PROC NEAR ; CProceduralRenderObject::AddIndexedVertex, COMDAT
; _this$ = ecx

; 521  : 	{

  00000	55		 push	 ebp
  00001	8b ec		 mov	 ebp, esp
  00003	81 ec fc 00 00
	00		 sub	 esp, 252		; 000000fcH
  00009	53		 push	 ebx
  0000a	56		 push	 esi
  0000b	57		 push	 edi
  0000c	51		 push	 ecx
  0000d	8d bd 04 ff ff
	ff		 lea	 edi, DWORD PTR [ebp-252]
  00013	b9 3f 00 00 00	 mov	 ecx, 63			; 0000003fH
  00018	b8 cc cc cc cc	 mov	 eax, -858993460		; ccccccccH
  0001d	f3 ab		 rep stosd
  0001f	59		 pop	 ecx
  00020	89 4d f8	 mov	 DWORD PTR _this$[ebp], ecx

; 522  : 		if (m_dwFVF == MYFVF_UNCOLOREDVERTEX)

  00023	8b 45 f8	 mov	 eax, DWORD PTR _this$[ebp]
  00026	81 38 12 01 00
	00		 cmp	 DWORD PTR [eax], 274	; 00000112H
  0002c	75 2d		 jne	 SHORT $L85625

; 523  : 		{
; 524  : 			memcpy ((UNCOLOREDVERTEX*)&(m_ntvRS[nRS].pUnlitVertices[ndx]),
; 525  : 					(UNCOLOREDVERTEX*)&tri->Points[v],
; 526  : 					sizeof(UNCOLOREDVERTEX)) ;

  0002e	6a 20		 push	 32			; 00000020H
  00030	8b 45 10	 mov	 eax, DWORD PTR _v$[ebp]
  00033	c1 e0 05	 shl	 eax, 5
  00036	8b 4d 0c	 mov	 ecx, DWORD PTR _tri$[ebp]
  00039	03 c8		 add	 ecx, eax
  0003b	51		 push	 ecx
  0003c	8b 55 14	 mov	 edx, DWORD PTR _nRS$[ebp]
  0003f	69 d2 44 01 00
	00		 imul	 edx, 324		; 00000144H
  00045	8b 45 08	 mov	 eax, DWORD PTR _ndx$[ebp]
  00048	c1 e0 05	 shl	 eax, 5
  0004b	8b 4d f8	 mov	 ecx, DWORD PTR _this$[ebp]
  0004e	03 44 11 30	 add	 eax, DWORD PTR [ecx+edx+48]
  00052	50		 push	 eax
  00053	e8 00 00 00 00	 call	 _memcpy
  00058	83 c4 0c	 add	 esp, 12			; 0000000cH
$L85625:

; 527  : 		}
; 528  : 		if (m_dwFVF == MYFVF_COLOREDVERTEX)

  0005b	8b 45 f8	 mov	 eax, DWORD PTR _this$[ebp]
  0005e	81 38 c2 01 00
	00		 cmp	 DWORD PTR [eax], 450	; 000001c2H
  00064	0f 85 96 00 00
	00		 jne	 $L85629

; 529  : 		{
; 530  : 			COLOREDVERTEX *lv = &(m_ntvRS[nRS].pLitVertices[ndx]) ;

  0006a	8b 45 14	 mov	 eax, DWORD PTR _nRS$[ebp]
  0006d	69 c0 44 01 00
	00		 imul	 eax, 324		; 00000144H
  00073	8b 4d 08	 mov	 ecx, DWORD PTR _ndx$[ebp]
  00076	6b c9 1c	 imul	 ecx, 28			; 0000001cH
  00079	8b 55 f8	 mov	 edx, DWORD PTR _this$[ebp]
  0007c	03 4c 02 34	 add	 ecx, DWORD PTR [edx+eax+52]
  00080	89 4d ec	 mov	 DWORD PTR _lv$85630[ebp], ecx

; 531  : 			lv->color = tri->Colors[v] ;

  00083	8b 45 ec	 mov	 eax, DWORD PTR _lv$85630[ebp]
  00086	8b 4d 10	 mov	 ecx, DWORD PTR _v$[ebp]
  00089	8b 55 0c	 mov	 edx, DWORD PTR _tri$[ebp]
  0008c	8b 4c 8a 64	 mov	 ecx, DWORD PTR [edx+ecx*4+100]
  00090	89 48 0c	 mov	 DWORD PTR [eax+12], ecx

; 532  : 			lv->specular = tri->SpecularColors[v] ;

  00093	8b 45 ec	 mov	 eax, DWORD PTR _lv$85630[ebp]
  00096	8b 4d 10	 mov	 ecx, DWORD PTR _v$[ebp]
  00099	8b 55 0c	 mov	 edx, DWORD PTR _tri$[ebp]
  0009c	8b 4c 8a 74	 mov	 ecx, DWORD PTR [edx+ecx*4+116]
  000a0	89 48 10	 mov	 DWORD PTR [eax+16], ecx

; 533  : 			lv->tu1 = tri->Points[v].tu1 ;

  000a3	8b 45 10	 mov	 eax, DWORD PTR _v$[ebp]
  000a6	c1 e0 05	 shl	 eax, 5
  000a9	8b 4d ec	 mov	 ecx, DWORD PTR _lv$85630[ebp]
  000ac	8b 55 0c	 mov	 edx, DWORD PTR _tri$[ebp]
  000af	8b 44 02 18	 mov	 eax, DWORD PTR [edx+eax+24]
  000b3	89 41 14	 mov	 DWORD PTR [ecx+20], eax

; 534  : 			lv->tv1 = tri->Points[v].tv1 ;

  000b6	8b 45 10	 mov	 eax, DWORD PTR _v$[ebp]
  000b9	c1 e0 05	 shl	 eax, 5
  000bc	8b 4d ec	 mov	 ecx, DWORD PTR _lv$85630[ebp]
  000bf	8b 55 0c	 mov	 edx, DWORD PTR _tri$[ebp]
  000c2	8b 44 02 1c	 mov	 eax, DWORD PTR [edx+eax+28]
  000c6	89 41 18	 mov	 DWORD PTR [ecx+24], eax

; 535  : 			lv->x = tri->Points[v].x ;

  000c9	8b 45 10	 mov	 eax, DWORD PTR _v$[ebp]
  000cc	c1 e0 05	 shl	 eax, 5
  000cf	8b 4d ec	 mov	 ecx, DWORD PTR _lv$85630[ebp]
  000d2	8b 55 0c	 mov	 edx, DWORD PTR _tri$[ebp]
  000d5	8b 04 02	 mov	 eax, DWORD PTR [edx+eax]
  000d8	89 01		 mov	 DWORD PTR [ecx], eax

; 536  : 			lv->y = tri->Points[v].y ;

  000da	8b 45 10	 mov	 eax, DWORD PTR _v$[ebp]
  000dd	c1 e0 05	 shl	 eax, 5
  000e0	8b 4d ec	 mov	 ecx, DWORD PTR _lv$85630[ebp]
  000e3	8b 55 0c	 mov	 edx, DWORD PTR _tri$[ebp]
  000e6	8b 44 02 04	 mov	 eax, DWORD PTR [edx+eax+4]
  000ea	89 41 04	 mov	 DWORD PTR [ecx+4], eax

; 537  : 			lv->z = tri->Points[v].z ;

  000ed	8b 45 10	 mov	 eax, DWORD PTR _v$[ebp]
  000f0	c1 e0 05	 shl	 eax, 5
  000f3	8b 4d ec	 mov	 ecx, DWORD PTR _lv$85630[ebp]
  000f6	8b 55 0c	 mov	 edx, DWORD PTR _tri$[ebp]
  000f9	8b 44 02 08	 mov	 eax, DWORD PTR [edx+eax+8]
  000fd	89 41 08	 mov	 DWORD PTR [ecx+8], eax
$L85629:

; 538  : 		}
; 539  : 		if (m_dwFVF == MYFVF_COLOREDVERTEX2TEX)

  00100	8b 45 f8	 mov	 eax, DWORD PTR _this$[ebp]
  00103	81 38 c2 02 00
	00		 cmp	 DWORD PTR [eax], 706	; 000002c2H
  00109	0f 85 bc 00 00
	00		 jne	 $L85631

; 540  : 		{
; 541  : 			COLOREDVERTEX2TEX *lv = &(m_ntvRS[nRS].pLitVertices2Tex[ndx]) ;

  0010f	8b 45 14	 mov	 eax, DWORD PTR _nRS$[ebp]
  00112	69 c0 44 01 00
	00		 imul	 eax, 324		; 00000144H
  00118	8b 4d 08	 mov	 ecx, DWORD PTR _ndx$[ebp]
  0011b	6b c9 24	 imul	 ecx, 36			; 00000024H
  0011e	8b 55 f8	 mov	 edx, DWORD PTR _this$[ebp]
  00121	03 4c 02 38	 add	 ecx, DWORD PTR [edx+eax+56]
  00125	89 4d e0	 mov	 DWORD PTR _lv$85632[ebp], ecx

; 542  : 			lv->color = tri->Colors[v] ;

  00128	8b 45 e0	 mov	 eax, DWORD PTR _lv$85632[ebp]
  0012b	8b 4d 10	 mov	 ecx, DWORD PTR _v$[ebp]
  0012e	8b 55 0c	 mov	 edx, DWORD PTR _tri$[ebp]
  00131	8b 4c 8a 64	 mov	 ecx, DWORD PTR [edx+ecx*4+100]
  00135	89 48 0c	 mov	 DWORD PTR [eax+12], ecx

; 543  : 			lv->specular = tri->SpecularColors[v] ;

  00138	8b 45 e0	 mov	 eax, DWORD PTR _lv$85632[ebp]
  0013b	8b 4d 10	 mov	 ecx, DWORD PTR _v$[ebp]
  0013e	8b 55 0c	 mov	 edx, DWORD PTR _tri$[ebp]
  00141	8b 4c 8a 74	 mov	 ecx, DWORD PTR [edx+ecx*4+116]
  00145	89 48 10	 mov	 DWORD PTR [eax+16], ecx

; 544  : 			lv->tu1 = tri->Points[v].tu1 ;

  00148	8b 45 10	 mov	 eax, DWORD PTR _v$[ebp]
  0014b	c1 e0 05	 shl	 eax, 5
  0014e	8b 4d e0	 mov	 ecx, DWORD PTR _lv$85632[ebp]
  00151	8b 55 0c	 mov	 edx, DWORD PTR _tri$[ebp]
  00154	8b 44 02 18	 mov	 eax, DWORD PTR [edx+eax+24]
  00158	89 41 14	 mov	 DWORD PTR [ecx+20], eax

; 545  : 			lv->tv1 = tri->Points[v].tv1 ;

  0015b	8b 45 10	 mov	 eax, DWORD PTR _v$[ebp]
  0015e	c1 e0 05	 shl	 eax, 5
  00161	8b 4d e0	 mov	 ecx, DWORD PTR _lv$85632[ebp]
  00164	8b 55 0c	 mov	 edx, DWORD PTR _tri$[ebp]
  00167	8b 44 02 1c	 mov	 eax, DWORD PTR [edx+eax+28]
  0016b	89 41 18	 mov	 DWORD PTR [ecx+24], eax

; 546  : 			lv->tu1 = tri->fTU2[v] ;

  0016e	8b 45 e0	 mov	 eax, DWORD PTR _lv$85632[ebp]
  00171	8b 4d 10	 mov	 ecx, DWORD PTR _v$[ebp]
  00174	8b 55 0c	 mov	 edx, DWORD PTR _tri$[ebp]
  00177	8b 8c 8a 84 00
	00 00		 mov	 ecx, DWORD PTR [edx+ecx*4+132]
  0017e	89 48 14	 mov	 DWORD PTR [eax+20], ecx

; 547  : 			lv->tv1 = tri->fTV2[v] ;

  00181	8b 45 e0	 mov	 eax, DWORD PTR _lv$85632[ebp]
  00184	8b 4d 10	 mov	 ecx, DWORD PTR _v$[ebp]
  00187	8b 55 0c	 mov	 edx, DWORD PTR _tri$[ebp]
  0018a	8b 8c 8a 90 00
	00 00		 mov	 ecx, DWORD PTR [edx+ecx*4+144]
  00191	89 48 18	 mov	 DWORD PTR [eax+24], ecx

; 548  : 			lv->x = tri->Points[v].x ;

  00194	8b 45 10	 mov	 eax, DWORD PTR _v$[ebp]
  00197	c1 e0 05	 shl	 eax, 5
  0019a	8b 4d e0	 mov	 ecx, DWORD PTR _lv$85632[ebp]
  0019d	8b 55 0c	 mov	 edx, DWORD PTR _tri$[ebp]
  001a0	8b 04 02	 mov	 eax, DWORD PTR [edx+eax]
  001a3	89 01		 mov	 DWORD PTR [ecx], eax

; 549  : 			lv->y = tri->Points[v].y ;

  001a5	8b 45 10	 mov	 eax, DWORD PTR _v$[ebp]
  001a8	c1 e0 05	 shl	 eax, 5
  001ab	8b 4d e0	 mov	 ecx, DWORD PTR _lv$85632[ebp]
  001ae	8b 55 0c	 mov	 edx, DWORD PTR _tri$[ebp]
  001b1	8b 44 02 04	 mov	 eax, DWORD PTR [edx+eax+4]
  001b5	89 41 04	 mov	 DWORD PTR [ecx+4], eax

; 550  : 			lv->z = tri->Points[v].z ;

  001b8	8b 45 10	 mov	 eax, DWORD PTR _v$[ebp]
  001bb	c1 e0 05	 shl	 eax, 5
  001be	8b 4d e0	 mov	 ecx, DWORD PTR _lv$85632[ebp]
  001c1	8b 55 0c	 mov	 edx, DWORD PTR _tri$[ebp]
  001c4	8b 44 02 08	 mov	 eax, DWORD PTR [edx+eax+8]
  001c8	89 41 08	 mov	 DWORD PTR [ecx+8], eax
$L85631:

; 551  : 		}
; 552  : 		if (m_dwFVF == MYFVF_COLOREDVERTEXWITHNORMAL)

  001cb	8b 45 f8	 mov	 eax, DWORD PTR _this$[ebp]
  001ce	81 38 d2 01 00
	00		 cmp	 DWORD PTR [eax], 466	; 000001d2H
  001d4	0f 85 cf 00 00
	00		 jne	 $L85633

; 553  : 		{
; 554  : 			COLOREDVERTEXWITHNORMAL *lvn = &(m_ntvRS[nRS].pLitVerticesWithNormals[ndx]) ;

  001da	8b 45 14	 mov	 eax, DWORD PTR _nRS$[ebp]
  001dd	69 c0 44 01 00
	00		 imul	 eax, 324		; 00000144H
  001e3	8b 4d 08	 mov	 ecx, DWORD PTR _ndx$[ebp]
  001e6	6b c9 28	 imul	 ecx, 40			; 00000028H
  001e9	8b 55 f8	 mov	 edx, DWORD PTR _this$[ebp]
  001ec	03 4c 02 3c	 add	 ecx, DWORD PTR [edx+eax+60]
  001f0	89 4d d4	 mov	 DWORD PTR _lvn$85634[ebp], ecx

; 555  : 			lvn->color = tri->Colors[v] ;

  001f3	8b 45 d4	 mov	 eax, DWORD PTR _lvn$85634[ebp]
  001f6	8b 4d 10	 mov	 ecx, DWORD PTR _v$[ebp]
  001f9	8b 55 0c	 mov	 edx, DWORD PTR _tri$[ebp]
  001fc	8b 4c 8a 64	 mov	 ecx, DWORD PTR [edx+ecx*4+100]
  00200	89 48 18	 mov	 DWORD PTR [eax+24], ecx

; 556  : 			lvn->specular = tri->SpecularColors[v] ;

  00203	8b 45 d4	 mov	 eax, DWORD PTR _lvn$85634[ebp]
  00206	8b 4d 10	 mov	 ecx, DWORD PTR _v$[ebp]
  00209	8b 55 0c	 mov	 edx, DWORD PTR _tri$[ebp]
  0020c	8b 4c 8a 74	 mov	 ecx, DWORD PTR [edx+ecx*4+116]
  00210	89 48 1c	 mov	 DWORD PTR [eax+28], ecx

; 557  : 			lvn->tu1 = tri->Points[v].tu1 ;

  00213	8b 45 10	 mov	 eax, DWORD PTR _v$[ebp]
  00216	c1 e0 05	 shl	 eax, 5
  00219	8b 4d d4	 mov	 ecx, DWORD PTR _lvn$85634[ebp]
  0021c	8b 55 0c	 mov	 edx, DWORD PTR _tri$[ebp]
  0021f	8b 44 02 18	 mov	 eax, DWORD PTR [edx+eax+24]
  00223	89 41 20	 mov	 DWORD PTR [ecx+32], eax

; 558  : 			lvn->tv1 = tri->Points[v].tv1 ;

  00226	8b 45 10	 mov	 eax, DWORD PTR _v$[ebp]
  00229	c1 e0 05	 shl	 eax, 5
  0022c	8b 4d d4	 mov	 ecx, DWORD PTR _lvn$85634[ebp]
  0022f	8b 55 0c	 mov	 edx, DWORD PTR _tri$[ebp]
  00232	8b 44 02 1c	 mov	 eax, DWORD PTR [edx+eax+28]
  00236	89 41 24	 mov	 DWORD PTR [ecx+36], eax

; 559  : 			lvn->x = tri->Points[v].x ;

  00239	8b 45 10	 mov	 eax, DWORD PTR _v$[ebp]
  0023c	c1 e0 05	 shl	 eax, 5
  0023f	8b 4d d4	 mov	 ecx, DWORD PTR _lvn$85634[ebp]
  00242	8b 55 0c	 mov	 edx, DWORD PTR _tri$[ebp]
  00245	8b 04 02	 mov	 eax, DWORD PTR [edx+eax]
  00248	89 01		 mov	 DWORD PTR [ecx], eax

; 560  : 			lvn->y = tri->Points[v].y ;

  0024a	8b 45 10	 mov	 eax, DWORD PTR _v$[ebp]
  0024d	c1 e0 05	 shl	 eax, 5
  00250	8b 4d d4	 mov	 ecx, DWORD PTR _lvn$85634[ebp]
  00253	8b 55 0c	 mov	 edx, DWORD PTR _tri$[ebp]
  00256	8b 44 02 04	 mov	 eax, DWORD PTR [edx+eax+4]
  0025a	89 41 04	 mov	 DWORD PTR [ecx+4], eax

; 561  : 			lvn->z = tri->Points[v].z ;

  0025d	8b 45 10	 mov	 eax, DWORD PTR _v$[ebp]
  00260	c1 e0 05	 shl	 eax, 5
  00263	8b 4d d4	 mov	 ecx, DWORD PTR _lvn$85634[ebp]
  00266	8b 55 0c	 mov	 edx, DWORD PTR _tri$[ebp]
  00269	8b 44 02 08	 mov	 eax, DWORD PTR [edx+eax+8]
  0026d	89 41 08	 mov	 DWORD PTR [ecx+8], eax

; 562  : 			lvn->nx = tri->Points[v].nx ;

  00270	8b 45 10	 mov	 eax, DWORD PTR _v$[ebp]
  00273	c1 e0 05	 shl	 eax, 5
  00276	8b 4d d4	 mov	 ecx, DWORD PTR _lvn$85634[ebp]
  00279	8b 55 0c	 mov	 edx, DWORD PTR _tri$[ebp]
  0027c	8b 44 02 0c	 mov	 eax, DWORD PTR [edx+eax+12]
  00280	89 41 0c	 mov	 DWORD PTR [ecx+12], eax

; 563  : 			lvn->ny = tri->Points[v].ny ;

  00283	8b 45 10	 mov	 eax, DWORD PTR _v$[ebp]
  00286	c1 e0 05	 shl	 eax, 5
  00289	8b 4d d4	 mov	 ecx, DWORD PTR _lvn$85634[ebp]
  0028c	8b 55 0c	 mov	 edx, DWORD PTR _tri$[ebp]
  0028f	8b 44 02 10	 mov	 eax, DWORD PTR [edx+eax+16]
  00293	89 41 10	 mov	 DWORD PTR [ecx+16], eax

; 564  : 			lvn->nz = tri->Points[v].nz ;

  00296	8b 45 10	 mov	 eax, DWORD PTR _v$[ebp]
  00299	c1 e0 05	 shl	 eax, 5
  0029c	8b 4d d4	 mov	 ecx, DWORD PTR _lvn$85634[ebp]
  0029f	8b 55 0c	 mov	 edx, DWORD PTR _tri$[ebp]
  002a2	8b 44 02 14	 mov	 eax, DWORD PTR [edx+eax+20]
  002a6	89 41 14	 mov	 DWORD PTR [ecx+20], eax
$L85633:

; 565  : 		}
; 566  : 		if (m_dwFVF == MYFVF_COLOREDVERTEXWITHNORMAL2TEX)

  002a9	8b 45 f8	 mov	 eax, DWORD PTR _this$[ebp]
  002ac	81 38 d2 02 00
	00		 cmp	 DWORD PTR [eax], 722	; 000002d2H
  002b2	0f 85 f5 00 00
	00		 jne	 $L85624

; 567  : 		{
; 568  : 			COLOREDVERTEXWITHNORMAL2TEX *lvn = &(m_ntvRS[nRS].pLitVerticesWithNormals2Tex[ndx]) ;

  002b8	8b 45 14	 mov	 eax, DWORD PTR _nRS$[ebp]
  002bb	69 c0 44 01 00
	00		 imul	 eax, 324		; 00000144H
  002c1	8b 4d 08	 mov	 ecx, DWORD PTR _ndx$[ebp]
  002c4	6b c9 30	 imul	 ecx, 48			; 00000030H
  002c7	8b 55 f8	 mov	 edx, DWORD PTR _this$[ebp]
  002ca	03 4c 02 40	 add	 ecx, DWORD PTR [edx+eax+64]
  002ce	89 4d c8	 mov	 DWORD PTR _lvn$85636[ebp], ecx

; 569  : 			lvn->color = tri->Colors[v] ;

  002d1	8b 45 c8	 mov	 eax, DWORD PTR _lvn$85636[ebp]
  002d4	8b 4d 10	 mov	 ecx, DWORD PTR _v$[ebp]
  002d7	8b 55 0c	 mov	 edx, DWORD PTR _tri$[ebp]
  002da	8b 4c 8a 64	 mov	 ecx, DWORD PTR [edx+ecx*4+100]
  002de	89 48 18	 mov	 DWORD PTR [eax+24], ecx

; 570  : 			lvn->specular = tri->SpecularColors[v] ;

  002e1	8b 45 c8	 mov	 eax, DWORD PTR _lvn$85636[ebp]
  002e4	8b 4d 10	 mov	 ecx, DWORD PTR _v$[ebp]
  002e7	8b 55 0c	 mov	 edx, DWORD PTR _tri$[ebp]
  002ea	8b 4c 8a 74	 mov	 ecx, DWORD PTR [edx+ecx*4+116]
  002ee	89 48 1c	 mov	 DWORD PTR [eax+28], ecx

; 571  : 			lvn->tu1 = tri->Points[v].tu1 ;

  002f1	8b 45 10	 mov	 eax, DWORD PTR _v$[ebp]
  002f4	c1 e0 05	 shl	 eax, 5
  002f7	8b 4d c8	 mov	 ecx, DWORD PTR _lvn$85636[ebp]
  002fa	8b 55 0c	 mov	 edx, DWORD PTR _tri$[ebp]
  002fd	8b 44 02 18	 mov	 eax, DWORD PTR [edx+eax+24]
  00301	89 41 20	 mov	 DWORD PTR [ecx+32], eax

; 572  : 			lvn->tv1 = tri->Points[v].tv1 ;

  00304	8b 45 10	 mov	 eax, DWORD PTR _v$[ebp]
  00307	c1 e0 05	 shl	 eax, 5
  0030a	8b 4d c8	 mov	 ecx, DWORD PTR _lvn$85636[ebp]
  0030d	8b 55 0c	 mov	 edx, DWORD PTR _tri$[ebp]
  00310	8b 44 02 1c	 mov	 eax, DWORD PTR [edx+eax+28]
  00314	89 41 24	 mov	 DWORD PTR [ecx+36], eax

; 573  : 			lvn->tu2 = tri->fTU2[v] ;

  00317	8b 45 c8	 mov	 eax, DWORD PTR _lvn$85636[ebp]
  0031a	8b 4d 10	 mov	 ecx, DWORD PTR _v$[ebp]
  0031d	8b 55 0c	 mov	 edx, DWORD PTR _tri$[ebp]
  00320	8b 8c 8a 84 00
	00 00		 mov	 ecx, DWORD PTR [edx+ecx*4+132]
  00327	89 48 28	 mov	 DWORD PTR [eax+40], ecx

; 574  : 			lvn->tv2 = tri->fTV2[v] ;

  0032a	8b 45 c8	 mov	 eax, DWORD PTR _lvn$85636[ebp]
  0032d	8b 4d 10	 mov	 ecx, DWORD PTR _v$[ebp]
  00330	8b 55 0c	 mov	 edx, DWORD PTR _tri$[ebp]
  00333	8b 8c 8a 90 00
	00 00		 mov	 ecx, DWORD PTR [edx+ecx*4+144]
  0033a	89 48 2c	 mov	 DWORD PTR [eax+44], ecx

; 575  : 			lvn->x = tri->Points[v].x ;

  0033d	8b 45 10	 mov	 eax, DWORD PTR _v$[ebp]
  00340	c1 e0 05	 shl	 eax, 5
  00343	8b 4d c8	 mov	 ecx, DWORD PTR _lvn$85636[ebp]
  00346	8b 55 0c	 mov	 edx, DWORD PTR _tri$[ebp]
  00349	8b 04 02	 mov	 eax, DWORD PTR [edx+eax]
  0034c	89 01		 mov	 DWORD PTR [ecx], eax

; 576  : 			lvn->y = tri->Points[v].y ;

  0034e	8b 45 10	 mov	 eax, DWORD PTR _v$[ebp]
  00351	c1 e0 05	 shl	 eax, 5
  00354	8b 4d c8	 mov	 ecx, DWORD PTR _lvn$85636[ebp]
  00357	8b 55 0c	 mov	 edx, DWORD PTR _tri$[ebp]
  0035a	8b 44 02 04	 mov	 eax, DWORD PTR [edx+eax+4]
  0035e	89 41 04	 mov	 DWORD PTR [ecx+4], eax

; 577  : 			lvn->z = tri->Points[v].z ;

  00361	8b 45 10	 mov	 eax, DWORD PTR _v$[ebp]
  00364	c1 e0 05	 shl	 eax, 5
  00367	8b 4d c8	 mov	 ecx, DWORD PTR _lvn$85636[ebp]
  0036a	8b 55 0c	 mov	 edx, DWORD PTR _tri$[ebp]
  0036d	8b 44 02 08	 mov	 eax, DWORD PTR [edx+eax+8]
  00371	89 41 08	 mov	 DWORD PTR [ecx+8], eax

; 578  : 			lvn->nx = tri->Points[v].nx ;

  00374	8b 45 10	 mov	 eax, DWORD PTR _v$[ebp]
  00377	c1 e0 05	 shl	 eax, 5
  0037a	8b 4d c8	 mov	 ecx, DWORD PTR _lvn$85636[ebp]
  0037d	8b 55 0c	 mov	 edx, DWORD PTR _tri$[ebp]
  00380	8b 44 02 0c	 mov	 eax, DWORD PTR [edx+eax+12]
  00384	89 41 0c	 mov	 DWORD PTR [ecx+12], eax

; 579  : 			lvn->ny = tri->Points[v].ny ;

  00387	8b 45 10	 mov	 eax, DWORD PTR _v$[ebp]
  0038a	c1 e0 05	 shl	 eax, 5
  0038d	8b 4d c8	 mov	 ecx, DWORD PTR _lvn$85636[ebp]
  00390	8b 55 0c	 mov	 edx, DWORD PTR _tri$[ebp]
  00393	8b 44 02 10	 mov	 eax, DWORD PTR [edx+eax+16]
  00397	89 41 10	 mov	 DWORD PTR [ecx+16], eax

; 580  : 			lvn->nz = tri->Points[v].nz ;

  0039a	8b 45 10	 mov	 eax, DWORD PTR _v$[ebp]
  0039d	c1 e0 05	 shl	 eax, 5
  003a0	8b 4d c8	 mov	 ecx, DWORD PTR _lvn$85636[ebp]
  003a3	8b 55 0c	 mov	 edx, DWORD PTR _tri$[ebp]
  003a6	8b 44 02 14	 mov	 eax, DWORD PTR [edx+eax+20]
  003aa	89 41 14	 mov	 DWORD PTR [ecx+20], eax
$L85624:

; 581  : 		}
; 582  : 	}

  003ad	5f		 pop	 edi
  003ae	5e		 pop	 esi
  003af	5b		 pop	 ebx
  003b0	81 c4 fc 00 00
	00		 add	 esp, 252		; 000000fcH
  003b6	3b ec		 cmp	 ebp, esp
  003b8	e8 00 00 00 00	 call	 __RTC_CheckEsp
  003bd	8b e5		 mov	 esp, ebp
  003bf	5d		 pop	 ebp
  003c0	c2 10 00	 ret	 16			; 00000010H
?AddIndexedVertex@CProceduralRenderObject@@QAEXIPAUX7LT@@HH@Z ENDP ; CProceduralRenderObject::AddIndexedVertex
_TEXT	ENDS
PUBLIC	?MakeRenderData@CProceduralRenderObject@@QAEJPAUIDirect3D8@@PAUIDirect3DDevice8@@@Z ; CProceduralRenderObject::MakeRenderData
PUBLIC	?__LINE__Var@?1??MakeRenderData@CProceduralRenderObject@@QAEJPAUIDirect3D8@@PAUIDirect3DDevice8@@@Z@4JA ; `CProceduralRenderObject::MakeRenderData'::`2'::__LINE__Var
PUBLIC	??_C@_0M@NKNCPJJD@?$CBFAILED?$CIhr?$CJ?$AA@	; `string'
EXTRN	__RTC_UninitUse:NEAR
EXTRN	_D3DXCreateMeshFVF@24:NEAR
;	COMDAT ?__LINE__Var@?1??MakeRenderData@CProceduralRenderObject@@QAEJPAUIDirect3D8@@PAUIDirect3DDevice8@@@Z@4JA
_DATA	SEGMENT
?__LINE__Var@?1??MakeRenderData@CProceduralRenderObject@@QAEJPAUIDirect3D8@@PAUIDirect3DDevice8@@@Z@4JA DD 024eH ; `CProceduralRenderObject::MakeRenderData'::`2'::__LINE__Var
_DATA	ENDS
;	COMDAT ??_C@_0M@NKNCPJJD@?$CBFAILED?$CIhr?$CJ?$AA@
CONST	SEGMENT
??_C@_0M@NKNCPJJD@?$CBFAILED?$CIhr?$CJ?$AA@ DB '!FAILED(hr)', 00H ; `string'
; Function compile flags: /Odt /RTCsu /ZI
CONST	ENDS
;	COMDAT ?MakeRenderData@CProceduralRenderObject@@QAEJPAUIDirect3D8@@PAUIDirect3DDevice8@@@Z
_TEXT	SEGMENT
$T86090 = -305
_ndx$85716 = -104
_pIndices$85712 = -92
_pVerts$85689 = -80
_iFVFSize$85676 = -68
_pIndices$85670 = -56
_pVerts$85652 = -44
_nRS$85643 = -32
_hr$ = -20
_this$ = -8
_pD3D$ = 8
_pDev$ = 12
?MakeRenderData@CProceduralRenderObject@@QAEJPAUIDirect3D8@@PAUIDirect3DDevice8@@@Z PROC NEAR ; CProceduralRenderObject::MakeRenderData, COMDAT
; _this$ = ecx

; 590  : 	{

  00000	55		 push	 ebp
  00001	8b ec		 mov	 ebp, esp
  00003	81 ec 38 01 00
	00		 sub	 esp, 312		; 00000138H
  00009	53		 push	 ebx
  0000a	56		 push	 esi
  0000b	57		 push	 edi
  0000c	51		 push	 ecx
  0000d	8d bd c8 fe ff
	ff		 lea	 edi, DWORD PTR [ebp-312]
  00013	b9 4e 00 00 00	 mov	 ecx, 78			; 0000004eH
  00018	b8 cc cc cc cc	 mov	 eax, -858993460		; ccccccccH
  0001d	f3 ab		 rep stosd
  0001f	59		 pop	 ecx
  00020	89 4d f8	 mov	 DWORD PTR _this$[ebp], ecx

; 591  : 		HRESULT hr ;
; 592  : 		
; 593  : 		for (int nRS = 0 ; nRS < m_nRSs ; nRS ++)

  00023	c7 45 e0 00 00
	00 00		 mov	 DWORD PTR _nRS$85643[ebp], 0
  0002a	eb 09		 jmp	 SHORT $L85644
$L85645:
  0002c	8b 45 e0	 mov	 eax, DWORD PTR _nRS$85643[ebp]
  0002f	83 c0 01	 add	 eax, 1
  00032	89 45 e0	 mov	 DWORD PTR _nRS$85643[ebp], eax
$L85644:
  00035	8b 45 f8	 mov	 eax, DWORD PTR _this$[ebp]
  00038	8b 4d e0	 mov	 ecx, DWORD PTR _nRS$85643[ebp]
  0003b	3b 88 48 0a 00
	00		 cmp	 ecx, DWORD PTR [eax+2632]
  00041	0f 8d da 08 00
	00		 jge	 $L85646

; 594  : 		{
; 595  : 			if (m_bUseD3DXMesh)

  00047	8b 45 f8	 mov	 eax, DWORD PTR _this$[ebp]
  0004a	83 b8 54 0a 00
	00 00		 cmp	 DWORD PTR [eax+2644], 0
  00051	0f 84 bf 03 00
	00		 je	 $L85647

; 596  : 			{
; 597  : 			//
; 598  : 			// Create an empty mesh:
; 599  : 			//
; 600  : 				hr = D3DXCreateMeshFVF(m_ntvRS[nRS].dwNumIndices / 3,
; 601  : 									   m_ntvRS[nRS].dwNumVertices,
; 602  : 									   m_dwMeshOptions,
; 603  : 									   m_dwFVF,
; 604  : 									   pDev,
; 605  : 									   &m_ntvRS[nRS].pMesh) ;

  00057	8b 45 e0	 mov	 eax, DWORD PTR _nRS$85643[ebp]
  0005a	69 c0 44 01 00
	00		 imul	 eax, 324		; 00000144H
  00060	8b 4d f8	 mov	 ecx, DWORD PTR _this$[ebp]
  00063	8d 94 01 94 00
	00 00		 lea	 edx, DWORD PTR [ecx+eax+148]
  0006a	52		 push	 edx
  0006b	8b 45 0c	 mov	 eax, DWORD PTR _pDev$[ebp]
  0006e	50		 push	 eax
  0006f	8b 4d f8	 mov	 ecx, DWORD PTR _this$[ebp]
  00072	8b 11		 mov	 edx, DWORD PTR [ecx]
  00074	52		 push	 edx
  00075	8b 45 f8	 mov	 eax, DWORD PTR _this$[ebp]
  00078	8b 88 4c 0a 00
	00		 mov	 ecx, DWORD PTR [eax+2636]
  0007e	51		 push	 ecx
  0007f	8b 55 e0	 mov	 edx, DWORD PTR _nRS$85643[ebp]
  00082	69 d2 44 01 00
	00		 imul	 edx, 324		; 00000144H
  00088	8b 45 f8	 mov	 eax, DWORD PTR _this$[ebp]
  0008b	8b 4c 10 48	 mov	 ecx, DWORD PTR [eax+edx+72]
  0008f	51		 push	 ecx
  00090	8b 55 e0	 mov	 edx, DWORD PTR _nRS$85643[ebp]
  00093	69 d2 44 01 00
	00		 imul	 edx, 324		; 00000144H
  00099	8b 45 f8	 mov	 eax, DWORD PTR _this$[ebp]
  0009c	8b 44 10 4c	 mov	 eax, DWORD PTR [eax+edx+76]
  000a0	33 d2		 xor	 edx, edx
  000a2	b9 03 00 00 00	 mov	 ecx, 3
  000a7	f7 f1		 div	 ecx
  000a9	50		 push	 eax
  000aa	e8 00 00 00 00	 call	 _D3DXCreateMeshFVF@24
  000af	89 45 ec	 mov	 DWORD PTR _hr$[ebp], eax

; 606  : 				assert( !FAILED(hr) );

  000b2	83 7d ec 00	 cmp	 DWORD PTR _hr$[ebp], 0
  000b6	7d 1b		 jge	 SHORT $L86082
  000b8	a1 00 00 00 00	 mov	 eax, DWORD PTR ?__LINE__Var@?1??MakeRenderData@CProceduralRenderObject@@QAEJPAUIDirect3D8@@PAUIDirect3DDevice8@@@Z@4JA
  000bd	83 c0 10	 add	 eax, 16			; 00000010H
  000c0	50		 push	 eax
  000c1	68 00 00 00 00	 push	 OFFSET FLAT:??_C@_0FJ@JJKKIHO@c?3?2documents?5and?5settings?2dom?2my@
  000c6	68 00 00 00 00	 push	 OFFSET FLAT:??_C@_0M@NKNCPJJD@?$CBFAILED?$CIhr?$CJ?$AA@
  000cb	e8 00 00 00 00	 call	 __assert
  000d0	83 c4 0c	 add	 esp, 12			; 0000000cH
$L86082:

; 607  : 
; 608  : 			//
; 609  : 			// Fill the mesh's VB:
; 610  : 			//
; 611  : 				BYTE *pVerts ;
; 612  : 				hr = m_ntvRS[nRS].pMesh->LockVertexBuffer(0, &pVerts) ;

  000d3	8b f4		 mov	 esi, esp
  000d5	8d 45 d4	 lea	 eax, DWORD PTR _pVerts$85652[ebp]
  000d8	50		 push	 eax
  000d9	6a 00		 push	 0
  000db	8b 4d e0	 mov	 ecx, DWORD PTR _nRS$85643[ebp]
  000de	69 c9 44 01 00
	00		 imul	 ecx, 324		; 00000144H
  000e4	8b 55 f8	 mov	 edx, DWORD PTR _this$[ebp]
  000e7	8b 84 0a 94 00
	00 00		 mov	 eax, DWORD PTR [edx+ecx+148]
  000ee	8b 4d e0	 mov	 ecx, DWORD PTR _nRS$85643[ebp]
  000f1	69 c9 44 01 00
	00		 imul	 ecx, 324		; 00000144H
  000f7	8b 55 f8	 mov	 edx, DWORD PTR _this$[ebp]
  000fa	8b 8c 0a 94 00
	00 00		 mov	 ecx, DWORD PTR [edx+ecx+148]
  00101	8b 10		 mov	 edx, DWORD PTR [eax]
  00103	51		 push	 ecx
  00104	ff 52 38	 call	 DWORD PTR [edx+56]
  00107	3b f4		 cmp	 esi, esp
  00109	e8 00 00 00 00	 call	 __RTC_CheckEsp
  0010e	89 45 ec	 mov	 DWORD PTR _hr$[ebp], eax

; 613  : 				assert( !FAILED(hr) );

  00111	83 7d ec 00	 cmp	 DWORD PTR _hr$[ebp], 0
  00115	7d 1b		 jge	 SHORT $L86083
  00117	a1 00 00 00 00	 mov	 eax, DWORD PTR ?__LINE__Var@?1??MakeRenderData@CProceduralRenderObject@@QAEJPAUIDirect3D8@@PAUIDirect3DDevice8@@@Z@4JA
  0011c	83 c0 17	 add	 eax, 23			; 00000017H
  0011f	50		 push	 eax
  00120	68 00 00 00 00	 push	 OFFSET FLAT:??_C@_0FJ@JJKKIHO@c?3?2documents?5and?5settings?2dom?2my@
  00125	68 00 00 00 00	 push	 OFFSET FLAT:??_C@_0M@NKNCPJJD@?$CBFAILED?$CIhr?$CJ?$AA@
  0012a	e8 00 00 00 00	 call	 __assert
  0012f	83 c4 0c	 add	 esp, 12			; 0000000cH
$L86083:

; 614  : 
; 615  : 				if (m_dwFVF == MYFVF_UNCOLOREDVERTEX)

  00132	8b 45 f8	 mov	 eax, DWORD PTR _this$[ebp]
  00135	81 38 12 01 00
	00		 cmp	 DWORD PTR [eax], 274	; 00000112H
  0013b	75 50		 jne	 SHORT $L85655

; 616  : 				{
; 617  : 					memcpy(pVerts, m_ntvRS[nRS].pUnlitVertices, sizeof(UNCOLOREDVERTEX) * m_ntvRS[nRS].dwNumVertices) ;

  0013d	8b 45 e0	 mov	 eax, DWORD PTR _nRS$85643[ebp]
  00140	69 c0 44 01 00
	00		 imul	 eax, 324		; 00000144H
  00146	8b 4d f8	 mov	 ecx, DWORD PTR _this$[ebp]
  00149	8b 54 01 48	 mov	 edx, DWORD PTR [ecx+eax+72]
  0014d	c1 e2 05	 shl	 edx, 5
  00150	52		 push	 edx
  00151	8b 45 e0	 mov	 eax, DWORD PTR _nRS$85643[ebp]
  00154	69 c0 44 01 00
	00		 imul	 eax, 324		; 00000144H
  0015a	8b 4d f8	 mov	 ecx, DWORD PTR _this$[ebp]
  0015d	8b 54 01 30	 mov	 edx, DWORD PTR [ecx+eax+48]
  00161	52		 push	 edx
  00162	8b 45 d4	 mov	 eax, DWORD PTR _pVerts$85652[ebp]
  00165	50		 push	 eax
  00166	e8 00 00 00 00	 call	 _memcpy
  0016b	83 c4 0c	 add	 esp, 12			; 0000000cH

; 618  : 					m_dwMem_RenderData += sizeof(UNCOLOREDVERTEX) * m_ntvRS[nRS].dwNumVertices ;

  0016e	8b 45 e0	 mov	 eax, DWORD PTR _nRS$85643[ebp]
  00171	69 c0 44 01 00
	00		 imul	 eax, 324		; 00000144H
  00177	8b 4d f8	 mov	 ecx, DWORD PTR _this$[ebp]
  0017a	8b 54 01 48	 mov	 edx, DWORD PTR [ecx+eax+72]
  0017e	c1 e2 05	 shl	 edx, 5
  00181	8b 45 f8	 mov	 eax, DWORD PTR _this$[ebp]
  00184	03 50 20	 add	 edx, DWORD PTR [eax+32]
  00187	8b 4d f8	 mov	 ecx, DWORD PTR _this$[ebp]
  0018a	89 51 20	 mov	 DWORD PTR [ecx+32], edx
$L85655:

; 619  : 				}
; 620  : 				if (m_dwFVF == MYFVF_COLOREDVERTEX)

  0018d	8b 45 f8	 mov	 eax, DWORD PTR _this$[ebp]
  00190	81 38 c2 01 00
	00		 cmp	 DWORD PTR [eax], 450	; 000001c2H
  00196	75 50		 jne	 SHORT $L85658

; 621  : 				{
; 622  : 					memcpy(pVerts, m_ntvRS[nRS].pLitVertices, sizeof(COLOREDVERTEX) * m_ntvRS[nRS].dwNumVertices) ;

  00198	8b 45 e0	 mov	 eax, DWORD PTR _nRS$85643[ebp]
  0019b	69 c0 44 01 00
	00		 imul	 eax, 324		; 00000144H
  001a1	8b 4d f8	 mov	 ecx, DWORD PTR _this$[ebp]
  001a4	8b 54 01 48	 mov	 edx, DWORD PTR [ecx+eax+72]
  001a8	6b d2 1c	 imul	 edx, 28			; 0000001cH
  001ab	52		 push	 edx
  001ac	8b 45 e0	 mov	 eax, DWORD PTR _nRS$85643[ebp]
  001af	69 c0 44 01 00
	00		 imul	 eax, 324		; 00000144H
  001b5	8b 4d f8	 mov	 ecx, DWORD PTR _this$[ebp]
  001b8	8b 54 01 34	 mov	 edx, DWORD PTR [ecx+eax+52]
  001bc	52		 push	 edx
  001bd	8b 45 d4	 mov	 eax, DWORD PTR _pVerts$85652[ebp]
  001c0	50		 push	 eax
  001c1	e8 00 00 00 00	 call	 _memcpy
  001c6	83 c4 0c	 add	 esp, 12			; 0000000cH

; 623  : 					m_dwMem_RenderData += sizeof(COLOREDVERTEX) * m_ntvRS[nRS].dwNumVertices ;

  001c9	8b 45 e0	 mov	 eax, DWORD PTR _nRS$85643[ebp]
  001cc	69 c0 44 01 00
	00		 imul	 eax, 324		; 00000144H
  001d2	8b 4d f8	 mov	 ecx, DWORD PTR _this$[ebp]
  001d5	8b 54 01 48	 mov	 edx, DWORD PTR [ecx+eax+72]
  001d9	6b d2 1c	 imul	 edx, 28			; 0000001cH
  001dc	8b 45 f8	 mov	 eax, DWORD PTR _this$[ebp]
  001df	03 50 20	 add	 edx, DWORD PTR [eax+32]
  001e2	8b 4d f8	 mov	 ecx, DWORD PTR _this$[ebp]
  001e5	89 51 20	 mov	 DWORD PTR [ecx+32], edx
$L85658:

; 624  : 				}
; 625  : 				if (m_dwFVF == MYFVF_COLOREDVERTEX2TEX)

  001e8	8b 45 f8	 mov	 eax, DWORD PTR _this$[ebp]
  001eb	81 38 c2 02 00
	00		 cmp	 DWORD PTR [eax], 706	; 000002c2H
  001f1	75 50		 jne	 SHORT $L85661

; 626  : 				{
; 627  : 					memcpy(pVerts, m_ntvRS[nRS].pLitVertices2Tex, sizeof(COLOREDVERTEX2TEX) * m_ntvRS[nRS].dwNumVertices) ;

  001f3	8b 45 e0	 mov	 eax, DWORD PTR _nRS$85643[ebp]
  001f6	69 c0 44 01 00
	00		 imul	 eax, 324		; 00000144H
  001fc	8b 4d f8	 mov	 ecx, DWORD PTR _this$[ebp]
  001ff	8b 54 01 48	 mov	 edx, DWORD PTR [ecx+eax+72]
  00203	6b d2 24	 imul	 edx, 36			; 00000024H
  00206	52		 push	 edx
  00207	8b 45 e0	 mov	 eax, DWORD PTR _nRS$85643[ebp]
  0020a	69 c0 44 01 00
	00		 imul	 eax, 324		; 00000144H
  00210	8b 4d f8	 mov	 ecx, DWORD PTR _this$[ebp]
  00213	8b 54 01 38	 mov	 edx, DWORD PTR [ecx+eax+56]
  00217	52		 push	 edx
  00218	8b 45 d4	 mov	 eax, DWORD PTR _pVerts$85652[ebp]
  0021b	50		 push	 eax
  0021c	e8 00 00 00 00	 call	 _memcpy
  00221	83 c4 0c	 add	 esp, 12			; 0000000cH

; 628  : 					m_dwMem_RenderData += sizeof(COLOREDVERTEX2TEX) * m_ntvRS[nRS].dwNumVertices ;

  00224	8b 45 e0	 mov	 eax, DWORD PTR _nRS$85643[ebp]
  00227	69 c0 44 01 00
	00		 imul	 eax, 324		; 00000144H
  0022d	8b 4d f8	 mov	 ecx, DWORD PTR _this$[ebp]
  00230	8b 54 01 48	 mov	 edx, DWORD PTR [ecx+eax+72]
  00234	6b d2 24	 imul	 edx, 36			; 00000024H
  00237	8b 45 f8	 mov	 eax, DWORD PTR _this$[ebp]
  0023a	03 50 20	 add	 edx, DWORD PTR [eax+32]
  0023d	8b 4d f8	 mov	 ecx, DWORD PTR _this$[ebp]
  00240	89 51 20	 mov	 DWORD PTR [ecx+32], edx
$L85661:

; 629  : 				}
; 630  : 				if (m_dwFVF == MYFVF_COLOREDVERTEXWITHNORMAL)

  00243	8b 45 f8	 mov	 eax, DWORD PTR _this$[ebp]
  00246	81 38 d2 01 00
	00		 cmp	 DWORD PTR [eax], 466	; 000001d2H
  0024c	75 50		 jne	 SHORT $L85664

; 631  : 				{
; 632  : 					memcpy(pVerts, m_ntvRS[nRS].pLitVerticesWithNormals, sizeof(COLOREDVERTEXWITHNORMAL) * m_ntvRS[nRS].dwNumVertices) ;

  0024e	8b 45 e0	 mov	 eax, DWORD PTR _nRS$85643[ebp]
  00251	69 c0 44 01 00
	00		 imul	 eax, 324		; 00000144H
  00257	8b 4d f8	 mov	 ecx, DWORD PTR _this$[ebp]
  0025a	8b 54 01 48	 mov	 edx, DWORD PTR [ecx+eax+72]
  0025e	6b d2 28	 imul	 edx, 40			; 00000028H
  00261	52		 push	 edx
  00262	8b 45 e0	 mov	 eax, DWORD PTR _nRS$85643[ebp]
  00265	69 c0 44 01 00
	00		 imul	 eax, 324		; 00000144H
  0026b	8b 4d f8	 mov	 ecx, DWORD PTR _this$[ebp]
  0026e	8b 54 01 3c	 mov	 edx, DWORD PTR [ecx+eax+60]
  00272	52		 push	 edx
  00273	8b 45 d4	 mov	 eax, DWORD PTR _pVerts$85652[ebp]
  00276	50		 push	 eax
  00277	e8 00 00 00 00	 call	 _memcpy
  0027c	83 c4 0c	 add	 esp, 12			; 0000000cH

; 633  : 					m_dwMem_RenderData += sizeof(COLOREDVERTEXWITHNORMAL) * m_ntvRS[nRS].dwNumVertices ;

  0027f	8b 45 e0	 mov	 eax, DWORD PTR _nRS$85643[ebp]
  00282	69 c0 44 01 00
	00		 imul	 eax, 324		; 00000144H
  00288	8b 4d f8	 mov	 ecx, DWORD PTR _this$[ebp]
  0028b	8b 54 01 48	 mov	 edx, DWORD PTR [ecx+eax+72]
  0028f	6b d2 28	 imul	 edx, 40			; 00000028H
  00292	8b 45 f8	 mov	 eax, DWORD PTR _this$[ebp]
  00295	03 50 20	 add	 edx, DWORD PTR [eax+32]
  00298	8b 4d f8	 mov	 ecx, DWORD PTR _this$[ebp]
  0029b	89 51 20	 mov	 DWORD PTR [ecx+32], edx
$L85664:

; 634  : 				}
; 635  : 				if (m_dwFVF == MYFVF_COLOREDVERTEXWITHNORMAL2TEX)

  0029e	8b 45 f8	 mov	 eax, DWORD PTR _this$[ebp]
  002a1	81 38 d2 02 00
	00		 cmp	 DWORD PTR [eax], 722	; 000002d2H
  002a7	75 50		 jne	 SHORT $L85667

; 636  : 				{
; 637  : 					memcpy(pVerts, m_ntvRS[nRS].pLitVerticesWithNormals2Tex, sizeof(COLOREDVERTEXWITHNORMAL2TEX) * m_ntvRS[nRS].dwNumVertices) ;

  002a9	8b 45 e0	 mov	 eax, DWORD PTR _nRS$85643[ebp]
  002ac	69 c0 44 01 00
	00		 imul	 eax, 324		; 00000144H
  002b2	8b 4d f8	 mov	 ecx, DWORD PTR _this$[ebp]
  002b5	8b 54 01 48	 mov	 edx, DWORD PTR [ecx+eax+72]
  002b9	6b d2 30	 imul	 edx, 48			; 00000030H
  002bc	52		 push	 edx
  002bd	8b 45 e0	 mov	 eax, DWORD PTR _nRS$85643[ebp]
  002c0	69 c0 44 01 00
	00		 imul	 eax, 324		; 00000144H
  002c6	8b 4d f8	 mov	 ecx, DWORD PTR _this$[ebp]
  002c9	8b 54 01 40	 mov	 edx, DWORD PTR [ecx+eax+64]
  002cd	52		 push	 edx
  002ce	8b 45 d4	 mov	 eax, DWORD PTR _pVerts$85652[ebp]
  002d1	50		 push	 eax
  002d2	e8 00 00 00 00	 call	 _memcpy
  002d7	83 c4 0c	 add	 esp, 12			; 0000000cH

; 638  : 					m_dwMem_RenderData += sizeof(COLOREDVERTEXWITHNORMAL2TEX) * m_ntvRS[nRS].dwNumVertices ;

  002da	8b 45 e0	 mov	 eax, DWORD PTR _nRS$85643[ebp]
  002dd	69 c0 44 01 00
	00		 imul	 eax, 324		; 00000144H
  002e3	8b 4d f8	 mov	 ecx, DWORD PTR _this$[ebp]
  002e6	8b 54 01 48	 mov	 edx, DWORD PTR [ecx+eax+72]
  002ea	6b d2 30	 imul	 edx, 48			; 00000030H
  002ed	8b 45 f8	 mov	 eax, DWORD PTR _this$[ebp]
  002f0	03 50 20	 add	 edx, DWORD PTR [eax+32]
  002f3	8b 4d f8	 mov	 ecx, DWORD PTR _this$[ebp]
  002f6	89 51 20	 mov	 DWORD PTR [ecx+32], edx
$L85667:

; 639  : 				}
; 640  : 
; 641  : 				m_ntvRS[nRS].pMesh->UnlockVertexBuffer() ;

  002f9	8b 45 e0	 mov	 eax, DWORD PTR _nRS$85643[ebp]
  002fc	69 c0 44 01 00
	00		 imul	 eax, 324		; 00000144H
  00302	8b 4d f8	 mov	 ecx, DWORD PTR _this$[ebp]
  00305	8b 94 01 94 00
	00 00		 mov	 edx, DWORD PTR [ecx+eax+148]
  0030c	8b 45 e0	 mov	 eax, DWORD PTR _nRS$85643[ebp]
  0030f	69 c0 44 01 00
	00		 imul	 eax, 324		; 00000144H
  00315	8b 4d f8	 mov	 ecx, DWORD PTR _this$[ebp]
  00318	8b 84 01 94 00
	00 00		 mov	 eax, DWORD PTR [ecx+eax+148]
  0031f	8b 0a		 mov	 ecx, DWORD PTR [edx]
  00321	8b f4		 mov	 esi, esp
  00323	50		 push	 eax
  00324	ff 51 3c	 call	 DWORD PTR [ecx+60]
  00327	3b f4		 cmp	 esi, esp
  00329	e8 00 00 00 00	 call	 __RTC_CheckEsp

; 642  : 
; 643  : 			//
; 644  : 			// Fill the mesh's IB:
; 645  : 			//
; 646  : 				BYTE *pIndices ;
; 647  : 				hr = m_ntvRS[nRS].pMesh->LockIndexBuffer(0, &pIndices) ;

  0032e	8b f4		 mov	 esi, esp
  00330	8d 45 c8	 lea	 eax, DWORD PTR _pIndices$85670[ebp]
  00333	50		 push	 eax
  00334	6a 00		 push	 0
  00336	8b 4d e0	 mov	 ecx, DWORD PTR _nRS$85643[ebp]
  00339	69 c9 44 01 00
	00		 imul	 ecx, 324		; 00000144H
  0033f	8b 55 f8	 mov	 edx, DWORD PTR _this$[ebp]
  00342	8b 84 0a 94 00
	00 00		 mov	 eax, DWORD PTR [edx+ecx+148]
  00349	8b 4d e0	 mov	 ecx, DWORD PTR _nRS$85643[ebp]
  0034c	69 c9 44 01 00
	00		 imul	 ecx, 324		; 00000144H
  00352	8b 55 f8	 mov	 edx, DWORD PTR _this$[ebp]
  00355	8b 8c 0a 94 00
	00 00		 mov	 ecx, DWORD PTR [edx+ecx+148]
  0035c	8b 10		 mov	 edx, DWORD PTR [eax]
  0035e	51		 push	 ecx
  0035f	ff 52 40	 call	 DWORD PTR [edx+64]
  00362	3b f4		 cmp	 esi, esp
  00364	e8 00 00 00 00	 call	 __RTC_CheckEsp
  00369	89 45 ec	 mov	 DWORD PTR _hr$[ebp], eax

; 648  : 				assert( !FAILED(hr) );

  0036c	83 7d ec 00	 cmp	 DWORD PTR _hr$[ebp], 0
  00370	7d 1b		 jge	 SHORT $L86084
  00372	a1 00 00 00 00	 mov	 eax, DWORD PTR ?__LINE__Var@?1??MakeRenderData@CProceduralRenderObject@@QAEJPAUIDirect3D8@@PAUIDirect3DDevice8@@@Z@4JA
  00377	83 c0 3a	 add	 eax, 58			; 0000003aH
  0037a	50		 push	 eax
  0037b	68 00 00 00 00	 push	 OFFSET FLAT:??_C@_0FJ@JJKKIHO@c?3?2documents?5and?5settings?2dom?2my@
  00380	68 00 00 00 00	 push	 OFFSET FLAT:??_C@_0M@NKNCPJJD@?$CBFAILED?$CIhr?$CJ?$AA@
  00385	e8 00 00 00 00	 call	 __assert
  0038a	83 c4 0c	 add	 esp, 12			; 0000000cH
$L86084:

; 649  : 
; 650  : 				memcpy(pIndices, m_ntvRS[nRS].pIndices, sizeof(WORD) * m_ntvRS[nRS].dwNumIndices) ;

  0038d	8b 45 e0	 mov	 eax, DWORD PTR _nRS$85643[ebp]
  00390	69 c0 44 01 00
	00		 imul	 eax, 324		; 00000144H
  00396	8b 4d f8	 mov	 ecx, DWORD PTR _this$[ebp]
  00399	8b 54 01 4c	 mov	 edx, DWORD PTR [ecx+eax+76]
  0039d	d1 e2		 shl	 edx, 1
  0039f	52		 push	 edx
  003a0	8b 45 e0	 mov	 eax, DWORD PTR _nRS$85643[ebp]
  003a3	69 c0 44 01 00
	00		 imul	 eax, 324		; 00000144H
  003a9	8b 4d f8	 mov	 ecx, DWORD PTR _this$[ebp]
  003ac	8b 54 01 44	 mov	 edx, DWORD PTR [ecx+eax+68]
  003b0	52		 push	 edx
  003b1	8b 45 c8	 mov	 eax, DWORD PTR _pIndices$85670[ebp]
  003b4	50		 push	 eax
  003b5	e8 00 00 00 00	 call	 _memcpy
  003ba	83 c4 0c	 add	 esp, 12			; 0000000cH

; 651  : 				m_dwMem_RenderData += sizeof(WORD) * m_ntvRS[nRS].dwNumIndices ;

  003bd	8b 45 e0	 mov	 eax, DWORD PTR _nRS$85643[ebp]
  003c0	69 c0 44 01 00
	00		 imul	 eax, 324		; 00000144H
  003c6	8b 4d f8	 mov	 ecx, DWORD PTR _this$[ebp]
  003c9	8b 54 01 4c	 mov	 edx, DWORD PTR [ecx+eax+76]
  003cd	8b 45 f8	 mov	 eax, DWORD PTR _this$[ebp]
  003d0	8b 48 20	 mov	 ecx, DWORD PTR [eax+32]
  003d3	8d 14 51	 lea	 edx, DWORD PTR [ecx+edx*2]
  003d6	8b 45 f8	 mov	 eax, DWORD PTR _this$[ebp]
  003d9	89 50 20	 mov	 DWORD PTR [eax+32], edx

; 652  : 
; 653  : 				m_ntvRS[nRS].pMesh->UnlockIndexBuffer() ;

  003dc	8b 45 e0	 mov	 eax, DWORD PTR _nRS$85643[ebp]
  003df	69 c0 44 01 00
	00		 imul	 eax, 324		; 00000144H
  003e5	8b 4d f8	 mov	 ecx, DWORD PTR _this$[ebp]
  003e8	8b 94 01 94 00
	00 00		 mov	 edx, DWORD PTR [ecx+eax+148]
  003ef	8b 45 e0	 mov	 eax, DWORD PTR _nRS$85643[ebp]
  003f2	69 c0 44 01 00
	00		 imul	 eax, 324		; 00000144H
  003f8	8b 4d f8	 mov	 ecx, DWORD PTR _this$[ebp]
  003fb	8b 84 01 94 00
	00 00		 mov	 eax, DWORD PTR [ecx+eax+148]
  00402	8b 0a		 mov	 ecx, DWORD PTR [edx]
  00404	8b f4		 mov	 esi, esp
  00406	50		 push	 eax
  00407	ff 51 44	 call	 DWORD PTR [ecx+68]
  0040a	3b f4		 cmp	 esi, esp
  0040c	e8 00 00 00 00	 call	 __RTC_CheckEsp

; 654  : 
; 655  : 			//
; 656  : 			// Compute vertex normals from face normals:
; 657  : 			//
; 658  : 			// this function seems to *reverse* the x values of the normals!
; 659  : 			//
; 660  : 				/*if (m_dwFVF == MYFVF_UNCOLOREDVERTEX || m_dwFVF == MYFVF_COLOREDVERTEXWITHNORMAL)
; 661  : 				{
; 662  : 					if (FAILED(D3DXComputeNormals(m_ntvRS[nRS].pMesh)))
; 663  : 					{
; 664  : 						Msg("CProceduralRenderObject::MakeRenderData: FAILED(D3DXComputeNormals) == TRUE") ;
; 665  : 						return E_FAIL ;
; 666  : 					}
; 667  : 				}*/
; 668  : 			}
; 669  : 			else

  00411	e9 06 05 00 00	 jmp	 $L85675
$L85647:
  00416	c6 85 cf fe ff
	ff 00		 mov	 BYTE PTR $T86090[ebp], 0

; 670  : 			{
; 671  : 			//
; 672  : 			// Create the VB:
; 673  : 			//
; 674  : 				UINT iFVFSize ;
; 675  : 
; 676  : 				if (m_dwFVF == MYFVF_UNCOLOREDVERTEX)

  0041d	8b 45 f8	 mov	 eax, DWORD PTR _this$[ebp]
  00420	81 38 12 01 00
	00		 cmp	 DWORD PTR [eax], 274	; 00000112H
  00426	75 0e		 jne	 SHORT $L85677

; 677  : 					iFVFSize = sizeof(UNCOLOREDVERTEX) ;

  00428	c6 85 cf fe ff
	ff 01		 mov	 BYTE PTR $T86090[ebp], 1
  0042f	c7 45 bc 20 00
	00 00		 mov	 DWORD PTR _iFVFSize$85676[ebp], 32 ; 00000020H
$L85677:

; 678  : 				if (m_dwFVF == MYFVF_COLOREDVERTEX)

  00436	8b 45 f8	 mov	 eax, DWORD PTR _this$[ebp]
  00439	81 38 c2 01 00
	00		 cmp	 DWORD PTR [eax], 450	; 000001c2H
  0043f	75 0e		 jne	 SHORT $L85679

; 679  : 					iFVFSize = sizeof(COLOREDVERTEX) ;

  00441	c6 85 cf fe ff
	ff 01		 mov	 BYTE PTR $T86090[ebp], 1
  00448	c7 45 bc 1c 00
	00 00		 mov	 DWORD PTR _iFVFSize$85676[ebp], 28 ; 0000001cH
$L85679:

; 680  : 				if (m_dwFVF == MYFVF_COLOREDVERTEX2TEX)

  0044f	8b 45 f8	 mov	 eax, DWORD PTR _this$[ebp]
  00452	81 38 c2 02 00
	00		 cmp	 DWORD PTR [eax], 706	; 000002c2H
  00458	75 0e		 jne	 SHORT $L85681

; 681  : 					iFVFSize = sizeof(COLOREDVERTEX2TEX) ;

  0045a	c6 85 cf fe ff
	ff 01		 mov	 BYTE PTR $T86090[ebp], 1
  00461	c7 45 bc 24 00
	00 00		 mov	 DWORD PTR _iFVFSize$85676[ebp], 36 ; 00000024H
$L85681:

; 682  : 				if (m_dwFVF == MYFVF_COLOREDVERTEXWITHNORMAL)

  00468	8b 45 f8	 mov	 eax, DWORD PTR _this$[ebp]
  0046b	81 38 d2 01 00
	00		 cmp	 DWORD PTR [eax], 466	; 000001d2H
  00471	75 0e		 jne	 SHORT $L85683

; 683  : 					iFVFSize = sizeof(COLOREDVERTEXWITHNORMAL) ;

  00473	c6 85 cf fe ff
	ff 01		 mov	 BYTE PTR $T86090[ebp], 1
  0047a	c7 45 bc 28 00
	00 00		 mov	 DWORD PTR _iFVFSize$85676[ebp], 40 ; 00000028H
$L85683:

; 684  : 				if (m_dwFVF == MYFVF_COLOREDVERTEXWITHNORMAL2TEX)

  00481	8b 45 f8	 mov	 eax, DWORD PTR _this$[ebp]
  00484	81 38 d2 02 00
	00		 cmp	 DWORD PTR [eax], 722	; 000002d2H
  0048a	75 0e		 jne	 SHORT $L85685

; 685  : 					iFVFSize = sizeof(COLOREDVERTEXWITHNORMAL2TEX) ;

  0048c	c6 85 cf fe ff
	ff 01		 mov	 BYTE PTR $T86090[ebp], 1
  00493	c7 45 bc 30 00
	00 00		 mov	 DWORD PTR _iFVFSize$85676[ebp], 48 ; 00000030H
$L85685:

; 686  : 
; 687  : 				hr = pDev->CreateVertexBuffer(m_ntvRS[nRS].dwNumVertices * iFVFSize,
; 688  : 											  m_dwUsageOptions,
; 689  : 											  m_dwFVF,
; 690  : 											  D3DPOOL_MANAGED,
; 691  : 											  &m_ntvRS[nRS].pVB) ;

  0049a	80 bd cf fe ff
	ff 00		 cmp	 BYTE PTR $T86090[ebp], 0
  004a1	75 0d		 jne	 SHORT $L86091
  004a3	68 00 00 00 00	 push	 OFFSET FLAT:$L86092
  004a8	e8 00 00 00 00	 call	 __RTC_UninitUse
  004ad	83 c4 04	 add	 esp, 4
$L86091:
  004b0	8b 45 e0	 mov	 eax, DWORD PTR _nRS$85643[ebp]
  004b3	69 c0 44 01 00
	00		 imul	 eax, 324		; 00000144H
  004b9	8b 4d f8	 mov	 ecx, DWORD PTR _this$[ebp]
  004bc	8d 94 01 98 00
	00 00		 lea	 edx, DWORD PTR [ecx+eax+152]
  004c3	8b f4		 mov	 esi, esp
  004c5	52		 push	 edx
  004c6	6a 01		 push	 1
  004c8	8b 45 f8	 mov	 eax, DWORD PTR _this$[ebp]
  004cb	8b 08		 mov	 ecx, DWORD PTR [eax]
  004cd	51		 push	 ecx
  004ce	8b 55 f8	 mov	 edx, DWORD PTR _this$[ebp]
  004d1	8b 82 50 0a 00
	00		 mov	 eax, DWORD PTR [edx+2640]
  004d7	50		 push	 eax
  004d8	8b 4d e0	 mov	 ecx, DWORD PTR _nRS$85643[ebp]
  004db	69 c9 44 01 00
	00		 imul	 ecx, 324		; 00000144H
  004e1	8b 55 f8	 mov	 edx, DWORD PTR _this$[ebp]
  004e4	8b 44 0a 48	 mov	 eax, DWORD PTR [edx+ecx+72]
  004e8	0f af 45 bc	 imul	 eax, DWORD PTR _iFVFSize$85676[ebp]
  004ec	50		 push	 eax
  004ed	8b 4d 0c	 mov	 ecx, DWORD PTR _pDev$[ebp]
  004f0	8b 11		 mov	 edx, DWORD PTR [ecx]
  004f2	8b 45 0c	 mov	 eax, DWORD PTR _pDev$[ebp]
  004f5	50		 push	 eax
  004f6	ff 52 5c	 call	 DWORD PTR [edx+92]
  004f9	3b f4		 cmp	 esi, esp
  004fb	e8 00 00 00 00	 call	 __RTC_CheckEsp
  00500	89 45 ec	 mov	 DWORD PTR _hr$[ebp], eax

; 692  : 				assert( !FAILED(hr) );

  00503	83 7d ec 00	 cmp	 DWORD PTR _hr$[ebp], 0
  00507	7d 1b		 jge	 SHORT $L86085
  00509	a1 00 00 00 00	 mov	 eax, DWORD PTR ?__LINE__Var@?1??MakeRenderData@CProceduralRenderObject@@QAEJPAUIDirect3D8@@PAUIDirect3DDevice8@@@Z@4JA
  0050e	83 c0 66	 add	 eax, 102		; 00000066H
  00511	50		 push	 eax
  00512	68 00 00 00 00	 push	 OFFSET FLAT:??_C@_0FJ@JJKKIHO@c?3?2documents?5and?5settings?2dom?2my@
  00517	68 00 00 00 00	 push	 OFFSET FLAT:??_C@_0M@NKNCPJJD@?$CBFAILED?$CIhr?$CJ?$AA@
  0051c	e8 00 00 00 00	 call	 __assert
  00521	83 c4 0c	 add	 esp, 12			; 0000000cH
$L86085:

; 693  : 
; 694  : 			//
; 695  : 			// Fill the VB:
; 696  : 			//
; 697  : 				BYTE *pVerts ;
; 698  : 				hr = m_ntvRS[nRS].pVB->Lock(0, 0, &pVerts, 0/*D3DLOCK_DISCARD*/) ;

  00524	8b f4		 mov	 esi, esp
  00526	6a 00		 push	 0
  00528	8d 45 b0	 lea	 eax, DWORD PTR _pVerts$85689[ebp]
  0052b	50		 push	 eax
  0052c	6a 00		 push	 0
  0052e	6a 00		 push	 0
  00530	8b 4d e0	 mov	 ecx, DWORD PTR _nRS$85643[ebp]
  00533	69 c9 44 01 00
	00		 imul	 ecx, 324		; 00000144H
  00539	8b 55 f8	 mov	 edx, DWORD PTR _this$[ebp]
  0053c	8b 84 0a 98 00
	00 00		 mov	 eax, DWORD PTR [edx+ecx+152]
  00543	8b 4d e0	 mov	 ecx, DWORD PTR _nRS$85643[ebp]
  00546	69 c9 44 01 00
	00		 imul	 ecx, 324		; 00000144H
  0054c	8b 55 f8	 mov	 edx, DWORD PTR _this$[ebp]
  0054f	8b 8c 0a 98 00
	00 00		 mov	 ecx, DWORD PTR [edx+ecx+152]
  00556	8b 10		 mov	 edx, DWORD PTR [eax]
  00558	51		 push	 ecx
  00559	ff 52 2c	 call	 DWORD PTR [edx+44]
  0055c	3b f4		 cmp	 esi, esp
  0055e	e8 00 00 00 00	 call	 __RTC_CheckEsp
  00563	89 45 ec	 mov	 DWORD PTR _hr$[ebp], eax

; 699  : 				assert( !FAILED(hr) );

  00566	83 7d ec 00	 cmp	 DWORD PTR _hr$[ebp], 0
  0056a	7d 1b		 jge	 SHORT $L86086
  0056c	a1 00 00 00 00	 mov	 eax, DWORD PTR ?__LINE__Var@?1??MakeRenderData@CProceduralRenderObject@@QAEJPAUIDirect3D8@@PAUIDirect3DDevice8@@@Z@4JA
  00571	83 c0 6d	 add	 eax, 109		; 0000006dH
  00574	50		 push	 eax
  00575	68 00 00 00 00	 push	 OFFSET FLAT:??_C@_0FJ@JJKKIHO@c?3?2documents?5and?5settings?2dom?2my@
  0057a	68 00 00 00 00	 push	 OFFSET FLAT:??_C@_0M@NKNCPJJD@?$CBFAILED?$CIhr?$CJ?$AA@
  0057f	e8 00 00 00 00	 call	 __assert
  00584	83 c4 0c	 add	 esp, 12			; 0000000cH
$L86086:

; 700  : 
; 701  : 				if (m_dwFVF == MYFVF_UNCOLOREDVERTEX)

  00587	8b 45 f8	 mov	 eax, DWORD PTR _this$[ebp]
  0058a	81 38 12 01 00
	00		 cmp	 DWORD PTR [eax], 274	; 00000112H
  00590	75 50		 jne	 SHORT $L85692

; 702  : 				{
; 703  : 					memcpy(pVerts, m_ntvRS[nRS].pUnlitVertices, sizeof(UNCOLOREDVERTEX) * m_ntvRS[nRS].dwNumVertices) ;

  00592	8b 45 e0	 mov	 eax, DWORD PTR _nRS$85643[ebp]
  00595	69 c0 44 01 00
	00		 imul	 eax, 324		; 00000144H
  0059b	8b 4d f8	 mov	 ecx, DWORD PTR _this$[ebp]
  0059e	8b 54 01 48	 mov	 edx, DWORD PTR [ecx+eax+72]
  005a2	c1 e2 05	 shl	 edx, 5
  005a5	52		 push	 edx
  005a6	8b 45 e0	 mov	 eax, DWORD PTR _nRS$85643[ebp]
  005a9	69 c0 44 01 00
	00		 imul	 eax, 324		; 00000144H
  005af	8b 4d f8	 mov	 ecx, DWORD PTR _this$[ebp]
  005b2	8b 54 01 30	 mov	 edx, DWORD PTR [ecx+eax+48]
  005b6	52		 push	 edx
  005b7	8b 45 b0	 mov	 eax, DWORD PTR _pVerts$85689[ebp]
  005ba	50		 push	 eax
  005bb	e8 00 00 00 00	 call	 _memcpy
  005c0	83 c4 0c	 add	 esp, 12			; 0000000cH

; 704  : 					m_dwMem_RenderData += sizeof(UNCOLOREDVERTEX) * m_ntvRS[nRS].dwNumVertices ;

  005c3	8b 45 e0	 mov	 eax, DWORD PTR _nRS$85643[ebp]
  005c6	69 c0 44 01 00
	00		 imul	 eax, 324		; 00000144H
  005cc	8b 4d f8	 mov	 ecx, DWORD PTR _this$[ebp]
  005cf	8b 54 01 48	 mov	 edx, DWORD PTR [ecx+eax+72]
  005d3	c1 e2 05	 shl	 edx, 5
  005d6	8b 45 f8	 mov	 eax, DWORD PTR _this$[ebp]
  005d9	03 50 20	 add	 edx, DWORD PTR [eax+32]
  005dc	8b 4d f8	 mov	 ecx, DWORD PTR _this$[ebp]
  005df	89 51 20	 mov	 DWORD PTR [ecx+32], edx
$L85692:

; 705  : 				}
; 706  : 				if (m_dwFVF == MYFVF_COLOREDVERTEX)

  005e2	8b 45 f8	 mov	 eax, DWORD PTR _this$[ebp]
  005e5	81 38 c2 01 00
	00		 cmp	 DWORD PTR [eax], 450	; 000001c2H
  005eb	75 50		 jne	 SHORT $L85695

; 707  : 				{
; 708  : 					memcpy(pVerts, m_ntvRS[nRS].pLitVertices, sizeof(COLOREDVERTEX) * m_ntvRS[nRS].dwNumVertices) ;

  005ed	8b 45 e0	 mov	 eax, DWORD PTR _nRS$85643[ebp]
  005f0	69 c0 44 01 00
	00		 imul	 eax, 324		; 00000144H
  005f6	8b 4d f8	 mov	 ecx, DWORD PTR _this$[ebp]
  005f9	8b 54 01 48	 mov	 edx, DWORD PTR [ecx+eax+72]
  005fd	6b d2 1c	 imul	 edx, 28			; 0000001cH
  00600	52		 push	 edx
  00601	8b 45 e0	 mov	 eax, DWORD PTR _nRS$85643[ebp]
  00604	69 c0 44 01 00
	00		 imul	 eax, 324		; 00000144H
  0060a	8b 4d f8	 mov	 ecx, DWORD PTR _this$[ebp]
  0060d	8b 54 01 34	 mov	 edx, DWORD PTR [ecx+eax+52]
  00611	52		 push	 edx
  00612	8b 45 b0	 mov	 eax, DWORD PTR _pVerts$85689[ebp]
  00615	50		 push	 eax
  00616	e8 00 00 00 00	 call	 _memcpy
  0061b	83 c4 0c	 add	 esp, 12			; 0000000cH

; 709  : 					m_dwMem_RenderData += sizeof(COLOREDVERTEX) * m_ntvRS[nRS].dwNumVertices ;

  0061e	8b 45 e0	 mov	 eax, DWORD PTR _nRS$85643[ebp]
  00621	69 c0 44 01 00
	00		 imul	 eax, 324		; 00000144H
  00627	8b 4d f8	 mov	 ecx, DWORD PTR _this$[ebp]
  0062a	8b 54 01 48	 mov	 edx, DWORD PTR [ecx+eax+72]
  0062e	6b d2 1c	 imul	 edx, 28			; 0000001cH
  00631	8b 45 f8	 mov	 eax, DWORD PTR _this$[ebp]
  00634	03 50 20	 add	 edx, DWORD PTR [eax+32]
  00637	8b 4d f8	 mov	 ecx, DWORD PTR _this$[ebp]
  0063a	89 51 20	 mov	 DWORD PTR [ecx+32], edx
$L85695:

; 710  : 				}
; 711  : 				if (m_dwFVF == MYFVF_COLOREDVERTEX2TEX)

  0063d	8b 45 f8	 mov	 eax, DWORD PTR _this$[ebp]
  00640	81 38 c2 02 00
	00		 cmp	 DWORD PTR [eax], 706	; 000002c2H
  00646	75 50		 jne	 SHORT $L85698

; 712  : 				{
; 713  : 					memcpy(pVerts, m_ntvRS[nRS].pLitVertices2Tex, sizeof(COLOREDVERTEX2TEX) * m_ntvRS[nRS].dwNumVertices) ;

  00648	8b 45 e0	 mov	 eax, DWORD PTR _nRS$85643[ebp]
  0064b	69 c0 44 01 00
	00		 imul	 eax, 324		; 00000144H
  00651	8b 4d f8	 mov	 ecx, DWORD PTR _this$[ebp]
  00654	8b 54 01 48	 mov	 edx, DWORD PTR [ecx+eax+72]
  00658	6b d2 24	 imul	 edx, 36			; 00000024H
  0065b	52		 push	 edx
  0065c	8b 45 e0	 mov	 eax, DWORD PTR _nRS$85643[ebp]
  0065f	69 c0 44 01 00
	00		 imul	 eax, 324		; 00000144H
  00665	8b 4d f8	 mov	 ecx, DWORD PTR _this$[ebp]
  00668	8b 54 01 38	 mov	 edx, DWORD PTR [ecx+eax+56]
  0066c	52		 push	 edx
  0066d	8b 45 b0	 mov	 eax, DWORD PTR _pVerts$85689[ebp]
  00670	50		 push	 eax
  00671	e8 00 00 00 00	 call	 _memcpy
  00676	83 c4 0c	 add	 esp, 12			; 0000000cH

; 714  : 					m_dwMem_RenderData += sizeof(COLOREDVERTEX2TEX) * m_ntvRS[nRS].dwNumVertices ;

  00679	8b 45 e0	 mov	 eax, DWORD PTR _nRS$85643[ebp]
  0067c	69 c0 44 01 00
	00		 imul	 eax, 324		; 00000144H
  00682	8b 4d f8	 mov	 ecx, DWORD PTR _this$[ebp]
  00685	8b 54 01 48	 mov	 edx, DWORD PTR [ecx+eax+72]
  00689	6b d2 24	 imul	 edx, 36			; 00000024H
  0068c	8b 45 f8	 mov	 eax, DWORD PTR _this$[ebp]
  0068f	03 50 20	 add	 edx, DWORD PTR [eax+32]
  00692	8b 4d f8	 mov	 ecx, DWORD PTR _this$[ebp]
  00695	89 51 20	 mov	 DWORD PTR [ecx+32], edx
$L85698:

; 715  : 				}
; 716  : 				if (m_dwFVF == MYFVF_COLOREDVERTEXWITHNORMAL)

  00698	8b 45 f8	 mov	 eax, DWORD PTR _this$[ebp]
  0069b	81 38 d2 01 00
	00		 cmp	 DWORD PTR [eax], 466	; 000001d2H
  006a1	75 50		 jne	 SHORT $L85701

; 717  : 				{
; 718  : 					memcpy(pVerts, m_ntvRS[nRS].pLitVerticesWithNormals, sizeof(COLOREDVERTEXWITHNORMAL) * m_ntvRS[nRS].dwNumVertices) ;

  006a3	8b 45 e0	 mov	 eax, DWORD PTR _nRS$85643[ebp]
  006a6	69 c0 44 01 00
	00		 imul	 eax, 324		; 00000144H
  006ac	8b 4d f8	 mov	 ecx, DWORD PTR _this$[ebp]
  006af	8b 54 01 48	 mov	 edx, DWORD PTR [ecx+eax+72]
  006b3	6b d2 28	 imul	 edx, 40			; 00000028H
  006b6	52		 push	 edx
  006b7	8b 45 e0	 mov	 eax, DWORD PTR _nRS$85643[ebp]
  006ba	69 c0 44 01 00
	00		 imul	 eax, 324		; 00000144H
  006c0	8b 4d f8	 mov	 ecx, DWORD PTR _this$[ebp]
  006c3	8b 54 01 3c	 mov	 edx, DWORD PTR [ecx+eax+60]
  006c7	52		 push	 edx
  006c8	8b 45 b0	 mov	 eax, DWORD PTR _pVerts$85689[ebp]
  006cb	50		 push	 eax
  006cc	e8 00 00 00 00	 call	 _memcpy
  006d1	83 c4 0c	 add	 esp, 12			; 0000000cH

; 719  : 					m_dwMem_RenderData += sizeof(COLOREDVERTEXWITHNORMAL) * m_ntvRS[nRS].dwNumVertices ;

  006d4	8b 45 e0	 mov	 eax, DWORD PTR _nRS$85643[ebp]
  006d7	69 c0 44 01 00
	00		 imul	 eax, 324		; 00000144H
  006dd	8b 4d f8	 mov	 ecx, DWORD PTR _this$[ebp]
  006e0	8b 54 01 48	 mov	 edx, DWORD PTR [ecx+eax+72]
  006e4	6b d2 28	 imul	 edx, 40			; 00000028H
  006e7	8b 45 f8	 mov	 eax, DWORD PTR _this$[ebp]
  006ea	03 50 20	 add	 edx, DWORD PTR [eax+32]
  006ed	8b 4d f8	 mov	 ecx, DWORD PTR _this$[ebp]
  006f0	89 51 20	 mov	 DWORD PTR [ecx+32], edx
$L85701:

; 720  : 				}
; 721  : 				if (m_dwFVF == MYFVF_COLOREDVERTEXWITHNORMAL2TEX)

  006f3	8b 45 f8	 mov	 eax, DWORD PTR _this$[ebp]
  006f6	81 38 d2 02 00
	00		 cmp	 DWORD PTR [eax], 722	; 000002d2H
  006fc	75 50		 jne	 SHORT $L85704

; 722  : 				{
; 723  : 					memcpy(pVerts, m_ntvRS[nRS].pLitVerticesWithNormals2Tex, sizeof(COLOREDVERTEXWITHNORMAL2TEX) * m_ntvRS[nRS].dwNumVertices) ;

  006fe	8b 45 e0	 mov	 eax, DWORD PTR _nRS$85643[ebp]
  00701	69 c0 44 01 00
	00		 imul	 eax, 324		; 00000144H
  00707	8b 4d f8	 mov	 ecx, DWORD PTR _this$[ebp]
  0070a	8b 54 01 48	 mov	 edx, DWORD PTR [ecx+eax+72]
  0070e	6b d2 30	 imul	 edx, 48			; 00000030H
  00711	52		 push	 edx
  00712	8b 45 e0	 mov	 eax, DWORD PTR _nRS$85643[ebp]
  00715	69 c0 44 01 00
	00		 imul	 eax, 324		; 00000144H
  0071b	8b 4d f8	 mov	 ecx, DWORD PTR _this$[ebp]
  0071e	8b 54 01 40	 mov	 edx, DWORD PTR [ecx+eax+64]
  00722	52		 push	 edx
  00723	8b 45 b0	 mov	 eax, DWORD PTR _pVerts$85689[ebp]
  00726	50		 push	 eax
  00727	e8 00 00 00 00	 call	 _memcpy
  0072c	83 c4 0c	 add	 esp, 12			; 0000000cH

; 724  : 					m_dwMem_RenderData += sizeof(COLOREDVERTEXWITHNORMAL2TEX) * m_ntvRS[nRS].dwNumVertices ;

  0072f	8b 45 e0	 mov	 eax, DWORD PTR _nRS$85643[ebp]
  00732	69 c0 44 01 00
	00		 imul	 eax, 324		; 00000144H
  00738	8b 4d f8	 mov	 ecx, DWORD PTR _this$[ebp]
  0073b	8b 54 01 48	 mov	 edx, DWORD PTR [ecx+eax+72]
  0073f	6b d2 30	 imul	 edx, 48			; 00000030H
  00742	8b 45 f8	 mov	 eax, DWORD PTR _this$[ebp]
  00745	03 50 20	 add	 edx, DWORD PTR [eax+32]
  00748	8b 4d f8	 mov	 ecx, DWORD PTR _this$[ebp]
  0074b	89 51 20	 mov	 DWORD PTR [ecx+32], edx
$L85704:

; 725  : 				}
; 726  : 
; 727  : 				hr = m_ntvRS[nRS].pVB->Unlock() ;					

  0074e	8b 45 e0	 mov	 eax, DWORD PTR _nRS$85643[ebp]
  00751	69 c0 44 01 00
	00		 imul	 eax, 324		; 00000144H
  00757	8b 4d f8	 mov	 ecx, DWORD PTR _this$[ebp]
  0075a	8b 94 01 98 00
	00 00		 mov	 edx, DWORD PTR [ecx+eax+152]
  00761	8b 45 e0	 mov	 eax, DWORD PTR _nRS$85643[ebp]
  00764	69 c0 44 01 00
	00		 imul	 eax, 324		; 00000144H
  0076a	8b 4d f8	 mov	 ecx, DWORD PTR _this$[ebp]
  0076d	8b 84 01 98 00
	00 00		 mov	 eax, DWORD PTR [ecx+eax+152]
  00774	8b 0a		 mov	 ecx, DWORD PTR [edx]
  00776	8b f4		 mov	 esi, esp
  00778	50		 push	 eax
  00779	ff 51 30	 call	 DWORD PTR [ecx+48]
  0077c	3b f4		 cmp	 esi, esp
  0077e	e8 00 00 00 00	 call	 __RTC_CheckEsp
  00783	89 45 ec	 mov	 DWORD PTR _hr$[ebp], eax

; 728  : 				assert( !FAILED(hr) );

  00786	83 7d ec 00	 cmp	 DWORD PTR _hr$[ebp], 0
  0078a	7d 1d		 jge	 SHORT $L86087
  0078c	a1 00 00 00 00	 mov	 eax, DWORD PTR ?__LINE__Var@?1??MakeRenderData@CProceduralRenderObject@@QAEJPAUIDirect3D8@@PAUIDirect3DDevice8@@@Z@4JA
  00791	05 8a 00 00 00	 add	 eax, 138		; 0000008aH
  00796	50		 push	 eax
  00797	68 00 00 00 00	 push	 OFFSET FLAT:??_C@_0FJ@JJKKIHO@c?3?2documents?5and?5settings?2dom?2my@
  0079c	68 00 00 00 00	 push	 OFFSET FLAT:??_C@_0M@NKNCPJJD@?$CBFAILED?$CIhr?$CJ?$AA@
  007a1	e8 00 00 00 00	 call	 __assert
  007a6	83 c4 0c	 add	 esp, 12			; 0000000cH
$L86087:

; 729  : 
; 730  : 			//
; 731  : 			// 16-bit Index Buffer:
; 732  : 			//
; 733  : 				// create;
; 734  : 					hr = pDev->CreateIndexBuffer( sizeof(WORD) * m_ntvRS[nRS].dwNumIndices,
; 735  : 												m_dwUsageOptions,
; 736  : 												D3DFMT_INDEX16,
; 737  : 												D3DPOOL_MANAGED,
; 738  : 												&m_ntvRS[nRS].pIB );

  007a9	8b 45 e0	 mov	 eax, DWORD PTR _nRS$85643[ebp]
  007ac	69 c0 44 01 00
	00		 imul	 eax, 324		; 00000144H
  007b2	8b 4d f8	 mov	 ecx, DWORD PTR _this$[ebp]
  007b5	8d 94 01 9c 00
	00 00		 lea	 edx, DWORD PTR [ecx+eax+156]
  007bc	8b f4		 mov	 esi, esp
  007be	52		 push	 edx
  007bf	6a 01		 push	 1
  007c1	6a 65		 push	 101			; 00000065H
  007c3	8b 45 f8	 mov	 eax, DWORD PTR _this$[ebp]
  007c6	8b 88 50 0a 00
	00		 mov	 ecx, DWORD PTR [eax+2640]
  007cc	51		 push	 ecx
  007cd	8b 55 e0	 mov	 edx, DWORD PTR _nRS$85643[ebp]
  007d0	69 d2 44 01 00
	00		 imul	 edx, 324		; 00000144H
  007d6	8b 45 f8	 mov	 eax, DWORD PTR _this$[ebp]
  007d9	8b 4c 10 4c	 mov	 ecx, DWORD PTR [eax+edx+76]
  007dd	d1 e1		 shl	 ecx, 1
  007df	51		 push	 ecx
  007e0	8b 55 0c	 mov	 edx, DWORD PTR _pDev$[ebp]
  007e3	8b 02		 mov	 eax, DWORD PTR [edx]
  007e5	8b 4d 0c	 mov	 ecx, DWORD PTR _pDev$[ebp]
  007e8	51		 push	 ecx
  007e9	ff 50 60	 call	 DWORD PTR [eax+96]
  007ec	3b f4		 cmp	 esi, esp
  007ee	e8 00 00 00 00	 call	 __RTC_CheckEsp
  007f3	89 45 ec	 mov	 DWORD PTR _hr$[ebp], eax

; 739  : 					assert( !FAILED(hr) );

  007f6	83 7d ec 00	 cmp	 DWORD PTR _hr$[ebp], 0
  007fa	7d 1d		 jge	 SHORT $L86088
  007fc	a1 00 00 00 00	 mov	 eax, DWORD PTR ?__LINE__Var@?1??MakeRenderData@CProceduralRenderObject@@QAEJPAUIDirect3D8@@PAUIDirect3DDevice8@@@Z@4JA
  00801	05 95 00 00 00	 add	 eax, 149		; 00000095H
  00806	50		 push	 eax
  00807	68 00 00 00 00	 push	 OFFSET FLAT:??_C@_0FJ@JJKKIHO@c?3?2documents?5and?5settings?2dom?2my@
  0080c	68 00 00 00 00	 push	 OFFSET FLAT:??_C@_0M@NKNCPJJD@?$CBFAILED?$CIhr?$CJ?$AA@
  00811	e8 00 00 00 00	 call	 __assert
  00816	83 c4 0c	 add	 esp, 12			; 0000000cH
$L86088:

; 740  : 				// fill ;
; 741  : 					WORD* pIndices ;
; 742  : 					hr = m_ntvRS[nRS].pIB->Lock(0, 0, (BYTE**)&pIndices, 0 );//D3DLOCK_DISCARD

  00819	8b f4		 mov	 esi, esp
  0081b	6a 00		 push	 0
  0081d	8d 45 a4	 lea	 eax, DWORD PTR _pIndices$85712[ebp]
  00820	50		 push	 eax
  00821	6a 00		 push	 0
  00823	6a 00		 push	 0
  00825	8b 4d e0	 mov	 ecx, DWORD PTR _nRS$85643[ebp]
  00828	69 c9 44 01 00
	00		 imul	 ecx, 324		; 00000144H
  0082e	8b 55 f8	 mov	 edx, DWORD PTR _this$[ebp]
  00831	8b 84 0a 9c 00
	00 00		 mov	 eax, DWORD PTR [edx+ecx+156]
  00838	8b 4d e0	 mov	 ecx, DWORD PTR _nRS$85643[ebp]
  0083b	69 c9 44 01 00
	00		 imul	 ecx, 324		; 00000144H
  00841	8b 55 f8	 mov	 edx, DWORD PTR _this$[ebp]
  00844	8b 8c 0a 9c 00
	00 00		 mov	 ecx, DWORD PTR [edx+ecx+156]
  0084b	8b 10		 mov	 edx, DWORD PTR [eax]
  0084d	51		 push	 ecx
  0084e	ff 52 2c	 call	 DWORD PTR [edx+44]
  00851	3b f4		 cmp	 esi, esp
  00853	e8 00 00 00 00	 call	 __RTC_CheckEsp
  00858	89 45 ec	 mov	 DWORD PTR _hr$[ebp], eax

; 743  : 					assert( !FAILED(hr) );

  0085b	83 7d ec 00	 cmp	 DWORD PTR _hr$[ebp], 0
  0085f	7d 1d		 jge	 SHORT $L86089
  00861	a1 00 00 00 00	 mov	 eax, DWORD PTR ?__LINE__Var@?1??MakeRenderData@CProceduralRenderObject@@QAEJPAUIDirect3D8@@PAUIDirect3DDevice8@@@Z@4JA
  00866	05 99 00 00 00	 add	 eax, 153		; 00000099H
  0086b	50		 push	 eax
  0086c	68 00 00 00 00	 push	 OFFSET FLAT:??_C@_0FJ@JJKKIHO@c?3?2documents?5and?5settings?2dom?2my@
  00871	68 00 00 00 00	 push	 OFFSET FLAT:??_C@_0M@NKNCPJJD@?$CBFAILED?$CIhr?$CJ?$AA@
  00876	e8 00 00 00 00	 call	 __assert
  0087b	83 c4 0c	 add	 esp, 12			; 0000000cH
$L86089:

; 744  : 					//memcpy(pIndices, m_ntvRS[nRS].pIndices, sizeof(WORD) * m_ntvRS[nRS].dwNumIndices) ;
; 745  : 					for( DWORD ndx=0 ; ndx < m_ntvRS[ nRS ].dwNumIndices ; ndx++ )

  0087e	c7 45 98 00 00
	00 00		 mov	 DWORD PTR _ndx$85716[ebp], 0
  00885	eb 09		 jmp	 SHORT $L85717
$L85718:
  00887	8b 45 98	 mov	 eax, DWORD PTR _ndx$85716[ebp]
  0088a	83 c0 01	 add	 eax, 1
  0088d	89 45 98	 mov	 DWORD PTR _ndx$85716[ebp], eax
$L85717:
  00890	8b 45 e0	 mov	 eax, DWORD PTR _nRS$85643[ebp]
  00893	69 c0 44 01 00
	00		 imul	 eax, 324		; 00000144H
  00899	8b 4d f8	 mov	 ecx, DWORD PTR _this$[ebp]
  0089c	8b 55 98	 mov	 edx, DWORD PTR _ndx$85716[ebp]
  0089f	3b 54 01 4c	 cmp	 edx, DWORD PTR [ecx+eax+76]
  008a3	73 23		 jae	 SHORT $L85719

; 746  : 						pIndices[ ndx ] = m_ntvRS[nRS].pIndices[ ndx ];

  008a5	8b 45 e0	 mov	 eax, DWORD PTR _nRS$85643[ebp]
  008a8	69 c0 44 01 00
	00		 imul	 eax, 324		; 00000144H
  008ae	8b 4d f8	 mov	 ecx, DWORD PTR _this$[ebp]
  008b1	8b 54 01 44	 mov	 edx, DWORD PTR [ecx+eax+68]
  008b5	8b 45 98	 mov	 eax, DWORD PTR _ndx$85716[ebp]
  008b8	8b 4d a4	 mov	 ecx, DWORD PTR _pIndices$85712[ebp]
  008bb	8b 75 98	 mov	 esi, DWORD PTR _ndx$85716[ebp]
  008be	66 8b 14 72	 mov	 dx, WORD PTR [edx+esi*2]
  008c2	66 89 14 41	 mov	 WORD PTR [ecx+eax*2], dx
  008c6	eb bf		 jmp	 SHORT $L85718
$L85719:

; 747  : 					m_dwMem_RenderData += sizeof(WORD) * m_ntvRS[nRS].dwNumIndices ;

  008c8	8b 45 e0	 mov	 eax, DWORD PTR _nRS$85643[ebp]
  008cb	69 c0 44 01 00
	00		 imul	 eax, 324		; 00000144H
  008d1	8b 4d f8	 mov	 ecx, DWORD PTR _this$[ebp]
  008d4	8b 54 01 4c	 mov	 edx, DWORD PTR [ecx+eax+76]
  008d8	8b 45 f8	 mov	 eax, DWORD PTR _this$[ebp]
  008db	8b 48 20	 mov	 ecx, DWORD PTR [eax+32]
  008de	8d 14 51	 lea	 edx, DWORD PTR [ecx+edx*2]
  008e1	8b 45 f8	 mov	 eax, DWORD PTR _this$[ebp]
  008e4	89 50 20	 mov	 DWORD PTR [eax+32], edx

; 748  : 					m_ntvRS[nRS].pIB->Unlock() ;

  008e7	8b 45 e0	 mov	 eax, DWORD PTR _nRS$85643[ebp]
  008ea	69 c0 44 01 00
	00		 imul	 eax, 324		; 00000144H
  008f0	8b 4d f8	 mov	 ecx, DWORD PTR _this$[ebp]
  008f3	8b 94 01 9c 00
	00 00		 mov	 edx, DWORD PTR [ecx+eax+156]
  008fa	8b 45 e0	 mov	 eax, DWORD PTR _nRS$85643[ebp]
  008fd	69 c0 44 01 00
	00		 imul	 eax, 324		; 00000144H
  00903	8b 4d f8	 mov	 ecx, DWORD PTR _this$[ebp]
  00906	8b 84 01 9c 00
	00 00		 mov	 eax, DWORD PTR [ecx+eax+156]
  0090d	8b 0a		 mov	 ecx, DWORD PTR [edx]
  0090f	8b f4		 mov	 esi, esp
  00911	50		 push	 eax
  00912	ff 51 30	 call	 DWORD PTR [ecx+48]
  00915	3b f4		 cmp	 esi, esp
  00917	e8 00 00 00 00	 call	 __RTC_CheckEsp
$L85675:

; 749  : 
; 750  : 			//
; 751  : 			// 32-bit Index Buffer:
; 752  : 			//
; 753  : 				// create;
; 754  : 					/*hr = pDev->CreateIndexBuffer( sizeof(DWORD) * m_ntvRS[nRS].dwNumIndices,
; 755  : 												  m_dwUsageOptions,
; 756  : 												  D3DFMT_INDEX32,
; 757  : 												  D3DPOOL_MANAGED,
; 758  : 												  &m_ntvRS[nRS].pIB );
; 759  : 					assert( !FAILED(hr) );
; 760  : 				// fill ;
; 761  : 					DWORD* pIndices ;
; 762  : 					hr = m_ntvRS[nRS].pIB->Lock(0, 0, (BYTE**)&pIndices, 0 ); //D3DLOCK_DISCARD
; 763  : 					assert( !FAILED(hr) );
; 764  : 					//memcpy(pIndices, m_ntvRS[nRS].pIndices, sizeof(WORD) * m_ntvRS[nRS].dwNumIndices) ;
; 765  : 					for( DWORD ndx=0 ; ndx < m_ntvRS[ nRS ].dwNumIndices ; ndx++ )
; 766  : 						pIndices[ ndx ] = (DWORD)m_ntvRS[nRS].pIndices[ ndx ];
; 767  : 					m_dwMem_RenderData += sizeof(DWORD) * m_ntvRS[nRS].dwNumIndices ;
; 768  : 					hr = m_ntvRS[nRS].pIB->Unlock() ;
; 769  : 					assert( !FAILED(hr) );*/
; 770  : 
; 771  : 			}
; 772  : 		}

  0091c	e9 0b f7 ff ff	 jmp	 $L85645
$L85646:

; 773  : 
; 774  : 		return S_OK ;

  00921	33 c0		 xor	 eax, eax

; 775  : 	}

  00923	52		 push	 edx
  00924	8b cd		 mov	 ecx, ebp
  00926	50		 push	 eax
  00927	8d 15 00 00 00
	00		 lea	 edx, DWORD PTR $L86099
  0092d	e8 00 00 00 00	 call	 @_RTC_CheckStackVars@8
  00932	58		 pop	 eax
  00933	5a		 pop	 edx
  00934	5f		 pop	 edi
  00935	5e		 pop	 esi
  00936	5b		 pop	 ebx
  00937	81 c4 38 01 00
	00		 add	 esp, 312		; 00000138H
  0093d	3b ec		 cmp	 ebp, esp
  0093f	e8 00 00 00 00	 call	 __RTC_CheckEsp
  00944	8b e5		 mov	 esp, ebp
  00946	5d		 pop	 ebp
  00947	c2 08 00	 ret	 8
$L86099:
  0094a	04 00 00 00	 DD	 4
  0094e	00 00 00 00	 DD	 $L86098
$L86098:
  00952	d4 ff ff ff	 DD	 -44			; ffffffd4H
  00956	04 00 00 00	 DD	 4
  0095a	00 00 00 00	 DD	 $L86094
  0095e	c8 ff ff ff	 DD	 -56			; ffffffc8H
  00962	04 00 00 00	 DD	 4
  00966	00 00 00 00	 DD	 $L86095
  0096a	b0 ff ff ff	 DD	 -80			; ffffffb0H
  0096e	04 00 00 00	 DD	 4
  00972	00 00 00 00	 DD	 $L86096
  00976	a4 ff ff ff	 DD	 -92			; ffffffa4H
  0097a	04 00 00 00	 DD	 4
  0097e	00 00 00 00	 DD	 $L86097
$L86097:
  00982	70		 DB	 112			; 00000070H
  00983	49		 DB	 73			; 00000049H
  00984	6e		 DB	 110			; 0000006eH
  00985	64		 DB	 100			; 00000064H
  00986	69		 DB	 105			; 00000069H
  00987	63		 DB	 99			; 00000063H
  00988	65		 DB	 101			; 00000065H
  00989	73		 DB	 115			; 00000073H
  0098a	00		 DB	 0
$L86096:
  0098b	70		 DB	 112			; 00000070H
  0098c	56		 DB	 86			; 00000056H
  0098d	65		 DB	 101			; 00000065H
  0098e	72		 DB	 114			; 00000072H
  0098f	74		 DB	 116			; 00000074H
  00990	73		 DB	 115			; 00000073H
  00991	00		 DB	 0
$L86095:
  00992	70		 DB	 112			; 00000070H
  00993	49		 DB	 73			; 00000049H
  00994	6e		 DB	 110			; 0000006eH
  00995	64		 DB	 100			; 00000064H
  00996	69		 DB	 105			; 00000069H
  00997	63		 DB	 99			; 00000063H
  00998	65		 DB	 101			; 00000065H
  00999	73		 DB	 115			; 00000073H
  0099a	00		 DB	 0
$L86094:
  0099b	70		 DB	 112			; 00000070H
  0099c	56		 DB	 86			; 00000056H
  0099d	65		 DB	 101			; 00000065H
  0099e	72		 DB	 114			; 00000072H
  0099f	74		 DB	 116			; 00000074H
  009a0	73		 DB	 115			; 00000073H
  009a1	00		 DB	 0
$L86092:
  009a2	69		 DB	 105			; 00000069H
  009a3	46		 DB	 70			; 00000046H
  009a4	56		 DB	 86			; 00000056H
  009a5	46		 DB	 70			; 00000046H
  009a6	53		 DB	 83			; 00000053H
  009a7	69		 DB	 105			; 00000069H
  009a8	7a		 DB	 122			; 0000007aH
  009a9	65		 DB	 101			; 00000065H
  009aa	00		 DB	 0
?MakeRenderData@CProceduralRenderObject@@QAEJPAUIDirect3D8@@PAUIDirect3DDevice8@@@Z ENDP ; CProceduralRenderObject::MakeRenderData
_TEXT	ENDS
PUBLIC	?MakeBoundingBox@CProceduralRenderObject@@QAEJPAUIDirect3D8@@PAUIDirect3DDevice8@@@Z ; CProceduralRenderObject::MakeBoundingBox
PUBLIC	?__LINE__Var@?1??MakeBoundingBox@CProceduralRenderObject@@QAEJPAUIDirect3D8@@PAUIDirect3DDevice8@@@Z@4JA ; `CProceduralRenderObject::MakeBoundingBox'::`2'::__LINE__Var
EXTRN	??0CBoundingBox@@QAE@PAUD3DXVECTOR3@@0@Z:NEAR	; CBoundingBox::CBoundingBox
EXTRN	_D3DXComputeBoundingBox@20:NEAR
;	COMDAT ?__LINE__Var@?1??MakeBoundingBox@CProceduralRenderObject@@QAEJPAUIDirect3D8@@PAUIDirect3DDevice8@@@Z@4JA
_DATA	SEGMENT
?__LINE__Var@?1??MakeBoundingBox@CProceduralRenderObject@@QAEJPAUIDirect3D8@@PAUIDirect3DDevice8@@@Z@4JA DD 030dH ; `CProceduralRenderObject::MakeBoundingBox'::`2'::__LINE__Var
; Function compile flags: /Odt /RTCsu /ZI
_DATA	ENDS
;	COMDAT ?MakeBoundingBox@CProceduralRenderObject@@QAEJPAUIDirect3D8@@PAUIDirect3DDevice8@@@Z
_TEXT	SEGMENT
tv128 = -288
tv129 = -284
tv130 = -280
tv131 = -276
tv152 = -272
tv132 = -272
$T86113 = -264
_vBBMax$ = -60
_vBBMin$ = -40
_hr$ = -20
_this$ = -8
_pD3D$ = 8
_pDev$ = 12
?MakeBoundingBox@CProceduralRenderObject@@QAEJPAUIDirect3D8@@PAUIDirect3DDevice8@@@Z PROC NEAR ; CProceduralRenderObject::MakeBoundingBox, COMDAT
; _this$ = ecx

; 781  : 	{

  00000	55		 push	 ebp
  00001	8b ec		 mov	 ebp, esp
  00003	81 ec 20 01 00
	00		 sub	 esp, 288		; 00000120H
  00009	53		 push	 ebx
  0000a	56		 push	 esi
  0000b	57		 push	 edi
  0000c	51		 push	 ecx
  0000d	8d bd e0 fe ff
	ff		 lea	 edi, DWORD PTR [ebp-288]
  00013	b9 48 00 00 00	 mov	 ecx, 72			; 00000048H
  00018	b8 cc cc cc cc	 mov	 eax, -858993460		; ccccccccH
  0001d	f3 ab		 rep stosd
  0001f	59		 pop	 ecx
  00020	89 4d f8	 mov	 DWORD PTR _this$[ebp], ecx

; 782  : 		HRESULT hr ;
; 783  : 		xVec3 vBBMin, vBBMax ;

  00023	8d 4d d8	 lea	 ecx, DWORD PTR _vBBMin$[ebp]
  00026	e8 00 00 00 00	 call	 ??0D3DXVECTOR3@@QAE@XZ	; D3DXVECTOR3::D3DXVECTOR3
  0002b	8d 4d c4	 lea	 ecx, DWORD PTR _vBBMax$[ebp]
  0002e	e8 00 00 00 00	 call	 ??0D3DXVECTOR3@@QAE@XZ	; D3DXVECTOR3::D3DXVECTOR3

; 784  : 		
; 785  : 		// determine the bounding volume as appropriate.
; 786  : 		if (m_bUseD3DXMesh)

  00033	8b 45 f8	 mov	 eax, DWORD PTR _this$[ebp]
  00036	83 b8 54 0a 00
	00 00		 cmp	 DWORD PTR [eax+2644], 0
  0003d	0f 84 01 01 00
	00		 je	 $L85730

; 787  : 		{
; 788  : 			hr = D3DXComputeBoundingBox
; 789  : 				 (
; 790  : 					m_dwFVF == MYFVF_UNCOLOREDVERTEX ? (PVOID)m_ntvRS[0].pUnlitVertices :
; 791  : 					m_dwFVF == MYFVF_COLOREDVERTEX ? (PVOID)m_ntvRS[0].pLitVertices :
; 792  : 					m_dwFVF == MYFVF_COLOREDVERTEX2TEX ? (PVOID)m_ntvRS[0].pLitVertices2Tex :
; 793  : 					m_dwFVF == MYFVF_COLOREDVERTEXWITHNORMAL ? (PVOID)m_ntvRS[0].pLitVerticesWithNormals :
; 794  : 					m_dwFVF == MYFVF_COLOREDVERTEXWITHNORMAL2TEX ? (PVOID)m_ntvRS[0].pLitVerticesWithNormals2Tex : NULL,
; 795  : 					m_ntvRS[0].dwNumVertices,
; 796  : 					m_dwFVF,
; 797  : 					&vBBMin,
; 798  : 					&vBBMax
; 799  : 				 );

  00043	8b 45 f8	 mov	 eax, DWORD PTR _this$[ebp]
  00046	81 38 12 01 00
	00		 cmp	 DWORD PTR [eax], 274	; 00000112H
  0004c	75 11		 jne	 SHORT $L86110
  0004e	8b 4d f8	 mov	 ecx, DWORD PTR _this$[ebp]
  00051	8b 51 30	 mov	 edx, DWORD PTR [ecx+48]
  00054	89 95 f0 fe ff
	ff		 mov	 DWORD PTR tv132[ebp], edx
  0005a	e9 9e 00 00 00	 jmp	 $L86111
$L86110:
  0005f	8b 45 f8	 mov	 eax, DWORD PTR _this$[ebp]
  00062	81 38 c2 01 00
	00		 cmp	 DWORD PTR [eax], 450	; 000001c2H
  00068	75 0e		 jne	 SHORT $L86108
  0006a	8b 4d f8	 mov	 ecx, DWORD PTR _this$[ebp]
  0006d	8b 51 34	 mov	 edx, DWORD PTR [ecx+52]
  00070	89 95 ec fe ff
	ff		 mov	 DWORD PTR tv131[ebp], edx
  00076	eb 79		 jmp	 SHORT $L86109
$L86108:
  00078	8b 45 f8	 mov	 eax, DWORD PTR _this$[ebp]
  0007b	81 38 c2 02 00
	00		 cmp	 DWORD PTR [eax], 706	; 000002c2H
  00081	75 0e		 jne	 SHORT $L86106
  00083	8b 4d f8	 mov	 ecx, DWORD PTR _this$[ebp]
  00086	8b 51 38	 mov	 edx, DWORD PTR [ecx+56]
  00089	89 95 e8 fe ff
	ff		 mov	 DWORD PTR tv130[ebp], edx
  0008f	eb 54		 jmp	 SHORT $L86107
$L86106:
  00091	8b 45 f8	 mov	 eax, DWORD PTR _this$[ebp]
  00094	81 38 d2 01 00
	00		 cmp	 DWORD PTR [eax], 466	; 000001d2H
  0009a	75 0e		 jne	 SHORT $L86104
  0009c	8b 4d f8	 mov	 ecx, DWORD PTR _this$[ebp]
  0009f	8b 51 3c	 mov	 edx, DWORD PTR [ecx+60]
  000a2	89 95 e4 fe ff
	ff		 mov	 DWORD PTR tv129[ebp], edx
  000a8	eb 2f		 jmp	 SHORT $L86105
$L86104:
  000aa	8b 45 f8	 mov	 eax, DWORD PTR _this$[ebp]
  000ad	81 38 d2 02 00
	00		 cmp	 DWORD PTR [eax], 722	; 000002d2H
  000b3	75 0e		 jne	 SHORT $L86102
  000b5	8b 4d f8	 mov	 ecx, DWORD PTR _this$[ebp]
  000b8	8b 51 40	 mov	 edx, DWORD PTR [ecx+64]
  000bb	89 95 e0 fe ff
	ff		 mov	 DWORD PTR tv128[ebp], edx
  000c1	eb 0a		 jmp	 SHORT $L86103
$L86102:
  000c3	c7 85 e0 fe ff
	ff 00 00 00 00	 mov	 DWORD PTR tv128[ebp], 0
$L86103:
  000cd	8b 85 e0 fe ff
	ff		 mov	 eax, DWORD PTR tv128[ebp]
  000d3	89 85 e4 fe ff
	ff		 mov	 DWORD PTR tv129[ebp], eax
$L86105:
  000d9	8b 8d e4 fe ff
	ff		 mov	 ecx, DWORD PTR tv129[ebp]
  000df	89 8d e8 fe ff
	ff		 mov	 DWORD PTR tv130[ebp], ecx
$L86107:
  000e5	8b 95 e8 fe ff
	ff		 mov	 edx, DWORD PTR tv130[ebp]
  000eb	89 95 ec fe ff
	ff		 mov	 DWORD PTR tv131[ebp], edx
$L86109:
  000f1	8b 85 ec fe ff
	ff		 mov	 eax, DWORD PTR tv131[ebp]
  000f7	89 85 f0 fe ff
	ff		 mov	 DWORD PTR tv132[ebp], eax
$L86111:
  000fd	8d 4d c4	 lea	 ecx, DWORD PTR _vBBMax$[ebp]
  00100	51		 push	 ecx
  00101	8d 55 d8	 lea	 edx, DWORD PTR _vBBMin$[ebp]
  00104	52		 push	 edx
  00105	8b 45 f8	 mov	 eax, DWORD PTR _this$[ebp]
  00108	8b 08		 mov	 ecx, DWORD PTR [eax]
  0010a	51		 push	 ecx
  0010b	8b 55 f8	 mov	 edx, DWORD PTR _this$[ebp]
  0010e	8b 42 48	 mov	 eax, DWORD PTR [edx+72]
  00111	50		 push	 eax
  00112	8b 8d f0 fe ff
	ff		 mov	 ecx, DWORD PTR tv132[ebp]
  00118	51		 push	 ecx
  00119	e8 00 00 00 00	 call	 _D3DXComputeBoundingBox@20
  0011e	89 45 ec	 mov	 DWORD PTR _hr$[ebp], eax

; 800  : 			assert( !FAILED(hr) );

  00121	83 7d ec 00	 cmp	 DWORD PTR _hr$[ebp], 0
  00125	7d 1b		 jge	 SHORT $L86112
  00127	a1 00 00 00 00	 mov	 eax, DWORD PTR ?__LINE__Var@?1??MakeBoundingBox@CProceduralRenderObject@@QAEJPAUIDirect3D8@@PAUIDirect3DDevice8@@@Z@4JA
  0012c	83 c0 13	 add	 eax, 19			; 00000013H
  0012f	50		 push	 eax
  00130	68 00 00 00 00	 push	 OFFSET FLAT:??_C@_0FJ@JJKKIHO@c?3?2documents?5and?5settings?2dom?2my@
  00135	68 00 00 00 00	 push	 OFFSET FLAT:??_C@_0M@NKNCPJJD@?$CBFAILED?$CIhr?$CJ?$AA@
  0013a	e8 00 00 00 00	 call	 __assert
  0013f	83 c4 0c	 add	 esp, 12			; 0000000cH
$L86112:

; 801  : 		}
; 802  : 		else

  00142	eb 32		 jmp	 SHORT $L85739
$L85730:

; 803  : 		{
; 804  : 			vBBMin = m_vMin ;

  00144	8b 45 f8	 mov	 eax, DWORD PTR _this$[ebp]
  00147	05 58 0a 00 00	 add	 eax, 2648		; 00000a58H
  0014c	8b 08		 mov	 ecx, DWORD PTR [eax]
  0014e	89 4d d8	 mov	 DWORD PTR _vBBMin$[ebp], ecx
  00151	8b 50 04	 mov	 edx, DWORD PTR [eax+4]
  00154	89 55 dc	 mov	 DWORD PTR _vBBMin$[ebp+4], edx
  00157	8b 40 08	 mov	 eax, DWORD PTR [eax+8]
  0015a	89 45 e0	 mov	 DWORD PTR _vBBMin$[ebp+8], eax

; 805  : 			vBBMax = m_vMax ;

  0015d	8b 45 f8	 mov	 eax, DWORD PTR _this$[ebp]
  00160	05 64 0a 00 00	 add	 eax, 2660		; 00000a64H
  00165	8b 08		 mov	 ecx, DWORD PTR [eax]
  00167	89 4d c4	 mov	 DWORD PTR _vBBMax$[ebp], ecx
  0016a	8b 50 04	 mov	 edx, DWORD PTR [eax+4]
  0016d	89 55 c8	 mov	 DWORD PTR _vBBMax$[ebp+4], edx
  00170	8b 40 08	 mov	 eax, DWORD PTR [eax+8]
  00173	89 45 cc	 mov	 DWORD PTR _vBBMax$[ebp+8], eax
$L85739:

; 806  : 		}
; 807  : 
; 808  : 		m_pBBox = new CBoundingBox(&vBBMin, &vBBMax) ;

  00176	68 d8 82 00 00	 push	 33496			; 000082d8H
  0017b	e8 00 00 00 00	 call	 ??2@YAPAXI@Z		; operator new
  00180	83 c4 04	 add	 esp, 4
  00183	89 85 f8 fe ff
	ff		 mov	 DWORD PTR $T86113[ebp], eax
  00189	83 bd f8 fe ff
	ff 00		 cmp	 DWORD PTR $T86113[ebp], 0
  00190	74 1b		 je	 SHORT $L86114
  00192	8d 45 c4	 lea	 eax, DWORD PTR _vBBMax$[ebp]
  00195	50		 push	 eax
  00196	8d 4d d8	 lea	 ecx, DWORD PTR _vBBMin$[ebp]
  00199	51		 push	 ecx
  0019a	8b 8d f8 fe ff
	ff		 mov	 ecx, DWORD PTR $T86113[ebp]
  001a0	e8 00 00 00 00	 call	 ??0CBoundingBox@@QAE@PAUD3DXVECTOR3@@0@Z ; CBoundingBox::CBoundingBox
  001a5	89 85 f0 fe ff
	ff		 mov	 DWORD PTR tv152[ebp], eax
  001ab	eb 0a		 jmp	 SHORT $L86115
$L86114:
  001ad	c7 85 f0 fe ff
	ff 00 00 00 00	 mov	 DWORD PTR tv152[ebp], 0
$L86115:
  001b7	8b 55 f8	 mov	 edx, DWORD PTR _this$[ebp]
  001ba	8b 85 f0 fe ff
	ff		 mov	 eax, DWORD PTR tv152[ebp]
  001c0	89 82 70 0a 00
	00		 mov	 DWORD PTR [edx+2672], eax

; 809  : 		m_dwMem_BBox += m_pBBox->m_dwMem ; 

  001c6	8b 45 f8	 mov	 eax, DWORD PTR _this$[ebp]
  001c9	8b 88 70 0a 00
	00		 mov	 ecx, DWORD PTR [eax+2672]
  001cf	8b 55 f8	 mov	 edx, DWORD PTR _this$[ebp]
  001d2	8b 42 24	 mov	 eax, DWORD PTR [edx+36]
  001d5	03 81 08 01 00
	00		 add	 eax, DWORD PTR [ecx+264]
  001db	8b 4d f8	 mov	 ecx, DWORD PTR _this$[ebp]
  001de	89 41 24	 mov	 DWORD PTR [ecx+36], eax

; 810  : 		
; 811  : 		return S_OK ;

  001e1	33 c0		 xor	 eax, eax

; 812  : 	}

  001e3	52		 push	 edx
  001e4	8b cd		 mov	 ecx, ebp
  001e6	50		 push	 eax
  001e7	8d 15 00 00 00
	00		 lea	 edx, DWORD PTR $L86119
  001ed	e8 00 00 00 00	 call	 @_RTC_CheckStackVars@8
  001f2	58		 pop	 eax
  001f3	5a		 pop	 edx
  001f4	5f		 pop	 edi
  001f5	5e		 pop	 esi
  001f6	5b		 pop	 ebx
  001f7	81 c4 20 01 00
	00		 add	 esp, 288		; 00000120H
  001fd	3b ec		 cmp	 ebp, esp
  001ff	e8 00 00 00 00	 call	 __RTC_CheckEsp
  00204	8b e5		 mov	 esp, ebp
  00206	5d		 pop	 ebp
  00207	c2 08 00	 ret	 8
$L86119:
  0020a	02 00 00 00	 DD	 2
  0020e	00 00 00 00	 DD	 $L86118
$L86118:
  00212	d8 ff ff ff	 DD	 -40			; ffffffd8H
  00216	0c 00 00 00	 DD	 12			; 0000000cH
  0021a	00 00 00 00	 DD	 $L86116
  0021e	c4 ff ff ff	 DD	 -60			; ffffffc4H
  00222	0c 00 00 00	 DD	 12			; 0000000cH
  00226	00 00 00 00	 DD	 $L86117
$L86117:
  0022a	76		 DB	 118			; 00000076H
  0022b	42		 DB	 66			; 00000042H
  0022c	42		 DB	 66			; 00000042H
  0022d	4d		 DB	 77			; 0000004dH
  0022e	61		 DB	 97			; 00000061H
  0022f	78		 DB	 120			; 00000078H
  00230	00		 DB	 0
$L86116:
  00231	76		 DB	 118			; 00000076H
  00232	42		 DB	 66			; 00000042H
  00233	42		 DB	 66			; 00000042H
  00234	4d		 DB	 77			; 0000004dH
  00235	69		 DB	 105			; 00000069H
  00236	6e		 DB	 110			; 0000006eH
  00237	00		 DB	 0
?MakeBoundingBox@CProceduralRenderObject@@QAEJPAUIDirect3D8@@PAUIDirect3DDevice8@@@Z ENDP ; CProceduralRenderObject::MakeBoundingBox
_TEXT	ENDS
PUBLIC	?RestoreDeviceObjects@CProceduralRenderObject@@QAEJPAUIDirect3D8@@PAUIDirect3DDevice8@@@Z ; CProceduralRenderObject::RestoreDeviceObjects
PUBLIC	?__LINE__Var@?1??RestoreDeviceObjects@CProceduralRenderObject@@QAEJPAUIDirect3D8@@PAUIDirect3DDevice8@@@Z@4JA ; `CProceduralRenderObject::RestoreDeviceObjects'::`2'::__LINE__Var
PUBLIC	??_C@_0BH@IFENJJCI@hr1?$DN?$DNS_OK?5?$CG?$CG?5hr2?$DN?$DNS_OK?$AA@ ; `string'
EXTRN	?RestoreDeviceObjects@CBoundingBox@@QAEJPAUIDirect3DDevice8@@@Z:NEAR ; CBoundingBox::RestoreDeviceObjects
;	COMDAT ?__LINE__Var@?1??RestoreDeviceObjects@CProceduralRenderObject@@QAEJPAUIDirect3D8@@PAUIDirect3DDevice8@@@Z@4JA
_DATA	SEGMENT
?__LINE__Var@?1??RestoreDeviceObjects@CProceduralRenderObject@@QAEJPAUIDirect3D8@@PAUIDirect3DDevice8@@@Z@4JA DD 0335H ; `CProceduralRenderObject::RestoreDeviceObjects'::`2'::__LINE__Var
_DATA	ENDS
;	COMDAT ??_C@_0BH@IFENJJCI@hr1?$DN?$DNS_OK?5?$CG?$CG?5hr2?$DN?$DNS_OK?$AA@
CONST	SEGMENT
??_C@_0BH@IFENJJCI@hr1?$DN?$DNS_OK?5?$CG?$CG?5hr2?$DN?$DNS_OK?$AA@ DB 'hr'
	DB	'1==S_OK && hr2==S_OK', 00H			; `string'
; Function compile flags: /Odt /RTCsu /ZI
CONST	ENDS
;	COMDAT ?RestoreDeviceObjects@CProceduralRenderObject@@QAEJPAUIDirect3D8@@PAUIDirect3DDevice8@@@Z
_TEXT	SEGMENT
_hr2$ = -32
_hr1$ = -20
_this$ = -8
_pD3D$ = 8
_pDev$ = 12
?RestoreDeviceObjects@CProceduralRenderObject@@QAEJPAUIDirect3D8@@PAUIDirect3DDevice8@@@Z PROC NEAR ; CProceduralRenderObject::RestoreDeviceObjects, COMDAT
; _this$ = ecx

; 821  : 	{

  00000	55		 push	 ebp
  00001	8b ec		 mov	 ebp, esp
  00003	81 ec e4 00 00
	00		 sub	 esp, 228		; 000000e4H
  00009	53		 push	 ebx
  0000a	56		 push	 esi
  0000b	57		 push	 edi
  0000c	51		 push	 ecx
  0000d	8d bd 1c ff ff
	ff		 lea	 edi, DWORD PTR [ebp-228]
  00013	b9 39 00 00 00	 mov	 ecx, 57			; 00000039H
  00018	b8 cc cc cc cc	 mov	 eax, -858993460		; ccccccccH
  0001d	f3 ab		 rep stosd
  0001f	59		 pop	 ecx
  00020	89 4d f8	 mov	 DWORD PTR _this$[ebp], ecx

; 822  : #ifdef FULL_DBG_TRACE
; 823  : 		ods( "CProceduralRenderObject::RestoreDeviceObjects\n" );
; 824  : #endif
; 825  : 
; 826  : 		HRESULT hr1 = S_OK, hr2 = S_OK ;

  00023	c7 45 ec 00 00
	00 00		 mov	 DWORD PTR _hr1$[ebp], 0
  0002a	c7 45 e0 00 00
	00 00		 mov	 DWORD PTR _hr2$[ebp], 0

; 827  : 
; 828  : 		hr1 = MakeRenderData(pD3D, pDev) ;

  00031	8b 45 0c	 mov	 eax, DWORD PTR _pDev$[ebp]
  00034	50		 push	 eax
  00035	8b 4d 08	 mov	 ecx, DWORD PTR _pD3D$[ebp]
  00038	51		 push	 ecx
  00039	8b 4d f8	 mov	 ecx, DWORD PTR _this$[ebp]
  0003c	e8 00 00 00 00	 call	 ?MakeRenderData@CProceduralRenderObject@@QAEJPAUIDirect3D8@@PAUIDirect3DDevice8@@@Z ; CProceduralRenderObject::MakeRenderData
  00041	89 45 ec	 mov	 DWORD PTR _hr1$[ebp], eax

; 829  : 		hr2 = MakeBoundingBox(pD3D, pDev) ;

  00044	8b 45 0c	 mov	 eax, DWORD PTR _pDev$[ebp]
  00047	50		 push	 eax
  00048	8b 4d 08	 mov	 ecx, DWORD PTR _pD3D$[ebp]
  0004b	51		 push	 ecx
  0004c	8b 4d f8	 mov	 ecx, DWORD PTR _this$[ebp]
  0004f	e8 00 00 00 00	 call	 ?MakeBoundingBox@CProceduralRenderObject@@QAEJPAUIDirect3D8@@PAUIDirect3DDevice8@@@Z ; CProceduralRenderObject::MakeBoundingBox
  00054	89 45 e0	 mov	 DWORD PTR _hr2$[ebp], eax

; 830  : 		assert( hr1==S_OK && hr2==S_OK );

  00057	83 7d ec 00	 cmp	 DWORD PTR _hr1$[ebp], 0
  0005b	75 06		 jne	 SHORT $L86122
  0005d	83 7d e0 00	 cmp	 DWORD PTR _hr2$[ebp], 0
  00061	74 1b		 je	 SHORT $L86123
$L86122:
  00063	a1 00 00 00 00	 mov	 eax, DWORD PTR ?__LINE__Var@?1??RestoreDeviceObjects@CProceduralRenderObject@@QAEJPAUIDirect3D8@@PAUIDirect3DDevice8@@@Z@4JA
  00068	83 c0 09	 add	 eax, 9
  0006b	50		 push	 eax
  0006c	68 00 00 00 00	 push	 OFFSET FLAT:??_C@_0FJ@JJKKIHO@c?3?2documents?5and?5settings?2dom?2my@
  00071	68 00 00 00 00	 push	 OFFSET FLAT:??_C@_0BH@IFENJJCI@hr1?$DN?$DNS_OK?5?$CG?$CG?5hr2?$DN?$DNS_OK?$AA@
  00076	e8 00 00 00 00	 call	 __assert
  0007b	83 c4 0c	 add	 esp, 12			; 0000000cH
$L86123:

; 831  : 
; 832  : 		m_pBBox->RestoreDeviceObjects( pDev );		// NOTE: in release build this does nothing

  0007e	8b 45 0c	 mov	 eax, DWORD PTR _pDev$[ebp]
  00081	50		 push	 eax
  00082	8b 4d f8	 mov	 ecx, DWORD PTR _this$[ebp]
  00085	8b 89 70 0a 00
	00		 mov	 ecx, DWORD PTR [ecx+2672]
  0008b	e8 00 00 00 00	 call	 ?RestoreDeviceObjects@CBoundingBox@@QAEJPAUIDirect3DDevice8@@@Z ; CBoundingBox::RestoreDeviceObjects

; 833  : 
; 834  : 		return S_OK ;

  00090	33 c0		 xor	 eax, eax

; 835  : 	}

  00092	5f		 pop	 edi
  00093	5e		 pop	 esi
  00094	5b		 pop	 ebx
  00095	81 c4 e4 00 00
	00		 add	 esp, 228		; 000000e4H
  0009b	3b ec		 cmp	 ebp, esp
  0009d	e8 00 00 00 00	 call	 __RTC_CheckEsp
  000a2	8b e5		 mov	 esp, ebp
  000a4	5d		 pop	 ebp
  000a5	c2 08 00	 ret	 8
?RestoreDeviceObjects@CProceduralRenderObject@@QAEJPAUIDirect3D8@@PAUIDirect3DDevice8@@@Z ENDP ; CProceduralRenderObject::RestoreDeviceObjects
_TEXT	ENDS
PUBLIC	?InvalidateDeviceObjects@CProceduralRenderObject@@QAEJXZ ; CProceduralRenderObject::InvalidateDeviceObjects
EXTRN	?InvalidateDeviceObjects@CBoundingBox@@QAEJXZ:NEAR ; CBoundingBox::InvalidateDeviceObjects
; Function compile flags: /Odt /RTCsu /ZI
;	COMDAT ?InvalidateDeviceObjects@CProceduralRenderObject@@QAEJXZ
_TEXT	SEGMENT
tv74 = -244
$T86127 = -236
$T86126 = -224
_i$85764 = -20
_this$ = -8
?InvalidateDeviceObjects@CProceduralRenderObject@@QAEJXZ PROC NEAR ; CProceduralRenderObject::InvalidateDeviceObjects, COMDAT
; _this$ = ecx

; 837  : 	{

  00000	55		 push	 ebp
  00001	8b ec		 mov	 ebp, esp
  00003	81 ec f4 00 00
	00		 sub	 esp, 244		; 000000f4H
  00009	53		 push	 ebx
  0000a	56		 push	 esi
  0000b	57		 push	 edi
  0000c	51		 push	 ecx
  0000d	8d bd 0c ff ff
	ff		 lea	 edi, DWORD PTR [ebp-244]
  00013	b9 3d 00 00 00	 mov	 ecx, 61			; 0000003dH
  00018	b8 cc cc cc cc	 mov	 eax, -858993460		; ccccccccH
  0001d	f3 ab		 rep stosd
  0001f	59		 pop	 ecx
  00020	89 4d f8	 mov	 DWORD PTR _this$[ebp], ecx

; 838  : 		// destroy the bounding box
; 839  : 		m_pBBox->InvalidateDeviceObjects() ;

  00023	8b 45 f8	 mov	 eax, DWORD PTR _this$[ebp]
  00026	8b 88 70 0a 00
	00		 mov	 ecx, DWORD PTR [eax+2672]
  0002c	e8 00 00 00 00	 call	 ?InvalidateDeviceObjects@CBoundingBox@@QAEJXZ ; CBoundingBox::InvalidateDeviceObjects

; 840  : 		SAFE_DELETE(m_pBBox)

  00031	8b 45 f8	 mov	 eax, DWORD PTR _this$[ebp]
  00034	83 b8 70 0a 00
	00 00		 cmp	 DWORD PTR [eax+2672], 0
  0003b	74 50		 je	 SHORT $L85761
  0003d	8b 45 f8	 mov	 eax, DWORD PTR _this$[ebp]
  00040	8b 88 70 0a 00
	00		 mov	 ecx, DWORD PTR [eax+2672]
  00046	89 8d 14 ff ff
	ff		 mov	 DWORD PTR $T86127[ebp], ecx
  0004c	8b 95 14 ff ff
	ff		 mov	 edx, DWORD PTR $T86127[ebp]
  00052	89 95 20 ff ff
	ff		 mov	 DWORD PTR $T86126[ebp], edx
  00058	83 bd 20 ff ff
	ff 00		 cmp	 DWORD PTR $T86126[ebp], 0
  0005f	74 15		 je	 SHORT $L86128
  00061	6a 01		 push	 1
  00063	8b 8d 20 ff ff
	ff		 mov	 ecx, DWORD PTR $T86126[ebp]
  00069	e8 00 00 00 00	 call	 ??_GCBoundingBox@@QAEPAXI@Z
  0006e	89 85 0c ff ff
	ff		 mov	 DWORD PTR tv74[ebp], eax
  00074	eb 0a		 jmp	 SHORT $L86129
$L86128:
  00076	c7 85 0c ff ff
	ff 00 00 00 00	 mov	 DWORD PTR tv74[ebp], 0
$L86129:
  00080	8b 45 f8	 mov	 eax, DWORD PTR _this$[ebp]
  00083	c7 80 70 0a 00
	00 00 00 00 00	 mov	 DWORD PTR [eax+2672], 0
$L85761:

; 841  : 		m_matWorld = g_matIdent ;

  0008d	8b 7d f8	 mov	 edi, DWORD PTR _this$[ebp]
  00090	81 c7 74 0a 00
	00		 add	 edi, 2676		; 00000a74H
  00096	b9 10 00 00 00	 mov	 ecx, 16			; 00000010H
  0009b	be 00 00 00 00	 mov	 esi, OFFSET FLAT:?g_matIdent@@3UD3DXMATRIX@@A ; g_matIdent
  000a0	f3 a5		 rep movsd

; 842  : 
; 843  : 		for (int i = 0 ; i < m_nRSs ; i ++)

  000a2	c7 45 ec 00 00
	00 00		 mov	 DWORD PTR _i$85764[ebp], 0
  000a9	eb 09		 jmp	 SHORT $L85765
$L85766:
  000ab	8b 45 ec	 mov	 eax, DWORD PTR _i$85764[ebp]
  000ae	83 c0 01	 add	 eax, 1
  000b1	89 45 ec	 mov	 DWORD PTR _i$85764[ebp], eax
$L85765:
  000b4	8b 45 f8	 mov	 eax, DWORD PTR _this$[ebp]
  000b7	8b 4d ec	 mov	 ecx, DWORD PTR _i$85764[ebp]
  000ba	3b 88 48 0a 00
	00		 cmp	 ecx, DWORD PTR [eax+2632]
  000c0	0f 8d 2b 01 00
	00		 jge	 $L85767

; 844  : 		{
; 845  : 			SAFE_RELEASE(m_ntvRS[i].pMesh)

  000c6	8b 45 ec	 mov	 eax, DWORD PTR _i$85764[ebp]
  000c9	69 c0 44 01 00
	00		 imul	 eax, 324		; 00000144H
  000cf	8b 4d f8	 mov	 ecx, DWORD PTR _this$[ebp]
  000d2	83 bc 01 94 00
	00 00 00	 cmp	 DWORD PTR [ecx+eax+148], 0
  000da	74 4c		 je	 SHORT $L85768
  000dc	8b 45 ec	 mov	 eax, DWORD PTR _i$85764[ebp]
  000df	69 c0 44 01 00
	00		 imul	 eax, 324		; 00000144H
  000e5	8b 4d f8	 mov	 ecx, DWORD PTR _this$[ebp]
  000e8	8b 94 01 94 00
	00 00		 mov	 edx, DWORD PTR [ecx+eax+148]
  000ef	8b 45 ec	 mov	 eax, DWORD PTR _i$85764[ebp]
  000f2	69 c0 44 01 00
	00		 imul	 eax, 324		; 00000144H
  000f8	8b 4d f8	 mov	 ecx, DWORD PTR _this$[ebp]
  000fb	8b 84 01 94 00
	00 00		 mov	 eax, DWORD PTR [ecx+eax+148]
  00102	8b 0a		 mov	 ecx, DWORD PTR [edx]
  00104	8b f4		 mov	 esi, esp
  00106	50		 push	 eax
  00107	ff 51 08	 call	 DWORD PTR [ecx+8]
  0010a	3b f4		 cmp	 esi, esp
  0010c	e8 00 00 00 00	 call	 __RTC_CheckEsp
  00111	8b 45 ec	 mov	 eax, DWORD PTR _i$85764[ebp]
  00114	69 c0 44 01 00
	00		 imul	 eax, 324		; 00000144H
  0011a	8b 4d f8	 mov	 ecx, DWORD PTR _this$[ebp]
  0011d	c7 84 01 94 00
	00 00 00 00 00
	00		 mov	 DWORD PTR [ecx+eax+148], 0
$L85768:

; 846  : 			SAFE_RELEASE(m_ntvRS[i].pVB)

  00128	8b 45 ec	 mov	 eax, DWORD PTR _i$85764[ebp]
  0012b	69 c0 44 01 00
	00		 imul	 eax, 324		; 00000144H
  00131	8b 4d f8	 mov	 ecx, DWORD PTR _this$[ebp]
  00134	83 bc 01 98 00
	00 00 00	 cmp	 DWORD PTR [ecx+eax+152], 0
  0013c	74 4c		 je	 SHORT $L85769
  0013e	8b 45 ec	 mov	 eax, DWORD PTR _i$85764[ebp]
  00141	69 c0 44 01 00
	00		 imul	 eax, 324		; 00000144H
  00147	8b 4d f8	 mov	 ecx, DWORD PTR _this$[ebp]
  0014a	8b 94 01 98 00
	00 00		 mov	 edx, DWORD PTR [ecx+eax+152]
  00151	8b 45 ec	 mov	 eax, DWORD PTR _i$85764[ebp]
  00154	69 c0 44 01 00
	00		 imul	 eax, 324		; 00000144H
  0015a	8b 4d f8	 mov	 ecx, DWORD PTR _this$[ebp]
  0015d	8b 84 01 98 00
	00 00		 mov	 eax, DWORD PTR [ecx+eax+152]
  00164	8b 0a		 mov	 ecx, DWORD PTR [edx]
  00166	8b f4		 mov	 esi, esp
  00168	50		 push	 eax
  00169	ff 51 08	 call	 DWORD PTR [ecx+8]
  0016c	3b f4		 cmp	 esi, esp
  0016e	e8 00 00 00 00	 call	 __RTC_CheckEsp
  00173	8b 45 ec	 mov	 eax, DWORD PTR _i$85764[ebp]
  00176	69 c0 44 01 00
	00		 imul	 eax, 324		; 00000144H
  0017c	8b 4d f8	 mov	 ecx, DWORD PTR _this$[ebp]
  0017f	c7 84 01 98 00
	00 00 00 00 00
	00		 mov	 DWORD PTR [ecx+eax+152], 0
$L85769:

; 847  : 			SAFE_RELEASE(m_ntvRS[i].pIB)

  0018a	8b 45 ec	 mov	 eax, DWORD PTR _i$85764[ebp]
  0018d	69 c0 44 01 00
	00		 imul	 eax, 324		; 00000144H
  00193	8b 4d f8	 mov	 ecx, DWORD PTR _this$[ebp]
  00196	83 bc 01 9c 00
	00 00 00	 cmp	 DWORD PTR [ecx+eax+156], 0
  0019e	74 4c		 je	 SHORT $L85770
  001a0	8b 45 ec	 mov	 eax, DWORD PTR _i$85764[ebp]
  001a3	69 c0 44 01 00
	00		 imul	 eax, 324		; 00000144H
  001a9	8b 4d f8	 mov	 ecx, DWORD PTR _this$[ebp]
  001ac	8b 94 01 9c 00
	00 00		 mov	 edx, DWORD PTR [ecx+eax+156]
  001b3	8b 45 ec	 mov	 eax, DWORD PTR _i$85764[ebp]
  001b6	69 c0 44 01 00
	00		 imul	 eax, 324		; 00000144H
  001bc	8b 4d f8	 mov	 ecx, DWORD PTR _this$[ebp]
  001bf	8b 84 01 9c 00
	00 00		 mov	 eax, DWORD PTR [ecx+eax+156]
  001c6	8b 0a		 mov	 ecx, DWORD PTR [edx]
  001c8	8b f4		 mov	 esi, esp
  001ca	50		 push	 eax
  001cb	ff 51 08	 call	 DWORD PTR [ecx+8]
  001ce	3b f4		 cmp	 esi, esp
  001d0	e8 00 00 00 00	 call	 __RTC_CheckEsp
  001d5	8b 45 ec	 mov	 eax, DWORD PTR _i$85764[ebp]
  001d8	69 c0 44 01 00
	00		 imul	 eax, 324		; 00000144H
  001de	8b 4d f8	 mov	 ecx, DWORD PTR _this$[ebp]
  001e1	c7 84 01 9c 00
	00 00 00 00 00
	00		 mov	 DWORD PTR [ecx+eax+156], 0
$L85770:

; 848  : 		}

  001ec	e9 ba fe ff ff	 jmp	 $L85766
$L85767:

; 849  : 
; 850  : 		m_dwMem_RenderData = 0 ;

  001f1	8b 45 f8	 mov	 eax, DWORD PTR _this$[ebp]
  001f4	c7 40 20 00 00
	00 00		 mov	 DWORD PTR [eax+32], 0

; 851  : 		m_dwMem_BBox = 0 ;

  001fb	8b 45 f8	 mov	 eax, DWORD PTR _this$[ebp]
  001fe	c7 40 24 00 00
	00 00		 mov	 DWORD PTR [eax+36], 0

; 852  : 
; 853  : 		return S_OK ;

  00205	33 c0		 xor	 eax, eax

; 854  : 	}

  00207	5f		 pop	 edi
  00208	5e		 pop	 esi
  00209	5b		 pop	 ebx
  0020a	81 c4 f4 00 00
	00		 add	 esp, 244		; 000000f4H
  00210	3b ec		 cmp	 ebp, esp
  00212	e8 00 00 00 00	 call	 __RTC_CheckEsp
  00217	8b e5		 mov	 esp, ebp
  00219	5d		 pop	 ebp
  0021a	c3		 ret	 0
?InvalidateDeviceObjects@CProceduralRenderObject@@QAEJXZ ENDP ; CProceduralRenderObject::InvalidateDeviceObjects
_TEXT	ENDS
PUBLIC	?WorldRotateX@CProceduralRenderObject@@QAEXMPAUD3DXVECTOR3@@@Z ; CProceduralRenderObject::WorldRotateX
EXTRN	?ApplyMatrix@CBoundingBox@@QAEXPAUD3DXMATRIX@@@Z:NEAR ; CBoundingBox::ApplyMatrix
EXTRN	_D3DXMatrixMultiply@12:NEAR
EXTRN	_D3DXMatrixTranslation@16:NEAR
EXTRN	_D3DXMatrixRotationX@8:NEAR
; Function compile flags: /Odt /RTCsu /ZI
;	COMDAT ?WorldRotateX@CProceduralRenderObject@@QAEXMPAUD3DXVECTOR3@@@Z
_TEXT	SEGMENT
_m2$ = -296
_m1$ = -224
_m0$ = -152
_m$ = -80
_this$ = -8
_r$ = 8
_pv$ = 12
?WorldRotateX@CProceduralRenderObject@@QAEXMPAUD3DXVECTOR3@@@Z PROC NEAR ; CProceduralRenderObject::WorldRotateX, COMDAT
; _this$ = ecx

; 862  : 	{

  00000	55		 push	 ebp
  00001	8b ec		 mov	 ebp, esp
  00003	81 ec ec 01 00
	00		 sub	 esp, 492		; 000001ecH
  00009	53		 push	 ebx
  0000a	56		 push	 esi
  0000b	57		 push	 edi
  0000c	51		 push	 ecx
  0000d	8d bd 14 fe ff
	ff		 lea	 edi, DWORD PTR [ebp-492]
  00013	b9 7b 00 00 00	 mov	 ecx, 123		; 0000007bH
  00018	b8 cc cc cc cc	 mov	 eax, -858993460		; ccccccccH
  0001d	f3 ab		 rep stosd
  0001f	59		 pop	 ecx
  00020	89 4d f8	 mov	 DWORD PTR _this$[ebp], ecx

; 863  : 		xMat m, m0, m1, m2 ;

  00023	8d 4d b0	 lea	 ecx, DWORD PTR _m$[ebp]
  00026	e8 00 00 00 00	 call	 ??0D3DXMATRIX@@QAE@XZ	; D3DXMATRIX::D3DXMATRIX
  0002b	8d 8d 68 ff ff
	ff		 lea	 ecx, DWORD PTR _m0$[ebp]
  00031	e8 00 00 00 00	 call	 ??0D3DXMATRIX@@QAE@XZ	; D3DXMATRIX::D3DXMATRIX
  00036	8d 8d 20 ff ff
	ff		 lea	 ecx, DWORD PTR _m1$[ebp]
  0003c	e8 00 00 00 00	 call	 ??0D3DXMATRIX@@QAE@XZ	; D3DXMATRIX::D3DXMATRIX
  00041	8d 8d d8 fe ff
	ff		 lea	 ecx, DWORD PTR _m2$[ebp]
  00047	e8 00 00 00 00	 call	 ??0D3DXMATRIX@@QAE@XZ	; D3DXMATRIX::D3DXMATRIX

; 864  : 		
; 865  : 		// build desired rotation about point matrix
; 866  : 		D3DXMatrixTranslation(&m0, -pv->x, -pv->y, -pv->z) ;

  0004c	8b 45 0c	 mov	 eax, DWORD PTR _pv$[ebp]
  0004f	d9 40 08	 fld	 DWORD PTR [eax+8]
  00052	d9 e0		 fchs
  00054	51		 push	 ecx
  00055	d9 1c 24	 fstp	 DWORD PTR [esp]
  00058	8b 4d 0c	 mov	 ecx, DWORD PTR _pv$[ebp]
  0005b	d9 41 04	 fld	 DWORD PTR [ecx+4]
  0005e	d9 e0		 fchs
  00060	51		 push	 ecx
  00061	d9 1c 24	 fstp	 DWORD PTR [esp]
  00064	8b 55 0c	 mov	 edx, DWORD PTR _pv$[ebp]
  00067	d9 02		 fld	 DWORD PTR [edx]
  00069	d9 e0		 fchs
  0006b	51		 push	 ecx
  0006c	d9 1c 24	 fstp	 DWORD PTR [esp]
  0006f	8d 85 68 ff ff
	ff		 lea	 eax, DWORD PTR _m0$[ebp]
  00075	50		 push	 eax
  00076	e8 00 00 00 00	 call	 _D3DXMatrixTranslation@16

; 867  : 		D3DXMatrixRotationX(&m1, r) ;

  0007b	8b 45 08	 mov	 eax, DWORD PTR _r$[ebp]
  0007e	50		 push	 eax
  0007f	8d 8d 20 ff ff
	ff		 lea	 ecx, DWORD PTR _m1$[ebp]
  00085	51		 push	 ecx
  00086	e8 00 00 00 00	 call	 _D3DXMatrixRotationX@8

; 868  : 		D3DXMatrixTranslation(&m2, +pv->x, +pv->y, +pv->z) ;

  0008b	8b 45 0c	 mov	 eax, DWORD PTR _pv$[ebp]
  0008e	8b 48 08	 mov	 ecx, DWORD PTR [eax+8]
  00091	51		 push	 ecx
  00092	8b 55 0c	 mov	 edx, DWORD PTR _pv$[ebp]
  00095	8b 42 04	 mov	 eax, DWORD PTR [edx+4]
  00098	50		 push	 eax
  00099	8b 4d 0c	 mov	 ecx, DWORD PTR _pv$[ebp]
  0009c	8b 11		 mov	 edx, DWORD PTR [ecx]
  0009e	52		 push	 edx
  0009f	8d 85 d8 fe ff
	ff		 lea	 eax, DWORD PTR _m2$[ebp]
  000a5	50		 push	 eax
  000a6	e8 00 00 00 00	 call	 _D3DXMatrixTranslation@16

; 869  : 		m = g_matIdent ;

  000ab	b9 10 00 00 00	 mov	 ecx, 16			; 00000010H
  000b0	be 00 00 00 00	 mov	 esi, OFFSET FLAT:?g_matIdent@@3UD3DXMATRIX@@A ; g_matIdent
  000b5	8d 7d b0	 lea	 edi, DWORD PTR _m$[ebp]
  000b8	f3 a5		 rep movsd

; 870  : 		D3DXMatrixMultiply(&m, &m, &m0) ;

  000ba	8d 85 68 ff ff
	ff		 lea	 eax, DWORD PTR _m0$[ebp]
  000c0	50		 push	 eax
  000c1	8d 4d b0	 lea	 ecx, DWORD PTR _m$[ebp]
  000c4	51		 push	 ecx
  000c5	8d 55 b0	 lea	 edx, DWORD PTR _m$[ebp]
  000c8	52		 push	 edx
  000c9	e8 00 00 00 00	 call	 _D3DXMatrixMultiply@12

; 871  : 		D3DXMatrixMultiply(&m, &m, &m1) ;

  000ce	8d 85 20 ff ff
	ff		 lea	 eax, DWORD PTR _m1$[ebp]
  000d4	50		 push	 eax
  000d5	8d 4d b0	 lea	 ecx, DWORD PTR _m$[ebp]
  000d8	51		 push	 ecx
  000d9	8d 55 b0	 lea	 edx, DWORD PTR _m$[ebp]
  000dc	52		 push	 edx
  000dd	e8 00 00 00 00	 call	 _D3DXMatrixMultiply@12

; 872  : 		D3DXMatrixMultiply(&m, &m, &m2) ;

  000e2	8d 85 d8 fe ff
	ff		 lea	 eax, DWORD PTR _m2$[ebp]
  000e8	50		 push	 eax
  000e9	8d 4d b0	 lea	 ecx, DWORD PTR _m$[ebp]
  000ec	51		 push	 ecx
  000ed	8d 55 b0	 lea	 edx, DWORD PTR _m$[ebp]
  000f0	52		 push	 edx
  000f1	e8 00 00 00 00	 call	 _D3DXMatrixMultiply@12

; 873  : 	
; 874  : 		// apply to the object's bounding box
; 875  : 		m_pBBox->ApplyMatrix(&m) ;

  000f6	8d 45 b0	 lea	 eax, DWORD PTR _m$[ebp]
  000f9	50		 push	 eax
  000fa	8b 4d f8	 mov	 ecx, DWORD PTR _this$[ebp]
  000fd	8b 89 70 0a 00
	00		 mov	 ecx, DWORD PTR [ecx+2672]
  00103	e8 00 00 00 00	 call	 ?ApplyMatrix@CBoundingBox@@QAEXPAUD3DXMATRIX@@@Z ; CBoundingBox::ApplyMatrix

; 876  : 
; 877  : 		// apply to object's world matrix
; 878  : 		D3DXMatrixMultiply(&m_matWorld, &m_matWorld, &m) ;

  00108	8d 45 b0	 lea	 eax, DWORD PTR _m$[ebp]
  0010b	50		 push	 eax
  0010c	8b 4d f8	 mov	 ecx, DWORD PTR _this$[ebp]
  0010f	81 c1 74 0a 00
	00		 add	 ecx, 2676		; 00000a74H
  00115	51		 push	 ecx
  00116	8b 55 f8	 mov	 edx, DWORD PTR _this$[ebp]
  00119	81 c2 74 0a 00
	00		 add	 edx, 2676		; 00000a74H
  0011f	52		 push	 edx
  00120	e8 00 00 00 00	 call	 _D3DXMatrixMultiply@12

; 879  : 	}

  00125	52		 push	 edx
  00126	8b cd		 mov	 ecx, ebp
  00128	50		 push	 eax
  00129	8d 15 00 00 00
	00		 lea	 edx, DWORD PTR $L86137
  0012f	e8 00 00 00 00	 call	 @_RTC_CheckStackVars@8
  00134	58		 pop	 eax
  00135	5a		 pop	 edx
  00136	5f		 pop	 edi
  00137	5e		 pop	 esi
  00138	5b		 pop	 ebx
  00139	81 c4 ec 01 00
	00		 add	 esp, 492		; 000001ecH
  0013f	3b ec		 cmp	 ebp, esp
  00141	e8 00 00 00 00	 call	 __RTC_CheckEsp
  00146	8b e5		 mov	 esp, ebp
  00148	5d		 pop	 ebp
  00149	c2 08 00	 ret	 8
$L86137:
  0014c	04 00 00 00	 DD	 4
  00150	00 00 00 00	 DD	 $L86136
$L86136:
  00154	b0 ff ff ff	 DD	 -80			; ffffffb0H
  00158	40 00 00 00	 DD	 64			; 00000040H
  0015c	00 00 00 00	 DD	 $L86132
  00160	68 ff ff ff	 DD	 -152			; ffffff68H
  00164	40 00 00 00	 DD	 64			; 00000040H
  00168	00 00 00 00	 DD	 $L86133
  0016c	20 ff ff ff	 DD	 -224			; ffffff20H
  00170	40 00 00 00	 DD	 64			; 00000040H
  00174	00 00 00 00	 DD	 $L86134
  00178	d8 fe ff ff	 DD	 -296			; fffffed8H
  0017c	40 00 00 00	 DD	 64			; 00000040H
  00180	00 00 00 00	 DD	 $L86135
$L86135:
  00184	6d		 DB	 109			; 0000006dH
  00185	32		 DB	 50			; 00000032H
  00186	00		 DB	 0
$L86134:
  00187	6d		 DB	 109			; 0000006dH
  00188	31		 DB	 49			; 00000031H
  00189	00		 DB	 0
$L86133:
  0018a	6d		 DB	 109			; 0000006dH
  0018b	30		 DB	 48			; 00000030H
  0018c	00		 DB	 0
$L86132:
  0018d	6d		 DB	 109			; 0000006dH
  0018e	00		 DB	 0
?WorldRotateX@CProceduralRenderObject@@QAEXMPAUD3DXVECTOR3@@@Z ENDP ; CProceduralRenderObject::WorldRotateX
_TEXT	ENDS
PUBLIC	?WorldRotateY@CProceduralRenderObject@@QAEXMPAUD3DXVECTOR3@@@Z ; CProceduralRenderObject::WorldRotateY
EXTRN	_D3DXMatrixRotationY@8:NEAR
; Function compile flags: /Odt /RTCsu /ZI
;	COMDAT ?WorldRotateY@CProceduralRenderObject@@QAEXMPAUD3DXVECTOR3@@@Z
_TEXT	SEGMENT
_m2$ = -296
_m1$ = -224
_m0$ = -152
_m$ = -80
_this$ = -8
_r$ = 8
_pv$ = 12
?WorldRotateY@CProceduralRenderObject@@QAEXMPAUD3DXVECTOR3@@@Z PROC NEAR ; CProceduralRenderObject::WorldRotateY, COMDAT
; _this$ = ecx

; 881  : 	{

  00000	55		 push	 ebp
  00001	8b ec		 mov	 ebp, esp
  00003	81 ec ec 01 00
	00		 sub	 esp, 492		; 000001ecH
  00009	53		 push	 ebx
  0000a	56		 push	 esi
  0000b	57		 push	 edi
  0000c	51		 push	 ecx
  0000d	8d bd 14 fe ff
	ff		 lea	 edi, DWORD PTR [ebp-492]
  00013	b9 7b 00 00 00	 mov	 ecx, 123		; 0000007bH
  00018	b8 cc cc cc cc	 mov	 eax, -858993460		; ccccccccH
  0001d	f3 ab		 rep stosd
  0001f	59		 pop	 ecx
  00020	89 4d f8	 mov	 DWORD PTR _this$[ebp], ecx

; 882  : 		xMat m, m0, m1, m2 ;

  00023	8d 4d b0	 lea	 ecx, DWORD PTR _m$[ebp]
  00026	e8 00 00 00 00	 call	 ??0D3DXMATRIX@@QAE@XZ	; D3DXMATRIX::D3DXMATRIX
  0002b	8d 8d 68 ff ff
	ff		 lea	 ecx, DWORD PTR _m0$[ebp]
  00031	e8 00 00 00 00	 call	 ??0D3DXMATRIX@@QAE@XZ	; D3DXMATRIX::D3DXMATRIX
  00036	8d 8d 20 ff ff
	ff		 lea	 ecx, DWORD PTR _m1$[ebp]
  0003c	e8 00 00 00 00	 call	 ??0D3DXMATRIX@@QAE@XZ	; D3DXMATRIX::D3DXMATRIX
  00041	8d 8d d8 fe ff
	ff		 lea	 ecx, DWORD PTR _m2$[ebp]
  00047	e8 00 00 00 00	 call	 ??0D3DXMATRIX@@QAE@XZ	; D3DXMATRIX::D3DXMATRIX

; 883  : 		
; 884  : 		// build desired rotation about point matrix
; 885  : 		D3DXMatrixTranslation(&m0, -pv->x, -pv->y, -pv->z) ;

  0004c	8b 45 0c	 mov	 eax, DWORD PTR _pv$[ebp]
  0004f	d9 40 08	 fld	 DWORD PTR [eax+8]
  00052	d9 e0		 fchs
  00054	51		 push	 ecx
  00055	d9 1c 24	 fstp	 DWORD PTR [esp]
  00058	8b 4d 0c	 mov	 ecx, DWORD PTR _pv$[ebp]
  0005b	d9 41 04	 fld	 DWORD PTR [ecx+4]
  0005e	d9 e0		 fchs
  00060	51		 push	 ecx
  00061	d9 1c 24	 fstp	 DWORD PTR [esp]
  00064	8b 55 0c	 mov	 edx, DWORD PTR _pv$[ebp]
  00067	d9 02		 fld	 DWORD PTR [edx]
  00069	d9 e0		 fchs
  0006b	51		 push	 ecx
  0006c	d9 1c 24	 fstp	 DWORD PTR [esp]
  0006f	8d 85 68 ff ff
	ff		 lea	 eax, DWORD PTR _m0$[ebp]
  00075	50		 push	 eax
  00076	e8 00 00 00 00	 call	 _D3DXMatrixTranslation@16

; 886  : 		D3DXMatrixRotationY(&m1, r) ;

  0007b	8b 45 08	 mov	 eax, DWORD PTR _r$[ebp]
  0007e	50		 push	 eax
  0007f	8d 8d 20 ff ff
	ff		 lea	 ecx, DWORD PTR _m1$[ebp]
  00085	51		 push	 ecx
  00086	e8 00 00 00 00	 call	 _D3DXMatrixRotationY@8

; 887  : 		D3DXMatrixTranslation(&m2, +pv->x, +pv->y, +pv->z) ;

  0008b	8b 45 0c	 mov	 eax, DWORD PTR _pv$[ebp]
  0008e	8b 48 08	 mov	 ecx, DWORD PTR [eax+8]
  00091	51		 push	 ecx
  00092	8b 55 0c	 mov	 edx, DWORD PTR _pv$[ebp]
  00095	8b 42 04	 mov	 eax, DWORD PTR [edx+4]
  00098	50		 push	 eax
  00099	8b 4d 0c	 mov	 ecx, DWORD PTR _pv$[ebp]
  0009c	8b 11		 mov	 edx, DWORD PTR [ecx]
  0009e	52		 push	 edx
  0009f	8d 85 d8 fe ff
	ff		 lea	 eax, DWORD PTR _m2$[ebp]
  000a5	50		 push	 eax
  000a6	e8 00 00 00 00	 call	 _D3DXMatrixTranslation@16

; 888  : 		m = g_matIdent ;

  000ab	b9 10 00 00 00	 mov	 ecx, 16			; 00000010H
  000b0	be 00 00 00 00	 mov	 esi, OFFSET FLAT:?g_matIdent@@3UD3DXMATRIX@@A ; g_matIdent
  000b5	8d 7d b0	 lea	 edi, DWORD PTR _m$[ebp]
  000b8	f3 a5		 rep movsd

; 889  : 		D3DXMatrixMultiply(&m, &m, &m0) ;

  000ba	8d 85 68 ff ff
	ff		 lea	 eax, DWORD PTR _m0$[ebp]
  000c0	50		 push	 eax
  000c1	8d 4d b0	 lea	 ecx, DWORD PTR _m$[ebp]
  000c4	51		 push	 ecx
  000c5	8d 55 b0	 lea	 edx, DWORD PTR _m$[ebp]
  000c8	52		 push	 edx
  000c9	e8 00 00 00 00	 call	 _D3DXMatrixMultiply@12

; 890  : 		D3DXMatrixMultiply(&m, &m, &m1) ;

  000ce	8d 85 20 ff ff
	ff		 lea	 eax, DWORD PTR _m1$[ebp]
  000d4	50		 push	 eax
  000d5	8d 4d b0	 lea	 ecx, DWORD PTR _m$[ebp]
  000d8	51		 push	 ecx
  000d9	8d 55 b0	 lea	 edx, DWORD PTR _m$[ebp]
  000dc	52		 push	 edx
  000dd	e8 00 00 00 00	 call	 _D3DXMatrixMultiply@12

; 891  : 		D3DXMatrixMultiply(&m, &m, &m2) ;

  000e2	8d 85 d8 fe ff
	ff		 lea	 eax, DWORD PTR _m2$[ebp]
  000e8	50		 push	 eax
  000e9	8d 4d b0	 lea	 ecx, DWORD PTR _m$[ebp]
  000ec	51		 push	 ecx
  000ed	8d 55 b0	 lea	 edx, DWORD PTR _m$[ebp]
  000f0	52		 push	 edx
  000f1	e8 00 00 00 00	 call	 _D3DXMatrixMultiply@12

; 892  : 	
; 893  : 		// apply to the object's bounding box
; 894  : 		m_pBBox->ApplyMatrix(&m) ;

  000f6	8d 45 b0	 lea	 eax, DWORD PTR _m$[ebp]
  000f9	50		 push	 eax
  000fa	8b 4d f8	 mov	 ecx, DWORD PTR _this$[ebp]
  000fd	8b 89 70 0a 00
	00		 mov	 ecx, DWORD PTR [ecx+2672]
  00103	e8 00 00 00 00	 call	 ?ApplyMatrix@CBoundingBox@@QAEXPAUD3DXMATRIX@@@Z ; CBoundingBox::ApplyMatrix

; 895  : 
; 896  : 		// apply to object's world matrix
; 897  : 		D3DXMatrixMultiply(&m_matWorld, &m_matWorld, &m) ;

  00108	8d 45 b0	 lea	 eax, DWORD PTR _m$[ebp]
  0010b	50		 push	 eax
  0010c	8b 4d f8	 mov	 ecx, DWORD PTR _this$[ebp]
  0010f	81 c1 74 0a 00
	00		 add	 ecx, 2676		; 00000a74H
  00115	51		 push	 ecx
  00116	8b 55 f8	 mov	 edx, DWORD PTR _this$[ebp]
  00119	81 c2 74 0a 00
	00		 add	 edx, 2676		; 00000a74H
  0011f	52		 push	 edx
  00120	e8 00 00 00 00	 call	 _D3DXMatrixMultiply@12

; 898  : 	}

  00125	52		 push	 edx
  00126	8b cd		 mov	 ecx, ebp
  00128	50		 push	 eax
  00129	8d 15 00 00 00
	00		 lea	 edx, DWORD PTR $L86145
  0012f	e8 00 00 00 00	 call	 @_RTC_CheckStackVars@8
  00134	58		 pop	 eax
  00135	5a		 pop	 edx
  00136	5f		 pop	 edi
  00137	5e		 pop	 esi
  00138	5b		 pop	 ebx
  00139	81 c4 ec 01 00
	00		 add	 esp, 492		; 000001ecH
  0013f	3b ec		 cmp	 ebp, esp
  00141	e8 00 00 00 00	 call	 __RTC_CheckEsp
  00146	8b e5		 mov	 esp, ebp
  00148	5d		 pop	 ebp
  00149	c2 08 00	 ret	 8
$L86145:
  0014c	04 00 00 00	 DD	 4
  00150	00 00 00 00	 DD	 $L86144
$L86144:
  00154	b0 ff ff ff	 DD	 -80			; ffffffb0H
  00158	40 00 00 00	 DD	 64			; 00000040H
  0015c	00 00 00 00	 DD	 $L86140
  00160	68 ff ff ff	 DD	 -152			; ffffff68H
  00164	40 00 00 00	 DD	 64			; 00000040H
  00168	00 00 00 00	 DD	 $L86141
  0016c	20 ff ff ff	 DD	 -224			; ffffff20H
  00170	40 00 00 00	 DD	 64			; 00000040H
  00174	00 00 00 00	 DD	 $L86142
  00178	d8 fe ff ff	 DD	 -296			; fffffed8H
  0017c	40 00 00 00	 DD	 64			; 00000040H
  00180	00 00 00 00	 DD	 $L86143
$L86143:
  00184	6d		 DB	 109			; 0000006dH
  00185	32		 DB	 50			; 00000032H
  00186	00		 DB	 0
$L86142:
  00187	6d		 DB	 109			; 0000006dH
  00188	31		 DB	 49			; 00000031H
  00189	00		 DB	 0
$L86141:
  0018a	6d		 DB	 109			; 0000006dH
  0018b	30		 DB	 48			; 00000030H
  0018c	00		 DB	 0
$L86140:
  0018d	6d		 DB	 109			; 0000006dH
  0018e	00		 DB	 0
?WorldRotateY@CProceduralRenderObject@@QAEXMPAUD3DXVECTOR3@@@Z ENDP ; CProceduralRenderObject::WorldRotateY
_TEXT	ENDS
PUBLIC	?WorldRotateZ@CProceduralRenderObject@@QAEXMPAUD3DXVECTOR3@@@Z ; CProceduralRenderObject::WorldRotateZ
EXTRN	_D3DXMatrixRotationZ@8:NEAR
; Function compile flags: /Odt /RTCsu /ZI
;	COMDAT ?WorldRotateZ@CProceduralRenderObject@@QAEXMPAUD3DXVECTOR3@@@Z
_TEXT	SEGMENT
_m2$ = -296
_m1$ = -224
_m0$ = -152
_m$ = -80
_this$ = -8
_r$ = 8
_pv$ = 12
?WorldRotateZ@CProceduralRenderObject@@QAEXMPAUD3DXVECTOR3@@@Z PROC NEAR ; CProceduralRenderObject::WorldRotateZ, COMDAT
; _this$ = ecx

; 900  : 	{

  00000	55		 push	 ebp
  00001	8b ec		 mov	 ebp, esp
  00003	81 ec ec 01 00
	00		 sub	 esp, 492		; 000001ecH
  00009	53		 push	 ebx
  0000a	56		 push	 esi
  0000b	57		 push	 edi
  0000c	51		 push	 ecx
  0000d	8d bd 14 fe ff
	ff		 lea	 edi, DWORD PTR [ebp-492]
  00013	b9 7b 00 00 00	 mov	 ecx, 123		; 0000007bH
  00018	b8 cc cc cc cc	 mov	 eax, -858993460		; ccccccccH
  0001d	f3 ab		 rep stosd
  0001f	59		 pop	 ecx
  00020	89 4d f8	 mov	 DWORD PTR _this$[ebp], ecx

; 901  : 		xMat m, m0, m1, m2 ;

  00023	8d 4d b0	 lea	 ecx, DWORD PTR _m$[ebp]
  00026	e8 00 00 00 00	 call	 ??0D3DXMATRIX@@QAE@XZ	; D3DXMATRIX::D3DXMATRIX
  0002b	8d 8d 68 ff ff
	ff		 lea	 ecx, DWORD PTR _m0$[ebp]
  00031	e8 00 00 00 00	 call	 ??0D3DXMATRIX@@QAE@XZ	; D3DXMATRIX::D3DXMATRIX
  00036	8d 8d 20 ff ff
	ff		 lea	 ecx, DWORD PTR _m1$[ebp]
  0003c	e8 00 00 00 00	 call	 ??0D3DXMATRIX@@QAE@XZ	; D3DXMATRIX::D3DXMATRIX
  00041	8d 8d d8 fe ff
	ff		 lea	 ecx, DWORD PTR _m2$[ebp]
  00047	e8 00 00 00 00	 call	 ??0D3DXMATRIX@@QAE@XZ	; D3DXMATRIX::D3DXMATRIX

; 902  : 		
; 903  : 		// build desired rotation about point matrix
; 904  : 		D3DXMatrixTranslation(&m0, -pv->x, -pv->y, -pv->z) ;

  0004c	8b 45 0c	 mov	 eax, DWORD PTR _pv$[ebp]
  0004f	d9 40 08	 fld	 DWORD PTR [eax+8]
  00052	d9 e0		 fchs
  00054	51		 push	 ecx
  00055	d9 1c 24	 fstp	 DWORD PTR [esp]
  00058	8b 4d 0c	 mov	 ecx, DWORD PTR _pv$[ebp]
  0005b	d9 41 04	 fld	 DWORD PTR [ecx+4]
  0005e	d9 e0		 fchs
  00060	51		 push	 ecx
  00061	d9 1c 24	 fstp	 DWORD PTR [esp]
  00064	8b 55 0c	 mov	 edx, DWORD PTR _pv$[ebp]
  00067	d9 02		 fld	 DWORD PTR [edx]
  00069	d9 e0		 fchs
  0006b	51		 push	 ecx
  0006c	d9 1c 24	 fstp	 DWORD PTR [esp]
  0006f	8d 85 68 ff ff
	ff		 lea	 eax, DWORD PTR _m0$[ebp]
  00075	50		 push	 eax
  00076	e8 00 00 00 00	 call	 _D3DXMatrixTranslation@16

; 905  : 		D3DXMatrixRotationZ(&m1, r) ;

  0007b	8b 45 08	 mov	 eax, DWORD PTR _r$[ebp]
  0007e	50		 push	 eax
  0007f	8d 8d 20 ff ff
	ff		 lea	 ecx, DWORD PTR _m1$[ebp]
  00085	51		 push	 ecx
  00086	e8 00 00 00 00	 call	 _D3DXMatrixRotationZ@8

; 906  : 		D3DXMatrixTranslation(&m2, +pv->x, +pv->y, +pv->z) ;

  0008b	8b 45 0c	 mov	 eax, DWORD PTR _pv$[ebp]
  0008e	8b 48 08	 mov	 ecx, DWORD PTR [eax+8]
  00091	51		 push	 ecx
  00092	8b 55 0c	 mov	 edx, DWORD PTR _pv$[ebp]
  00095	8b 42 04	 mov	 eax, DWORD PTR [edx+4]
  00098	50		 push	 eax
  00099	8b 4d 0c	 mov	 ecx, DWORD PTR _pv$[ebp]
  0009c	8b 11		 mov	 edx, DWORD PTR [ecx]
  0009e	52		 push	 edx
  0009f	8d 85 d8 fe ff
	ff		 lea	 eax, DWORD PTR _m2$[ebp]
  000a5	50		 push	 eax
  000a6	e8 00 00 00 00	 call	 _D3DXMatrixTranslation@16

; 907  : 		m = g_matIdent ;

  000ab	b9 10 00 00 00	 mov	 ecx, 16			; 00000010H
  000b0	be 00 00 00 00	 mov	 esi, OFFSET FLAT:?g_matIdent@@3UD3DXMATRIX@@A ; g_matIdent
  000b5	8d 7d b0	 lea	 edi, DWORD PTR _m$[ebp]
  000b8	f3 a5		 rep movsd

; 908  : 		D3DXMatrixMultiply(&m, &m, &m0) ;

  000ba	8d 85 68 ff ff
	ff		 lea	 eax, DWORD PTR _m0$[ebp]
  000c0	50		 push	 eax
  000c1	8d 4d b0	 lea	 ecx, DWORD PTR _m$[ebp]
  000c4	51		 push	 ecx
  000c5	8d 55 b0	 lea	 edx, DWORD PTR _m$[ebp]
  000c8	52		 push	 edx
  000c9	e8 00 00 00 00	 call	 _D3DXMatrixMultiply@12

; 909  : 		D3DXMatrixMultiply(&m, &m, &m1) ;

  000ce	8d 85 20 ff ff
	ff		 lea	 eax, DWORD PTR _m1$[ebp]
  000d4	50		 push	 eax
  000d5	8d 4d b0	 lea	 ecx, DWORD PTR _m$[ebp]
  000d8	51		 push	 ecx
  000d9	8d 55 b0	 lea	 edx, DWORD PTR _m$[ebp]
  000dc	52		 push	 edx
  000dd	e8 00 00 00 00	 call	 _D3DXMatrixMultiply@12

; 910  : 		D3DXMatrixMultiply(&m, &m, &m2) ;

  000e2	8d 85 d8 fe ff
	ff		 lea	 eax, DWORD PTR _m2$[ebp]
  000e8	50		 push	 eax
  000e9	8d 4d b0	 lea	 ecx, DWORD PTR _m$[ebp]
  000ec	51		 push	 ecx
  000ed	8d 55 b0	 lea	 edx, DWORD PTR _m$[ebp]
  000f0	52		 push	 edx
  000f1	e8 00 00 00 00	 call	 _D3DXMatrixMultiply@12

; 911  : 	
; 912  : 		// apply to the object's bounding box
; 913  : 		m_pBBox->ApplyMatrix(&m) ;

  000f6	8d 45 b0	 lea	 eax, DWORD PTR _m$[ebp]
  000f9	50		 push	 eax
  000fa	8b 4d f8	 mov	 ecx, DWORD PTR _this$[ebp]
  000fd	8b 89 70 0a 00
	00		 mov	 ecx, DWORD PTR [ecx+2672]
  00103	e8 00 00 00 00	 call	 ?ApplyMatrix@CBoundingBox@@QAEXPAUD3DXMATRIX@@@Z ; CBoundingBox::ApplyMatrix

; 914  : 
; 915  : 		// apply to object's world matrix
; 916  : 		D3DXMatrixMultiply(&m_matWorld, &m_matWorld, &m) ;

  00108	8d 45 b0	 lea	 eax, DWORD PTR _m$[ebp]
  0010b	50		 push	 eax
  0010c	8b 4d f8	 mov	 ecx, DWORD PTR _this$[ebp]
  0010f	81 c1 74 0a 00
	00		 add	 ecx, 2676		; 00000a74H
  00115	51		 push	 ecx
  00116	8b 55 f8	 mov	 edx, DWORD PTR _this$[ebp]
  00119	81 c2 74 0a 00
	00		 add	 edx, 2676		; 00000a74H
  0011f	52		 push	 edx
  00120	e8 00 00 00 00	 call	 _D3DXMatrixMultiply@12

; 917  : 	}

  00125	52		 push	 edx
  00126	8b cd		 mov	 ecx, ebp
  00128	50		 push	 eax
  00129	8d 15 00 00 00
	00		 lea	 edx, DWORD PTR $L86153
  0012f	e8 00 00 00 00	 call	 @_RTC_CheckStackVars@8
  00134	58		 pop	 eax
  00135	5a		 pop	 edx
  00136	5f		 pop	 edi
  00137	5e		 pop	 esi
  00138	5b		 pop	 ebx
  00139	81 c4 ec 01 00
	00		 add	 esp, 492		; 000001ecH
  0013f	3b ec		 cmp	 ebp, esp
  00141	e8 00 00 00 00	 call	 __RTC_CheckEsp
  00146	8b e5		 mov	 esp, ebp
  00148	5d		 pop	 ebp
  00149	c2 08 00	 ret	 8
$L86153:
  0014c	04 00 00 00	 DD	 4
  00150	00 00 00 00	 DD	 $L86152
$L86152:
  00154	b0 ff ff ff	 DD	 -80			; ffffffb0H
  00158	40 00 00 00	 DD	 64			; 00000040H
  0015c	00 00 00 00	 DD	 $L86148
  00160	68 ff ff ff	 DD	 -152			; ffffff68H
  00164	40 00 00 00	 DD	 64			; 00000040H
  00168	00 00 00 00	 DD	 $L86149
  0016c	20 ff ff ff	 DD	 -224			; ffffff20H
  00170	40 00 00 00	 DD	 64			; 00000040H
  00174	00 00 00 00	 DD	 $L86150
  00178	d8 fe ff ff	 DD	 -296			; fffffed8H
  0017c	40 00 00 00	 DD	 64			; 00000040H
  00180	00 00 00 00	 DD	 $L86151
$L86151:
  00184	6d		 DB	 109			; 0000006dH
  00185	32		 DB	 50			; 00000032H
  00186	00		 DB	 0
$L86150:
  00187	6d		 DB	 109			; 0000006dH
  00188	31		 DB	 49			; 00000031H
  00189	00		 DB	 0
$L86149:
  0018a	6d		 DB	 109			; 0000006dH
  0018b	30		 DB	 48			; 00000030H
  0018c	00		 DB	 0
$L86148:
  0018d	6d		 DB	 109			; 0000006dH
  0018e	00		 DB	 0
?WorldRotateZ@CProceduralRenderObject@@QAEXMPAUD3DXVECTOR3@@@Z ENDP ; CProceduralRenderObject::WorldRotateZ
_TEXT	ENDS
PUBLIC	?WorldTranslate@CProceduralRenderObject@@QAEXPAUD3DXVECTOR3@@@Z ; CProceduralRenderObject::WorldTranslate
; Function compile flags: /Odt /RTCsu /ZI
;	COMDAT ?WorldTranslate@CProceduralRenderObject@@QAEXPAUD3DXVECTOR3@@@Z
_TEXT	SEGMENT
_m$ = -80
_this$ = -8
_pv$ = 8
?WorldTranslate@CProceduralRenderObject@@QAEXPAUD3DXVECTOR3@@@Z PROC NEAR ; CProceduralRenderObject::WorldTranslate, COMDAT
; _this$ = ecx

; 919  : 	{

  00000	55		 push	 ebp
  00001	8b ec		 mov	 ebp, esp
  00003	81 ec 14 01 00
	00		 sub	 esp, 276		; 00000114H
  00009	53		 push	 ebx
  0000a	56		 push	 esi
  0000b	57		 push	 edi
  0000c	51		 push	 ecx
  0000d	8d bd ec fe ff
	ff		 lea	 edi, DWORD PTR [ebp-276]
  00013	b9 45 00 00 00	 mov	 ecx, 69			; 00000045H
  00018	b8 cc cc cc cc	 mov	 eax, -858993460		; ccccccccH
  0001d	f3 ab		 rep stosd
  0001f	59		 pop	 ecx
  00020	89 4d f8	 mov	 DWORD PTR _this$[ebp], ecx

; 920  : 		xMat m ;

  00023	8d 4d b0	 lea	 ecx, DWORD PTR _m$[ebp]
  00026	e8 00 00 00 00	 call	 ??0D3DXMATRIX@@QAE@XZ	; D3DXMATRIX::D3DXMATRIX

; 921  : 		
; 922  : 		// build desired translation matrix
; 923  : 		D3DXMatrixTranslation(&m, pv->x, pv->y, pv->z) ;

  0002b	8b 45 08	 mov	 eax, DWORD PTR _pv$[ebp]
  0002e	8b 48 08	 mov	 ecx, DWORD PTR [eax+8]
  00031	51		 push	 ecx
  00032	8b 55 08	 mov	 edx, DWORD PTR _pv$[ebp]
  00035	8b 42 04	 mov	 eax, DWORD PTR [edx+4]
  00038	50		 push	 eax
  00039	8b 4d 08	 mov	 ecx, DWORD PTR _pv$[ebp]
  0003c	8b 11		 mov	 edx, DWORD PTR [ecx]
  0003e	52		 push	 edx
  0003f	8d 45 b0	 lea	 eax, DWORD PTR _m$[ebp]
  00042	50		 push	 eax
  00043	e8 00 00 00 00	 call	 _D3DXMatrixTranslation@16

; 924  : 
; 925  : 		// apply to the object's bounding box
; 926  : 		m_pBBox->ApplyMatrix(&m) ;

  00048	8d 45 b0	 lea	 eax, DWORD PTR _m$[ebp]
  0004b	50		 push	 eax
  0004c	8b 4d f8	 mov	 ecx, DWORD PTR _this$[ebp]
  0004f	8b 89 70 0a 00
	00		 mov	 ecx, DWORD PTR [ecx+2672]
  00055	e8 00 00 00 00	 call	 ?ApplyMatrix@CBoundingBox@@QAEXPAUD3DXMATRIX@@@Z ; CBoundingBox::ApplyMatrix

; 927  : 
; 928  : 		// apply to object's world matrix
; 929  : 		D3DXMatrixMultiply(&m_matWorld, &m_matWorld, &m) ;

  0005a	8d 45 b0	 lea	 eax, DWORD PTR _m$[ebp]
  0005d	50		 push	 eax
  0005e	8b 4d f8	 mov	 ecx, DWORD PTR _this$[ebp]
  00061	81 c1 74 0a 00
	00		 add	 ecx, 2676		; 00000a74H
  00067	51		 push	 ecx
  00068	8b 55 f8	 mov	 edx, DWORD PTR _this$[ebp]
  0006b	81 c2 74 0a 00
	00		 add	 edx, 2676		; 00000a74H
  00071	52		 push	 edx
  00072	e8 00 00 00 00	 call	 _D3DXMatrixMultiply@12

; 930  : 	}

  00077	52		 push	 edx
  00078	8b cd		 mov	 ecx, ebp
  0007a	50		 push	 eax
  0007b	8d 15 00 00 00
	00		 lea	 edx, DWORD PTR $L86158
  00081	e8 00 00 00 00	 call	 @_RTC_CheckStackVars@8
  00086	58		 pop	 eax
  00087	5a		 pop	 edx
  00088	5f		 pop	 edi
  00089	5e		 pop	 esi
  0008a	5b		 pop	 ebx
  0008b	81 c4 14 01 00
	00		 add	 esp, 276		; 00000114H
  00091	3b ec		 cmp	 ebp, esp
  00093	e8 00 00 00 00	 call	 __RTC_CheckEsp
  00098	8b e5		 mov	 esp, ebp
  0009a	5d		 pop	 ebp
  0009b	c2 04 00	 ret	 4
$L86158:
  0009e	01 00 00 00	 DD	 1
  000a2	00 00 00 00	 DD	 $L86157
$L86157:
  000a6	b0 ff ff ff	 DD	 -80			; ffffffb0H
  000aa	40 00 00 00	 DD	 64			; 00000040H
  000ae	00 00 00 00	 DD	 $L86156
$L86156:
  000b2	6d		 DB	 109			; 0000006dH
  000b3	00		 DB	 0
?WorldTranslate@CProceduralRenderObject@@QAEXPAUD3DXVECTOR3@@@Z ENDP ; CProceduralRenderObject::WorldTranslate
_TEXT	ENDS
PUBLIC	__real@00000000
PUBLIC	?GetBBoxVisibilityFlags@CProceduralRenderObject@@QAEHPAUIDirect3DDevice8@@PAUD3DXMATRIX@@PAVCCamera@@PAU_D3DVIEWPORT8@@@Z ; CProceduralRenderObject::GetBBoxVisibilityFlags
PUBLIC	??0D3DXVECTOR4@@QAE@XZ				; D3DXVECTOR4::D3DXVECTOR4
EXTRN	_D3DXVec3Transform@12:NEAR
EXTRN	_D3DXVec3TransformCoord@12:NEAR
;	COMDAT __real@00000000
CONST	SEGMENT
__real@00000000 DD 000000000r			; 0
; Function compile flags: /Odt /RTCsu /ZI
CONST	ENDS
;	COMDAT ?GetBBoxVisibilityFlags@CProceduralRenderObject@@QAEHPAUIDirect3DDevice8@@PAUD3DXMATRIX@@PAVCCamera@@PAU_D3DVIEWPORT8@@@Z
_TEXT	SEGMENT
_v4$ = -384
_v$ = -248
_matView$ = -144
_nOut$ = -72
_t$ = -32
_i$ = -20
_this$ = -8
_pDev$ = 8
_pmatProj$ = 12
_pCam$ = 16
_pVP$ = 20
?GetBBoxVisibilityFlags@CProceduralRenderObject@@QAEHPAUIDirect3DDevice8@@PAUD3DXMATRIX@@PAVCCamera@@PAU_D3DVIEWPORT8@@@Z PROC NEAR ; CProceduralRenderObject::GetBBoxVisibilityFlags, COMDAT
; _this$ = ecx

; 938  : 	{

  00000	55		 push	 ebp
  00001	8b ec		 mov	 ebp, esp
  00003	81 ec 44 02 00
	00		 sub	 esp, 580		; 00000244H
  00009	53		 push	 ebx
  0000a	56		 push	 esi
  0000b	57		 push	 edi
  0000c	51		 push	 ecx
  0000d	8d bd bc fd ff
	ff		 lea	 edi, DWORD PTR [ebp-580]
  00013	b9 91 00 00 00	 mov	 ecx, 145		; 00000091H
  00018	b8 cc cc cc cc	 mov	 eax, -858993460		; ccccccccH
  0001d	f3 ab		 rep stosd
  0001f	59		 pop	 ecx
  00020	89 4d f8	 mov	 DWORD PTR _this$[ebp], ecx

; 939  : 		/*xVec3 vA, vB, vC ;
; 940  : 		xVec3 vpA, vpB, vpC ;
; 941  : 		xMat matView ;
; 942  : 		D3DXPLANE plnFrustrumPlane ;
; 943  : 		
; 944  : 		D3DXPLANE plnNear, plnLeft, plnRight, plnUp, plnDown ;
; 945  : 		int nRS, i ;
; 946  : 
; 947  : 		matView = xMat(pCam->m_matView) ;
; 948  : 
; 949  : 	//
; 950  : 	// Get viewing frustrum's near plane:
; 951  : 	//
; 952  : 		vpA = xVec3(0, 0, 0) ;
; 953  : 		vpB = xVec3((float)pVP->Width/2, 0, 0) ;
; 954  : 		vpC = xVec3((float)pVP->Width-1, (float)pVP->Height, 0) ;
; 955  : 		D3DXVec3Unproject(&vA, &vpA, pVP, pmatProj, &matView, &m_matWorld) ; 
; 956  : 		D3DXVec3Unproject(&vB, &vpB, pVP, pmatProj, &matView, &m_matWorld) ; 
; 957  : 		D3DXVec3Unproject(&vC, &vpC, pVP, pmatProj, &matView, &m_matWorld) ; 
; 958  : 		D3DXPlaneFromPoints(&plnNear, &vA, &vB, &vC) ;
; 959  : 
; 960  : 	//
; 961  : 	// Get viewing frustrum's left plane:
; 962  : 	//
; 963  : 		vpA = xVec3(0, 0, 0) ;
; 964  : 		vpB = xVec3(0, (float)pVP->Height/2, 0) ;
; 965  : 		vpC = xVec3(0, (float)pVP->Height-1, 0.1f) ;
; 966  : 		D3DXVec3Unproject(&vA, &vpA, pVP, pmatProj, &matView, &m_matWorld) ; 
; 967  : 		D3DXVec3Unproject(&vB, &vpB, pVP, pmatProj, &matView, &m_matWorld) ; 
; 968  : 		D3DXVec3Unproject(&vC, &vpC, pVP, pmatProj, &matView, &m_matWorld) ; 
; 969  : 		D3DXPlaneFromPoints(&plnLeft, &vA, &vB, &vC) ;
; 970  : 
; 971  : 	//
; 972  : 	// Get viewing frustrum's right plane:
; 973  : 	//
; 974  : 		vpA = xVec3((float)pVP->Width-1, 0, 0) ;
; 975  : 		vpB = xVec3((float)pVP->Width-1, (float)pVP->Height/2, 0) ;
; 976  : 		vpC = xVec3((float)pVP->Width-1, (float)pVP->Height-1, 0.1f) ;
; 977  : 		D3DXVec3Unproject(&vA, &vpA, pVP, pmatProj, &matView, &m_matWorld) ; 
; 978  : 		D3DXVec3Unproject(&vB, &vpB, pVP, pmatProj, &matView, &m_matWorld) ; 
; 979  : 		D3DXVec3Unproject(&vC, &vpC, pVP, pmatProj, &matView, &m_matWorld) ; 
; 980  : 		D3DXPlaneFromPoints(&plnRight, &vA, &vB, &vC) ;
; 981  : 
; 982  : 	//
; 983  : 	// Get viewing frustrum's upper plane:
; 984  : 	//
; 985  : 		vpA = xVec3(0, 0, 0) ;
; 986  : 		vpB = xVec3((float)pVP->Width/2, 0, 0.1f) ;
; 987  : 		vpC = xVec3((float)pVP->Width-1, 0, 0) ;
; 988  : 		D3DXVec3Unproject(&vA, &vpA, pVP, pmatProj, &matView, &m_matWorld) ; 
; 989  : 		D3DXVec3Unproject(&vB, &vpB, pVP, pmatProj, &matView, &m_matWorld) ; 
; 990  : 		D3DXVec3Unproject(&vC, &vpC, pVP, pmatProj, &matView, &m_matWorld) ; 
; 991  : 		D3DXPlaneFromPoints(&plnUp, &vA, &vB, &vC) ;
; 992  : 
; 993  : 	//
; 994  : 	// Get viewing frustrum's lower plane:
; 995  : 	//
; 996  : 		vpA = xVec3(0, (float)pVP->Height-1, 0) ;
; 997  : 		vpB = xVec3((float)pVP->Width/2, (float)pVP->Height-1, 0.1f) ;
; 998  : 		vpC = xVec3((float)pVP->Width-1, (float)pVP->Height-1, 0) ;
; 999  : 		D3DXVec3Unproject(&vA, &vpA, pVP, pmatProj, &matView, &m_matWorld) ; 
; 1000 : 		D3DXVec3Unproject(&vB, &vpB, pVP, pmatProj, &matView, &m_matWorld) ; 
; 1001 : 		D3DXVec3Unproject(&vC, &vpC, pVP, pmatProj, &matView, &m_matWorld) ; 
; 1002 : 		D3DXPlaneFromPoints(&plnDown, &vA, &vB, &vC) ;
; 1003 : 
; 1004 : 	//
; 1005 : 	// Loop through all of the vBBox[] vectors and test each against each plane.
; 1006 : 	//
; 1007 : 		for (i = 0 ; i < 8 ; i ++)
; 1008 : 		{
; 1009 : 			for (nRS = 0 ; nRS < m_nRSs ; nRS ++)
; 1010 : 			{
; 1011 : 				if (i==1)
; 1012 : 				{
; 1013 : 					fDE = D3DXPlaneDotCoord(&plnUp, &m_ntvRS[nRS].vBBox[i]) ;
; 1014 : 					fDA = plnUp.a ;
; 1015 : 					fDB = plnUp.b ;
; 1016 : 					fDC = plnUp.c ;
; 1017 : 					fDD = plnUp.d ;
; 1018 : 				}
; 1019 : 
; 1020 : 				m_ntvRS[nRS].bBBoxInFrontOfNearFrustrumPlane[i] = D3DXPlaneDotCoord(&plnNear, &m_ntvRS[nRS].vBBox[i]) < 0 ;
; 1021 : 				m_ntvRS[nRS].bBBoxRightOfLeftFrustrumPlane[i] = D3DXPlaneDotCoord(&plnLeft, &m_ntvRS[nRS].vBBox[i]) < 0 ;
; 1022 : 				m_ntvRS[nRS].bBBoxLeftOfRightFrustrumPlane[i] = D3DXPlaneDotCoord(&plnRight, &m_ntvRS[nRS].vBBox[i]) > 0 ;
; 1023 : 				m_ntvRS[nRS].bBBoxBelowUpperFrustrumPlane[i] = D3DXPlaneDotCoord(&plnUp, &m_ntvRS[nRS].vBBox[i]) < 0 ;
; 1024 : 				m_ntvRS[nRS].bBBoxAboveLowerFrustrumPlane[i] = D3DXPlaneDotCoord(&plnDown, &m_ntvRS[nRS].vBBox[i]) > 0 ;
; 1025 : 				m_ntvRS[nRS].bBBoxInFrontOfNearFrustrumPlane[i] = D3DXPlaneDotCoord(&plnNear, &m_ntvRS[nRS].vBBox[i]) < 0 ;
; 1026 : 			}
; 1027 : 		}
; 1028 : 		
; 1029 : 	//
; 1030 : 	// Results:
; 1031 : 	//
; 1032 : 		for (nRS = 0 ; nRS < m_nRSs ; nRS ++)
; 1033 : 		{
; 1034 : 		//
; 1035 : 		// Decide if it's visible or not:
; 1036 : 		//
; 1037 : 			m_ntvRS[nRS].bBBoxAllLeftOfLeft = TRUE ;
; 1038 : 			m_ntvRS[nRS].bBBoxAllRightOfRight = TRUE ;
; 1039 : 			m_ntvRS[nRS].bBBoxAllAboveUpper = TRUE ;
; 1040 : 			m_ntvRS[nRS].bBBoxAllBelowLower = TRUE ;
; 1041 : 			m_ntvRS[nRS].bBBoxAllBehindNear = TRUE ;
; 1042 : 
; 1043 : 			for (i = 0 ; i < 8 ; i ++)
; 1044 : 			{
; 1045 : 				if (m_ntvRS[nRS].bBBoxRightOfLeftFrustrumPlane[i])
; 1046 : 					m_ntvRS[nRS].bBBoxAllLeftOfLeft = FALSE ;
; 1047 : 				if (m_ntvRS[nRS].bBBoxLeftOfRightFrustrumPlane[i])
; 1048 : 					m_ntvRS[nRS].bBBoxAllRightOfRight = FALSE ;
; 1049 : 				if (m_ntvRS[nRS].bBBoxBelowUpperFrustrumPlane[i])
; 1050 : 					m_ntvRS[nRS].bBBoxAllAboveUpper = FALSE ;
; 1051 : 				if (m_ntvRS[nRS].bBBoxAboveLowerFrustrumPlane[i])
; 1052 : 					m_ntvRS[nRS].bBBoxAllBelowLower = FALSE ;
; 1053 : 				if (m_ntvRS[nRS].bBBoxInFrontOfNearFrustrumPlane[i])
; 1054 : 					m_ntvRS[nRS].bBBoxAllBehindNear = FALSE ;
; 1055 : 			}
; 1056 : 			
; 1057 : 			m_ntvRS[nRS].bVisible = TRUE ;
; 1058 : 
; 1059 : 			if (   m_ntvRS[nRS].bBBoxAllLeftOfLeft
; 1060 : 				|| m_ntvRS[nRS].bBBoxAllRightOfRight
; 1061 : 				|| m_ntvRS[nRS].bBBoxAllAboveUpper
; 1062 : 				|| m_ntvRS[nRS].bBBoxAllBelowLower
; 1063 : 				|| m_ntvRS[nRS].bBBoxAllBehindNear)
; 1064 : 				m_ntvRS[nRS].bVisible = FALSE ;
; 1065 : 		}*/
; 1066 : 
; 1067 : /*
; 1068 : m_matTransform is the view matrix but I must admit I should have found 
; 1069 : a
; 1070 : better name!
; 1071 : 
; 1072 : Laury MICHEL
; 1073 : 
; 1074 : "Well, it all started the day before today.  I remember it just like it 
; 1075 : was
; 1076 : yesturday."
; 1077 :   --Moleman from Sam & Max Hit The Road
; 1078 : 
; 1079 : 
; 1080 : -----Message d'origine-----
; 1081 : De : Dominic Morris [mailto:dominicmorris2@yahoo.com]
; 1082 : Envoye : lundi 26 mars 2001 16:46
; 1083 : A : Laury Michel
; 1084 : Objet : RE: how to get view frustrum planes
; 1085 : 
; 1086 : 
; 1087 : Laury,
; 1088 : 
; 1089 : thanks very much for this! is m_matTransform the
; 1090 : object's world matrix, or is it the view matrix, or is
; 1091 : it both multiplied together!?
; 1092 : 
; 1093 : thanks again,
; 1094 : dom
; 1095 : 
; 1096 : --- Laury Michel <michel@montecristogames.com> wrote:
; 1097 : > The following works fine for me!
; 1098 : >
; 1099 : > void Camera::ComputeFrustum()
; 1100 : > {
; 1101 : >   xMat matClip;
; 1102 : >   D3DXMatrixMultiply(&matClip, &m_matTransform,
; 1103 : > &m_matProjection);
; 1104 : >
; 1105 : > 	// Extract the RIGHT clipping plane
; 1106 : > 	m_frustumRight=D3DXPLANE(
; 1107 : >     matClip._14 - matClip._11,
; 1108 : >     matClip._24 - matClip._21,
; 1109 : >     matClip._34 - matClip._31,
; 1110 : >     matClip._44 - matClip._41);
; 1111 : >
; 1112 : >   // Normalize it
; 1113 : >   D3DXPlaneNormalize(&m_frustumRight,
; 1114 : > &m_frustumRight);
; 1115 : >
; 1116 : > 	// Extract the LEFT clipping plane
; 1117 : > 	m_frustumLeft=D3DXPLANE(
; 1118 : >     matClip._14 + matClip._11,
; 1119 : >     matClip._24 + matClip._21,
; 1120 : >     matClip._34 + matClip._31,
; 1121 : >     matClip._44 + matClip._41);
; 1122 : >
; 1123 : >   // Normalize it
; 1124 : >   D3DXPlaneNormalize(&m_frustumLeft,
; 1125 : > &m_frustumLeft);
; 1126 : >
; 1127 : > 	// Extract the BOTTOM clipping plane
; 1128 : > 	m_frustumBottom=D3DXPLANE(
; 1129 : >     matClip._14 + matClip._12,
; 1130 : >     matClip._24 + matClip._22,
; 1131 : >     matClip._34 + matClip._32,
; 1132 : >     matClip._44 + matClip._42);
; 1133 : >
; 1134 : >   // Normalize it
; 1135 : >   D3DXPlaneNormalize(&m_frustumBottom,
; 1136 : > &m_frustumBottom);
; 1137 : >
; 1138 : > 	// Extract the TOP clipping plane
; 1139 : > 	m_frustumTop=D3DXPLANE(
; 1140 : >     matClip._14 - matClip._12,
; 1141 : >     matClip._24 - matClip._22,
; 1142 : >     matClip._34 - matClip._32,
; 1143 : >     matClip._44 - matClip._42);
; 1144 : >
; 1145 : >   // Normalize it
; 1146 : >   D3DXPlaneNormalize(&m_frustumTop, &m_frustumTop);
; 1147 : >
; 1148 : > 	// Extract the FAR clipping plane
; 1149 : > 	m_frustumFar=D3DXPLANE(
; 1150 : >     matClip._14 - matClip._13,
; 1151 : >     matClip._24 - matClip._23,
; 1152 : >     matClip._34 - matClip._33,
; 1153 : >     matClip._44 - matClip._43);
; 1154 : >
; 1155 : >   // Normalize it
; 1156 : >   D3DXPlaneNormalize(&m_frustumFar, &m_frustumFar);
; 1157 : >
; 1158 : > 	// Extract the NEAR clipping plane.  This is last
; 1159 : > on purpose (see
; 1160 : > pointinfrustum() for reason)
; 1161 : > 	m_frustumNear=D3DXPLANE(
; 1162 : >     matClip._14 + matClip._13,
; 1163 : >     matClip._24 + matClip._23,
; 1164 : >     matClip._34 + matClip._33,
; 1165 : >     matClip._44 + matClip._43);
; 1166 : >
; 1167 : >   // Normalize it
; 1168 : >   D3DXPlaneNormalize(&m_frustumNear,
; 1169 : > &m_frustumNear);
; 1170 : > }
; 1171 : */
; 1172 : 
; 1173 : 
; 1174 : 	//-----------------------------------------------
; 1175 : 	//  See if this node is in the view frustrum
; 1176 : 	//-----------------------------------------------
; 1177 : 		int i, t, nOut[8] ;
; 1178 : 		//xMat matView = xMat(pCam->m_matView) ;
; 1179 : 		xMat matView = pCam->m_matView ;

  00023	8b 75 10	 mov	 esi, DWORD PTR _pCam$[ebp]
  00026	83 c6 30	 add	 esi, 48			; 00000030H
  00029	b9 10 00 00 00	 mov	 ecx, 16			; 00000010H
  0002e	8d bd 70 ff ff
	ff		 lea	 edi, DWORD PTR _matView$[ebp]
  00034	f3 a5		 rep movsd

; 1180 : 		xVec3 v[8] ;

  00036	68 00 00 00 00	 push	 OFFSET FLAT:??0D3DXVECTOR3@@QAE@XZ ; D3DXVECTOR3::D3DXVECTOR3
  0003b	6a 08		 push	 8
  0003d	6a 0c		 push	 12			; 0000000cH
  0003f	8d 85 08 ff ff
	ff		 lea	 eax, DWORD PTR _v$[ebp]
  00045	50		 push	 eax
  00046	e8 00 00 00 00	 call	 ??_H@YGXPAXIHP6EPAX0@Z@Z

; 1181 : 		xVec4 v4[8] ;

  0004b	68 00 00 00 00	 push	 OFFSET FLAT:??0D3DXVECTOR4@@QAE@XZ ; D3DXVECTOR4::D3DXVECTOR4
  00050	6a 08		 push	 8
  00052	6a 10		 push	 16			; 00000010H
  00054	8d 85 80 fe ff
	ff		 lea	 eax, DWORD PTR _v4$[ebp]
  0005a	50		 push	 eax
  0005b	e8 00 00 00 00	 call	 ??_H@YGXPAXIHP6EPAX0@Z@Z

; 1182 : 
; 1183 : 		for (i = 0 ; i < 8 ; i ++)

  00060	c7 45 ec 00 00
	00 00		 mov	 DWORD PTR _i$[ebp], 0
  00067	eb 09		 jmp	 SHORT $L85819
$L85820:
  00069	8b 45 ec	 mov	 eax, DWORD PTR _i$[ebp]
  0006c	83 c0 01	 add	 eax, 1
  0006f	89 45 ec	 mov	 DWORD PTR _i$[ebp], eax
$L85819:
  00072	83 7d ec 08	 cmp	 DWORD PTR _i$[ebp], 8
  00076	0f 8d 8d 00 00
	00		 jge	 $L85821

; 1184 : 		{
; 1185 : 			v[i] = m_pBBox->m_vVerts[i] ;

  0007c	8b 45 f8	 mov	 eax, DWORD PTR _this$[ebp]
  0007f	8b 88 70 0a 00
	00		 mov	 ecx, DWORD PTR [eax+2672]
  00085	8b 55 ec	 mov	 edx, DWORD PTR _i$[ebp]
  00088	6b d2 0c	 imul	 edx, 12			; 0000000cH
  0008b	8d 44 11 18	 lea	 eax, DWORD PTR [ecx+edx+24]
  0008f	8b 4d ec	 mov	 ecx, DWORD PTR _i$[ebp]
  00092	6b c9 0c	 imul	 ecx, 12			; 0000000cH
  00095	8d 94 0d 08 ff
	ff ff		 lea	 edx, DWORD PTR _v$[ebp+ecx]
  0009c	8b 08		 mov	 ecx, DWORD PTR [eax]
  0009e	89 0a		 mov	 DWORD PTR [edx], ecx
  000a0	8b 48 04	 mov	 ecx, DWORD PTR [eax+4]
  000a3	89 4a 04	 mov	 DWORD PTR [edx+4], ecx
  000a6	8b 40 08	 mov	 eax, DWORD PTR [eax+8]
  000a9	89 42 08	 mov	 DWORD PTR [edx+8], eax

; 1186 : 			//D3DXVec3TransformCoord(&v[i], &v[i], &m_matWorld) ;
; 1187 : 			D3DXVec3TransformCoord(&v[i], &v[i], &matView) ;

  000ac	8d 85 70 ff ff
	ff		 lea	 eax, DWORD PTR _matView$[ebp]
  000b2	50		 push	 eax
  000b3	8b 4d ec	 mov	 ecx, DWORD PTR _i$[ebp]
  000b6	6b c9 0c	 imul	 ecx, 12			; 0000000cH
  000b9	8d 94 0d 08 ff
	ff ff		 lea	 edx, DWORD PTR _v$[ebp+ecx]
  000c0	52		 push	 edx
  000c1	8b 45 ec	 mov	 eax, DWORD PTR _i$[ebp]
  000c4	6b c0 0c	 imul	 eax, 12			; 0000000cH
  000c7	8d 8c 05 08 ff
	ff ff		 lea	 ecx, DWORD PTR _v$[ebp+eax]
  000ce	51		 push	 ecx
  000cf	e8 00 00 00 00	 call	 _D3DXVec3TransformCoord@12

; 1188 : 			D3DXVec3Transform(&v4[i], &v[i], pmatProj) ;

  000d4	8b 45 0c	 mov	 eax, DWORD PTR _pmatProj$[ebp]
  000d7	50		 push	 eax
  000d8	8b 4d ec	 mov	 ecx, DWORD PTR _i$[ebp]
  000db	6b c9 0c	 imul	 ecx, 12			; 0000000cH
  000de	8d 94 0d 08 ff
	ff ff		 lea	 edx, DWORD PTR _v$[ebp+ecx]
  000e5	52		 push	 edx
  000e6	8b 45 ec	 mov	 eax, DWORD PTR _i$[ebp]
  000e9	c1 e0 04	 shl	 eax, 4
  000ec	8d 8c 05 80 fe
	ff ff		 lea	 ecx, DWORD PTR _v4$[ebp+eax]
  000f3	51		 push	 ecx
  000f4	e8 00 00 00 00	 call	 _D3DXVec3Transform@12

; 1189 : 			nOut[i] = 0 ;

  000f9	8b 45 ec	 mov	 eax, DWORD PTR _i$[ebp]
  000fc	c7 44 85 b8 00
	00 00 00	 mov	 DWORD PTR _nOut$[ebp+eax*4], 0

; 1190 : 		}

  00104	e9 60 ff ff ff	 jmp	 $L85820
$L85821:

; 1191 : 
; 1192 : 		m_bVisible = TRUE ;

  00109	8b 45 f8	 mov	 eax, DWORD PTR _this$[ebp]
  0010c	c7 80 b4 0a 00
	00 01 00 00 00	 mov	 DWORD PTR [eax+2740], 1

; 1193 : 		t = 0;

  00116	c7 45 e0 00 00
	00 00		 mov	 DWORD PTR _t$[ebp], 0

; 1194 : 		for ( i = 0; i < 8; i++ )

  0011d	c7 45 ec 00 00
	00 00		 mov	 DWORD PTR _i$[ebp], 0
  00124	eb 09		 jmp	 SHORT $L85822
$L85823:
  00126	8b 45 ec	 mov	 eax, DWORD PTR _i$[ebp]
  00129	83 c0 01	 add	 eax, 1
  0012c	89 45 ec	 mov	 DWORD PTR _i$[ebp], eax
$L85822:
  0012f	83 7d ec 08	 cmp	 DWORD PTR _i$[ebp], 8
  00133	7d 36		 jge	 SHORT $L85824

; 1195 : 			if (v4[i].z < 0)

  00135	8b 45 ec	 mov	 eax, DWORD PTR _i$[ebp]
  00138	c1 e0 04	 shl	 eax, 4
  0013b	d9 84 05 88 fe
	ff ff		 fld	 DWORD PTR _v4$[ebp+eax+8]
  00142	d8 1d 00 00 00
	00		 fcomp	 DWORD PTR __real@00000000
  00148	df e0		 fnstsw	 ax
  0014a	f6 c4 05	 test	 ah, 5
  0014d	7a 1a		 jp	 SHORT $L85825

; 1196 : 			{
; 1197 : 				nOut[i] += 1 ;

  0014f	8b 45 ec	 mov	 eax, DWORD PTR _i$[ebp]
  00152	8b 4c 85 b8	 mov	 ecx, DWORD PTR _nOut$[ebp+eax*4]
  00156	83 c1 01	 add	 ecx, 1
  00159	8b 55 ec	 mov	 edx, DWORD PTR _i$[ebp]
  0015c	89 4c 95 b8	 mov	 DWORD PTR _nOut$[ebp+edx*4], ecx

; 1198 : 				t++ ;

  00160	8b 45 e0	 mov	 eax, DWORD PTR _t$[ebp]
  00163	83 c0 01	 add	 eax, 1
  00166	89 45 e0	 mov	 DWORD PTR _t$[ebp], eax
$L85825:

; 1199 : 			}
; 1200 : 		if ( t >= 8 ) m_bVisible = FALSE ;

  00169	eb bb		 jmp	 SHORT $L85823
$L85824:
  0016b	83 7d e0 08	 cmp	 DWORD PTR _t$[ebp], 8
  0016f	7c 0d		 jl	 SHORT $L85826
  00171	8b 45 f8	 mov	 eax, DWORD PTR _this$[ebp]
  00174	c7 80 b4 0a 00
	00 00 00 00 00	 mov	 DWORD PTR [eax+2740], 0
$L85826:

; 1201 : 
; 1202 : 		t = 0;

  0017e	c7 45 e0 00 00
	00 00		 mov	 DWORD PTR _t$[ebp], 0

; 1203 : 		for ( i = 0; i < 8; i++ )

  00185	c7 45 ec 00 00
	00 00		 mov	 DWORD PTR _i$[ebp], 0
  0018c	eb 09		 jmp	 SHORT $L85827
$L85828:
  0018e	8b 45 ec	 mov	 eax, DWORD PTR _i$[ebp]
  00191	83 c0 01	 add	 eax, 1
  00194	89 45 ec	 mov	 DWORD PTR _i$[ebp], eax
$L85827:
  00197	83 7d ec 08	 cmp	 DWORD PTR _i$[ebp], 8
  0019b	7d 3d		 jge	 SHORT $L85829

; 1204 : 			if (v4[i].x > v4[i].w)

  0019d	8b 45 ec	 mov	 eax, DWORD PTR _i$[ebp]
  001a0	c1 e0 04	 shl	 eax, 4
  001a3	8b 4d ec	 mov	 ecx, DWORD PTR _i$[ebp]
  001a6	c1 e1 04	 shl	 ecx, 4
  001a9	d9 84 05 80 fe
	ff ff		 fld	 DWORD PTR _v4$[ebp+eax]
  001b0	d8 9c 0d 8c fe
	ff ff		 fcomp	 DWORD PTR _v4$[ebp+ecx+12]
  001b7	df e0		 fnstsw	 ax
  001b9	f6 c4 41	 test	 ah, 65			; 00000041H
  001bc	75 1a		 jne	 SHORT $L85830

; 1205 : 			{
; 1206 : 				nOut[i] += 2 ;

  001be	8b 45 ec	 mov	 eax, DWORD PTR _i$[ebp]
  001c1	8b 4c 85 b8	 mov	 ecx, DWORD PTR _nOut$[ebp+eax*4]
  001c5	83 c1 02	 add	 ecx, 2
  001c8	8b 55 ec	 mov	 edx, DWORD PTR _i$[ebp]
  001cb	89 4c 95 b8	 mov	 DWORD PTR _nOut$[ebp+edx*4], ecx

; 1207 : 				t++ ;

  001cf	8b 45 e0	 mov	 eax, DWORD PTR _t$[ebp]
  001d2	83 c0 01	 add	 eax, 1
  001d5	89 45 e0	 mov	 DWORD PTR _t$[ebp], eax
$L85830:

; 1208 : 			}
; 1209 : 		if ( t >= 8 ) m_bVisible = FALSE ;

  001d8	eb b4		 jmp	 SHORT $L85828
$L85829:
  001da	83 7d e0 08	 cmp	 DWORD PTR _t$[ebp], 8
  001de	7c 0d		 jl	 SHORT $L85831
  001e0	8b 45 f8	 mov	 eax, DWORD PTR _this$[ebp]
  001e3	c7 80 b4 0a 00
	00 00 00 00 00	 mov	 DWORD PTR [eax+2740], 0
$L85831:

; 1210 : 
; 1211 : 		t = 0;

  001ed	c7 45 e0 00 00
	00 00		 mov	 DWORD PTR _t$[ebp], 0

; 1212 : 		for ( i = 0; i < 8; i++ )

  001f4	c7 45 ec 00 00
	00 00		 mov	 DWORD PTR _i$[ebp], 0
  001fb	eb 09		 jmp	 SHORT $L85832
$L85833:
  001fd	8b 45 ec	 mov	 eax, DWORD PTR _i$[ebp]
  00200	83 c0 01	 add	 eax, 1
  00203	89 45 ec	 mov	 DWORD PTR _i$[ebp], eax
$L85832:
  00206	83 7d ec 08	 cmp	 DWORD PTR _i$[ebp], 8
  0020a	7d 3f		 jge	 SHORT $L85834

; 1213 : 			if ( v4[i].x < -v4[i].w )

  0020c	8b 45 ec	 mov	 eax, DWORD PTR _i$[ebp]
  0020f	c1 e0 04	 shl	 eax, 4
  00212	8b 4d ec	 mov	 ecx, DWORD PTR _i$[ebp]
  00215	c1 e1 04	 shl	 ecx, 4
  00218	d9 84 0d 8c fe
	ff ff		 fld	 DWORD PTR _v4$[ebp+ecx+12]
  0021f	d9 e0		 fchs
  00221	d8 9c 05 80 fe
	ff ff		 fcomp	 DWORD PTR _v4$[ebp+eax]
  00228	df e0		 fnstsw	 ax
  0022a	f6 c4 41	 test	 ah, 65			; 00000041H
  0022d	75 1a		 jne	 SHORT $L85835

; 1214 : 			{
; 1215 : 				nOut[i] += 4 ;

  0022f	8b 45 ec	 mov	 eax, DWORD PTR _i$[ebp]
  00232	8b 4c 85 b8	 mov	 ecx, DWORD PTR _nOut$[ebp+eax*4]
  00236	83 c1 04	 add	 ecx, 4
  00239	8b 55 ec	 mov	 edx, DWORD PTR _i$[ebp]
  0023c	89 4c 95 b8	 mov	 DWORD PTR _nOut$[ebp+edx*4], ecx

; 1216 : 				t++ ;

  00240	8b 45 e0	 mov	 eax, DWORD PTR _t$[ebp]
  00243	83 c0 01	 add	 eax, 1
  00246	89 45 e0	 mov	 DWORD PTR _t$[ebp], eax
$L85835:

; 1217 : 			}
; 1218 : 		if ( t >= 8 ) m_bVisible = FALSE ;

  00249	eb b2		 jmp	 SHORT $L85833
$L85834:
  0024b	83 7d e0 08	 cmp	 DWORD PTR _t$[ebp], 8
  0024f	7c 0d		 jl	 SHORT $L85836
  00251	8b 45 f8	 mov	 eax, DWORD PTR _this$[ebp]
  00254	c7 80 b4 0a 00
	00 00 00 00 00	 mov	 DWORD PTR [eax+2740], 0
$L85836:

; 1219 : 
; 1220 : 		t = 0;

  0025e	c7 45 e0 00 00
	00 00		 mov	 DWORD PTR _t$[ebp], 0

; 1221 : 		for ( i = 0; i < 8; i++ )

  00265	c7 45 ec 00 00
	00 00		 mov	 DWORD PTR _i$[ebp], 0
  0026c	eb 09		 jmp	 SHORT $L85837
$L85838:
  0026e	8b 45 ec	 mov	 eax, DWORD PTR _i$[ebp]
  00271	83 c0 01	 add	 eax, 1
  00274	89 45 ec	 mov	 DWORD PTR _i$[ebp], eax
$L85837:
  00277	83 7d ec 08	 cmp	 DWORD PTR _i$[ebp], 8
  0027b	7d 3d		 jge	 SHORT $L85839

; 1222 : 			if ( v4[i].y > v4[i].w )

  0027d	8b 45 ec	 mov	 eax, DWORD PTR _i$[ebp]
  00280	c1 e0 04	 shl	 eax, 4
  00283	8b 4d ec	 mov	 ecx, DWORD PTR _i$[ebp]
  00286	c1 e1 04	 shl	 ecx, 4
  00289	d9 84 05 84 fe
	ff ff		 fld	 DWORD PTR _v4$[ebp+eax+4]
  00290	d8 9c 0d 8c fe
	ff ff		 fcomp	 DWORD PTR _v4$[ebp+ecx+12]
  00297	df e0		 fnstsw	 ax
  00299	f6 c4 41	 test	 ah, 65			; 00000041H
  0029c	75 1a		 jne	 SHORT $L85840

; 1223 : 			{
; 1224 : 				nOut[i] += 8 ;

  0029e	8b 45 ec	 mov	 eax, DWORD PTR _i$[ebp]
  002a1	8b 4c 85 b8	 mov	 ecx, DWORD PTR _nOut$[ebp+eax*4]
  002a5	83 c1 08	 add	 ecx, 8
  002a8	8b 55 ec	 mov	 edx, DWORD PTR _i$[ebp]
  002ab	89 4c 95 b8	 mov	 DWORD PTR _nOut$[ebp+edx*4], ecx

; 1225 : 				t++;

  002af	8b 45 e0	 mov	 eax, DWORD PTR _t$[ebp]
  002b2	83 c0 01	 add	 eax, 1
  002b5	89 45 e0	 mov	 DWORD PTR _t$[ebp], eax
$L85840:

; 1226 : 			}
; 1227 : 		if ( t >= 8 ) m_bVisible = FALSE ;

  002b8	eb b4		 jmp	 SHORT $L85838
$L85839:
  002ba	83 7d e0 08	 cmp	 DWORD PTR _t$[ebp], 8
  002be	7c 0d		 jl	 SHORT $L85841
  002c0	8b 45 f8	 mov	 eax, DWORD PTR _this$[ebp]
  002c3	c7 80 b4 0a 00
	00 00 00 00 00	 mov	 DWORD PTR [eax+2740], 0
$L85841:

; 1228 : 
; 1229 : 		t = 0;

  002cd	c7 45 e0 00 00
	00 00		 mov	 DWORD PTR _t$[ebp], 0

; 1230 : 		for ( i = 0; i < 8; i++ )

  002d4	c7 45 ec 00 00
	00 00		 mov	 DWORD PTR _i$[ebp], 0
  002db	eb 09		 jmp	 SHORT $L85842
$L85843:
  002dd	8b 45 ec	 mov	 eax, DWORD PTR _i$[ebp]
  002e0	83 c0 01	 add	 eax, 1
  002e3	89 45 ec	 mov	 DWORD PTR _i$[ebp], eax
$L85842:
  002e6	83 7d ec 08	 cmp	 DWORD PTR _i$[ebp], 8
  002ea	7d 3f		 jge	 SHORT $L85844

; 1231 : 			if ( v4[i].y < -v4[i].w )

  002ec	8b 45 ec	 mov	 eax, DWORD PTR _i$[ebp]
  002ef	c1 e0 04	 shl	 eax, 4
  002f2	8b 4d ec	 mov	 ecx, DWORD PTR _i$[ebp]
  002f5	c1 e1 04	 shl	 ecx, 4
  002f8	d9 84 0d 8c fe
	ff ff		 fld	 DWORD PTR _v4$[ebp+ecx+12]
  002ff	d9 e0		 fchs
  00301	d8 9c 05 84 fe
	ff ff		 fcomp	 DWORD PTR _v4$[ebp+eax+4]
  00308	df e0		 fnstsw	 ax
  0030a	f6 c4 41	 test	 ah, 65			; 00000041H
  0030d	75 1a		 jne	 SHORT $L85845

; 1232 : 			{
; 1233 : 				nOut[i] += 16 ;

  0030f	8b 45 ec	 mov	 eax, DWORD PTR _i$[ebp]
  00312	8b 4c 85 b8	 mov	 ecx, DWORD PTR _nOut$[ebp+eax*4]
  00316	83 c1 10	 add	 ecx, 16			; 00000010H
  00319	8b 55 ec	 mov	 edx, DWORD PTR _i$[ebp]
  0031c	89 4c 95 b8	 mov	 DWORD PTR _nOut$[ebp+edx*4], ecx

; 1234 : 				t++;

  00320	8b 45 e0	 mov	 eax, DWORD PTR _t$[ebp]
  00323	83 c0 01	 add	 eax, 1
  00326	89 45 e0	 mov	 DWORD PTR _t$[ebp], eax
$L85845:

; 1235 : 			}
; 1236 : 		if ( t >= 8 ) m_bVisible = FALSE ;

  00329	eb b2		 jmp	 SHORT $L85843
$L85844:
  0032b	83 7d e0 08	 cmp	 DWORD PTR _t$[ebp], 8
  0032f	7c 0d		 jl	 SHORT $L85810
  00331	8b 45 f8	 mov	 eax, DWORD PTR _this$[ebp]
  00334	c7 80 b4 0a 00
	00 00 00 00 00	 mov	 DWORD PTR [eax+2740], 0
$L85810:

; 1237 : 
; 1238 : 		// process bbox verts
; 1239 : 		/*pDev->GetClipStatus(&m_csVis) ;
; 1240 : 		pDev->SetRenderState(D3DRS_SOFTWAREVERTEXPROCESSING, TRUE) ;
; 1241 : 		pDev->SetStreamSource(0, m_pBBox->m_pVB, sizeof(COLOREDVERTEX)) ;
; 1242 : 		pDev->SetIndices(m_pBBox->m_pIB, 0) ;
; 1243 : 		pDev->SetVertexShader(MYFVF_COLOREDVERTEX) ;
; 1244 : 		if (pDev->ProcessVertices(0, 0, 8, m_pBBox->m_pVBProcessed, 0) != D3D_OK)
; 1245 : 			Msg("GetBBoxVisibilityFlags ProcessVertices FAILS") ;
; 1246 : 		pDev->GetClipStatus(&m_csVis) ;
; 1247 : 		pDev->SetRenderState(D3DRS_SOFTWAREVERTEXPROCESSING, FALSE) ;*/
; 1248 : 		/*BYTE *pVerts ;
; 1249 : 		if (FAILED(m_pBBox->m_pVBProcessed->Lock(0, 0, &pVerts, 0)))
; 1250 : 			Msg("GetBBoxVisibilityFlags Lock FAILS") ;
; 1251 : 		for (i = 0 ; i < 8 ; i ++) 
; 1252 : 		{
; 1253 : 			PROCESSEDVERTEX *pV ;
; 1254 : 			pV = (PROCESSEDVERTEX*)pVerts ;
; 1255 : 			m_vP[i].x = pV->x ;
; 1256 : 			m_vP[i].y = pV->y ;
; 1257 : 			m_vP[i].z = pV->z ;
; 1258 : 			pVerts += sizeof(PROCESSEDVERTEX) ;
; 1259 : 		}
; 1260 : 		m_pBBox->m_pVBProcessed->Unlock() ;
; 1261 : 		
; 1262 : 		// decide if all verts are clipped
; 1263 : 		int t ; 
; 1264 : 		m_bVisible = TRUE ;
; 1265 : 		for (i = t = 0 ; i < 8 ; i ++)
; 1266 : 			if (m_vP[i].x > (float)pVP->Width) t ++ ;
; 1267 : 		if (t == 8) m_bVisible = FALSE ;
; 1268 : 
; 1269 : 		for (i = t = 0 ; i < 8 ; i ++)
; 1270 : 			if (m_vP[i].x < 0.0f) t ++ ;
; 1271 : 		if (t == 8) m_bVisible = FALSE ;
; 1272 : 
; 1273 : 		for (i = t = 0 ; i < 8 ; i ++)
; 1274 : 			if (m_vP[i].y > (float)pVP->Height) t ++ ;
; 1275 : 		if (t == 8) m_bVisible = FALSE ;
; 1276 : 
; 1277 : 		for (i = t = 0 ; i < 8 ; i ++)
; 1278 : 			if (m_vP[i].y < 0.0f) t ++ ;
; 1279 : 		if (t == 8) m_bVisible = FALSE ;*/
; 1280 : 	}

  0033e	52		 push	 edx
  0033f	8b cd		 mov	 ecx, ebp
  00341	50		 push	 eax
  00342	8d 15 00 00 00
	00		 lea	 edx, DWORD PTR $L86168
  00348	e8 00 00 00 00	 call	 @_RTC_CheckStackVars@8
  0034d	58		 pop	 eax
  0034e	5a		 pop	 edx
  0034f	5f		 pop	 edi
  00350	5e		 pop	 esi
  00351	5b		 pop	 ebx
  00352	81 c4 44 02 00
	00		 add	 esp, 580		; 00000244H
  00358	3b ec		 cmp	 ebp, esp
  0035a	e8 00 00 00 00	 call	 __RTC_CheckEsp
  0035f	8b e5		 mov	 esp, ebp
  00361	5d		 pop	 ebp
  00362	c2 10 00	 ret	 16			; 00000010H
$L86168:
  00365	04 00 00 00	 DD	 4
  00369	00 00 00 00	 DD	 $L86167
$L86167:
  0036d	b8 ff ff ff	 DD	 -72			; ffffffb8H
  00371	20 00 00 00	 DD	 32			; 00000020H
  00375	00 00 00 00	 DD	 $L86163
  00379	70 ff ff ff	 DD	 -144			; ffffff70H
  0037d	40 00 00 00	 DD	 64			; 00000040H
  00381	00 00 00 00	 DD	 $L86164
  00385	08 ff ff ff	 DD	 -248			; ffffff08H
  00389	60 00 00 00	 DD	 96			; 00000060H
  0038d	00 00 00 00	 DD	 $L86165
  00391	80 fe ff ff	 DD	 -384			; fffffe80H
  00395	80 00 00 00	 DD	 128			; 00000080H
  00399	00 00 00 00	 DD	 $L86166
$L86166:
  0039d	76		 DB	 118			; 00000076H
  0039e	34		 DB	 52			; 00000034H
  0039f	00		 DB	 0
$L86165:
  003a0	76		 DB	 118			; 00000076H
  003a1	00		 DB	 0
$L86164:
  003a2	6d		 DB	 109			; 0000006dH
  003a3	61		 DB	 97			; 00000061H
  003a4	74		 DB	 116			; 00000074H
  003a5	56		 DB	 86			; 00000056H
  003a6	69		 DB	 105			; 00000069H
  003a7	65		 DB	 101			; 00000065H
  003a8	77		 DB	 119			; 00000077H
  003a9	00		 DB	 0
$L86163:
  003aa	6e		 DB	 110			; 0000006eH
  003ab	4f		 DB	 79			; 0000004fH
  003ac	75		 DB	 117			; 00000075H
  003ad	74		 DB	 116			; 00000074H
  003ae	00		 DB	 0
?GetBBoxVisibilityFlags@CProceduralRenderObject@@QAEHPAUIDirect3DDevice8@@PAUD3DXMATRIX@@PAVCCamera@@PAU_D3DVIEWPORT8@@@Z ENDP ; CProceduralRenderObject::GetBBoxVisibilityFlags
; Function compile flags: /Odt /RTCsu /ZI
; File c:\dxsdk\include\d3dx8math.h
_TEXT	ENDS
;	COMDAT ??0D3DXVECTOR4@@QAE@XZ
_TEXT	SEGMENT
_this$ = -8
??0D3DXVECTOR4@@QAE@XZ PROC NEAR			; D3DXVECTOR4::D3DXVECTOR4, COMDAT
; _this$ = ecx

; 133  :     D3DXVECTOR4() {};

  00000	55		 push	 ebp
  00001	8b ec		 mov	 ebp, esp
  00003	81 ec cc 00 00
	00		 sub	 esp, 204		; 000000ccH
  00009	53		 push	 ebx
  0000a	56		 push	 esi
  0000b	57		 push	 edi
  0000c	51		 push	 ecx
  0000d	8d bd 34 ff ff
	ff		 lea	 edi, DWORD PTR [ebp-204]
  00013	b9 33 00 00 00	 mov	 ecx, 51			; 00000033H
  00018	b8 cc cc cc cc	 mov	 eax, -858993460		; ccccccccH
  0001d	f3 ab		 rep stosd
  0001f	59		 pop	 ecx
  00020	89 4d f8	 mov	 DWORD PTR _this$[ebp], ecx
  00023	8b 45 f8	 mov	 eax, DWORD PTR _this$[ebp]
  00026	5f		 pop	 edi
  00027	5e		 pop	 esi
  00028	5b		 pop	 ebx
  00029	8b e5		 mov	 esp, ebp
  0002b	5d		 pop	 ebp
  0002c	c3		 ret	 0
??0D3DXVECTOR4@@QAE@XZ ENDP				; D3DXVECTOR4::D3DXVECTOR4
_TEXT	ENDS
PUBLIC	?Render@CProceduralRenderObject@@QAEJPAUIDirect3DDevice8@@PAVCTextures@@PAKHPAUD3DXMATRIX@@_N@Z ; CProceduralRenderObject::Render
PUBLIC	?__LINE__Var@?1??Render@CProceduralRenderObject@@QAEJPAUIDirect3DDevice8@@PAVCTextures@@PAKHPAUD3DXMATRIX@@_N@Z@4JA ; `CProceduralRenderObject::Render'::`2'::__LINE__Var
PUBLIC	??_C@_0L@CJJJJEMF@hr?$DN?$DND3D_OK?$AA@		; `string'
PUBLIC	??_C@_03JFMEENOE@ERR?$AA@			; `string'
EXTRN	?Msg2@@YAXPADZZ:NEAR				; Msg2
;	COMDAT ?__LINE__Var@?1??Render@CProceduralRenderObject@@QAEJPAUIDirect3DDevice8@@PAVCTextures@@PAKHPAUD3DXMATRIX@@_N@Z@4JA
; File c:\documents and settings\dom\my documents\_dev\ae\xlr8a\x7g\cproceduralrenderobject.cpp
_DATA	SEGMENT
?__LINE__Var@?1??Render@CProceduralRenderObject@@QAEJPAUIDirect3DDevice8@@PAVCTextures@@PAKHPAUD3DXMATRIX@@_N@Z@4JA DD 0508H ; `CProceduralRenderObject::Render'::`2'::__LINE__Var
_DATA	ENDS
;	COMDAT ??_C@_0L@CJJJJEMF@hr?$DN?$DND3D_OK?$AA@
CONST	SEGMENT
??_C@_0L@CJJJJEMF@hr?$DN?$DND3D_OK?$AA@ DB 'hr==D3D_OK', 00H ; `string'
CONST	ENDS
;	COMDAT ??_C@_03JFMEENOE@ERR?$AA@
CONST	SEGMENT
??_C@_03JFMEENOE@ERR?$AA@ DB 'ERR', 00H			; `string'
; Function compile flags: /Odt /RTCsu /ZI
CONST	ENDS
;	COMDAT ?Render@CProceduralRenderObject@@QAEJPAUIDirect3DDevice8@@PAVCTextures@@PAKHPAUD3DXMATRIX@@_N@Z
_TEXT	SEGMENT
_pIB$85865 = -132
_pVB$85864 = -120
_i$85860 = -108
_matCombinedWorld$ = -96
_hr$ = -20
_this$ = -8
_pDev$ = 8
_pTex$ = 12
_pulPolyCount$ = 16
_nDS$ = 20
_pmatCurWorld$ = 24
_bCallerWantsAutoGendTexCoords$ = 28
?Render@CProceduralRenderObject@@QAEJPAUIDirect3DDevice8@@PAVCTextures@@PAKHPAUD3DXMATRIX@@_N@Z PROC NEAR ; CProceduralRenderObject::Render, COMDAT
; _this$ = ecx

; 1288 : 	{

  00000	55		 push	 ebp
  00001	8b ec		 mov	 ebp, esp
  00003	81 ec 48 01 00
	00		 sub	 esp, 328		; 00000148H
  00009	53		 push	 ebx
  0000a	56		 push	 esi
  0000b	57		 push	 edi
  0000c	51		 push	 ecx
  0000d	8d bd b8 fe ff
	ff		 lea	 edi, DWORD PTR [ebp-328]
  00013	b9 52 00 00 00	 mov	 ecx, 82			; 00000052H
  00018	b8 cc cc cc cc	 mov	 eax, -858993460		; ccccccccH
  0001d	f3 ab		 rep stosd
  0001f	59		 pop	 ecx
  00020	89 4d f8	 mov	 DWORD PTR _this$[ebp], ecx

; 1289 : 		HRESULT hr ;
; 1290 : 		xMat matCombinedWorld ;

  00023	8d 4d a0	 lea	 ecx, DWORD PTR _matCombinedWorld$[ebp]
  00026	e8 00 00 00 00	 call	 ??0D3DXMATRIX@@QAE@XZ	; D3DXMATRIX::D3DXMATRIX

; 1291 : 
; 1292 : 		matCombinedWorld = m_matWorld ;

  0002b	8b 75 f8	 mov	 esi, DWORD PTR _this$[ebp]
  0002e	81 c6 74 0a 00
	00		 add	 esi, 2676		; 00000a74H
  00034	b9 10 00 00 00	 mov	 ecx, 16			; 00000010H
  00039	8d 7d a0	 lea	 edi, DWORD PTR _matCombinedWorld$[ebp]
  0003c	f3 a5		 rep movsd

; 1293 : 		if (pmatCurWorld)

  0003e	83 7d 18 00	 cmp	 DWORD PTR _pmatCurWorld$[ebp], 0
  00042	74 11		 je	 SHORT $L85858

; 1294 : 			D3DXMatrixMultiply(&matCombinedWorld, &matCombinedWorld, pmatCurWorld) ;

  00044	8b 45 18	 mov	 eax, DWORD PTR _pmatCurWorld$[ebp]
  00047	50		 push	 eax
  00048	8d 4d a0	 lea	 ecx, DWORD PTR _matCombinedWorld$[ebp]
  0004b	51		 push	 ecx
  0004c	8d 55 a0	 lea	 edx, DWORD PTR _matCombinedWorld$[ebp]
  0004f	52		 push	 edx
  00050	e8 00 00 00 00	 call	 _D3DXMatrixMultiply@12
$L85858:

; 1295 : 		pDev->SetTransform(D3DTS_WORLD, &matCombinedWorld) ;

  00055	8b f4		 mov	 esi, esp
  00057	8d 45 a0	 lea	 eax, DWORD PTR _matCombinedWorld$[ebp]
  0005a	50		 push	 eax
  0005b	68 00 01 00 00	 push	 256			; 00000100H
  00060	8b 4d 08	 mov	 ecx, DWORD PTR _pDev$[ebp]
  00063	8b 11		 mov	 edx, DWORD PTR [ecx]
  00065	8b 45 08	 mov	 eax, DWORD PTR _pDev$[ebp]
  00068	50		 push	 eax
  00069	ff 92 94 00 00
	00		 call	 DWORD PTR [edx+148]
  0006f	3b f4		 cmp	 esi, esp
  00071	e8 00 00 00 00	 call	 __RTC_CheckEsp

; 1296 : 
; 1297 : 		for (int i = 0 ; i < m_nRSs ; i ++)

  00076	c7 45 94 00 00
	00 00		 mov	 DWORD PTR _i$85860[ebp], 0
  0007d	eb 09		 jmp	 SHORT $L85861
$L85862:
  0007f	8b 45 94	 mov	 eax, DWORD PTR _i$85860[ebp]
  00082	83 c0 01	 add	 eax, 1
  00085	89 45 94	 mov	 DWORD PTR _i$85860[ebp], eax
$L85861:
  00088	8b 45 f8	 mov	 eax, DWORD PTR _this$[ebp]
  0008b	8b 4d 94	 mov	 ecx, DWORD PTR _i$85860[ebp]
  0008e	3b 88 48 0a 00
	00		 cmp	 ecx, DWORD PTR [eax+2632]
  00094	0f 8d 8a 06 00
	00		 jge	 $L85863

; 1298 : 		{
; 1299 : 			LPDIRECT3DVERTEXBUFFER8 pVB ;
; 1300 : 			LPDIRECT3DINDEXBUFFER8 pIB ;
; 1301 : 
; 1302 : 			if (m_bUseD3DXMesh)

  0009a	8b 45 f8	 mov	 eax, DWORD PTR _this$[ebp]
  0009d	83 b8 54 0a 00
	00 00		 cmp	 DWORD PTR [eax+2644], 0
  000a4	74 77		 je	 SHORT $L85866

; 1303 : 			{
; 1304 : 				m_ntvRS[i].pMesh->GetVertexBuffer(&pVB) ;

  000a6	8b f4		 mov	 esi, esp
  000a8	8d 45 88	 lea	 eax, DWORD PTR _pVB$85864[ebp]
  000ab	50		 push	 eax
  000ac	8b 4d 94	 mov	 ecx, DWORD PTR _i$85860[ebp]
  000af	69 c9 44 01 00
	00		 imul	 ecx, 324		; 00000144H
  000b5	8b 55 f8	 mov	 edx, DWORD PTR _this$[ebp]
  000b8	8b 84 0a 94 00
	00 00		 mov	 eax, DWORD PTR [edx+ecx+148]
  000bf	8b 4d 94	 mov	 ecx, DWORD PTR _i$85860[ebp]
  000c2	69 c9 44 01 00
	00		 imul	 ecx, 324		; 00000144H
  000c8	8b 55 f8	 mov	 edx, DWORD PTR _this$[ebp]
  000cb	8b 8c 0a 94 00
	00 00		 mov	 ecx, DWORD PTR [edx+ecx+148]
  000d2	8b 10		 mov	 edx, DWORD PTR [eax]
  000d4	51		 push	 ecx
  000d5	ff 52 30	 call	 DWORD PTR [edx+48]
  000d8	3b f4		 cmp	 esi, esp
  000da	e8 00 00 00 00	 call	 __RTC_CheckEsp

; 1305 : 				m_ntvRS[i].pMesh->GetIndexBuffer(&pIB) ;

  000df	8b f4		 mov	 esi, esp
  000e1	8d 85 7c ff ff
	ff		 lea	 eax, DWORD PTR _pIB$85865[ebp]
  000e7	50		 push	 eax
  000e8	8b 4d 94	 mov	 ecx, DWORD PTR _i$85860[ebp]
  000eb	69 c9 44 01 00
	00		 imul	 ecx, 324		; 00000144H
  000f1	8b 55 f8	 mov	 edx, DWORD PTR _this$[ebp]
  000f4	8b 84 0a 94 00
	00 00		 mov	 eax, DWORD PTR [edx+ecx+148]
  000fb	8b 4d 94	 mov	 ecx, DWORD PTR _i$85860[ebp]
  000fe	69 c9 44 01 00
	00		 imul	 ecx, 324		; 00000144H
  00104	8b 55 f8	 mov	 edx, DWORD PTR _this$[ebp]
  00107	8b 8c 0a 94 00
	00 00		 mov	 ecx, DWORD PTR [edx+ecx+148]
  0010e	8b 10		 mov	 edx, DWORD PTR [eax]
  00110	51		 push	 ecx
  00111	ff 52 34	 call	 DWORD PTR [edx+52]
  00114	3b f4		 cmp	 esi, esp
  00116	e8 00 00 00 00	 call	 __RTC_CheckEsp

; 1306 : 			}
; 1307 : 			else

  0011b	eb 2f		 jmp	 SHORT $L85867
$L85866:

; 1308 : 			{
; 1309 : 				pVB = m_ntvRS[i].pVB ;

  0011d	8b 45 94	 mov	 eax, DWORD PTR _i$85860[ebp]
  00120	69 c0 44 01 00
	00		 imul	 eax, 324		; 00000144H
  00126	8b 4d f8	 mov	 ecx, DWORD PTR _this$[ebp]
  00129	8b 94 01 98 00
	00 00		 mov	 edx, DWORD PTR [ecx+eax+152]
  00130	89 55 88	 mov	 DWORD PTR _pVB$85864[ebp], edx

; 1310 : 				pIB = m_ntvRS[i].pIB ;

  00133	8b 45 94	 mov	 eax, DWORD PTR _i$85860[ebp]
  00136	69 c0 44 01 00
	00		 imul	 eax, 324		; 00000144H
  0013c	8b 4d f8	 mov	 ecx, DWORD PTR _this$[ebp]
  0013f	8b 94 01 9c 00
	00 00		 mov	 edx, DWORD PTR [ecx+eax+156]
  00146	89 95 7c ff ff
	ff		 mov	 DWORD PTR _pIB$85865[ebp], edx
$L85867:

; 1311 : 			}
; 1312 : 
; 1313 : 			if (m_dwFVF == MYFVF_UNCOLOREDVERTEX)

  0014c	8b 45 f8	 mov	 eax, DWORD PTR _this$[ebp]
  0014f	81 38 12 01 00
	00		 cmp	 DWORD PTR [eax], 274	; 00000112H
  00155	75 20		 jne	 SHORT $L85868

; 1314 : 				pDev->SetStreamSource(0, pVB, sizeof(UNCOLOREDVERTEX)) ;

  00157	8b f4		 mov	 esi, esp
  00159	6a 20		 push	 32			; 00000020H
  0015b	8b 45 88	 mov	 eax, DWORD PTR _pVB$85864[ebp]
  0015e	50		 push	 eax
  0015f	6a 00		 push	 0
  00161	8b 4d 08	 mov	 ecx, DWORD PTR _pDev$[ebp]
  00164	8b 11		 mov	 edx, DWORD PTR [ecx]
  00166	8b 45 08	 mov	 eax, DWORD PTR _pDev$[ebp]
  00169	50		 push	 eax
  0016a	ff 92 4c 01 00
	00		 call	 DWORD PTR [edx+332]
  00170	3b f4		 cmp	 esi, esp
  00172	e8 00 00 00 00	 call	 __RTC_CheckEsp
$L85868:

; 1315 : 			if (m_dwFVF == MYFVF_COLOREDVERTEX)

  00177	8b 45 f8	 mov	 eax, DWORD PTR _this$[ebp]
  0017a	81 38 c2 01 00
	00		 cmp	 DWORD PTR [eax], 450	; 000001c2H
  00180	75 20		 jne	 SHORT $L85870

; 1316 : 				pDev->SetStreamSource(0, pVB, sizeof(COLOREDVERTEX)) ;

  00182	8b f4		 mov	 esi, esp
  00184	6a 1c		 push	 28			; 0000001cH
  00186	8b 45 88	 mov	 eax, DWORD PTR _pVB$85864[ebp]
  00189	50		 push	 eax
  0018a	6a 00		 push	 0
  0018c	8b 4d 08	 mov	 ecx, DWORD PTR _pDev$[ebp]
  0018f	8b 11		 mov	 edx, DWORD PTR [ecx]
  00191	8b 45 08	 mov	 eax, DWORD PTR _pDev$[ebp]
  00194	50		 push	 eax
  00195	ff 92 4c 01 00
	00		 call	 DWORD PTR [edx+332]
  0019b	3b f4		 cmp	 esi, esp
  0019d	e8 00 00 00 00	 call	 __RTC_CheckEsp
$L85870:

; 1317 : 			if (m_dwFVF == MYFVF_COLOREDVERTEX2TEX)

  001a2	8b 45 f8	 mov	 eax, DWORD PTR _this$[ebp]
  001a5	81 38 c2 02 00
	00		 cmp	 DWORD PTR [eax], 706	; 000002c2H
  001ab	75 20		 jne	 SHORT $L85872

; 1318 : 				pDev->SetStreamSource(0, pVB, sizeof(COLOREDVERTEX2TEX)) ;

  001ad	8b f4		 mov	 esi, esp
  001af	6a 24		 push	 36			; 00000024H
  001b1	8b 45 88	 mov	 eax, DWORD PTR _pVB$85864[ebp]
  001b4	50		 push	 eax
  001b5	6a 00		 push	 0
  001b7	8b 4d 08	 mov	 ecx, DWORD PTR _pDev$[ebp]
  001ba	8b 11		 mov	 edx, DWORD PTR [ecx]
  001bc	8b 45 08	 mov	 eax, DWORD PTR _pDev$[ebp]
  001bf	50		 push	 eax
  001c0	ff 92 4c 01 00
	00		 call	 DWORD PTR [edx+332]
  001c6	3b f4		 cmp	 esi, esp
  001c8	e8 00 00 00 00	 call	 __RTC_CheckEsp
$L85872:

; 1319 : 			if (m_dwFVF == MYFVF_COLOREDVERTEXWITHNORMAL)

  001cd	8b 45 f8	 mov	 eax, DWORD PTR _this$[ebp]
  001d0	81 38 d2 01 00
	00		 cmp	 DWORD PTR [eax], 466	; 000001d2H
  001d6	75 20		 jne	 SHORT $L85874

; 1320 : 				pDev->SetStreamSource(0, pVB, sizeof(COLOREDVERTEXWITHNORMAL)) ;

  001d8	8b f4		 mov	 esi, esp
  001da	6a 28		 push	 40			; 00000028H
  001dc	8b 45 88	 mov	 eax, DWORD PTR _pVB$85864[ebp]
  001df	50		 push	 eax
  001e0	6a 00		 push	 0
  001e2	8b 4d 08	 mov	 ecx, DWORD PTR _pDev$[ebp]
  001e5	8b 11		 mov	 edx, DWORD PTR [ecx]
  001e7	8b 45 08	 mov	 eax, DWORD PTR _pDev$[ebp]
  001ea	50		 push	 eax
  001eb	ff 92 4c 01 00
	00		 call	 DWORD PTR [edx+332]
  001f1	3b f4		 cmp	 esi, esp
  001f3	e8 00 00 00 00	 call	 __RTC_CheckEsp
$L85874:

; 1321 : 			if (m_dwFVF == MYFVF_COLOREDVERTEXWITHNORMAL2TEX)

  001f8	8b 45 f8	 mov	 eax, DWORD PTR _this$[ebp]
  001fb	81 38 d2 02 00
	00		 cmp	 DWORD PTR [eax], 722	; 000002d2H
  00201	75 20		 jne	 SHORT $L85876

; 1322 : 				pDev->SetStreamSource(0, pVB, sizeof(COLOREDVERTEXWITHNORMAL2TEX)) ;

  00203	8b f4		 mov	 esi, esp
  00205	6a 30		 push	 48			; 00000030H
  00207	8b 45 88	 mov	 eax, DWORD PTR _pVB$85864[ebp]
  0020a	50		 push	 eax
  0020b	6a 00		 push	 0
  0020d	8b 4d 08	 mov	 ecx, DWORD PTR _pDev$[ebp]
  00210	8b 11		 mov	 edx, DWORD PTR [ecx]
  00212	8b 45 08	 mov	 eax, DWORD PTR _pDev$[ebp]
  00215	50		 push	 eax
  00216	ff 92 4c 01 00
	00		 call	 DWORD PTR [edx+332]
  0021c	3b f4		 cmp	 esi, esp
  0021e	e8 00 00 00 00	 call	 __RTC_CheckEsp
$L85876:

; 1323 : 
; 1324 : 			pDev->SetIndices(pIB, 0) ;

  00223	8b f4		 mov	 esi, esp
  00225	6a 00		 push	 0
  00227	8b 85 7c ff ff
	ff		 mov	 eax, DWORD PTR _pIB$85865[ebp]
  0022d	50		 push	 eax
  0022e	8b 4d 08	 mov	 ecx, DWORD PTR _pDev$[ebp]
  00231	8b 11		 mov	 edx, DWORD PTR [ecx]
  00233	8b 45 08	 mov	 eax, DWORD PTR _pDev$[ebp]
  00236	50		 push	 eax
  00237	ff 92 54 01 00
	00		 call	 DWORD PTR [edx+340]
  0023d	3b f4		 cmp	 esi, esp
  0023f	e8 00 00 00 00	 call	 __RTC_CheckEsp

; 1325 : 			pDev->SetVertexShader(m_dwFVF) ;

  00244	8b f4		 mov	 esi, esp
  00246	8b 45 f8	 mov	 eax, DWORD PTR _this$[ebp]
  00249	8b 08		 mov	 ecx, DWORD PTR [eax]
  0024b	51		 push	 ecx
  0024c	8b 55 08	 mov	 edx, DWORD PTR _pDev$[ebp]
  0024f	8b 02		 mov	 eax, DWORD PTR [edx]
  00251	8b 4d 08	 mov	 ecx, DWORD PTR _pDev$[ebp]
  00254	51		 push	 ecx
  00255	ff 90 30 01 00
	00		 call	 DWORD PTR [eax+304]
  0025b	3b f4		 cmp	 esi, esp
  0025d	e8 00 00 00 00	 call	 __RTC_CheckEsp

; 1326 : 			pDev->SetTexture(0, pTex->m_pTex[m_ntvRS[i].ndxTex]) ;

  00262	8b 45 94	 mov	 eax, DWORD PTR _i$85860[ebp]
  00265	69 c0 44 01 00
	00		 imul	 eax, 324		; 00000144H
  0026b	8b 4d f8	 mov	 ecx, DWORD PTR _this$[ebp]
  0026e	8b 54 01 28	 mov	 edx, DWORD PTR [ecx+eax+40]
  00272	8b f4		 mov	 esi, esp
  00274	8b 45 0c	 mov	 eax, DWORD PTR _pTex$[ebp]
  00277	8b 4c 90 1c	 mov	 ecx, DWORD PTR [eax+edx*4+28]
  0027b	51		 push	 ecx
  0027c	6a 00		 push	 0
  0027e	8b 55 08	 mov	 edx, DWORD PTR _pDev$[ebp]
  00281	8b 02		 mov	 eax, DWORD PTR [edx]
  00283	8b 4d 08	 mov	 ecx, DWORD PTR _pDev$[ebp]
  00286	51		 push	 ecx
  00287	ff 90 f4 00 00
	00		 call	 DWORD PTR [eax+244]
  0028d	3b f4		 cmp	 esi, esp
  0028f	e8 00 00 00 00	 call	 __RTC_CheckEsp

; 1327 : 			
; 1328 : 			if (m_ntvRS[i].ndxTex2)

  00294	8b 45 94	 mov	 eax, DWORD PTR _i$85860[ebp]
  00297	69 c0 44 01 00
	00		 imul	 eax, 324		; 00000144H
  0029d	8b 4d f8	 mov	 ecx, DWORD PTR _this$[ebp]
  002a0	83 7c 01 2c 00	 cmp	 DWORD PTR [ecx+eax+44], 0
  002a5	0f 84 89 01 00
	00		 je	 $L85878

; 1329 : 			{
; 1330 : 			// set for single-pass alpha-blend of two textures;
; 1331 : 				if( !bCallerWantsAutoGendTexCoords )

  002ab	0f b6 45 1c	 movzx	 eax, BYTE PTR _bCallerWantsAutoGendTexCoords$[ebp]
  002af	85 c0		 test	 eax, eax
  002b1	75 32		 jne	 SHORT $L85879

; 1332 : 					pDev->SetTexture( 1, pTex->m_pTex[ m_ntvRS[i].ndxTex2 ] );

  002b3	8b 45 94	 mov	 eax, DWORD PTR _i$85860[ebp]
  002b6	69 c0 44 01 00
	00		 imul	 eax, 324		; 00000144H
  002bc	8b 4d f8	 mov	 ecx, DWORD PTR _this$[ebp]
  002bf	8b 54 01 2c	 mov	 edx, DWORD PTR [ecx+eax+44]
  002c3	8b f4		 mov	 esi, esp
  002c5	8b 45 0c	 mov	 eax, DWORD PTR _pTex$[ebp]
  002c8	8b 4c 90 1c	 mov	 ecx, DWORD PTR [eax+edx*4+28]
  002cc	51		 push	 ecx
  002cd	6a 01		 push	 1
  002cf	8b 55 08	 mov	 edx, DWORD PTR _pDev$[ebp]
  002d2	8b 02		 mov	 eax, DWORD PTR [edx]
  002d4	8b 4d 08	 mov	 ecx, DWORD PTR _pDev$[ebp]
  002d7	51		 push	 ecx
  002d8	ff 90 f4 00 00
	00		 call	 DWORD PTR [eax+244]
  002de	3b f4		 cmp	 esi, esp
  002e0	e8 00 00 00 00	 call	 __RTC_CheckEsp
$L85879:

; 1333 : 				
; 1334 : 				pDev->SetTextureStageState( 0, D3DTSS_TEXCOORDINDEX, 0 );

  002e5	8b f4		 mov	 esi, esp
  002e7	6a 00		 push	 0
  002e9	6a 0b		 push	 11			; 0000000bH
  002eb	6a 00		 push	 0
  002ed	8b 45 08	 mov	 eax, DWORD PTR _pDev$[ebp]
  002f0	8b 08		 mov	 ecx, DWORD PTR [eax]
  002f2	8b 55 08	 mov	 edx, DWORD PTR _pDev$[ebp]
  002f5	52		 push	 edx
  002f6	ff 91 fc 00 00
	00		 call	 DWORD PTR [ecx+252]
  002fc	3b f4		 cmp	 esi, esp
  002fe	e8 00 00 00 00	 call	 __RTC_CheckEsp

; 1335 : 				pDev->SetTextureStageState( 1, D3DTSS_TEXCOORDINDEX, 0 );

  00303	8b f4		 mov	 esi, esp
  00305	6a 00		 push	 0
  00307	6a 0b		 push	 11			; 0000000bH
  00309	6a 01		 push	 1
  0030b	8b 45 08	 mov	 eax, DWORD PTR _pDev$[ebp]
  0030e	8b 08		 mov	 ecx, DWORD PTR [eax]
  00310	8b 55 08	 mov	 edx, DWORD PTR _pDev$[ebp]
  00313	52		 push	 edx
  00314	ff 91 fc 00 00
	00		 call	 DWORD PTR [ecx+252]
  0031a	3b f4		 cmp	 esi, esp
  0031c	e8 00 00 00 00	 call	 __RTC_CheckEsp

; 1336 : 
; 1337 : 				SetTextureColorStage( pDev, 0, D3DTA_TEXTURE, D3DTOP_SELECTARG1,		D3DTA_CURRENT )

  00321	8b f4		 mov	 esi, esp
  00323	6a 02		 push	 2
  00325	6a 01		 push	 1
  00327	6a 00		 push	 0
  00329	8b 45 08	 mov	 eax, DWORD PTR _pDev$[ebp]
  0032c	8b 08		 mov	 ecx, DWORD PTR [eax]
  0032e	8b 55 08	 mov	 edx, DWORD PTR _pDev$[ebp]
  00331	52		 push	 edx
  00332	ff 91 fc 00 00
	00		 call	 DWORD PTR [ecx+252]
  00338	3b f4		 cmp	 esi, esp
  0033a	e8 00 00 00 00	 call	 __RTC_CheckEsp
  0033f	8b f4		 mov	 esi, esp
  00341	6a 02		 push	 2
  00343	6a 02		 push	 2
  00345	6a 00		 push	 0
  00347	8b 45 08	 mov	 eax, DWORD PTR _pDev$[ebp]
  0034a	8b 08		 mov	 ecx, DWORD PTR [eax]
  0034c	8b 55 08	 mov	 edx, DWORD PTR _pDev$[ebp]
  0034f	52		 push	 edx
  00350	ff 91 fc 00 00
	00		 call	 DWORD PTR [ecx+252]
  00356	3b f4		 cmp	 esi, esp
  00358	e8 00 00 00 00	 call	 __RTC_CheckEsp
  0035d	8b f4		 mov	 esi, esp
  0035f	6a 01		 push	 1
  00361	6a 03		 push	 3
  00363	6a 00		 push	 0
  00365	8b 45 08	 mov	 eax, DWORD PTR _pDev$[ebp]
  00368	8b 08		 mov	 ecx, DWORD PTR [eax]
  0036a	8b 55 08	 mov	 edx, DWORD PTR _pDev$[ebp]
  0036d	52		 push	 edx
  0036e	ff 91 fc 00 00
	00		 call	 DWORD PTR [ecx+252]
  00374	3b f4		 cmp	 esi, esp
  00376	e8 00 00 00 00	 call	 __RTC_CheckEsp

; 1338 : 				SetTextureColorStage( pDev, 1, D3DTA_TEXTURE, D3DTOP_BLENDDIFFUSEALPHA,	D3DTA_CURRENT )

  0037b	8b f4		 mov	 esi, esp
  0037d	6a 0c		 push	 12			; 0000000cH
  0037f	6a 01		 push	 1
  00381	6a 01		 push	 1
  00383	8b 45 08	 mov	 eax, DWORD PTR _pDev$[ebp]
  00386	8b 08		 mov	 ecx, DWORD PTR [eax]
  00388	8b 55 08	 mov	 edx, DWORD PTR _pDev$[ebp]
  0038b	52		 push	 edx
  0038c	ff 91 fc 00 00
	00		 call	 DWORD PTR [ecx+252]
  00392	3b f4		 cmp	 esi, esp
  00394	e8 00 00 00 00	 call	 __RTC_CheckEsp
  00399	8b f4		 mov	 esi, esp
  0039b	6a 02		 push	 2
  0039d	6a 02		 push	 2
  0039f	6a 01		 push	 1
  003a1	8b 45 08	 mov	 eax, DWORD PTR _pDev$[ebp]
  003a4	8b 08		 mov	 ecx, DWORD PTR [eax]
  003a6	8b 55 08	 mov	 edx, DWORD PTR _pDev$[ebp]
  003a9	52		 push	 edx
  003aa	ff 91 fc 00 00
	00		 call	 DWORD PTR [ecx+252]
  003b0	3b f4		 cmp	 esi, esp
  003b2	e8 00 00 00 00	 call	 __RTC_CheckEsp
  003b7	8b f4		 mov	 esi, esp
  003b9	6a 01		 push	 1
  003bb	6a 03		 push	 3
  003bd	6a 01		 push	 1
  003bf	8b 45 08	 mov	 eax, DWORD PTR _pDev$[ebp]
  003c2	8b 08		 mov	 ecx, DWORD PTR [eax]
  003c4	8b 55 08	 mov	 edx, DWORD PTR _pDev$[ebp]
  003c7	52		 push	 edx
  003c8	ff 91 fc 00 00
	00		 call	 DWORD PTR [ecx+252]
  003ce	3b f4		 cmp	 esi, esp
  003d0	e8 00 00 00 00	 call	 __RTC_CheckEsp

; 1339 : 				SetTextureColorStage( pDev, 2, D3DTA_DIFFUSE, D3DTOP_MODULATE,			D3DTA_CURRENT )

  003d5	8b f4		 mov	 esi, esp
  003d7	6a 04		 push	 4
  003d9	6a 01		 push	 1
  003db	6a 02		 push	 2
  003dd	8b 45 08	 mov	 eax, DWORD PTR _pDev$[ebp]
  003e0	8b 08		 mov	 ecx, DWORD PTR [eax]
  003e2	8b 55 08	 mov	 edx, DWORD PTR _pDev$[ebp]
  003e5	52		 push	 edx
  003e6	ff 91 fc 00 00
	00		 call	 DWORD PTR [ecx+252]
  003ec	3b f4		 cmp	 esi, esp
  003ee	e8 00 00 00 00	 call	 __RTC_CheckEsp
  003f3	8b f4		 mov	 esi, esp
  003f5	6a 00		 push	 0
  003f7	6a 02		 push	 2
  003f9	6a 02		 push	 2
  003fb	8b 45 08	 mov	 eax, DWORD PTR _pDev$[ebp]
  003fe	8b 08		 mov	 ecx, DWORD PTR [eax]
  00400	8b 55 08	 mov	 edx, DWORD PTR _pDev$[ebp]
  00403	52		 push	 edx
  00404	ff 91 fc 00 00
	00		 call	 DWORD PTR [ecx+252]
  0040a	3b f4		 cmp	 esi, esp
  0040c	e8 00 00 00 00	 call	 __RTC_CheckEsp
  00411	8b f4		 mov	 esi, esp
  00413	6a 01		 push	 1
  00415	6a 03		 push	 3
  00417	6a 02		 push	 2
  00419	8b 45 08	 mov	 eax, DWORD PTR _pDev$[ebp]
  0041c	8b 08		 mov	 ecx, DWORD PTR [eax]
  0041e	8b 55 08	 mov	 edx, DWORD PTR _pDev$[ebp]
  00421	52		 push	 edx
  00422	ff 91 fc 00 00
	00		 call	 DWORD PTR [ecx+252]
  00428	3b f4		 cmp	 esi, esp
  0042a	e8 00 00 00 00	 call	 __RTC_CheckEsp

; 1340 : 				
; 1341 : 			// shit card terrain colour test
; 1342 : 			/*
; 1343 : 				SetTextureColorStage(pDev, 0, D3DTA_DIFFUSE, D3DTOP_SELECTARG1, D3DTA_CURRENT)
; 1344 : 				pDev->SetRenderState(D3DRS_ALPHABLENDENABLE, FALSE) ;
; 1345 : 			*/
; 1346 : 			}
; 1347 : 			else

  0042f	e9 8e 01 00 00	 jmp	 $L85880
$L85878:

; 1348 : 			{
; 1349 : 			// set for single texture;
; 1350 : 				if( !bCallerWantsAutoGendTexCoords )

  00434	0f b6 45 1c	 movzx	 eax, BYTE PTR _bCallerWantsAutoGendTexCoords$[ebp]
  00438	85 c0		 test	 eax, eax
  0043a	75 1e		 jne	 SHORT $L85881

; 1351 : 					pDev->SetTextureStageState( 0, D3DTSS_TEXCOORDINDEX, 0 );

  0043c	8b f4		 mov	 esi, esp
  0043e	6a 00		 push	 0
  00440	6a 0b		 push	 11			; 0000000bH
  00442	6a 00		 push	 0
  00444	8b 45 08	 mov	 eax, DWORD PTR _pDev$[ebp]
  00447	8b 08		 mov	 ecx, DWORD PTR [eax]
  00449	8b 55 08	 mov	 edx, DWORD PTR _pDev$[ebp]
  0044c	52		 push	 edx
  0044d	ff 91 fc 00 00
	00		 call	 DWORD PTR [ecx+252]
  00453	3b f4		 cmp	 esi, esp
  00455	e8 00 00 00 00	 call	 __RTC_CheckEsp
$L85881:

; 1352 : 
; 1353 : 				SetTextureColorStage(pDev, 0, D3DTA_TEXTURE, D3DTOP_SELECTARG1,			D3DTA_CURRENT)

  0045a	8b f4		 mov	 esi, esp
  0045c	6a 02		 push	 2
  0045e	6a 01		 push	 1
  00460	6a 00		 push	 0
  00462	8b 45 08	 mov	 eax, DWORD PTR _pDev$[ebp]
  00465	8b 08		 mov	 ecx, DWORD PTR [eax]
  00467	8b 55 08	 mov	 edx, DWORD PTR _pDev$[ebp]
  0046a	52		 push	 edx
  0046b	ff 91 fc 00 00
	00		 call	 DWORD PTR [ecx+252]
  00471	3b f4		 cmp	 esi, esp
  00473	e8 00 00 00 00	 call	 __RTC_CheckEsp
  00478	8b f4		 mov	 esi, esp
  0047a	6a 02		 push	 2
  0047c	6a 02		 push	 2
  0047e	6a 00		 push	 0
  00480	8b 45 08	 mov	 eax, DWORD PTR _pDev$[ebp]
  00483	8b 08		 mov	 ecx, DWORD PTR [eax]
  00485	8b 55 08	 mov	 edx, DWORD PTR _pDev$[ebp]
  00488	52		 push	 edx
  00489	ff 91 fc 00 00
	00		 call	 DWORD PTR [ecx+252]
  0048f	3b f4		 cmp	 esi, esp
  00491	e8 00 00 00 00	 call	 __RTC_CheckEsp
  00496	8b f4		 mov	 esi, esp
  00498	6a 01		 push	 1
  0049a	6a 03		 push	 3
  0049c	6a 00		 push	 0
  0049e	8b 45 08	 mov	 eax, DWORD PTR _pDev$[ebp]
  004a1	8b 08		 mov	 ecx, DWORD PTR [eax]
  004a3	8b 55 08	 mov	 edx, DWORD PTR _pDev$[ebp]
  004a6	52		 push	 edx
  004a7	ff 91 fc 00 00
	00		 call	 DWORD PTR [ecx+252]
  004ad	3b f4		 cmp	 esi, esp
  004af	e8 00 00 00 00	 call	 __RTC_CheckEsp

; 1354 : 				SetTextureColorStage(pDev, 1, D3DTA_DIFFUSE, D3DTOP_MODULATE,			D3DTA_CURRENT)

  004b4	8b f4		 mov	 esi, esp
  004b6	6a 04		 push	 4
  004b8	6a 01		 push	 1
  004ba	6a 01		 push	 1
  004bc	8b 45 08	 mov	 eax, DWORD PTR _pDev$[ebp]
  004bf	8b 08		 mov	 ecx, DWORD PTR [eax]
  004c1	8b 55 08	 mov	 edx, DWORD PTR _pDev$[ebp]
  004c4	52		 push	 edx
  004c5	ff 91 fc 00 00
	00		 call	 DWORD PTR [ecx+252]
  004cb	3b f4		 cmp	 esi, esp
  004cd	e8 00 00 00 00	 call	 __RTC_CheckEsp
  004d2	8b f4		 mov	 esi, esp
  004d4	6a 00		 push	 0
  004d6	6a 02		 push	 2
  004d8	6a 01		 push	 1
  004da	8b 45 08	 mov	 eax, DWORD PTR _pDev$[ebp]
  004dd	8b 08		 mov	 ecx, DWORD PTR [eax]
  004df	8b 55 08	 mov	 edx, DWORD PTR _pDev$[ebp]
  004e2	52		 push	 edx
  004e3	ff 91 fc 00 00
	00		 call	 DWORD PTR [ecx+252]
  004e9	3b f4		 cmp	 esi, esp
  004eb	e8 00 00 00 00	 call	 __RTC_CheckEsp
  004f0	8b f4		 mov	 esi, esp
  004f2	6a 01		 push	 1
  004f4	6a 03		 push	 3
  004f6	6a 01		 push	 1
  004f8	8b 45 08	 mov	 eax, DWORD PTR _pDev$[ebp]
  004fb	8b 08		 mov	 ecx, DWORD PTR [eax]
  004fd	8b 55 08	 mov	 edx, DWORD PTR _pDev$[ebp]
  00500	52		 push	 edx
  00501	ff 91 fc 00 00
	00		 call	 DWORD PTR [ecx+252]
  00507	3b f4		 cmp	 esi, esp
  00509	e8 00 00 00 00	 call	 __RTC_CheckEsp

; 1355 : 				SetTextureColorStage(pDev, 2, D3DTA_CURRENT, D3DTOP_DISABLE,			D3DTA_CURRENT)

  0050e	8b f4		 mov	 esi, esp
  00510	6a 01		 push	 1
  00512	6a 01		 push	 1
  00514	6a 02		 push	 2
  00516	8b 45 08	 mov	 eax, DWORD PTR _pDev$[ebp]
  00519	8b 08		 mov	 ecx, DWORD PTR [eax]
  0051b	8b 55 08	 mov	 edx, DWORD PTR _pDev$[ebp]
  0051e	52		 push	 edx
  0051f	ff 91 fc 00 00
	00		 call	 DWORD PTR [ecx+252]
  00525	3b f4		 cmp	 esi, esp
  00527	e8 00 00 00 00	 call	 __RTC_CheckEsp
  0052c	8b f4		 mov	 esi, esp
  0052e	6a 01		 push	 1
  00530	6a 02		 push	 2
  00532	6a 02		 push	 2
  00534	8b 45 08	 mov	 eax, DWORD PTR _pDev$[ebp]
  00537	8b 08		 mov	 ecx, DWORD PTR [eax]
  00539	8b 55 08	 mov	 edx, DWORD PTR _pDev$[ebp]
  0053c	52		 push	 edx
  0053d	ff 91 fc 00 00
	00		 call	 DWORD PTR [ecx+252]
  00543	3b f4		 cmp	 esi, esp
  00545	e8 00 00 00 00	 call	 __RTC_CheckEsp
  0054a	8b f4		 mov	 esi, esp
  0054c	6a 01		 push	 1
  0054e	6a 03		 push	 3
  00550	6a 02		 push	 2
  00552	8b 45 08	 mov	 eax, DWORD PTR _pDev$[ebp]
  00555	8b 08		 mov	 ecx, DWORD PTR [eax]
  00557	8b 55 08	 mov	 edx, DWORD PTR _pDev$[ebp]
  0055a	52		 push	 edx
  0055b	ff 91 fc 00 00
	00		 call	 DWORD PTR [ecx+252]
  00561	3b f4		 cmp	 esi, esp
  00563	e8 00 00 00 00	 call	 __RTC_CheckEsp

; 1356 : 
; 1357 : 				SetTextureAlphaStage(pDev, 0, D3DTA_DIFFUSE, D3DTOP_SELECTARG1,			D3DTA_CURRENT)

  00568	8b f4		 mov	 esi, esp
  0056a	6a 02		 push	 2
  0056c	6a 04		 push	 4
  0056e	6a 00		 push	 0
  00570	8b 45 08	 mov	 eax, DWORD PTR _pDev$[ebp]
  00573	8b 08		 mov	 ecx, DWORD PTR [eax]
  00575	8b 55 08	 mov	 edx, DWORD PTR _pDev$[ebp]
  00578	52		 push	 edx
  00579	ff 91 fc 00 00
	00		 call	 DWORD PTR [ecx+252]
  0057f	3b f4		 cmp	 esi, esp
  00581	e8 00 00 00 00	 call	 __RTC_CheckEsp
  00586	8b f4		 mov	 esi, esp
  00588	6a 00		 push	 0
  0058a	6a 05		 push	 5
  0058c	6a 00		 push	 0
  0058e	8b 45 08	 mov	 eax, DWORD PTR _pDev$[ebp]
  00591	8b 08		 mov	 ecx, DWORD PTR [eax]
  00593	8b 55 08	 mov	 edx, DWORD PTR _pDev$[ebp]
  00596	52		 push	 edx
  00597	ff 91 fc 00 00
	00		 call	 DWORD PTR [ecx+252]
  0059d	3b f4		 cmp	 esi, esp
  0059f	e8 00 00 00 00	 call	 __RTC_CheckEsp
  005a4	8b f4		 mov	 esi, esp
  005a6	6a 01		 push	 1
  005a8	6a 06		 push	 6
  005aa	6a 00		 push	 0
  005ac	8b 45 08	 mov	 eax, DWORD PTR _pDev$[ebp]
  005af	8b 08		 mov	 ecx, DWORD PTR [eax]
  005b1	8b 55 08	 mov	 edx, DWORD PTR _pDev$[ebp]
  005b4	52		 push	 edx
  005b5	ff 91 fc 00 00
	00		 call	 DWORD PTR [ecx+252]
  005bb	3b f4		 cmp	 esi, esp
  005bd	e8 00 00 00 00	 call	 __RTC_CheckEsp
$L85880:

; 1358 : 			}
; 1359 : 
; 1360 :             pDev->SetMaterial(&m_ntvRS[i].mtrlMaterial) ;

  005c2	8b 45 94	 mov	 eax, DWORD PTR _i$85860[ebp]
  005c5	69 c0 44 01 00
	00		 imul	 eax, 324		; 00000144H
  005cb	8b 4d f8	 mov	 ecx, DWORD PTR _this$[ebp]
  005ce	8d 54 01 50	 lea	 edx, DWORD PTR [ecx+eax+80]
  005d2	8b f4		 mov	 esi, esp
  005d4	52		 push	 edx
  005d5	8b 45 08	 mov	 eax, DWORD PTR _pDev$[ebp]
  005d8	8b 08		 mov	 ecx, DWORD PTR [eax]
  005da	8b 55 08	 mov	 edx, DWORD PTR _pDev$[ebp]
  005dd	52		 push	 edx
  005de	ff 91 a8 00 00
	00		 call	 DWORD PTR [ecx+168]
  005e4	3b f4		 cmp	 esi, esp
  005e6	e8 00 00 00 00	 call	 __RTC_CheckEsp

; 1361 : 			
; 1362 : 		//
; 1363 : 		// OK, after much investigation;
; 1364 : 		// 
; 1365 : 		// NumVertices (DIP() param. 3) is NOT:
; 1366 : 		//		The no. of verts to be rendered.
; 1367 : 		//		OR
; 1368 : 		//		The no. of distinct vertices used in drawn primitives.
; 1369 : 		//
; 1370 : 		//	It IS:
; 1371 : 		//		Starting from MinIndex, the total no.
; 1372 : 		//		of sequential vertices in the VB that
; 1373 : 		//		the DIP() call needs to care about.
; 1374 : 		//		
; 1375 : 		//		It doesn't matter whether the verts. 
; 1376 : 		//		are indexed by the IB (i.e. rendered);
; 1377 : 		//		If the vert. lies in the range (MaxNdx-MinNdx)
; 1378 : 		//		then it counts towards NumVertices.
; 1379 : 		//
; 1380 : 			hr = 
; 1381 : 				pDev->DrawIndexedPrimitive(
; 1382 : 
; 1383 : 								D3DPT_TRIANGLELIST,
; 1384 : 								m_ntvRS[i].dwSS_MinIndex[nDS],
; 1385 : 								m_ntvRS[i].dwSS_MaxIndex[nDS] - 
; 1386 : 								m_ntvRS[i].dwSS_MinIndex[nDS] + 1,
; 1387 : 								m_ntvRS[i].dwSS_StartIndex[nDS],
; 1388 : 								m_ntvRS[i].dwSS_PrimCount[nDS]
; 1389 : 
; 1390 : 										  );

  005eb	8b 45 94	 mov	 eax, DWORD PTR _i$85860[ebp]
  005ee	69 c0 44 01 00
	00		 imul	 eax, 324		; 00000144H
  005f4	8b 4d f8	 mov	 ecx, DWORD PTR _this$[ebp]
  005f7	8d 54 01 28	 lea	 edx, DWORD PTR [ecx+eax+40]
  005fb	8b f4		 mov	 esi, esp
  005fd	8b 45 14	 mov	 eax, DWORD PTR _nDS$[ebp]
  00600	8b 8c 82 1c 01
	00 00		 mov	 ecx, DWORD PTR [edx+eax*4+284]
  00607	51		 push	 ecx
  00608	8b 55 94	 mov	 edx, DWORD PTR _i$85860[ebp]
  0060b	69 d2 44 01 00
	00		 imul	 edx, 324		; 00000144H
  00611	8b 45 f8	 mov	 eax, DWORD PTR _this$[ebp]
  00614	8d 4c 10 28	 lea	 ecx, DWORD PTR [eax+edx+40]
  00618	8b 55 14	 mov	 edx, DWORD PTR _nDS$[ebp]
  0061b	8b 84 91 f4 00
	00 00		 mov	 eax, DWORD PTR [ecx+edx*4+244]
  00622	50		 push	 eax
  00623	8b 4d 94	 mov	 ecx, DWORD PTR _i$85860[ebp]
  00626	69 c9 44 01 00
	00		 imul	 ecx, 324		; 00000144H
  0062c	8b 55 f8	 mov	 edx, DWORD PTR _this$[ebp]
  0062f	8d 44 0a 28	 lea	 eax, DWORD PTR [edx+ecx+40]
  00633	8b 4d 94	 mov	 ecx, DWORD PTR _i$85860[ebp]
  00636	69 c9 44 01 00
	00		 imul	 ecx, 324		; 00000144H
  0063c	8b 55 f8	 mov	 edx, DWORD PTR _this$[ebp]
  0063f	8d 4c 0a 28	 lea	 ecx, DWORD PTR [edx+ecx+40]
  00643	8b 55 14	 mov	 edx, DWORD PTR _nDS$[ebp]
  00646	8b 7d 14	 mov	 edi, DWORD PTR _nDS$[ebp]
  00649	8b 84 90 a4 00
	00 00		 mov	 eax, DWORD PTR [eax+edx*4+164]
  00650	2b 44 b9 7c	 sub	 eax, DWORD PTR [ecx+edi*4+124]
  00654	83 c0 01	 add	 eax, 1
  00657	50		 push	 eax
  00658	8b 4d 94	 mov	 ecx, DWORD PTR _i$85860[ebp]
  0065b	69 c9 44 01 00
	00		 imul	 ecx, 324		; 00000144H
  00661	8b 55 f8	 mov	 edx, DWORD PTR _this$[ebp]
  00664	8d 44 0a 28	 lea	 eax, DWORD PTR [edx+ecx+40]
  00668	8b 4d 14	 mov	 ecx, DWORD PTR _nDS$[ebp]
  0066b	8b 54 88 7c	 mov	 edx, DWORD PTR [eax+ecx*4+124]
  0066f	52		 push	 edx
  00670	6a 04		 push	 4
  00672	8b 45 08	 mov	 eax, DWORD PTR _pDev$[ebp]
  00675	8b 08		 mov	 ecx, DWORD PTR [eax]
  00677	8b 55 08	 mov	 edx, DWORD PTR _pDev$[ebp]
  0067a	52		 push	 edx
  0067b	ff 91 1c 01 00
	00		 call	 DWORD PTR [ecx+284]
  00681	3b f4		 cmp	 esi, esp
  00683	e8 00 00 00 00	 call	 __RTC_CheckEsp
  00688	89 45 ec	 mov	 DWORD PTR _hr$[ebp], eax

; 1391 : 			assert( hr==D3D_OK );

  0068b	83 7d ec 00	 cmp	 DWORD PTR _hr$[ebp], 0
  0068f	74 1b		 je	 SHORT $L86173
  00691	a1 00 00 00 00	 mov	 eax, DWORD PTR ?__LINE__Var@?1??Render@CProceduralRenderObject@@QAEJPAUIDirect3DDevice8@@PAVCTextures@@PAKHPAUD3DXMATRIX@@_N@Z@4JA
  00696	83 c0 67	 add	 eax, 103		; 00000067H
  00699	50		 push	 eax
  0069a	68 00 00 00 00	 push	 OFFSET FLAT:??_C@_0FJ@JJKKIHO@c?3?2documents?5and?5settings?2dom?2my@
  0069f	68 00 00 00 00	 push	 OFFSET FLAT:??_C@_0L@CJJJJEMF@hr?$DN?$DND3D_OK?$AA@
  006a4	e8 00 00 00 00	 call	 __assert
  006a9	83 c4 0c	 add	 esp, 12			; 0000000cH
$L86173:

; 1392 : 			if( D3D_OK != hr )

  006ac	83 7d ec 00	 cmp	 DWORD PTR _hr$[ebp], 0
  006b0	74 0d		 je	 SHORT $L85887

; 1393 : 			{
; 1394 : 				Msg2( "ERR" );

  006b2	68 00 00 00 00	 push	 OFFSET FLAT:??_C@_03JFMEENOE@ERR?$AA@
  006b7	e8 00 00 00 00	 call	 ?Msg2@@YAXPADZZ		; Msg2
  006bc	83 c4 04	 add	 esp, 4
$L85887:

; 1395 : 			}
; 1396 : 
; 1397 : 			if (m_bUseD3DXMesh)

  006bf	8b 45 f8	 mov	 eax, DWORD PTR _this$[ebp]
  006c2	83 b8 54 0a 00
	00 00		 cmp	 DWORD PTR [eax+2644], 0
  006c9	74 30		 je	 SHORT $L85889

; 1398 : 			{
; 1399 : 				pVB->Release() ;

  006cb	8b 45 88	 mov	 eax, DWORD PTR _pVB$85864[ebp]
  006ce	8b 08		 mov	 ecx, DWORD PTR [eax]
  006d0	8b f4		 mov	 esi, esp
  006d2	8b 55 88	 mov	 edx, DWORD PTR _pVB$85864[ebp]
  006d5	52		 push	 edx
  006d6	ff 51 08	 call	 DWORD PTR [ecx+8]
  006d9	3b f4		 cmp	 esi, esp
  006db	e8 00 00 00 00	 call	 __RTC_CheckEsp

; 1400 : 				pIB->Release() ;

  006e0	8b 85 7c ff ff
	ff		 mov	 eax, DWORD PTR _pIB$85865[ebp]
  006e6	8b 08		 mov	 ecx, DWORD PTR [eax]
  006e8	8b f4		 mov	 esi, esp
  006ea	8b 95 7c ff ff
	ff		 mov	 edx, DWORD PTR _pIB$85865[ebp]
  006f0	52		 push	 edx
  006f1	ff 51 08	 call	 DWORD PTR [ecx+8]
  006f4	3b f4		 cmp	 esi, esp
  006f6	e8 00 00 00 00	 call	 __RTC_CheckEsp
$L85889:

; 1401 : 			}
; 1402 : 
; 1403 : 			*pulPolyCount += m_ntvRS[i].dwSS_PrimCount[nDS] ;

  006fb	8b 45 94	 mov	 eax, DWORD PTR _i$85860[ebp]
  006fe	69 c0 44 01 00
	00		 imul	 eax, 324		; 00000144H
  00704	8b 4d f8	 mov	 ecx, DWORD PTR _this$[ebp]
  00707	8d 54 01 28	 lea	 edx, DWORD PTR [ecx+eax+40]
  0070b	8b 45 10	 mov	 eax, DWORD PTR _pulPolyCount$[ebp]
  0070e	8b 08		 mov	 ecx, DWORD PTR [eax]
  00710	8b 45 14	 mov	 eax, DWORD PTR _nDS$[ebp]
  00713	03 8c 82 1c 01
	00 00		 add	 ecx, DWORD PTR [edx+eax*4+284]
  0071a	8b 55 10	 mov	 edx, DWORD PTR _pulPolyCount$[ebp]
  0071d	89 0a		 mov	 DWORD PTR [edx], ecx

; 1404 : 		}

  0071f	e9 5b f9 ff ff	 jmp	 $L85862
$L85863:

; 1405 : 		return S_OK ;

  00724	33 c0		 xor	 eax, eax

; 1406 : 	}

  00726	52		 push	 edx
  00727	8b cd		 mov	 ecx, ebp
  00729	50		 push	 eax
  0072a	8d 15 00 00 00
	00		 lea	 edx, DWORD PTR $L86178
  00730	e8 00 00 00 00	 call	 @_RTC_CheckStackVars@8
  00735	58		 pop	 eax
  00736	5a		 pop	 edx
  00737	5f		 pop	 edi
  00738	5e		 pop	 esi
  00739	5b		 pop	 ebx
  0073a	81 c4 48 01 00
	00		 add	 esp, 328		; 00000148H
  00740	3b ec		 cmp	 ebp, esp
  00742	e8 00 00 00 00	 call	 __RTC_CheckEsp
  00747	8b e5		 mov	 esp, ebp
  00749	5d		 pop	 ebp
  0074a	c2 18 00	 ret	 24			; 00000018H
$L86178:
  0074d	03 00 00 00	 DD	 3
  00751	00 00 00 00	 DD	 $L86177
$L86177:
  00755	a0 ff ff ff	 DD	 -96			; ffffffa0H
  00759	40 00 00 00	 DD	 64			; 00000040H
  0075d	00 00 00 00	 DD	 $L86174
  00761	88 ff ff ff	 DD	 -120			; ffffff88H
  00765	04 00 00 00	 DD	 4
  00769	00 00 00 00	 DD	 $L86175
  0076d	7c ff ff ff	 DD	 -132			; ffffff7cH
  00771	04 00 00 00	 DD	 4
  00775	00 00 00 00	 DD	 $L86176
$L86176:
  00779	70		 DB	 112			; 00000070H
  0077a	49		 DB	 73			; 00000049H
  0077b	42		 DB	 66			; 00000042H
  0077c	00		 DB	 0
$L86175:
  0077d	70		 DB	 112			; 00000070H
  0077e	56		 DB	 86			; 00000056H
  0077f	42		 DB	 66			; 00000042H
  00780	00		 DB	 0
$L86174:
  00781	6d		 DB	 109			; 0000006dH
  00782	61		 DB	 97			; 00000061H
  00783	74		 DB	 116			; 00000074H
  00784	43		 DB	 67			; 00000043H
  00785	6f		 DB	 111			; 0000006fH
  00786	6d		 DB	 109			; 0000006dH
  00787	62		 DB	 98			; 00000062H
  00788	69		 DB	 105			; 00000069H
  00789	6e		 DB	 110			; 0000006eH
  0078a	65		 DB	 101			; 00000065H
  0078b	64		 DB	 100			; 00000064H
  0078c	57		 DB	 87			; 00000057H
  0078d	6f		 DB	 111			; 0000006fH
  0078e	72		 DB	 114			; 00000072H
  0078f	6c		 DB	 108			; 0000006cH
  00790	64		 DB	 100			; 00000064H
  00791	00		 DB	 0
?Render@CProceduralRenderObject@@QAEJPAUIDirect3DDevice8@@PAVCTextures@@PAKHPAUD3DXMATRIX@@_N@Z ENDP ; CProceduralRenderObject::Render
_TEXT	ENDS
PUBLIC	?RenderDetailPass@CProceduralRenderObject@@QAEJPAUIDirect3DDevice8@@PAUIDirect3DTexture8@@PAKHPAUD3DXMATRIX@@@Z ; CProceduralRenderObject::RenderDetailPass
PUBLIC	?__LINE__Var@?1??RenderDetailPass@CProceduralRenderObject@@QAEJPAUIDirect3DDevice8@@PAUIDirect3DTexture8@@PAKHPAUD3DXMATRIX@@@Z@4JA ; `CProceduralRenderObject::RenderDetailPass'::`2'::__LINE__Var
;	COMDAT ?__LINE__Var@?1??RenderDetailPass@CProceduralRenderObject@@QAEJPAUIDirect3DDevice8@@PAUIDirect3DTexture8@@PAKHPAUD3DXMATRIX@@@Z@4JA
_DATA	SEGMENT
?__LINE__Var@?1??RenderDetailPass@CProceduralRenderObject@@QAEJPAUIDirect3DDevice8@@PAUIDirect3DTexture8@@PAKHPAUD3DXMATRIX@@@Z@4JA DD 0586H ; `CProceduralRenderObject::RenderDetailPass'::`2'::__LINE__Var
; Function compile flags: /Odt /RTCsu /ZI
_DATA	ENDS
;	COMDAT ?RenderDetailPass@CProceduralRenderObject@@QAEJPAUIDirect3DDevice8@@PAUIDirect3DTexture8@@PAKHPAUD3DXMATRIX@@@Z
_TEXT	SEGMENT
_pIB$85908 = -132
_pVB$85907 = -120
_i$85903 = -108
_matCombinedWorld$ = -96
_hr$ = -20
_this$ = -8
_pDev$ = 8
_pTexA$ = 12
_pulPolyCount$ = 16
_nDS$ = 20
_pmatCurWorld$ = 24
?RenderDetailPass@CProceduralRenderObject@@QAEJPAUIDirect3DDevice8@@PAUIDirect3DTexture8@@PAKHPAUD3DXMATRIX@@@Z PROC NEAR ; CProceduralRenderObject::RenderDetailPass, COMDAT
; _this$ = ecx

; 1414 : 	{

  00000	55		 push	 ebp
  00001	8b ec		 mov	 ebp, esp
  00003	81 ec 48 01 00
	00		 sub	 esp, 328		; 00000148H
  00009	53		 push	 ebx
  0000a	56		 push	 esi
  0000b	57		 push	 edi
  0000c	51		 push	 ecx
  0000d	8d bd b8 fe ff
	ff		 lea	 edi, DWORD PTR [ebp-328]
  00013	b9 52 00 00 00	 mov	 ecx, 82			; 00000052H
  00018	b8 cc cc cc cc	 mov	 eax, -858993460		; ccccccccH
  0001d	f3 ab		 rep stosd
  0001f	59		 pop	 ecx
  00020	89 4d f8	 mov	 DWORD PTR _this$[ebp], ecx

; 1415 : 		HRESULT hr ;
; 1416 : 		xMat matCombinedWorld ;

  00023	8d 4d a0	 lea	 ecx, DWORD PTR _matCombinedWorld$[ebp]
  00026	e8 00 00 00 00	 call	 ??0D3DXMATRIX@@QAE@XZ	; D3DXMATRIX::D3DXMATRIX

; 1417 : 
; 1418 : 		matCombinedWorld = m_matWorld ;

  0002b	8b 75 f8	 mov	 esi, DWORD PTR _this$[ebp]
  0002e	81 c6 74 0a 00
	00		 add	 esi, 2676		; 00000a74H
  00034	b9 10 00 00 00	 mov	 ecx, 16			; 00000010H
  00039	8d 7d a0	 lea	 edi, DWORD PTR _matCombinedWorld$[ebp]
  0003c	f3 a5		 rep movsd

; 1419 : 		if (pmatCurWorld)

  0003e	83 7d 18 00	 cmp	 DWORD PTR _pmatCurWorld$[ebp], 0
  00042	74 11		 je	 SHORT $L85901

; 1420 : 			D3DXMatrixMultiply(&matCombinedWorld, &matCombinedWorld, pmatCurWorld) ;

  00044	8b 45 18	 mov	 eax, DWORD PTR _pmatCurWorld$[ebp]
  00047	50		 push	 eax
  00048	8d 4d a0	 lea	 ecx, DWORD PTR _matCombinedWorld$[ebp]
  0004b	51		 push	 ecx
  0004c	8d 55 a0	 lea	 edx, DWORD PTR _matCombinedWorld$[ebp]
  0004f	52		 push	 edx
  00050	e8 00 00 00 00	 call	 _D3DXMatrixMultiply@12
$L85901:

; 1421 : 		pDev->SetTransform(D3DTS_WORLD, &matCombinedWorld) ;

  00055	8b f4		 mov	 esi, esp
  00057	8d 45 a0	 lea	 eax, DWORD PTR _matCombinedWorld$[ebp]
  0005a	50		 push	 eax
  0005b	68 00 01 00 00	 push	 256			; 00000100H
  00060	8b 4d 08	 mov	 ecx, DWORD PTR _pDev$[ebp]
  00063	8b 11		 mov	 edx, DWORD PTR [ecx]
  00065	8b 45 08	 mov	 eax, DWORD PTR _pDev$[ebp]
  00068	50		 push	 eax
  00069	ff 92 94 00 00
	00		 call	 DWORD PTR [edx+148]
  0006f	3b f4		 cmp	 esi, esp
  00071	e8 00 00 00 00	 call	 __RTC_CheckEsp

; 1422 : 
; 1423 : 		for (int i = 0 ; i < m_nRSs ; i ++)

  00076	c7 45 94 00 00
	00 00		 mov	 DWORD PTR _i$85903[ebp], 0
  0007d	eb 09		 jmp	 SHORT $L85904
$L85905:
  0007f	8b 45 94	 mov	 eax, DWORD PTR _i$85903[ebp]
  00082	83 c0 01	 add	 eax, 1
  00085	89 45 94	 mov	 DWORD PTR _i$85903[ebp], eax
$L85904:
  00088	8b 45 f8	 mov	 eax, DWORD PTR _this$[ebp]
  0008b	8b 4d 94	 mov	 ecx, DWORD PTR _i$85903[ebp]
  0008e	3b 88 48 0a 00
	00		 cmp	 ecx, DWORD PTR [eax+2632]
  00094	0f 8d 12 05 00
	00		 jge	 $L85906

; 1424 : 		{
; 1425 : 			LPDIRECT3DVERTEXBUFFER8 pVB ;
; 1426 : 			LPDIRECT3DINDEXBUFFER8 pIB ;
; 1427 : 
; 1428 : 			if (m_bUseD3DXMesh)

  0009a	8b 45 f8	 mov	 eax, DWORD PTR _this$[ebp]
  0009d	83 b8 54 0a 00
	00 00		 cmp	 DWORD PTR [eax+2644], 0
  000a4	74 77		 je	 SHORT $L85909

; 1429 : 			{
; 1430 : 				m_ntvRS[i].pMesh->GetVertexBuffer(&pVB) ;

  000a6	8b f4		 mov	 esi, esp
  000a8	8d 45 88	 lea	 eax, DWORD PTR _pVB$85907[ebp]
  000ab	50		 push	 eax
  000ac	8b 4d 94	 mov	 ecx, DWORD PTR _i$85903[ebp]
  000af	69 c9 44 01 00
	00		 imul	 ecx, 324		; 00000144H
  000b5	8b 55 f8	 mov	 edx, DWORD PTR _this$[ebp]
  000b8	8b 84 0a 94 00
	00 00		 mov	 eax, DWORD PTR [edx+ecx+148]
  000bf	8b 4d 94	 mov	 ecx, DWORD PTR _i$85903[ebp]
  000c2	69 c9 44 01 00
	00		 imul	 ecx, 324		; 00000144H
  000c8	8b 55 f8	 mov	 edx, DWORD PTR _this$[ebp]
  000cb	8b 8c 0a 94 00
	00 00		 mov	 ecx, DWORD PTR [edx+ecx+148]
  000d2	8b 10		 mov	 edx, DWORD PTR [eax]
  000d4	51		 push	 ecx
  000d5	ff 52 30	 call	 DWORD PTR [edx+48]
  000d8	3b f4		 cmp	 esi, esp
  000da	e8 00 00 00 00	 call	 __RTC_CheckEsp

; 1431 : 				m_ntvRS[i].pMesh->GetIndexBuffer(&pIB) ;

  000df	8b f4		 mov	 esi, esp
  000e1	8d 85 7c ff ff
	ff		 lea	 eax, DWORD PTR _pIB$85908[ebp]
  000e7	50		 push	 eax
  000e8	8b 4d 94	 mov	 ecx, DWORD PTR _i$85903[ebp]
  000eb	69 c9 44 01 00
	00		 imul	 ecx, 324		; 00000144H
  000f1	8b 55 f8	 mov	 edx, DWORD PTR _this$[ebp]
  000f4	8b 84 0a 94 00
	00 00		 mov	 eax, DWORD PTR [edx+ecx+148]
  000fb	8b 4d 94	 mov	 ecx, DWORD PTR _i$85903[ebp]
  000fe	69 c9 44 01 00
	00		 imul	 ecx, 324		; 00000144H
  00104	8b 55 f8	 mov	 edx, DWORD PTR _this$[ebp]
  00107	8b 8c 0a 94 00
	00 00		 mov	 ecx, DWORD PTR [edx+ecx+148]
  0010e	8b 10		 mov	 edx, DWORD PTR [eax]
  00110	51		 push	 ecx
  00111	ff 52 34	 call	 DWORD PTR [edx+52]
  00114	3b f4		 cmp	 esi, esp
  00116	e8 00 00 00 00	 call	 __RTC_CheckEsp

; 1432 : 			}
; 1433 : 			else

  0011b	eb 2f		 jmp	 SHORT $L85910
$L85909:

; 1434 : 			{
; 1435 : 				pVB = m_ntvRS[i].pVB ;

  0011d	8b 45 94	 mov	 eax, DWORD PTR _i$85903[ebp]
  00120	69 c0 44 01 00
	00		 imul	 eax, 324		; 00000144H
  00126	8b 4d f8	 mov	 ecx, DWORD PTR _this$[ebp]
  00129	8b 94 01 98 00
	00 00		 mov	 edx, DWORD PTR [ecx+eax+152]
  00130	89 55 88	 mov	 DWORD PTR _pVB$85907[ebp], edx

; 1436 : 				pIB = m_ntvRS[i].pIB ;

  00133	8b 45 94	 mov	 eax, DWORD PTR _i$85903[ebp]
  00136	69 c0 44 01 00
	00		 imul	 eax, 324		; 00000144H
  0013c	8b 4d f8	 mov	 ecx, DWORD PTR _this$[ebp]
  0013f	8b 94 01 9c 00
	00 00		 mov	 edx, DWORD PTR [ecx+eax+156]
  00146	89 95 7c ff ff
	ff		 mov	 DWORD PTR _pIB$85908[ebp], edx
$L85910:

; 1437 : 			}
; 1438 : 
; 1439 : 			if (m_dwFVF == MYFVF_UNCOLOREDVERTEX)

  0014c	8b 45 f8	 mov	 eax, DWORD PTR _this$[ebp]
  0014f	81 38 12 01 00
	00		 cmp	 DWORD PTR [eax], 274	; 00000112H
  00155	75 20		 jne	 SHORT $L85911

; 1440 : 				pDev->SetStreamSource(0, pVB, sizeof(UNCOLOREDVERTEX)) ;

  00157	8b f4		 mov	 esi, esp
  00159	6a 20		 push	 32			; 00000020H
  0015b	8b 45 88	 mov	 eax, DWORD PTR _pVB$85907[ebp]
  0015e	50		 push	 eax
  0015f	6a 00		 push	 0
  00161	8b 4d 08	 mov	 ecx, DWORD PTR _pDev$[ebp]
  00164	8b 11		 mov	 edx, DWORD PTR [ecx]
  00166	8b 45 08	 mov	 eax, DWORD PTR _pDev$[ebp]
  00169	50		 push	 eax
  0016a	ff 92 4c 01 00
	00		 call	 DWORD PTR [edx+332]
  00170	3b f4		 cmp	 esi, esp
  00172	e8 00 00 00 00	 call	 __RTC_CheckEsp
$L85911:

; 1441 : 			if (m_dwFVF == MYFVF_COLOREDVERTEX)

  00177	8b 45 f8	 mov	 eax, DWORD PTR _this$[ebp]
  0017a	81 38 c2 01 00
	00		 cmp	 DWORD PTR [eax], 450	; 000001c2H
  00180	75 20		 jne	 SHORT $L85913

; 1442 : 				pDev->SetStreamSource(0, pVB, sizeof(COLOREDVERTEX)) ;

  00182	8b f4		 mov	 esi, esp
  00184	6a 1c		 push	 28			; 0000001cH
  00186	8b 45 88	 mov	 eax, DWORD PTR _pVB$85907[ebp]
  00189	50		 push	 eax
  0018a	6a 00		 push	 0
  0018c	8b 4d 08	 mov	 ecx, DWORD PTR _pDev$[ebp]
  0018f	8b 11		 mov	 edx, DWORD PTR [ecx]
  00191	8b 45 08	 mov	 eax, DWORD PTR _pDev$[ebp]
  00194	50		 push	 eax
  00195	ff 92 4c 01 00
	00		 call	 DWORD PTR [edx+332]
  0019b	3b f4		 cmp	 esi, esp
  0019d	e8 00 00 00 00	 call	 __RTC_CheckEsp
$L85913:

; 1443 : 			if (m_dwFVF == MYFVF_COLOREDVERTEX2TEX)

  001a2	8b 45 f8	 mov	 eax, DWORD PTR _this$[ebp]
  001a5	81 38 c2 02 00
	00		 cmp	 DWORD PTR [eax], 706	; 000002c2H
  001ab	75 20		 jne	 SHORT $L85915

; 1444 : 				pDev->SetStreamSource(0, pVB, sizeof(COLOREDVERTEX2TEX)) ;

  001ad	8b f4		 mov	 esi, esp
  001af	6a 24		 push	 36			; 00000024H
  001b1	8b 45 88	 mov	 eax, DWORD PTR _pVB$85907[ebp]
  001b4	50		 push	 eax
  001b5	6a 00		 push	 0
  001b7	8b 4d 08	 mov	 ecx, DWORD PTR _pDev$[ebp]
  001ba	8b 11		 mov	 edx, DWORD PTR [ecx]
  001bc	8b 45 08	 mov	 eax, DWORD PTR _pDev$[ebp]
  001bf	50		 push	 eax
  001c0	ff 92 4c 01 00
	00		 call	 DWORD PTR [edx+332]
  001c6	3b f4		 cmp	 esi, esp
  001c8	e8 00 00 00 00	 call	 __RTC_CheckEsp
$L85915:

; 1445 : 			if (m_dwFVF == MYFVF_COLOREDVERTEXWITHNORMAL)

  001cd	8b 45 f8	 mov	 eax, DWORD PTR _this$[ebp]
  001d0	81 38 d2 01 00
	00		 cmp	 DWORD PTR [eax], 466	; 000001d2H
  001d6	75 20		 jne	 SHORT $L85917

; 1446 : 				pDev->SetStreamSource(0, pVB, sizeof(COLOREDVERTEXWITHNORMAL)) ;

  001d8	8b f4		 mov	 esi, esp
  001da	6a 28		 push	 40			; 00000028H
  001dc	8b 45 88	 mov	 eax, DWORD PTR _pVB$85907[ebp]
  001df	50		 push	 eax
  001e0	6a 00		 push	 0
  001e2	8b 4d 08	 mov	 ecx, DWORD PTR _pDev$[ebp]
  001e5	8b 11		 mov	 edx, DWORD PTR [ecx]
  001e7	8b 45 08	 mov	 eax, DWORD PTR _pDev$[ebp]
  001ea	50		 push	 eax
  001eb	ff 92 4c 01 00
	00		 call	 DWORD PTR [edx+332]
  001f1	3b f4		 cmp	 esi, esp
  001f3	e8 00 00 00 00	 call	 __RTC_CheckEsp
$L85917:

; 1447 : 			if (m_dwFVF == MYFVF_COLOREDVERTEXWITHNORMAL2TEX)

  001f8	8b 45 f8	 mov	 eax, DWORD PTR _this$[ebp]
  001fb	81 38 d2 02 00
	00		 cmp	 DWORD PTR [eax], 722	; 000002d2H
  00201	75 20		 jne	 SHORT $L85919

; 1448 : 				pDev->SetStreamSource(0, pVB, sizeof(COLOREDVERTEXWITHNORMAL2TEX)) ;

  00203	8b f4		 mov	 esi, esp
  00205	6a 30		 push	 48			; 00000030H
  00207	8b 45 88	 mov	 eax, DWORD PTR _pVB$85907[ebp]
  0020a	50		 push	 eax
  0020b	6a 00		 push	 0
  0020d	8b 4d 08	 mov	 ecx, DWORD PTR _pDev$[ebp]
  00210	8b 11		 mov	 edx, DWORD PTR [ecx]
  00212	8b 45 08	 mov	 eax, DWORD PTR _pDev$[ebp]
  00215	50		 push	 eax
  00216	ff 92 4c 01 00
	00		 call	 DWORD PTR [edx+332]
  0021c	3b f4		 cmp	 esi, esp
  0021e	e8 00 00 00 00	 call	 __RTC_CheckEsp
$L85919:

; 1449 : 
; 1450 : 			pDev->SetIndices(pIB, 0) ;

  00223	8b f4		 mov	 esi, esp
  00225	6a 00		 push	 0
  00227	8b 85 7c ff ff
	ff		 mov	 eax, DWORD PTR _pIB$85908[ebp]
  0022d	50		 push	 eax
  0022e	8b 4d 08	 mov	 ecx, DWORD PTR _pDev$[ebp]
  00231	8b 11		 mov	 edx, DWORD PTR [ecx]
  00233	8b 45 08	 mov	 eax, DWORD PTR _pDev$[ebp]
  00236	50		 push	 eax
  00237	ff 92 54 01 00
	00		 call	 DWORD PTR [edx+340]
  0023d	3b f4		 cmp	 esi, esp
  0023f	e8 00 00 00 00	 call	 __RTC_CheckEsp

; 1451 : 			pDev->SetVertexShader(m_dwFVF) ;

  00244	8b f4		 mov	 esi, esp
  00246	8b 45 f8	 mov	 eax, DWORD PTR _this$[ebp]
  00249	8b 08		 mov	 ecx, DWORD PTR [eax]
  0024b	51		 push	 ecx
  0024c	8b 55 08	 mov	 edx, DWORD PTR _pDev$[ebp]
  0024f	8b 02		 mov	 eax, DWORD PTR [edx]
  00251	8b 4d 08	 mov	 ecx, DWORD PTR _pDev$[ebp]
  00254	51		 push	 ecx
  00255	ff 90 30 01 00
	00		 call	 DWORD PTR [eax+304]
  0025b	3b f4		 cmp	 esi, esp
  0025d	e8 00 00 00 00	 call	 __RTC_CheckEsp

; 1452 : 			pDev->SetTexture(0, pTexA) ;

  00262	8b f4		 mov	 esi, esp
  00264	8b 45 0c	 mov	 eax, DWORD PTR _pTexA$[ebp]
  00267	50		 push	 eax
  00268	6a 00		 push	 0
  0026a	8b 4d 08	 mov	 ecx, DWORD PTR _pDev$[ebp]
  0026d	8b 11		 mov	 edx, DWORD PTR [ecx]
  0026f	8b 45 08	 mov	 eax, DWORD PTR _pDev$[ebp]
  00272	50		 push	 eax
  00273	ff 92 f4 00 00
	00		 call	 DWORD PTR [edx+244]
  00279	3b f4		 cmp	 esi, esp
  0027b	e8 00 00 00 00	 call	 __RTC_CheckEsp

; 1453 : 			
; 1454 : 		// set for single texture;
; 1455 : 			pDev->SetTextureStageState( 0, D3DTSS_TEXCOORDINDEX, 1 );

  00280	8b f4		 mov	 esi, esp
  00282	6a 01		 push	 1
  00284	6a 0b		 push	 11			; 0000000bH
  00286	6a 00		 push	 0
  00288	8b 45 08	 mov	 eax, DWORD PTR _pDev$[ebp]
  0028b	8b 08		 mov	 ecx, DWORD PTR [eax]
  0028d	8b 55 08	 mov	 edx, DWORD PTR _pDev$[ebp]
  00290	52		 push	 edx
  00291	ff 91 fc 00 00
	00		 call	 DWORD PTR [ecx+252]
  00297	3b f4		 cmp	 esi, esp
  00299	e8 00 00 00 00	 call	 __RTC_CheckEsp

; 1456 : 
; 1457 : 			pDev->SetRenderState( D3DRS_SRCBLEND,  D3DBLEND_SRCALPHA );

  0029e	8b f4		 mov	 esi, esp
  002a0	6a 05		 push	 5
  002a2	6a 13		 push	 19			; 00000013H
  002a4	8b 45 08	 mov	 eax, DWORD PTR _pDev$[ebp]
  002a7	8b 08		 mov	 ecx, DWORD PTR [eax]
  002a9	8b 55 08	 mov	 edx, DWORD PTR _pDev$[ebp]
  002ac	52		 push	 edx
  002ad	ff 91 c8 00 00
	00		 call	 DWORD PTR [ecx+200]
  002b3	3b f4		 cmp	 esi, esp
  002b5	e8 00 00 00 00	 call	 __RTC_CheckEsp

; 1458 : 			pDev->SetRenderState( D3DRS_DESTBLEND, D3DBLEND_INVSRCALPHA );

  002ba	8b f4		 mov	 esi, esp
  002bc	6a 06		 push	 6
  002be	6a 14		 push	 20			; 00000014H
  002c0	8b 45 08	 mov	 eax, DWORD PTR _pDev$[ebp]
  002c3	8b 08		 mov	 ecx, DWORD PTR [eax]
  002c5	8b 55 08	 mov	 edx, DWORD PTR _pDev$[ebp]
  002c8	52		 push	 edx
  002c9	ff 91 c8 00 00
	00		 call	 DWORD PTR [ecx+200]
  002cf	3b f4		 cmp	 esi, esp
  002d1	e8 00 00 00 00	 call	 __RTC_CheckEsp

; 1459 : 			pDev->SetRenderState( D3DRS_TEXTUREFACTOR, 0x11ffffff );

  002d6	8b f4		 mov	 esi, esp
  002d8	68 ff ff ff 11	 push	 301989887		; 11ffffffH
  002dd	6a 3c		 push	 60			; 0000003cH
  002df	8b 45 08	 mov	 eax, DWORD PTR _pDev$[ebp]
  002e2	8b 08		 mov	 ecx, DWORD PTR [eax]
  002e4	8b 55 08	 mov	 edx, DWORD PTR _pDev$[ebp]
  002e7	52		 push	 edx
  002e8	ff 91 c8 00 00
	00		 call	 DWORD PTR [ecx+200]
  002ee	3b f4		 cmp	 esi, esp
  002f0	e8 00 00 00 00	 call	 __RTC_CheckEsp

; 1460 : 
; 1461 : 			SetTextureColorStage( pDev, 0, D3DTA_TEXTURE, D3DTOP_SELECTARG1, D3DTA_CURRENT )

  002f5	8b f4		 mov	 esi, esp
  002f7	6a 02		 push	 2
  002f9	6a 01		 push	 1
  002fb	6a 00		 push	 0
  002fd	8b 45 08	 mov	 eax, DWORD PTR _pDev$[ebp]
  00300	8b 08		 mov	 ecx, DWORD PTR [eax]
  00302	8b 55 08	 mov	 edx, DWORD PTR _pDev$[ebp]
  00305	52		 push	 edx
  00306	ff 91 fc 00 00
	00		 call	 DWORD PTR [ecx+252]
  0030c	3b f4		 cmp	 esi, esp
  0030e	e8 00 00 00 00	 call	 __RTC_CheckEsp
  00313	8b f4		 mov	 esi, esp
  00315	6a 02		 push	 2
  00317	6a 02		 push	 2
  00319	6a 00		 push	 0
  0031b	8b 45 08	 mov	 eax, DWORD PTR _pDev$[ebp]
  0031e	8b 08		 mov	 ecx, DWORD PTR [eax]
  00320	8b 55 08	 mov	 edx, DWORD PTR _pDev$[ebp]
  00323	52		 push	 edx
  00324	ff 91 fc 00 00
	00		 call	 DWORD PTR [ecx+252]
  0032a	3b f4		 cmp	 esi, esp
  0032c	e8 00 00 00 00	 call	 __RTC_CheckEsp
  00331	8b f4		 mov	 esi, esp
  00333	6a 01		 push	 1
  00335	6a 03		 push	 3
  00337	6a 00		 push	 0
  00339	8b 45 08	 mov	 eax, DWORD PTR _pDev$[ebp]
  0033c	8b 08		 mov	 ecx, DWORD PTR [eax]
  0033e	8b 55 08	 mov	 edx, DWORD PTR _pDev$[ebp]
  00341	52		 push	 edx
  00342	ff 91 fc 00 00
	00		 call	 DWORD PTR [ecx+252]
  00348	3b f4		 cmp	 esi, esp
  0034a	e8 00 00 00 00	 call	 __RTC_CheckEsp

; 1462 : 			SetTextureColorStage( pDev, 1, D3DTA_CURRENT, D3DTOP_DISABLE,	 D3DTA_CURRENT )

  0034f	8b f4		 mov	 esi, esp
  00351	6a 01		 push	 1
  00353	6a 01		 push	 1
  00355	6a 01		 push	 1
  00357	8b 45 08	 mov	 eax, DWORD PTR _pDev$[ebp]
  0035a	8b 08		 mov	 ecx, DWORD PTR [eax]
  0035c	8b 55 08	 mov	 edx, DWORD PTR _pDev$[ebp]
  0035f	52		 push	 edx
  00360	ff 91 fc 00 00
	00		 call	 DWORD PTR [ecx+252]
  00366	3b f4		 cmp	 esi, esp
  00368	e8 00 00 00 00	 call	 __RTC_CheckEsp
  0036d	8b f4		 mov	 esi, esp
  0036f	6a 01		 push	 1
  00371	6a 02		 push	 2
  00373	6a 01		 push	 1
  00375	8b 45 08	 mov	 eax, DWORD PTR _pDev$[ebp]
  00378	8b 08		 mov	 ecx, DWORD PTR [eax]
  0037a	8b 55 08	 mov	 edx, DWORD PTR _pDev$[ebp]
  0037d	52		 push	 edx
  0037e	ff 91 fc 00 00
	00		 call	 DWORD PTR [ecx+252]
  00384	3b f4		 cmp	 esi, esp
  00386	e8 00 00 00 00	 call	 __RTC_CheckEsp
  0038b	8b f4		 mov	 esi, esp
  0038d	6a 01		 push	 1
  0038f	6a 03		 push	 3
  00391	6a 01		 push	 1
  00393	8b 45 08	 mov	 eax, DWORD PTR _pDev$[ebp]
  00396	8b 08		 mov	 ecx, DWORD PTR [eax]
  00398	8b 55 08	 mov	 edx, DWORD PTR _pDev$[ebp]
  0039b	52		 push	 edx
  0039c	ff 91 fc 00 00
	00		 call	 DWORD PTR [ecx+252]
  003a2	3b f4		 cmp	 esi, esp
  003a4	e8 00 00 00 00	 call	 __RTC_CheckEsp

; 1463 : 			
; 1464 : 			SetTextureAlphaStage( pDev, 0, D3DTA_TFACTOR, D3DTOP_SELECTARG1, D3DTA_CURRENT )

  003a9	8b f4		 mov	 esi, esp
  003ab	6a 02		 push	 2
  003ad	6a 04		 push	 4
  003af	6a 00		 push	 0
  003b1	8b 45 08	 mov	 eax, DWORD PTR _pDev$[ebp]
  003b4	8b 08		 mov	 ecx, DWORD PTR [eax]
  003b6	8b 55 08	 mov	 edx, DWORD PTR _pDev$[ebp]
  003b9	52		 push	 edx
  003ba	ff 91 fc 00 00
	00		 call	 DWORD PTR [ecx+252]
  003c0	3b f4		 cmp	 esi, esp
  003c2	e8 00 00 00 00	 call	 __RTC_CheckEsp
  003c7	8b f4		 mov	 esi, esp
  003c9	6a 03		 push	 3
  003cb	6a 05		 push	 5
  003cd	6a 00		 push	 0
  003cf	8b 45 08	 mov	 eax, DWORD PTR _pDev$[ebp]
  003d2	8b 08		 mov	 ecx, DWORD PTR [eax]
  003d4	8b 55 08	 mov	 edx, DWORD PTR _pDev$[ebp]
  003d7	52		 push	 edx
  003d8	ff 91 fc 00 00
	00		 call	 DWORD PTR [ecx+252]
  003de	3b f4		 cmp	 esi, esp
  003e0	e8 00 00 00 00	 call	 __RTC_CheckEsp
  003e5	8b f4		 mov	 esi, esp
  003e7	6a 01		 push	 1
  003e9	6a 06		 push	 6
  003eb	6a 00		 push	 0
  003ed	8b 45 08	 mov	 eax, DWORD PTR _pDev$[ebp]
  003f0	8b 08		 mov	 ecx, DWORD PTR [eax]
  003f2	8b 55 08	 mov	 edx, DWORD PTR _pDev$[ebp]
  003f5	52		 push	 edx
  003f6	ff 91 fc 00 00
	00		 call	 DWORD PTR [ecx+252]
  003fc	3b f4		 cmp	 esi, esp
  003fe	e8 00 00 00 00	 call	 __RTC_CheckEsp

; 1465 : 			SetTextureAlphaStage( pDev, 1, D3DTA_CURRENT, D3DTOP_DISABLE,	 D3DTA_CURRENT )

  00403	8b f4		 mov	 esi, esp
  00405	6a 01		 push	 1
  00407	6a 04		 push	 4
  00409	6a 01		 push	 1
  0040b	8b 45 08	 mov	 eax, DWORD PTR _pDev$[ebp]
  0040e	8b 08		 mov	 ecx, DWORD PTR [eax]
  00410	8b 55 08	 mov	 edx, DWORD PTR _pDev$[ebp]
  00413	52		 push	 edx
  00414	ff 91 fc 00 00
	00		 call	 DWORD PTR [ecx+252]
  0041a	3b f4		 cmp	 esi, esp
  0041c	e8 00 00 00 00	 call	 __RTC_CheckEsp
  00421	8b f4		 mov	 esi, esp
  00423	6a 01		 push	 1
  00425	6a 05		 push	 5
  00427	6a 01		 push	 1
  00429	8b 45 08	 mov	 eax, DWORD PTR _pDev$[ebp]
  0042c	8b 08		 mov	 ecx, DWORD PTR [eax]
  0042e	8b 55 08	 mov	 edx, DWORD PTR _pDev$[ebp]
  00431	52		 push	 edx
  00432	ff 91 fc 00 00
	00		 call	 DWORD PTR [ecx+252]
  00438	3b f4		 cmp	 esi, esp
  0043a	e8 00 00 00 00	 call	 __RTC_CheckEsp
  0043f	8b f4		 mov	 esi, esp
  00441	6a 01		 push	 1
  00443	6a 06		 push	 6
  00445	6a 01		 push	 1
  00447	8b 45 08	 mov	 eax, DWORD PTR _pDev$[ebp]
  0044a	8b 08		 mov	 ecx, DWORD PTR [eax]
  0044c	8b 55 08	 mov	 edx, DWORD PTR _pDev$[ebp]
  0044f	52		 push	 edx
  00450	ff 91 fc 00 00
	00		 call	 DWORD PTR [ecx+252]
  00456	3b f4		 cmp	 esi, esp
  00458	e8 00 00 00 00	 call	 __RTC_CheckEsp

; 1466 : 
; 1467 :             pDev->SetMaterial(&m_ntvRS[i].mtrlMaterial) ;

  0045d	8b 45 94	 mov	 eax, DWORD PTR _i$85903[ebp]
  00460	69 c0 44 01 00
	00		 imul	 eax, 324		; 00000144H
  00466	8b 4d f8	 mov	 ecx, DWORD PTR _this$[ebp]
  00469	8d 54 01 50	 lea	 edx, DWORD PTR [ecx+eax+80]
  0046d	8b f4		 mov	 esi, esp
  0046f	52		 push	 edx
  00470	8b 45 08	 mov	 eax, DWORD PTR _pDev$[ebp]
  00473	8b 08		 mov	 ecx, DWORD PTR [eax]
  00475	8b 55 08	 mov	 edx, DWORD PTR _pDev$[ebp]
  00478	52		 push	 edx
  00479	ff 91 a8 00 00
	00		 call	 DWORD PTR [ecx+168]
  0047f	3b f4		 cmp	 esi, esp
  00481	e8 00 00 00 00	 call	 __RTC_CheckEsp

; 1468 : 
; 1469 : 		// draw;
; 1470 : 			hr = 
; 1471 : 				pDev->DrawIndexedPrimitive(
; 1472 : 								D3DPT_TRIANGLELIST,
; 1473 : 								m_ntvRS[i].dwSS_MinIndex[nDS],
; 1474 : 								m_ntvRS[i].dwSS_MaxIndex[nDS] - 
; 1475 : 								m_ntvRS[i].dwSS_MinIndex[nDS] + 1,
; 1476 : 								m_ntvRS[i].dwSS_StartIndex[nDS],
; 1477 : 								m_ntvRS[i].dwSS_PrimCount[nDS]
; 1478 : 										  );

  00486	8b 45 94	 mov	 eax, DWORD PTR _i$85903[ebp]
  00489	69 c0 44 01 00
	00		 imul	 eax, 324		; 00000144H
  0048f	8b 4d f8	 mov	 ecx, DWORD PTR _this$[ebp]
  00492	8d 54 01 28	 lea	 edx, DWORD PTR [ecx+eax+40]
  00496	8b f4		 mov	 esi, esp
  00498	8b 45 14	 mov	 eax, DWORD PTR _nDS$[ebp]
  0049b	8b 8c 82 1c 01
	00 00		 mov	 ecx, DWORD PTR [edx+eax*4+284]
  004a2	51		 push	 ecx
  004a3	8b 55 94	 mov	 edx, DWORD PTR _i$85903[ebp]
  004a6	69 d2 44 01 00
	00		 imul	 edx, 324		; 00000144H
  004ac	8b 45 f8	 mov	 eax, DWORD PTR _this$[ebp]
  004af	8d 4c 10 28	 lea	 ecx, DWORD PTR [eax+edx+40]
  004b3	8b 55 14	 mov	 edx, DWORD PTR _nDS$[ebp]
  004b6	8b 84 91 f4 00
	00 00		 mov	 eax, DWORD PTR [ecx+edx*4+244]
  004bd	50		 push	 eax
  004be	8b 4d 94	 mov	 ecx, DWORD PTR _i$85903[ebp]
  004c1	69 c9 44 01 00
	00		 imul	 ecx, 324		; 00000144H
  004c7	8b 55 f8	 mov	 edx, DWORD PTR _this$[ebp]
  004ca	8d 44 0a 28	 lea	 eax, DWORD PTR [edx+ecx+40]
  004ce	8b 4d 94	 mov	 ecx, DWORD PTR _i$85903[ebp]
  004d1	69 c9 44 01 00
	00		 imul	 ecx, 324		; 00000144H
  004d7	8b 55 f8	 mov	 edx, DWORD PTR _this$[ebp]
  004da	8d 4c 0a 28	 lea	 ecx, DWORD PTR [edx+ecx+40]
  004de	8b 55 14	 mov	 edx, DWORD PTR _nDS$[ebp]
  004e1	8b 7d 14	 mov	 edi, DWORD PTR _nDS$[ebp]
  004e4	8b 84 90 a4 00
	00 00		 mov	 eax, DWORD PTR [eax+edx*4+164]
  004eb	2b 44 b9 7c	 sub	 eax, DWORD PTR [ecx+edi*4+124]
  004ef	83 c0 01	 add	 eax, 1
  004f2	50		 push	 eax
  004f3	8b 4d 94	 mov	 ecx, DWORD PTR _i$85903[ebp]
  004f6	69 c9 44 01 00
	00		 imul	 ecx, 324		; 00000144H
  004fc	8b 55 f8	 mov	 edx, DWORD PTR _this$[ebp]
  004ff	8d 44 0a 28	 lea	 eax, DWORD PTR [edx+ecx+40]
  00503	8b 4d 14	 mov	 ecx, DWORD PTR _nDS$[ebp]
  00506	8b 54 88 7c	 mov	 edx, DWORD PTR [eax+ecx*4+124]
  0050a	52		 push	 edx
  0050b	6a 04		 push	 4
  0050d	8b 45 08	 mov	 eax, DWORD PTR _pDev$[ebp]
  00510	8b 08		 mov	 ecx, DWORD PTR [eax]
  00512	8b 55 08	 mov	 edx, DWORD PTR _pDev$[ebp]
  00515	52		 push	 edx
  00516	ff 91 1c 01 00
	00		 call	 DWORD PTR [ecx+284]
  0051c	3b f4		 cmp	 esi, esp
  0051e	e8 00 00 00 00	 call	 __RTC_CheckEsp
  00523	89 45 ec	 mov	 DWORD PTR _hr$[ebp], eax

; 1479 : 			assert( hr==D3D_OK );

  00526	83 7d ec 00	 cmp	 DWORD PTR _hr$[ebp], 0
  0052a	74 1b		 je	 SHORT $L86181
  0052c	a1 00 00 00 00	 mov	 eax, DWORD PTR ?__LINE__Var@?1??RenderDetailPass@CProceduralRenderObject@@QAEJPAUIDirect3DDevice8@@PAUIDirect3DTexture8@@PAKHPAUD3DXMATRIX@@@Z@4JA
  00531	83 c0 41	 add	 eax, 65			; 00000041H
  00534	50		 push	 eax
  00535	68 00 00 00 00	 push	 OFFSET FLAT:??_C@_0FJ@JJKKIHO@c?3?2documents?5and?5settings?2dom?2my@
  0053a	68 00 00 00 00	 push	 OFFSET FLAT:??_C@_0L@CJJJJEMF@hr?$DN?$DND3D_OK?$AA@
  0053f	e8 00 00 00 00	 call	 __assert
  00544	83 c4 0c	 add	 esp, 12			; 0000000cH
$L86181:

; 1480 : 
; 1481 : 			if (m_bUseD3DXMesh)

  00547	8b 45 f8	 mov	 eax, DWORD PTR _this$[ebp]
  0054a	83 b8 54 0a 00
	00 00		 cmp	 DWORD PTR [eax+2644], 0
  00551	74 30		 je	 SHORT $L85924

; 1482 : 			{
; 1483 : 				pVB->Release() ;

  00553	8b 45 88	 mov	 eax, DWORD PTR _pVB$85907[ebp]
  00556	8b 08		 mov	 ecx, DWORD PTR [eax]
  00558	8b f4		 mov	 esi, esp
  0055a	8b 55 88	 mov	 edx, DWORD PTR _pVB$85907[ebp]
  0055d	52		 push	 edx
  0055e	ff 51 08	 call	 DWORD PTR [ecx+8]
  00561	3b f4		 cmp	 esi, esp
  00563	e8 00 00 00 00	 call	 __RTC_CheckEsp

; 1484 : 				pIB->Release() ;

  00568	8b 85 7c ff ff
	ff		 mov	 eax, DWORD PTR _pIB$85908[ebp]
  0056e	8b 08		 mov	 ecx, DWORD PTR [eax]
  00570	8b f4		 mov	 esi, esp
  00572	8b 95 7c ff ff
	ff		 mov	 edx, DWORD PTR _pIB$85908[ebp]
  00578	52		 push	 edx
  00579	ff 51 08	 call	 DWORD PTR [ecx+8]
  0057c	3b f4		 cmp	 esi, esp
  0057e	e8 00 00 00 00	 call	 __RTC_CheckEsp
$L85924:

; 1485 : 			}
; 1486 : 
; 1487 : 		// reset RS;
; 1488 : 			/*pDev->SetTextureStageState( 1, D3DTSS_TEXCOORDINDEX, 0 );
; 1489 : 			SetTextureColorStage( pDev, 0, D3DTA_TEXTURE, D3DTOP_SELECTARG1,		D3DTA_CURRENT )
; 1490 : 			SetTextureColorStage( pDev, 1, D3DTA_TEXTURE, D3DTOP_BLENDDIFFUSEALPHA,	D3DTA_CURRENT )
; 1491 : 			SetTextureColorStage( pDev, 2, D3DTA_DIFFUSE, D3DTOP_MODULATE,			D3DTA_CURRENT )*/
; 1492 : 
; 1493 : 			*pulPolyCount += m_ntvRS[i].dwSS_PrimCount[nDS] ;

  00583	8b 45 94	 mov	 eax, DWORD PTR _i$85903[ebp]
  00586	69 c0 44 01 00
	00		 imul	 eax, 324		; 00000144H
  0058c	8b 4d f8	 mov	 ecx, DWORD PTR _this$[ebp]
  0058f	8d 54 01 28	 lea	 edx, DWORD PTR [ecx+eax+40]
  00593	8b 45 10	 mov	 eax, DWORD PTR _pulPolyCount$[ebp]
  00596	8b 08		 mov	 ecx, DWORD PTR [eax]
  00598	8b 45 14	 mov	 eax, DWORD PTR _nDS$[ebp]
  0059b	03 8c 82 1c 01
	00 00		 add	 ecx, DWORD PTR [edx+eax*4+284]
  005a2	8b 55 10	 mov	 edx, DWORD PTR _pulPolyCount$[ebp]
  005a5	89 0a		 mov	 DWORD PTR [edx], ecx

; 1494 : 		}

  005a7	e9 d3 fa ff ff	 jmp	 $L85905
$L85906:

; 1495 : 		return S_OK ;

  005ac	33 c0		 xor	 eax, eax

; 1496 : 	}

  005ae	52		 push	 edx
  005af	8b cd		 mov	 ecx, ebp
  005b1	50		 push	 eax
  005b2	8d 15 00 00 00
	00		 lea	 edx, DWORD PTR $L86186
  005b8	e8 00 00 00 00	 call	 @_RTC_CheckStackVars@8
  005bd	58		 pop	 eax
  005be	5a		 pop	 edx
  005bf	5f		 pop	 edi
  005c0	5e		 pop	 esi
  005c1	5b		 pop	 ebx
  005c2	81 c4 48 01 00
	00		 add	 esp, 328		; 00000148H
  005c8	3b ec		 cmp	 ebp, esp
  005ca	e8 00 00 00 00	 call	 __RTC_CheckEsp
  005cf	8b e5		 mov	 esp, ebp
  005d1	5d		 pop	 ebp
  005d2	c2 14 00	 ret	 20			; 00000014H
$L86186:
  005d5	03 00 00 00	 DD	 3
  005d9	00 00 00 00	 DD	 $L86185
$L86185:
  005dd	a0 ff ff ff	 DD	 -96			; ffffffa0H
  005e1	40 00 00 00	 DD	 64			; 00000040H
  005e5	00 00 00 00	 DD	 $L86182
  005e9	88 ff ff ff	 DD	 -120			; ffffff88H
  005ed	04 00 00 00	 DD	 4
  005f1	00 00 00 00	 DD	 $L86183
  005f5	7c ff ff ff	 DD	 -132			; ffffff7cH
  005f9	04 00 00 00	 DD	 4
  005fd	00 00 00 00	 DD	 $L86184
$L86184:
  00601	70		 DB	 112			; 00000070H
  00602	49		 DB	 73			; 00000049H
  00603	42		 DB	 66			; 00000042H
  00604	00		 DB	 0
$L86183:
  00605	70		 DB	 112			; 00000070H
  00606	56		 DB	 86			; 00000056H
  00607	42		 DB	 66			; 00000042H
  00608	00		 DB	 0
$L86182:
  00609	6d		 DB	 109			; 0000006dH
  0060a	61		 DB	 97			; 00000061H
  0060b	74		 DB	 116			; 00000074H
  0060c	43		 DB	 67			; 00000043H
  0060d	6f		 DB	 111			; 0000006fH
  0060e	6d		 DB	 109			; 0000006dH
  0060f	62		 DB	 98			; 00000062H
  00610	69		 DB	 105			; 00000069H
  00611	6e		 DB	 110			; 0000006eH
  00612	65		 DB	 101			; 00000065H
  00613	64		 DB	 100			; 00000064H
  00614	57		 DB	 87			; 00000057H
  00615	6f		 DB	 111			; 0000006fH
  00616	72		 DB	 114			; 00000072H
  00617	6c		 DB	 108			; 0000006cH
  00618	64		 DB	 100			; 00000064H
  00619	00		 DB	 0
?RenderDetailPass@CProceduralRenderObject@@QAEJPAUIDirect3DDevice8@@PAUIDirect3DTexture8@@PAKHPAUD3DXMATRIX@@@Z ENDP ; CProceduralRenderObject::RenderDetailPass
; Function compile flags: /Odt /RTCsu /ZI
; File c:\documents and settings\dom\my documents\_dev\ae\xlr8a\x7g\x7_primitives.h
_TEXT	ENDS
;	COMDAT ??0COLOREDVERTEXWITHNORMAL2TEX@@QAE@XZ
_TEXT	SEGMENT
_this$ = -8
??0COLOREDVERTEXWITHNORMAL2TEX@@QAE@XZ PROC NEAR	; COLOREDVERTEXWITHNORMAL2TEX::COLOREDVERTEXWITHNORMAL2TEX, COMDAT
; _this$ = ecx

; 132  :     COLOREDVERTEXWITHNORMAL2TEX() {} ;

  00000	55		 push	 ebp
  00001	8b ec		 mov	 ebp, esp
  00003	81 ec cc 00 00
	00		 sub	 esp, 204		; 000000ccH
  00009	53		 push	 ebx
  0000a	56		 push	 esi
  0000b	57		 push	 edi
  0000c	51		 push	 ecx
  0000d	8d bd 34 ff ff
	ff		 lea	 edi, DWORD PTR [ebp-204]
  00013	b9 33 00 00 00	 mov	 ecx, 51			; 00000033H
  00018	b8 cc cc cc cc	 mov	 eax, -858993460		; ccccccccH
  0001d	f3 ab		 rep stosd
  0001f	59		 pop	 ecx
  00020	89 4d f8	 mov	 DWORD PTR _this$[ebp], ecx
  00023	8b 45 f8	 mov	 eax, DWORD PTR _this$[ebp]
  00026	5f		 pop	 edi
  00027	5e		 pop	 esi
  00028	5b		 pop	 ebx
  00029	8b e5		 mov	 esp, ebp
  0002b	5d		 pop	 ebp
  0002c	c3		 ret	 0
??0COLOREDVERTEXWITHNORMAL2TEX@@QAE@XZ ENDP		; COLOREDVERTEXWITHNORMAL2TEX::COLOREDVERTEXWITHNORMAL2TEX
; Function compile flags: /Odt /RTCsu /ZI
_TEXT	ENDS
;	COMDAT ??0COLOREDVERTEXWITHNORMAL@@QAE@XZ
_TEXT	SEGMENT
_this$ = -8
??0COLOREDVERTEXWITHNORMAL@@QAE@XZ PROC NEAR		; COLOREDVERTEXWITHNORMAL::COLOREDVERTEXWITHNORMAL, COMDAT
; _this$ = ecx

; 160  :     COLOREDVERTEXWITHNORMAL() {} ;

  00000	55		 push	 ebp
  00001	8b ec		 mov	 ebp, esp
  00003	81 ec cc 00 00
	00		 sub	 esp, 204		; 000000ccH
  00009	53		 push	 ebx
  0000a	56		 push	 esi
  0000b	57		 push	 edi
  0000c	51		 push	 ecx
  0000d	8d bd 34 ff ff
	ff		 lea	 edi, DWORD PTR [ebp-204]
  00013	b9 33 00 00 00	 mov	 ecx, 51			; 00000033H
  00018	b8 cc cc cc cc	 mov	 eax, -858993460		; ccccccccH
  0001d	f3 ab		 rep stosd
  0001f	59		 pop	 ecx
  00020	89 4d f8	 mov	 DWORD PTR _this$[ebp], ecx
  00023	8b 45 f8	 mov	 eax, DWORD PTR _this$[ebp]
  00026	5f		 pop	 edi
  00027	5e		 pop	 esi
  00028	5b		 pop	 ebx
  00029	8b e5		 mov	 esp, ebp
  0002b	5d		 pop	 ebp
  0002c	c3		 ret	 0
??0COLOREDVERTEXWITHNORMAL@@QAE@XZ ENDP			; COLOREDVERTEXWITHNORMAL::COLOREDVERTEXWITHNORMAL
; Function compile flags: /Odt /RTCsu /ZI
_TEXT	ENDS
;	COMDAT ??0UNCOLOREDVERTEX@@QAE@XZ
_TEXT	SEGMENT
_this$ = -8
??0UNCOLOREDVERTEX@@QAE@XZ PROC NEAR			; UNCOLOREDVERTEX::UNCOLOREDVERTEX, COMDAT
; _this$ = ecx

; 185  :     UNCOLOREDVERTEX() {} ;

  00000	55		 push	 ebp
  00001	8b ec		 mov	 ebp, esp
  00003	81 ec cc 00 00
	00		 sub	 esp, 204		; 000000ccH
  00009	53		 push	 ebx
  0000a	56		 push	 esi
  0000b	57		 push	 edi
  0000c	51		 push	 ecx
  0000d	8d bd 34 ff ff
	ff		 lea	 edi, DWORD PTR [ebp-204]
  00013	b9 33 00 00 00	 mov	 ecx, 51			; 00000033H
  00018	b8 cc cc cc cc	 mov	 eax, -858993460		; ccccccccH
  0001d	f3 ab		 rep stosd
  0001f	59		 pop	 ecx
  00020	89 4d f8	 mov	 DWORD PTR _this$[ebp], ecx
  00023	8b 45 f8	 mov	 eax, DWORD PTR _this$[ebp]
  00026	5f		 pop	 edi
  00027	5e		 pop	 esi
  00028	5b		 pop	 ebx
  00029	8b e5		 mov	 esp, ebp
  0002b	5d		 pop	 ebp
  0002c	c3		 ret	 0
??0UNCOLOREDVERTEX@@QAE@XZ ENDP				; UNCOLOREDVERTEX::UNCOLOREDVERTEX
; Function compile flags: /Odt /RTCsu /ZI
_TEXT	ENDS
;	COMDAT ??0COLOREDVERTEX@@QAE@XZ
_TEXT	SEGMENT
_this$ = -8
??0COLOREDVERTEX@@QAE@XZ PROC NEAR			; COLOREDVERTEX::COLOREDVERTEX, COMDAT
; _this$ = ecx

; 222  :     COLOREDVERTEX() {} ;

  00000	55		 push	 ebp
  00001	8b ec		 mov	 ebp, esp
  00003	81 ec cc 00 00
	00		 sub	 esp, 204		; 000000ccH
  00009	53		 push	 ebx
  0000a	56		 push	 esi
  0000b	57		 push	 edi
  0000c	51		 push	 ecx
  0000d	8d bd 34 ff ff
	ff		 lea	 edi, DWORD PTR [ebp-204]
  00013	b9 33 00 00 00	 mov	 ecx, 51			; 00000033H
  00018	b8 cc cc cc cc	 mov	 eax, -858993460		; ccccccccH
  0001d	f3 ab		 rep stosd
  0001f	59		 pop	 ecx
  00020	89 4d f8	 mov	 DWORD PTR _this$[ebp], ecx
  00023	8b 45 f8	 mov	 eax, DWORD PTR _this$[ebp]
  00026	5f		 pop	 edi
  00027	5e		 pop	 esi
  00028	5b		 pop	 ebx
  00029	8b e5		 mov	 esp, ebp
  0002b	5d		 pop	 ebp
  0002c	c3		 ret	 0
??0COLOREDVERTEX@@QAE@XZ ENDP				; COLOREDVERTEX::COLOREDVERTEX
; Function compile flags: /Odt /RTCsu /ZI
_TEXT	ENDS
;	COMDAT ??0COLOREDVERTEX2TEX@@QAE@XZ
_TEXT	SEGMENT
_this$ = -8
??0COLOREDVERTEX2TEX@@QAE@XZ PROC NEAR			; COLOREDVERTEX2TEX::COLOREDVERTEX2TEX, COMDAT
; _this$ = ecx

; 254  :     COLOREDVERTEX2TEX() {} ;

  00000	55		 push	 ebp
  00001	8b ec		 mov	 ebp, esp
  00003	81 ec cc 00 00
	00		 sub	 esp, 204		; 000000ccH
  00009	53		 push	 ebx
  0000a	56		 push	 esi
  0000b	57		 push	 edi
  0000c	51		 push	 ecx
  0000d	8d bd 34 ff ff
	ff		 lea	 edi, DWORD PTR [ebp-204]
  00013	b9 33 00 00 00	 mov	 ecx, 51			; 00000033H
  00018	b8 cc cc cc cc	 mov	 eax, -858993460		; ccccccccH
  0001d	f3 ab		 rep stosd
  0001f	59		 pop	 ecx
  00020	89 4d f8	 mov	 DWORD PTR _this$[ebp], ecx
  00023	8b 45 f8	 mov	 eax, DWORD PTR _this$[ebp]
  00026	5f		 pop	 edi
  00027	5e		 pop	 esi
  00028	5b		 pop	 ebx
  00029	8b e5		 mov	 esp, ebp
  0002b	5d		 pop	 ebp
  0002c	c3		 ret	 0
??0COLOREDVERTEX2TEX@@QAE@XZ ENDP			; COLOREDVERTEX2TEX::COLOREDVERTEX2TEX
_TEXT	ENDS
END
