; Listing generated by Microsoft (R) Optimizing Compiler Version 13.00.9466 

	TITLE	CQuadtree.cpp
	.386P
include listing.inc
if @Version gt 510
.model FLAT
else
_TEXT	SEGMENT PARA USE32 PUBLIC 'CODE'
_TEXT	ENDS
_DATA	SEGMENT DWORD USE32 PUBLIC 'DATA'
_DATA	ENDS
CONST	SEGMENT DWORD USE32 PUBLIC 'CONST'
CONST	ENDS
_BSS	SEGMENT DWORD USE32 PUBLIC 'BSS'
_BSS	ENDS
$$SYMBOLS	SEGMENT BYTE USE32 'DEBSYM'
$$SYMBOLS	ENDS
$$TYPES	SEGMENT BYTE USE32 'DEBTYP'
$$TYPES	ENDS
_TLS	SEGMENT DWORD USE32 PUBLIC 'TLS'
_TLS	ENDS
;	COMDAT ??_C@_0EL@FLGCDJCA@c?3?2documents?5and?5settings?2dom?2my@
CONST	SEGMENT DWORD USE32 PUBLIC 'CONST'
CONST	ENDS
;	COMDAT ??_C@_07MGPDHOIB@?$CKppNode?$AA@
CONST	SEGMENT DWORD USE32 PUBLIC 'CONST'
CONST	ENDS
;	COMDAT ??_C@_0BK@KPOOCMLF@m_nQTNodes?5?$DM?5MAX_QT_NODES?$AA@
CONST	SEGMENT DWORD USE32 PUBLIC 'CONST'
CONST	ENDS
;	COMDAT ??_C@_0M@NKNCPJJD@?$CBFAILED?$CIhr?$CJ?$AA@
CONST	SEGMENT DWORD USE32 PUBLIC 'CONST'
CONST	ENDS
;	COMDAT ??_C@_0CB@MAOKALAP@CQuadtree?3?3RestoreDeviceObjects?6@
CONST	SEGMENT DWORD USE32 PUBLIC 'CONST'
CONST	ENDS
;	COMDAT ??_C@_08OFPOHIDN@hr?$DN?$DNS_OK?$AA@
CONST	SEGMENT DWORD USE32 PUBLIC 'CONST'
CONST	ENDS
;	COMDAT _IsEqualGUID
_TEXT	SEGMENT PARA USE32 PUBLIC 'CODE'
_TEXT	ENDS
;	COMDAT _==
_TEXT	SEGMENT PARA USE32 PUBLIC 'CODE'
_TEXT	ENDS
;	COMDAT _sqrtf
_TEXT	SEGMENT PARA USE32 PUBLIC 'CODE'
_TEXT	ENDS
;	COMDAT ??0D3DXVECTOR3@@QAE@XZ
_TEXT	SEGMENT PARA USE32 PUBLIC 'CODE'
_TEXT	ENDS
;	COMDAT ??0D3DXMATRIX@@QAE@XZ
_TEXT	SEGMENT PARA USE32 PUBLIC 'CODE'
_TEXT	ENDS
;	COMDAT ??0D3DXQUATERNION@@QAE@XZ
_TEXT	SEGMENT PARA USE32 PUBLIC 'CODE'
_TEXT	ENDS
;	COMDAT ??0D3DXVECTOR2@@QAE@MM@Z
_TEXT	SEGMENT PARA USE32 PUBLIC 'CODE'
_TEXT	ENDS
;	COMDAT ??0D3DXVECTOR3@@QAE@MMM@Z
_TEXT	SEGMENT PARA USE32 PUBLIC 'CODE'
_TEXT	ENDS
;	COMDAT ??0D3DXVECTOR4@@QAE@MMMM@Z
_TEXT	SEGMENT PARA USE32 PUBLIC 'CODE'
_TEXT	ENDS
;	COMDAT ??0D3DXMATRIX@@QAE@PBM@Z
_TEXT	SEGMENT PARA USE32 PUBLIC 'CODE'
_TEXT	ENDS
;	COMDAT ??0D3DXMATRIX@@QAE@ABU_D3DMATRIX@@@Z
_TEXT	SEGMENT PARA USE32 PUBLIC 'CODE'
_TEXT	ENDS
;	COMDAT ??0D3DXMATRIX@@QAE@MMMMMMMMMMMMMMMM@Z
_TEXT	SEGMENT PARA USE32 PUBLIC 'CODE'
_TEXT	ENDS
;	COMDAT ??0D3DXQUATERNION@@QAE@MMMM@Z
_TEXT	SEGMENT PARA USE32 PUBLIC 'CODE'
_TEXT	ENDS
;	COMDAT ??0D3DXPLANE@@QAE@MMMM@Z
_TEXT	SEGMENT PARA USE32 PUBLIC 'CODE'
_TEXT	ENDS
;	COMDAT ??0D3DXCOLOR@@QAE@MMMM@Z
_TEXT	SEGMENT PARA USE32 PUBLIC 'CODE'
_TEXT	ENDS
;	COMDAT ??0COLOREDVERTEX@@QAE@XZ
_TEXT	SEGMENT PARA USE32 PUBLIC 'CODE'
_TEXT	ENDS
;	COMDAT ??0COLOREDVERTEX@@QAE@MMMMMKK@Z
_TEXT	SEGMENT PARA USE32 PUBLIC 'CODE'
_TEXT	ENDS
;	COMDAT ??0CQuadtree@@QAE@PAUD3DXVECTOR3@@0H@Z
_TEXT	SEGMENT PARA USE32 PUBLIC 'CODE'
_TEXT	ENDS
;	COMDAT ??_H@YGXPAXIHP6EPAX0@Z@Z
_TEXT	SEGMENT PARA USE32 PUBLIC 'CODE'
_TEXT	ENDS
;	COMDAT ??1CQuadtree@@QAE@XZ
_TEXT	SEGMENT PARA USE32 PUBLIC 'CODE'
_TEXT	ENDS
;	COMDAT ?BuildQuadtree@CQuadtree@@QAEXHPAUD3DXVECTOR3@@0@Z
_TEXT	SEGMENT PARA USE32 PUBLIC 'CODE'
_TEXT	ENDS
;	COMDAT ?InitQuadtreeNode@CQuadtree@@QAEXPAPAU_QTNode@1@H@Z
_TEXT	SEGMENT PARA USE32 PUBLIC 'CODE'
_TEXT	ENDS
;	COMDAT ??0_QTNode@CQuadtree@@QAE@XZ
_TEXT	SEGMENT PARA USE32 PUBLIC 'CODE'
_TEXT	ENDS
;	COMDAT ?RecurseQuadtree@CQuadtree@@QAEXHPAU_QTNode@1@@Z
_TEXT	SEGMENT PARA USE32 PUBLIC 'CODE'
_TEXT	ENDS
;	COMDAT ?MakeRenderData@CQuadtree@@QAEJPAUIDirect3D8@@PAUIDirect3DDevice8@@@Z
_TEXT	SEGMENT PARA USE32 PUBLIC 'CODE'
_TEXT	ENDS
;	COMDAT ?RestoreDeviceObjects@CQuadtree@@QAEJPAUIDirect3D8@@PAUIDirect3DDevice8@@@Z
_TEXT	SEGMENT PARA USE32 PUBLIC 'CODE'
_TEXT	ENDS
;	COMDAT ?InvalidateDeviceObjects@CQuadtree@@QAEJXZ
_TEXT	SEGMENT PARA USE32 PUBLIC 'CODE'
_TEXT	ENDS
;	COMDAT ?Render@CQuadtree@@QAEJPAUIDirect3DDevice8@@PAKPAUD3DXMATRIX@@H@Z
_TEXT	SEGMENT PARA USE32 PUBLIC 'CODE'
_TEXT	ENDS
;	COMDAT ?__LINE__Var@?1??Render@CQuadtree@@QAEJPAUIDirect3DDevice8@@PAKPAUD3DXMATRIX@@H@Z@4JA
_DATA	SEGMENT DWORD USE32 PUBLIC 'DATA'
_DATA	ENDS
;	COMDAT ?__LINE__Var@?1??RestoreDeviceObjects@CQuadtree@@QAEJPAUIDirect3D8@@PAUIDirect3DDevice8@@@Z@4JA
_DATA	SEGMENT DWORD USE32 PUBLIC 'DATA'
_DATA	ENDS
;	COMDAT ?__LINE__Var@?1??MakeRenderData@CQuadtree@@QAEJPAUIDirect3D8@@PAUIDirect3DDevice8@@@Z@4JA
_DATA	SEGMENT DWORD USE32 PUBLIC 'DATA'
_DATA	ENDS
;	COMDAT ?__LINE__Var@?1??InitQuadtreeNode@CQuadtree@@QAEXPAPAU_QTNode@2@H@Z@4JA
_DATA	SEGMENT DWORD USE32 PUBLIC 'DATA'
_DATA	ENDS
FLAT	GROUP _DATA, CONST, _BSS
	ASSUME	CS: FLAT, DS: FLAT, SS: FLAT
endif

INCLUDELIB LIBCMTD
INCLUDELIB OLDNAMES

PUBLIC	??_H@YGXPAXIHP6EPAX0@Z@Z			; `vector constructor iterator'
PUBLIC	??0COLOREDVERTEX@@QAE@XZ			; COLOREDVERTEX::COLOREDVERTEX
PUBLIC	??0CQuadtree@@QAE@PAUD3DXVECTOR3@@0H@Z		; CQuadtree::CQuadtree
PUBLIC	?BuildQuadtree@CQuadtree@@QAEXHPAUD3DXVECTOR3@@0@Z ; CQuadtree::BuildQuadtree
EXTRN	__RTC_InitBase:NEAR
EXTRN	__RTC_Shutdown:NEAR
EXTRN	__RTC_CheckEsp:NEAR
EXTRN	__fltused:NEAR
EXTRN	?D3DUtil_InitMaterial@@YAXAAU_D3DMATERIAL8@@MMMM@Z:NEAR ; D3DUtil_InitMaterial
;	COMDAT rtc$IMZ
; File c:\documents and settings\dom\my documents\_dev\ae\xlr8a\x7g\cquadtree.cpp
rtc$IMZ	SEGMENT
__RTC_InitBase.rtc$IMZ DD FLAT:__RTC_InitBase
rtc$IMZ	ENDS
;	COMDAT rtc$TMZ
rtc$TMZ	SEGMENT
__RTC_Shutdown.rtc$TMZ DD FLAT:__RTC_Shutdown
; Function compile flags: /Odt /RTCsu /ZI
rtc$TMZ	ENDS
;	COMDAT ??0CQuadtree@@QAE@PAUD3DXVECTOR3@@0H@Z
_TEXT	SEGMENT
_this$ = -8
_pvMin$ = 8
_pvMax$ = 12
_nRequiredDepth$ = 16
??0CQuadtree@@QAE@PAUD3DXVECTOR3@@0H@Z PROC NEAR	; CQuadtree::CQuadtree, COMDAT
; _this$ = ecx

; 11   : 	{

  00000	55		 push	 ebp
  00001	8b ec		 mov	 ebp, esp
  00003	81 ec cc 00 00
	00		 sub	 esp, 204		; 000000ccH
  00009	53		 push	 ebx
  0000a	56		 push	 esi
  0000b	57		 push	 edi
  0000c	51		 push	 ecx
  0000d	8d bd 34 ff ff
	ff		 lea	 edi, DWORD PTR [ebp-204]
  00013	b9 33 00 00 00	 mov	 ecx, 51			; 00000033H
  00018	b8 cc cc cc cc	 mov	 eax, -858993460		; ccccccccH
  0001d	f3 ab		 rep stosd
  0001f	59		 pop	 ecx
  00020	89 4d f8	 mov	 DWORD PTR _this$[ebp], ecx
  00023	68 00 00 00 00	 push	 OFFSET FLAT:??0COLOREDVERTEX@@QAE@XZ ; COLOREDVERTEX::COLOREDVERTEX
  00028	6a 08		 push	 8
  0002a	6a 1c		 push	 28			; 0000001cH
  0002c	8b 45 f8	 mov	 eax, DWORD PTR _this$[ebp]
  0002f	05 14 80 00 00	 add	 eax, 32788		; 00008014H
  00034	50		 push	 eax
  00035	e8 00 00 00 00	 call	 ??_H@YGXPAXIHP6EPAX0@Z@Z

; 12   : 		// memory usage monitor
; 13   : 		m_dwMem = 0 ;

  0003a	8b 45 f8	 mov	 eax, DWORD PTR _this$[ebp]
  0003d	c7 00 00 00 00
	00		 mov	 DWORD PTR [eax], 0

; 14   : 		m_dwMem += sizeof(CQuadtree) ;

  00043	8b 45 f8	 mov	 eax, DWORD PTR _this$[ebp]
  00046	8b 08		 mov	 ecx, DWORD PTR [eax]
  00048	81 c1 88 81 00
	00		 add	 ecx, 33160		; 00008188H
  0004e	8b 55 f8	 mov	 edx, DWORD PTR _this$[ebp]
  00051	89 0a		 mov	 DWORD PTR [edx], ecx

; 15   : 
; 16   : 		// set static render data
; 17   : 		m_wIndices[0] = 0 ;	 // front face

  00053	8b 45 f8	 mov	 eax, DWORD PTR _this$[ebp]
  00056	66 c7 80 f4 80
	00 00 00 00	 mov	 WORD PTR [eax+33012], 0

; 18   : 		m_wIndices[1] = 1 ; 

  0005f	8b 45 f8	 mov	 eax, DWORD PTR _this$[ebp]
  00062	66 c7 80 f6 80
	00 00 01 00	 mov	 WORD PTR [eax+33014], 1

; 19   : 		m_wIndices[2] = 2 ;

  0006b	8b 45 f8	 mov	 eax, DWORD PTR _this$[ebp]
  0006e	66 c7 80 f8 80
	00 00 02 00	 mov	 WORD PTR [eax+33016], 2

; 20   : 		m_wIndices[3] = 3 ;

  00077	8b 45 f8	 mov	 eax, DWORD PTR _this$[ebp]
  0007a	66 c7 80 fa 80
	00 00 03 00	 mov	 WORD PTR [eax+33018], 3

; 21   : 		m_wIndices[4] = 2 ;

  00083	8b 45 f8	 mov	 eax, DWORD PTR _this$[ebp]
  00086	66 c7 80 fc 80
	00 00 02 00	 mov	 WORD PTR [eax+33020], 2

; 22   : 		m_wIndices[5] = 1 ; 

  0008f	8b 45 f8	 mov	 eax, DWORD PTR _this$[ebp]
  00092	66 c7 80 fe 80
	00 00 01 00	 mov	 WORD PTR [eax+33022], 1

; 23   : 		m_wIndices[6] = 4 ;  // back face

  0009b	8b 45 f8	 mov	 eax, DWORD PTR _this$[ebp]
  0009e	66 c7 80 00 81
	00 00 04 00	 mov	 WORD PTR [eax+33024], 4

; 24   : 		m_wIndices[7] = 5 ;

  000a7	8b 45 f8	 mov	 eax, DWORD PTR _this$[ebp]
  000aa	66 c7 80 02 81
	00 00 05 00	 mov	 WORD PTR [eax+33026], 5

; 25   : 		m_wIndices[8] = 6 ;

  000b3	8b 45 f8	 mov	 eax, DWORD PTR _this$[ebp]
  000b6	66 c7 80 04 81
	00 00 06 00	 mov	 WORD PTR [eax+33028], 6

; 26   : 		m_wIndices[9] = 7 ;

  000bf	8b 45 f8	 mov	 eax, DWORD PTR _this$[ebp]
  000c2	66 c7 80 06 81
	00 00 07 00	 mov	 WORD PTR [eax+33030], 7

; 27   : 		m_wIndices[10] = 6 ;

  000cb	8b 45 f8	 mov	 eax, DWORD PTR _this$[ebp]
  000ce	66 c7 80 08 81
	00 00 06 00	 mov	 WORD PTR [eax+33032], 6

; 28   : 		m_wIndices[11] = 5 ;

  000d7	8b 45 f8	 mov	 eax, DWORD PTR _this$[ebp]
  000da	66 c7 80 0a 81
	00 00 05 00	 mov	 WORD PTR [eax+33034], 5

; 29   : 		m_wIndices[12] = 1 ; // top face

  000e3	8b 45 f8	 mov	 eax, DWORD PTR _this$[ebp]
  000e6	66 c7 80 0c 81
	00 00 01 00	 mov	 WORD PTR [eax+33036], 1

; 30   : 		m_wIndices[13] = 5 ;

  000ef	8b 45 f8	 mov	 eax, DWORD PTR _this$[ebp]
  000f2	66 c7 80 0e 81
	00 00 05 00	 mov	 WORD PTR [eax+33038], 5

; 31   : 		m_wIndices[14] = 7 ;

  000fb	8b 45 f8	 mov	 eax, DWORD PTR _this$[ebp]
  000fe	66 c7 80 10 81
	00 00 07 00	 mov	 WORD PTR [eax+33040], 7

; 32   : 		m_wIndices[15] = 1 ;

  00107	8b 45 f8	 mov	 eax, DWORD PTR _this$[ebp]
  0010a	66 c7 80 12 81
	00 00 01 00	 mov	 WORD PTR [eax+33042], 1

; 33   : 		m_wIndices[16] = 3 ;

  00113	8b 45 f8	 mov	 eax, DWORD PTR _this$[ebp]
  00116	66 c7 80 14 81
	00 00 03 00	 mov	 WORD PTR [eax+33044], 3

; 34   : 		m_wIndices[17] = 7 ;

  0011f	8b 45 f8	 mov	 eax, DWORD PTR _this$[ebp]
  00122	66 c7 80 16 81
	00 00 07 00	 mov	 WORD PTR [eax+33046], 7

; 35   : 		m_wIndices[18] = 0 ; // bottom face

  0012b	8b 45 f8	 mov	 eax, DWORD PTR _this$[ebp]
  0012e	66 c7 80 18 81
	00 00 00 00	 mov	 WORD PTR [eax+33048], 0

; 36   : 		m_wIndices[19] = 4 ;

  00137	8b 45 f8	 mov	 eax, DWORD PTR _this$[ebp]
  0013a	66 c7 80 1a 81
	00 00 04 00	 mov	 WORD PTR [eax+33050], 4

; 37   : 		m_wIndices[20] = 6 ;

  00143	8b 45 f8	 mov	 eax, DWORD PTR _this$[ebp]
  00146	66 c7 80 1c 81
	00 00 06 00	 mov	 WORD PTR [eax+33052], 6

; 38   : 		m_wIndices[21] = 0 ;

  0014f	8b 45 f8	 mov	 eax, DWORD PTR _this$[ebp]
  00152	66 c7 80 1e 81
	00 00 00 00	 mov	 WORD PTR [eax+33054], 0

; 39   : 		m_wIndices[22] = 2 ;

  0015b	8b 45 f8	 mov	 eax, DWORD PTR _this$[ebp]
  0015e	66 c7 80 20 81
	00 00 02 00	 mov	 WORD PTR [eax+33056], 2

; 40   : 		m_wIndices[23] = 6 ;

  00167	8b 45 f8	 mov	 eax, DWORD PTR _this$[ebp]
  0016a	66 c7 80 22 81
	00 00 06 00	 mov	 WORD PTR [eax+33058], 6

; 41   : 		m_wIndices[24] = 0 ; // left face

  00173	8b 45 f8	 mov	 eax, DWORD PTR _this$[ebp]
  00176	66 c7 80 24 81
	00 00 00 00	 mov	 WORD PTR [eax+33060], 0

; 42   : 		m_wIndices[25] = 1 ;

  0017f	8b 45 f8	 mov	 eax, DWORD PTR _this$[ebp]
  00182	66 c7 80 26 81
	00 00 01 00	 mov	 WORD PTR [eax+33062], 1

; 43   : 		m_wIndices[26] = 5 ;

  0018b	8b 45 f8	 mov	 eax, DWORD PTR _this$[ebp]
  0018e	66 c7 80 28 81
	00 00 05 00	 mov	 WORD PTR [eax+33064], 5

; 44   : 		m_wIndices[27] = 4 ;

  00197	8b 45 f8	 mov	 eax, DWORD PTR _this$[ebp]
  0019a	66 c7 80 2a 81
	00 00 04 00	 mov	 WORD PTR [eax+33066], 4

; 45   : 		m_wIndices[28] = 5 ;

  001a3	8b 45 f8	 mov	 eax, DWORD PTR _this$[ebp]
  001a6	66 c7 80 2c 81
	00 00 05 00	 mov	 WORD PTR [eax+33068], 5

; 46   : 		m_wIndices[29] = 0 ;

  001af	8b 45 f8	 mov	 eax, DWORD PTR _this$[ebp]
  001b2	66 c7 80 2e 81
	00 00 00 00	 mov	 WORD PTR [eax+33070], 0

; 47   : 		m_wIndices[30] = 2 ; // right face

  001bb	8b 45 f8	 mov	 eax, DWORD PTR _this$[ebp]
  001be	66 c7 80 30 81
	00 00 02 00	 mov	 WORD PTR [eax+33072], 2

; 48   : 		m_wIndices[31] = 3 ;

  001c7	8b 45 f8	 mov	 eax, DWORD PTR _this$[ebp]
  001ca	66 c7 80 32 81
	00 00 03 00	 mov	 WORD PTR [eax+33074], 3

; 49   : 		m_wIndices[32] = 6 ;

  001d3	8b 45 f8	 mov	 eax, DWORD PTR _this$[ebp]
  001d6	66 c7 80 34 81
	00 00 06 00	 mov	 WORD PTR [eax+33076], 6

; 50   : 		m_wIndices[33] = 3 ;

  001df	8b 45 f8	 mov	 eax, DWORD PTR _this$[ebp]
  001e2	66 c7 80 36 81
	00 00 03 00	 mov	 WORD PTR [eax+33078], 3

; 51   : 		m_wIndices[34] = 6 ;

  001eb	8b 45 f8	 mov	 eax, DWORD PTR _this$[ebp]
  001ee	66 c7 80 38 81
	00 00 06 00	 mov	 WORD PTR [eax+33080], 6

; 52   : 		m_wIndices[35] = 7 ;

  001f7	8b 45 f8	 mov	 eax, DWORD PTR _this$[ebp]
  001fa	66 c7 80 3a 81
	00 00 07 00	 mov	 WORD PTR [eax+33082], 7

; 53   : 
; 54   : 		D3DUtil_InitMaterial(m_Mtrl, 1, 1, 1) ;

  00203	68 00 00 80 3f	 push	 1065353216		; 3f800000H
  00208	68 00 00 80 3f	 push	 1065353216		; 3f800000H
  0020d	68 00 00 80 3f	 push	 1065353216		; 3f800000H
  00212	68 00 00 80 3f	 push	 1065353216		; 3f800000H
  00217	8b 45 f8	 mov	 eax, DWORD PTR _this$[ebp]
  0021a	05 3c 81 00 00	 add	 eax, 33084		; 0000813cH
  0021f	50		 push	 eax
  00220	e8 00 00 00 00	 call	 ?D3DUtil_InitMaterial@@YAXAAU_D3DMATERIAL8@@MMMM@Z ; D3DUtil_InitMaterial
  00225	83 c4 14	 add	 esp, 20			; 00000014H

; 55   : 		m_pVB = NULL ;

  00228	8b 45 f8	 mov	 eax, DWORD PTR _this$[ebp]
  0022b	c7 80 80 81 00
	00 00 00 00 00	 mov	 DWORD PTR [eax+33152], 0

; 56   : 		m_pIB = NULL ;

  00235	8b 45 f8	 mov	 eax, DWORD PTR _this$[ebp]
  00238	c7 80 84 81 00
	00 00 00 00 00	 mov	 DWORD PTR [eax+33156], 0

; 57   : 
; 58   : 		// build quadtree
; 59   : 		m_nQTNodes = 0 ;

  00242	8b 45 f8	 mov	 eax, DWORD PTR _this$[ebp]
  00245	c7 80 08 80 00
	00 00 00 00 00	 mov	 DWORD PTR [eax+32776], 0

; 60   : 		m_nQTDepth = 0 ;

  0024f	8b 45 f8	 mov	 eax, DWORD PTR _this$[ebp]
  00252	c7 80 0c 80 00
	00 00 00 00 00	 mov	 DWORD PTR [eax+32780], 0

; 61   : 		m_bQTBuilt = FALSE ;

  0025c	8b 45 f8	 mov	 eax, DWORD PTR _this$[ebp]
  0025f	c7 80 10 80 00
	00 00 00 00 00	 mov	 DWORD PTR [eax+32784], 0

; 62   : 
; 63   : 		BuildQuadtree(nRequiredDepth, pvMin, pvMax) ;

  00269	8b 45 0c	 mov	 eax, DWORD PTR _pvMax$[ebp]
  0026c	50		 push	 eax
  0026d	8b 4d 08	 mov	 ecx, DWORD PTR _pvMin$[ebp]
  00270	51		 push	 ecx
  00271	8b 55 10	 mov	 edx, DWORD PTR _nRequiredDepth$[ebp]
  00274	52		 push	 edx
  00275	8b 4d f8	 mov	 ecx, DWORD PTR _this$[ebp]
  00278	e8 00 00 00 00	 call	 ?BuildQuadtree@CQuadtree@@QAEXHPAUD3DXVECTOR3@@0@Z ; CQuadtree::BuildQuadtree

; 64   : 	}

  0027d	8b 45 f8	 mov	 eax, DWORD PTR _this$[ebp]
  00280	5f		 pop	 edi
  00281	5e		 pop	 esi
  00282	5b		 pop	 ebx
  00283	81 c4 cc 00 00
	00		 add	 esp, 204		; 000000ccH
  00289	3b ec		 cmp	 ebp, esp
  0028b	e8 00 00 00 00	 call	 __RTC_CheckEsp
  00290	8b e5		 mov	 esp, ebp
  00292	5d		 pop	 ebp
  00293	c2 0c 00	 ret	 12			; 0000000cH
??0CQuadtree@@QAE@PAUD3DXVECTOR3@@0H@Z ENDP		; CQuadtree::CQuadtree
; Function compile flags: /Odt /RTCsu /ZI
_TEXT	ENDS
;	COMDAT ??_H@YGXPAXIHP6EPAX0@Z@Z
_TEXT	SEGMENT
___t$ = 8
___s$ = 12
___n$ = 16
___f$ = 20
??_H@YGXPAXIHP6EPAX0@Z@Z PROC NEAR			; `vector constructor iterator', COMDAT
  00000	55		 push	 ebp
  00001	8b ec		 mov	 ebp, esp
  00003	81 ec c0 00 00
	00		 sub	 esp, 192		; 000000c0H
  00009	53		 push	 ebx
  0000a	56		 push	 esi
  0000b	57		 push	 edi
  0000c	8d bd 40 ff ff
	ff		 lea	 edi, DWORD PTR [ebp-192]
  00012	b9 30 00 00 00	 mov	 ecx, 48			; 00000030H
  00017	b8 cc cc cc cc	 mov	 eax, -858993460		; ccccccccH
  0001c	f3 ab		 rep stosd
$L84913:
  0001e	8b 45 10	 mov	 eax, DWORD PTR ___n$[ebp]
  00021	83 e8 01	 sub	 eax, 1
  00024	89 45 10	 mov	 DWORD PTR ___n$[ebp], eax
  00027	83 7d 10 00	 cmp	 DWORD PTR ___n$[ebp], 0
  0002b	7c 1a		 jl	 SHORT $L84911
  0002d	8b f4		 mov	 esi, esp
  0002f	8b 4d 08	 mov	 ecx, DWORD PTR ___t$[ebp]
  00032	ff 55 14	 call	 DWORD PTR ___f$[ebp]
  00035	3b f4		 cmp	 esi, esp
  00037	e8 00 00 00 00	 call	 __RTC_CheckEsp
  0003c	8b 45 08	 mov	 eax, DWORD PTR ___t$[ebp]
  0003f	03 45 0c	 add	 eax, DWORD PTR ___s$[ebp]
  00042	89 45 08	 mov	 DWORD PTR ___t$[ebp], eax
  00045	eb d7		 jmp	 SHORT $L84913
$L84911:
  00047	5f		 pop	 edi
  00048	5e		 pop	 esi
  00049	5b		 pop	 ebx
  0004a	81 c4 c0 00 00
	00		 add	 esp, 192		; 000000c0H
  00050	3b ec		 cmp	 ebp, esp
  00052	e8 00 00 00 00	 call	 __RTC_CheckEsp
  00057	8b e5		 mov	 esp, ebp
  00059	5d		 pop	 ebp
  0005a	c2 10 00	 ret	 16			; 00000010H
??_H@YGXPAXIHP6EPAX0@Z@Z ENDP				; `vector constructor iterator'
_TEXT	ENDS
PUBLIC	??1CQuadtree@@QAE@XZ				; CQuadtree::~CQuadtree
EXTRN	??3@YAXPAX@Z:NEAR				; operator delete
; Function compile flags: /Odt /RTCsu /ZI
;	COMDAT ??1CQuadtree@@QAE@XZ
_TEXT	SEGMENT
$T85135 = -224
_i$84920 = -20
_this$ = -8
??1CQuadtree@@QAE@XZ PROC NEAR				; CQuadtree::~CQuadtree, COMDAT
; _this$ = ecx

; 66   : 	{

  00000	55		 push	 ebp
  00001	8b ec		 mov	 ebp, esp
  00003	81 ec e4 00 00
	00		 sub	 esp, 228		; 000000e4H
  00009	53		 push	 ebx
  0000a	56		 push	 esi
  0000b	57		 push	 edi
  0000c	51		 push	 ecx
  0000d	8d bd 1c ff ff
	ff		 lea	 edi, DWORD PTR [ebp-228]
  00013	b9 39 00 00 00	 mov	 ecx, 57			; 00000039H
  00018	b8 cc cc cc cc	 mov	 eax, -858993460		; ccccccccH
  0001d	f3 ab		 rep stosd
  0001f	59		 pop	 ecx
  00020	89 4d f8	 mov	 DWORD PTR _this$[ebp], ecx

; 67   : 		if (m_bQTBuilt)

  00023	8b 45 f8	 mov	 eax, DWORD PTR _this$[ebp]
  00026	83 b8 10 80 00
	00 00		 cmp	 DWORD PTR [eax+32784], 0
  0002d	74 5c		 je	 SHORT $L84918

; 68   : 		{
; 69   : 			for (int i = 0 ; i < m_nQTNodes ; i ++)

  0002f	c7 45 ec 00 00
	00 00		 mov	 DWORD PTR _i$84920[ebp], 0
  00036	eb 09		 jmp	 SHORT $L84921
$L84922:
  00038	8b 45 ec	 mov	 eax, DWORD PTR _i$84920[ebp]
  0003b	83 c0 01	 add	 eax, 1
  0003e	89 45 ec	 mov	 DWORD PTR _i$84920[ebp], eax
$L84921:
  00041	8b 45 f8	 mov	 eax, DWORD PTR _this$[ebp]
  00044	8b 4d ec	 mov	 ecx, DWORD PTR _i$84920[ebp]
  00047	3b 88 08 80 00
	00		 cmp	 ecx, DWORD PTR [eax+32776]
  0004d	7d 3c		 jge	 SHORT $L84918

; 70   : 				SAFE_DELETE(m_pQTNodes[i])

  0004f	8b 45 ec	 mov	 eax, DWORD PTR _i$84920[ebp]
  00052	8b 4d f8	 mov	 ecx, DWORD PTR _this$[ebp]
  00055	83 7c 81 08 00	 cmp	 DWORD PTR [ecx+eax*4+8], 0
  0005a	74 2d		 je	 SHORT $L84924
  0005c	8b 45 ec	 mov	 eax, DWORD PTR _i$84920[ebp]
  0005f	8b 4d f8	 mov	 ecx, DWORD PTR _this$[ebp]
  00062	8b 54 81 08	 mov	 edx, DWORD PTR [ecx+eax*4+8]
  00066	89 95 20 ff ff
	ff		 mov	 DWORD PTR $T85135[ebp], edx
  0006c	8b 85 20 ff ff
	ff		 mov	 eax, DWORD PTR $T85135[ebp]
  00072	50		 push	 eax
  00073	e8 00 00 00 00	 call	 ??3@YAXPAX@Z		; operator delete
  00078	83 c4 04	 add	 esp, 4
  0007b	8b 45 ec	 mov	 eax, DWORD PTR _i$84920[ebp]
  0007e	8b 4d f8	 mov	 ecx, DWORD PTR _this$[ebp]
  00081	c7 44 81 08 00
	00 00 00	 mov	 DWORD PTR [ecx+eax*4+8], 0
$L84924:
  00089	eb ad		 jmp	 SHORT $L84922
$L84918:

; 71   : 		}
; 72   : 	}

  0008b	5f		 pop	 edi
  0008c	5e		 pop	 esi
  0008d	5b		 pop	 ebx
  0008e	81 c4 e4 00 00
	00		 add	 esp, 228		; 000000e4H
  00094	3b ec		 cmp	 ebp, esp
  00096	e8 00 00 00 00	 call	 __RTC_CheckEsp
  0009b	8b e5		 mov	 esp, ebp
  0009d	5d		 pop	 ebp
  0009e	c3		 ret	 0
??1CQuadtree@@QAE@XZ ENDP				; CQuadtree::~CQuadtree
_TEXT	ENDS
PUBLIC	?RecurseQuadtree@CQuadtree@@QAEXHPAU_QTNode@1@@Z ; CQuadtree::RecurseQuadtree
PUBLIC	?InitQuadtreeNode@CQuadtree@@QAEXPAPAU_QTNode@1@H@Z ; CQuadtree::InitQuadtreeNode
; Function compile flags: /Odt /RTCsu /ZI
;	COMDAT ?BuildQuadtree@CQuadtree@@QAEXHPAUD3DXVECTOR3@@0@Z
_TEXT	SEGMENT
_this$ = -8
_nSubdivides$ = 8
_pvMin$ = 12
_pvMax$ = 16
?BuildQuadtree@CQuadtree@@QAEXHPAUD3DXVECTOR3@@0@Z PROC NEAR ; CQuadtree::BuildQuadtree, COMDAT
; _this$ = ecx

; 80   : 	{

  00000	55		 push	 ebp
  00001	8b ec		 mov	 ebp, esp
  00003	81 ec cc 00 00
	00		 sub	 esp, 204		; 000000ccH
  00009	53		 push	 ebx
  0000a	56		 push	 esi
  0000b	57		 push	 edi
  0000c	51		 push	 ecx
  0000d	8d bd 34 ff ff
	ff		 lea	 edi, DWORD PTR [ebp-204]
  00013	b9 33 00 00 00	 mov	 ecx, 51			; 00000033H
  00018	b8 cc cc cc cc	 mov	 eax, -858993460		; ccccccccH
  0001d	f3 ab		 rep stosd
  0001f	59		 pop	 ecx
  00020	89 4d f8	 mov	 DWORD PTR _this$[ebp], ecx

; 81   : 		if (m_bQTBuilt)

  00023	8b 45 f8	 mov	 eax, DWORD PTR _this$[ebp]
  00026	83 b8 10 80 00
	00 00		 cmp	 DWORD PTR [eax+32784], 0
  0002d	74 02		 je	 SHORT $L84932

; 82   : 			return ;

  0002f	eb 7b		 jmp	 SHORT $L84931
$L84932:

; 83   : 
; 84   : 		// create root node
; 85   : 		InitQuadtreeNode(&m_pQT, 0) ;

  00031	6a 00		 push	 0
  00033	8b 45 f8	 mov	 eax, DWORD PTR _this$[ebp]
  00036	83 c0 04	 add	 eax, 4
  00039	50		 push	 eax
  0003a	8b 4d f8	 mov	 ecx, DWORD PTR _this$[ebp]
  0003d	e8 00 00 00 00	 call	 ?InitQuadtreeNode@CQuadtree@@QAEXPAPAU_QTNode@1@H@Z ; CQuadtree::InitQuadtreeNode

; 86   : 		m_pQT->vMin = *pvMin ;

  00042	8b 45 0c	 mov	 eax, DWORD PTR _pvMin$[ebp]
  00045	8b 4d f8	 mov	 ecx, DWORD PTR _this$[ebp]
  00048	8b 51 04	 mov	 edx, DWORD PTR [ecx+4]
  0004b	83 c2 1c	 add	 edx, 28			; 0000001cH
  0004e	8b 08		 mov	 ecx, DWORD PTR [eax]
  00050	89 0a		 mov	 DWORD PTR [edx], ecx
  00052	8b 48 04	 mov	 ecx, DWORD PTR [eax+4]
  00055	89 4a 04	 mov	 DWORD PTR [edx+4], ecx
  00058	8b 40 08	 mov	 eax, DWORD PTR [eax+8]
  0005b	89 42 08	 mov	 DWORD PTR [edx+8], eax

; 87   : 		m_pQT->vMax = *pvMax ;

  0005e	8b 45 10	 mov	 eax, DWORD PTR _pvMax$[ebp]
  00061	8b 4d f8	 mov	 ecx, DWORD PTR _this$[ebp]
  00064	8b 51 04	 mov	 edx, DWORD PTR [ecx+4]
  00067	83 c2 28	 add	 edx, 40			; 00000028H
  0006a	8b 08		 mov	 ecx, DWORD PTR [eax]
  0006c	89 0a		 mov	 DWORD PTR [edx], ecx
  0006e	8b 48 04	 mov	 ecx, DWORD PTR [eax+4]
  00071	89 4a 04	 mov	 DWORD PTR [edx+4], ecx
  00074	8b 40 08	 mov	 eax, DWORD PTR [eax+8]
  00077	89 42 08	 mov	 DWORD PTR [edx+8], eax

; 88   : 
; 89   : 		// subdivide
; 90   : 		if (nSubdivides > 0)

  0007a	83 7d 08 00	 cmp	 DWORD PTR _nSubdivides$[ebp], 0
  0007e	7e 13		 jle	 SHORT $L84933

; 91   : 			RecurseQuadtree(nSubdivides, m_pQT) ;

  00080	8b 45 f8	 mov	 eax, DWORD PTR _this$[ebp]
  00083	8b 48 04	 mov	 ecx, DWORD PTR [eax+4]
  00086	51		 push	 ecx
  00087	8b 55 08	 mov	 edx, DWORD PTR _nSubdivides$[ebp]
  0008a	52		 push	 edx
  0008b	8b 4d f8	 mov	 ecx, DWORD PTR _this$[ebp]
  0008e	e8 00 00 00 00	 call	 ?RecurseQuadtree@CQuadtree@@QAEXHPAU_QTNode@1@@Z ; CQuadtree::RecurseQuadtree
$L84933:

; 92   : 
; 93   : 		m_nQTDepth = nSubdivides ;

  00093	8b 45 f8	 mov	 eax, DWORD PTR _this$[ebp]
  00096	8b 4d 08	 mov	 ecx, DWORD PTR _nSubdivides$[ebp]
  00099	89 88 0c 80 00
	00		 mov	 DWORD PTR [eax+32780], ecx

; 94   : 		m_bQTBuilt = TRUE ;

  0009f	8b 45 f8	 mov	 eax, DWORD PTR _this$[ebp]
  000a2	c7 80 10 80 00
	00 01 00 00 00	 mov	 DWORD PTR [eax+32784], 1
$L84931:

; 95   : 	}

  000ac	5f		 pop	 edi
  000ad	5e		 pop	 esi
  000ae	5b		 pop	 ebx
  000af	81 c4 cc 00 00
	00		 add	 esp, 204		; 000000ccH
  000b5	3b ec		 cmp	 ebp, esp
  000b7	e8 00 00 00 00	 call	 __RTC_CheckEsp
  000bc	8b e5		 mov	 esp, ebp
  000be	5d		 pop	 ebp
  000bf	c2 0c 00	 ret	 12			; 0000000cH
?BuildQuadtree@CQuadtree@@QAEXHPAUD3DXVECTOR3@@0@Z ENDP	; CQuadtree::BuildQuadtree
_TEXT	ENDS
PUBLIC	??0_QTNode@CQuadtree@@QAE@XZ			; CQuadtree::_QTNode::_QTNode
PUBLIC	?__LINE__Var@?1??InitQuadtreeNode@CQuadtree@@QAEXPAPAU_QTNode@2@H@Z@4JA ; `CQuadtree::InitQuadtreeNode'::`2'::__LINE__Var
PUBLIC	??_C@_0EL@FLGCDJCA@c?3?2documents?5and?5settings?2dom?2my@ ; `string'
PUBLIC	??_C@_07MGPDHOIB@?$CKppNode?$AA@		; `string'
PUBLIC	??_C@_0BK@KPOOCMLF@m_nQTNodes?5?$DM?5MAX_QT_NODES?$AA@ ; `string'
EXTRN	??2@YAPAXI@Z:NEAR				; operator new
EXTRN	__assert:NEAR
;	COMDAT ?__LINE__Var@?1??InitQuadtreeNode@CQuadtree@@QAEXPAPAU_QTNode@2@H@Z@4JA
_DATA	SEGMENT
?__LINE__Var@?1??InitQuadtreeNode@CQuadtree@@QAEXPAPAU_QTNode@2@H@Z@4JA DD 061H ; `CQuadtree::InitQuadtreeNode'::`2'::__LINE__Var
_DATA	ENDS
;	COMDAT ??_C@_0EL@FLGCDJCA@c?3?2documents?5and?5settings?2dom?2my@
CONST	SEGMENT
??_C@_0EL@FLGCDJCA@c?3?2documents?5and?5settings?2dom?2my@ DB 'c:\documen'
	DB	'ts and settings\dom\my documents\_dev\ae\xlr8a\x7g\cquadtree.'
	DB	'cpp', 00H					; `string'
CONST	ENDS
;	COMDAT ??_C@_07MGPDHOIB@?$CKppNode?$AA@
CONST	SEGMENT
??_C@_07MGPDHOIB@?$CKppNode?$AA@ DB '*ppNode', 00H	; `string'
CONST	ENDS
;	COMDAT ??_C@_0BK@KPOOCMLF@m_nQTNodes?5?$DM?5MAX_QT_NODES?$AA@
CONST	SEGMENT
??_C@_0BK@KPOOCMLF@m_nQTNodes?5?$DM?5MAX_QT_NODES?$AA@ DB 'm_nQTNodes < M'
	DB	'AX_QT_NODES', 00H				; `string'
; Function compile flags: /Odt /RTCsu /ZI
CONST	ENDS
;	COMDAT ?InitQuadtreeNode@CQuadtree@@QAEXPAPAU_QTNode@1@H@Z
_TEXT	SEGMENT
tv69 = -232
$T85140 = -224
_i$84946 = -20
_this$ = -8
_ppNode$ = 8
_nDepth$ = 12
?InitQuadtreeNode@CQuadtree@@QAEXPAPAU_QTNode@1@H@Z PROC NEAR ; CQuadtree::InitQuadtreeNode, COMDAT
; _this$ = ecx

; 97   : 	{

  00000	55		 push	 ebp
  00001	8b ec		 mov	 ebp, esp
  00003	81 ec e8 00 00
	00		 sub	 esp, 232		; 000000e8H
  00009	53		 push	 ebx
  0000a	56		 push	 esi
  0000b	57		 push	 edi
  0000c	51		 push	 ecx
  0000d	8d bd 18 ff ff
	ff		 lea	 edi, DWORD PTR [ebp-232]
  00013	b9 3a 00 00 00	 mov	 ecx, 58			; 0000003aH
  00018	b8 cc cc cc cc	 mov	 eax, -858993460		; ccccccccH
  0001d	f3 ab		 rep stosd
  0001f	59		 pop	 ecx
  00020	89 4d f8	 mov	 DWORD PTR _this$[ebp], ecx

; 98   : 		// create new node
; 99   : 		*ppNode = NULL ;

  00023	8b 45 08	 mov	 eax, DWORD PTR _ppNode$[ebp]
  00026	c7 00 00 00 00
	00		 mov	 DWORD PTR [eax], 0

; 100  : 		*ppNode = new _QTNode ; 

  0002c	6a 34		 push	 52			; 00000034H
  0002e	e8 00 00 00 00	 call	 ??2@YAPAXI@Z		; operator new
  00033	83 c4 04	 add	 esp, 4
  00036	89 85 20 ff ff
	ff		 mov	 DWORD PTR $T85140[ebp], eax
  0003c	83 bd 20 ff ff
	ff 00		 cmp	 DWORD PTR $T85140[ebp], 0
  00043	74 13		 je	 SHORT $L85141
  00045	8b 8d 20 ff ff
	ff		 mov	 ecx, DWORD PTR $T85140[ebp]
  0004b	e8 00 00 00 00	 call	 ??0_QTNode@CQuadtree@@QAE@XZ
  00050	89 85 18 ff ff
	ff		 mov	 DWORD PTR tv69[ebp], eax
  00056	eb 0a		 jmp	 SHORT $L85142
$L85141:
  00058	c7 85 18 ff ff
	ff 00 00 00 00	 mov	 DWORD PTR tv69[ebp], 0
$L85142:
  00062	8b 45 08	 mov	 eax, DWORD PTR _ppNode$[ebp]
  00065	8b 8d 18 ff ff
	ff		 mov	 ecx, DWORD PTR tv69[ebp]
  0006b	89 08		 mov	 DWORD PTR [eax], ecx

; 101  : 		assert ( *ppNode );

  0006d	8b 45 08	 mov	 eax, DWORD PTR _ppNode$[ebp]
  00070	83 38 00	 cmp	 DWORD PTR [eax], 0
  00073	75 1c		 jne	 SHORT $L85143
  00075	8b 0d 00 00 00
	00		 mov	 ecx, DWORD PTR ?__LINE__Var@?1??InitQuadtreeNode@CQuadtree@@QAEXPAPAU_QTNode@2@H@Z@4JA
  0007b	83 c1 04	 add	 ecx, 4
  0007e	51		 push	 ecx
  0007f	68 00 00 00 00	 push	 OFFSET FLAT:??_C@_0EL@FLGCDJCA@c?3?2documents?5and?5settings?2dom?2my@
  00084	68 00 00 00 00	 push	 OFFSET FLAT:??_C@_07MGPDHOIB@?$CKppNode?$AA@
  00089	e8 00 00 00 00	 call	 __assert
  0008e	83 c4 0c	 add	 esp, 12			; 0000000cH
$L85143:

; 102  : 
; 103  : 		m_pQTNodes[m_nQTNodes] = *ppNode ;

  00091	8b 45 f8	 mov	 eax, DWORD PTR _this$[ebp]
  00094	8b 88 08 80 00
	00		 mov	 ecx, DWORD PTR [eax+32776]
  0009a	8b 55 f8	 mov	 edx, DWORD PTR _this$[ebp]
  0009d	8b 45 08	 mov	 eax, DWORD PTR _ppNode$[ebp]
  000a0	8b 00		 mov	 eax, DWORD PTR [eax]
  000a2	89 44 8a 08	 mov	 DWORD PTR [edx+ecx*4+8], eax

; 104  : 		m_dwMem += sizeof(_QTNode) ;

  000a6	8b 45 f8	 mov	 eax, DWORD PTR _this$[ebp]
  000a9	8b 08		 mov	 ecx, DWORD PTR [eax]
  000ab	83 c1 34	 add	 ecx, 52			; 00000034H
  000ae	8b 55 f8	 mov	 edx, DWORD PTR _this$[ebp]
  000b1	89 0a		 mov	 DWORD PTR [edx], ecx

; 105  : 
; 106  : 		// keep track of the node's depth for rendering (debug) purposes
; 107  : 		(*ppNode)->nDepth = nDepth ;

  000b3	8b 45 08	 mov	 eax, DWORD PTR _ppNode$[ebp]
  000b6	8b 08		 mov	 ecx, DWORD PTR [eax]
  000b8	8b 55 0c	 mov	 edx, DWORD PTR _nDepth$[ebp]
  000bb	89 11		 mov	 DWORD PTR [ecx], edx

; 108  : 
; 109  : 		// custom data, used by CTerrain to store indices of associated patch in terminal node
; 110  : 		(*ppNode)->nX = -1 ;

  000bd	8b 45 08	 mov	 eax, DWORD PTR _ppNode$[ebp]
  000c0	8b 08		 mov	 ecx, DWORD PTR [eax]
  000c2	c7 41 04 ff ff
	ff ff		 mov	 DWORD PTR [ecx+4], -1

; 111  : 		(*ppNode)->nY = -1 ;

  000c9	8b 45 08	 mov	 eax, DWORD PTR _ppNode$[ebp]
  000cc	8b 08		 mov	 ecx, DWORD PTR [eax]
  000ce	c7 41 08 ff ff
	ff ff		 mov	 DWORD PTR [ecx+8], -1

; 112  : 
; 113  : 		// default it to a terminal node
; 114  : 		for (int i = 0 ; i < 4 ; i ++)

  000d5	c7 45 ec 00 00
	00 00		 mov	 DWORD PTR _i$84946[ebp], 0
  000dc	eb 09		 jmp	 SHORT $L84947
$L84948:
  000de	8b 45 ec	 mov	 eax, DWORD PTR _i$84946[ebp]
  000e1	83 c0 01	 add	 eax, 1
  000e4	89 45 ec	 mov	 DWORD PTR _i$84946[ebp], eax
$L84947:
  000e7	83 7d ec 04	 cmp	 DWORD PTR _i$84946[ebp], 4
  000eb	7d 12		 jge	 SHORT $L84949

; 115  : 			(*ppNode)->pKids[i] = NULL ;

  000ed	8b 45 08	 mov	 eax, DWORD PTR _ppNode$[ebp]
  000f0	8b 08		 mov	 ecx, DWORD PTR [eax]
  000f2	8b 55 ec	 mov	 edx, DWORD PTR _i$84946[ebp]
  000f5	c7 44 91 0c 00
	00 00 00	 mov	 DWORD PTR [ecx+edx*4+12], 0
  000fd	eb df		 jmp	 SHORT $L84948
$L84949:

; 116  : 
; 117  : 		m_nQTNodes++ ;

  000ff	8b 45 f8	 mov	 eax, DWORD PTR _this$[ebp]
  00102	8b 88 08 80 00
	00		 mov	 ecx, DWORD PTR [eax+32776]
  00108	83 c1 01	 add	 ecx, 1
  0010b	8b 55 f8	 mov	 edx, DWORD PTR _this$[ebp]
  0010e	89 8a 08 80 00
	00		 mov	 DWORD PTR [edx+32776], ecx

; 118  : 
; 119  : 		assert( m_nQTNodes < MAX_QT_NODES );

  00114	8b 45 f8	 mov	 eax, DWORD PTR _this$[ebp]
  00117	81 b8 08 80 00
	00 00 20 00 00	 cmp	 DWORD PTR [eax+32776], 8192 ; 00002000H
  00121	7c 1c		 jl	 SHORT $L84938
  00123	8b 0d 00 00 00
	00		 mov	 ecx, DWORD PTR ?__LINE__Var@?1??InitQuadtreeNode@CQuadtree@@QAEXPAPAU_QTNode@2@H@Z@4JA
  00129	83 c1 16	 add	 ecx, 22			; 00000016H
  0012c	51		 push	 ecx
  0012d	68 00 00 00 00	 push	 OFFSET FLAT:??_C@_0EL@FLGCDJCA@c?3?2documents?5and?5settings?2dom?2my@
  00132	68 00 00 00 00	 push	 OFFSET FLAT:??_C@_0BK@KPOOCMLF@m_nQTNodes?5?$DM?5MAX_QT_NODES?$AA@
  00137	e8 00 00 00 00	 call	 __assert
  0013c	83 c4 0c	 add	 esp, 12			; 0000000cH
$L84938:

; 120  : 	}

  0013f	5f		 pop	 edi
  00140	5e		 pop	 esi
  00141	5b		 pop	 ebx
  00142	81 c4 e8 00 00
	00		 add	 esp, 232		; 000000e8H
  00148	3b ec		 cmp	 ebp, esp
  0014a	e8 00 00 00 00	 call	 __RTC_CheckEsp
  0014f	8b e5		 mov	 esp, ebp
  00151	5d		 pop	 ebp
  00152	c2 08 00	 ret	 8
?InitQuadtreeNode@CQuadtree@@QAEXPAPAU_QTNode@1@H@Z ENDP ; CQuadtree::InitQuadtreeNode
_TEXT	ENDS
PUBLIC	??0D3DXVECTOR3@@QAE@XZ				; D3DXVECTOR3::D3DXVECTOR3
; Function compile flags: /Odt /RTCsu /ZI
;	COMDAT ??0_QTNode@CQuadtree@@QAE@XZ
_TEXT	SEGMENT
_this$ = -8
??0_QTNode@CQuadtree@@QAE@XZ PROC NEAR			; CQuadtree::_QTNode::_QTNode, COMDAT
; _this$ = ecx
  00000	55		 push	 ebp
  00001	8b ec		 mov	 ebp, esp
  00003	81 ec cc 00 00
	00		 sub	 esp, 204		; 000000ccH
  00009	53		 push	 ebx
  0000a	56		 push	 esi
  0000b	57		 push	 edi
  0000c	51		 push	 ecx
  0000d	8d bd 34 ff ff
	ff		 lea	 edi, DWORD PTR [ebp-204]
  00013	b9 33 00 00 00	 mov	 ecx, 51			; 00000033H
  00018	b8 cc cc cc cc	 mov	 eax, -858993460		; ccccccccH
  0001d	f3 ab		 rep stosd
  0001f	59		 pop	 ecx
  00020	89 4d f8	 mov	 DWORD PTR _this$[ebp], ecx
  00023	8b 4d f8	 mov	 ecx, DWORD PTR _this$[ebp]
  00026	83 c1 1c	 add	 ecx, 28			; 0000001cH
  00029	e8 00 00 00 00	 call	 ??0D3DXVECTOR3@@QAE@XZ	; D3DXVECTOR3::D3DXVECTOR3
  0002e	8b 4d f8	 mov	 ecx, DWORD PTR _this$[ebp]
  00031	83 c1 28	 add	 ecx, 40			; 00000028H
  00034	e8 00 00 00 00	 call	 ??0D3DXVECTOR3@@QAE@XZ	; D3DXVECTOR3::D3DXVECTOR3
  00039	8b 45 f8	 mov	 eax, DWORD PTR _this$[ebp]
  0003c	5f		 pop	 edi
  0003d	5e		 pop	 esi
  0003e	5b		 pop	 ebx
  0003f	81 c4 cc 00 00
	00		 add	 esp, 204		; 000000ccH
  00045	3b ec		 cmp	 ebp, esp
  00047	e8 00 00 00 00	 call	 __RTC_CheckEsp
  0004c	8b e5		 mov	 esp, ebp
  0004e	5d		 pop	 ebp
  0004f	c3		 ret	 0
??0_QTNode@CQuadtree@@QAE@XZ ENDP			; CQuadtree::_QTNode::_QTNode
_TEXT	ENDS
PUBLIC	__real@40000000
PUBLIC	??0D3DXVECTOR3@@QAE@MMM@Z			; D3DXVECTOR3::D3DXVECTOR3
EXTRN	@_RTC_CheckStackVars@8:NEAR
;	COMDAT __real@40000000
CONST	SEGMENT
__real@40000000 DD 040000000r			; 2
; Function compile flags: /Odt /RTCsu /ZI
CONST	ENDS
;	COMDAT ?RecurseQuadtree@CQuadtree@@QAEXHPAU_QTNode@1@@Z
_TEXT	SEGMENT
$T85156 = -404
$T85155 = -384
$T85154 = -364
$T85153 = -344
$T85152 = -324
$T85151 = -304
$T85150 = -284
$T85149 = -264
_i$ = -52
_vCenter$ = -40
_p$ = -20
_this$ = -8
_nSubdivides$ = 8
_pNode$ = 12
?RecurseQuadtree@CQuadtree@@QAEXHPAU_QTNode@1@@Z PROC NEAR ; CQuadtree::RecurseQuadtree, COMDAT
; _this$ = ecx

; 122  : 	{

  00000	55		 push	 ebp
  00001	8b ec		 mov	 ebp, esp
  00003	81 ec 98 01 00
	00		 sub	 esp, 408		; 00000198H
  00009	53		 push	 ebx
  0000a	56		 push	 esi
  0000b	57		 push	 edi
  0000c	51		 push	 ecx
  0000d	8d bd 68 fe ff
	ff		 lea	 edi, DWORD PTR [ebp-408]
  00013	b9 66 00 00 00	 mov	 ecx, 102		; 00000066H
  00018	b8 cc cc cc cc	 mov	 eax, -858993460		; ccccccccH
  0001d	f3 ab		 rep stosd
  0001f	59		 pop	 ecx
  00020	89 4d f8	 mov	 DWORD PTR _this$[ebp], ecx

; 123  : 		_QTNode *p ;
; 124  : 		xVec3 vCenter ;

  00023	8d 4d d8	 lea	 ecx, DWORD PTR _vCenter$[ebp]
  00026	e8 00 00 00 00	 call	 ??0D3DXVECTOR3@@QAE@XZ	; D3DXVECTOR3::D3DXVECTOR3

; 125  : 		int i ;
; 126  : 
; 127  : 		m_nQTDepth++ ;

  0002b	8b 45 f8	 mov	 eax, DWORD PTR _this$[ebp]
  0002e	8b 88 0c 80 00
	00		 mov	 ecx, DWORD PTR [eax+32780]
  00034	83 c1 01	 add	 ecx, 1
  00037	8b 55 f8	 mov	 edx, DWORD PTR _this$[ebp]
  0003a	89 8a 0c 80 00
	00		 mov	 DWORD PTR [edx+32780], ecx

; 128  : 		
; 129  : 		// get the center of the current node
; 130  : 		vCenter.x = (pNode->vMax.x - pNode->vMin.x) / 2.0f + pNode->vMin.x ;

  00040	8b 45 0c	 mov	 eax, DWORD PTR _pNode$[ebp]
  00043	8b 4d 0c	 mov	 ecx, DWORD PTR _pNode$[ebp]
  00046	d9 40 28	 fld	 DWORD PTR [eax+40]
  00049	d8 61 1c	 fsub	 DWORD PTR [ecx+28]
  0004c	d8 35 00 00 00
	00		 fdiv	 DWORD PTR __real@40000000
  00052	8b 55 0c	 mov	 edx, DWORD PTR _pNode$[ebp]
  00055	d8 42 1c	 fadd	 DWORD PTR [edx+28]
  00058	d9 5d d8	 fstp	 DWORD PTR _vCenter$[ebp]

; 131  : 		vCenter.y = (pNode->vMax.y - pNode->vMin.y) / 2.0f + pNode->vMin.y ;

  0005b	8b 45 0c	 mov	 eax, DWORD PTR _pNode$[ebp]
  0005e	8b 4d 0c	 mov	 ecx, DWORD PTR _pNode$[ebp]
  00061	d9 40 2c	 fld	 DWORD PTR [eax+44]
  00064	d8 61 20	 fsub	 DWORD PTR [ecx+32]
  00067	d8 35 00 00 00
	00		 fdiv	 DWORD PTR __real@40000000
  0006d	8b 55 0c	 mov	 edx, DWORD PTR _pNode$[ebp]
  00070	d8 42 20	 fadd	 DWORD PTR [edx+32]
  00073	d9 5d dc	 fstp	 DWORD PTR _vCenter$[ebp+4]

; 132  : 		vCenter.z = (pNode->vMax.z - pNode->vMin.z) / 2.0f + pNode->vMin.z ;

  00076	8b 45 0c	 mov	 eax, DWORD PTR _pNode$[ebp]
  00079	8b 4d 0c	 mov	 ecx, DWORD PTR _pNode$[ebp]
  0007c	d9 40 30	 fld	 DWORD PTR [eax+48]
  0007f	d8 61 24	 fsub	 DWORD PTR [ecx+36]
  00082	d8 35 00 00 00
	00		 fdiv	 DWORD PTR __real@40000000
  00088	8b 55 0c	 mov	 edx, DWORD PTR _pNode$[ebp]
  0008b	d8 42 24	 fadd	 DWORD PTR [edx+36]
  0008e	d9 5d e0	 fstp	 DWORD PTR _vCenter$[ebp+8]

; 133  : 
; 134  : 		// initialize the four children
; 135  : 		for (i = 0 ; i < 4 ; i ++)

  00091	c7 45 cc 00 00
	00 00		 mov	 DWORD PTR _i$[ebp], 0
  00098	eb 09		 jmp	 SHORT $L84962
$L84963:
  0009a	8b 45 cc	 mov	 eax, DWORD PTR _i$[ebp]
  0009d	83 c0 01	 add	 eax, 1
  000a0	89 45 cc	 mov	 DWORD PTR _i$[ebp], eax
$L84962:
  000a3	83 7d cc 04	 cmp	 DWORD PTR _i$[ebp], 4
  000a7	7d 1f		 jge	 SHORT $L84964

; 136  : 			InitQuadtreeNode((_QTNode**)&pNode->pKids[i], m_nQTDepth) ;

  000a9	8b 45 f8	 mov	 eax, DWORD PTR _this$[ebp]
  000ac	8b 88 0c 80 00
	00		 mov	 ecx, DWORD PTR [eax+32780]
  000b2	51		 push	 ecx
  000b3	8b 55 cc	 mov	 edx, DWORD PTR _i$[ebp]
  000b6	8b 45 0c	 mov	 eax, DWORD PTR _pNode$[ebp]
  000b9	8d 4c 90 0c	 lea	 ecx, DWORD PTR [eax+edx*4+12]
  000bd	51		 push	 ecx
  000be	8b 4d f8	 mov	 ecx, DWORD PTR _this$[ebp]
  000c1	e8 00 00 00 00	 call	 ?InitQuadtreeNode@CQuadtree@@QAEXPAPAU_QTNode@1@H@Z ; CQuadtree::InitQuadtreeNode
  000c6	eb d2		 jmp	 SHORT $L84963
$L84964:

; 137  : 
; 138  : 		// populate the children with volume data
; 139  : 		p = (_QTNode*)pNode->pKids[0] ;

  000c8	8b 45 0c	 mov	 eax, DWORD PTR _pNode$[ebp]
  000cb	8b 48 0c	 mov	 ecx, DWORD PTR [eax+12]
  000ce	89 4d ec	 mov	 DWORD PTR _p$[ebp], ecx

; 140  : 		p->vMin = xVec3(pNode->vMin.x, pNode->vMin.y, pNode->vMin.z) ;	// near left

  000d1	8b 45 0c	 mov	 eax, DWORD PTR _pNode$[ebp]
  000d4	8b 48 24	 mov	 ecx, DWORD PTR [eax+36]
  000d7	51		 push	 ecx
  000d8	8b 55 0c	 mov	 edx, DWORD PTR _pNode$[ebp]
  000db	8b 42 20	 mov	 eax, DWORD PTR [edx+32]
  000de	50		 push	 eax
  000df	8b 4d 0c	 mov	 ecx, DWORD PTR _pNode$[ebp]
  000e2	8b 51 1c	 mov	 edx, DWORD PTR [ecx+28]
  000e5	52		 push	 edx
  000e6	8d 8d f8 fe ff
	ff		 lea	 ecx, DWORD PTR $T85149[ebp]
  000ec	e8 00 00 00 00	 call	 ??0D3DXVECTOR3@@QAE@MMM@Z ; D3DXVECTOR3::D3DXVECTOR3
  000f1	8b 4d ec	 mov	 ecx, DWORD PTR _p$[ebp]
  000f4	83 c1 1c	 add	 ecx, 28			; 0000001cH
  000f7	8b 10		 mov	 edx, DWORD PTR [eax]
  000f9	89 11		 mov	 DWORD PTR [ecx], edx
  000fb	8b 50 04	 mov	 edx, DWORD PTR [eax+4]
  000fe	89 51 04	 mov	 DWORD PTR [ecx+4], edx
  00101	8b 40 08	 mov	 eax, DWORD PTR [eax+8]
  00104	89 41 08	 mov	 DWORD PTR [ecx+8], eax

; 141  : 		p->vMax = xVec3(vCenter.x, pNode->vMax.y, vCenter.z) ; 

  00107	8b 45 e0	 mov	 eax, DWORD PTR _vCenter$[ebp+8]
  0010a	50		 push	 eax
  0010b	8b 4d 0c	 mov	 ecx, DWORD PTR _pNode$[ebp]
  0010e	8b 51 2c	 mov	 edx, DWORD PTR [ecx+44]
  00111	52		 push	 edx
  00112	8b 45 d8	 mov	 eax, DWORD PTR _vCenter$[ebp]
  00115	50		 push	 eax
  00116	8d 8d e4 fe ff
	ff		 lea	 ecx, DWORD PTR $T85150[ebp]
  0011c	e8 00 00 00 00	 call	 ??0D3DXVECTOR3@@QAE@MMM@Z ; D3DXVECTOR3::D3DXVECTOR3
  00121	8b 4d ec	 mov	 ecx, DWORD PTR _p$[ebp]
  00124	83 c1 28	 add	 ecx, 40			; 00000028H
  00127	8b 10		 mov	 edx, DWORD PTR [eax]
  00129	89 11		 mov	 DWORD PTR [ecx], edx
  0012b	8b 50 04	 mov	 edx, DWORD PTR [eax+4]
  0012e	89 51 04	 mov	 DWORD PTR [ecx+4], edx
  00131	8b 40 08	 mov	 eax, DWORD PTR [eax+8]
  00134	89 41 08	 mov	 DWORD PTR [ecx+8], eax

; 142  : 
; 143  : 		p = (_QTNode*)pNode->pKids[1] ;

  00137	8b 45 0c	 mov	 eax, DWORD PTR _pNode$[ebp]
  0013a	8b 48 10	 mov	 ecx, DWORD PTR [eax+16]
  0013d	89 4d ec	 mov	 DWORD PTR _p$[ebp], ecx

; 144  : 		p->vMin = xVec3(vCenter.x, pNode->vMin.y, pNode->vMin.z) ;		// near right

  00140	8b 45 0c	 mov	 eax, DWORD PTR _pNode$[ebp]
  00143	8b 48 24	 mov	 ecx, DWORD PTR [eax+36]
  00146	51		 push	 ecx
  00147	8b 55 0c	 mov	 edx, DWORD PTR _pNode$[ebp]
  0014a	8b 42 20	 mov	 eax, DWORD PTR [edx+32]
  0014d	50		 push	 eax
  0014e	8b 4d d8	 mov	 ecx, DWORD PTR _vCenter$[ebp]
  00151	51		 push	 ecx
  00152	8d 8d d0 fe ff
	ff		 lea	 ecx, DWORD PTR $T85151[ebp]
  00158	e8 00 00 00 00	 call	 ??0D3DXVECTOR3@@QAE@MMM@Z ; D3DXVECTOR3::D3DXVECTOR3
  0015d	8b 55 ec	 mov	 edx, DWORD PTR _p$[ebp]
  00160	83 c2 1c	 add	 edx, 28			; 0000001cH
  00163	8b 08		 mov	 ecx, DWORD PTR [eax]
  00165	89 0a		 mov	 DWORD PTR [edx], ecx
  00167	8b 48 04	 mov	 ecx, DWORD PTR [eax+4]
  0016a	89 4a 04	 mov	 DWORD PTR [edx+4], ecx
  0016d	8b 40 08	 mov	 eax, DWORD PTR [eax+8]
  00170	89 42 08	 mov	 DWORD PTR [edx+8], eax

; 145  : 		p->vMax = xVec3(pNode->vMax.x, pNode->vMax.y, vCenter.z) ;

  00173	8b 45 e0	 mov	 eax, DWORD PTR _vCenter$[ebp+8]
  00176	50		 push	 eax
  00177	8b 4d 0c	 mov	 ecx, DWORD PTR _pNode$[ebp]
  0017a	8b 51 2c	 mov	 edx, DWORD PTR [ecx+44]
  0017d	52		 push	 edx
  0017e	8b 45 0c	 mov	 eax, DWORD PTR _pNode$[ebp]
  00181	8b 48 28	 mov	 ecx, DWORD PTR [eax+40]
  00184	51		 push	 ecx
  00185	8d 8d bc fe ff
	ff		 lea	 ecx, DWORD PTR $T85152[ebp]
  0018b	e8 00 00 00 00	 call	 ??0D3DXVECTOR3@@QAE@MMM@Z ; D3DXVECTOR3::D3DXVECTOR3
  00190	8b 55 ec	 mov	 edx, DWORD PTR _p$[ebp]
  00193	83 c2 28	 add	 edx, 40			; 00000028H
  00196	8b 08		 mov	 ecx, DWORD PTR [eax]
  00198	89 0a		 mov	 DWORD PTR [edx], ecx
  0019a	8b 48 04	 mov	 ecx, DWORD PTR [eax+4]
  0019d	89 4a 04	 mov	 DWORD PTR [edx+4], ecx
  001a0	8b 40 08	 mov	 eax, DWORD PTR [eax+8]
  001a3	89 42 08	 mov	 DWORD PTR [edx+8], eax

; 146  : 
; 147  : 		p = (_QTNode*)pNode->pKids[2] ;

  001a6	8b 45 0c	 mov	 eax, DWORD PTR _pNode$[ebp]
  001a9	8b 48 14	 mov	 ecx, DWORD PTR [eax+20]
  001ac	89 4d ec	 mov	 DWORD PTR _p$[ebp], ecx

; 148  : 		p->vMin = xVec3(pNode->vMin.x, pNode->vMin.y, vCenter.z) ;		// far left

  001af	8b 45 e0	 mov	 eax, DWORD PTR _vCenter$[ebp+8]
  001b2	50		 push	 eax
  001b3	8b 4d 0c	 mov	 ecx, DWORD PTR _pNode$[ebp]
  001b6	8b 51 20	 mov	 edx, DWORD PTR [ecx+32]
  001b9	52		 push	 edx
  001ba	8b 45 0c	 mov	 eax, DWORD PTR _pNode$[ebp]
  001bd	8b 48 1c	 mov	 ecx, DWORD PTR [eax+28]
  001c0	51		 push	 ecx
  001c1	8d 8d a8 fe ff
	ff		 lea	 ecx, DWORD PTR $T85153[ebp]
  001c7	e8 00 00 00 00	 call	 ??0D3DXVECTOR3@@QAE@MMM@Z ; D3DXVECTOR3::D3DXVECTOR3
  001cc	8b 55 ec	 mov	 edx, DWORD PTR _p$[ebp]
  001cf	83 c2 1c	 add	 edx, 28			; 0000001cH
  001d2	8b 08		 mov	 ecx, DWORD PTR [eax]
  001d4	89 0a		 mov	 DWORD PTR [edx], ecx
  001d6	8b 48 04	 mov	 ecx, DWORD PTR [eax+4]
  001d9	89 4a 04	 mov	 DWORD PTR [edx+4], ecx
  001dc	8b 40 08	 mov	 eax, DWORD PTR [eax+8]
  001df	89 42 08	 mov	 DWORD PTR [edx+8], eax

; 149  : 		p->vMax = xVec3(vCenter.x, pNode->vMax.y, pNode->vMax.z) ; 

  001e2	8b 45 0c	 mov	 eax, DWORD PTR _pNode$[ebp]
  001e5	8b 48 30	 mov	 ecx, DWORD PTR [eax+48]
  001e8	51		 push	 ecx
  001e9	8b 55 0c	 mov	 edx, DWORD PTR _pNode$[ebp]
  001ec	8b 42 2c	 mov	 eax, DWORD PTR [edx+44]
  001ef	50		 push	 eax
  001f0	8b 4d d8	 mov	 ecx, DWORD PTR _vCenter$[ebp]
  001f3	51		 push	 ecx
  001f4	8d 8d 94 fe ff
	ff		 lea	 ecx, DWORD PTR $T85154[ebp]
  001fa	e8 00 00 00 00	 call	 ??0D3DXVECTOR3@@QAE@MMM@Z ; D3DXVECTOR3::D3DXVECTOR3
  001ff	8b 55 ec	 mov	 edx, DWORD PTR _p$[ebp]
  00202	83 c2 28	 add	 edx, 40			; 00000028H
  00205	8b 08		 mov	 ecx, DWORD PTR [eax]
  00207	89 0a		 mov	 DWORD PTR [edx], ecx
  00209	8b 48 04	 mov	 ecx, DWORD PTR [eax+4]
  0020c	89 4a 04	 mov	 DWORD PTR [edx+4], ecx
  0020f	8b 40 08	 mov	 eax, DWORD PTR [eax+8]
  00212	89 42 08	 mov	 DWORD PTR [edx+8], eax

; 150  : 
; 151  : 		p = (_QTNode*)pNode->pKids[3] ;

  00215	8b 45 0c	 mov	 eax, DWORD PTR _pNode$[ebp]
  00218	8b 48 18	 mov	 ecx, DWORD PTR [eax+24]
  0021b	89 4d ec	 mov	 DWORD PTR _p$[ebp], ecx

; 152  : 		p->vMin = xVec3(vCenter.x, pNode->vMin.y, vCenter.z) ;			// far right

  0021e	8b 45 e0	 mov	 eax, DWORD PTR _vCenter$[ebp+8]
  00221	50		 push	 eax
  00222	8b 4d 0c	 mov	 ecx, DWORD PTR _pNode$[ebp]
  00225	8b 51 20	 mov	 edx, DWORD PTR [ecx+32]
  00228	52		 push	 edx
  00229	8b 45 d8	 mov	 eax, DWORD PTR _vCenter$[ebp]
  0022c	50		 push	 eax
  0022d	8d 8d 80 fe ff
	ff		 lea	 ecx, DWORD PTR $T85155[ebp]
  00233	e8 00 00 00 00	 call	 ??0D3DXVECTOR3@@QAE@MMM@Z ; D3DXVECTOR3::D3DXVECTOR3
  00238	8b 4d ec	 mov	 ecx, DWORD PTR _p$[ebp]
  0023b	83 c1 1c	 add	 ecx, 28			; 0000001cH
  0023e	8b 10		 mov	 edx, DWORD PTR [eax]
  00240	89 11		 mov	 DWORD PTR [ecx], edx
  00242	8b 50 04	 mov	 edx, DWORD PTR [eax+4]
  00245	89 51 04	 mov	 DWORD PTR [ecx+4], edx
  00248	8b 40 08	 mov	 eax, DWORD PTR [eax+8]
  0024b	89 41 08	 mov	 DWORD PTR [ecx+8], eax

; 153  : 		p->vMax = xVec3(pNode->vMax.x, pNode->vMax.y, pNode->vMax.z) ;

  0024e	8b 45 0c	 mov	 eax, DWORD PTR _pNode$[ebp]
  00251	8b 48 30	 mov	 ecx, DWORD PTR [eax+48]
  00254	51		 push	 ecx
  00255	8b 55 0c	 mov	 edx, DWORD PTR _pNode$[ebp]
  00258	8b 42 2c	 mov	 eax, DWORD PTR [edx+44]
  0025b	50		 push	 eax
  0025c	8b 4d 0c	 mov	 ecx, DWORD PTR _pNode$[ebp]
  0025f	8b 51 28	 mov	 edx, DWORD PTR [ecx+40]
  00262	52		 push	 edx
  00263	8d 8d 6c fe ff
	ff		 lea	 ecx, DWORD PTR $T85156[ebp]
  00269	e8 00 00 00 00	 call	 ??0D3DXVECTOR3@@QAE@MMM@Z ; D3DXVECTOR3::D3DXVECTOR3
  0026e	8b 4d ec	 mov	 ecx, DWORD PTR _p$[ebp]
  00271	83 c1 28	 add	 ecx, 40			; 00000028H
  00274	8b 10		 mov	 edx, DWORD PTR [eax]
  00276	89 11		 mov	 DWORD PTR [ecx], edx
  00278	8b 50 04	 mov	 edx, DWORD PTR [eax+4]
  0027b	89 51 04	 mov	 DWORD PTR [ecx+4], edx
  0027e	8b 40 08	 mov	 eax, DWORD PTR [eax+8]
  00281	89 41 08	 mov	 DWORD PTR [ecx+8], eax

; 154  : 
; 155  : 		// recurse if not at the desired level
; 156  : 		if (nSubdivides > 1)

  00284	83 7d 08 01	 cmp	 DWORD PTR _nSubdivides$[ebp], 1
  00288	7e 49		 jle	 SHORT $L84958

; 157  : 		{
; 158  : 			for (i = 0 ; i < 4 ; i ++)

  0028a	c7 45 cc 00 00
	00 00		 mov	 DWORD PTR _i$[ebp], 0
  00291	eb 09		 jmp	 SHORT $L84979
$L84980:
  00293	8b 45 cc	 mov	 eax, DWORD PTR _i$[ebp]
  00296	83 c0 01	 add	 eax, 1
  00299	89 45 cc	 mov	 DWORD PTR _i$[ebp], eax
$L84979:
  0029c	83 7d cc 04	 cmp	 DWORD PTR _i$[ebp], 4
  002a0	7d 31		 jge	 SHORT $L84958

; 159  : 			{
; 160  : 				RecurseQuadtree(nSubdivides - 1, (_QTNode*)pNode->pKids[i]) ;

  002a2	8b 45 cc	 mov	 eax, DWORD PTR _i$[ebp]
  002a5	8b 4d 0c	 mov	 ecx, DWORD PTR _pNode$[ebp]
  002a8	8b 54 81 0c	 mov	 edx, DWORD PTR [ecx+eax*4+12]
  002ac	52		 push	 edx
  002ad	8b 45 08	 mov	 eax, DWORD PTR _nSubdivides$[ebp]
  002b0	83 e8 01	 sub	 eax, 1
  002b3	50		 push	 eax
  002b4	8b 4d f8	 mov	 ecx, DWORD PTR _this$[ebp]
  002b7	e8 00 00 00 00	 call	 ?RecurseQuadtree@CQuadtree@@QAEXHPAU_QTNode@1@@Z ; CQuadtree::RecurseQuadtree

; 161  : 				m_nQTDepth-- ;

  002bc	8b 45 f8	 mov	 eax, DWORD PTR _this$[ebp]
  002bf	8b 88 0c 80 00
	00		 mov	 ecx, DWORD PTR [eax+32780]
  002c5	83 e9 01	 sub	 ecx, 1
  002c8	8b 55 f8	 mov	 edx, DWORD PTR _this$[ebp]
  002cb	89 8a 0c 80 00
	00		 mov	 DWORD PTR [edx+32780], ecx

; 162  : 			}

  002d1	eb c0		 jmp	 SHORT $L84980
$L84958:

; 163  : 		}
; 164  : 		else
; 165  : 		// build list of polygons in volume for terminal nodes...
; 166  : 		{
; 167  : 			;
; 168  : 		}
; 169  : 	}

  002d3	52		 push	 edx
  002d4	8b cd		 mov	 ecx, ebp
  002d6	50		 push	 eax
  002d7	8d 15 00 00 00
	00		 lea	 edx, DWORD PTR $L85161
  002dd	e8 00 00 00 00	 call	 @_RTC_CheckStackVars@8
  002e2	58		 pop	 eax
  002e3	5a		 pop	 edx
  002e4	5f		 pop	 edi
  002e5	5e		 pop	 esi
  002e6	5b		 pop	 ebx
  002e7	81 c4 98 01 00
	00		 add	 esp, 408		; 00000198H
  002ed	3b ec		 cmp	 ebp, esp
  002ef	e8 00 00 00 00	 call	 __RTC_CheckEsp
  002f4	8b e5		 mov	 esp, ebp
  002f6	5d		 pop	 ebp
  002f7	c2 08 00	 ret	 8
$L85161:
  002fa	01 00 00 00	 DD	 1
  002fe	00 00 00 00	 DD	 $L85160
$L85160:
  00302	d8 ff ff ff	 DD	 -40			; ffffffd8H
  00306	0c 00 00 00	 DD	 12			; 0000000cH
  0030a	00 00 00 00	 DD	 $L85159
$L85159:
  0030e	76		 DB	 118			; 00000076H
  0030f	43		 DB	 67			; 00000043H
  00310	65		 DB	 101			; 00000065H
  00311	6e		 DB	 110			; 0000006eH
  00312	74		 DB	 116			; 00000074H
  00313	65		 DB	 101			; 00000065H
  00314	72		 DB	 114			; 00000072H
  00315	00		 DB	 0
?RecurseQuadtree@CQuadtree@@QAEXHPAU_QTNode@1@@Z ENDP	; CQuadtree::RecurseQuadtree
_TEXT	ENDS
PUBLIC	?__LINE__Var@?1??MakeRenderData@CQuadtree@@QAEJPAUIDirect3D8@@PAUIDirect3DDevice8@@@Z@4JA ; `CQuadtree::MakeRenderData'::`2'::__LINE__Var
PUBLIC	??_C@_0M@NKNCPJJD@?$CBFAILED?$CIhr?$CJ?$AA@	; `string'
PUBLIC	?MakeRenderData@CQuadtree@@QAEJPAUIDirect3D8@@PAUIDirect3DDevice8@@@Z ; CQuadtree::MakeRenderData
EXTRN	_memcpy:NEAR
;	COMDAT ?__LINE__Var@?1??MakeRenderData@CQuadtree@@QAEJPAUIDirect3D8@@PAUIDirect3DDevice8@@@Z@4JA
_DATA	SEGMENT
?__LINE__Var@?1??MakeRenderData@CQuadtree@@QAEJPAUIDirect3D8@@PAUIDirect3DDevice8@@@Z@4JA DD 0b1H ; `CQuadtree::MakeRenderData'::`2'::__LINE__Var
_DATA	ENDS
;	COMDAT ??_C@_0M@NKNCPJJD@?$CBFAILED?$CIhr?$CJ?$AA@
CONST	SEGMENT
??_C@_0M@NKNCPJJD@?$CBFAILED?$CIhr?$CJ?$AA@ DB '!FAILED(hr)', 00H ; `string'
; Function compile flags: /Odt /RTCsu /ZI
CONST	ENDS
;	COMDAT ?MakeRenderData@CQuadtree@@QAEJPAUIDirect3D8@@PAUIDirect3DDevice8@@@Z
_TEXT	SEGMENT
_pIndices$ = -44
_iFVFSize$ = -32
_hr$ = -20
_this$ = -8
_pD3D$ = 8
_pDev$ = 12
?MakeRenderData@CQuadtree@@QAEJPAUIDirect3D8@@PAUIDirect3DDevice8@@@Z PROC NEAR ; CQuadtree::MakeRenderData, COMDAT
; _this$ = ecx

; 177  : 	{

  00000	55		 push	 ebp
  00001	8b ec		 mov	 ebp, esp
  00003	81 ec f0 00 00
	00		 sub	 esp, 240		; 000000f0H
  00009	53		 push	 ebx
  0000a	56		 push	 esi
  0000b	57		 push	 edi
  0000c	51		 push	 ecx
  0000d	8d bd 10 ff ff
	ff		 lea	 edi, DWORD PTR [ebp-240]
  00013	b9 3c 00 00 00	 mov	 ecx, 60			; 0000003cH
  00018	b8 cc cc cc cc	 mov	 eax, -858993460		; ccccccccH
  0001d	f3 ab		 rep stosd
  0001f	59		 pop	 ecx
  00020	89 4d f8	 mov	 DWORD PTR _this$[ebp], ecx

; 178  : 		HRESULT hr ;
; 179  : 
; 180  : 	//
; 181  : 	// Create an empty VB:
; 182  : 	//
; 183  : 		UINT iFVFSize = sizeof(COLOREDVERTEX) ;

  00023	c7 45 e0 1c 00
	00 00		 mov	 DWORD PTR _iFVFSize$[ebp], 28 ; 0000001cH

; 184  : 		hr = pDev->CreateVertexBuffer(8 * iFVFSize, D3DUSAGE_DYNAMIC, MYFVF_COLOREDVERTEX, D3DPOOL_SYSTEMMEM, &m_pVB) ;

  0002a	8b 45 f8	 mov	 eax, DWORD PTR _this$[ebp]
  0002d	05 80 81 00 00	 add	 eax, 33152		; 00008180H
  00032	8b f4		 mov	 esi, esp
  00034	50		 push	 eax
  00035	6a 02		 push	 2
  00037	68 c2 01 00 00	 push	 450			; 000001c2H
  0003c	68 00 02 00 00	 push	 512			; 00000200H
  00041	8b 4d e0	 mov	 ecx, DWORD PTR _iFVFSize$[ebp]
  00044	c1 e1 03	 shl	 ecx, 3
  00047	51		 push	 ecx
  00048	8b 55 0c	 mov	 edx, DWORD PTR _pDev$[ebp]
  0004b	8b 02		 mov	 eax, DWORD PTR [edx]
  0004d	8b 4d 0c	 mov	 ecx, DWORD PTR _pDev$[ebp]
  00050	51		 push	 ecx
  00051	ff 50 5c	 call	 DWORD PTR [eax+92]
  00054	3b f4		 cmp	 esi, esp
  00056	e8 00 00 00 00	 call	 __RTC_CheckEsp
  0005b	89 45 ec	 mov	 DWORD PTR _hr$[ebp], eax

; 185  : 		assert( !FAILED(hr) );

  0005e	83 7d ec 00	 cmp	 DWORD PTR _hr$[ebp], 0
  00062	7d 1b		 jge	 SHORT $L85165
  00064	a1 00 00 00 00	 mov	 eax, DWORD PTR ?__LINE__Var@?1??MakeRenderData@CQuadtree@@QAEJPAUIDirect3D8@@PAUIDirect3DDevice8@@@Z@4JA
  00069	83 c0 08	 add	 eax, 8
  0006c	50		 push	 eax
  0006d	68 00 00 00 00	 push	 OFFSET FLAT:??_C@_0EL@FLGCDJCA@c?3?2documents?5and?5settings?2dom?2my@
  00072	68 00 00 00 00	 push	 OFFSET FLAT:??_C@_0M@NKNCPJJD@?$CBFAILED?$CIhr?$CJ?$AA@
  00077	e8 00 00 00 00	 call	 __assert
  0007c	83 c4 0c	 add	 esp, 12			; 0000000cH
$L85165:

; 186  : 		/*BYTE *pVerts ;
; 187  : 		hr = m_pVB->Lock(0, 0, &pVerts, 0) ;
; 188  : 		if (FAILED(hr))
; 189  : 		{
; 190  : 			Msg("CQuadtree::MakeRenderData: FAILED(pMesh->LockVertexBuffer(...)) == TRUE") ;
; 191  : 			return hr ;
; 192  : 		}
; 193  : 		memcpy(pVerts, m_fvfVerts, sizeof(COLOREDVERTEX) * 8) ;
; 194  : 		m_dwMem += sizeof(COLOREDVERTEX) * 8 ;
; 195  : 		m_pVB->Unlock() ;*/
; 196  : 
; 197  : 	//
; 198  : 	// Create & fill the IB:
; 199  : 	//
; 200  : 		hr = pDev->CreateIndexBuffer(sizeof(WORD) * 36, D3DUSAGE_WRITEONLY/*D3DUSAGE_SOFTWAREPROCESSING*/, D3DFMT_INDEX16, D3DPOOL_SYSTEMMEM, &m_pIB) ;

  0007f	8b 45 f8	 mov	 eax, DWORD PTR _this$[ebp]
  00082	05 84 81 00 00	 add	 eax, 33156		; 00008184H
  00087	8b f4		 mov	 esi, esp
  00089	50		 push	 eax
  0008a	6a 02		 push	 2
  0008c	6a 65		 push	 101			; 00000065H
  0008e	6a 08		 push	 8
  00090	6a 48		 push	 72			; 00000048H
  00092	8b 4d 0c	 mov	 ecx, DWORD PTR _pDev$[ebp]
  00095	8b 11		 mov	 edx, DWORD PTR [ecx]
  00097	8b 45 0c	 mov	 eax, DWORD PTR _pDev$[ebp]
  0009a	50		 push	 eax
  0009b	ff 52 60	 call	 DWORD PTR [edx+96]
  0009e	3b f4		 cmp	 esi, esp
  000a0	e8 00 00 00 00	 call	 __RTC_CheckEsp
  000a5	89 45 ec	 mov	 DWORD PTR _hr$[ebp], eax

; 201  : 		assert( !FAILED(hr) );

  000a8	83 7d ec 00	 cmp	 DWORD PTR _hr$[ebp], 0
  000ac	7d 1b		 jge	 SHORT $L85166
  000ae	a1 00 00 00 00	 mov	 eax, DWORD PTR ?__LINE__Var@?1??MakeRenderData@CQuadtree@@QAEJPAUIDirect3D8@@PAUIDirect3DDevice8@@@Z@4JA
  000b3	83 c0 18	 add	 eax, 24			; 00000018H
  000b6	50		 push	 eax
  000b7	68 00 00 00 00	 push	 OFFSET FLAT:??_C@_0EL@FLGCDJCA@c?3?2documents?5and?5settings?2dom?2my@
  000bc	68 00 00 00 00	 push	 OFFSET FLAT:??_C@_0M@NKNCPJJD@?$CBFAILED?$CIhr?$CJ?$AA@
  000c1	e8 00 00 00 00	 call	 __assert
  000c6	83 c4 0c	 add	 esp, 12			; 0000000cH
$L85166:

; 202  : 		
; 203  : 		BYTE *pIndices ;
; 204  : 		hr = m_pIB->Lock(0, 0, &pIndices, 0) ;

  000c9	8b f4		 mov	 esi, esp
  000cb	6a 00		 push	 0
  000cd	8d 45 d4	 lea	 eax, DWORD PTR _pIndices$[ebp]
  000d0	50		 push	 eax
  000d1	6a 00		 push	 0
  000d3	6a 00		 push	 0
  000d5	8b 4d f8	 mov	 ecx, DWORD PTR _this$[ebp]
  000d8	8b 91 84 81 00
	00		 mov	 edx, DWORD PTR [ecx+33156]
  000de	8b 45 f8	 mov	 eax, DWORD PTR _this$[ebp]
  000e1	8b 88 84 81 00
	00		 mov	 ecx, DWORD PTR [eax+33156]
  000e7	8b 12		 mov	 edx, DWORD PTR [edx]
  000e9	51		 push	 ecx
  000ea	ff 52 2c	 call	 DWORD PTR [edx+44]
  000ed	3b f4		 cmp	 esi, esp
  000ef	e8 00 00 00 00	 call	 __RTC_CheckEsp
  000f4	89 45 ec	 mov	 DWORD PTR _hr$[ebp], eax

; 205  : 		assert( !FAILED(hr) );

  000f7	83 7d ec 00	 cmp	 DWORD PTR _hr$[ebp], 0
  000fb	7d 1b		 jge	 SHORT $L85167
  000fd	a1 00 00 00 00	 mov	 eax, DWORD PTR ?__LINE__Var@?1??MakeRenderData@CQuadtree@@QAEJPAUIDirect3D8@@PAUIDirect3DDevice8@@@Z@4JA
  00102	83 c0 1c	 add	 eax, 28			; 0000001cH
  00105	50		 push	 eax
  00106	68 00 00 00 00	 push	 OFFSET FLAT:??_C@_0EL@FLGCDJCA@c?3?2documents?5and?5settings?2dom?2my@
  0010b	68 00 00 00 00	 push	 OFFSET FLAT:??_C@_0M@NKNCPJJD@?$CBFAILED?$CIhr?$CJ?$AA@
  00110	e8 00 00 00 00	 call	 __assert
  00115	83 c4 0c	 add	 esp, 12			; 0000000cH
$L85167:

; 206  : 
; 207  : 		memcpy(pIndices, m_wIndices, sizeof(WORD) * 36) ;

  00118	6a 48		 push	 72			; 00000048H
  0011a	8b 45 f8	 mov	 eax, DWORD PTR _this$[ebp]
  0011d	05 f4 80 00 00	 add	 eax, 33012		; 000080f4H
  00122	50		 push	 eax
  00123	8b 4d d4	 mov	 ecx, DWORD PTR _pIndices$[ebp]
  00126	51		 push	 ecx
  00127	e8 00 00 00 00	 call	 _memcpy
  0012c	83 c4 0c	 add	 esp, 12			; 0000000cH

; 208  : 		m_dwMem += sizeof(WORD) * 36 ;

  0012f	8b 45 f8	 mov	 eax, DWORD PTR _this$[ebp]
  00132	8b 08		 mov	 ecx, DWORD PTR [eax]
  00134	83 c1 48	 add	 ecx, 72			; 00000048H
  00137	8b 55 f8	 mov	 edx, DWORD PTR _this$[ebp]
  0013a	89 0a		 mov	 DWORD PTR [edx], ecx

; 209  : 		m_pIB->Unlock() ;

  0013c	8b 45 f8	 mov	 eax, DWORD PTR _this$[ebp]
  0013f	8b 88 84 81 00
	00		 mov	 ecx, DWORD PTR [eax+33156]
  00145	8b 55 f8	 mov	 edx, DWORD PTR _this$[ebp]
  00148	8b 82 84 81 00
	00		 mov	 eax, DWORD PTR [edx+33156]
  0014e	8b 09		 mov	 ecx, DWORD PTR [ecx]
  00150	8b f4		 mov	 esi, esp
  00152	50		 push	 eax
  00153	ff 51 30	 call	 DWORD PTR [ecx+48]
  00156	3b f4		 cmp	 esi, esp
  00158	e8 00 00 00 00	 call	 __RTC_CheckEsp

; 210  : 
; 211  : 		return S_OK ;

  0015d	33 c0		 xor	 eax, eax

; 212  : 	}

  0015f	52		 push	 edx
  00160	8b cd		 mov	 ecx, ebp
  00162	50		 push	 eax
  00163	8d 15 00 00 00
	00		 lea	 edx, DWORD PTR $L85170
  00169	e8 00 00 00 00	 call	 @_RTC_CheckStackVars@8
  0016e	58		 pop	 eax
  0016f	5a		 pop	 edx
  00170	5f		 pop	 edi
  00171	5e		 pop	 esi
  00172	5b		 pop	 ebx
  00173	81 c4 f0 00 00
	00		 add	 esp, 240		; 000000f0H
  00179	3b ec		 cmp	 ebp, esp
  0017b	e8 00 00 00 00	 call	 __RTC_CheckEsp
  00180	8b e5		 mov	 esp, ebp
  00182	5d		 pop	 ebp
  00183	c2 08 00	 ret	 8
$L85170:
  00186	01 00 00 00	 DD	 1
  0018a	00 00 00 00	 DD	 $L85169
$L85169:
  0018e	d4 ff ff ff	 DD	 -44			; ffffffd4H
  00192	04 00 00 00	 DD	 4
  00196	00 00 00 00	 DD	 $L85168
$L85168:
  0019a	70		 DB	 112			; 00000070H
  0019b	49		 DB	 73			; 00000049H
  0019c	6e		 DB	 110			; 0000006eH
  0019d	64		 DB	 100			; 00000064H
  0019e	69		 DB	 105			; 00000069H
  0019f	63		 DB	 99			; 00000063H
  001a0	65		 DB	 101			; 00000065H
  001a1	73		 DB	 115			; 00000073H
  001a2	00		 DB	 0
?MakeRenderData@CQuadtree@@QAEJPAUIDirect3D8@@PAUIDirect3DDevice8@@@Z ENDP ; CQuadtree::MakeRenderData
_TEXT	ENDS
PUBLIC	??_C@_0CB@MAOKALAP@CQuadtree?3?3RestoreDeviceObjects?6@ ; `string'
PUBLIC	?__LINE__Var@?1??RestoreDeviceObjects@CQuadtree@@QAEJPAUIDirect3D8@@PAUIDirect3DDevice8@@@Z@4JA ; `CQuadtree::RestoreDeviceObjects'::`2'::__LINE__Var
PUBLIC	??_C@_08OFPOHIDN@hr?$DN?$DNS_OK?$AA@		; `string'
PUBLIC	?RestoreDeviceObjects@CQuadtree@@QAEJPAUIDirect3D8@@PAUIDirect3DDevice8@@@Z ; CQuadtree::RestoreDeviceObjects
EXTRN	?ods@@YAXPADZZ:NEAR				; ods
;	COMDAT ??_C@_0CB@MAOKALAP@CQuadtree?3?3RestoreDeviceObjects?6@
CONST	SEGMENT
??_C@_0CB@MAOKALAP@CQuadtree?3?3RestoreDeviceObjects?6@ DB 'CQuadtree::Re'
	DB	'storeDeviceObjects', 0aH, 00H		; `string'
CONST	ENDS
;	COMDAT ?__LINE__Var@?1??RestoreDeviceObjects@CQuadtree@@QAEJPAUIDirect3D8@@PAUIDirect3DDevice8@@@Z@4JA
_DATA	SEGMENT
?__LINE__Var@?1??RestoreDeviceObjects@CQuadtree@@QAEJPAUIDirect3D8@@PAUIDirect3DDevice8@@@Z@4JA DD 0dcH ; `CQuadtree::RestoreDeviceObjects'::`2'::__LINE__Var
_DATA	ENDS
;	COMDAT ??_C@_08OFPOHIDN@hr?$DN?$DNS_OK?$AA@
CONST	SEGMENT
??_C@_08OFPOHIDN@hr?$DN?$DNS_OK?$AA@ DB 'hr==S_OK', 00H	; `string'
; Function compile flags: /Odt /RTCsu /ZI
CONST	ENDS
;	COMDAT ?RestoreDeviceObjects@CQuadtree@@QAEJPAUIDirect3D8@@PAUIDirect3DDevice8@@@Z
_TEXT	SEGMENT
_hr$ = -20
_this$ = -8
_pD3D$ = 8
_pDev$ = 12
?RestoreDeviceObjects@CQuadtree@@QAEJPAUIDirect3D8@@PAUIDirect3DDevice8@@@Z PROC NEAR ; CQuadtree::RestoreDeviceObjects, COMDAT
; _this$ = ecx

; 220  : 	{

  00000	55		 push	 ebp
  00001	8b ec		 mov	 ebp, esp
  00003	81 ec d8 00 00
	00		 sub	 esp, 216		; 000000d8H
  00009	53		 push	 ebx
  0000a	56		 push	 esi
  0000b	57		 push	 edi
  0000c	51		 push	 ecx
  0000d	8d bd 28 ff ff
	ff		 lea	 edi, DWORD PTR [ebp-216]
  00013	b9 36 00 00 00	 mov	 ecx, 54			; 00000036H
  00018	b8 cc cc cc cc	 mov	 eax, -858993460		; ccccccccH
  0001d	f3 ab		 rep stosd
  0001f	59		 pop	 ecx
  00020	89 4d f8	 mov	 DWORD PTR _this$[ebp], ecx

; 221  : 		ods( "CQuadtree::RestoreDeviceObjects\n" );

  00023	68 00 00 00 00	 push	 OFFSET FLAT:??_C@_0CB@MAOKALAP@CQuadtree?3?3RestoreDeviceObjects?6@
  00028	e8 00 00 00 00	 call	 ?ods@@YAXPADZZ		; ods
  0002d	83 c4 04	 add	 esp, 4

; 222  : 
; 223  : 		HRESULT hr ;
; 224  : 
; 225  : 		hr = MakeRenderData( pD3D, pDev );

  00030	8b 45 0c	 mov	 eax, DWORD PTR _pDev$[ebp]
  00033	50		 push	 eax
  00034	8b 4d 08	 mov	 ecx, DWORD PTR _pD3D$[ebp]
  00037	51		 push	 ecx
  00038	8b 4d f8	 mov	 ecx, DWORD PTR _this$[ebp]
  0003b	e8 00 00 00 00	 call	 ?MakeRenderData@CQuadtree@@QAEJPAUIDirect3D8@@PAUIDirect3DDevice8@@@Z ; CQuadtree::MakeRenderData
  00040	89 45 ec	 mov	 DWORD PTR _hr$[ebp], eax

; 226  : 		assert( hr==S_OK );

  00043	83 7d ec 00	 cmp	 DWORD PTR _hr$[ebp], 0
  00047	74 1b		 je	 SHORT $L85173
  00049	a1 00 00 00 00	 mov	 eax, DWORD PTR ?__LINE__Var@?1??RestoreDeviceObjects@CQuadtree@@QAEJPAUIDirect3D8@@PAUIDirect3DDevice8@@@Z@4JA
  0004e	83 c0 06	 add	 eax, 6
  00051	50		 push	 eax
  00052	68 00 00 00 00	 push	 OFFSET FLAT:??_C@_0EL@FLGCDJCA@c?3?2documents?5and?5settings?2dom?2my@
  00057	68 00 00 00 00	 push	 OFFSET FLAT:??_C@_08OFPOHIDN@hr?$DN?$DNS_OK?$AA@
  0005c	e8 00 00 00 00	 call	 __assert
  00061	83 c4 0c	 add	 esp, 12			; 0000000cH
$L85173:

; 227  : 	
; 228  : 		return hr ;

  00064	8b 45 ec	 mov	 eax, DWORD PTR _hr$[ebp]

; 229  : 	}

  00067	5f		 pop	 edi
  00068	5e		 pop	 esi
  00069	5b		 pop	 ebx
  0006a	81 c4 d8 00 00
	00		 add	 esp, 216		; 000000d8H
  00070	3b ec		 cmp	 ebp, esp
  00072	e8 00 00 00 00	 call	 __RTC_CheckEsp
  00077	8b e5		 mov	 esp, ebp
  00079	5d		 pop	 ebp
  0007a	c2 08 00	 ret	 8
?RestoreDeviceObjects@CQuadtree@@QAEJPAUIDirect3D8@@PAUIDirect3DDevice8@@@Z ENDP ; CQuadtree::RestoreDeviceObjects
_TEXT	ENDS
PUBLIC	?InvalidateDeviceObjects@CQuadtree@@QAEJXZ	; CQuadtree::InvalidateDeviceObjects
; Function compile flags: /Odt /RTCsu /ZI
;	COMDAT ?InvalidateDeviceObjects@CQuadtree@@QAEJXZ
_TEXT	SEGMENT
_this$ = -8
?InvalidateDeviceObjects@CQuadtree@@QAEJXZ PROC NEAR	; CQuadtree::InvalidateDeviceObjects, COMDAT
; _this$ = ecx

; 231  : 	{

  00000	55		 push	 ebp
  00001	8b ec		 mov	 ebp, esp
  00003	81 ec cc 00 00
	00		 sub	 esp, 204		; 000000ccH
  00009	53		 push	 ebx
  0000a	56		 push	 esi
  0000b	57		 push	 edi
  0000c	51		 push	 ecx
  0000d	8d bd 34 ff ff
	ff		 lea	 edi, DWORD PTR [ebp-204]
  00013	b9 33 00 00 00	 mov	 ecx, 51			; 00000033H
  00018	b8 cc cc cc cc	 mov	 eax, -858993460		; ccccccccH
  0001d	f3 ab		 rep stosd
  0001f	59		 pop	 ecx
  00020	89 4d f8	 mov	 DWORD PTR _this$[ebp], ecx

; 232  : 		SAFE_RELEASE(m_pVB)

  00023	8b 45 f8	 mov	 eax, DWORD PTR _this$[ebp]
  00026	83 b8 80 81 00
	00 00		 cmp	 DWORD PTR [eax+33152], 0
  0002d	74 2e		 je	 SHORT $L85019
  0002f	8b 45 f8	 mov	 eax, DWORD PTR _this$[ebp]
  00032	8b 88 80 81 00
	00		 mov	 ecx, DWORD PTR [eax+33152]
  00038	8b 55 f8	 mov	 edx, DWORD PTR _this$[ebp]
  0003b	8b 82 80 81 00
	00		 mov	 eax, DWORD PTR [edx+33152]
  00041	8b 09		 mov	 ecx, DWORD PTR [ecx]
  00043	8b f4		 mov	 esi, esp
  00045	50		 push	 eax
  00046	ff 51 08	 call	 DWORD PTR [ecx+8]
  00049	3b f4		 cmp	 esi, esp
  0004b	e8 00 00 00 00	 call	 __RTC_CheckEsp
  00050	8b 45 f8	 mov	 eax, DWORD PTR _this$[ebp]
  00053	c7 80 80 81 00
	00 00 00 00 00	 mov	 DWORD PTR [eax+33152], 0
$L85019:

; 233  : 		SAFE_RELEASE(m_pIB)

  0005d	8b 45 f8	 mov	 eax, DWORD PTR _this$[ebp]
  00060	83 b8 84 81 00
	00 00		 cmp	 DWORD PTR [eax+33156], 0
  00067	74 2e		 je	 SHORT $L85020
  00069	8b 45 f8	 mov	 eax, DWORD PTR _this$[ebp]
  0006c	8b 88 84 81 00
	00		 mov	 ecx, DWORD PTR [eax+33156]
  00072	8b 55 f8	 mov	 edx, DWORD PTR _this$[ebp]
  00075	8b 82 84 81 00
	00		 mov	 eax, DWORD PTR [edx+33156]
  0007b	8b 09		 mov	 ecx, DWORD PTR [ecx]
  0007d	8b f4		 mov	 esi, esp
  0007f	50		 push	 eax
  00080	ff 51 08	 call	 DWORD PTR [ecx+8]
  00083	3b f4		 cmp	 esi, esp
  00085	e8 00 00 00 00	 call	 __RTC_CheckEsp
  0008a	8b 45 f8	 mov	 eax, DWORD PTR _this$[ebp]
  0008d	c7 80 84 81 00
	00 00 00 00 00	 mov	 DWORD PTR [eax+33156], 0
$L85020:

; 234  : 
; 235  : 		return S_OK ;

  00097	33 c0		 xor	 eax, eax

; 236  : 	}

  00099	5f		 pop	 edi
  0009a	5e		 pop	 esi
  0009b	5b		 pop	 ebx
  0009c	81 c4 cc 00 00
	00		 add	 esp, 204		; 000000ccH
  000a2	3b ec		 cmp	 ebp, esp
  000a4	e8 00 00 00 00	 call	 __RTC_CheckEsp
  000a9	8b e5		 mov	 esp, ebp
  000ab	5d		 pop	 ebp
  000ac	c3		 ret	 0
?InvalidateDeviceObjects@CQuadtree@@QAEJXZ ENDP		; CQuadtree::InvalidateDeviceObjects
_TEXT	ENDS
PUBLIC	?__LINE__Var@?1??Render@CQuadtree@@QAEJPAUIDirect3DDevice8@@PAKPAUD3DXMATRIX@@H@Z@4JA ; `CQuadtree::Render'::`2'::__LINE__Var
PUBLIC	__real@437f0000
PUBLIC	__real@3f800000
PUBLIC	??0COLOREDVERTEX@@QAE@MMMMMKK@Z			; COLOREDVERTEX::COLOREDVERTEX
PUBLIC	?Render@CQuadtree@@QAEJPAUIDirect3DDevice8@@PAKPAUD3DXMATRIX@@H@Z ; CQuadtree::Render
EXTRN	__ftol2:NEAR
;	COMDAT __real@437f0000
CONST	SEGMENT
__real@437f0000 DD 0437f0000r			; 255
CONST	ENDS
;	COMDAT __real@3f800000
CONST	SEGMENT
__real@3f800000 DD 03f800000r			; 1
CONST	ENDS
;	COMDAT ?__LINE__Var@?1??Render@CQuadtree@@QAEJPAUIDirect3DDevice8@@PAKPAUD3DXMATRIX@@H@Z@4JA
_DATA	SEGMENT
?__LINE__Var@?1??Render@CQuadtree@@QAEJPAUIDirect3DDevice8@@PAKPAUD3DXMATRIX@@H@Z@4JA DD 0f4H ; `CQuadtree::Render'::`2'::__LINE__Var
; Function compile flags: /Odt /RTCsu /ZI
_DATA	ENDS
;	COMDAT ?Render@CQuadtree@@QAEJPAUIDirect3DDevice8@@PAKPAUD3DXMATRIX@@H@Z
_TEXT	SEGMENT
$T85191 = -1068
$T85190 = -1032
$T85189 = -996
$T85188 = -960
$T85187 = -924
$T85186 = -888
$T85185 = -852
$T85184 = -816
$T85183 = -780
$T85182 = -760
$T85181 = -740
$T85180 = -720
$T85179 = -700
$T85178 = -680
_pIB$85071 = -468
_pVB$85070 = -456
_pVerts$85064 = -444
_fvfVerts$85054 = -432
_specular$85052 = -200
_color$85048 = -188
_vVerts$85040 = -176
_i$85033 = -68
_j$ = -56
_nNodeNo$ = -44
_nNodes2Draw$ = -32
_hr$ = -20
_this$ = -8
_pDev$ = 8
_pulPolyCount$ = 12
_pmatWorld$ = 16
_nNodeDepth$ = 20
?Render@CQuadtree@@QAEJPAUIDirect3DDevice8@@PAKPAUD3DXMATRIX@@H@Z PROC NEAR ; CQuadtree::Render, COMDAT
; _this$ = ecx

; 244  : 	{

  00000	55		 push	 ebp
  00001	8b ec		 mov	 ebp, esp
  00003	81 ec 30 04 00
	00		 sub	 esp, 1072		; 00000430H
  00009	53		 push	 ebx
  0000a	56		 push	 esi
  0000b	57		 push	 edi
  0000c	51		 push	 ecx
  0000d	8d bd d0 fb ff
	ff		 lea	 edi, DWORD PTR [ebp-1072]
  00013	b9 0c 01 00 00	 mov	 ecx, 268		; 0000010cH
  00018	b8 cc cc cc cc	 mov	 eax, -858993460		; ccccccccH
  0001d	f3 ab		 rep stosd
  0001f	59		 pop	 ecx
  00020	89 4d f8	 mov	 DWORD PTR _this$[ebp], ecx

; 245  : 		HRESULT hr ;
; 246  : 		int nNodes2Draw = 4 ^ nNodeDepth ;

  00023	8b 45 14	 mov	 eax, DWORD PTR _nNodeDepth$[ebp]
  00026	83 f0 04	 xor	 eax, 4
  00029	89 45 e0	 mov	 DWORD PTR _nNodes2Draw$[ebp], eax

; 247  : 		int nNodeNo = 0 ;

  0002c	c7 45 d4 00 00
	00 00		 mov	 DWORD PTR _nNodeNo$[ebp], 0

; 248  : 		float j ;
; 249  : 
; 250  : 		for (int i = 0 ; i < m_nQTNodes ; i ++)

  00033	c7 45 bc 00 00
	00 00		 mov	 DWORD PTR _i$85033[ebp], 0
  0003a	eb 09		 jmp	 SHORT $L85034
$L85035:
  0003c	8b 45 bc	 mov	 eax, DWORD PTR _i$85033[ebp]
  0003f	83 c0 01	 add	 eax, 1
  00042	89 45 bc	 mov	 DWORD PTR _i$85033[ebp], eax
$L85034:
  00045	8b 45 f8	 mov	 eax, DWORD PTR _this$[ebp]
  00048	8b 4d bc	 mov	 ecx, DWORD PTR _i$85033[ebp]
  0004b	3b 88 08 80 00
	00		 cmp	 ecx, DWORD PTR [eax+32776]
  00051	0f 8d 86 07 00
	00		 jge	 $L85036

; 251  : 		{
; 252  : 			if (m_pQTNodes[i]->nDepth == nNodeDepth)

  00057	8b 45 bc	 mov	 eax, DWORD PTR _i$85033[ebp]
  0005a	8b 4d f8	 mov	 ecx, DWORD PTR _this$[ebp]
  0005d	8b 54 81 08	 mov	 edx, DWORD PTR [ecx+eax*4+8]
  00061	8b 02		 mov	 eax, DWORD PTR [edx]
  00063	3b 45 14	 cmp	 eax, DWORD PTR _nNodeDepth$[ebp]
  00066	0f 85 6c 07 00
	00		 jne	 $L85037

; 253  : 			{
; 254  : 				nNodeNo++ ;

  0006c	8b 45 d4	 mov	 eax, DWORD PTR _nNodeNo$[ebp]
  0006f	83 c0 01	 add	 eax, 1
  00072	89 45 d4	 mov	 DWORD PTR _nNodeNo$[ebp], eax

; 255  : 				//j = (float)nNodeNo / (float)nNodes2Draw ;
; 256  : 				j =	(float)nNodeDepth/(float)m_nQTDepth ;

  00075	db 45 14	 fild	 DWORD PTR _nNodeDepth$[ebp]
  00078	8b 45 f8	 mov	 eax, DWORD PTR _this$[ebp]
  0007b	da b0 0c 80 00
	00		 fidiv	 DWORD PTR [eax+32780]
  00081	d9 5d c8	 fstp	 DWORD PTR _j$[ebp]

; 257  : 
; 258  : 				xVec3 vVerts[8] ;

  00084	68 00 00 00 00	 push	 OFFSET FLAT:??0D3DXVECTOR3@@QAE@XZ ; D3DXVECTOR3::D3DXVECTOR3
  00089	6a 08		 push	 8
  0008b	6a 0c		 push	 12			; 0000000cH
  0008d	8d 85 50 ff ff
	ff		 lea	 eax, DWORD PTR _vVerts$85040[ebp]
  00093	50		 push	 eax
  00094	e8 00 00 00 00	 call	 ??_H@YGXPAXIHP6EPAX0@Z@Z

; 259  : 
; 260  : 			// get all eight corner vertices
; 261  : 				vVerts[0] = m_pQTNodes[i]->vMin ;																// near bottom left	: 0

  00099	8b 45 bc	 mov	 eax, DWORD PTR _i$85033[ebp]
  0009c	8b 4d f8	 mov	 ecx, DWORD PTR _this$[ebp]
  0009f	8b 54 81 08	 mov	 edx, DWORD PTR [ecx+eax*4+8]
  000a3	83 c2 1c	 add	 edx, 28			; 0000001cH
  000a6	8b 02		 mov	 eax, DWORD PTR [edx]
  000a8	89 85 50 ff ff
	ff		 mov	 DWORD PTR _vVerts$85040[ebp], eax
  000ae	8b 4a 04	 mov	 ecx, DWORD PTR [edx+4]
  000b1	89 8d 54 ff ff
	ff		 mov	 DWORD PTR _vVerts$85040[ebp+4], ecx
  000b7	8b 52 08	 mov	 edx, DWORD PTR [edx+8]
  000ba	89 95 58 ff ff
	ff		 mov	 DWORD PTR _vVerts$85040[ebp+8], edx

; 262  : 				vVerts[1] = xVec3(m_pQTNodes[i]->vMin.x, m_pQTNodes[i]->vMax.y, m_pQTNodes[i]->vMin.z) ;	// near top left	: 1

  000c0	8b 45 bc	 mov	 eax, DWORD PTR _i$85033[ebp]
  000c3	8b 4d f8	 mov	 ecx, DWORD PTR _this$[ebp]
  000c6	8b 54 81 08	 mov	 edx, DWORD PTR [ecx+eax*4+8]
  000ca	8b 42 24	 mov	 eax, DWORD PTR [edx+36]
  000cd	50		 push	 eax
  000ce	8b 4d bc	 mov	 ecx, DWORD PTR _i$85033[ebp]
  000d1	8b 55 f8	 mov	 edx, DWORD PTR _this$[ebp]
  000d4	8b 44 8a 08	 mov	 eax, DWORD PTR [edx+ecx*4+8]
  000d8	8b 48 2c	 mov	 ecx, DWORD PTR [eax+44]
  000db	51		 push	 ecx
  000dc	8b 55 bc	 mov	 edx, DWORD PTR _i$85033[ebp]
  000df	8b 45 f8	 mov	 eax, DWORD PTR _this$[ebp]
  000e2	8b 4c 90 08	 mov	 ecx, DWORD PTR [eax+edx*4+8]
  000e6	8b 51 1c	 mov	 edx, DWORD PTR [ecx+28]
  000e9	52		 push	 edx
  000ea	8d 8d 58 fd ff
	ff		 lea	 ecx, DWORD PTR $T85178[ebp]
  000f0	e8 00 00 00 00	 call	 ??0D3DXVECTOR3@@QAE@MMM@Z ; D3DXVECTOR3::D3DXVECTOR3
  000f5	8b 08		 mov	 ecx, DWORD PTR [eax]
  000f7	89 8d 5c ff ff
	ff		 mov	 DWORD PTR _vVerts$85040[ebp+12], ecx
  000fd	8b 50 04	 mov	 edx, DWORD PTR [eax+4]
  00100	89 95 60 ff ff
	ff		 mov	 DWORD PTR _vVerts$85040[ebp+16], edx
  00106	8b 40 08	 mov	 eax, DWORD PTR [eax+8]
  00109	89 85 64 ff ff
	ff		 mov	 DWORD PTR _vVerts$85040[ebp+20], eax

; 263  : 				vVerts[2] = xVec3(m_pQTNodes[i]->vMax.x, m_pQTNodes[i]->vMin.y, m_pQTNodes[i]->vMin.z) ;	// near bottom right: 2

  0010f	8b 45 bc	 mov	 eax, DWORD PTR _i$85033[ebp]
  00112	8b 4d f8	 mov	 ecx, DWORD PTR _this$[ebp]
  00115	8b 54 81 08	 mov	 edx, DWORD PTR [ecx+eax*4+8]
  00119	8b 42 24	 mov	 eax, DWORD PTR [edx+36]
  0011c	50		 push	 eax
  0011d	8b 4d bc	 mov	 ecx, DWORD PTR _i$85033[ebp]
  00120	8b 55 f8	 mov	 edx, DWORD PTR _this$[ebp]
  00123	8b 44 8a 08	 mov	 eax, DWORD PTR [edx+ecx*4+8]
  00127	8b 48 20	 mov	 ecx, DWORD PTR [eax+32]
  0012a	51		 push	 ecx
  0012b	8b 55 bc	 mov	 edx, DWORD PTR _i$85033[ebp]
  0012e	8b 45 f8	 mov	 eax, DWORD PTR _this$[ebp]
  00131	8b 4c 90 08	 mov	 ecx, DWORD PTR [eax+edx*4+8]
  00135	8b 51 28	 mov	 edx, DWORD PTR [ecx+40]
  00138	52		 push	 edx
  00139	8d 8d 44 fd ff
	ff		 lea	 ecx, DWORD PTR $T85179[ebp]
  0013f	e8 00 00 00 00	 call	 ??0D3DXVECTOR3@@QAE@MMM@Z ; D3DXVECTOR3::D3DXVECTOR3
  00144	8b 08		 mov	 ecx, DWORD PTR [eax]
  00146	89 8d 68 ff ff
	ff		 mov	 DWORD PTR _vVerts$85040[ebp+24], ecx
  0014c	8b 50 04	 mov	 edx, DWORD PTR [eax+4]
  0014f	89 95 6c ff ff
	ff		 mov	 DWORD PTR _vVerts$85040[ebp+28], edx
  00155	8b 40 08	 mov	 eax, DWORD PTR [eax+8]
  00158	89 85 70 ff ff
	ff		 mov	 DWORD PTR _vVerts$85040[ebp+32], eax

; 264  : 				vVerts[3] = xVec3(m_pQTNodes[i]->vMax.x, m_pQTNodes[i]->vMax.y, m_pQTNodes[i]->vMin.z) ;	// near top right	: 3

  0015e	8b 45 bc	 mov	 eax, DWORD PTR _i$85033[ebp]
  00161	8b 4d f8	 mov	 ecx, DWORD PTR _this$[ebp]
  00164	8b 54 81 08	 mov	 edx, DWORD PTR [ecx+eax*4+8]
  00168	8b 42 24	 mov	 eax, DWORD PTR [edx+36]
  0016b	50		 push	 eax
  0016c	8b 4d bc	 mov	 ecx, DWORD PTR _i$85033[ebp]
  0016f	8b 55 f8	 mov	 edx, DWORD PTR _this$[ebp]
  00172	8b 44 8a 08	 mov	 eax, DWORD PTR [edx+ecx*4+8]
  00176	8b 48 2c	 mov	 ecx, DWORD PTR [eax+44]
  00179	51		 push	 ecx
  0017a	8b 55 bc	 mov	 edx, DWORD PTR _i$85033[ebp]
  0017d	8b 45 f8	 mov	 eax, DWORD PTR _this$[ebp]
  00180	8b 4c 90 08	 mov	 ecx, DWORD PTR [eax+edx*4+8]
  00184	8b 51 28	 mov	 edx, DWORD PTR [ecx+40]
  00187	52		 push	 edx
  00188	8d 8d 30 fd ff
	ff		 lea	 ecx, DWORD PTR $T85180[ebp]
  0018e	e8 00 00 00 00	 call	 ??0D3DXVECTOR3@@QAE@MMM@Z ; D3DXVECTOR3::D3DXVECTOR3
  00193	8b 08		 mov	 ecx, DWORD PTR [eax]
  00195	89 8d 74 ff ff
	ff		 mov	 DWORD PTR _vVerts$85040[ebp+36], ecx
  0019b	8b 50 04	 mov	 edx, DWORD PTR [eax+4]
  0019e	89 95 78 ff ff
	ff		 mov	 DWORD PTR _vVerts$85040[ebp+40], edx
  001a4	8b 40 08	 mov	 eax, DWORD PTR [eax+8]
  001a7	89 85 7c ff ff
	ff		 mov	 DWORD PTR _vVerts$85040[ebp+44], eax

; 265  : 				vVerts[4] = xVec3(m_pQTNodes[i]->vMin.x, m_pQTNodes[i]->vMin.y, m_pQTNodes[i]->vMax.z) ;	// far bottom left	: 4

  001ad	8b 45 bc	 mov	 eax, DWORD PTR _i$85033[ebp]
  001b0	8b 4d f8	 mov	 ecx, DWORD PTR _this$[ebp]
  001b3	8b 54 81 08	 mov	 edx, DWORD PTR [ecx+eax*4+8]
  001b7	8b 42 30	 mov	 eax, DWORD PTR [edx+48]
  001ba	50		 push	 eax
  001bb	8b 4d bc	 mov	 ecx, DWORD PTR _i$85033[ebp]
  001be	8b 55 f8	 mov	 edx, DWORD PTR _this$[ebp]
  001c1	8b 44 8a 08	 mov	 eax, DWORD PTR [edx+ecx*4+8]
  001c5	8b 48 20	 mov	 ecx, DWORD PTR [eax+32]
  001c8	51		 push	 ecx
  001c9	8b 55 bc	 mov	 edx, DWORD PTR _i$85033[ebp]
  001cc	8b 45 f8	 mov	 eax, DWORD PTR _this$[ebp]
  001cf	8b 4c 90 08	 mov	 ecx, DWORD PTR [eax+edx*4+8]
  001d3	8b 51 1c	 mov	 edx, DWORD PTR [ecx+28]
  001d6	52		 push	 edx
  001d7	8d 8d 1c fd ff
	ff		 lea	 ecx, DWORD PTR $T85181[ebp]
  001dd	e8 00 00 00 00	 call	 ??0D3DXVECTOR3@@QAE@MMM@Z ; D3DXVECTOR3::D3DXVECTOR3
  001e2	8b 08		 mov	 ecx, DWORD PTR [eax]
  001e4	89 4d 80	 mov	 DWORD PTR _vVerts$85040[ebp+48], ecx
  001e7	8b 50 04	 mov	 edx, DWORD PTR [eax+4]
  001ea	89 55 84	 mov	 DWORD PTR _vVerts$85040[ebp+52], edx
  001ed	8b 40 08	 mov	 eax, DWORD PTR [eax+8]
  001f0	89 45 88	 mov	 DWORD PTR _vVerts$85040[ebp+56], eax

; 266  : 				vVerts[5] = xVec3(m_pQTNodes[i]->vMin.x, m_pQTNodes[i]->vMax.y, m_pQTNodes[i]->vMax.z) ;	// far top left		: 5

  001f3	8b 45 bc	 mov	 eax, DWORD PTR _i$85033[ebp]
  001f6	8b 4d f8	 mov	 ecx, DWORD PTR _this$[ebp]
  001f9	8b 54 81 08	 mov	 edx, DWORD PTR [ecx+eax*4+8]
  001fd	8b 42 30	 mov	 eax, DWORD PTR [edx+48]
  00200	50		 push	 eax
  00201	8b 4d bc	 mov	 ecx, DWORD PTR _i$85033[ebp]
  00204	8b 55 f8	 mov	 edx, DWORD PTR _this$[ebp]
  00207	8b 44 8a 08	 mov	 eax, DWORD PTR [edx+ecx*4+8]
  0020b	8b 48 2c	 mov	 ecx, DWORD PTR [eax+44]
  0020e	51		 push	 ecx
  0020f	8b 55 bc	 mov	 edx, DWORD PTR _i$85033[ebp]
  00212	8b 45 f8	 mov	 eax, DWORD PTR _this$[ebp]
  00215	8b 4c 90 08	 mov	 ecx, DWORD PTR [eax+edx*4+8]
  00219	8b 51 1c	 mov	 edx, DWORD PTR [ecx+28]
  0021c	52		 push	 edx
  0021d	8d 8d 08 fd ff
	ff		 lea	 ecx, DWORD PTR $T85182[ebp]
  00223	e8 00 00 00 00	 call	 ??0D3DXVECTOR3@@QAE@MMM@Z ; D3DXVECTOR3::D3DXVECTOR3
  00228	8b 08		 mov	 ecx, DWORD PTR [eax]
  0022a	89 4d 8c	 mov	 DWORD PTR _vVerts$85040[ebp+60], ecx
  0022d	8b 50 04	 mov	 edx, DWORD PTR [eax+4]
  00230	89 55 90	 mov	 DWORD PTR _vVerts$85040[ebp+64], edx
  00233	8b 40 08	 mov	 eax, DWORD PTR [eax+8]
  00236	89 45 94	 mov	 DWORD PTR _vVerts$85040[ebp+68], eax

; 267  : 				vVerts[6] = xVec3(m_pQTNodes[i]->vMax.x, m_pQTNodes[i]->vMin.y, m_pQTNodes[i]->vMax.z) ;	// far bottom right	: 6

  00239	8b 45 bc	 mov	 eax, DWORD PTR _i$85033[ebp]
  0023c	8b 4d f8	 mov	 ecx, DWORD PTR _this$[ebp]
  0023f	8b 54 81 08	 mov	 edx, DWORD PTR [ecx+eax*4+8]
  00243	8b 42 30	 mov	 eax, DWORD PTR [edx+48]
  00246	50		 push	 eax
  00247	8b 4d bc	 mov	 ecx, DWORD PTR _i$85033[ebp]
  0024a	8b 55 f8	 mov	 edx, DWORD PTR _this$[ebp]
  0024d	8b 44 8a 08	 mov	 eax, DWORD PTR [edx+ecx*4+8]
  00251	8b 48 20	 mov	 ecx, DWORD PTR [eax+32]
  00254	51		 push	 ecx
  00255	8b 55 bc	 mov	 edx, DWORD PTR _i$85033[ebp]
  00258	8b 45 f8	 mov	 eax, DWORD PTR _this$[ebp]
  0025b	8b 4c 90 08	 mov	 ecx, DWORD PTR [eax+edx*4+8]
  0025f	8b 51 28	 mov	 edx, DWORD PTR [ecx+40]
  00262	52		 push	 edx
  00263	8d 8d f4 fc ff
	ff		 lea	 ecx, DWORD PTR $T85183[ebp]
  00269	e8 00 00 00 00	 call	 ??0D3DXVECTOR3@@QAE@MMM@Z ; D3DXVECTOR3::D3DXVECTOR3
  0026e	8b 08		 mov	 ecx, DWORD PTR [eax]
  00270	89 4d 98	 mov	 DWORD PTR _vVerts$85040[ebp+72], ecx
  00273	8b 50 04	 mov	 edx, DWORD PTR [eax+4]
  00276	89 55 9c	 mov	 DWORD PTR _vVerts$85040[ebp+76], edx
  00279	8b 40 08	 mov	 eax, DWORD PTR [eax+8]
  0027c	89 45 a0	 mov	 DWORD PTR _vVerts$85040[ebp+80], eax

; 268  : 				vVerts[7] = m_pQTNodes[i]->vMax ;

  0027f	8b 45 bc	 mov	 eax, DWORD PTR _i$85033[ebp]
  00282	8b 4d f8	 mov	 ecx, DWORD PTR _this$[ebp]
  00285	8b 54 81 08	 mov	 edx, DWORD PTR [ecx+eax*4+8]
  00289	83 c2 28	 add	 edx, 40			; 00000028H
  0028c	8b 02		 mov	 eax, DWORD PTR [edx]
  0028e	89 45 a4	 mov	 DWORD PTR _vVerts$85040[ebp+84], eax
  00291	8b 4a 04	 mov	 ecx, DWORD PTR [edx+4]
  00294	89 4d a8	 mov	 DWORD PTR _vVerts$85040[ebp+88], ecx
  00297	8b 52 08	 mov	 edx, DWORD PTR [edx+8]
  0029a	89 55 ac	 mov	 DWORD PTR _vVerts$85040[ebp+92], edx

; 269  : 				
; 270  : 			// set static render data
; 271  : 				DWORD color = D3DCOLOR_ARGB(64, (int)(j * 255.0f), (int)((1-j) * 255.0f), 255) ;

  0029d	d9 45 c8	 fld	 DWORD PTR _j$[ebp]
  002a0	d8 0d 00 00 00
	00		 fmul	 DWORD PTR __real@437f0000
  002a6	e8 00 00 00 00	 call	 __ftol2
  002ab	8b f0		 mov	 esi, eax
  002ad	81 e6 ff 00 00
	00		 and	 esi, 255		; 000000ffH
  002b3	c1 e6 10	 shl	 esi, 16			; 00000010H
  002b6	81 ce 00 00 00
	40		 or	 esi, 1073741824		; 40000000H
  002bc	d9 05 00 00 00
	00		 fld	 DWORD PTR __real@3f800000
  002c2	d8 65 c8	 fsub	 DWORD PTR _j$[ebp]
  002c5	d8 0d 00 00 00
	00		 fmul	 DWORD PTR __real@437f0000
  002cb	e8 00 00 00 00	 call	 __ftol2
  002d0	25 ff 00 00 00	 and	 eax, 255		; 000000ffH
  002d5	c1 e0 08	 shl	 eax, 8
  002d8	0b f0		 or	 esi, eax
  002da	81 ce ff 00 00
	00		 or	 esi, 255		; 000000ffH
  002e0	89 b5 44 ff ff
	ff		 mov	 DWORD PTR _color$85048[ebp], esi

; 272  : 				DWORD specular = D3DCOLOR_ARGB(0, 0, 0, 0) ;

  002e6	c7 85 38 ff ff
	ff 00 00 00 00	 mov	 DWORD PTR _specular$85052[ebp], 0

; 273  : 				COLOREDVERTEX fvfVerts[8] ;

  002f0	68 00 00 00 00	 push	 OFFSET FLAT:??0COLOREDVERTEX@@QAE@XZ ; COLOREDVERTEX::COLOREDVERTEX
  002f5	6a 08		 push	 8
  002f7	6a 1c		 push	 28			; 0000001cH
  002f9	8d 85 50 fe ff
	ff		 lea	 eax, DWORD PTR _fvfVerts$85054[ebp]
  002ff	50		 push	 eax
  00300	e8 00 00 00 00	 call	 ??_H@YGXPAXIHP6EPAX0@Z@Z

; 274  : 				fvfVerts[0] = COLOREDVERTEX(vVerts[0].x, vVerts[0].y, vVerts[0].z, 0.0f, 1.0f, color, specular) ;

  00305	8b 85 38 ff ff
	ff		 mov	 eax, DWORD PTR _specular$85052[ebp]
  0030b	50		 push	 eax
  0030c	8b 8d 44 ff ff
	ff		 mov	 ecx, DWORD PTR _color$85048[ebp]
  00312	51		 push	 ecx
  00313	68 00 00 80 3f	 push	 1065353216		; 3f800000H
  00318	6a 00		 push	 0
  0031a	8b 95 58 ff ff
	ff		 mov	 edx, DWORD PTR _vVerts$85040[ebp+8]
  00320	52		 push	 edx
  00321	8b 85 54 ff ff
	ff		 mov	 eax, DWORD PTR _vVerts$85040[ebp+4]
  00327	50		 push	 eax
  00328	8b 8d 50 ff ff
	ff		 mov	 ecx, DWORD PTR _vVerts$85040[ebp]
  0032e	51		 push	 ecx
  0032f	8d 8d d0 fc ff
	ff		 lea	 ecx, DWORD PTR $T85184[ebp]
  00335	e8 00 00 00 00	 call	 ??0COLOREDVERTEX@@QAE@MMMMMKK@Z ; COLOREDVERTEX::COLOREDVERTEX
  0033a	b9 07 00 00 00	 mov	 ecx, 7
  0033f	8b f0		 mov	 esi, eax
  00341	8d bd 50 fe ff
	ff		 lea	 edi, DWORD PTR _fvfVerts$85054[ebp]
  00347	f3 a5		 rep movsd

; 275  : 				fvfVerts[1] = COLOREDVERTEX(vVerts[1].x, vVerts[1].y, vVerts[1].z, 0.0f, 1.0f, color, specular) ;

  00349	8b 85 38 ff ff
	ff		 mov	 eax, DWORD PTR _specular$85052[ebp]
  0034f	50		 push	 eax
  00350	8b 8d 44 ff ff
	ff		 mov	 ecx, DWORD PTR _color$85048[ebp]
  00356	51		 push	 ecx
  00357	68 00 00 80 3f	 push	 1065353216		; 3f800000H
  0035c	6a 00		 push	 0
  0035e	8b 95 64 ff ff
	ff		 mov	 edx, DWORD PTR _vVerts$85040[ebp+20]
  00364	52		 push	 edx
  00365	8b 85 60 ff ff
	ff		 mov	 eax, DWORD PTR _vVerts$85040[ebp+16]
  0036b	50		 push	 eax
  0036c	8b 8d 5c ff ff
	ff		 mov	 ecx, DWORD PTR _vVerts$85040[ebp+12]
  00372	51		 push	 ecx
  00373	8d 8d ac fc ff
	ff		 lea	 ecx, DWORD PTR $T85185[ebp]
  00379	e8 00 00 00 00	 call	 ??0COLOREDVERTEX@@QAE@MMMMMKK@Z ; COLOREDVERTEX::COLOREDVERTEX
  0037e	b9 07 00 00 00	 mov	 ecx, 7
  00383	8b f0		 mov	 esi, eax
  00385	8d bd 6c fe ff
	ff		 lea	 edi, DWORD PTR _fvfVerts$85054[ebp+28]
  0038b	f3 a5		 rep movsd

; 276  : 				fvfVerts[2] = COLOREDVERTEX(vVerts[2].x, vVerts[2].y, vVerts[2].z, 0.0f, 1.0f, color, specular) ;

  0038d	8b 85 38 ff ff
	ff		 mov	 eax, DWORD PTR _specular$85052[ebp]
  00393	50		 push	 eax
  00394	8b 8d 44 ff ff
	ff		 mov	 ecx, DWORD PTR _color$85048[ebp]
  0039a	51		 push	 ecx
  0039b	68 00 00 80 3f	 push	 1065353216		; 3f800000H
  003a0	6a 00		 push	 0
  003a2	8b 95 70 ff ff
	ff		 mov	 edx, DWORD PTR _vVerts$85040[ebp+32]
  003a8	52		 push	 edx
  003a9	8b 85 6c ff ff
	ff		 mov	 eax, DWORD PTR _vVerts$85040[ebp+28]
  003af	50		 push	 eax
  003b0	8b 8d 68 ff ff
	ff		 mov	 ecx, DWORD PTR _vVerts$85040[ebp+24]
  003b6	51		 push	 ecx
  003b7	8d 8d 88 fc ff
	ff		 lea	 ecx, DWORD PTR $T85186[ebp]
  003bd	e8 00 00 00 00	 call	 ??0COLOREDVERTEX@@QAE@MMMMMKK@Z ; COLOREDVERTEX::COLOREDVERTEX
  003c2	b9 07 00 00 00	 mov	 ecx, 7
  003c7	8b f0		 mov	 esi, eax
  003c9	8d bd 88 fe ff
	ff		 lea	 edi, DWORD PTR _fvfVerts$85054[ebp+56]
  003cf	f3 a5		 rep movsd

; 277  : 				fvfVerts[3] = COLOREDVERTEX(vVerts[3].x, vVerts[3].y, vVerts[3].z, 0.0f, 1.0f, color, specular) ;

  003d1	8b 85 38 ff ff
	ff		 mov	 eax, DWORD PTR _specular$85052[ebp]
  003d7	50		 push	 eax
  003d8	8b 8d 44 ff ff
	ff		 mov	 ecx, DWORD PTR _color$85048[ebp]
  003de	51		 push	 ecx
  003df	68 00 00 80 3f	 push	 1065353216		; 3f800000H
  003e4	6a 00		 push	 0
  003e6	8b 95 7c ff ff
	ff		 mov	 edx, DWORD PTR _vVerts$85040[ebp+44]
  003ec	52		 push	 edx
  003ed	8b 85 78 ff ff
	ff		 mov	 eax, DWORD PTR _vVerts$85040[ebp+40]
  003f3	50		 push	 eax
  003f4	8b 8d 74 ff ff
	ff		 mov	 ecx, DWORD PTR _vVerts$85040[ebp+36]
  003fa	51		 push	 ecx
  003fb	8d 8d 64 fc ff
	ff		 lea	 ecx, DWORD PTR $T85187[ebp]
  00401	e8 00 00 00 00	 call	 ??0COLOREDVERTEX@@QAE@MMMMMKK@Z ; COLOREDVERTEX::COLOREDVERTEX
  00406	b9 07 00 00 00	 mov	 ecx, 7
  0040b	8b f0		 mov	 esi, eax
  0040d	8d bd a4 fe ff
	ff		 lea	 edi, DWORD PTR _fvfVerts$85054[ebp+84]
  00413	f3 a5		 rep movsd

; 278  : 				fvfVerts[4] = COLOREDVERTEX(vVerts[4].x, vVerts[4].y, vVerts[4].z, 0.0f, 1.0f, color, specular) ;

  00415	8b 85 38 ff ff
	ff		 mov	 eax, DWORD PTR _specular$85052[ebp]
  0041b	50		 push	 eax
  0041c	8b 8d 44 ff ff
	ff		 mov	 ecx, DWORD PTR _color$85048[ebp]
  00422	51		 push	 ecx
  00423	68 00 00 80 3f	 push	 1065353216		; 3f800000H
  00428	6a 00		 push	 0
  0042a	8b 55 88	 mov	 edx, DWORD PTR _vVerts$85040[ebp+56]
  0042d	52		 push	 edx
  0042e	8b 45 84	 mov	 eax, DWORD PTR _vVerts$85040[ebp+52]
  00431	50		 push	 eax
  00432	8b 4d 80	 mov	 ecx, DWORD PTR _vVerts$85040[ebp+48]
  00435	51		 push	 ecx
  00436	8d 8d 40 fc ff
	ff		 lea	 ecx, DWORD PTR $T85188[ebp]
  0043c	e8 00 00 00 00	 call	 ??0COLOREDVERTEX@@QAE@MMMMMKK@Z ; COLOREDVERTEX::COLOREDVERTEX
  00441	b9 07 00 00 00	 mov	 ecx, 7
  00446	8b f0		 mov	 esi, eax
  00448	8d bd c0 fe ff
	ff		 lea	 edi, DWORD PTR _fvfVerts$85054[ebp+112]
  0044e	f3 a5		 rep movsd

; 279  : 				fvfVerts[5] = COLOREDVERTEX(vVerts[5].x, vVerts[5].y, vVerts[5].z, 0.0f, 1.0f, color, specular) ;

  00450	8b 85 38 ff ff
	ff		 mov	 eax, DWORD PTR _specular$85052[ebp]
  00456	50		 push	 eax
  00457	8b 8d 44 ff ff
	ff		 mov	 ecx, DWORD PTR _color$85048[ebp]
  0045d	51		 push	 ecx
  0045e	68 00 00 80 3f	 push	 1065353216		; 3f800000H
  00463	6a 00		 push	 0
  00465	8b 55 94	 mov	 edx, DWORD PTR _vVerts$85040[ebp+68]
  00468	52		 push	 edx
  00469	8b 45 90	 mov	 eax, DWORD PTR _vVerts$85040[ebp+64]
  0046c	50		 push	 eax
  0046d	8b 4d 8c	 mov	 ecx, DWORD PTR _vVerts$85040[ebp+60]
  00470	51		 push	 ecx
  00471	8d 8d 1c fc ff
	ff		 lea	 ecx, DWORD PTR $T85189[ebp]
  00477	e8 00 00 00 00	 call	 ??0COLOREDVERTEX@@QAE@MMMMMKK@Z ; COLOREDVERTEX::COLOREDVERTEX
  0047c	b9 07 00 00 00	 mov	 ecx, 7
  00481	8b f0		 mov	 esi, eax
  00483	8d bd dc fe ff
	ff		 lea	 edi, DWORD PTR _fvfVerts$85054[ebp+140]
  00489	f3 a5		 rep movsd

; 280  : 				fvfVerts[6] = COLOREDVERTEX(vVerts[6].x, vVerts[6].y, vVerts[6].z, 0.0f, 1.0f, color, specular) ;

  0048b	8b 85 38 ff ff
	ff		 mov	 eax, DWORD PTR _specular$85052[ebp]
  00491	50		 push	 eax
  00492	8b 8d 44 ff ff
	ff		 mov	 ecx, DWORD PTR _color$85048[ebp]
  00498	51		 push	 ecx
  00499	68 00 00 80 3f	 push	 1065353216		; 3f800000H
  0049e	6a 00		 push	 0
  004a0	8b 55 a0	 mov	 edx, DWORD PTR _vVerts$85040[ebp+80]
  004a3	52		 push	 edx
  004a4	8b 45 9c	 mov	 eax, DWORD PTR _vVerts$85040[ebp+76]
  004a7	50		 push	 eax
  004a8	8b 4d 98	 mov	 ecx, DWORD PTR _vVerts$85040[ebp+72]
  004ab	51		 push	 ecx
  004ac	8d 8d f8 fb ff
	ff		 lea	 ecx, DWORD PTR $T85190[ebp]
  004b2	e8 00 00 00 00	 call	 ??0COLOREDVERTEX@@QAE@MMMMMKK@Z ; COLOREDVERTEX::COLOREDVERTEX
  004b7	b9 07 00 00 00	 mov	 ecx, 7
  004bc	8b f0		 mov	 esi, eax
  004be	8d bd f8 fe ff
	ff		 lea	 edi, DWORD PTR _fvfVerts$85054[ebp+168]
  004c4	f3 a5		 rep movsd

; 281  : 				fvfVerts[7] = COLOREDVERTEX(vVerts[7].x, vVerts[7].y, vVerts[7].z, 0.0f, 1.0f, color, specular) ;

  004c6	8b 85 38 ff ff
	ff		 mov	 eax, DWORD PTR _specular$85052[ebp]
  004cc	50		 push	 eax
  004cd	8b 8d 44 ff ff
	ff		 mov	 ecx, DWORD PTR _color$85048[ebp]
  004d3	51		 push	 ecx
  004d4	68 00 00 80 3f	 push	 1065353216		; 3f800000H
  004d9	6a 00		 push	 0
  004db	8b 55 ac	 mov	 edx, DWORD PTR _vVerts$85040[ebp+92]
  004de	52		 push	 edx
  004df	8b 45 a8	 mov	 eax, DWORD PTR _vVerts$85040[ebp+88]
  004e2	50		 push	 eax
  004e3	8b 4d a4	 mov	 ecx, DWORD PTR _vVerts$85040[ebp+84]
  004e6	51		 push	 ecx
  004e7	8d 8d d4 fb ff
	ff		 lea	 ecx, DWORD PTR $T85191[ebp]
  004ed	e8 00 00 00 00	 call	 ??0COLOREDVERTEX@@QAE@MMMMMKK@Z ; COLOREDVERTEX::COLOREDVERTEX
  004f2	b9 07 00 00 00	 mov	 ecx, 7
  004f7	8b f0		 mov	 esi, eax
  004f9	8d bd 14 ff ff
	ff		 lea	 edi, DWORD PTR _fvfVerts$85054[ebp+196]
  004ff	f3 a5		 rep movsd

; 282  : 
; 283  : 			// fill VB
; 284  : 				BYTE *pVerts ;
; 285  : 				hr = m_pVB->Lock(0, 0, &pVerts, 0) ;

  00501	8b f4		 mov	 esi, esp
  00503	6a 00		 push	 0
  00505	8d 85 44 fe ff
	ff		 lea	 eax, DWORD PTR _pVerts$85064[ebp]
  0050b	50		 push	 eax
  0050c	6a 00		 push	 0
  0050e	6a 00		 push	 0
  00510	8b 4d f8	 mov	 ecx, DWORD PTR _this$[ebp]
  00513	8b 91 80 81 00
	00		 mov	 edx, DWORD PTR [ecx+33152]
  00519	8b 45 f8	 mov	 eax, DWORD PTR _this$[ebp]
  0051c	8b 88 80 81 00
	00		 mov	 ecx, DWORD PTR [eax+33152]
  00522	8b 12		 mov	 edx, DWORD PTR [edx]
  00524	51		 push	 ecx
  00525	ff 52 2c	 call	 DWORD PTR [edx+44]
  00528	3b f4		 cmp	 esi, esp
  0052a	e8 00 00 00 00	 call	 __RTC_CheckEsp
  0052f	89 45 ec	 mov	 DWORD PTR _hr$[ebp], eax

; 286  : 				assert( !FAILED(hr) );

  00532	83 7d ec 00	 cmp	 DWORD PTR _hr$[ebp], 0
  00536	7d 1b		 jge	 SHORT $L85192
  00538	a1 00 00 00 00	 mov	 eax, DWORD PTR ?__LINE__Var@?1??Render@CQuadtree@@QAEJPAUIDirect3DDevice8@@PAKPAUD3DXMATRIX@@H@Z@4JA
  0053d	83 c0 2a	 add	 eax, 42			; 0000002aH
  00540	50		 push	 eax
  00541	68 00 00 00 00	 push	 OFFSET FLAT:??_C@_0EL@FLGCDJCA@c?3?2documents?5and?5settings?2dom?2my@
  00546	68 00 00 00 00	 push	 OFFSET FLAT:??_C@_0M@NKNCPJJD@?$CBFAILED?$CIhr?$CJ?$AA@
  0054b	e8 00 00 00 00	 call	 __assert
  00550	83 c4 0c	 add	 esp, 12			; 0000000cH
$L85192:

; 287  : 
; 288  : 				memcpy(pVerts, fvfVerts, sizeof(COLOREDVERTEX) * 8) ;

  00553	68 e0 00 00 00	 push	 224			; 000000e0H
  00558	8d 85 50 fe ff
	ff		 lea	 eax, DWORD PTR _fvfVerts$85054[ebp]
  0055e	50		 push	 eax
  0055f	8b 8d 44 fe ff
	ff		 mov	 ecx, DWORD PTR _pVerts$85064[ebp]
  00565	51		 push	 ecx
  00566	e8 00 00 00 00	 call	 _memcpy
  0056b	83 c4 0c	 add	 esp, 12			; 0000000cH

; 289  : 				m_dwMem += sizeof(COLOREDVERTEX) * 8 ;

  0056e	8b 45 f8	 mov	 eax, DWORD PTR _this$[ebp]
  00571	8b 08		 mov	 ecx, DWORD PTR [eax]
  00573	81 c1 e0 00 00
	00		 add	 ecx, 224		; 000000e0H
  00579	8b 55 f8	 mov	 edx, DWORD PTR _this$[ebp]
  0057c	89 0a		 mov	 DWORD PTR [edx], ecx

; 290  : 				m_pVB->Unlock() ;

  0057e	8b 45 f8	 mov	 eax, DWORD PTR _this$[ebp]
  00581	8b 88 80 81 00
	00		 mov	 ecx, DWORD PTR [eax+33152]
  00587	8b 55 f8	 mov	 edx, DWORD PTR _this$[ebp]
  0058a	8b 82 80 81 00
	00		 mov	 eax, DWORD PTR [edx+33152]
  00590	8b 09		 mov	 ecx, DWORD PTR [ecx]
  00592	8b f4		 mov	 esi, esp
  00594	50		 push	 eax
  00595	ff 51 30	 call	 DWORD PTR [ecx+48]
  00598	3b f4		 cmp	 esi, esp
  0059a	e8 00 00 00 00	 call	 __RTC_CheckEsp

; 291  : 
; 292  : 			// render
; 293  : 				LPDIRECT3DVERTEXBUFFER8 pVB ;
; 294  : 				LPDIRECT3DINDEXBUFFER8 pIB ;
; 295  : 				
; 296  : 				pDev->SetRenderState(D3DRS_LIGHTING, FALSE) ;

  0059f	8b f4		 mov	 esi, esp
  005a1	6a 00		 push	 0
  005a3	68 89 00 00 00	 push	 137			; 00000089H
  005a8	8b 45 08	 mov	 eax, DWORD PTR _pDev$[ebp]
  005ab	8b 08		 mov	 ecx, DWORD PTR [eax]
  005ad	8b 55 08	 mov	 edx, DWORD PTR _pDev$[ebp]
  005b0	52		 push	 edx
  005b1	ff 91 c8 00 00
	00		 call	 DWORD PTR [ecx+200]
  005b7	3b f4		 cmp	 esi, esp
  005b9	e8 00 00 00 00	 call	 __RTC_CheckEsp

; 297  : 				pDev->SetRenderState(D3DRS_CULLMODE, D3DCULL_NONE) ;

  005be	8b f4		 mov	 esi, esp
  005c0	6a 01		 push	 1
  005c2	6a 16		 push	 22			; 00000016H
  005c4	8b 45 08	 mov	 eax, DWORD PTR _pDev$[ebp]
  005c7	8b 08		 mov	 ecx, DWORD PTR [eax]
  005c9	8b 55 08	 mov	 edx, DWORD PTR _pDev$[ebp]
  005cc	52		 push	 edx
  005cd	ff 91 c8 00 00
	00		 call	 DWORD PTR [ecx+200]
  005d3	3b f4		 cmp	 esi, esp
  005d5	e8 00 00 00 00	 call	 __RTC_CheckEsp

; 298  : 				pDev->SetRenderState(D3DRS_ALPHABLENDENABLE, TRUE) ;

  005da	8b f4		 mov	 esi, esp
  005dc	6a 01		 push	 1
  005de	6a 1b		 push	 27			; 0000001bH
  005e0	8b 45 08	 mov	 eax, DWORD PTR _pDev$[ebp]
  005e3	8b 08		 mov	 ecx, DWORD PTR [eax]
  005e5	8b 55 08	 mov	 edx, DWORD PTR _pDev$[ebp]
  005e8	52		 push	 edx
  005e9	ff 91 c8 00 00
	00		 call	 DWORD PTR [ecx+200]
  005ef	3b f4		 cmp	 esi, esp
  005f1	e8 00 00 00 00	 call	 __RTC_CheckEsp

; 299  : 				pDev->SetRenderState(D3DRS_FILLMODE, D3DFILL_SOLID) ;

  005f6	8b f4		 mov	 esi, esp
  005f8	6a 03		 push	 3
  005fa	6a 08		 push	 8
  005fc	8b 45 08	 mov	 eax, DWORD PTR _pDev$[ebp]
  005ff	8b 08		 mov	 ecx, DWORD PTR [eax]
  00601	8b 55 08	 mov	 edx, DWORD PTR _pDev$[ebp]
  00604	52		 push	 edx
  00605	ff 91 c8 00 00
	00		 call	 DWORD PTR [ecx+200]
  0060b	3b f4		 cmp	 esi, esp
  0060d	e8 00 00 00 00	 call	 __RTC_CheckEsp

; 300  : 
; 301  : 				if (pmatWorld)

  00612	83 7d 10 00	 cmp	 DWORD PTR _pmatWorld$[ebp], 0
  00616	74 21		 je	 SHORT $L85072

; 302  : 					pDev->SetTransform(D3DTS_WORLD, (D3DMATRIX*)pmatWorld) ;

  00618	8b f4		 mov	 esi, esp
  0061a	8b 45 10	 mov	 eax, DWORD PTR _pmatWorld$[ebp]
  0061d	50		 push	 eax
  0061e	68 00 01 00 00	 push	 256			; 00000100H
  00623	8b 4d 08	 mov	 ecx, DWORD PTR _pDev$[ebp]
  00626	8b 11		 mov	 edx, DWORD PTR [ecx]
  00628	8b 45 08	 mov	 eax, DWORD PTR _pDev$[ebp]
  0062b	50		 push	 eax
  0062c	ff 92 94 00 00
	00		 call	 DWORD PTR [edx+148]
  00632	3b f4		 cmp	 esi, esp
  00634	e8 00 00 00 00	 call	 __RTC_CheckEsp
$L85072:

; 303  : 
; 304  : 				pVB = m_pVB ;

  00639	8b 45 f8	 mov	 eax, DWORD PTR _this$[ebp]
  0063c	8b 88 80 81 00
	00		 mov	 ecx, DWORD PTR [eax+33152]
  00642	89 8d 38 fe ff
	ff		 mov	 DWORD PTR _pVB$85070[ebp], ecx

; 305  : 				pIB = m_pIB ;

  00648	8b 45 f8	 mov	 eax, DWORD PTR _this$[ebp]
  0064b	8b 88 84 81 00
	00		 mov	 ecx, DWORD PTR [eax+33156]
  00651	89 8d 2c fe ff
	ff		 mov	 DWORD PTR _pIB$85071[ebp], ecx

; 306  : 
; 307  : 				pDev->SetStreamSource(0, pVB, sizeof(COLOREDVERTEX)) ;

  00657	8b f4		 mov	 esi, esp
  00659	6a 1c		 push	 28			; 0000001cH
  0065b	8b 85 38 fe ff
	ff		 mov	 eax, DWORD PTR _pVB$85070[ebp]
  00661	50		 push	 eax
  00662	6a 00		 push	 0
  00664	8b 4d 08	 mov	 ecx, DWORD PTR _pDev$[ebp]
  00667	8b 11		 mov	 edx, DWORD PTR [ecx]
  00669	8b 45 08	 mov	 eax, DWORD PTR _pDev$[ebp]
  0066c	50		 push	 eax
  0066d	ff 92 4c 01 00
	00		 call	 DWORD PTR [edx+332]
  00673	3b f4		 cmp	 esi, esp
  00675	e8 00 00 00 00	 call	 __RTC_CheckEsp

; 308  : 				pDev->SetIndices(pIB, 0) ;

  0067a	8b f4		 mov	 esi, esp
  0067c	6a 00		 push	 0
  0067e	8b 85 2c fe ff
	ff		 mov	 eax, DWORD PTR _pIB$85071[ebp]
  00684	50		 push	 eax
  00685	8b 4d 08	 mov	 ecx, DWORD PTR _pDev$[ebp]
  00688	8b 11		 mov	 edx, DWORD PTR [ecx]
  0068a	8b 45 08	 mov	 eax, DWORD PTR _pDev$[ebp]
  0068d	50		 push	 eax
  0068e	ff 92 54 01 00
	00		 call	 DWORD PTR [edx+340]
  00694	3b f4		 cmp	 esi, esp
  00696	e8 00 00 00 00	 call	 __RTC_CheckEsp

; 309  : 				pDev->SetVertexShader(MYFVF_COLOREDVERTEX) ;

  0069b	8b f4		 mov	 esi, esp
  0069d	68 c2 01 00 00	 push	 450			; 000001c2H
  006a2	8b 45 08	 mov	 eax, DWORD PTR _pDev$[ebp]
  006a5	8b 08		 mov	 ecx, DWORD PTR [eax]
  006a7	8b 55 08	 mov	 edx, DWORD PTR _pDev$[ebp]
  006aa	52		 push	 edx
  006ab	ff 91 30 01 00
	00		 call	 DWORD PTR [ecx+304]
  006b1	3b f4		 cmp	 esi, esp
  006b3	e8 00 00 00 00	 call	 __RTC_CheckEsp

; 310  : 				pDev->SetTexture(0, NULL) ;

  006b8	8b f4		 mov	 esi, esp
  006ba	6a 00		 push	 0
  006bc	6a 00		 push	 0
  006be	8b 45 08	 mov	 eax, DWORD PTR _pDev$[ebp]
  006c1	8b 08		 mov	 ecx, DWORD PTR [eax]
  006c3	8b 55 08	 mov	 edx, DWORD PTR _pDev$[ebp]
  006c6	52		 push	 edx
  006c7	ff 91 f4 00 00
	00		 call	 DWORD PTR [ecx+244]
  006cd	3b f4		 cmp	 esi, esp
  006cf	e8 00 00 00 00	 call	 __RTC_CheckEsp

; 311  : 				pDev->SetMaterial(&m_Mtrl) ;

  006d4	8b 45 f8	 mov	 eax, DWORD PTR _this$[ebp]
  006d7	05 3c 81 00 00	 add	 eax, 33084		; 0000813cH
  006dc	8b f4		 mov	 esi, esp
  006de	50		 push	 eax
  006df	8b 4d 08	 mov	 ecx, DWORD PTR _pDev$[ebp]
  006e2	8b 11		 mov	 edx, DWORD PTR [ecx]
  006e4	8b 45 08	 mov	 eax, DWORD PTR _pDev$[ebp]
  006e7	50		 push	 eax
  006e8	ff 92 a8 00 00
	00		 call	 DWORD PTR [edx+168]
  006ee	3b f4		 cmp	 esi, esp
  006f0	e8 00 00 00 00	 call	 __RTC_CheckEsp

; 312  : 
; 313  : 				SetTextureColorStage(pDev, 0, D3DTA_CURRENT, D3DTOP_SELECTARG1,	D3DTA_CURRENT)

  006f5	8b f4		 mov	 esi, esp
  006f7	6a 02		 push	 2
  006f9	6a 01		 push	 1
  006fb	6a 00		 push	 0
  006fd	8b 45 08	 mov	 eax, DWORD PTR _pDev$[ebp]
  00700	8b 08		 mov	 ecx, DWORD PTR [eax]
  00702	8b 55 08	 mov	 edx, DWORD PTR _pDev$[ebp]
  00705	52		 push	 edx
  00706	ff 91 fc 00 00
	00		 call	 DWORD PTR [ecx+252]
  0070c	3b f4		 cmp	 esi, esp
  0070e	e8 00 00 00 00	 call	 __RTC_CheckEsp
  00713	8b f4		 mov	 esi, esp
  00715	6a 01		 push	 1
  00717	6a 02		 push	 2
  00719	6a 00		 push	 0
  0071b	8b 45 08	 mov	 eax, DWORD PTR _pDev$[ebp]
  0071e	8b 08		 mov	 ecx, DWORD PTR [eax]
  00720	8b 55 08	 mov	 edx, DWORD PTR _pDev$[ebp]
  00723	52		 push	 edx
  00724	ff 91 fc 00 00
	00		 call	 DWORD PTR [ecx+252]
  0072a	3b f4		 cmp	 esi, esp
  0072c	e8 00 00 00 00	 call	 __RTC_CheckEsp
  00731	8b f4		 mov	 esi, esp
  00733	6a 01		 push	 1
  00735	6a 03		 push	 3
  00737	6a 00		 push	 0
  00739	8b 45 08	 mov	 eax, DWORD PTR _pDev$[ebp]
  0073c	8b 08		 mov	 ecx, DWORD PTR [eax]
  0073e	8b 55 08	 mov	 edx, DWORD PTR _pDev$[ebp]
  00741	52		 push	 edx
  00742	ff 91 fc 00 00
	00		 call	 DWORD PTR [ecx+252]
  00748	3b f4		 cmp	 esi, esp
  0074a	e8 00 00 00 00	 call	 __RTC_CheckEsp

; 314  : 				SetTextureColorStage(pDev, 1, D3DTA_CURRENT, D3DTOP_DISABLE,	D3DTA_CURRENT)

  0074f	8b f4		 mov	 esi, esp
  00751	6a 01		 push	 1
  00753	6a 01		 push	 1
  00755	6a 01		 push	 1
  00757	8b 45 08	 mov	 eax, DWORD PTR _pDev$[ebp]
  0075a	8b 08		 mov	 ecx, DWORD PTR [eax]
  0075c	8b 55 08	 mov	 edx, DWORD PTR _pDev$[ebp]
  0075f	52		 push	 edx
  00760	ff 91 fc 00 00
	00		 call	 DWORD PTR [ecx+252]
  00766	3b f4		 cmp	 esi, esp
  00768	e8 00 00 00 00	 call	 __RTC_CheckEsp
  0076d	8b f4		 mov	 esi, esp
  0076f	6a 01		 push	 1
  00771	6a 02		 push	 2
  00773	6a 01		 push	 1
  00775	8b 45 08	 mov	 eax, DWORD PTR _pDev$[ebp]
  00778	8b 08		 mov	 ecx, DWORD PTR [eax]
  0077a	8b 55 08	 mov	 edx, DWORD PTR _pDev$[ebp]
  0077d	52		 push	 edx
  0077e	ff 91 fc 00 00
	00		 call	 DWORD PTR [ecx+252]
  00784	3b f4		 cmp	 esi, esp
  00786	e8 00 00 00 00	 call	 __RTC_CheckEsp
  0078b	8b f4		 mov	 esi, esp
  0078d	6a 01		 push	 1
  0078f	6a 03		 push	 3
  00791	6a 01		 push	 1
  00793	8b 45 08	 mov	 eax, DWORD PTR _pDev$[ebp]
  00796	8b 08		 mov	 ecx, DWORD PTR [eax]
  00798	8b 55 08	 mov	 edx, DWORD PTR _pDev$[ebp]
  0079b	52		 push	 edx
  0079c	ff 91 fc 00 00
	00		 call	 DWORD PTR [ecx+252]
  007a2	3b f4		 cmp	 esi, esp
  007a4	e8 00 00 00 00	 call	 __RTC_CheckEsp

; 315  : 				
; 316  : 				pDev->DrawIndexedPrimitive(D3DPT_TRIANGLELIST, 0, 8, 0, 12) ;

  007a9	8b f4		 mov	 esi, esp
  007ab	6a 0c		 push	 12			; 0000000cH
  007ad	6a 00		 push	 0
  007af	6a 08		 push	 8
  007b1	6a 00		 push	 0
  007b3	6a 04		 push	 4
  007b5	8b 45 08	 mov	 eax, DWORD PTR _pDev$[ebp]
  007b8	8b 08		 mov	 ecx, DWORD PTR [eax]
  007ba	8b 55 08	 mov	 edx, DWORD PTR _pDev$[ebp]
  007bd	52		 push	 edx
  007be	ff 91 1c 01 00
	00		 call	 DWORD PTR [ecx+284]
  007c4	3b f4		 cmp	 esi, esp
  007c6	e8 00 00 00 00	 call	 __RTC_CheckEsp

; 317  : 				
; 318  : 				*pulPolyCount += 12 ;

  007cb	8b 45 0c	 mov	 eax, DWORD PTR _pulPolyCount$[ebp]
  007ce	8b 08		 mov	 ecx, DWORD PTR [eax]
  007d0	83 c1 0c	 add	 ecx, 12			; 0000000cH
  007d3	8b 55 0c	 mov	 edx, DWORD PTR _pulPolyCount$[ebp]
  007d6	89 0a		 mov	 DWORD PTR [edx], ecx
$L85037:

; 319  : 			}
; 320  : 		}

  007d8	e9 5f f8 ff ff	 jmp	 $L85035
$L85036:

; 321  : 
; 322  : 		return S_OK ;

  007dd	33 c0		 xor	 eax, eax

; 323  : 	}

  007df	52		 push	 edx
  007e0	8b cd		 mov	 ecx, ebp
  007e2	50		 push	 eax
  007e3	8d 15 00 00 00
	00		 lea	 edx, DWORD PTR $L85202
  007e9	e8 00 00 00 00	 call	 @_RTC_CheckStackVars@8
  007ee	58		 pop	 eax
  007ef	5a		 pop	 edx
  007f0	5f		 pop	 edi
  007f1	5e		 pop	 esi
  007f2	5b		 pop	 ebx
  007f3	81 c4 30 04 00
	00		 add	 esp, 1072		; 00000430H
  007f9	3b ec		 cmp	 ebp, esp
  007fb	e8 00 00 00 00	 call	 __RTC_CheckEsp
  00800	8b e5		 mov	 esp, ebp
  00802	5d		 pop	 ebp
  00803	c2 10 00	 ret	 16			; 00000010H
$L85202:
  00806	03 00 00 00	 DD	 3
  0080a	00 00 00 00	 DD	 $L85201
$L85201:
  0080e	50 ff ff ff	 DD	 -176			; ffffff50H
  00812	60 00 00 00	 DD	 96			; 00000060H
  00816	00 00 00 00	 DD	 $L85198
  0081a	50 fe ff ff	 DD	 -432			; fffffe50H
  0081e	e0 00 00 00	 DD	 224			; 000000e0H
  00822	00 00 00 00	 DD	 $L85199
  00826	44 fe ff ff	 DD	 -444			; fffffe44H
  0082a	04 00 00 00	 DD	 4
  0082e	00 00 00 00	 DD	 $L85200
$L85200:
  00832	70		 DB	 112			; 00000070H
  00833	56		 DB	 86			; 00000056H
  00834	65		 DB	 101			; 00000065H
  00835	72		 DB	 114			; 00000072H
  00836	74		 DB	 116			; 00000074H
  00837	73		 DB	 115			; 00000073H
  00838	00		 DB	 0
$L85199:
  00839	66		 DB	 102			; 00000066H
  0083a	76		 DB	 118			; 00000076H
  0083b	66		 DB	 102			; 00000066H
  0083c	56		 DB	 86			; 00000056H
  0083d	65		 DB	 101			; 00000065H
  0083e	72		 DB	 114			; 00000072H
  0083f	74		 DB	 116			; 00000074H
  00840	73		 DB	 115			; 00000073H
  00841	00		 DB	 0
$L85198:
  00842	76		 DB	 118			; 00000076H
  00843	56		 DB	 86			; 00000056H
  00844	65		 DB	 101			; 00000065H
  00845	72		 DB	 114			; 00000072H
  00846	74		 DB	 116			; 00000074H
  00847	73		 DB	 115			; 00000073H
  00848	00		 DB	 0
?Render@CQuadtree@@QAEJPAUIDirect3DDevice8@@PAKPAUD3DXMATRIX@@H@Z ENDP ; CQuadtree::Render
; Function compile flags: /Odt /RTCsu /ZI
; File c:\dxsdk\include\d3dx8math.h
_TEXT	ENDS
;	COMDAT ??0D3DXVECTOR3@@QAE@XZ
_TEXT	SEGMENT
_this$ = -8
??0D3DXVECTOR3@@QAE@XZ PROC NEAR			; D3DXVECTOR3::D3DXVECTOR3, COMDAT
; _this$ = ecx

; 89   :     D3DXVECTOR3() {};

  00000	55		 push	 ebp
  00001	8b ec		 mov	 ebp, esp
  00003	81 ec cc 00 00
	00		 sub	 esp, 204		; 000000ccH
  00009	53		 push	 ebx
  0000a	56		 push	 esi
  0000b	57		 push	 edi
  0000c	51		 push	 ecx
  0000d	8d bd 34 ff ff
	ff		 lea	 edi, DWORD PTR [ebp-204]
  00013	b9 33 00 00 00	 mov	 ecx, 51			; 00000033H
  00018	b8 cc cc cc cc	 mov	 eax, -858993460		; ccccccccH
  0001d	f3 ab		 rep stosd
  0001f	59		 pop	 ecx
  00020	89 4d f8	 mov	 DWORD PTR _this$[ebp], ecx
  00023	8b 45 f8	 mov	 eax, DWORD PTR _this$[ebp]
  00026	5f		 pop	 edi
  00027	5e		 pop	 esi
  00028	5b		 pop	 ebx
  00029	8b e5		 mov	 esp, ebp
  0002b	5d		 pop	 ebp
  0002c	c3		 ret	 0
??0D3DXVECTOR3@@QAE@XZ ENDP				; D3DXVECTOR3::D3DXVECTOR3
; Function compile flags: /Odt /RTCsu /ZI
; File c:\dxsdk\include\d3dx8math.inl
_TEXT	ENDS
;	COMDAT ??0D3DXVECTOR3@@QAE@MMM@Z
_TEXT	SEGMENT
_this$ = -8
_fx$ = 8
_fy$ = 12
_fz$ = 16
??0D3DXVECTOR3@@QAE@MMM@Z PROC NEAR			; D3DXVECTOR3::D3DXVECTOR3, COMDAT
; _this$ = ecx

; 179  : {

  00000	55		 push	 ebp
  00001	8b ec		 mov	 ebp, esp
  00003	81 ec cc 00 00
	00		 sub	 esp, 204		; 000000ccH
  00009	53		 push	 ebx
  0000a	56		 push	 esi
  0000b	57		 push	 edi
  0000c	51		 push	 ecx
  0000d	8d bd 34 ff ff
	ff		 lea	 edi, DWORD PTR [ebp-204]
  00013	b9 33 00 00 00	 mov	 ecx, 51			; 00000033H
  00018	b8 cc cc cc cc	 mov	 eax, -858993460		; ccccccccH
  0001d	f3 ab		 rep stosd
  0001f	59		 pop	 ecx
  00020	89 4d f8	 mov	 DWORD PTR _this$[ebp], ecx

; 180  :     x = fx;

  00023	8b 45 f8	 mov	 eax, DWORD PTR _this$[ebp]
  00026	8b 4d 08	 mov	 ecx, DWORD PTR _fx$[ebp]
  00029	89 08		 mov	 DWORD PTR [eax], ecx

; 181  :     y = fy;

  0002b	8b 45 f8	 mov	 eax, DWORD PTR _this$[ebp]
  0002e	8b 4d 0c	 mov	 ecx, DWORD PTR _fy$[ebp]
  00031	89 48 04	 mov	 DWORD PTR [eax+4], ecx

; 182  :     z = fz;

  00034	8b 45 f8	 mov	 eax, DWORD PTR _this$[ebp]
  00037	8b 4d 10	 mov	 ecx, DWORD PTR _fz$[ebp]
  0003a	89 48 08	 mov	 DWORD PTR [eax+8], ecx

; 183  : }

  0003d	8b 45 f8	 mov	 eax, DWORD PTR _this$[ebp]
  00040	5f		 pop	 edi
  00041	5e		 pop	 esi
  00042	5b		 pop	 ebx
  00043	8b e5		 mov	 esp, ebp
  00045	5d		 pop	 ebp
  00046	c2 0c 00	 ret	 12			; 0000000cH
??0D3DXVECTOR3@@QAE@MMM@Z ENDP				; D3DXVECTOR3::D3DXVECTOR3
; Function compile flags: /Odt /RTCsu /ZI
; File c:\documents and settings\dom\my documents\_dev\ae\xlr8a\x7g\x7_primitives.h
_TEXT	ENDS
;	COMDAT ??0COLOREDVERTEX@@QAE@XZ
_TEXT	SEGMENT
_this$ = -8
??0COLOREDVERTEX@@QAE@XZ PROC NEAR			; COLOREDVERTEX::COLOREDVERTEX, COMDAT
; _this$ = ecx

; 222  :     COLOREDVERTEX() {} ;

  00000	55		 push	 ebp
  00001	8b ec		 mov	 ebp, esp
  00003	81 ec cc 00 00
	00		 sub	 esp, 204		; 000000ccH
  00009	53		 push	 ebx
  0000a	56		 push	 esi
  0000b	57		 push	 edi
  0000c	51		 push	 ecx
  0000d	8d bd 34 ff ff
	ff		 lea	 edi, DWORD PTR [ebp-204]
  00013	b9 33 00 00 00	 mov	 ecx, 51			; 00000033H
  00018	b8 cc cc cc cc	 mov	 eax, -858993460		; ccccccccH
  0001d	f3 ab		 rep stosd
  0001f	59		 pop	 ecx
  00020	89 4d f8	 mov	 DWORD PTR _this$[ebp], ecx
  00023	8b 45 f8	 mov	 eax, DWORD PTR _this$[ebp]
  00026	5f		 pop	 edi
  00027	5e		 pop	 esi
  00028	5b		 pop	 ebx
  00029	8b e5		 mov	 esp, ebp
  0002b	5d		 pop	 ebp
  0002c	c3		 ret	 0
??0COLOREDVERTEX@@QAE@XZ ENDP				; COLOREDVERTEX::COLOREDVERTEX
; Function compile flags: /Odt /RTCsu /ZI
_TEXT	ENDS
;	COMDAT ??0COLOREDVERTEX@@QAE@MMMMMKK@Z
_TEXT	SEGMENT
_this$ = -8
___x$ = 8
___y$ = 12
___z$ = 16
___tu1$ = 20
___tv1$ = 24
_c$ = 28
_s$ = 32
??0COLOREDVERTEX@@QAE@MMMMMKK@Z PROC NEAR		; COLOREDVERTEX::COLOREDVERTEX, COMDAT
; _this$ = ecx

; 229  :     COLOREDVERTEX(FLOAT __x, FLOAT __y, FLOAT __z, FLOAT __tu1, FLOAT __tv1, DWORD c, DWORD s)

  00000	55		 push	 ebp
  00001	8b ec		 mov	 ebp, esp
  00003	81 ec cc 00 00
	00		 sub	 esp, 204		; 000000ccH
  00009	53		 push	 ebx
  0000a	56		 push	 esi
  0000b	57		 push	 edi
  0000c	51		 push	 ecx
  0000d	8d bd 34 ff ff
	ff		 lea	 edi, DWORD PTR [ebp-204]
  00013	b9 33 00 00 00	 mov	 ecx, 51			; 00000033H
  00018	b8 cc cc cc cc	 mov	 eax, -858993460		; ccccccccH
  0001d	f3 ab		 rep stosd
  0001f	59		 pop	 ecx
  00020	89 4d f8	 mov	 DWORD PTR _this$[ebp], ecx

; 230  : 	{
; 231  : 		x = __x; y = __y; z = __z;

  00023	8b 45 f8	 mov	 eax, DWORD PTR _this$[ebp]
  00026	8b 4d 08	 mov	 ecx, DWORD PTR ___x$[ebp]
  00029	89 08		 mov	 DWORD PTR [eax], ecx
  0002b	8b 45 f8	 mov	 eax, DWORD PTR _this$[ebp]
  0002e	8b 4d 0c	 mov	 ecx, DWORD PTR ___y$[ebp]
  00031	89 48 04	 mov	 DWORD PTR [eax+4], ecx
  00034	8b 45 f8	 mov	 eax, DWORD PTR _this$[ebp]
  00037	8b 4d 10	 mov	 ecx, DWORD PTR ___z$[ebp]
  0003a	89 48 08	 mov	 DWORD PTR [eax+8], ecx

; 232  : 		tu1 = __tu1 ; tv1 = __tv1 ;

  0003d	8b 45 f8	 mov	 eax, DWORD PTR _this$[ebp]
  00040	8b 4d 14	 mov	 ecx, DWORD PTR ___tu1$[ebp]
  00043	89 48 14	 mov	 DWORD PTR [eax+20], ecx
  00046	8b 45 f8	 mov	 eax, DWORD PTR _this$[ebp]
  00049	8b 4d 18	 mov	 ecx, DWORD PTR ___tv1$[ebp]
  0004c	89 48 18	 mov	 DWORD PTR [eax+24], ecx

; 233  : 		color = c ;

  0004f	8b 45 f8	 mov	 eax, DWORD PTR _this$[ebp]
  00052	8b 4d 1c	 mov	 ecx, DWORD PTR _c$[ebp]
  00055	89 48 0c	 mov	 DWORD PTR [eax+12], ecx

; 234  : 		specular = s ;

  00058	8b 45 f8	 mov	 eax, DWORD PTR _this$[ebp]
  0005b	8b 4d 20	 mov	 ecx, DWORD PTR _s$[ebp]
  0005e	89 48 10	 mov	 DWORD PTR [eax+16], ecx

; 235  : 	}

  00061	8b 45 f8	 mov	 eax, DWORD PTR _this$[ebp]
  00064	5f		 pop	 edi
  00065	5e		 pop	 esi
  00066	5b		 pop	 ebx
  00067	8b e5		 mov	 esp, ebp
  00069	5d		 pop	 ebp
  0006a	c2 1c 00	 ret	 28			; 0000001cH
??0COLOREDVERTEX@@QAE@MMMMMKK@Z ENDP			; COLOREDVERTEX::COLOREDVERTEX
_TEXT	ENDS
END
