; Listing generated by Microsoft (R) Optimizing Compiler Version 13.00.9466 

	TITLE	CRace.cpp
	.386P
include listing.inc
if @Version gt 510
.model FLAT
else
_TEXT	SEGMENT PARA USE32 PUBLIC 'CODE'
_TEXT	ENDS
_DATA	SEGMENT DWORD USE32 PUBLIC 'DATA'
_DATA	ENDS
CONST	SEGMENT DWORD USE32 PUBLIC 'CONST'
CONST	ENDS
_BSS	SEGMENT DWORD USE32 PUBLIC 'BSS'
_BSS	ENDS
$$SYMBOLS	SEGMENT BYTE USE32 'DEBSYM'
$$SYMBOLS	ENDS
$$TYPES	SEGMENT BYTE USE32 'DEBTYP'
$$TYPES	ENDS
_TLS	SEGMENT DWORD USE32 PUBLIC 'TLS'
_TLS	ENDS
;	COMDAT ??_C@_03ICICOMAL@yes?$AA@
CONST	SEGMENT DWORD USE32 PUBLIC 'CONST'
CONST	ENDS
;	COMDAT ??_C@_02KAJCLHKP@no?$AA@
CONST	SEGMENT DWORD USE32 PUBLIC 'CONST'
CONST	ENDS
;	COMDAT ??_C@_0GI@MLKILFPH@?$CK?$CK?$CK?5Level?5?$CFd?5?$CK?$CK?$CK?6?7Night?$DN?$CFs?6?7dwAm@
CONST	SEGMENT DWORD USE32 PUBLIC 'CONST'
CONST	ENDS
;	COMDAT ??_C@_0EH@BJEPPDK@c?3?2documents?5and?5settings?2dom?2my@
CONST	SEGMENT DWORD USE32 PUBLIC 'CONST'
CONST	ENDS
;	COMDAT ??_C@_09MJFFOGHA@m_pCamera?$AA@
CONST	SEGMENT DWORD USE32 PUBLIC 'CONST'
CONST	ENDS
;	COMDAT ??_C@_0L@EFHMCMMH@m_pTerrain?$AA@
CONST	SEGMENT DWORD USE32 PUBLIC 'CONST'
CONST	ENDS
;	COMDAT ??_C@_08NOBLGMBD@Terrain2?$AA@
CONST	SEGMENT DWORD USE32 PUBLIC 'CONST'
CONST	ENDS
;	COMDAT ??_C@_08PFDGDPNA@Terrain1?$AA@
CONST	SEGMENT DWORD USE32 PUBLIC 'CONST'
CONST	ENDS
;	COMDAT ??_C@_06OPDPBBHL@m_pSky?$AA@
CONST	SEGMENT DWORD USE32 PUBLIC 'CONST'
CONST	ENDS
;	COMDAT ??_C@_08EAFCEPOP@BlackSky?$AA@
CONST	SEGMENT DWORD USE32 PUBLIC 'CONST'
CONST	ENDS
;	COMDAT ??_C@_08EKLLOJMI@m_pOcean?$AA@
CONST	SEGMENT DWORD USE32 PUBLIC 'CONST'
CONST	ENDS
;	COMDAT ??_C@_0L@ENKDGPHK@m_pFighter?$AA@
CONST	SEGMENT DWORD USE32 PUBLIC 'CONST'
CONST	ENDS
;	COMDAT ??_C@_04CPEBAOCH@Bots?$AA@
CONST	SEGMENT DWORD USE32 PUBLIC 'CONST'
CONST	ENDS
;	COMDAT ??_C@_08FNJLKAEH@LEVEL?5?$CFd?$AA@
CONST	SEGMENT DWORD USE32 PUBLIC 'CONST'
CONST	ENDS
;	COMDAT ??_C@_07OBCONPMM@m?3ss?3mm?$AA@
CONST	SEGMENT DWORD USE32 PUBLIC 'CONST'
CONST	ENDS
;	COMDAT ??_C@_07ILHLNEN@pNewBot?$AA@
CONST	SEGMENT DWORD USE32 PUBLIC 'CONST'
CONST	ENDS
;	COMDAT ??_C@_0BC@MAFGNML@pNewBot?9?$DOpFighter?$AA@
CONST	SEGMENT DWORD USE32 PUBLIC 'CONST'
CONST	ENDS
;	COMDAT ??_C@_0M@NKNCPJJD@?$CBFAILED?$CIhr?$CJ?$AA@
CONST	SEGMENT DWORD USE32 PUBLIC 'CONST'
CONST	ENDS
;	COMDAT ??_C@_0DP@CGFKKDCM@?$CK?$CK?$CKFighter?5position?3?5?$CF0?41f?0?5?$CF0?41@
CONST	SEGMENT DWORD USE32 PUBLIC 'CONST'
CONST	ENDS
;	COMDAT ??_C@_07BJBAAHKG@m_pBots?$AA@
CONST	SEGMENT DWORD USE32 PUBLIC 'CONST'
CONST	ENDS
;	COMDAT ??_C@_0DL@IDIEINAG@?$CK?$CK?$CKBot?5position?3?5?$CF0?41f?0?5?$CF0?41f?0?5?$CF@
CONST	SEGMENT DWORD USE32 PUBLIC 'CONST'
CONST	ENDS
;	COMDAT ??_C@_04DLGIGBAP@FM?3?5?$AA@
CONST	SEGMENT DWORD USE32 PUBLIC 'CONST'
CONST	ENDS
;	COMDAT ??_C@_05DIAFAFCL@?$CF02d?5?$AA@
CONST	SEGMENT DWORD USE32 PUBLIC 'CONST'
CONST	ENDS
;	COMDAT ??_C@_07JFCLMMGD@?$FL?$CF02d?$FN?5?$AA@
CONST	SEGMENT DWORD USE32 PUBLIC 'CONST'
CONST	ENDS
;	COMDAT ??_C@_01EEMJAFIK@?6?$AA@
CONST	SEGMENT DWORD USE32 PUBLIC 'CONST'
CONST	ENDS
;	COMDAT ??_C@_0N@OMCPJJIN@GET?5?$CFd?5ITEMS?$AA@
CONST	SEGMENT DWORD USE32 PUBLIC 'CONST'
CONST	ENDS
;	COMDAT ??_C@_03CPCBJPHJ@GO?$CB?$AA@
CONST	SEGMENT DWORD USE32 PUBLIC 'CONST'
CONST	ENDS
;	COMDAT ??_C@_05GEPBPPAJ@?$FL?$CFd?$FN?5?$AA@
CONST	SEGMENT DWORD USE32 PUBLIC 'CONST'
CONST	ENDS
;	COMDAT ??_C@_03JDANDILB@?$CFd?5?$AA@
CONST	SEGMENT DWORD USE32 PUBLIC 'CONST'
CONST	ENDS
;	COMDAT ??_C@_06HHKMCLEN@?$CF02?40f?$AA@
CONST	SEGMENT DWORD USE32 PUBLIC 'CONST'
CONST	ENDS
;	COMDAT ??_C@_0P@FBNAFMPM@?$CF01d?3?$CF02d?4?$CFc?$CFc?$AA@
CONST	SEGMENT DWORD USE32 PUBLIC 'CONST'
CONST	ENDS
;	COMDAT _IsEqualGUID
_TEXT	SEGMENT PARA USE32 PUBLIC 'CODE'
_TEXT	ENDS
;	COMDAT _==
_TEXT	SEGMENT PARA USE32 PUBLIC 'CODE'
_TEXT	ENDS
;	COMDAT _floorf
_TEXT	SEGMENT PARA USE32 PUBLIC 'CODE'
_TEXT	ENDS
;	COMDAT _fmodf
_TEXT	SEGMENT PARA USE32 PUBLIC 'CODE'
_TEXT	ENDS
;	COMDAT _sqrtf
_TEXT	SEGMENT PARA USE32 PUBLIC 'CODE'
_TEXT	ENDS
;	COMDAT ??0D3DXVECTOR3@@QAE@XZ
_TEXT	SEGMENT PARA USE32 PUBLIC 'CODE'
_TEXT	ENDS
;	COMDAT ??0D3DXMATRIX@@QAE@XZ
_TEXT	SEGMENT PARA USE32 PUBLIC 'CODE'
_TEXT	ENDS
;	COMDAT ??0D3DXQUATERNION@@QAE@XZ
_TEXT	SEGMENT PARA USE32 PUBLIC 'CODE'
_TEXT	ENDS
;	COMDAT ??0D3DXCOLOR@@QAE@XZ
_TEXT	SEGMENT PARA USE32 PUBLIC 'CODE'
_TEXT	ENDS
;	COMDAT ??0D3DXVECTOR2@@QAE@MM@Z
_TEXT	SEGMENT PARA USE32 PUBLIC 'CODE'
_TEXT	ENDS
;	COMDAT ??0D3DXVECTOR3@@QAE@ABU_D3DVECTOR@@@Z
_TEXT	SEGMENT PARA USE32 PUBLIC 'CODE'
_TEXT	ENDS
;	COMDAT ??0D3DXVECTOR3@@QAE@MMM@Z
_TEXT	SEGMENT PARA USE32 PUBLIC 'CODE'
_TEXT	ENDS
;	COMDAT ??HD3DXVECTOR3@@QBE?AU0@ABU0@@Z
_TEXT	SEGMENT PARA USE32 PUBLIC 'CODE'
_TEXT	ENDS
;	COMDAT ??GD3DXVECTOR3@@QBE?AU0@ABU0@@Z
_TEXT	SEGMENT PARA USE32 PUBLIC 'CODE'
_TEXT	ENDS
;	COMDAT ??KD3DXVECTOR3@@QBE?AU0@M@Z
_TEXT	SEGMENT PARA USE32 PUBLIC 'CODE'
_TEXT	ENDS
;	COMDAT ??0D3DXVECTOR4@@QAE@MMMM@Z
_TEXT	SEGMENT PARA USE32 PUBLIC 'CODE'
_TEXT	ENDS
;	COMDAT ??0D3DXMATRIX@@QAE@PBM@Z
_TEXT	SEGMENT PARA USE32 PUBLIC 'CODE'
_TEXT	ENDS
;	COMDAT ??0D3DXMATRIX@@QAE@ABU_D3DMATRIX@@@Z
_TEXT	SEGMENT PARA USE32 PUBLIC 'CODE'
_TEXT	ENDS
;	COMDAT ??0D3DXMATRIX@@QAE@MMMMMMMMMMMMMMMM@Z
_TEXT	SEGMENT PARA USE32 PUBLIC 'CODE'
_TEXT	ENDS
;	COMDAT ??0D3DXQUATERNION@@QAE@MMMM@Z
_TEXT	SEGMENT PARA USE32 PUBLIC 'CODE'
_TEXT	ENDS
;	COMDAT ??0D3DXPLANE@@QAE@MMMM@Z
_TEXT	SEGMENT PARA USE32 PUBLIC 'CODE'
_TEXT	ENDS
;	COMDAT ??0D3DXCOLOR@@QAE@MMMM@Z
_TEXT	SEGMENT PARA USE32 PUBLIC 'CODE'
_TEXT	ENDS
;	COMDAT ??BD3DXCOLOR@@QBEKXZ
_TEXT	SEGMENT PARA USE32 PUBLIC 'CODE'
_TEXT	ENDS
;	COMDAT ??0CRace@@QAE@PAVCx7@@PAUIDirect3DDevice8@@HMHPAUD3DXCOLOR@@_N3KMHHII@Z
_TEXT	SEGMENT PARA USE32 PUBLIC 'CODE'
_TEXT	ENDS
;	COMDAT ??1CRace@@QAE@XZ
_TEXT	SEGMENT PARA USE32 PUBLIC 'CODE'
_TEXT	ENDS
;	COMDAT ??_GCTerrain@@QAEPAXI@Z
_TEXT	SEGMENT PARA USE32 PUBLIC 'CODE'
_TEXT	ENDS
;	COMDAT ??_GCSky@@QAEPAXI@Z
_TEXT	SEGMENT PARA USE32 PUBLIC 'CODE'
_TEXT	ENDS
;	COMDAT ??_GCOcean@@QAEPAXI@Z
_TEXT	SEGMENT PARA USE32 PUBLIC 'CODE'
_TEXT	ENDS
;	COMDAT ??_GCCamera@@QAEPAXI@Z
_TEXT	SEGMENT PARA USE32 PUBLIC 'CODE'
_TEXT	ENDS
;	COMDAT ??_GCUserFighter@@QAEPAXI@Z
_TEXT	SEGMENT PARA USE32 PUBLIC 'CODE'
_TEXT	ENDS
;	COMDAT ??_GCBotFighter@@QAEPAXI@Z
_TEXT	SEGMENT PARA USE32 PUBLIC 'CODE'
_TEXT	ENDS
;	COMDAT ??_GCScreenOverlay@@QAEPAXI@Z
_TEXT	SEGMENT PARA USE32 PUBLIC 'CODE'
_TEXT	ENDS
;	COMDAT ??_GCHUDText@@QAEPAXI@Z
_TEXT	SEGMENT PARA USE32 PUBLIC 'CODE'
_TEXT	ENDS
;	COMDAT ?AddBot@CRace@@QAEXHPAURENDER_DATA_INFO@CFileRenderObject@@@Z
_TEXT	SEGMENT PARA USE32 PUBLIC 'CODE'
_TEXT	ENDS
;	COMDAT ?EnableHUDs@CRace@@QAEHH@Z
_TEXT	SEGMENT PARA USE32 PUBLIC 'CODE'
_TEXT	ENDS
;	COMDAT ?RestoreDeviceObjects@CRace@@QAEJPAUIDirect3D8@@PAUIDirect3DDevice8@@MPAVCScreenOverlayManager@@PAVCTextures@@@Z
_TEXT	SEGMENT PARA USE32 PUBLIC 'CODE'
_TEXT	ENDS
;	COMDAT ?InvalidateDeviceObjects@CRace@@QAEJPAUIDirect3DDevice8@@@Z
_TEXT	SEGMENT PARA USE32 PUBLIC 'CODE'
_TEXT	ENDS
;	COMDAT ?Render@CRace@@QAEJPAUIDirect3DDevice8@@PAVCTextures@@PAKMMH@Z
_TEXT	SEGMENT PARA USE32 PUBLIC 'CODE'
_TEXT	ENDS
;	COMDAT ?FrameMove@CRace@@QAEJPAUIDirect3DDevice8@@PAVCUserInput@@M@Z
_TEXT	SEGMENT PARA USE32 PUBLIC 'CODE'
_TEXT	ENDS
;	COMDAT ?DetectAndHandleProjectileAgainstAllFighters@CRace@@QAEHPAX0PAPAX@Z
_TEXT	SEGMENT PARA USE32 PUBLIC 'CODE'
_TEXT	ENDS
;	COMDAT ?DetectAndHandleFighterProjectileCollision@CRace@@QAEHPAX0_N@Z
_TEXT	SEGMENT PARA USE32 PUBLIC 'CODE'
_TEXT	ENDS
;	COMDAT ?__LINE__Var@?1??RestoreDeviceObjects@CRace@@QAEJPAUIDirect3D8@@PAUIDirect3DDevice8@@MPAVCScreenOverlayManager@@PAVCTextures@@@Z@4JA
_DATA	SEGMENT DWORD USE32 PUBLIC 'DATA'
_DATA	ENDS
;	COMDAT ?__LINE__Var@?1??AddBot@CRace@@QAEXHPAURENDER_DATA_INFO@CFileRenderObject@@@Z@4JA
_DATA	SEGMENT DWORD USE32 PUBLIC 'DATA'
_DATA	ENDS
;	COMDAT ?__LINE__Var@?1???0CRace@@QAE@PAVCx7@@PAUIDirect3DDevice8@@HMHPAUD3DXCOLOR@@_N3KMHHII@Z@4JA
_DATA	SEGMENT DWORD USE32 PUBLIC 'DATA'
_DATA	ENDS
FLAT	GROUP _DATA, CONST, _BSS
	ASSUME	CS: FLAT, DS: FLAT, SS: FLAT
endif

INCLUDELIB LIBCMTD
INCLUDELIB OLDNAMES

_BSS	SEGMENT
?dwID@?1??AddBot@CRace@@QAEXHPAURENDER_DATA_INFO@CFileRenderObject@@@Z@4KA DD 01H DUP (?) ; `CRace::AddBot'::`2'::dwID
?bDbgTrackBot@?L@??FrameMove@CRace@@QAEJPAUIDirect3DDevice8@@PAVCUserInput@@M@Z@4_NA DB 01H DUP (?) ; `CRace::FrameMove'::`11'::bDbgTrackBot
	ALIGN	4

?nTrackBot@?L@??FrameMove@CRace@@QAEJPAUIDirect3DDevice8@@PAVCUserInput@@M@Z@4HA DD 01H DUP (?) ; `CRace::FrameMove'::`11'::nTrackBot
_BSS	ENDS
PUBLIC	__real@42fa0000
PUBLIC	__real@44fa0000
PUBLIC	__real@40000000
PUBLIC	__real@3ea8f5c3
PUBLIC	__real@3f28f5c3
PUBLIC	__real@41200000
PUBLIC	__real@41a00000
PUBLIC	__real@3ecccccd
PUBLIC	__real@3f19999a
PUBLIC	__real@3f800000
PUBLIC	__real@41000000
PUBLIC	??0D3DXCOLOR@@QAE@XZ				; D3DXCOLOR::D3DXCOLOR
PUBLIC	??0CRace@@QAE@PAVCx7@@PAUIDirect3DDevice8@@HMHPAUD3DXCOLOR@@_N3KMHHII@Z ; CRace::CRace
PUBLIC	?AddBot@CRace@@QAEXHPAURENDER_DATA_INFO@CFileRenderObject@@@Z ; CRace::AddBot
PUBLIC	??_C@_03ICICOMAL@yes?$AA@			; `string'
PUBLIC	??_C@_02KAJCLHKP@no?$AA@			; `string'
PUBLIC	??_C@_0GI@MLKILFPH@?$CK?$CK?$CK?5Level?5?$CFd?5?$CK?$CK?$CK?6?7Night?$DN?$CFs?6?7dwAm@ ; `string'
PUBLIC	?__LINE__Var@?1???0CRace@@QAE@PAVCx7@@PAUIDirect3DDevice8@@HMHPAUD3DXCOLOR@@_N3KMHHII@Z@4JA ; `CRace::CRace'::`2'::__LINE__Var
PUBLIC	??_C@_0EH@BJEPPDK@c?3?2documents?5and?5settings?2dom?2my@ ; `string'
PUBLIC	??_C@_09MJFFOGHA@m_pCamera?$AA@			; `string'
PUBLIC	??_C@_0L@EFHMCMMH@m_pTerrain?$AA@		; `string'
PUBLIC	??_C@_08NOBLGMBD@Terrain2?$AA@			; `string'
PUBLIC	??_C@_08PFDGDPNA@Terrain1?$AA@			; `string'
PUBLIC	??_C@_06OPDPBBHL@m_pSky?$AA@			; `string'
PUBLIC	??_C@_08EAFCEPOP@BlackSky?$AA@			; `string'
PUBLIC	??_C@_08EKLLOJMI@m_pOcean?$AA@			; `string'
PUBLIC	??_C@_0L@ENKDGPHK@m_pFighter?$AA@		; `string'
PUBLIC	??_C@_04CPEBAOCH@Bots?$AA@			; `string'
PUBLIC	??_C@_08FNJLKAEH@LEVEL?5?$CFd?$AA@		; `string'
PUBLIC	??_C@_07OBCONPMM@m?3ss?3mm?$AA@			; `string'
PUBLIC	_sqrtf
PUBLIC	??0D3DXVECTOR3@@QAE@MMM@Z			; D3DXVECTOR3::D3DXVECTOR3
EXTRN	__RTC_InitBase:NEAR
EXTRN	__RTC_Shutdown:NEAR
EXTRN	__RTC_UninitUse:NEAR
EXTRN	___security_cookie:DWORD
EXTRN	@_RTC_CheckStackVars@8:NEAR
EXTRN	@__security_check_cookie@4:NEAR
EXTRN	__RTC_CheckEsp:NEAR
EXTRN	__fltused:NEAR
EXTRN	??2@YAPAXI@Z:NEAR				; operator new
EXTRN	_sprintf:NEAR
EXTRN	??0CUserFighter@@QAE@MHHHMPAVCTerrain@@PAVCScreenOverlayManager@@PAURENDER_DATA_INFO@CFileRenderObject@@@Z:NEAR ; CUserFighter::CUserFighter
EXTRN	_time:NEAR
EXTRN	_memset:NEAR
EXTRN	_strcpy:NEAR
EXTRN	_strlen:NEAR
EXTRN	??0CSky@@QAE@MH@Z:NEAR				; CSky::CSky
EXTRN	_D3DXVec3Normalize@8:NEAR
EXTRN	_srand:NEAR
EXTRN	__assert:NEAR
EXTRN	?GetInt@CCmdLineParser@@QAEHPADH@Z:NEAR		; CCmdLineParser::GetInt
EXTRN	?ods@@YAXPADZZ:NEAR				; ods
EXTRN	?rnd@@YAMXZ:NEAR				; rnd
EXTRN	??0CCamera@@QAE@XZ:NEAR				; CCamera::CCamera
EXTRN	?SetViewMatrix@CCamera@@QAEHPAUIDirect3DDevice8@@H@Z:NEAR ; CCamera::SetViewMatrix
EXTRN	??0CHUDText@@QAE@PADHMMMMMH@Z:NEAR		; CHUDText::CHUDText
EXTRN	??0CTerrain@@QAE@MPAVCx7@@HHHHHHHMHHIIHHH@Z:NEAR ; CTerrain::CTerrain
EXTRN	??0COcean@@QAE@MHPAUD3DXCOLOR@@@Z:NEAR		; COcean::COcean
;	COMDAT rtc$IMZ
; File c:\documents and settings\dom\my documents\_dev\ae\xlr8a\x7g\crace.cpp
rtc$IMZ	SEGMENT
__RTC_InitBase.rtc$IMZ DD FLAT:__RTC_InitBase
rtc$IMZ	ENDS
;	COMDAT rtc$TMZ
rtc$TMZ	SEGMENT
__RTC_Shutdown.rtc$TMZ DD FLAT:__RTC_Shutdown
rtc$TMZ	ENDS
;	COMDAT __real@42fa0000
CONST	SEGMENT
__real@42fa0000 DD 042fa0000r			; 125
CONST	ENDS
;	COMDAT ??_C@_03ICICOMAL@yes?$AA@
CONST	SEGMENT
??_C@_03ICICOMAL@yes?$AA@ DB 'yes', 00H			; `string'
CONST	ENDS
;	COMDAT ??_C@_02KAJCLHKP@no?$AA@
CONST	SEGMENT
??_C@_02KAJCLHKP@no?$AA@ DB 'no', 00H			; `string'
CONST	ENDS
;	COMDAT ??_C@_0GI@MLKILFPH@?$CK?$CK?$CK?5Level?5?$CFd?5?$CK?$CK?$CK?6?7Night?$DN?$CFs?6?7dwAm@
CONST	SEGMENT
??_C@_0GI@MLKILFPH@?$CK?$CK?$CK?5Level?5?$CFd?5?$CK?$CK?$CK?6?7Night?$DN?$CFs?6?7dwAm@ DB '*'
	DB	'** Level %d ***', 0aH, 09H, 'Night=%s', 0aH, 09H, 'dwAmbient='
	DB	'%08x', 0aH, 09H, 'fMountainFactor=%0.2f', 0aH, 09H, 'NoisePat'
	DB	'ches=%d', 0aH, 09H, 'nNoisePatches2=%d', 0aH, 0aH, 00H ; `string'
CONST	ENDS
;	COMDAT __real@44fa0000
CONST	SEGMENT
__real@44fa0000 DD 044fa0000r			; 2000
CONST	ENDS
;	COMDAT __real@40000000
CONST	SEGMENT
__real@40000000 DD 040000000r			; 2
CONST	ENDS
;	COMDAT ?__LINE__Var@?1???0CRace@@QAE@PAVCx7@@PAUIDirect3DDevice8@@HMHPAUD3DXCOLOR@@_N3KMHHII@Z@4JA
_DATA	SEGMENT
?__LINE__Var@?1???0CRace@@QAE@PAVCx7@@PAUIDirect3DDevice8@@HMHPAUD3DXCOLOR@@_N3KMHHII@Z@4JA DD 017H ; `CRace::CRace'::`2'::__LINE__Var
_DATA	ENDS
;	COMDAT ??_C@_0EH@BJEPPDK@c?3?2documents?5and?5settings?2dom?2my@
CONST	SEGMENT
??_C@_0EH@BJEPPDK@c?3?2documents?5and?5settings?2dom?2my@ DB 'c:\document'
	DB	's and settings\dom\my documents\_dev\ae\xlr8a\x7g\crace.cpp', 00H ; `string'
CONST	ENDS
;	COMDAT ??_C@_09MJFFOGHA@m_pCamera?$AA@
CONST	SEGMENT
??_C@_09MJFFOGHA@m_pCamera?$AA@ DB 'm_pCamera', 00H	; `string'
CONST	ENDS
;	COMDAT ??_C@_0L@EFHMCMMH@m_pTerrain?$AA@
CONST	SEGMENT
??_C@_0L@EFHMCMMH@m_pTerrain?$AA@ DB 'm_pTerrain', 00H	; `string'
CONST	ENDS
;	COMDAT __real@3ea8f5c3
CONST	SEGMENT
__real@3ea8f5c3 DD 03ea8f5c3r			; 0.33
CONST	ENDS
;	COMDAT __real@3f28f5c3
CONST	SEGMENT
__real@3f28f5c3 DD 03f28f5c3r			; 0.66
CONST	ENDS
;	COMDAT ??_C@_08NOBLGMBD@Terrain2?$AA@
CONST	SEGMENT
??_C@_08NOBLGMBD@Terrain2?$AA@ DB 'Terrain2', 00H	; `string'
CONST	ENDS
;	COMDAT ??_C@_08PFDGDPNA@Terrain1?$AA@
CONST	SEGMENT
??_C@_08PFDGDPNA@Terrain1?$AA@ DB 'Terrain1', 00H	; `string'
CONST	ENDS
;	COMDAT ??_C@_06OPDPBBHL@m_pSky?$AA@
CONST	SEGMENT
??_C@_06OPDPBBHL@m_pSky?$AA@ DB 'm_pSky', 00H		; `string'
CONST	ENDS
;	COMDAT ??_C@_08EAFCEPOP@BlackSky?$AA@
CONST	SEGMENT
??_C@_08EAFCEPOP@BlackSky?$AA@ DB 'BlackSky', 00H	; `string'
CONST	ENDS
;	COMDAT __real@41200000
CONST	SEGMENT
__real@41200000 DD 041200000r			; 10
CONST	ENDS
;	COMDAT ??_C@_08EKLLOJMI@m_pOcean?$AA@
CONST	SEGMENT
??_C@_08EKLLOJMI@m_pOcean?$AA@ DB 'm_pOcean', 00H	; `string'
CONST	ENDS
;	COMDAT __real@41a00000
CONST	SEGMENT
__real@41a00000 DD 041a00000r			; 20
CONST	ENDS
;	COMDAT ??_C@_0L@ENKDGPHK@m_pFighter?$AA@
CONST	SEGMENT
??_C@_0L@ENKDGPHK@m_pFighter?$AA@ DB 'm_pFighter', 00H	; `string'
CONST	ENDS
;	COMDAT ??_C@_04CPEBAOCH@Bots?$AA@
CONST	SEGMENT
??_C@_04CPEBAOCH@Bots?$AA@ DB 'Bots', 00H		; `string'
CONST	ENDS
;	COMDAT ??_C@_08FNJLKAEH@LEVEL?5?$CFd?$AA@
CONST	SEGMENT
??_C@_08FNJLKAEH@LEVEL?5?$CFd?$AA@ DB 'LEVEL %d', 00H	; `string'
CONST	ENDS
;	COMDAT __real@3ecccccd
CONST	SEGMENT
__real@3ecccccd DD 03ecccccdr			; 0.4
CONST	ENDS
;	COMDAT __real@3f19999a
CONST	SEGMENT
__real@3f19999a DD 03f19999ar			; 0.6
CONST	ENDS
;	COMDAT __real@3f800000
CONST	SEGMENT
__real@3f800000 DD 03f800000r			; 1
CONST	ENDS
;	COMDAT __real@41000000
CONST	SEGMENT
__real@41000000 DD 041000000r			; 8
CONST	ENDS
;	COMDAT ??_C@_07OBCONPMM@m?3ss?3mm?$AA@
CONST	SEGMENT
??_C@_07OBCONPMM@m?3ss?3mm?$AA@ DB 'm:ss:mm', 00H	; `string'
; Function compile flags: /Odt /RTCsu /ZI
CONST	ENDS
;	COMDAT ??0CRace@@QAE@PAVCx7@@PAUIDirect3DDevice8@@HMHPAUD3DXCOLOR@@_N3KMHHII@Z
_TEXT	SEGMENT
tv289 = -720
tv248 = -716
tv249 = -712
tv488 = -708
tv243 = -708
tv785 = -704
tv244 = -704
tv238 = -700
tv784 = -696
tv509 = -696
tv426 = -696
tv387 = -696
tv361 = -696
tv345 = -696
tv320 = -696
tv239 = -696
tv209 = -696
tv79 = -696
$T94259 = -685
$T94250 = -676
$T94247 = -664
$T94241 = -652
$T94237 = -640
$T94233 = -628
$T94217 = -616
$T94213 = -604
$T94212 = -592
$T94211 = -572
_sz$ = -360
_fCharSize$ = -96
_i$93733 = -84
_nBots$ = -72
_ft$ = -60
_fBlueColorFactor$ = -48
_fGreenColorFactor$ = -36
_fRedColorFactor$ = -24
_this$ = -12
__$ArrayPad$ = -4
__$ReturnAddr$ = 4
_pX7$ = 8
_pDev$ = 12
_nLevel$ = 16
_fMaxTime$ = 20
_nOceanTex$ = 24
_pOceanColour$ = 28
_bSolidOcean$ = 32
_bNight$ = 36
_dwAmbient$ = 40
_fMountainFactor$ = 44
_nTex1$ = 48
_nTex2$ = 52
_nNoisePatches1$ = 56
_nNoisePatches2$ = 60
??0CRace@@QAE@PAVCx7@@PAUIDirect3DDevice8@@HMHPAUD3DXCOLOR@@_N3KMHHII@Z PROC NEAR ; CRace::CRace, COMDAT
; _this$ = ecx

; 23   : 	{

  00000	55		 push	 ebp
  00001	8b ec		 mov	 ebp, esp
  00003	81 ec d0 02 00
	00		 sub	 esp, 720		; 000002d0H
  00009	53		 push	 ebx
  0000a	56		 push	 esi
  0000b	57		 push	 edi
  0000c	51		 push	 ecx
  0000d	8d bd 30 fd ff
	ff		 lea	 edi, DWORD PTR [ebp-720]
  00013	b9 b4 00 00 00	 mov	 ecx, 180		; 000000b4H
  00018	b8 cc cc cc cc	 mov	 eax, -858993460		; ccccccccH
  0001d	f3 ab		 rep stosd
  0001f	59		 pop	 ecx
  00020	a1 00 00 00 00	 mov	 eax, DWORD PTR ___security_cookie
  00025	33 45 04	 xor	 eax, DWORD PTR __$ReturnAddr$[ebp]
  00028	89 45 fc	 mov	 DWORD PTR __$ArrayPad$[ebp], eax
  0002b	89 4d f4	 mov	 DWORD PTR _this$[ebp], ecx
  0002e	c6 85 53 fd ff
	ff 00		 mov	 BYTE PTR $T94259[ebp], 0
  00035	8b 4d f4	 mov	 ecx, DWORD PTR _this$[ebp]
  00038	83 c1 3c	 add	 ecx, 60			; 0000003cH
  0003b	e8 00 00 00 00	 call	 ??0D3DXCOLOR@@QAE@XZ	; D3DXCOLOR::D3DXCOLOR

; 24   : 		m_fSkill = (float)nLevel / (float)( MAX_LEV / 4 );

  00040	db 45 10	 fild	 DWORD PTR _nLevel$[ebp]
  00043	d8 35 00 00 00
	00		 fdiv	 DWORD PTR __real@42fa0000
  00049	8b 45 f4	 mov	 eax, DWORD PTR _this$[ebp]
  0004c	d9 58 08	 fstp	 DWORD PTR [eax+8]

; 25   : 		srand( (unsigned)time( NULL ) );

  0004f	6a 00		 push	 0
  00051	e8 00 00 00 00	 call	 _time
  00056	83 c4 04	 add	 esp, 4
  00059	50		 push	 eax
  0005a	e8 00 00 00 00	 call	 _srand
  0005f	83 c4 04	 add	 esp, 4

; 26   : 
; 27   : 		ods( "*** Level %d ***\n\tNight=%s\n\tdwAmbient=%08x\n\tfMountainFactor=%0.2f\n\tNoisePatches=%d\n\tnNoisePatches2=%d\n\n", nLevel, bNight ? "yes" : "no", dwAmbient, fMountainFactor, nNoisePatches1, nNoisePatches2 );

  00062	0f b6 45 24	 movzx	 eax, BYTE PTR _bNight$[ebp]
  00066	85 c0		 test	 eax, eax
  00068	74 0c		 je	 SHORT $L94209
  0006a	c7 85 48 fd ff
	ff 00 00 00 00	 mov	 DWORD PTR tv79[ebp], OFFSET FLAT:??_C@_03ICICOMAL@yes?$AA@
  00074	eb 0a		 jmp	 SHORT $L94210
$L94209:
  00076	c7 85 48 fd ff
	ff 00 00 00 00	 mov	 DWORD PTR tv79[ebp], OFFSET FLAT:??_C@_02KAJCLHKP@no?$AA@
$L94210:
  00080	8b 4d 3c	 mov	 ecx, DWORD PTR _nNoisePatches2$[ebp]
  00083	51		 push	 ecx
  00084	8b 55 38	 mov	 edx, DWORD PTR _nNoisePatches1$[ebp]
  00087	52		 push	 edx
  00088	d9 45 2c	 fld	 DWORD PTR _fMountainFactor$[ebp]
  0008b	83 ec 08	 sub	 esp, 8
  0008e	dd 1c 24	 fstp	 QWORD PTR [esp]
  00091	8b 45 28	 mov	 eax, DWORD PTR _dwAmbient$[ebp]
  00094	50		 push	 eax
  00095	8b 8d 48 fd ff
	ff		 mov	 ecx, DWORD PTR tv79[ebp]
  0009b	51		 push	 ecx
  0009c	8b 55 10	 mov	 edx, DWORD PTR _nLevel$[ebp]
  0009f	52		 push	 edx
  000a0	68 00 00 00 00	 push	 OFFSET FLAT:??_C@_0GI@MLKILFPH@?$CK?$CK?$CK?5Level?5?$CFd?5?$CK?$CK?$CK?6?7Night?$DN?$CFs?6?7dwAm@
  000a5	e8 00 00 00 00	 call	 ?ods@@YAXPADZZ		; ods
  000aa	83 c4 20	 add	 esp, 32			; 00000020H

; 28   : 
; 29   : 		m_pX7 = pX7 ;

  000ad	8b 45 f4	 mov	 eax, DWORD PTR _this$[ebp]
  000b0	8b 4d 08	 mov	 ecx, DWORD PTR _pX7$[ebp]
  000b3	89 48 38	 mov	 DWORD PTR [eax+56], ecx

; 30   : 		m_fTerrainLenSq = 1000.0f ;

  000b6	8b 45 f4	 mov	 eax, DWORD PTR _this$[ebp]
  000b9	c7 80 e8 00 00
	00 00 00 7a 44	 mov	 DWORD PTR [eax+232], 1148846080 ; 447a0000H

; 31   : 		m_fFighterSize = m_fTerrainLenSq / 2000 / 2 ;

  000c3	8b 45 f4	 mov	 eax, DWORD PTR _this$[ebp]
  000c6	d9 80 e8 00 00
	00		 fld	 DWORD PTR [eax+232]
  000cc	d8 35 00 00 00
	00		 fdiv	 DWORD PTR __real@44fa0000
  000d2	d8 35 00 00 00
	00		 fdiv	 DWORD PTR __real@40000000
  000d8	8b 4d f4	 mov	 ecx, DWORD PTR _this$[ebp]
  000db	d9 99 ec 00 00
	00		 fstp	 DWORD PTR [ecx+236]

; 32   : 
; 33   : 		m_fTerrainLenSqM = 10000 ;								// 10 KM

  000e1	8b 45 f4	 mov	 eax, DWORD PTR _this$[ebp]
  000e4	c7 80 f0 00 00
	00 00 40 1c 46	 mov	 DWORD PTR [eax+240], 1176256512 ; 461c4000H

; 34   : 		m_fWorldSpaceToM = m_fTerrainLenSqM / m_fTerrainLenSq ;	// multiply by this to convert from world units

  000ee	8b 45 f4	 mov	 eax, DWORD PTR _this$[ebp]
  000f1	8b 4d f4	 mov	 ecx, DWORD PTR _this$[ebp]
  000f4	d9 80 f0 00 00
	00		 fld	 DWORD PTR [eax+240]
  000fa	d8 b1 e8 00 00
	00		 fdiv	 DWORD PTR [ecx+232]
  00100	8b 55 f4	 mov	 edx, DWORD PTR _this$[ebp]
  00103	d9 9a f4 00 00
	00		 fstp	 DWORD PTR [edx+244]

; 35   : 																// to meters.
; 36   : 		m_fGameTimeRemaining = fMaxTime ;

  00109	8b 45 f4	 mov	 eax, DWORD PTR _this$[ebp]
  0010c	8b 4d 14	 mov	 ecx, DWORD PTR _fMaxTime$[ebp]
  0010f	89 88 04 01 00
	00		 mov	 DWORD PTR [eax+260], ecx

; 37   : 		m_fGameMaxTime = fMaxTime ;

  00115	8b 45 f4	 mov	 eax, DWORD PTR _this$[ebp]
  00118	8b 4d 14	 mov	 ecx, DWORD PTR _fMaxTime$[ebp]
  0011b	89 88 08 01 00
	00		 mov	 DWORD PTR [eax+264], ecx

; 38   : 		
; 39   : 		m_bDoneOneTimeSetup = FALSE ;

  00121	8b 45 f4	 mov	 eax, DWORD PTR _this$[ebp]
  00124	c7 40 0c 00 00
	00 00		 mov	 DWORD PTR [eax+12], 0

; 40   : 		m_bTimeRanOut = FALSE ;

  0012b	8b 45 f4	 mov	 eax, DWORD PTR _this$[ebp]
  0012e	c7 40 10 00 00
	00 00		 mov	 DWORD PTR [eax+16], 0

; 41   : 		m_nLevel = nLevel ;

  00135	8b 45 f4	 mov	 eax, DWORD PTR _this$[ebp]
  00138	8b 4d 10	 mov	 ecx, DWORD PTR _nLevel$[ebp]
  0013b	89 88 f8 00 00
	00		 mov	 DWORD PTR [eax+248], ecx

; 42   : 
; 43   : 	//
; 44   : 	// Game State:
; 45   : 	//
; 46   : 		m_State = GCS_LEVEL_PREINTRO ;

  00141	8b 45 f4	 mov	 eax, DWORD PTR _this$[ebp]
  00144	c7 00 00 00 00
	00		 mov	 DWORD PTR [eax], 0

; 47   : 		m_fIntroTimeS = 4 ;

  0014a	8b 45 f4	 mov	 eax, DWORD PTR _this$[ebp]
  0014d	c7 40 04 00 00
	80 40		 mov	 DWORD PTR [eax+4], 1082130432 ; 40800000H

; 48   : 
; 49   : 	//
; 50   : 	// Global Lighting & Bits:
; 51   : 	//
; 52   : 		m_dwAmbientLight = dwAmbient ;

  00154	8b 45 f4	 mov	 eax, DWORD PTR _this$[ebp]
  00157	8b 4d 28	 mov	 ecx, DWORD PTR _dwAmbient$[ebp]
  0015a	89 48 78	 mov	 DWORD PTR [eax+120], ecx

; 53   : 		m_bNight = bNight ;

  0015d	8b 45 f4	 mov	 eax, DWORD PTR _this$[ebp]
  00160	8a 4d 24	 mov	 cl, BYTE PTR _bNight$[ebp]
  00163	88 48 7c	 mov	 BYTE PTR [eax+124], cl

; 54   : 		m_OceanColour = *pOceanColour ;

  00166	8b 45 1c	 mov	 eax, DWORD PTR _pOceanColour$[ebp]
  00169	8b 4d f4	 mov	 ecx, DWORD PTR _this$[ebp]
  0016c	83 c1 3c	 add	 ecx, 60			; 0000003cH
  0016f	8b 10		 mov	 edx, DWORD PTR [eax]
  00171	89 11		 mov	 DWORD PTR [ecx], edx
  00173	8b 50 04	 mov	 edx, DWORD PTR [eax+4]
  00176	89 51 04	 mov	 DWORD PTR [ecx+4], edx
  00179	8b 50 08	 mov	 edx, DWORD PTR [eax+8]
  0017c	89 51 08	 mov	 DWORD PTR [ecx+8], edx
  0017f	8b 40 0c	 mov	 eax, DWORD PTR [eax+12]
  00182	89 41 0c	 mov	 DWORD PTR [ecx+12], eax

; 55   : 
; 56   : 	//
; 57   : 	// Camera state:
; 58   : 	//
; 59   : 		m_ctCamMode = CT_SHOWOFF
; 60   : 					  /*CT_FREE*/
; 61   : 					  /*CT_BEHIND_FIXED1*/
; 62   : 					  /*CT_BEHIND_FIXED2*/
; 63   : 					  /*CT_BEHIND_FIXED3*/
; 64   : 					  /*CT_BEHIND_VARIABLE1*/
; 65   : 					  /*CT_BEHIND_VARIABLE2*/
; 66   : 					  /*CT_COCKPIT_ROLL*/
; 67   : 					  /*CT_COCKPIT_FIXED*/
; 68   : 					  ;

  00185	8b 45 f4	 mov	 eax, DWORD PTR _this$[ebp]
  00188	c7 40 6c 09 00
	00 00		 mov	 DWORD PTR [eax+108], 9

; 69   : 
; 70   : 	//
; 71   : 	// Debug toggles:
; 72   : 	//
; 73   : 		m_bShowTerrain = FALSE ;

  0018f	8b 45 f4	 mov	 eax, DWORD PTR _this$[ebp]
  00192	c7 40 50 00 00
	00 00		 mov	 DWORD PTR [eax+80], 0

; 74   : 		m_bShowSky = FALSE ;

  00199	8b 45 f4	 mov	 eax, DWORD PTR _this$[ebp]
  0019c	c7 40 58 00 00
	00 00		 mov	 DWORD PTR [eax+88], 0

; 75   : 		m_bShowFighter = FALSE ;

  001a3	8b 45 f4	 mov	 eax, DWORD PTR _this$[ebp]
  001a6	c7 40 5c 00 00
	00 00		 mov	 DWORD PTR [eax+92], 0

; 76   : 		m_bShowOcean = FALSE ;

  001ad	8b 45 f4	 mov	 eax, DWORD PTR _this$[ebp]
  001b0	c7 40 54 00 00
	00 00		 mov	 DWORD PTR [eax+84], 0

; 77   : 
; 78   : 	//
; 79   : 	// Main Directional Light:
; 80   : 	//
; 81   : 		ZeroMemory(&m_litMain, sizeof(D3DLIGHT8)) ;

  001b7	6a 68		 push	 104			; 00000068H
  001b9	6a 00		 push	 0
  001bb	8b 45 f4	 mov	 eax, DWORD PTR _this$[ebp]
  001be	05 80 00 00 00	 add	 eax, 128		; 00000080H
  001c3	50		 push	 eax
  001c4	e8 00 00 00 00	 call	 _memset
  001c9	83 c4 0c	 add	 esp, 12			; 0000000cH

; 82   : 		m_litMain.Type         = D3DLIGHT_DIRECTIONAL;

  001cc	8b 45 f4	 mov	 eax, DWORD PTR _this$[ebp]
  001cf	c7 80 80 00 00
	00 03 00 00 00	 mov	 DWORD PTR [eax+128], 3

; 83   : 		m_litMain.Diffuse.r    = m_litMain.Diffuse.g  = m_litMain.Diffuse.b  = 0.1f ;

  001d9	8b 45 f4	 mov	 eax, DWORD PTR _this$[ebp]
  001dc	c7 80 8c 00 00
	00 cd cc cc 3d	 mov	 DWORD PTR [eax+140], 1036831949 ; 3dcccccdH
  001e6	8b 4d f4	 mov	 ecx, DWORD PTR _this$[ebp]
  001e9	c7 81 88 00 00
	00 cd cc cc 3d	 mov	 DWORD PTR [ecx+136], 1036831949 ; 3dcccccdH
  001f3	8b 55 f4	 mov	 edx, DWORD PTR _this$[ebp]
  001f6	c7 82 84 00 00
	00 cd cc cc 3d	 mov	 DWORD PTR [edx+132], 1036831949 ; 3dcccccdH

; 84   : 		m_litMain.Specular.r   = m_litMain.Specular.g = m_litMain.Specular.b = 1.0f ;

  00200	8b 45 f4	 mov	 eax, DWORD PTR _this$[ebp]
  00203	c7 80 9c 00 00
	00 00 00 80 3f	 mov	 DWORD PTR [eax+156], 1065353216 ; 3f800000H
  0020d	8b 4d f4	 mov	 ecx, DWORD PTR _this$[ebp]
  00210	c7 81 98 00 00
	00 00 00 80 3f	 mov	 DWORD PTR [ecx+152], 1065353216 ; 3f800000H
  0021a	8b 55 f4	 mov	 edx, DWORD PTR _this$[ebp]
  0021d	c7 82 94 00 00
	00 00 00 80 3f	 mov	 DWORD PTR [edx+148], 1065353216 ; 3f800000H

; 85   : 		m_litMain.Ambient.r    = m_litMain.Ambient.g  = m_litMain.Ambient.b  = 0.1f ;

  00227	8b 45 f4	 mov	 eax, DWORD PTR _this$[ebp]
  0022a	c7 80 ac 00 00
	00 cd cc cc 3d	 mov	 DWORD PTR [eax+172], 1036831949 ; 3dcccccdH
  00234	8b 4d f4	 mov	 ecx, DWORD PTR _this$[ebp]
  00237	c7 81 a8 00 00
	00 cd cc cc 3d	 mov	 DWORD PTR [ecx+168], 1036831949 ; 3dcccccdH
  00241	8b 55 f4	 mov	 edx, DWORD PTR _this$[ebp]
  00244	c7 82 a4 00 00
	00 cd cc cc 3d	 mov	 DWORD PTR [edx+164], 1036831949 ; 3dcccccdH

; 86   : 		m_litMain.Position     = xVec3( 0.0f, 0.0f, 0.0f );	// not relevant to directional lights - ignored

  0024e	6a 00		 push	 0
  00250	6a 00		 push	 0
  00252	6a 00		 push	 0
  00254	8d 8d c4 fd ff
	ff		 lea	 ecx, DWORD PTR $T94211[ebp]
  0025a	e8 00 00 00 00	 call	 ??0D3DXVECTOR3@@QAE@MMM@Z ; D3DXVECTOR3::D3DXVECTOR3
  0025f	8b 4d f4	 mov	 ecx, DWORD PTR _this$[ebp]
  00262	81 c1 b4 00 00
	00		 add	 ecx, 180		; 000000b4H
  00268	8b 10		 mov	 edx, DWORD PTR [eax]
  0026a	89 11		 mov	 DWORD PTR [ecx], edx
  0026c	8b 50 04	 mov	 edx, DWORD PTR [eax+4]
  0026f	89 51 04	 mov	 DWORD PTR [ecx+4], edx
  00272	8b 40 08	 mov	 eax, DWORD PTR [eax+8]
  00275	89 41 08	 mov	 DWORD PTR [ecx+8], eax

; 87   : 		D3DXVec3Normalize( (xVec3*)&m_litMain.Direction, &xVec3( +1.0f, -0.5f, +0.25f ) );

  00278	68 00 00 80 3e	 push	 1048576000		; 3e800000H
  0027d	68 00 00 00 bf	 push	 -1090519040		; bf000000H
  00282	68 00 00 80 3f	 push	 1065353216		; 3f800000H
  00287	8d 8d b0 fd ff
	ff		 lea	 ecx, DWORD PTR $T94212[ebp]
  0028d	e8 00 00 00 00	 call	 ??0D3DXVECTOR3@@QAE@MMM@Z ; D3DXVECTOR3::D3DXVECTOR3
  00292	50		 push	 eax
  00293	8b 45 f4	 mov	 eax, DWORD PTR _this$[ebp]
  00296	05 c0 00 00 00	 add	 eax, 192		; 000000c0H
  0029b	50		 push	 eax
  0029c	e8 00 00 00 00	 call	 _D3DXVec3Normalize@8

; 88   : 		m_litMain.Attenuation0 = m_litMain.Attenuation1 = m_litMain.Attenuation2 = 0.0f;

  002a1	8b 45 f4	 mov	 eax, DWORD PTR _this$[ebp]
  002a4	c7 80 dc 00 00
	00 00 00 00 00	 mov	 DWORD PTR [eax+220], 0
  002ae	8b 4d f4	 mov	 ecx, DWORD PTR _this$[ebp]
  002b1	c7 81 d8 00 00
	00 00 00 00 00	 mov	 DWORD PTR [ecx+216], 0
  002bb	8b 55 f4	 mov	 edx, DWORD PTR _this$[ebp]
  002be	c7 82 d4 00 00
	00 00 00 00 00	 mov	 DWORD PTR [edx+212], 0

; 89   : 		m_litMain.Range        = sqrtf( FLT_MAX );

  002c8	68 ff ff 7f 7f	 push	 2139095039		; 7f7fffffH
  002cd	e8 00 00 00 00	 call	 _sqrtf
  002d2	83 c4 04	 add	 esp, 4
  002d5	8b 45 f4	 mov	 eax, DWORD PTR _this$[ebp]
  002d8	d9 98 cc 00 00
	00		 fstp	 DWORD PTR [eax+204]

; 90   : 
; 91   : 	//
; 92   : 	// Object Instances:
; 93   : 	//
; 94   : 		m_pUnderWaterQuad = NULL ;

  002de	8b 45 f4	 mov	 eax, DWORD PTR _this$[ebp]
  002e1	c7 40 4c 00 00
	00 00		 mov	 DWORD PTR [eax+76], 0

; 95   : 
; 96   : 		m_pCamera = NULL ;

  002e8	8b 45 f4	 mov	 eax, DWORD PTR _this$[ebp]
  002eb	c7 40 2c 00 00
	00 00		 mov	 DWORD PTR [eax+44], 0

; 97   : 		m_pCamera = new CCamera ;

  002f2	68 8c 00 00 00	 push	 140			; 0000008cH
  002f7	e8 00 00 00 00	 call	 ??2@YAPAXI@Z		; operator new
  002fc	83 c4 04	 add	 esp, 4
  002ff	89 85 a4 fd ff
	ff		 mov	 DWORD PTR $T94213[ebp], eax
  00305	83 bd a4 fd ff
	ff 00		 cmp	 DWORD PTR $T94213[ebp], 0
  0030c	74 13		 je	 SHORT $L94214
  0030e	8b 8d a4 fd ff
	ff		 mov	 ecx, DWORD PTR $T94213[ebp]
  00314	e8 00 00 00 00	 call	 ??0CCamera@@QAE@XZ	; CCamera::CCamera
  00319	89 85 48 fd ff
	ff		 mov	 DWORD PTR tv209[ebp], eax
  0031f	eb 0a		 jmp	 SHORT $L94215
$L94214:
  00321	c7 85 48 fd ff
	ff 00 00 00 00	 mov	 DWORD PTR tv209[ebp], 0
$L94215:
  0032b	8b 45 f4	 mov	 eax, DWORD PTR _this$[ebp]
  0032e	8b 8d 48 fd ff
	ff		 mov	 ecx, DWORD PTR tv209[ebp]
  00334	89 48 2c	 mov	 DWORD PTR [eax+44], ecx

; 98   : 		assert( m_pCamera );

  00337	8b 45 f4	 mov	 eax, DWORD PTR _this$[ebp]
  0033a	83 78 2c 00	 cmp	 DWORD PTR [eax+44], 0
  0033e	75 1c		 jne	 SHORT $L94216
  00340	8b 0d 00 00 00
	00		 mov	 ecx, DWORD PTR ?__LINE__Var@?1???0CRace@@QAE@PAVCx7@@PAUIDirect3DDevice8@@HMHPAUD3DXCOLOR@@_N3KMHHII@Z@4JA
  00346	83 c1 4b	 add	 ecx, 75			; 0000004bH
  00349	51		 push	 ecx
  0034a	68 00 00 00 00	 push	 OFFSET FLAT:??_C@_0EH@BJEPPDK@c?3?2documents?5and?5settings?2dom?2my@
  0034f	68 00 00 00 00	 push	 OFFSET FLAT:??_C@_09MJFFOGHA@m_pCamera?$AA@
  00354	e8 00 00 00 00	 call	 __assert
  00359	83 c4 0c	 add	 esp, 12			; 0000000cH
$L94216:

; 99   : 		m_pCamera->SetViewMatrix(pDev, FALSE) ;

  0035c	6a 00		 push	 0
  0035e	8b 45 0c	 mov	 eax, DWORD PTR _pDev$[ebp]
  00361	50		 push	 eax
  00362	8b 4d f4	 mov	 ecx, DWORD PTR _this$[ebp]
  00365	8b 49 2c	 mov	 ecx, DWORD PTR [ecx+44]
  00368	e8 00 00 00 00	 call	 ?SetViewMatrix@CCamera@@QAEHPAUIDirect3DDevice8@@H@Z ; CCamera::SetViewMatrix

; 100  : 
; 101  : 		strcpy(m_pX7->m_szLoadingGameInfo1, "m_pTerrain") ;

  0036d	68 00 00 00 00	 push	 OFFSET FLAT:??_C@_0L@EFHMCMMH@m_pTerrain?$AA@
  00372	8b 45 f4	 mov	 eax, DWORD PTR _this$[ebp]
  00375	8b 48 38	 mov	 ecx, DWORD PTR [eax+56]
  00378	81 c1 31 a8 02
	00		 add	 ecx, 174129		; 0002a831H
  0037e	51		 push	 ecx
  0037f	e8 00 00 00 00	 call	 _strcpy
  00384	83 c4 08	 add	 esp, 8

; 102  : 		m_pTerrain = NULL ;

  00387	8b 45 f4	 mov	 eax, DWORD PTR _this$[ebp]
  0038a	c7 40 24 00 00
	00 00		 mov	 DWORD PTR [eax+36], 0

; 103  : 
; 104  : 		//int nOfItem = m_pX7->m_pCmdLine->GetInt( "Terrain2", 32 ) / 4 ;
; 105  : 		float fRedColorFactor = rnd() ;

  00391	e8 00 00 00 00	 call	 ?rnd@@YAMXZ		; rnd
  00396	d9 5d e8	 fstp	 DWORD PTR _fRedColorFactor$[ebp]

; 106  : 		float fGreenColorFactor = rnd() ;

  00399	e8 00 00 00 00	 call	 ?rnd@@YAMXZ		; rnd
  0039e	d9 5d dc	 fstp	 DWORD PTR _fGreenColorFactor$[ebp]

; 107  : 		float fBlueColorFactor = rnd() ;

  003a1	e8 00 00 00 00	 call	 ?rnd@@YAMXZ		; rnd
  003a6	d9 5d d0	 fstp	 DWORD PTR _fBlueColorFactor$[ebp]

; 108  : 		m_pTerrain = new CTerrain(
; 109  : 				m_fTerrainLenSq,
; 110  : 				pX7,
; 111  : 				m_pX7->m_pCmdLine->GetInt( "Terrain1", 8  ),
; 112  : 				m_pX7->m_pCmdLine->GetInt( "Terrain2", 32 ),
; 113  : 				m_nLevel + 1,		/*cherries*/
; 114  : 				1,					/*shield: THESE DON'T DO ANYTHING YET WHEN PICKED*/
; 115  : 				m_nLevel + 2,		/*engine*/
; 116  : 				m_nLevel + 2,		/*weapons*/
; 117  : 				(m_nLevel / 10 + 1),/*health*/
; 118  : 				fMountainFactor,
; 119  : 				nTex1, nTex2,
; 120  : 				nNoisePatches1, nNoisePatches2,
; 121  : 				fRedColorFactor < 0.33f ? 1 : fRedColorFactor  < 0.66f ? 2 : 3,
; 122  : 				fGreenColorFactor < 0.33f ? 1 : fGreenColorFactor  < 0.66f ? 2 : 3,
; 123  : 				fBlueColorFactor < 0.33f ? 1 : fBlueColorFactor  < 0.66f ? 2 : 3
; 124  : 								 );

  003a9	68 20 05 00 00	 push	 1312			; 00000520H
  003ae	e8 00 00 00 00	 call	 ??2@YAPAXI@Z		; operator new
  003b3	83 c4 04	 add	 esp, 4
  003b6	89 85 98 fd ff
	ff		 mov	 DWORD PTR $T94217[ebp], eax
  003bc	83 bd 98 fd ff
	ff 00		 cmp	 DWORD PTR $T94217[ebp], 0
  003c3	0f 84 a4 01 00
	00		 je	 $L94230
  003c9	d9 45 d0	 fld	 DWORD PTR _fBlueColorFactor$[ebp]
  003cc	d8 1d 00 00 00
	00		 fcomp	 DWORD PTR __real@3ea8f5c3
  003d2	df e0		 fnstsw	 ax
  003d4	f6 c4 05	 test	 ah, 5
  003d7	7a 0c		 jp	 SHORT $L94220
  003d9	c7 85 48 fd ff
	ff 01 00 00 00	 mov	 DWORD PTR tv239[ebp], 1
  003e3	eb 32		 jmp	 SHORT $L94221
$L94220:
  003e5	d9 45 d0	 fld	 DWORD PTR _fBlueColorFactor$[ebp]
  003e8	d8 1d 00 00 00
	00		 fcomp	 DWORD PTR __real@3f28f5c3
  003ee	df e0		 fnstsw	 ax
  003f0	f6 c4 05	 test	 ah, 5
  003f3	7a 0c		 jp	 SHORT $L94218
  003f5	c7 85 44 fd ff
	ff 02 00 00 00	 mov	 DWORD PTR tv238[ebp], 2
  003ff	eb 0a		 jmp	 SHORT $L94219
$L94218:
  00401	c7 85 44 fd ff
	ff 03 00 00 00	 mov	 DWORD PTR tv238[ebp], 3
$L94219:
  0040b	8b 85 44 fd ff
	ff		 mov	 eax, DWORD PTR tv238[ebp]
  00411	89 85 48 fd ff
	ff		 mov	 DWORD PTR tv239[ebp], eax
$L94221:
  00417	d9 45 dc	 fld	 DWORD PTR _fGreenColorFactor$[ebp]
  0041a	d8 1d 00 00 00
	00		 fcomp	 DWORD PTR __real@3ea8f5c3
  00420	df e0		 fnstsw	 ax
  00422	f6 c4 05	 test	 ah, 5
  00425	7a 0c		 jp	 SHORT $L94224
  00427	c7 85 40 fd ff
	ff 01 00 00 00	 mov	 DWORD PTR tv244[ebp], 1
  00431	eb 32		 jmp	 SHORT $L94225
$L94224:
  00433	d9 45 dc	 fld	 DWORD PTR _fGreenColorFactor$[ebp]
  00436	d8 1d 00 00 00
	00		 fcomp	 DWORD PTR __real@3f28f5c3
  0043c	df e0		 fnstsw	 ax
  0043e	f6 c4 05	 test	 ah, 5
  00441	7a 0c		 jp	 SHORT $L94222
  00443	c7 85 3c fd ff
	ff 02 00 00 00	 mov	 DWORD PTR tv243[ebp], 2
  0044d	eb 0a		 jmp	 SHORT $L94223
$L94222:
  0044f	c7 85 3c fd ff
	ff 03 00 00 00	 mov	 DWORD PTR tv243[ebp], 3
$L94223:
  00459	8b 8d 3c fd ff
	ff		 mov	 ecx, DWORD PTR tv243[ebp]
  0045f	89 8d 40 fd ff
	ff		 mov	 DWORD PTR tv244[ebp], ecx
$L94225:
  00465	d9 45 e8	 fld	 DWORD PTR _fRedColorFactor$[ebp]
  00468	d8 1d 00 00 00
	00		 fcomp	 DWORD PTR __real@3ea8f5c3
  0046e	df e0		 fnstsw	 ax
  00470	f6 c4 05	 test	 ah, 5
  00473	7a 0c		 jp	 SHORT $L94228
  00475	c7 85 38 fd ff
	ff 01 00 00 00	 mov	 DWORD PTR tv249[ebp], 1
  0047f	eb 32		 jmp	 SHORT $L94229
$L94228:
  00481	d9 45 e8	 fld	 DWORD PTR _fRedColorFactor$[ebp]
  00484	d8 1d 00 00 00
	00		 fcomp	 DWORD PTR __real@3f28f5c3
  0048a	df e0		 fnstsw	 ax
  0048c	f6 c4 05	 test	 ah, 5
  0048f	7a 0c		 jp	 SHORT $L94226
  00491	c7 85 34 fd ff
	ff 02 00 00 00	 mov	 DWORD PTR tv248[ebp], 2
  0049b	eb 0a		 jmp	 SHORT $L94227
$L94226:
  0049d	c7 85 34 fd ff
	ff 03 00 00 00	 mov	 DWORD PTR tv248[ebp], 3
$L94227:
  004a7	8b 95 34 fd ff
	ff		 mov	 edx, DWORD PTR tv248[ebp]
  004ad	89 95 38 fd ff
	ff		 mov	 DWORD PTR tv249[ebp], edx
$L94229:
  004b3	8b 85 48 fd ff
	ff		 mov	 eax, DWORD PTR tv239[ebp]
  004b9	50		 push	 eax
  004ba	8b 8d 40 fd ff
	ff		 mov	 ecx, DWORD PTR tv244[ebp]
  004c0	51		 push	 ecx
  004c1	8b 95 38 fd ff
	ff		 mov	 edx, DWORD PTR tv249[ebp]
  004c7	52		 push	 edx
  004c8	8b 45 3c	 mov	 eax, DWORD PTR _nNoisePatches2$[ebp]
  004cb	50		 push	 eax
  004cc	8b 4d 38	 mov	 ecx, DWORD PTR _nNoisePatches1$[ebp]
  004cf	51		 push	 ecx
  004d0	8b 55 34	 mov	 edx, DWORD PTR _nTex2$[ebp]
  004d3	52		 push	 edx
  004d4	8b 45 30	 mov	 eax, DWORD PTR _nTex1$[ebp]
  004d7	50		 push	 eax
  004d8	8b 4d 2c	 mov	 ecx, DWORD PTR _fMountainFactor$[ebp]
  004db	51		 push	 ecx
  004dc	8b 55 f4	 mov	 edx, DWORD PTR _this$[ebp]
  004df	8b 82 f8 00 00
	00		 mov	 eax, DWORD PTR [edx+248]
  004e5	99		 cdq
  004e6	b9 0a 00 00 00	 mov	 ecx, 10			; 0000000aH
  004eb	f7 f9		 idiv	 ecx
  004ed	83 c0 01	 add	 eax, 1
  004f0	50		 push	 eax
  004f1	8b 55 f4	 mov	 edx, DWORD PTR _this$[ebp]
  004f4	8b 82 f8 00 00
	00		 mov	 eax, DWORD PTR [edx+248]
  004fa	83 c0 02	 add	 eax, 2
  004fd	50		 push	 eax
  004fe	8b 4d f4	 mov	 ecx, DWORD PTR _this$[ebp]
  00501	8b 91 f8 00 00
	00		 mov	 edx, DWORD PTR [ecx+248]
  00507	83 c2 02	 add	 edx, 2
  0050a	52		 push	 edx
  0050b	6a 01		 push	 1
  0050d	8b 45 f4	 mov	 eax, DWORD PTR _this$[ebp]
  00510	8b 88 f8 00 00
	00		 mov	 ecx, DWORD PTR [eax+248]
  00516	83 c1 01	 add	 ecx, 1
  00519	51		 push	 ecx
  0051a	6a 20		 push	 32			; 00000020H
  0051c	68 00 00 00 00	 push	 OFFSET FLAT:??_C@_08NOBLGMBD@Terrain2?$AA@
  00521	8b 55 f4	 mov	 edx, DWORD PTR _this$[ebp]
  00524	8b 42 38	 mov	 eax, DWORD PTR [edx+56]
  00527	8b 88 d4 a8 02
	00		 mov	 ecx, DWORD PTR [eax+174292]
  0052d	e8 00 00 00 00	 call	 ?GetInt@CCmdLineParser@@QAEHPADH@Z ; CCmdLineParser::GetInt
  00532	50		 push	 eax
  00533	6a 08		 push	 8
  00535	68 00 00 00 00	 push	 OFFSET FLAT:??_C@_08PFDGDPNA@Terrain1?$AA@
  0053a	8b 4d f4	 mov	 ecx, DWORD PTR _this$[ebp]
  0053d	8b 51 38	 mov	 edx, DWORD PTR [ecx+56]
  00540	8b 8a d4 a8 02
	00		 mov	 ecx, DWORD PTR [edx+174292]
  00546	e8 00 00 00 00	 call	 ?GetInt@CCmdLineParser@@QAEHPADH@Z ; CCmdLineParser::GetInt
  0054b	50		 push	 eax
  0054c	8b 45 08	 mov	 eax, DWORD PTR _pX7$[ebp]
  0054f	50		 push	 eax
  00550	8b 4d f4	 mov	 ecx, DWORD PTR _this$[ebp]
  00553	8b 91 e8 00 00
	00		 mov	 edx, DWORD PTR [ecx+232]
  00559	52		 push	 edx
  0055a	8b 8d 98 fd ff
	ff		 mov	 ecx, DWORD PTR $T94217[ebp]
  00560	e8 00 00 00 00	 call	 ??0CTerrain@@QAE@MPAVCx7@@HHHHHHHMHHIIHHH@Z ; CTerrain::CTerrain
  00565	89 85 30 fd ff
	ff		 mov	 DWORD PTR tv289[ebp], eax
  0056b	eb 0a		 jmp	 SHORT $L94231
$L94230:
  0056d	c7 85 30 fd ff
	ff 00 00 00 00	 mov	 DWORD PTR tv289[ebp], 0
$L94231:
  00577	8b 45 f4	 mov	 eax, DWORD PTR _this$[ebp]
  0057a	8b 8d 30 fd ff
	ff		 mov	 ecx, DWORD PTR tv289[ebp]
  00580	89 48 24	 mov	 DWORD PTR [eax+36], ecx

; 125  : 		m_bShowTerrain = TRUE ;

  00583	8b 45 f4	 mov	 eax, DWORD PTR _this$[ebp]
  00586	c7 40 50 01 00
	00 00		 mov	 DWORD PTR [eax+80], 1

; 126  : 		assert( m_pTerrain );

  0058d	8b 45 f4	 mov	 eax, DWORD PTR _this$[ebp]
  00590	83 78 24 00	 cmp	 DWORD PTR [eax+36], 0
  00594	75 1c		 jne	 SHORT $L94232
  00596	8b 0d 00 00 00
	00		 mov	 ecx, DWORD PTR ?__LINE__Var@?1???0CRace@@QAE@PAVCx7@@PAUIDirect3DDevice8@@HMHPAUD3DXCOLOR@@_N3KMHHII@Z@4JA
  0059c	83 c1 67	 add	 ecx, 103		; 00000067H
  0059f	51		 push	 ecx
  005a0	68 00 00 00 00	 push	 OFFSET FLAT:??_C@_0EH@BJEPPDK@c?3?2documents?5and?5settings?2dom?2my@
  005a5	68 00 00 00 00	 push	 OFFSET FLAT:??_C@_0L@EFHMCMMH@m_pTerrain?$AA@
  005aa	e8 00 00 00 00	 call	 __assert
  005af	83 c4 0c	 add	 esp, 12			; 0000000cH
$L94232:

; 127  : 
; 128  : 		strcpy(m_pX7->m_szLoadingGameInfo1, "m_pSky") ;

  005b2	68 00 00 00 00	 push	 OFFSET FLAT:??_C@_06OPDPBBHL@m_pSky?$AA@
  005b7	8b 45 f4	 mov	 eax, DWORD PTR _this$[ebp]
  005ba	8b 48 38	 mov	 ecx, DWORD PTR [eax+56]
  005bd	81 c1 31 a8 02
	00		 add	 ecx, 174129		; 0002a831H
  005c3	51		 push	 ecx
  005c4	e8 00 00 00 00	 call	 _strcpy
  005c9	83 c4 08	 add	 esp, 8

; 129  : 		m_pSky = NULL ;

  005cc	8b 45 f4	 mov	 eax, DWORD PTR _this$[ebp]
  005cf	c7 40 28 00 00
	00 00		 mov	 DWORD PTR [eax+40], 0

; 130  : 		m_pSky = new CSky( m_fTerrainLenSq * 10.0f, m_pX7->m_pCmdLine->GetInt( "BlackSky", 0) /*|| m_bNight*/ );

  005d6	6a 0c		 push	 12			; 0000000cH
  005d8	e8 00 00 00 00	 call	 ??2@YAPAXI@Z		; operator new
  005dd	83 c4 04	 add	 esp, 4
  005e0	89 85 8c fd ff
	ff		 mov	 DWORD PTR $T94233[ebp], eax
  005e6	83 bd 8c fd ff
	ff 00		 cmp	 DWORD PTR $T94233[ebp], 0
  005ed	74 3f		 je	 SHORT $L94234
  005ef	6a 00		 push	 0
  005f1	68 00 00 00 00	 push	 OFFSET FLAT:??_C@_08EAFCEPOP@BlackSky?$AA@
  005f6	8b 45 f4	 mov	 eax, DWORD PTR _this$[ebp]
  005f9	8b 48 38	 mov	 ecx, DWORD PTR [eax+56]
  005fc	8b 89 d4 a8 02
	00		 mov	 ecx, DWORD PTR [ecx+174292]
  00602	e8 00 00 00 00	 call	 ?GetInt@CCmdLineParser@@QAEHPADH@Z ; CCmdLineParser::GetInt
  00607	50		 push	 eax
  00608	8b 55 f4	 mov	 edx, DWORD PTR _this$[ebp]
  0060b	d9 82 e8 00 00
	00		 fld	 DWORD PTR [edx+232]
  00611	d8 0d 00 00 00
	00		 fmul	 DWORD PTR __real@41200000
  00617	51		 push	 ecx
  00618	d9 1c 24	 fstp	 DWORD PTR [esp]
  0061b	8b 8d 8c fd ff
	ff		 mov	 ecx, DWORD PTR $T94233[ebp]
  00621	e8 00 00 00 00	 call	 ??0CSky@@QAE@MH@Z	; CSky::CSky
  00626	89 85 48 fd ff
	ff		 mov	 DWORD PTR tv320[ebp], eax
  0062c	eb 0a		 jmp	 SHORT $L94235
$L94234:
  0062e	c7 85 48 fd ff
	ff 00 00 00 00	 mov	 DWORD PTR tv320[ebp], 0
$L94235:
  00638	8b 45 f4	 mov	 eax, DWORD PTR _this$[ebp]
  0063b	8b 8d 48 fd ff
	ff		 mov	 ecx, DWORD PTR tv320[ebp]
  00641	89 48 28	 mov	 DWORD PTR [eax+40], ecx

; 131  : 		m_bShowSky = TRUE ;

  00644	8b 45 f4	 mov	 eax, DWORD PTR _this$[ebp]
  00647	c7 40 58 01 00
	00 00		 mov	 DWORD PTR [eax+88], 1

; 132  : 		assert( m_pSky );

  0064e	8b 45 f4	 mov	 eax, DWORD PTR _this$[ebp]
  00651	83 78 28 00	 cmp	 DWORD PTR [eax+40], 0
  00655	75 1c		 jne	 SHORT $L94236
  00657	8b 0d 00 00 00
	00		 mov	 ecx, DWORD PTR ?__LINE__Var@?1???0CRace@@QAE@PAVCx7@@PAUIDirect3DDevice8@@HMHPAUD3DXCOLOR@@_N3KMHHII@Z@4JA
  0065d	83 c1 6d	 add	 ecx, 109		; 0000006dH
  00660	51		 push	 ecx
  00661	68 00 00 00 00	 push	 OFFSET FLAT:??_C@_0EH@BJEPPDK@c?3?2documents?5and?5settings?2dom?2my@
  00666	68 00 00 00 00	 push	 OFFSET FLAT:??_C@_06OPDPBBHL@m_pSky?$AA@
  0066b	e8 00 00 00 00	 call	 __assert
  00670	83 c4 0c	 add	 esp, 12			; 0000000cH
$L94236:

; 133  : 
; 134  : 		/*strcpy(m_pX7->m_szLoadingGameInfo1, "m_pSkyDome") ;
; 135  : 		m_pSkyDome = NULL ;
; 136  : 		m_pSkyDome = new CSkyDome( m_fTerrainLenSq * 10,
; 137  : 								   (m_pX7->m_pCmdLine->GetInt( "BlackSky", 0) != 0),
; 138  : 								   20 );
; 139  : 		m_bShowSky = TRUE ;
; 140  : 		assert( m_pSkyDome );*/
; 141  : 
; 142  : 		strcpy(m_pX7->m_szLoadingGameInfo1, "m_pOcean") ;

  00673	68 00 00 00 00	 push	 OFFSET FLAT:??_C@_08EKLLOJMI@m_pOcean?$AA@
  00678	8b 45 f4	 mov	 eax, DWORD PTR _this$[ebp]
  0067b	8b 48 38	 mov	 ecx, DWORD PTR [eax+56]
  0067e	81 c1 31 a8 02
	00		 add	 ecx, 174129		; 0002a831H
  00684	51		 push	 ecx
  00685	e8 00 00 00 00	 call	 _strcpy
  0068a	83 c4 08	 add	 esp, 8

; 143  : 		m_pOcean = NULL ;

  0068d	8b 45 f4	 mov	 eax, DWORD PTR _this$[ebp]
  00690	c7 40 34 00 00
	00 00		 mov	 DWORD PTR [eax+52], 0

; 144  : 		m_pOcean = new COcean( m_fTerrainLenSq * 20.0f, nOceanTex, pOceanColour );

  00697	6a 34		 push	 52			; 00000034H
  00699	e8 00 00 00 00	 call	 ??2@YAPAXI@Z		; operator new
  0069e	83 c4 04	 add	 esp, 4
  006a1	89 85 80 fd ff
	ff		 mov	 DWORD PTR $T94237[ebp], eax
  006a7	83 bd 80 fd ff
	ff 00		 cmp	 DWORD PTR $T94237[ebp], 0
  006ae	74 2e		 je	 SHORT $L94238
  006b0	8b 45 1c	 mov	 eax, DWORD PTR _pOceanColour$[ebp]
  006b3	50		 push	 eax
  006b4	8b 4d 18	 mov	 ecx, DWORD PTR _nOceanTex$[ebp]
  006b7	51		 push	 ecx
  006b8	8b 55 f4	 mov	 edx, DWORD PTR _this$[ebp]
  006bb	d9 82 e8 00 00
	00		 fld	 DWORD PTR [edx+232]
  006c1	d8 0d 00 00 00
	00		 fmul	 DWORD PTR __real@41a00000
  006c7	51		 push	 ecx
  006c8	d9 1c 24	 fstp	 DWORD PTR [esp]
  006cb	8b 8d 80 fd ff
	ff		 mov	 ecx, DWORD PTR $T94237[ebp]
  006d1	e8 00 00 00 00	 call	 ??0COcean@@QAE@MHPAUD3DXCOLOR@@@Z ; COcean::COcean
  006d6	89 85 48 fd ff
	ff		 mov	 DWORD PTR tv345[ebp], eax
  006dc	eb 0a		 jmp	 SHORT $L94239
$L94238:
  006de	c7 85 48 fd ff
	ff 00 00 00 00	 mov	 DWORD PTR tv345[ebp], 0
$L94239:
  006e8	8b 45 f4	 mov	 eax, DWORD PTR _this$[ebp]
  006eb	8b 8d 48 fd ff
	ff		 mov	 ecx, DWORD PTR tv345[ebp]
  006f1	89 48 34	 mov	 DWORD PTR [eax+52], ecx

; 145  : 		m_bShowOcean = TRUE ;

  006f4	8b 45 f4	 mov	 eax, DWORD PTR _this$[ebp]
  006f7	c7 40 54 01 00
	00 00		 mov	 DWORD PTR [eax+84], 1

; 146  : 		assert( m_pOcean );

  006fe	8b 45 f4	 mov	 eax, DWORD PTR _this$[ebp]
  00701	83 78 34 00	 cmp	 DWORD PTR [eax+52], 0
  00705	75 1c		 jne	 SHORT $L94240
  00707	8b 0d 00 00 00
	00		 mov	 ecx, DWORD PTR ?__LINE__Var@?1???0CRace@@QAE@PAVCx7@@PAUIDirect3DDevice8@@HMHPAUD3DXCOLOR@@_N3KMHHII@Z@4JA
  0070d	83 c1 7b	 add	 ecx, 123		; 0000007bH
  00710	51		 push	 ecx
  00711	68 00 00 00 00	 push	 OFFSET FLAT:??_C@_0EH@BJEPPDK@c?3?2documents?5and?5settings?2dom?2my@
  00716	68 00 00 00 00	 push	 OFFSET FLAT:??_C@_08EKLLOJMI@m_pOcean?$AA@
  0071b	e8 00 00 00 00	 call	 __assert
  00720	83 c4 0c	 add	 esp, 12			; 0000000cH
$L94240:

; 147  : 
; 148  : 		strcpy(m_pX7->m_szLoadingGameInfo1, "m_pFighter") ;

  00723	68 00 00 00 00	 push	 OFFSET FLAT:??_C@_0L@ENKDGPHK@m_pFighter?$AA@
  00728	8b 45 f4	 mov	 eax, DWORD PTR _this$[ebp]
  0072b	8b 48 38	 mov	 ecx, DWORD PTR [eax+56]
  0072e	81 c1 31 a8 02
	00		 add	 ecx, 174129		; 0002a831H
  00734	51		 push	 ecx
  00735	e8 00 00 00 00	 call	 _strcpy
  0073a	83 c4 08	 add	 esp, 8

; 149  : 		m_pFighter = NULL ;

  0073d	8b 45 f4	 mov	 eax, DWORD PTR _this$[ebp]
  00740	c7 40 30 00 00
	00 00		 mov	 DWORD PTR [eax+48], 0

; 150  : 		e_FighterTypes ft ;
; 151  : 		switch( m_nLevel % 3 )
; 152  : 		{

  00747	8b 45 f4	 mov	 eax, DWORD PTR _this$[ebp]
  0074a	8b 80 f8 00 00
	00		 mov	 eax, DWORD PTR [eax+248]
  00750	99		 cdq
  00751	b9 03 00 00 00	 mov	 ecx, 3
  00756	f7 f9		 idiv	 ecx
  00758	89 95 48 fd ff
	ff		 mov	 DWORD PTR tv361[ebp], edx
  0075e	83 bd 48 fd ff
	ff 00		 cmp	 DWORD PTR tv361[ebp], 0
  00765	74 24		 je	 SHORT $L93725
  00767	83 bd 48 fd ff
	ff 01		 cmp	 DWORD PTR tv361[ebp], 1
  0076e	74 2b		 je	 SHORT $L93726
  00770	83 bd 48 fd ff
	ff 02		 cmp	 DWORD PTR tv361[ebp], 2
  00777	74 02		 je	 SHORT $L93724
  00779	eb 2e		 jmp	 SHORT $L93721
$L93724:

; 153  : 			case 2: ft = FT_FIGHTER ;  break ;

  0077b	c6 85 53 fd ff
	ff 01		 mov	 BYTE PTR $T94259[ebp], 1
  00782	c7 45 c4 01 00
	00 00		 mov	 DWORD PTR _ft$[ebp], 1
  00789	eb 1e		 jmp	 SHORT $L93721
$L93725:

; 154  : 			case 0: ft = FT_STORM ;  break ;

  0078b	c6 85 53 fd ff
	ff 01		 mov	 BYTE PTR $T94259[ebp], 1
  00792	c7 45 c4 02 00
	00 00		 mov	 DWORD PTR _ft$[ebp], 2
  00799	eb 0e		 jmp	 SHORT $L93721
$L93726:

; 155  : 			case 1: ft = FT_BIGSHIP1 ;  break ;

  0079b	c6 85 53 fd ff
	ff 01		 mov	 BYTE PTR $T94259[ebp], 1
  007a2	c7 45 c4 00 00
	00 00		 mov	 DWORD PTR _ft$[ebp], 0
$L93721:

; 156  : 		}
; 157  : 		m_pFighter = new CUserFighter( m_fSkill,
; 158  : 									   m_nLevel,
; 159  : 									   m_pX7->m_nLives,
; 160  : 									   ft, 
; 161  : 									   m_fFighterSize,
; 162  : 									   m_pTerrain,
; 163  : 									   m_pX7->m_pOverlayMan,
; 164  : 									   NULL );

  007a9	68 34 04 00 00	 push	 1076			; 00000434H
  007ae	e8 00 00 00 00	 call	 ??2@YAPAXI@Z		; operator new
  007b3	83 c4 04	 add	 esp, 4
  007b6	89 85 74 fd ff
	ff		 mov	 DWORD PTR $T94241[ebp], eax
  007bc	83 bd 74 fd ff
	ff 00		 cmp	 DWORD PTR $T94241[ebp], 0
  007c3	74 6b		 je	 SHORT $L94242
  007c5	80 bd 53 fd ff
	ff 00		 cmp	 BYTE PTR $T94259[ebp], 0
  007cc	75 0d		 jne	 SHORT $L94260
  007ce	68 00 00 00 00	 push	 OFFSET FLAT:$L94261
  007d3	e8 00 00 00 00	 call	 __RTC_UninitUse
  007d8	83 c4 04	 add	 esp, 4
$L94260:
  007db	6a 00		 push	 0
  007dd	8b 45 f4	 mov	 eax, DWORD PTR _this$[ebp]
  007e0	8b 48 38	 mov	 ecx, DWORD PTR [eax+56]
  007e3	8b 91 d8 a8 02
	00		 mov	 edx, DWORD PTR [ecx+174296]
  007e9	52		 push	 edx
  007ea	8b 45 f4	 mov	 eax, DWORD PTR _this$[ebp]
  007ed	8b 48 24	 mov	 ecx, DWORD PTR [eax+36]
  007f0	51		 push	 ecx
  007f1	8b 55 f4	 mov	 edx, DWORD PTR _this$[ebp]
  007f4	8b 82 ec 00 00
	00		 mov	 eax, DWORD PTR [edx+236]
  007fa	50		 push	 eax
  007fb	8b 4d c4	 mov	 ecx, DWORD PTR _ft$[ebp]
  007fe	51		 push	 ecx
  007ff	8b 55 f4	 mov	 edx, DWORD PTR _this$[ebp]
  00802	8b 42 38	 mov	 eax, DWORD PTR [edx+56]
  00805	8b 88 0c a9 02
	00		 mov	 ecx, DWORD PTR [eax+174348]
  0080b	51		 push	 ecx
  0080c	8b 55 f4	 mov	 edx, DWORD PTR _this$[ebp]
  0080f	8b 82 f8 00 00
	00		 mov	 eax, DWORD PTR [edx+248]
  00815	50		 push	 eax
  00816	8b 4d f4	 mov	 ecx, DWORD PTR _this$[ebp]
  00819	8b 51 08	 mov	 edx, DWORD PTR [ecx+8]
  0081c	52		 push	 edx
  0081d	8b 8d 74 fd ff
	ff		 mov	 ecx, DWORD PTR $T94241[ebp]
  00823	e8 00 00 00 00	 call	 ??0CUserFighter@@QAE@MHHHMPAVCTerrain@@PAVCScreenOverlayManager@@PAURENDER_DATA_INFO@CFileRenderObject@@@Z ; CUserFighter::CUserFighter
  00828	89 85 48 fd ff
	ff		 mov	 DWORD PTR tv387[ebp], eax
  0082e	eb 0a		 jmp	 SHORT $L94243
$L94242:
  00830	c7 85 48 fd ff
	ff 00 00 00 00	 mov	 DWORD PTR tv387[ebp], 0
$L94243:
  0083a	8b 45 f4	 mov	 eax, DWORD PTR _this$[ebp]
  0083d	8b 8d 48 fd ff
	ff		 mov	 ecx, DWORD PTR tv387[ebp]
  00843	89 48 30	 mov	 DWORD PTR [eax+48], ecx

; 165  : 		m_bShowFighter = TRUE ;

  00846	8b 45 f4	 mov	 eax, DWORD PTR _this$[ebp]
  00849	c7 40 5c 01 00
	00 00		 mov	 DWORD PTR [eax+92], 1

; 166  : 		assert( m_pFighter );

  00850	8b 45 f4	 mov	 eax, DWORD PTR _this$[ebp]
  00853	83 78 30 00	 cmp	 DWORD PTR [eax+48], 0
  00857	75 1f		 jne	 SHORT $L94244
  00859	8b 0d 00 00 00
	00		 mov	 ecx, DWORD PTR ?__LINE__Var@?1???0CRace@@QAE@PAVCx7@@PAUIDirect3DDevice8@@HMHPAUD3DXCOLOR@@_N3KMHHII@Z@4JA
  0085f	81 c1 8f 00 00
	00		 add	 ecx, 143		; 0000008fH
  00865	51		 push	 ecx
  00866	68 00 00 00 00	 push	 OFFSET FLAT:??_C@_0EH@BJEPPDK@c?3?2documents?5and?5settings?2dom?2my@
  0086b	68 00 00 00 00	 push	 OFFSET FLAT:??_C@_0L@ENKDGPHK@m_pFighter?$AA@
  00870	e8 00 00 00 00	 call	 __assert
  00875	83 c4 0c	 add	 esp, 12			; 0000000cH
$L94244:

; 167  : 
; 168  : 		m_bShowHUD = TRUE ;

  00878	8b 45 f4	 mov	 eax, DWORD PTR _this$[ebp]
  0087b	c7 40 60 01 00
	00 00		 mov	 DWORD PTR [eax+96], 1

; 169  : 
; 170  : 	//
; 171  : 	// BotFighters:
; 172  : 	//
; 173  : 		m_pBots = NULL ;

  00882	8b 45 f4	 mov	 eax, DWORD PTR _this$[ebp]
  00885	c7 40 14 00 00
	00 00		 mov	 DWORD PTR [eax+20], 0

; 174  : 		m_nBots = 0 ;

  0088c	8b 45 f4	 mov	 eax, DWORD PTR _this$[ebp]
  0088f	c7 40 18 00 00
	00 00		 mov	 DWORD PTR [eax+24], 0

; 175  : 		/*
; 176  : 	FT_BIGSHIP1 = 0,
; 177  : 	FT_FIGHTER,
; 178  : 	FT_STORM,
; 179  : 	FT_FIGHTER1,
; 180  : 	FT_FIGHTER2,
; 181  : 	FT_LYRAX,
; 182  : 		*/
; 183  : 		int nBots = ( m_nLevel + 3 ) / 2 + 1 ;

  00896	8b 45 f4	 mov	 eax, DWORD PTR _this$[ebp]
  00899	8b 80 f8 00 00
	00		 mov	 eax, DWORD PTR [eax+248]
  0089f	83 c0 03	 add	 eax, 3
  008a2	99		 cdq
  008a3	2b c2		 sub	 eax, edx
  008a5	d1 f8		 sar	 eax, 1
  008a7	83 c0 01	 add	 eax, 1
  008aa	89 45 b8	 mov	 DWORD PTR _nBots$[ebp], eax

; 184  : 		if( m_pX7->m_pCmdLine->GetInt( "Bots", -1 ) != -1 )

  008ad	6a ff		 push	 -1
  008af	68 00 00 00 00	 push	 OFFSET FLAT:??_C@_04CPEBAOCH@Bots?$AA@
  008b4	8b 45 f4	 mov	 eax, DWORD PTR _this$[ebp]
  008b7	8b 48 38	 mov	 ecx, DWORD PTR [eax+56]
  008ba	8b 89 d4 a8 02
	00		 mov	 ecx, DWORD PTR [ecx+174292]
  008c0	e8 00 00 00 00	 call	 ?GetInt@CCmdLineParser@@QAEHPADH@Z ; CCmdLineParser::GetInt
  008c5	83 f8 ff	 cmp	 eax, -1
  008c8	74 1b		 je	 SHORT $L93731

; 185  : 			nBots = m_pX7->m_pCmdLine->GetInt( "Bots", 0 );

  008ca	6a 00		 push	 0
  008cc	68 00 00 00 00	 push	 OFFSET FLAT:??_C@_04CPEBAOCH@Bots?$AA@
  008d1	8b 45 f4	 mov	 eax, DWORD PTR _this$[ebp]
  008d4	8b 48 38	 mov	 ecx, DWORD PTR [eax+56]
  008d7	8b 89 d4 a8 02
	00		 mov	 ecx, DWORD PTR [ecx+174292]
  008dd	e8 00 00 00 00	 call	 ?GetInt@CCmdLineParser@@QAEHPADH@Z ; CCmdLineParser::GetInt
  008e2	89 45 b8	 mov	 DWORD PTR _nBots$[ebp], eax
$L93731:

; 186  : 
; 187  : 		for( int i=0 ; i < nBots ; i++ )

  008e5	c7 45 ac 00 00
	00 00		 mov	 DWORD PTR _i$93733[ebp], 0
  008ec	eb 09		 jmp	 SHORT $L93734
$L93735:
  008ee	8b 45 ac	 mov	 eax, DWORD PTR _i$93733[ebp]
  008f1	83 c0 01	 add	 eax, 1
  008f4	89 45 ac	 mov	 DWORD PTR _i$93733[ebp], eax
$L93734:
  008f7	8b 45 ac	 mov	 eax, DWORD PTR _i$93733[ebp]
  008fa	3b 45 b8	 cmp	 eax, DWORD PTR _nBots$[ebp]
  008fd	7d 39		 jge	 SHORT $L93736

; 188  : 		{
; 189  : 			AddBot( FT_FIGHTER1/*i+1*/,
; 190  : 					i==0 ? NULL : m_pBots[ 0 ].pFighter->m_pFRO->m_pRenderData/*NULL*/ );

  008ff	83 7d ac 00	 cmp	 DWORD PTR _i$93733[ebp], 0
  00903	75 0c		 jne	 SHORT $L94245
  00905	c7 85 48 fd ff
	ff 00 00 00 00	 mov	 DWORD PTR tv426[ebp], 0
  0090f	eb 14		 jmp	 SHORT $L94246
$L94245:
  00911	8b 45 f4	 mov	 eax, DWORD PTR _this$[ebp]
  00914	8b 48 14	 mov	 ecx, DWORD PTR [eax+20]
  00917	8b 51 04	 mov	 edx, DWORD PTR [ecx+4]
  0091a	8b 42 2c	 mov	 eax, DWORD PTR [edx+44]
  0091d	8b 08		 mov	 ecx, DWORD PTR [eax]
  0091f	89 8d 48 fd ff
	ff		 mov	 DWORD PTR tv426[ebp], ecx
$L94246:
  00925	8b 95 48 fd ff
	ff		 mov	 edx, DWORD PTR tv426[ebp]
  0092b	52		 push	 edx
  0092c	6a 03		 push	 3
  0092e	8b 4d f4	 mov	 ecx, DWORD PTR _this$[ebp]
  00931	e8 00 00 00 00	 call	 ?AddBot@CRace@@QAEXHPAURENDER_DATA_INFO@CFileRenderObject@@@Z ; CRace::AddBot

; 191  : 		}

  00936	eb b6		 jmp	 SHORT $L93735
$L93736:

; 192  : 
; 193  : 	//
; 194  : 	// Game State:
; 195  : 	//
; 196  : 		float fCharSize = 0.05f ;

  00938	c7 45 a0 cd cc
	4c 3d		 mov	 DWORD PTR _fCharSize$[ebp], 1028443341 ; 3d4ccccdH

; 197  : 
; 198  : 		char sz[ 256 ];
; 199  : 		sprintf( sz, "LEVEL %d", m_nLevel );

  0093f	8b 45 f4	 mov	 eax, DWORD PTR _this$[ebp]
  00942	8b 88 f8 00 00
	00		 mov	 ecx, DWORD PTR [eax+248]
  00948	51		 push	 ecx
  00949	68 00 00 00 00	 push	 OFFSET FLAT:??_C@_08FNJLKAEH@LEVEL?5?$CFd?$AA@
  0094e	8d 95 98 fe ff
	ff		 lea	 edx, DWORD PTR _sz$[ebp]
  00954	52		 push	 edx
  00955	e8 00 00 00 00	 call	 _sprintf
  0095a	83 c4 0c	 add	 esp, 12			; 0000000cH

; 200  : 		m_pHUDLevel = NULL ;

  0095d	8b 45 f4	 mov	 eax, DWORD PTR _this$[ebp]
  00960	c7 80 fc 00 00
	00 00 00 00 00	 mov	 DWORD PTR [eax+252], 0

; 201  : 		m_pHUDLevel = new CHUDText( sz, HUD_TEX_START + 0, 1.0f - fCharSize * 0.6f * (strlen(sz) + 1), 0, fCharSize, fCharSize, fCharSize * 0.4f, OT_HUD_STRING1 );

  0096a	68 2c 01 00 00	 push	 300			; 0000012cH
  0096f	e8 00 00 00 00	 call	 ??2@YAPAXI@Z		; operator new
  00974	83 c4 04	 add	 esp, 4
  00977	89 85 68 fd ff
	ff		 mov	 DWORD PTR $T94247[ebp], eax
  0097d	83 bd 68 fd ff
	ff 00		 cmp	 DWORD PTR $T94247[ebp], 0
  00984	74 7f		 je	 SHORT $L94248
  00986	6a 02		 push	 2
  00988	d9 45 a0	 fld	 DWORD PTR _fCharSize$[ebp]
  0098b	d8 0d 00 00 00
	00		 fmul	 DWORD PTR __real@3ecccccd
  00991	51		 push	 ecx
  00992	d9 1c 24	 fstp	 DWORD PTR [esp]
  00995	8b 45 a0	 mov	 eax, DWORD PTR _fCharSize$[ebp]
  00998	50		 push	 eax
  00999	8b 4d a0	 mov	 ecx, DWORD PTR _fCharSize$[ebp]
  0099c	51		 push	 ecx
  0099d	6a 00		 push	 0
  0099f	d9 45 a0	 fld	 DWORD PTR _fCharSize$[ebp]
  009a2	d8 0d 00 00 00
	00		 fmul	 DWORD PTR __real@3f19999a
  009a8	d9 9d 48 fd ff
	ff		 fstp	 DWORD PTR tv784[ebp]
  009ae	8d 95 98 fe ff
	ff		 lea	 edx, DWORD PTR _sz$[ebp]
  009b4	52		 push	 edx
  009b5	e8 00 00 00 00	 call	 _strlen
  009ba	83 c4 04	 add	 esp, 4
  009bd	83 c0 01	 add	 eax, 1
  009c0	89 85 40 fd ff
	ff		 mov	 DWORD PTR tv785[ebp], eax
  009c6	c7 85 44 fd ff
	ff 00 00 00 00	 mov	 DWORD PTR tv785[ebp+4], 0
  009d0	df ad 40 fd ff
	ff		 fild	 QWORD PTR tv785[ebp]
  009d6	d8 8d 48 fd ff
	ff		 fmul	 DWORD PTR tv784[ebp]
  009dc	d8 2d 00 00 00
	00		 fsubr	 DWORD PTR __real@3f800000
  009e2	51		 push	 ecx
  009e3	d9 1c 24	 fstp	 DWORD PTR [esp]
  009e6	68 c8 00 00 00	 push	 200			; 000000c8H
  009eb	8d 85 98 fe ff
	ff		 lea	 eax, DWORD PTR _sz$[ebp]
  009f1	50		 push	 eax
  009f2	8b 8d 68 fd ff
	ff		 mov	 ecx, DWORD PTR $T94247[ebp]
  009f8	e8 00 00 00 00	 call	 ??0CHUDText@@QAE@PADHMMMMMH@Z ; CHUDText::CHUDText
  009fd	89 85 3c fd ff
	ff		 mov	 DWORD PTR tv488[ebp], eax
  00a03	eb 0a		 jmp	 SHORT $L94249
$L94248:
  00a05	c7 85 3c fd ff
	ff 00 00 00 00	 mov	 DWORD PTR tv488[ebp], 0
$L94249:
  00a0f	8b 4d f4	 mov	 ecx, DWORD PTR _this$[ebp]
  00a12	8b 95 3c fd ff
	ff		 mov	 edx, DWORD PTR tv488[ebp]
  00a18	89 91 fc 00 00
	00		 mov	 DWORD PTR [ecx+252], edx

; 202  : 
; 203  : 		m_fGameElapsedTime = 0.0f ;

  00a1e	8b 45 f4	 mov	 eax, DWORD PTR _this$[ebp]
  00a21	c7 80 00 01 00
	00 00 00 00 00	 mov	 DWORD PTR [eax+256], 0

; 204  : 		m_pHUDElapsedTime = NULL ;

  00a2b	8b 45 f4	 mov	 eax, DWORD PTR _this$[ebp]
  00a2e	c7 80 0c 01 00
	00 00 00 00 00	 mov	 DWORD PTR [eax+268], 0

; 205  : 		m_pHUDElapsedTime = new CHUDText( "m:ss:mm", HUD_TEX_START + 0, 1.0f - 0.6f * fCharSize * 8, fCharSize, fCharSize, fCharSize, fCharSize * 0.4f, OT_HUD_STRING2 );

  00a38	68 2c 01 00 00	 push	 300			; 0000012cH
  00a3d	e8 00 00 00 00	 call	 ??2@YAPAXI@Z		; operator new
  00a42	83 c4 04	 add	 esp, 4
  00a45	89 85 5c fd ff
	ff		 mov	 DWORD PTR $T94250[ebp], eax
  00a4b	83 bd 5c fd ff
	ff 00		 cmp	 DWORD PTR $T94250[ebp], 0
  00a52	74 51		 je	 SHORT $L94251
  00a54	6a 03		 push	 3
  00a56	d9 45 a0	 fld	 DWORD PTR _fCharSize$[ebp]
  00a59	d8 0d 00 00 00
	00		 fmul	 DWORD PTR __real@3ecccccd
  00a5f	51		 push	 ecx
  00a60	d9 1c 24	 fstp	 DWORD PTR [esp]
  00a63	8b 45 a0	 mov	 eax, DWORD PTR _fCharSize$[ebp]
  00a66	50		 push	 eax
  00a67	8b 4d a0	 mov	 ecx, DWORD PTR _fCharSize$[ebp]
  00a6a	51		 push	 ecx
  00a6b	8b 55 a0	 mov	 edx, DWORD PTR _fCharSize$[ebp]
  00a6e	52		 push	 edx
  00a6f	d9 05 00 00 00
	00		 fld	 DWORD PTR __real@3f19999a
  00a75	d8 4d a0	 fmul	 DWORD PTR _fCharSize$[ebp]
  00a78	d8 0d 00 00 00
	00		 fmul	 DWORD PTR __real@41000000
  00a7e	d8 2d 00 00 00
	00		 fsubr	 DWORD PTR __real@3f800000
  00a84	51		 push	 ecx
  00a85	d9 1c 24	 fstp	 DWORD PTR [esp]
  00a88	68 c8 00 00 00	 push	 200			; 000000c8H
  00a8d	68 00 00 00 00	 push	 OFFSET FLAT:??_C@_07OBCONPMM@m?3ss?3mm?$AA@
  00a92	8b 8d 5c fd ff
	ff		 mov	 ecx, DWORD PTR $T94250[ebp]
  00a98	e8 00 00 00 00	 call	 ??0CHUDText@@QAE@PADHMMMMMH@Z ; CHUDText::CHUDText
  00a9d	89 85 48 fd ff
	ff		 mov	 DWORD PTR tv509[ebp], eax
  00aa3	eb 0a		 jmp	 SHORT $L94252
$L94251:
  00aa5	c7 85 48 fd ff
	ff 00 00 00 00	 mov	 DWORD PTR tv509[ebp], 0
$L94252:
  00aaf	8b 45 f4	 mov	 eax, DWORD PTR _this$[ebp]
  00ab2	8b 8d 48 fd ff
	ff		 mov	 ecx, DWORD PTR tv509[ebp]
  00ab8	89 88 0c 01 00
	00		 mov	 DWORD PTR [eax+268], ecx

; 206  : 	}

  00abe	8b 45 f4	 mov	 eax, DWORD PTR _this$[ebp]
  00ac1	52		 push	 edx
  00ac2	8b cd		 mov	 ecx, ebp
  00ac4	50		 push	 eax
  00ac5	8d 15 00 00 00
	00		 lea	 edx, DWORD PTR $L94289
  00acb	e8 00 00 00 00	 call	 @_RTC_CheckStackVars@8
  00ad0	58		 pop	 eax
  00ad1	5a		 pop	 edx
  00ad2	8b 4d fc	 mov	 ecx, DWORD PTR __$ArrayPad$[ebp]
  00ad5	33 4d 04	 xor	 ecx, DWORD PTR __$ReturnAddr$[ebp]
  00ad8	e8 00 00 00 00	 call	 @__security_check_cookie@4
  00add	5f		 pop	 edi
  00ade	5e		 pop	 esi
  00adf	5b		 pop	 ebx
  00ae0	81 c4 d0 02 00
	00		 add	 esp, 720		; 000002d0H
  00ae6	3b ec		 cmp	 ebp, esp
  00ae8	e8 00 00 00 00	 call	 __RTC_CheckEsp
  00aed	8b e5		 mov	 esp, ebp
  00aef	5d		 pop	 ebp
  00af0	c2 38 00	 ret	 56			; 00000038H
$L94289:
  00af3	01 00 00 00	 DD	 1
  00af7	00 00 00 00	 DD	 $L94288
$L94288:
  00afb	98 fe ff ff	 DD	 -360			; fffffe98H
  00aff	00 01 00 00	 DD	 256			; 00000100H
  00b03	00 00 00 00	 DD	 $L94285
$L94285:
  00b07	73		 DB	 115			; 00000073H
  00b08	7a		 DB	 122			; 0000007aH
  00b09	00		 DB	 0
$L94261:
  00b0a	66		 DB	 102			; 00000066H
  00b0b	74		 DB	 116			; 00000074H
  00b0c	00		 DB	 0
??0CRace@@QAE@PAVCx7@@PAUIDirect3DDevice8@@HMHPAUD3DXCOLOR@@_N3KMHHII@Z ENDP ; CRace::CRace
_TEXT	ENDS
PUBLIC	??_GCUserFighter@@QAEPAXI@Z			; CUserFighter::`scalar deleting destructor'
PUBLIC	??_GCBotFighter@@QAEPAXI@Z			; CBotFighter::`scalar deleting destructor'
PUBLIC	??_GCSky@@QAEPAXI@Z				; CSky::`scalar deleting destructor'
PUBLIC	??1CRace@@QAE@XZ				; CRace::~CRace
PUBLIC	??_GCCamera@@QAEPAXI@Z				; CCamera::`scalar deleting destructor'
PUBLIC	??_GCHUDText@@QAEPAXI@Z				; CHUDText::`scalar deleting destructor'
PUBLIC	??_GCTerrain@@QAEPAXI@Z				; CTerrain::`scalar deleting destructor'
PUBLIC	??_GCOcean@@QAEPAXI@Z				; COcean::`scalar deleting destructor'
PUBLIC	??_GCScreenOverlay@@QAEPAXI@Z			; CScreenOverlay::`scalar deleting destructor'
; Function compile flags: /Odt /RTCsu /ZI
;	COMDAT ??1CRace@@QAE@XZ
_TEXT	SEGMENT
tv178 = -436
tv169 = -436
tv160 = -436
tv150 = -436
tv139 = -436
tv130 = -436
tv89 = -436
tv80 = -436
tv71 = -436
$T94331 = -428
$T94330 = -416
$T94327 = -404
$T94326 = -392
$T94323 = -380
$T94322 = -368
$T94319 = -356
$T94318 = -344
$T94315 = -332
$T94314 = -320
$T94311 = -308
$T94310 = -296
$T94307 = -284
$T94306 = -272
$T94303 = -260
$T94302 = -248
$T94299 = -236
$T94298 = -224
_pBot$ = -20
_this$ = -8
??1CRace@@QAE@XZ PROC NEAR				; CRace::~CRace, COMDAT
; _this$ = ecx

; 209  : 	{

  00000	55		 push	 ebp
  00001	8b ec		 mov	 ebp, esp
  00003	81 ec b4 01 00
	00		 sub	 esp, 436		; 000001b4H
  00009	53		 push	 ebx
  0000a	56		 push	 esi
  0000b	57		 push	 edi
  0000c	51		 push	 ecx
  0000d	8d bd 4c fe ff
	ff		 lea	 edi, DWORD PTR [ebp-436]
  00013	b9 6d 00 00 00	 mov	 ecx, 109		; 0000006dH
  00018	b8 cc cc cc cc	 mov	 eax, -858993460		; ccccccccH
  0001d	f3 ab		 rep stosd
  0001f	59		 pop	 ecx
  00020	89 4d f8	 mov	 DWORD PTR _this$[ebp], ecx

; 210  : 		SAFE_DELETE( m_pTerrain )

  00023	8b 45 f8	 mov	 eax, DWORD PTR _this$[ebp]
  00026	83 78 24 00	 cmp	 DWORD PTR [eax+36], 0
  0002a	74 4a		 je	 SHORT $L93748
  0002c	8b 45 f8	 mov	 eax, DWORD PTR _this$[ebp]
  0002f	8b 48 24	 mov	 ecx, DWORD PTR [eax+36]
  00032	89 8d 14 ff ff
	ff		 mov	 DWORD PTR $T94299[ebp], ecx
  00038	8b 95 14 ff ff
	ff		 mov	 edx, DWORD PTR $T94299[ebp]
  0003e	89 95 20 ff ff
	ff		 mov	 DWORD PTR $T94298[ebp], edx
  00044	83 bd 20 ff ff
	ff 00		 cmp	 DWORD PTR $T94298[ebp], 0
  0004b	74 15		 je	 SHORT $L94300
  0004d	6a 01		 push	 1
  0004f	8b 8d 20 ff ff
	ff		 mov	 ecx, DWORD PTR $T94298[ebp]
  00055	e8 00 00 00 00	 call	 ??_GCTerrain@@QAEPAXI@Z
  0005a	89 85 4c fe ff
	ff		 mov	 DWORD PTR tv71[ebp], eax
  00060	eb 0a		 jmp	 SHORT $L94301
$L94300:
  00062	c7 85 4c fe ff
	ff 00 00 00 00	 mov	 DWORD PTR tv71[ebp], 0
$L94301:
  0006c	8b 45 f8	 mov	 eax, DWORD PTR _this$[ebp]
  0006f	c7 40 24 00 00
	00 00		 mov	 DWORD PTR [eax+36], 0
$L93748:

; 211  : 		SAFE_DELETE( m_pSky )

  00076	8b 45 f8	 mov	 eax, DWORD PTR _this$[ebp]
  00079	83 78 28 00	 cmp	 DWORD PTR [eax+40], 0
  0007d	74 4a		 je	 SHORT $L93751
  0007f	8b 45 f8	 mov	 eax, DWORD PTR _this$[ebp]
  00082	8b 48 28	 mov	 ecx, DWORD PTR [eax+40]
  00085	89 8d fc fe ff
	ff		 mov	 DWORD PTR $T94303[ebp], ecx
  0008b	8b 95 fc fe ff
	ff		 mov	 edx, DWORD PTR $T94303[ebp]
  00091	89 95 08 ff ff
	ff		 mov	 DWORD PTR $T94302[ebp], edx
  00097	83 bd 08 ff ff
	ff 00		 cmp	 DWORD PTR $T94302[ebp], 0
  0009e	74 15		 je	 SHORT $L94304
  000a0	6a 01		 push	 1
  000a2	8b 8d 08 ff ff
	ff		 mov	 ecx, DWORD PTR $T94302[ebp]
  000a8	e8 00 00 00 00	 call	 ??_GCSky@@QAEPAXI@Z
  000ad	89 85 4c fe ff
	ff		 mov	 DWORD PTR tv80[ebp], eax
  000b3	eb 0a		 jmp	 SHORT $L94305
$L94304:
  000b5	c7 85 4c fe ff
	ff 00 00 00 00	 mov	 DWORD PTR tv80[ebp], 0
$L94305:
  000bf	8b 45 f8	 mov	 eax, DWORD PTR _this$[ebp]
  000c2	c7 40 28 00 00
	00 00		 mov	 DWORD PTR [eax+40], 0
$L93751:

; 212  : 		/*SAFE_DELETE( m_pSkyDome )*/
; 213  : 		SAFE_DELETE( m_pOcean )

  000c9	8b 45 f8	 mov	 eax, DWORD PTR _this$[ebp]
  000cc	83 78 34 00	 cmp	 DWORD PTR [eax+52], 0
  000d0	74 4a		 je	 SHORT $L93754
  000d2	8b 45 f8	 mov	 eax, DWORD PTR _this$[ebp]
  000d5	8b 48 34	 mov	 ecx, DWORD PTR [eax+52]
  000d8	89 8d e4 fe ff
	ff		 mov	 DWORD PTR $T94307[ebp], ecx
  000de	8b 95 e4 fe ff
	ff		 mov	 edx, DWORD PTR $T94307[ebp]
  000e4	89 95 f0 fe ff
	ff		 mov	 DWORD PTR $T94306[ebp], edx
  000ea	83 bd f0 fe ff
	ff 00		 cmp	 DWORD PTR $T94306[ebp], 0
  000f1	74 15		 je	 SHORT $L94308
  000f3	6a 01		 push	 1
  000f5	8b 8d f0 fe ff
	ff		 mov	 ecx, DWORD PTR $T94306[ebp]
  000fb	e8 00 00 00 00	 call	 ??_GCOcean@@QAEPAXI@Z
  00100	89 85 4c fe ff
	ff		 mov	 DWORD PTR tv89[ebp], eax
  00106	eb 0a		 jmp	 SHORT $L94309
$L94308:
  00108	c7 85 4c fe ff
	ff 00 00 00 00	 mov	 DWORD PTR tv89[ebp], 0
$L94309:
  00112	8b 45 f8	 mov	 eax, DWORD PTR _this$[ebp]
  00115	c7 40 34 00 00
	00 00		 mov	 DWORD PTR [eax+52], 0
$L93754:

; 214  : 		SAFE_DELETE( m_pCamera )

  0011c	8b 45 f8	 mov	 eax, DWORD PTR _this$[ebp]
  0011f	83 78 2c 00	 cmp	 DWORD PTR [eax+44], 0
  00123	74 4a		 je	 SHORT $L93757
  00125	8b 45 f8	 mov	 eax, DWORD PTR _this$[ebp]
  00128	8b 48 2c	 mov	 ecx, DWORD PTR [eax+44]
  0012b	89 8d cc fe ff
	ff		 mov	 DWORD PTR $T94311[ebp], ecx
  00131	8b 95 cc fe ff
	ff		 mov	 edx, DWORD PTR $T94311[ebp]
  00137	89 95 d8 fe ff
	ff		 mov	 DWORD PTR $T94310[ebp], edx
  0013d	83 bd d8 fe ff
	ff 00		 cmp	 DWORD PTR $T94310[ebp], 0
  00144	74 15		 je	 SHORT $L94312
  00146	6a 01		 push	 1
  00148	8b 8d d8 fe ff
	ff		 mov	 ecx, DWORD PTR $T94310[ebp]
  0014e	e8 00 00 00 00	 call	 ??_GCCamera@@QAEPAXI@Z
  00153	89 85 4c fe ff
	ff		 mov	 DWORD PTR tv130[ebp], eax
  00159	eb 0a		 jmp	 SHORT $L94313
$L94312:
  0015b	c7 85 4c fe ff
	ff 00 00 00 00	 mov	 DWORD PTR tv130[ebp], 0
$L94313:
  00165	8b 45 f8	 mov	 eax, DWORD PTR _this$[ebp]
  00168	c7 40 2c 00 00
	00 00		 mov	 DWORD PTR [eax+44], 0
$L93757:

; 215  : 		SAFE_DELETE( m_pFighter )

  0016f	8b 45 f8	 mov	 eax, DWORD PTR _this$[ebp]
  00172	83 78 30 00	 cmp	 DWORD PTR [eax+48], 0
  00176	74 4a		 je	 SHORT $L93760
  00178	8b 45 f8	 mov	 eax, DWORD PTR _this$[ebp]
  0017b	8b 48 30	 mov	 ecx, DWORD PTR [eax+48]
  0017e	89 8d b4 fe ff
	ff		 mov	 DWORD PTR $T94315[ebp], ecx
  00184	8b 95 b4 fe ff
	ff		 mov	 edx, DWORD PTR $T94315[ebp]
  0018a	89 95 c0 fe ff
	ff		 mov	 DWORD PTR $T94314[ebp], edx
  00190	83 bd c0 fe ff
	ff 00		 cmp	 DWORD PTR $T94314[ebp], 0
  00197	74 15		 je	 SHORT $L94316
  00199	6a 01		 push	 1
  0019b	8b 8d c0 fe ff
	ff		 mov	 ecx, DWORD PTR $T94314[ebp]
  001a1	e8 00 00 00 00	 call	 ??_GCUserFighter@@QAEPAXI@Z
  001a6	89 85 4c fe ff
	ff		 mov	 DWORD PTR tv139[ebp], eax
  001ac	eb 0a		 jmp	 SHORT $L94317
$L94316:
  001ae	c7 85 4c fe ff
	ff 00 00 00 00	 mov	 DWORD PTR tv139[ebp], 0
$L94317:
  001b8	8b 45 f8	 mov	 eax, DWORD PTR _this$[ebp]
  001bb	c7 40 30 00 00
	00 00		 mov	 DWORD PTR [eax+48], 0
$L93760:

; 216  : 		BOT_FIGHTER* pBot = m_pBots ;

  001c2	8b 45 f8	 mov	 eax, DWORD PTR _this$[ebp]
  001c5	8b 48 14	 mov	 ecx, DWORD PTR [eax+20]
  001c8	89 4d ec	 mov	 DWORD PTR _pBot$[ebp], ecx
$L93765:

; 217  : 		while( pBot )

  001cb	83 7d ec 00	 cmp	 DWORD PTR _pBot$[ebp], 0
  001cf	74 5e		 je	 SHORT $L93766

; 218  : 		{
; 219  : 			SAFE_DELETE( pBot->pFighter )

  001d1	8b 45 ec	 mov	 eax, DWORD PTR _pBot$[ebp]
  001d4	83 78 04 00	 cmp	 DWORD PTR [eax+4], 0
  001d8	74 4a		 je	 SHORT $L93767
  001da	8b 45 ec	 mov	 eax, DWORD PTR _pBot$[ebp]
  001dd	8b 48 04	 mov	 ecx, DWORD PTR [eax+4]
  001e0	89 8d 9c fe ff
	ff		 mov	 DWORD PTR $T94319[ebp], ecx
  001e6	8b 95 9c fe ff
	ff		 mov	 edx, DWORD PTR $T94319[ebp]
  001ec	89 95 a8 fe ff
	ff		 mov	 DWORD PTR $T94318[ebp], edx
  001f2	83 bd a8 fe ff
	ff 00		 cmp	 DWORD PTR $T94318[ebp], 0
  001f9	74 15		 je	 SHORT $L94320
  001fb	6a 01		 push	 1
  001fd	8b 8d a8 fe ff
	ff		 mov	 ecx, DWORD PTR $T94318[ebp]
  00203	e8 00 00 00 00	 call	 ??_GCBotFighter@@QAEPAXI@Z
  00208	89 85 4c fe ff
	ff		 mov	 DWORD PTR tv150[ebp], eax
  0020e	eb 0a		 jmp	 SHORT $L94321
$L94320:
  00210	c7 85 4c fe ff
	ff 00 00 00 00	 mov	 DWORD PTR tv150[ebp], 0
$L94321:
  0021a	8b 45 ec	 mov	 eax, DWORD PTR _pBot$[ebp]
  0021d	c7 40 04 00 00
	00 00		 mov	 DWORD PTR [eax+4], 0
$L93767:

; 220  : 			pBot = pBot->pNext ;

  00224	8b 45 ec	 mov	 eax, DWORD PTR _pBot$[ebp]
  00227	8b 48 0c	 mov	 ecx, DWORD PTR [eax+12]
  0022a	89 4d ec	 mov	 DWORD PTR _pBot$[ebp], ecx

; 221  : 		}

  0022d	eb 9c		 jmp	 SHORT $L93765
$L93766:

; 222  : 		SAFE_DELETE( m_pUnderWaterQuad )

  0022f	8b 45 f8	 mov	 eax, DWORD PTR _this$[ebp]
  00232	83 78 4c 00	 cmp	 DWORD PTR [eax+76], 0
  00236	74 4a		 je	 SHORT $L93770
  00238	8b 45 f8	 mov	 eax, DWORD PTR _this$[ebp]
  0023b	8b 48 4c	 mov	 ecx, DWORD PTR [eax+76]
  0023e	89 8d 84 fe ff
	ff		 mov	 DWORD PTR $T94323[ebp], ecx
  00244	8b 95 84 fe ff
	ff		 mov	 edx, DWORD PTR $T94323[ebp]
  0024a	89 95 90 fe ff
	ff		 mov	 DWORD PTR $T94322[ebp], edx
  00250	83 bd 90 fe ff
	ff 00		 cmp	 DWORD PTR $T94322[ebp], 0
  00257	74 15		 je	 SHORT $L94324
  00259	6a 01		 push	 1
  0025b	8b 8d 90 fe ff
	ff		 mov	 ecx, DWORD PTR $T94322[ebp]
  00261	e8 00 00 00 00	 call	 ??_GCScreenOverlay@@QAEPAXI@Z
  00266	89 85 4c fe ff
	ff		 mov	 DWORD PTR tv160[ebp], eax
  0026c	eb 0a		 jmp	 SHORT $L94325
$L94324:
  0026e	c7 85 4c fe ff
	ff 00 00 00 00	 mov	 DWORD PTR tv160[ebp], 0
$L94325:
  00278	8b 45 f8	 mov	 eax, DWORD PTR _this$[ebp]
  0027b	c7 40 4c 00 00
	00 00		 mov	 DWORD PTR [eax+76], 0
$L93770:

; 223  : 		SAFE_DELETE( m_pHUDLevel )

  00282	8b 45 f8	 mov	 eax, DWORD PTR _this$[ebp]
  00285	83 b8 fc 00 00
	00 00		 cmp	 DWORD PTR [eax+252], 0
  0028c	74 50		 je	 SHORT $L93773
  0028e	8b 45 f8	 mov	 eax, DWORD PTR _this$[ebp]
  00291	8b 88 fc 00 00
	00		 mov	 ecx, DWORD PTR [eax+252]
  00297	89 8d 6c fe ff
	ff		 mov	 DWORD PTR $T94327[ebp], ecx
  0029d	8b 95 6c fe ff
	ff		 mov	 edx, DWORD PTR $T94327[ebp]
  002a3	89 95 78 fe ff
	ff		 mov	 DWORD PTR $T94326[ebp], edx
  002a9	83 bd 78 fe ff
	ff 00		 cmp	 DWORD PTR $T94326[ebp], 0
  002b0	74 15		 je	 SHORT $L94328
  002b2	6a 01		 push	 1
  002b4	8b 8d 78 fe ff
	ff		 mov	 ecx, DWORD PTR $T94326[ebp]
  002ba	e8 00 00 00 00	 call	 ??_GCHUDText@@QAEPAXI@Z
  002bf	89 85 4c fe ff
	ff		 mov	 DWORD PTR tv169[ebp], eax
  002c5	eb 0a		 jmp	 SHORT $L94329
$L94328:
  002c7	c7 85 4c fe ff
	ff 00 00 00 00	 mov	 DWORD PTR tv169[ebp], 0
$L94329:
  002d1	8b 45 f8	 mov	 eax, DWORD PTR _this$[ebp]
  002d4	c7 80 fc 00 00
	00 00 00 00 00	 mov	 DWORD PTR [eax+252], 0
$L93773:

; 224  : 		SAFE_DELETE( m_pHUDElapsedTime )

  002de	8b 45 f8	 mov	 eax, DWORD PTR _this$[ebp]
  002e1	83 b8 0c 01 00
	00 00		 cmp	 DWORD PTR [eax+268], 0
  002e8	74 50		 je	 SHORT $L93747
  002ea	8b 45 f8	 mov	 eax, DWORD PTR _this$[ebp]
  002ed	8b 88 0c 01 00
	00		 mov	 ecx, DWORD PTR [eax+268]
  002f3	89 8d 54 fe ff
	ff		 mov	 DWORD PTR $T94331[ebp], ecx
  002f9	8b 95 54 fe ff
	ff		 mov	 edx, DWORD PTR $T94331[ebp]
  002ff	89 95 60 fe ff
	ff		 mov	 DWORD PTR $T94330[ebp], edx
  00305	83 bd 60 fe ff
	ff 00		 cmp	 DWORD PTR $T94330[ebp], 0
  0030c	74 15		 je	 SHORT $L94332
  0030e	6a 01		 push	 1
  00310	8b 8d 60 fe ff
	ff		 mov	 ecx, DWORD PTR $T94330[ebp]
  00316	e8 00 00 00 00	 call	 ??_GCHUDText@@QAEPAXI@Z
  0031b	89 85 4c fe ff
	ff		 mov	 DWORD PTR tv178[ebp], eax
  00321	eb 0a		 jmp	 SHORT $L94333
$L94332:
  00323	c7 85 4c fe ff
	ff 00 00 00 00	 mov	 DWORD PTR tv178[ebp], 0
$L94333:
  0032d	8b 45 f8	 mov	 eax, DWORD PTR _this$[ebp]
  00330	c7 80 0c 01 00
	00 00 00 00 00	 mov	 DWORD PTR [eax+268], 0
$L93747:

; 225  : 	}

  0033a	5f		 pop	 edi
  0033b	5e		 pop	 esi
  0033c	5b		 pop	 ebx
  0033d	81 c4 b4 01 00
	00		 add	 esp, 436		; 000001b4H
  00343	3b ec		 cmp	 ebp, esp
  00345	e8 00 00 00 00	 call	 __RTC_CheckEsp
  0034a	8b e5		 mov	 esp, ebp
  0034c	5d		 pop	 ebp
  0034d	c3		 ret	 0
??1CRace@@QAE@XZ ENDP					; CRace::~CRace
_TEXT	ENDS
EXTRN	??3@YAXPAX@Z:NEAR				; operator delete
EXTRN	??1CTerrain@@QAE@XZ:NEAR			; CTerrain::~CTerrain
; Function compile flags: /Odt /RTCsu /ZI
;	COMDAT ??_GCTerrain@@QAEPAXI@Z
_TEXT	SEGMENT
_this$ = -8
___flags$ = 8
??_GCTerrain@@QAEPAXI@Z PROC NEAR			; CTerrain::`scalar deleting destructor', COMDAT
; _this$ = ecx
  00000	55		 push	 ebp
  00001	8b ec		 mov	 ebp, esp
  00003	81 ec cc 00 00
	00		 sub	 esp, 204		; 000000ccH
  00009	53		 push	 ebx
  0000a	56		 push	 esi
  0000b	57		 push	 edi
  0000c	51		 push	 ecx
  0000d	8d bd 34 ff ff
	ff		 lea	 edi, DWORD PTR [ebp-204]
  00013	b9 33 00 00 00	 mov	 ecx, 51			; 00000033H
  00018	b8 cc cc cc cc	 mov	 eax, -858993460		; ccccccccH
  0001d	f3 ab		 rep stosd
  0001f	59		 pop	 ecx
  00020	89 4d f8	 mov	 DWORD PTR _this$[ebp], ecx
  00023	8b 4d f8	 mov	 ecx, DWORD PTR _this$[ebp]
  00026	e8 00 00 00 00	 call	 ??1CTerrain@@QAE@XZ	; CTerrain::~CTerrain
  0002b	8b 45 08	 mov	 eax, DWORD PTR ___flags$[ebp]
  0002e	83 e0 01	 and	 eax, 1
  00031	85 c0		 test	 eax, eax
  00033	74 0c		 je	 SHORT $L93789
  00035	8b 45 f8	 mov	 eax, DWORD PTR _this$[ebp]
  00038	50		 push	 eax
  00039	e8 00 00 00 00	 call	 ??3@YAXPAX@Z		; operator delete
  0003e	83 c4 04	 add	 esp, 4
$L93789:
  00041	8b 45 f8	 mov	 eax, DWORD PTR _this$[ebp]
  00044	5f		 pop	 edi
  00045	5e		 pop	 esi
  00046	5b		 pop	 ebx
  00047	81 c4 cc 00 00
	00		 add	 esp, 204		; 000000ccH
  0004d	3b ec		 cmp	 ebp, esp
  0004f	e8 00 00 00 00	 call	 __RTC_CheckEsp
  00054	8b e5		 mov	 esp, ebp
  00056	5d		 pop	 ebp
  00057	c2 04 00	 ret	 4
??_GCTerrain@@QAEPAXI@Z ENDP				; CTerrain::`scalar deleting destructor'
_TEXT	ENDS
EXTRN	??1CSky@@QAE@XZ:NEAR				; CSky::~CSky
; Function compile flags: /Odt /RTCsu /ZI
;	COMDAT ??_GCSky@@QAEPAXI@Z
_TEXT	SEGMENT
_this$ = -8
___flags$ = 8
??_GCSky@@QAEPAXI@Z PROC NEAR				; CSky::`scalar deleting destructor', COMDAT
; _this$ = ecx
  00000	55		 push	 ebp
  00001	8b ec		 mov	 ebp, esp
  00003	81 ec cc 00 00
	00		 sub	 esp, 204		; 000000ccH
  00009	53		 push	 ebx
  0000a	56		 push	 esi
  0000b	57		 push	 edi
  0000c	51		 push	 ecx
  0000d	8d bd 34 ff ff
	ff		 lea	 edi, DWORD PTR [ebp-204]
  00013	b9 33 00 00 00	 mov	 ecx, 51			; 00000033H
  00018	b8 cc cc cc cc	 mov	 eax, -858993460		; ccccccccH
  0001d	f3 ab		 rep stosd
  0001f	59		 pop	 ecx
  00020	89 4d f8	 mov	 DWORD PTR _this$[ebp], ecx
  00023	8b 4d f8	 mov	 ecx, DWORD PTR _this$[ebp]
  00026	e8 00 00 00 00	 call	 ??1CSky@@QAE@XZ		; CSky::~CSky
  0002b	8b 45 08	 mov	 eax, DWORD PTR ___flags$[ebp]
  0002e	83 e0 01	 and	 eax, 1
  00031	85 c0		 test	 eax, eax
  00033	74 0c		 je	 SHORT $L93792
  00035	8b 45 f8	 mov	 eax, DWORD PTR _this$[ebp]
  00038	50		 push	 eax
  00039	e8 00 00 00 00	 call	 ??3@YAXPAX@Z		; operator delete
  0003e	83 c4 04	 add	 esp, 4
$L93792:
  00041	8b 45 f8	 mov	 eax, DWORD PTR _this$[ebp]
  00044	5f		 pop	 edi
  00045	5e		 pop	 esi
  00046	5b		 pop	 ebx
  00047	81 c4 cc 00 00
	00		 add	 esp, 204		; 000000ccH
  0004d	3b ec		 cmp	 ebp, esp
  0004f	e8 00 00 00 00	 call	 __RTC_CheckEsp
  00054	8b e5		 mov	 esp, ebp
  00056	5d		 pop	 ebp
  00057	c2 04 00	 ret	 4
??_GCSky@@QAEPAXI@Z ENDP				; CSky::`scalar deleting destructor'
_TEXT	ENDS
EXTRN	??1COcean@@QAE@XZ:NEAR				; COcean::~COcean
; Function compile flags: /Odt /RTCsu /ZI
;	COMDAT ??_GCOcean@@QAEPAXI@Z
_TEXT	SEGMENT
_this$ = -8
___flags$ = 8
??_GCOcean@@QAEPAXI@Z PROC NEAR				; COcean::`scalar deleting destructor', COMDAT
; _this$ = ecx
  00000	55		 push	 ebp
  00001	8b ec		 mov	 ebp, esp
  00003	81 ec cc 00 00
	00		 sub	 esp, 204		; 000000ccH
  00009	53		 push	 ebx
  0000a	56		 push	 esi
  0000b	57		 push	 edi
  0000c	51		 push	 ecx
  0000d	8d bd 34 ff ff
	ff		 lea	 edi, DWORD PTR [ebp-204]
  00013	b9 33 00 00 00	 mov	 ecx, 51			; 00000033H
  00018	b8 cc cc cc cc	 mov	 eax, -858993460		; ccccccccH
  0001d	f3 ab		 rep stosd
  0001f	59		 pop	 ecx
  00020	89 4d f8	 mov	 DWORD PTR _this$[ebp], ecx
  00023	8b 4d f8	 mov	 ecx, DWORD PTR _this$[ebp]
  00026	e8 00 00 00 00	 call	 ??1COcean@@QAE@XZ	; COcean::~COcean
  0002b	8b 45 08	 mov	 eax, DWORD PTR ___flags$[ebp]
  0002e	83 e0 01	 and	 eax, 1
  00031	85 c0		 test	 eax, eax
  00033	74 0c		 je	 SHORT $L93795
  00035	8b 45 f8	 mov	 eax, DWORD PTR _this$[ebp]
  00038	50		 push	 eax
  00039	e8 00 00 00 00	 call	 ??3@YAXPAX@Z		; operator delete
  0003e	83 c4 04	 add	 esp, 4
$L93795:
  00041	8b 45 f8	 mov	 eax, DWORD PTR _this$[ebp]
  00044	5f		 pop	 edi
  00045	5e		 pop	 esi
  00046	5b		 pop	 ebx
  00047	81 c4 cc 00 00
	00		 add	 esp, 204		; 000000ccH
  0004d	3b ec		 cmp	 ebp, esp
  0004f	e8 00 00 00 00	 call	 __RTC_CheckEsp
  00054	8b e5		 mov	 esp, ebp
  00056	5d		 pop	 ebp
  00057	c2 04 00	 ret	 4
??_GCOcean@@QAEPAXI@Z ENDP				; COcean::`scalar deleting destructor'
_TEXT	ENDS
EXTRN	??1CCamera@@QAE@XZ:NEAR				; CCamera::~CCamera
; Function compile flags: /Odt /RTCsu /ZI
;	COMDAT ??_GCCamera@@QAEPAXI@Z
_TEXT	SEGMENT
_this$ = -8
___flags$ = 8
??_GCCamera@@QAEPAXI@Z PROC NEAR			; CCamera::`scalar deleting destructor', COMDAT
; _this$ = ecx
  00000	55		 push	 ebp
  00001	8b ec		 mov	 ebp, esp
  00003	81 ec cc 00 00
	00		 sub	 esp, 204		; 000000ccH
  00009	53		 push	 ebx
  0000a	56		 push	 esi
  0000b	57		 push	 edi
  0000c	51		 push	 ecx
  0000d	8d bd 34 ff ff
	ff		 lea	 edi, DWORD PTR [ebp-204]
  00013	b9 33 00 00 00	 mov	 ecx, 51			; 00000033H
  00018	b8 cc cc cc cc	 mov	 eax, -858993460		; ccccccccH
  0001d	f3 ab		 rep stosd
  0001f	59		 pop	 ecx
  00020	89 4d f8	 mov	 DWORD PTR _this$[ebp], ecx
  00023	8b 4d f8	 mov	 ecx, DWORD PTR _this$[ebp]
  00026	e8 00 00 00 00	 call	 ??1CCamera@@QAE@XZ	; CCamera::~CCamera
  0002b	8b 45 08	 mov	 eax, DWORD PTR ___flags$[ebp]
  0002e	83 e0 01	 and	 eax, 1
  00031	85 c0		 test	 eax, eax
  00033	74 0c		 je	 SHORT $L93798
  00035	8b 45 f8	 mov	 eax, DWORD PTR _this$[ebp]
  00038	50		 push	 eax
  00039	e8 00 00 00 00	 call	 ??3@YAXPAX@Z		; operator delete
  0003e	83 c4 04	 add	 esp, 4
$L93798:
  00041	8b 45 f8	 mov	 eax, DWORD PTR _this$[ebp]
  00044	5f		 pop	 edi
  00045	5e		 pop	 esi
  00046	5b		 pop	 ebx
  00047	81 c4 cc 00 00
	00		 add	 esp, 204		; 000000ccH
  0004d	3b ec		 cmp	 ebp, esp
  0004f	e8 00 00 00 00	 call	 __RTC_CheckEsp
  00054	8b e5		 mov	 esp, ebp
  00056	5d		 pop	 ebp
  00057	c2 04 00	 ret	 4
??_GCCamera@@QAEPAXI@Z ENDP				; CCamera::`scalar deleting destructor'
_TEXT	ENDS
EXTRN	??1CUserFighter@@QAE@XZ:NEAR			; CUserFighter::~CUserFighter
; Function compile flags: /Odt /RTCsu /ZI
;	COMDAT ??_GCUserFighter@@QAEPAXI@Z
_TEXT	SEGMENT
_this$ = -8
___flags$ = 8
??_GCUserFighter@@QAEPAXI@Z PROC NEAR			; CUserFighter::`scalar deleting destructor', COMDAT
; _this$ = ecx
  00000	55		 push	 ebp
  00001	8b ec		 mov	 ebp, esp
  00003	81 ec cc 00 00
	00		 sub	 esp, 204		; 000000ccH
  00009	53		 push	 ebx
  0000a	56		 push	 esi
  0000b	57		 push	 edi
  0000c	51		 push	 ecx
  0000d	8d bd 34 ff ff
	ff		 lea	 edi, DWORD PTR [ebp-204]
  00013	b9 33 00 00 00	 mov	 ecx, 51			; 00000033H
  00018	b8 cc cc cc cc	 mov	 eax, -858993460		; ccccccccH
  0001d	f3 ab		 rep stosd
  0001f	59		 pop	 ecx
  00020	89 4d f8	 mov	 DWORD PTR _this$[ebp], ecx
  00023	8b 4d f8	 mov	 ecx, DWORD PTR _this$[ebp]
  00026	e8 00 00 00 00	 call	 ??1CUserFighter@@QAE@XZ	; CUserFighter::~CUserFighter
  0002b	8b 45 08	 mov	 eax, DWORD PTR ___flags$[ebp]
  0002e	83 e0 01	 and	 eax, 1
  00031	85 c0		 test	 eax, eax
  00033	74 0c		 je	 SHORT $L93801
  00035	8b 45 f8	 mov	 eax, DWORD PTR _this$[ebp]
  00038	50		 push	 eax
  00039	e8 00 00 00 00	 call	 ??3@YAXPAX@Z		; operator delete
  0003e	83 c4 04	 add	 esp, 4
$L93801:
  00041	8b 45 f8	 mov	 eax, DWORD PTR _this$[ebp]
  00044	5f		 pop	 edi
  00045	5e		 pop	 esi
  00046	5b		 pop	 ebx
  00047	81 c4 cc 00 00
	00		 add	 esp, 204		; 000000ccH
  0004d	3b ec		 cmp	 ebp, esp
  0004f	e8 00 00 00 00	 call	 __RTC_CheckEsp
  00054	8b e5		 mov	 esp, ebp
  00056	5d		 pop	 ebp
  00057	c2 04 00	 ret	 4
??_GCUserFighter@@QAEPAXI@Z ENDP			; CUserFighter::`scalar deleting destructor'
_TEXT	ENDS
EXTRN	??1CBotFighter@@QAE@XZ:NEAR			; CBotFighter::~CBotFighter
; Function compile flags: /Odt /RTCsu /ZI
;	COMDAT ??_GCBotFighter@@QAEPAXI@Z
_TEXT	SEGMENT
_this$ = -8
___flags$ = 8
??_GCBotFighter@@QAEPAXI@Z PROC NEAR			; CBotFighter::`scalar deleting destructor', COMDAT
; _this$ = ecx
  00000	55		 push	 ebp
  00001	8b ec		 mov	 ebp, esp
  00003	81 ec cc 00 00
	00		 sub	 esp, 204		; 000000ccH
  00009	53		 push	 ebx
  0000a	56		 push	 esi
  0000b	57		 push	 edi
  0000c	51		 push	 ecx
  0000d	8d bd 34 ff ff
	ff		 lea	 edi, DWORD PTR [ebp-204]
  00013	b9 33 00 00 00	 mov	 ecx, 51			; 00000033H
  00018	b8 cc cc cc cc	 mov	 eax, -858993460		; ccccccccH
  0001d	f3 ab		 rep stosd
  0001f	59		 pop	 ecx
  00020	89 4d f8	 mov	 DWORD PTR _this$[ebp], ecx
  00023	8b 4d f8	 mov	 ecx, DWORD PTR _this$[ebp]
  00026	e8 00 00 00 00	 call	 ??1CBotFighter@@QAE@XZ	; CBotFighter::~CBotFighter
  0002b	8b 45 08	 mov	 eax, DWORD PTR ___flags$[ebp]
  0002e	83 e0 01	 and	 eax, 1
  00031	85 c0		 test	 eax, eax
  00033	74 0c		 je	 SHORT $L93804
  00035	8b 45 f8	 mov	 eax, DWORD PTR _this$[ebp]
  00038	50		 push	 eax
  00039	e8 00 00 00 00	 call	 ??3@YAXPAX@Z		; operator delete
  0003e	83 c4 04	 add	 esp, 4
$L93804:
  00041	8b 45 f8	 mov	 eax, DWORD PTR _this$[ebp]
  00044	5f		 pop	 edi
  00045	5e		 pop	 esi
  00046	5b		 pop	 ebx
  00047	81 c4 cc 00 00
	00		 add	 esp, 204		; 000000ccH
  0004d	3b ec		 cmp	 ebp, esp
  0004f	e8 00 00 00 00	 call	 __RTC_CheckEsp
  00054	8b e5		 mov	 esp, ebp
  00056	5d		 pop	 ebp
  00057	c2 04 00	 ret	 4
??_GCBotFighter@@QAEPAXI@Z ENDP				; CBotFighter::`scalar deleting destructor'
_TEXT	ENDS
EXTRN	??1CScreenOverlay@@QAE@XZ:NEAR			; CScreenOverlay::~CScreenOverlay
; Function compile flags: /Odt /RTCsu /ZI
;	COMDAT ??_GCScreenOverlay@@QAEPAXI@Z
_TEXT	SEGMENT
_this$ = -8
___flags$ = 8
??_GCScreenOverlay@@QAEPAXI@Z PROC NEAR			; CScreenOverlay::`scalar deleting destructor', COMDAT
; _this$ = ecx
  00000	55		 push	 ebp
  00001	8b ec		 mov	 ebp, esp
  00003	81 ec cc 00 00
	00		 sub	 esp, 204		; 000000ccH
  00009	53		 push	 ebx
  0000a	56		 push	 esi
  0000b	57		 push	 edi
  0000c	51		 push	 ecx
  0000d	8d bd 34 ff ff
	ff		 lea	 edi, DWORD PTR [ebp-204]
  00013	b9 33 00 00 00	 mov	 ecx, 51			; 00000033H
  00018	b8 cc cc cc cc	 mov	 eax, -858993460		; ccccccccH
  0001d	f3 ab		 rep stosd
  0001f	59		 pop	 ecx
  00020	89 4d f8	 mov	 DWORD PTR _this$[ebp], ecx
  00023	8b 4d f8	 mov	 ecx, DWORD PTR _this$[ebp]
  00026	e8 00 00 00 00	 call	 ??1CScreenOverlay@@QAE@XZ ; CScreenOverlay::~CScreenOverlay
  0002b	8b 45 08	 mov	 eax, DWORD PTR ___flags$[ebp]
  0002e	83 e0 01	 and	 eax, 1
  00031	85 c0		 test	 eax, eax
  00033	74 0c		 je	 SHORT $L93807
  00035	8b 45 f8	 mov	 eax, DWORD PTR _this$[ebp]
  00038	50		 push	 eax
  00039	e8 00 00 00 00	 call	 ??3@YAXPAX@Z		; operator delete
  0003e	83 c4 04	 add	 esp, 4
$L93807:
  00041	8b 45 f8	 mov	 eax, DWORD PTR _this$[ebp]
  00044	5f		 pop	 edi
  00045	5e		 pop	 esi
  00046	5b		 pop	 ebx
  00047	81 c4 cc 00 00
	00		 add	 esp, 204		; 000000ccH
  0004d	3b ec		 cmp	 ebp, esp
  0004f	e8 00 00 00 00	 call	 __RTC_CheckEsp
  00054	8b e5		 mov	 esp, ebp
  00056	5d		 pop	 ebp
  00057	c2 04 00	 ret	 4
??_GCScreenOverlay@@QAEPAXI@Z ENDP			; CScreenOverlay::`scalar deleting destructor'
_TEXT	ENDS
EXTRN	??1CHUDText@@QAE@XZ:NEAR			; CHUDText::~CHUDText
; Function compile flags: /Odt /RTCsu /ZI
;	COMDAT ??_GCHUDText@@QAEPAXI@Z
_TEXT	SEGMENT
_this$ = -8
___flags$ = 8
??_GCHUDText@@QAEPAXI@Z PROC NEAR			; CHUDText::`scalar deleting destructor', COMDAT
; _this$ = ecx
  00000	55		 push	 ebp
  00001	8b ec		 mov	 ebp, esp
  00003	81 ec cc 00 00
	00		 sub	 esp, 204		; 000000ccH
  00009	53		 push	 ebx
  0000a	56		 push	 esi
  0000b	57		 push	 edi
  0000c	51		 push	 ecx
  0000d	8d bd 34 ff ff
	ff		 lea	 edi, DWORD PTR [ebp-204]
  00013	b9 33 00 00 00	 mov	 ecx, 51			; 00000033H
  00018	b8 cc cc cc cc	 mov	 eax, -858993460		; ccccccccH
  0001d	f3 ab		 rep stosd
  0001f	59		 pop	 ecx
  00020	89 4d f8	 mov	 DWORD PTR _this$[ebp], ecx
  00023	8b 4d f8	 mov	 ecx, DWORD PTR _this$[ebp]
  00026	e8 00 00 00 00	 call	 ??1CHUDText@@QAE@XZ	; CHUDText::~CHUDText
  0002b	8b 45 08	 mov	 eax, DWORD PTR ___flags$[ebp]
  0002e	83 e0 01	 and	 eax, 1
  00031	85 c0		 test	 eax, eax
  00033	74 0c		 je	 SHORT $L93810
  00035	8b 45 f8	 mov	 eax, DWORD PTR _this$[ebp]
  00038	50		 push	 eax
  00039	e8 00 00 00 00	 call	 ??3@YAXPAX@Z		; operator delete
  0003e	83 c4 04	 add	 esp, 4
$L93810:
  00041	8b 45 f8	 mov	 eax, DWORD PTR _this$[ebp]
  00044	5f		 pop	 edi
  00045	5e		 pop	 esi
  00046	5b		 pop	 ebx
  00047	81 c4 cc 00 00
	00		 add	 esp, 204		; 000000ccH
  0004d	3b ec		 cmp	 ebp, esp
  0004f	e8 00 00 00 00	 call	 __RTC_CheckEsp
  00054	8b e5		 mov	 esp, ebp
  00056	5d		 pop	 ebp
  00057	c2 04 00	 ret	 4
??_GCHUDText@@QAEPAXI@Z ENDP				; CHUDText::`scalar deleting destructor'
_TEXT	ENDS
PUBLIC	?__LINE__Var@?1??AddBot@CRace@@QAEXHPAURENDER_DATA_INFO@CFileRenderObject@@@Z@4JA ; `CRace::AddBot'::`2'::__LINE__Var
PUBLIC	??_C@_07ILHLNEN@pNewBot?$AA@			; `string'
PUBLIC	??_C@_0BC@MAFGNML@pNewBot?9?$DOpFighter?$AA@	; `string'
EXTRN	??0CBotFighter@@QAE@MHHMPAURENDER_DATA_INFO@CFileRenderObject@@@Z:NEAR ; CBotFighter::CBotFighter
;	COMDAT ?__LINE__Var@?1??AddBot@CRace@@QAEXHPAURENDER_DATA_INFO@CFileRenderObject@@@Z@4JA
_DATA	SEGMENT
?__LINE__Var@?1??AddBot@CRace@@QAEXHPAURENDER_DATA_INFO@CFileRenderObject@@@Z@4JA DD 0e4H ; `CRace::AddBot'::`2'::__LINE__Var
_DATA	ENDS
;	COMDAT ??_C@_07ILHLNEN@pNewBot?$AA@
CONST	SEGMENT
??_C@_07ILHLNEN@pNewBot?$AA@ DB 'pNewBot', 00H		; `string'
CONST	ENDS
;	COMDAT ??_C@_0BC@MAFGNML@pNewBot?9?$DOpFighter?$AA@
CONST	SEGMENT
??_C@_0BC@MAFGNML@pNewBot?9?$DOpFighter?$AA@ DB 'pNewBot->pFighter', 00H ; `string'
; Function compile flags: /Odt /RTCsu /ZI
CONST	ENDS
;	COMDAT ?AddBot@CRace@@QAEXHPAURENDER_DATA_INFO@CFileRenderObject@@@Z
_TEXT	SEGMENT
tv131 = -268
$T94355 = -260
$T94353 = -248
$T94352 = -236
_pNewBot$ = -32
_pLastBot$ = -20
_this$ = -8
_ftType$ = 8
_pSharedRenderData$ = 12
?AddBot@CRace@@QAEXHPAURENDER_DATA_INFO@CFileRenderObject@@@Z PROC NEAR ; CRace::AddBot, COMDAT
; _this$ = ecx

; 228  : 	{

  00000	55		 push	 ebp
  00001	8b ec		 mov	 ebp, esp
  00003	81 ec 0c 01 00
	00		 sub	 esp, 268		; 0000010cH
  00009	53		 push	 ebx
  0000a	56		 push	 esi
  0000b	57		 push	 edi
  0000c	51		 push	 ecx
  0000d	8d bd f4 fe ff
	ff		 lea	 edi, DWORD PTR [ebp-268]
  00013	b9 43 00 00 00	 mov	 ecx, 67			; 00000043H
  00018	b8 cc cc cc cc	 mov	 eax, -858993460		; ccccccccH
  0001d	f3 ab		 rep stosd
  0001f	59		 pop	 ecx
  00020	89 4d f8	 mov	 DWORD PTR _this$[ebp], ecx

; 229  : 		static DWORD dwID = 0 ;
; 230  : 		BOT_FIGHTER* pLastBot = m_pBots ;

  00023	8b 45 f8	 mov	 eax, DWORD PTR _this$[ebp]
  00026	8b 48 14	 mov	 ecx, DWORD PTR [eax+20]
  00029	89 4d ec	 mov	 DWORD PTR _pLastBot$[ebp], ecx

; 231  : 		BOT_FIGHTER* pNewBot = NULL ;

  0002c	c7 45 e0 00 00
	00 00		 mov	 DWORD PTR _pNewBot$[ebp], 0

; 232  : 
; 233  : 		if( !m_pBots )

  00033	8b 45 f8	 mov	 eax, DWORD PTR _this$[ebp]
  00036	83 78 14 00	 cmp	 DWORD PTR [eax+20], 0
  0003a	75 2b		 jne	 SHORT $L93825

; 234  : 		{
; 235  : 			m_pBots = pNewBot = new BOT_FIGHTER ;

  0003c	6a 10		 push	 16			; 00000010H
  0003e	e8 00 00 00 00	 call	 ??2@YAPAXI@Z		; operator new
  00043	83 c4 04	 add	 esp, 4
  00046	89 85 14 ff ff
	ff		 mov	 DWORD PTR $T94352[ebp], eax
  0004c	8b 85 14 ff ff
	ff		 mov	 eax, DWORD PTR $T94352[ebp]
  00052	89 45 e0	 mov	 DWORD PTR _pNewBot$[ebp], eax
  00055	8b 4d f8	 mov	 ecx, DWORD PTR _this$[ebp]
  00058	8b 55 e0	 mov	 edx, DWORD PTR _pNewBot$[ebp]
  0005b	89 51 14	 mov	 DWORD PTR [ecx+20], edx

; 236  : 			pLastBot = NULL ;

  0005e	c7 45 ec 00 00
	00 00		 mov	 DWORD PTR _pLastBot$[ebp], 0

; 237  : 		}
; 238  : 		else

  00065	eb 2d		 jmp	 SHORT $L93823
$L93825:

; 239  : 		{
; 240  : 			while( pLastBot->pNext )

  00067	8b 45 ec	 mov	 eax, DWORD PTR _pLastBot$[ebp]
  0006a	83 78 0c 00	 cmp	 DWORD PTR [eax+12], 0
  0006e	74 0b		 je	 SHORT $L93826

; 241  : 				pLastBot = pLastBot->pNext ;

  00070	8b 45 ec	 mov	 eax, DWORD PTR _pLastBot$[ebp]
  00073	8b 48 0c	 mov	 ecx, DWORD PTR [eax+12]
  00076	89 4d ec	 mov	 DWORD PTR _pLastBot$[ebp], ecx
  00079	eb ec		 jmp	 SHORT $L93825
$L93826:

; 242  : 			pNewBot = new BOT_FIGHTER ;

  0007b	6a 10		 push	 16			; 00000010H
  0007d	e8 00 00 00 00	 call	 ??2@YAPAXI@Z		; operator new
  00082	83 c4 04	 add	 esp, 4
  00085	89 85 08 ff ff
	ff		 mov	 DWORD PTR $T94353[ebp], eax
  0008b	8b 85 08 ff ff
	ff		 mov	 eax, DWORD PTR $T94353[ebp]
  00091	89 45 e0	 mov	 DWORD PTR _pNewBot$[ebp], eax
$L93823:

; 243  : 		}
; 244  : 		assert( pNewBot );

  00094	83 7d e0 00	 cmp	 DWORD PTR _pNewBot$[ebp], 0
  00098	75 1b		 jne	 SHORT $L94354
  0009a	a1 00 00 00 00	 mov	 eax, DWORD PTR ?__LINE__Var@?1??AddBot@CRace@@QAEXHPAURENDER_DATA_INFO@CFileRenderObject@@@Z@4JA
  0009f	83 c0 10	 add	 eax, 16			; 00000010H
  000a2	50		 push	 eax
  000a3	68 00 00 00 00	 push	 OFFSET FLAT:??_C@_0EH@BJEPPDK@c?3?2documents?5and?5settings?2dom?2my@
  000a8	68 00 00 00 00	 push	 OFFSET FLAT:??_C@_07ILHLNEN@pNewBot?$AA@
  000ad	e8 00 00 00 00	 call	 __assert
  000b2	83 c4 0c	 add	 esp, 12			; 0000000cH
$L94354:

; 245  : 		
; 246  : 		pNewBot->dwID = dwID++ ;

  000b5	8b 45 e0	 mov	 eax, DWORD PTR _pNewBot$[ebp]
  000b8	8b 0d 00 00 00
	00		 mov	 ecx, DWORD PTR ?dwID@?1??AddBot@CRace@@QAEXHPAURENDER_DATA_INFO@CFileRenderObject@@@Z@4KA
  000be	89 08		 mov	 DWORD PTR [eax], ecx
  000c0	8b 15 00 00 00
	00		 mov	 edx, DWORD PTR ?dwID@?1??AddBot@CRace@@QAEXHPAURENDER_DATA_INFO@CFileRenderObject@@@Z@4KA
  000c6	83 c2 01	 add	 edx, 1
  000c9	89 15 00 00 00
	00		 mov	 DWORD PTR ?dwID@?1??AddBot@CRace@@QAEXHPAURENDER_DATA_INFO@CFileRenderObject@@@Z@4KA, edx

; 247  : 		pNewBot->pPrev = pLastBot ;

  000cf	8b 45 e0	 mov	 eax, DWORD PTR _pNewBot$[ebp]
  000d2	8b 4d ec	 mov	 ecx, DWORD PTR _pLastBot$[ebp]
  000d5	89 48 08	 mov	 DWORD PTR [eax+8], ecx

; 248  : 		pNewBot->pNext = NULL ;

  000d8	8b 45 e0	 mov	 eax, DWORD PTR _pNewBot$[ebp]
  000db	c7 40 0c 00 00
	00 00		 mov	 DWORD PTR [eax+12], 0

; 249  : 		pNewBot->pFighter = NULL ;

  000e2	8b 45 e0	 mov	 eax, DWORD PTR _pNewBot$[ebp]
  000e5	c7 40 04 00 00
	00 00		 mov	 DWORD PTR [eax+4], 0

; 250  : 		pNewBot->pFighter = new CBotFighter( m_fSkill,
; 251  : 											 m_nLevel,
; 252  : 											 ftType,
; 253  : 											 /*m_fTerrainLenSq*/m_fFighterSize,
; 254  : 											 pSharedRenderData );

  000ec	68 a0 03 00 00	 push	 928			; 000003a0H
  000f1	e8 00 00 00 00	 call	 ??2@YAPAXI@Z		; operator new
  000f6	83 c4 04	 add	 esp, 4
  000f9	89 85 fc fe ff
	ff		 mov	 DWORD PTR $T94355[ebp], eax
  000ff	83 bd fc fe ff
	ff 00		 cmp	 DWORD PTR $T94355[ebp], 0
  00106	74 36		 je	 SHORT $L94356
  00108	8b 45 0c	 mov	 eax, DWORD PTR _pSharedRenderData$[ebp]
  0010b	50		 push	 eax
  0010c	8b 4d f8	 mov	 ecx, DWORD PTR _this$[ebp]
  0010f	8b 91 ec 00 00
	00		 mov	 edx, DWORD PTR [ecx+236]
  00115	52		 push	 edx
  00116	8b 45 08	 mov	 eax, DWORD PTR _ftType$[ebp]
  00119	50		 push	 eax
  0011a	8b 4d f8	 mov	 ecx, DWORD PTR _this$[ebp]
  0011d	8b 91 f8 00 00
	00		 mov	 edx, DWORD PTR [ecx+248]
  00123	52		 push	 edx
  00124	8b 45 f8	 mov	 eax, DWORD PTR _this$[ebp]
  00127	8b 48 08	 mov	 ecx, DWORD PTR [eax+8]
  0012a	51		 push	 ecx
  0012b	8b 8d fc fe ff
	ff		 mov	 ecx, DWORD PTR $T94355[ebp]
  00131	e8 00 00 00 00	 call	 ??0CBotFighter@@QAE@MHHMPAURENDER_DATA_INFO@CFileRenderObject@@@Z ; CBotFighter::CBotFighter
  00136	89 85 f4 fe ff
	ff		 mov	 DWORD PTR tv131[ebp], eax
  0013c	eb 0a		 jmp	 SHORT $L94357
$L94356:
  0013e	c7 85 f4 fe ff
	ff 00 00 00 00	 mov	 DWORD PTR tv131[ebp], 0
$L94357:
  00148	8b 55 e0	 mov	 edx, DWORD PTR _pNewBot$[ebp]
  0014b	8b 85 f4 fe ff
	ff		 mov	 eax, DWORD PTR tv131[ebp]
  00151	89 42 04	 mov	 DWORD PTR [edx+4], eax

; 255  : 		assert( pNewBot->pFighter );

  00154	8b 45 e0	 mov	 eax, DWORD PTR _pNewBot$[ebp]
  00157	83 78 04 00	 cmp	 DWORD PTR [eax+4], 0
  0015b	75 1c		 jne	 SHORT $L94358
  0015d	8b 0d 00 00 00
	00		 mov	 ecx, DWORD PTR ?__LINE__Var@?1??AddBot@CRace@@QAEXHPAURENDER_DATA_INFO@CFileRenderObject@@@Z@4JA
  00163	83 c1 1b	 add	 ecx, 27			; 0000001bH
  00166	51		 push	 ecx
  00167	68 00 00 00 00	 push	 OFFSET FLAT:??_C@_0EH@BJEPPDK@c?3?2documents?5and?5settings?2dom?2my@
  0016c	68 00 00 00 00	 push	 OFFSET FLAT:??_C@_0BC@MAFGNML@pNewBot?9?$DOpFighter?$AA@
  00171	e8 00 00 00 00	 call	 __assert
  00176	83 c4 0c	 add	 esp, 12			; 0000000cH
$L94358:

; 256  : 		pNewBot->pFighter->m_dwID = pNewBot->dwID ;		// internal dbg use only

  00179	8b 45 e0	 mov	 eax, DWORD PTR _pNewBot$[ebp]
  0017c	8b 48 04	 mov	 ecx, DWORD PTR [eax+4]
  0017f	8b 55 e0	 mov	 edx, DWORD PTR _pNewBot$[ebp]
  00182	8b 02		 mov	 eax, DWORD PTR [edx]
  00184	89 41 0c	 mov	 DWORD PTR [ecx+12], eax

; 257  : 
; 258  : 		if( pLastBot )

  00187	83 7d ec 00	 cmp	 DWORD PTR _pLastBot$[ebp], 0
  0018b	74 09		 je	 SHORT $L93836

; 259  : 			pLastBot->pNext = pNewBot ;

  0018d	8b 45 ec	 mov	 eax, DWORD PTR _pLastBot$[ebp]
  00190	8b 4d e0	 mov	 ecx, DWORD PTR _pNewBot$[ebp]
  00193	89 48 0c	 mov	 DWORD PTR [eax+12], ecx
$L93836:

; 260  : 
; 261  : 		m_nBots++ ;

  00196	8b 45 f8	 mov	 eax, DWORD PTR _this$[ebp]
  00199	8b 48 18	 mov	 ecx, DWORD PTR [eax+24]
  0019c	83 c1 01	 add	 ecx, 1
  0019f	8b 55 f8	 mov	 edx, DWORD PTR _this$[ebp]
  001a2	89 4a 18	 mov	 DWORD PTR [edx+24], ecx

; 262  : 	}

  001a5	5f		 pop	 edi
  001a6	5e		 pop	 esi
  001a7	5b		 pop	 ebx
  001a8	81 c4 0c 01 00
	00		 add	 esp, 268		; 0000010cH
  001ae	3b ec		 cmp	 ebp, esp
  001b0	e8 00 00 00 00	 call	 __RTC_CheckEsp
  001b5	8b e5		 mov	 esp, ebp
  001b7	5d		 pop	 ebp
  001b8	c2 08 00	 ret	 8
?AddBot@CRace@@QAEXHPAURENDER_DATA_INFO@CFileRenderObject@@@Z ENDP ; CRace::AddBot
_TEXT	ENDS
PUBLIC	?EnableHUDs@CRace@@QAEHH@Z			; CRace::EnableHUDs
EXTRN	?EnableHUD@CUserFighter@@QAEHH@Z:NEAR		; CUserFighter::EnableHUD
EXTRN	?Enable@CHUDText@@QAEHH@Z:NEAR			; CHUDText::Enable
; Function compile flags: /Odt /RTCsu /ZI
;	COMDAT ?EnableHUDs@CRace@@QAEHH@Z
_TEXT	SEGMENT
_this$ = -8
_bActive$ = 8
?EnableHUDs@CRace@@QAEHH@Z PROC NEAR			; CRace::EnableHUDs, COMDAT
; _this$ = ecx

; 265  : 	{

  00000	55		 push	 ebp
  00001	8b ec		 mov	 ebp, esp
  00003	81 ec cc 00 00
	00		 sub	 esp, 204		; 000000ccH
  00009	53		 push	 ebx
  0000a	56		 push	 esi
  0000b	57		 push	 edi
  0000c	51		 push	 ecx
  0000d	8d bd 34 ff ff
	ff		 lea	 edi, DWORD PTR [ebp-204]
  00013	b9 33 00 00 00	 mov	 ecx, 51			; 00000033H
  00018	b8 cc cc cc cc	 mov	 eax, -858993460		; ccccccccH
  0001d	f3 ab		 rep stosd
  0001f	59		 pop	 ecx
  00020	89 4d f8	 mov	 DWORD PTR _this$[ebp], ecx

; 266  : 		if( m_pHUDLevel )

  00023	8b 45 f8	 mov	 eax, DWORD PTR _this$[ebp]
  00026	83 b8 fc 00 00
	00 00		 cmp	 DWORD PTR [eax+252], 0
  0002d	74 12		 je	 SHORT $L93841

; 267  : 			m_pHUDLevel->Enable( bActive );

  0002f	8b 45 08	 mov	 eax, DWORD PTR _bActive$[ebp]
  00032	50		 push	 eax
  00033	8b 4d f8	 mov	 ecx, DWORD PTR _this$[ebp]
  00036	8b 89 fc 00 00
	00		 mov	 ecx, DWORD PTR [ecx+252]
  0003c	e8 00 00 00 00	 call	 ?Enable@CHUDText@@QAEHH@Z ; CHUDText::Enable
$L93841:

; 268  : 		if( m_pHUDElapsedTime )

  00041	8b 45 f8	 mov	 eax, DWORD PTR _this$[ebp]
  00044	83 b8 0c 01 00
	00 00		 cmp	 DWORD PTR [eax+268], 0
  0004b	74 12		 je	 SHORT $L93842

; 269  : 			m_pHUDElapsedTime->Enable( bActive );

  0004d	8b 45 08	 mov	 eax, DWORD PTR _bActive$[ebp]
  00050	50		 push	 eax
  00051	8b 4d f8	 mov	 ecx, DWORD PTR _this$[ebp]
  00054	8b 89 0c 01 00
	00		 mov	 ecx, DWORD PTR [ecx+268]
  0005a	e8 00 00 00 00	 call	 ?Enable@CHUDText@@QAEHH@Z ; CHUDText::Enable
$L93842:

; 270  : 
; 271  : 		m_pFighter->EnableHUD( bActive );

  0005f	8b 45 08	 mov	 eax, DWORD PTR _bActive$[ebp]
  00062	50		 push	 eax
  00063	8b 4d f8	 mov	 ecx, DWORD PTR _this$[ebp]
  00066	8b 49 30	 mov	 ecx, DWORD PTR [ecx+48]
  00069	e8 00 00 00 00	 call	 ?EnableHUD@CUserFighter@@QAEHH@Z ; CUserFighter::EnableHUD

; 272  : 	}

  0006e	5f		 pop	 edi
  0006f	5e		 pop	 esi
  00070	5b		 pop	 ebx
  00071	81 c4 cc 00 00
	00		 add	 esp, 204		; 000000ccH
  00077	3b ec		 cmp	 ebp, esp
  00079	e8 00 00 00 00	 call	 __RTC_CheckEsp
  0007e	8b e5		 mov	 esp, ebp
  00080	5d		 pop	 ebp
  00081	c2 04 00	 ret	 4
?EnableHUDs@CRace@@QAEHH@Z ENDP				; CRace::EnableHUDs
_TEXT	ENDS
PUBLIC	__real@40800000
PUBLIC	__real@40400000
PUBLIC	??0D3DXCOLOR@@QAE@MMMM@Z			; D3DXCOLOR::D3DXCOLOR
PUBLIC	?RestoreDeviceObjects@CRace@@QAEJPAUIDirect3D8@@PAUIDirect3DDevice8@@MPAVCScreenOverlayManager@@PAVCTextures@@@Z ; CRace::RestoreDeviceObjects
PUBLIC	?__LINE__Var@?1??RestoreDeviceObjects@CRace@@QAEJPAUIDirect3D8@@PAUIDirect3DDevice8@@MPAVCScreenOverlayManager@@PAVCTextures@@@Z@4JA ; `CRace::RestoreDeviceObjects'::`2'::__LINE__Var
PUBLIC	??_C@_0M@NKNCPJJD@?$CBFAILED?$CIhr?$CJ?$AA@	; `string'
PUBLIC	??_C@_0DP@CGFKKDCM@?$CK?$CK?$CKFighter?5position?3?5?$CF0?41f?0?5?$CF0?41@ ; `string'
PUBLIC	??_C@_07BJBAAHKG@m_pBots?$AA@			; `string'
PUBLIC	??_C@_0DL@IDIEINAG@?$CK?$CK?$CKBot?5position?3?5?$CF0?41f?0?5?$CF0?41f?0?5?$CF@ ; `string'
EXTRN	?RegisterNewOverlay@CScreenOverlayManager@@QAEHPAVCScreenOverlay@@@Z:NEAR ; CScreenOverlayManager::RegisterNewOverlay
EXTRN	?SetLargestSide@CFileRenderObject@@QAEXM@Z:NEAR	; CFileRenderObject::SetLargestSide
EXTRN	__ftol2:NEAR
EXTRN	?RestoreDeviceObjects@CUserFighter@@QAEJPAUIDirect3D8@@PAUIDirect3DDevice8@@PAVCScreenOverlayManager@@PAVCTextures@@M@Z:NEAR ; CUserFighter::RestoreDeviceObjects
EXTRN	?RestoreDeviceObjects@CBotFighter@@QAEJPAUIDirect3D8@@PAUIDirect3DDevice8@@PAVCScreenOverlayManager@@PAVCTextures@@M@Z:NEAR ; CBotFighter::RestoreDeviceObjects
EXTRN	?RestoreDeviceObjects@CSky@@QAEJPAUIDirect3D8@@PAUIDirect3DDevice8@@@Z:NEAR ; CSky::RestoreDeviceObjects
EXTRN	?RestoreDeviceObjects@CHUDText@@QAEJPAUIDirect3DDevice8@@MPAVCScreenOverlayManager@@PAVCTextures@@@Z:NEAR ; CHUDText::RestoreDeviceObjects
EXTRN	?LERPdY@CTerrain@@QAEXMMPAMPAHPAUD3DXVECTOR3@@@Z:NEAR ; CTerrain::LERPdY
EXTRN	?RestoreDeviceObjects@CTerrain@@QAEJPAUIDirect3D8@@PAUIDirect3DDevice8@@@Z:NEAR ; CTerrain::RestoreDeviceObjects
EXTRN	??0CScreenOverlay@@QAE@PAUIDirect3DTexture8@@MMMMMMPAUD3DXCOLOR@@111H@Z:NEAR ; CScreenOverlay::CScreenOverlay
EXTRN	?RestoreDeviceObjects@COcean@@QAEJPAUIDirect3D8@@PAUIDirect3DDevice8@@@Z:NEAR ; COcean::RestoreDeviceObjects
EXTRN	?SetPositionFromValues@CFighter@@QAEXMMM@Z:NEAR	; CFighter::SetPositionFromValues
;	COMDAT ?__LINE__Var@?1??RestoreDeviceObjects@CRace@@QAEJPAUIDirect3D8@@PAUIDirect3DDevice8@@MPAVCScreenOverlayManager@@PAVCTextures@@@Z@4JA
_DATA	SEGMENT
?__LINE__Var@?1??RestoreDeviceObjects@CRace@@QAEJPAUIDirect3D8@@PAUIDirect3DDevice8@@MPAVCScreenOverlayManager@@PAVCTextures@@@Z@4JA DD 0118H ; `CRace::RestoreDeviceObjects'::`2'::__LINE__Var
_DATA	ENDS
;	COMDAT ??_C@_0M@NKNCPJJD@?$CBFAILED?$CIhr?$CJ?$AA@
CONST	SEGMENT
??_C@_0M@NKNCPJJD@?$CBFAILED?$CIhr?$CJ?$AA@ DB '!FAILED(hr)', 00H ; `string'
CONST	ENDS
;	COMDAT __real@40800000
CONST	SEGMENT
__real@40800000 DD 040800000r			; 4
CONST	ENDS
;	COMDAT ??_C@_0DP@CGFKKDCM@?$CK?$CK?$CKFighter?5position?3?5?$CF0?41f?0?5?$CF0?41@
CONST	SEGMENT
??_C@_0DP@CGFKKDCM@?$CK?$CK?$CKFighter?5position?3?5?$CF0?41f?0?5?$CF0?41@ DB '*'
	DB	'**Fighter position: %0.1f, %0.1f, %0.1f [fighter size=%0.1f]', 0aH
	DB	00H						; `string'
CONST	ENDS
;	COMDAT ??_C@_07BJBAAHKG@m_pBots?$AA@
CONST	SEGMENT
??_C@_07BJBAAHKG@m_pBots?$AA@ DB 'm_pBots', 00H		; `string'
CONST	ENDS
;	COMDAT __real@40400000
CONST	SEGMENT
__real@40400000 DD 040400000r			; 3
CONST	ENDS
;	COMDAT ??_C@_0DL@IDIEINAG@?$CK?$CK?$CKBot?5position?3?5?$CF0?41f?0?5?$CF0?41f?0?5?$CF@
CONST	SEGMENT
??_C@_0DL@IDIEINAG@?$CK?$CK?$CKBot?5position?3?5?$CF0?41f?0?5?$CF0?41f?0?5?$CF@ DB '*'
	DB	'**Bot position: %0.1f, %0.1f, %0.1f [fighter size=%0.1f]', 0aH
	DB	00H						; `string'
; Function compile flags: /Odt /RTCsu /ZI
CONST	ENDS
;	COMDAT ?RestoreDeviceObjects@CRace@@QAEJPAUIDirect3D8@@PAUIDirect3DDevice8@@MPAVCScreenOverlayManager@@PAVCTextures@@@Z
_TEXT	SEGMENT
tv587 = -332
tv576 = -328
tv566 = -320
tv521 = -320
tv520 = -316
tv142 = -316
$T94364 = -308
_f$93895 = -104
_pBot$ = -92
_y$93884 = -80
_b$93883 = -68
_n$93880 = -56
_c$ = -44
_hr$ = -20
_this$ = -8
_pD3D$ = 8
_pDev$ = 12
_fAspect$ = 16
_pOM$ = 20
_pTex$ = 24
?RestoreDeviceObjects@CRace@@QAEJPAUIDirect3D8@@PAUIDirect3DDevice8@@MPAVCScreenOverlayManager@@PAVCTextures@@@Z PROC NEAR ; CRace::RestoreDeviceObjects, COMDAT
; _this$ = ecx

; 280  : 	{

  00000	55		 push	 ebp
  00001	8b ec		 mov	 ebp, esp
  00003	81 ec 4c 01 00
	00		 sub	 esp, 332		; 0000014cH
  00009	53		 push	 ebx
  0000a	56		 push	 esi
  0000b	57		 push	 edi
  0000c	51		 push	 ecx
  0000d	8d bd b4 fe ff
	ff		 lea	 edi, DWORD PTR [ebp-332]
  00013	b9 53 00 00 00	 mov	 ecx, 83			; 00000053H
  00018	b8 cc cc cc cc	 mov	 eax, -858993460		; ccccccccH
  0001d	f3 ab		 rep stosd
  0001f	59		 pop	 ecx
  00020	89 4d f8	 mov	 DWORD PTR _this$[ebp], ecx

; 281  : #ifdef FULL_DBG_TRACE 
; 282  : 	ods( "CRace::RestoreDeviceObjects\n" );
; 283  : #endif
; 284  : 
; 285  : 		HRESULT hr ;
; 286  : 
; 287  : 	// shared particle system VB;
; 288  : 		hr = pDev->CreateVertexBuffer( 3000 *
; 289  : 			sizeof(POINTSPRITEVERTEX), D3DUSAGE_DYNAMIC | D3DUSAGE_WRITEONLY | D3DUSAGE_POINTS, 
; 290  : 			MYFVF_POINTSPRITEVERTEX, D3DPOOL_DEFAULT, &m_pSharedParticleSystemVB ) ;

  00023	8b 45 f8	 mov	 eax, DWORD PTR _this$[ebp]
  00026	05 10 01 00 00	 add	 eax, 272		; 00000110H
  0002b	8b f4		 mov	 esi, esp
  0002d	50		 push	 eax
  0002e	6a 00		 push	 0
  00030	6a 42		 push	 66			; 00000042H
  00032	68 48 02 00 00	 push	 584			; 00000248H
  00037	68 80 bb 00 00	 push	 48000			; 0000bb80H
  0003c	8b 4d 0c	 mov	 ecx, DWORD PTR _pDev$[ebp]
  0003f	8b 11		 mov	 edx, DWORD PTR [ecx]
  00041	8b 45 0c	 mov	 eax, DWORD PTR _pDev$[ebp]
  00044	50		 push	 eax
  00045	ff 52 5c	 call	 DWORD PTR [edx+92]
  00048	3b f4		 cmp	 esi, esp
  0004a	e8 00 00 00 00	 call	 __RTC_CheckEsp
  0004f	89 45 ec	 mov	 DWORD PTR _hr$[ebp], eax

; 291  : 		assert( !FAILED(hr) );

  00052	83 7d ec 00	 cmp	 DWORD PTR _hr$[ebp], 0
  00056	7d 1b		 jge	 SHORT $L94363
  00058	a1 00 00 00 00	 mov	 eax, DWORD PTR ?__LINE__Var@?1??RestoreDeviceObjects@CRace@@QAEJPAUIDirect3D8@@PAUIDirect3DDevice8@@MPAVCScreenOverlayManager@@PAVCTextures@@@Z@4JA
  0005d	83 c0 0b	 add	 eax, 11			; 0000000bH
  00060	50		 push	 eax
  00061	68 00 00 00 00	 push	 OFFSET FLAT:??_C@_0EH@BJEPPDK@c?3?2documents?5and?5settings?2dom?2my@
  00066	68 00 00 00 00	 push	 OFFSET FLAT:??_C@_0M@NKNCPJJD@?$CBFAILED?$CIhr?$CJ?$AA@
  0006b	e8 00 00 00 00	 call	 __assert
  00070	83 c4 0c	 add	 esp, 12			; 0000000cH
$L94363:

; 292  : 
; 293  : 	// overlays;
; 294  : 		pOM->m_bVBLocked = TRUE ;

  00073	8b 45 14	 mov	 eax, DWORD PTR _pOM$[ebp]
  00076	c7 80 08 02 00
	00 01 00 00 00	 mov	 DWORD PTR [eax+520], 1

; 295  : 
; 296  : 		D3DXCOLOR c = D3DXCOLOR( m_OceanColour.r, m_OceanColour.g, m_OceanColour.b, 0.3f );

  00080	68 9a 99 99 3e	 push	 1050253722		; 3e99999aH
  00085	8b 45 f8	 mov	 eax, DWORD PTR _this$[ebp]
  00088	8b 48 44	 mov	 ecx, DWORD PTR [eax+68]
  0008b	51		 push	 ecx
  0008c	8b 55 f8	 mov	 edx, DWORD PTR _this$[ebp]
  0008f	8b 42 40	 mov	 eax, DWORD PTR [edx+64]
  00092	50		 push	 eax
  00093	8b 4d f8	 mov	 ecx, DWORD PTR _this$[ebp]
  00096	8b 51 3c	 mov	 edx, DWORD PTR [ecx+60]
  00099	52		 push	 edx
  0009a	8d 4d d4	 lea	 ecx, DWORD PTR _c$[ebp]
  0009d	e8 00 00 00 00	 call	 ??0D3DXCOLOR@@QAE@MMMM@Z ; D3DXCOLOR::D3DXCOLOR

; 297  : 		m_pUnderWaterQuad = new CScreenOverlay( NULL, 1.0f, -0.5f, -0.5f, 0.0f, 2.0f, 2.0f, &c, &c, &c, &c, OT_FULLSCREENQUAD );

  000a2	68 d4 00 00 00	 push	 212			; 000000d4H
  000a7	e8 00 00 00 00	 call	 ??2@YAPAXI@Z		; operator new
  000ac	83 c4 04	 add	 esp, 4
  000af	89 85 cc fe ff
	ff		 mov	 DWORD PTR $T94364[ebp], eax
  000b5	83 bd cc fe ff
	ff 00		 cmp	 DWORD PTR $T94364[ebp], 0
  000bc	74 42		 je	 SHORT $L94365
  000be	6a 0b		 push	 11			; 0000000bH
  000c0	8d 45 d4	 lea	 eax, DWORD PTR _c$[ebp]
  000c3	50		 push	 eax
  000c4	8d 4d d4	 lea	 ecx, DWORD PTR _c$[ebp]
  000c7	51		 push	 ecx
  000c8	8d 55 d4	 lea	 edx, DWORD PTR _c$[ebp]
  000cb	52		 push	 edx
  000cc	8d 45 d4	 lea	 eax, DWORD PTR _c$[ebp]
  000cf	50		 push	 eax
  000d0	68 00 00 00 40	 push	 1073741824		; 40000000H
  000d5	68 00 00 00 40	 push	 1073741824		; 40000000H
  000da	6a 00		 push	 0
  000dc	68 00 00 00 bf	 push	 -1090519040		; bf000000H
  000e1	68 00 00 00 bf	 push	 -1090519040		; bf000000H
  000e6	68 00 00 80 3f	 push	 1065353216		; 3f800000H
  000eb	6a 00		 push	 0
  000ed	8b 8d cc fe ff
	ff		 mov	 ecx, DWORD PTR $T94364[ebp]
  000f3	e8 00 00 00 00	 call	 ??0CScreenOverlay@@QAE@PAUIDirect3DTexture8@@MMMMMMPAUD3DXCOLOR@@111H@Z ; CScreenOverlay::CScreenOverlay
  000f8	89 85 c4 fe ff
	ff		 mov	 DWORD PTR tv142[ebp], eax
  000fe	eb 0a		 jmp	 SHORT $L94366
$L94365:
  00100	c7 85 c4 fe ff
	ff 00 00 00 00	 mov	 DWORD PTR tv142[ebp], 0
$L94366:
  0010a	8b 4d f8	 mov	 ecx, DWORD PTR _this$[ebp]
  0010d	8b 95 c4 fe ff
	ff		 mov	 edx, DWORD PTR tv142[ebp]
  00113	89 51 4c	 mov	 DWORD PTR [ecx+76], edx

; 298  : 		pOM->RegisterNewOverlay( m_pUnderWaterQuad );

  00116	8b 45 f8	 mov	 eax, DWORD PTR _this$[ebp]
  00119	8b 48 4c	 mov	 ecx, DWORD PTR [eax+76]
  0011c	51		 push	 ecx
  0011d	8b 4d 14	 mov	 ecx, DWORD PTR _pOM$[ebp]
  00120	e8 00 00 00 00	 call	 ?RegisterNewOverlay@CScreenOverlayManager@@QAEHPAVCScreenOverlay@@@Z ; CScreenOverlayManager::RegisterNewOverlay

; 299  : 		m_pUnderWaterQuad->m_bActive = FALSE ;

  00125	8b 45 f8	 mov	 eax, DWORD PTR _this$[ebp]
  00128	8b 48 4c	 mov	 ecx, DWORD PTR [eax+76]
  0012b	c7 81 84 00 00
	00 00 00 00 00	 mov	 DWORD PTR [ecx+132], 0

; 300  : 		m_pUnderWaterQuad->m_pSharedVB = pOM->m_pVB ;

  00135	8b 45 f8	 mov	 eax, DWORD PTR _this$[ebp]
  00138	8b 48 4c	 mov	 ecx, DWORD PTR [eax+76]
  0013b	8b 55 14	 mov	 edx, DWORD PTR _pOM$[ebp]
  0013e	8b 82 00 02 00
	00		 mov	 eax, DWORD PTR [edx+512]
  00144	89 41 04	 mov	 DWORD PTR [ecx+4], eax

; 301  : 		m_pUnderWaterQuad->RestoreDeviceObjects( pDev, fAspect );

  00147	8b f4		 mov	 esi, esp
  00149	8b 45 10	 mov	 eax, DWORD PTR _fAspect$[ebp]
  0014c	50		 push	 eax
  0014d	8b 4d 0c	 mov	 ecx, DWORD PTR _pDev$[ebp]
  00150	51		 push	 ecx
  00151	8b 55 f8	 mov	 edx, DWORD PTR _this$[ebp]
  00154	8b 42 4c	 mov	 eax, DWORD PTR [edx+76]
  00157	8b 4d f8	 mov	 ecx, DWORD PTR _this$[ebp]
  0015a	8b 49 4c	 mov	 ecx, DWORD PTR [ecx+76]
  0015d	8b 10		 mov	 edx, DWORD PTR [eax]
  0015f	ff 52 04	 call	 DWORD PTR [edx+4]
  00162	3b f4		 cmp	 esi, esp
  00164	e8 00 00 00 00	 call	 __RTC_CheckEsp

; 302  : 
; 303  : 		pOM->m_bVBLocked = FALSE ;

  00169	8b 45 14	 mov	 eax, DWORD PTR _pOM$[ebp]
  0016c	c7 80 08 02 00
	00 00 00 00 00	 mov	 DWORD PTR [eax+520], 0

; 304  : 
; 305  : 		if( m_pHUDLevel )

  00176	8b 45 f8	 mov	 eax, DWORD PTR _this$[ebp]
  00179	83 b8 fc 00 00
	00 00		 cmp	 DWORD PTR [eax+252], 0
  00180	74 2e		 je	 SHORT $L93861

; 306  : 		{
; 307  : 			m_pHUDLevel->RestoreDeviceObjects( pDev, fAspect, pOM, pTex );

  00182	8b 45 18	 mov	 eax, DWORD PTR _pTex$[ebp]
  00185	50		 push	 eax
  00186	8b 4d 14	 mov	 ecx, DWORD PTR _pOM$[ebp]
  00189	51		 push	 ecx
  0018a	8b 55 10	 mov	 edx, DWORD PTR _fAspect$[ebp]
  0018d	52		 push	 edx
  0018e	8b 45 0c	 mov	 eax, DWORD PTR _pDev$[ebp]
  00191	50		 push	 eax
  00192	8b 4d f8	 mov	 ecx, DWORD PTR _this$[ebp]
  00195	8b 89 fc 00 00
	00		 mov	 ecx, DWORD PTR [ecx+252]
  0019b	e8 00 00 00 00	 call	 ?RestoreDeviceObjects@CHUDText@@QAEJPAUIDirect3DDevice8@@MPAVCScreenOverlayManager@@PAVCTextures@@@Z ; CHUDText::RestoreDeviceObjects

; 308  : 			m_pHUDLevel->Enable( TRUE );

  001a0	6a 01		 push	 1
  001a2	8b 45 f8	 mov	 eax, DWORD PTR _this$[ebp]
  001a5	8b 88 fc 00 00
	00		 mov	 ecx, DWORD PTR [eax+252]
  001ab	e8 00 00 00 00	 call	 ?Enable@CHUDText@@QAEHH@Z ; CHUDText::Enable
$L93861:

; 309  : 		}
; 310  : 		if( m_pHUDElapsedTime )

  001b0	8b 45 f8	 mov	 eax, DWORD PTR _this$[ebp]
  001b3	83 b8 0c 01 00
	00 00		 cmp	 DWORD PTR [eax+268], 0
  001ba	74 2e		 je	 SHORT $L93862

; 311  : 		{
; 312  : 			m_pHUDElapsedTime->RestoreDeviceObjects( pDev, fAspect, pOM, pTex );

  001bc	8b 45 18	 mov	 eax, DWORD PTR _pTex$[ebp]
  001bf	50		 push	 eax
  001c0	8b 4d 14	 mov	 ecx, DWORD PTR _pOM$[ebp]
  001c3	51		 push	 ecx
  001c4	8b 55 10	 mov	 edx, DWORD PTR _fAspect$[ebp]
  001c7	52		 push	 edx
  001c8	8b 45 0c	 mov	 eax, DWORD PTR _pDev$[ebp]
  001cb	50		 push	 eax
  001cc	8b 4d f8	 mov	 ecx, DWORD PTR _this$[ebp]
  001cf	8b 89 0c 01 00
	00		 mov	 ecx, DWORD PTR [ecx+268]
  001d5	e8 00 00 00 00	 call	 ?RestoreDeviceObjects@CHUDText@@QAEJPAUIDirect3DDevice8@@MPAVCScreenOverlayManager@@PAVCTextures@@@Z ; CHUDText::RestoreDeviceObjects

; 313  : 			m_pHUDElapsedTime->Enable( TRUE );

  001da	6a 01		 push	 1
  001dc	8b 45 f8	 mov	 eax, DWORD PTR _this$[ebp]
  001df	8b 88 0c 01 00
	00		 mov	 ecx, DWORD PTR [eax+268]
  001e5	e8 00 00 00 00	 call	 ?Enable@CHUDText@@QAEHH@Z ; CHUDText::Enable
$L93862:

; 314  : 		}
; 315  : 
; 316  : 		if (m_pTerrain)

  001ea	8b 45 f8	 mov	 eax, DWORD PTR _this$[ebp]
  001ed	83 78 24 00	 cmp	 DWORD PTR [eax+36], 0
  001f1	74 3b		 je	 SHORT $L93863

; 317  : 		{
; 318  : 			strcpy(m_pX7->m_szLoadingGameInfo1, "m_pTerrain") ;

  001f3	68 00 00 00 00	 push	 OFFSET FLAT:??_C@_0L@EFHMCMMH@m_pTerrain?$AA@
  001f8	8b 45 f8	 mov	 eax, DWORD PTR _this$[ebp]
  001fb	8b 48 38	 mov	 ecx, DWORD PTR [eax+56]
  001fe	81 c1 31 a8 02
	00		 add	 ecx, 174129		; 0002a831H
  00204	51		 push	 ecx
  00205	e8 00 00 00 00	 call	 _strcpy
  0020a	83 c4 08	 add	 esp, 8

; 319  : 			if (FAILED(m_pTerrain->RestoreDeviceObjects(pD3D, pDev))) return E_FAIL ;

  0020d	8b 45 0c	 mov	 eax, DWORD PTR _pDev$[ebp]
  00210	50		 push	 eax
  00211	8b 4d 08	 mov	 ecx, DWORD PTR _pD3D$[ebp]
  00214	51		 push	 ecx
  00215	8b 55 f8	 mov	 edx, DWORD PTR _this$[ebp]
  00218	8b 4a 24	 mov	 ecx, DWORD PTR [edx+36]
  0021b	e8 00 00 00 00	 call	 ?RestoreDeviceObjects@CTerrain@@QAEJPAUIDirect3D8@@PAUIDirect3DDevice8@@@Z ; CTerrain::RestoreDeviceObjects
  00220	85 c0		 test	 eax, eax
  00222	7d 0a		 jge	 SHORT $L93863
  00224	b8 05 40 00 80	 mov	 eax, -2147467259	; 80004005H
  00229	e9 be 03 00 00	 jmp	 $L93850
$L93863:

; 320  : 		}
; 321  : 		
; 322  : 		if (m_pSky)

  0022e	8b 45 f8	 mov	 eax, DWORD PTR _this$[ebp]
  00231	83 78 28 00	 cmp	 DWORD PTR [eax+40], 0
  00235	74 3b		 je	 SHORT $L93867

; 323  : 		{
; 324  : 			strcpy(m_pX7->m_szLoadingGameInfo1, "m_pSky") ;

  00237	68 00 00 00 00	 push	 OFFSET FLAT:??_C@_06OPDPBBHL@m_pSky?$AA@
  0023c	8b 45 f8	 mov	 eax, DWORD PTR _this$[ebp]
  0023f	8b 48 38	 mov	 ecx, DWORD PTR [eax+56]
  00242	81 c1 31 a8 02
	00		 add	 ecx, 174129		; 0002a831H
  00248	51		 push	 ecx
  00249	e8 00 00 00 00	 call	 _strcpy
  0024e	83 c4 08	 add	 esp, 8

; 325  : 			if (FAILED(m_pSky->RestoreDeviceObjects(pD3D, pDev))) return E_FAIL ;

  00251	8b 45 0c	 mov	 eax, DWORD PTR _pDev$[ebp]
  00254	50		 push	 eax
  00255	8b 4d 08	 mov	 ecx, DWORD PTR _pD3D$[ebp]
  00258	51		 push	 ecx
  00259	8b 55 f8	 mov	 edx, DWORD PTR _this$[ebp]
  0025c	8b 4a 28	 mov	 ecx, DWORD PTR [edx+40]
  0025f	e8 00 00 00 00	 call	 ?RestoreDeviceObjects@CSky@@QAEJPAUIDirect3D8@@PAUIDirect3DDevice8@@@Z ; CSky::RestoreDeviceObjects
  00264	85 c0		 test	 eax, eax
  00266	7d 0a		 jge	 SHORT $L93867
  00268	b8 05 40 00 80	 mov	 eax, -2147467259	; 80004005H
  0026d	e9 7a 03 00 00	 jmp	 $L93850
$L93867:

; 326  : 		}
; 327  : 
; 328  : 		/*if (m_pSkyDome)
; 329  : 		{
; 330  : 			strcpy(m_pX7->m_szLoadingGameInfo1, "m_pSkyDome") ;
; 331  : 			if (FAILED(m_pSkyDome->RestoreDeviceObjects(pD3D, pDev))) return E_FAIL ;
; 332  : 		}*/
; 333  : 
; 334  : 		if (m_pOcean)

  00272	8b 45 f8	 mov	 eax, DWORD PTR _this$[ebp]
  00275	83 78 34 00	 cmp	 DWORD PTR [eax+52], 0
  00279	74 3b		 je	 SHORT $L93871

; 335  : 		{
; 336  : 			strcpy(m_pX7->m_szLoadingGameInfo1, "m_pOcean") ;

  0027b	68 00 00 00 00	 push	 OFFSET FLAT:??_C@_08EKLLOJMI@m_pOcean?$AA@
  00280	8b 45 f8	 mov	 eax, DWORD PTR _this$[ebp]
  00283	8b 48 38	 mov	 ecx, DWORD PTR [eax+56]
  00286	81 c1 31 a8 02
	00		 add	 ecx, 174129		; 0002a831H
  0028c	51		 push	 ecx
  0028d	e8 00 00 00 00	 call	 _strcpy
  00292	83 c4 08	 add	 esp, 8

; 337  : 			if (FAILED(m_pOcean->RestoreDeviceObjects(pD3D, pDev))) return E_FAIL ;

  00295	8b 45 0c	 mov	 eax, DWORD PTR _pDev$[ebp]
  00298	50		 push	 eax
  00299	8b 4d 08	 mov	 ecx, DWORD PTR _pD3D$[ebp]
  0029c	51		 push	 ecx
  0029d	8b 55 f8	 mov	 edx, DWORD PTR _this$[ebp]
  002a0	8b 4a 34	 mov	 ecx, DWORD PTR [edx+52]
  002a3	e8 00 00 00 00	 call	 ?RestoreDeviceObjects@COcean@@QAEJPAUIDirect3D8@@PAUIDirect3DDevice8@@@Z ; COcean::RestoreDeviceObjects
  002a8	85 c0		 test	 eax, eax
  002aa	7d 0a		 jge	 SHORT $L93871
  002ac	b8 05 40 00 80	 mov	 eax, -2147467259	; 80004005H
  002b1	e9 36 03 00 00	 jmp	 $L93850
$L93871:

; 338  : 		}
; 339  : 
; 340  : 	//
; 341  : 	// Fighters:
; 342  : 	//
; 343  : 		if( m_pFighter && m_pTerrain )

  002b6	8b 45 f8	 mov	 eax, DWORD PTR _this$[ebp]
  002b9	83 78 30 00	 cmp	 DWORD PTR [eax+48], 0
  002bd	0f 84 4f 01 00
	00		 je	 $L93875
  002c3	8b 45 f8	 mov	 eax, DWORD PTR _this$[ebp]
  002c6	83 78 24 00	 cmp	 DWORD PTR [eax+36], 0
  002ca	0f 84 42 01 00
	00		 je	 $L93875

; 344  : 		{
; 345  : 			strcpy(m_pX7->m_szLoadingGameInfo1, "m_pFighter") ;

  002d0	68 00 00 00 00	 push	 OFFSET FLAT:??_C@_0L@ENKDGPHK@m_pFighter?$AA@
  002d5	8b 45 f8	 mov	 eax, DWORD PTR _this$[ebp]
  002d8	8b 48 38	 mov	 ecx, DWORD PTR [eax+56]
  002db	81 c1 31 a8 02
	00		 add	 ecx, 174129		; 0002a831H
  002e1	51		 push	 ecx
  002e2	e8 00 00 00 00	 call	 _strcpy
  002e7	83 c4 08	 add	 esp, 8

; 346  : 			if (FAILED(m_pFighter->RestoreDeviceObjects(pD3D, pDev, m_pX7->m_pOverlayMan, m_pX7->m_pTextures, fAspect))) return E_FAIL ;

  002ea	8b 45 10	 mov	 eax, DWORD PTR _fAspect$[ebp]
  002ed	50		 push	 eax
  002ee	8b 4d f8	 mov	 ecx, DWORD PTR _this$[ebp]
  002f1	8b 51 38	 mov	 edx, DWORD PTR [ecx+56]
  002f4	8b 82 e8 a8 02
	00		 mov	 eax, DWORD PTR [edx+174312]
  002fa	50		 push	 eax
  002fb	8b 4d f8	 mov	 ecx, DWORD PTR _this$[ebp]
  002fe	8b 51 38	 mov	 edx, DWORD PTR [ecx+56]
  00301	8b 82 d8 a8 02
	00		 mov	 eax, DWORD PTR [edx+174296]
  00307	50		 push	 eax
  00308	8b 4d 0c	 mov	 ecx, DWORD PTR _pDev$[ebp]
  0030b	51		 push	 ecx
  0030c	8b 55 08	 mov	 edx, DWORD PTR _pD3D$[ebp]
  0030f	52		 push	 edx
  00310	8b 45 f8	 mov	 eax, DWORD PTR _this$[ebp]
  00313	8b 48 30	 mov	 ecx, DWORD PTR [eax+48]
  00316	e8 00 00 00 00	 call	 ?RestoreDeviceObjects@CUserFighter@@QAEJPAUIDirect3D8@@PAUIDirect3DDevice8@@PAVCScreenOverlayManager@@PAVCTextures@@M@Z ; CUserFighter::RestoreDeviceObjects
  0031b	85 c0		 test	 eax, eax
  0031d	7d 0a		 jge	 SHORT $L93877
  0031f	b8 05 40 00 80	 mov	 eax, -2147467259	; 80004005H
  00324	e9 c3 02 00 00	 jmp	 $L93850
$L93877:

; 347  : 
; 348  : 		// scale the fighter to a good size;
; 349  : 			m_pFighter->m_pFRO->SetLargestSide( m_fFighterSize );

  00329	8b 45 f8	 mov	 eax, DWORD PTR _this$[ebp]
  0032c	8b 88 ec 00 00
	00		 mov	 ecx, DWORD PTR [eax+236]
  00332	51		 push	 ecx
  00333	8b 55 f8	 mov	 edx, DWORD PTR _this$[ebp]
  00336	8b 42 30	 mov	 eax, DWORD PTR [edx+48]
  00339	8b 48 2c	 mov	 ecx, DWORD PTR [eax+44]
  0033c	e8 00 00 00 00	 call	 ?SetLargestSide@CFileRenderObject@@QAEXM@Z ; CFileRenderObject::SetLargestSide

; 350  : 			
; 351  : 			/*ods( "Fighter bbox center: %0.1f, %0.1f, %0.1f\n", m_pFighter->m_pFRO->m_pBBox->m_vCenter.x, m_pFighter->m_pFRO->m_pBBox->m_vCenter.y, m_pFighter->m_pFRO->m_pBBox->m_vCenter.z );
; 352  : 			ods( "Fighter bsrad: %0.1f\n", m_pFighter->m_pFRO->m_pRenderData->m_fBSphereRadius );
; 353  : 			ods( "Fighter orientation: %0.1f, %0.1f, %0.1f\n", m_pFighter->m_vOrientation.x, m_pFighter->m_vOrientation.y, m_pFighter->m_vOrientation.z );
; 354  : 			ods( "Fighter largest side: %0.1f\n", m_pFighter->m_pFRO->m_fLargestSide );				   
; 355  : 			ods( "Fighter scaled largest side: %0.1f\n", m_pFighter->m_pFRO->m_fScaledLargestSide );*/
; 356  : 
; 357  : 		// move the fighter to a random spawn location;
; 358  : 			if( !m_bDoneOneTimeSetup )

  00341	8b 45 f8	 mov	 eax, DWORD PTR _this$[ebp]
  00344	83 78 0c 00	 cmp	 DWORD PTR [eax+12], 0
  00348	0f 85 c4 00 00
	00		 jne	 $L93875

; 359  : 			{
; 360  : 				int n = (int)((float)(m_pTerrain->m_nSpawnPos-1) * rnd()) ;

  0034e	8b 45 f8	 mov	 eax, DWORD PTR _this$[ebp]
  00351	8b 48 24	 mov	 ecx, DWORD PTR [eax+36]
  00354	8b 91 f8 04 00
	00		 mov	 edx, DWORD PTR [ecx+1272]
  0035a	83 ea 01	 sub	 edx, 1
  0035d	89 95 c4 fe ff
	ff		 mov	 DWORD PTR tv520[ebp], edx
  00363	db 85 c4 fe ff
	ff		 fild	 DWORD PTR tv520[ebp]
  00369	d9 9d c0 fe ff
	ff		 fstp	 DWORD PTR tv521[ebp]
  0036f	e8 00 00 00 00	 call	 ?rnd@@YAMXZ		; rnd
  00374	d8 8d c0 fe ff
	ff		 fmul	 DWORD PTR tv521[ebp]
  0037a	e8 00 00 00 00	 call	 __ftol2
  0037f	89 45 c8	 mov	 DWORD PTR _n$93880[ebp], eax

; 361  : 
; 362  : 				/*m_pFighter->SetPositionFromValues( m_pTerrain->m_vSpawnPos[ n ].x,
; 363  : 												   m_pTerrain->m_vSpawnPos[ n ].y + m_fFighterSize * 4,
; 364  : 												   m_pTerrain->m_vSpawnPos[ n ].z );*/
; 365  : 
; 366  : 				// HACK:
; 367  : 				// position at exact center, every time
; 368  : 				BOOL b ;
; 369  : 				float y ;
; 370  : 				m_pTerrain->LERPdY( 0, 0, &y, &b, NULL );

  00382	6a 00		 push	 0
  00384	8d 45 bc	 lea	 eax, DWORD PTR _b$93883[ebp]
  00387	50		 push	 eax
  00388	8d 4d b0	 lea	 ecx, DWORD PTR _y$93884[ebp]
  0038b	51		 push	 ecx
  0038c	6a 00		 push	 0
  0038e	6a 00		 push	 0
  00390	8b 55 f8	 mov	 edx, DWORD PTR _this$[ebp]
  00393	8b 4a 24	 mov	 ecx, DWORD PTR [edx+36]
  00396	e8 00 00 00 00	 call	 ?LERPdY@CTerrain@@QAEXMMPAMPAHPAUD3DXVECTOR3@@@Z ; CTerrain::LERPdY

; 371  : 				m_pFighter->SetPositionFromValues( 0, y + m_fFighterSize * 4, 0 );

  0039b	6a 00		 push	 0
  0039d	8b 45 f8	 mov	 eax, DWORD PTR _this$[ebp]
  003a0	d9 80 ec 00 00
	00		 fld	 DWORD PTR [eax+236]
  003a6	d8 0d 00 00 00
	00		 fmul	 DWORD PTR __real@40800000
  003ac	d8 45 b0	 fadd	 DWORD PTR _y$93884[ebp]
  003af	51		 push	 ecx
  003b0	d9 1c 24	 fstp	 DWORD PTR [esp]
  003b3	6a 00		 push	 0
  003b5	8b 4d f8	 mov	 ecx, DWORD PTR _this$[ebp]
  003b8	8b 49 30	 mov	 ecx, DWORD PTR [ecx+48]
  003bb	e8 00 00 00 00	 call	 ?SetPositionFromValues@CFighter@@QAEXMMM@Z ; CFighter::SetPositionFromValues

; 372  : 				
; 373  : 				ods( "***Fighter position: %0.1f, %0.1f, %0.1f [fighter size=%0.1f]\n",
; 374  : 					 m_pFighter->m_vPosition.x,
; 375  : 					 m_pFighter->m_vPosition.y,
; 376  : 					 m_pFighter->m_vPosition.z,
; 377  : 					 m_fFighterSize );

  003c0	8b 45 f8	 mov	 eax, DWORD PTR _this$[ebp]
  003c3	d9 80 ec 00 00
	00		 fld	 DWORD PTR [eax+236]
  003c9	83 ec 08	 sub	 esp, 8
  003cc	dd 1c 24	 fstp	 QWORD PTR [esp]
  003cf	8b 4d f8	 mov	 ecx, DWORD PTR _this$[ebp]
  003d2	8b 51 30	 mov	 edx, DWORD PTR [ecx+48]
  003d5	d9 82 04 02 00
	00		 fld	 DWORD PTR [edx+516]
  003db	83 ec 08	 sub	 esp, 8
  003de	dd 1c 24	 fstp	 QWORD PTR [esp]
  003e1	8b 45 f8	 mov	 eax, DWORD PTR _this$[ebp]
  003e4	8b 48 30	 mov	 ecx, DWORD PTR [eax+48]
  003e7	d9 81 00 02 00
	00		 fld	 DWORD PTR [ecx+512]
  003ed	83 ec 08	 sub	 esp, 8
  003f0	dd 1c 24	 fstp	 QWORD PTR [esp]
  003f3	8b 55 f8	 mov	 edx, DWORD PTR _this$[ebp]
  003f6	8b 42 30	 mov	 eax, DWORD PTR [edx+48]
  003f9	d9 80 fc 01 00
	00		 fld	 DWORD PTR [eax+508]
  003ff	83 ec 08	 sub	 esp, 8
  00402	dd 1c 24	 fstp	 QWORD PTR [esp]
  00405	68 00 00 00 00	 push	 OFFSET FLAT:??_C@_0DP@CGFKKDCM@?$CK?$CK?$CKFighter?5position?3?5?$CF0?41f?0?5?$CF0?41@
  0040a	e8 00 00 00 00	 call	 ?ods@@YAXPADZZ		; ods
  0040f	83 c4 24	 add	 esp, 36			; 00000024H
$L93875:

; 378  : 
; 379  : 				//m_pFighter->SetPositionFromValues( 0, m_pTerrain->m_fLenSQ / 2, 0 );
; 380  : 			}
; 381  : 		}
; 382  : 
; 383  : 		BOT_FIGHTER* pBot = m_pBots ;

  00412	8b 45 f8	 mov	 eax, DWORD PTR _this$[ebp]
  00415	8b 48 14	 mov	 ecx, DWORD PTR [eax+20]
  00418	89 4d a4	 mov	 DWORD PTR _pBot$[ebp], ecx

; 384  : 		strcpy(m_pX7->m_szLoadingGameInfo1, "m_pBots") ;

  0041b	68 00 00 00 00	 push	 OFFSET FLAT:??_C@_07BJBAAHKG@m_pBots?$AA@
  00420	8b 45 f8	 mov	 eax, DWORD PTR _this$[ebp]
  00423	8b 48 38	 mov	 ecx, DWORD PTR [eax+56]
  00426	81 c1 31 a8 02
	00		 add	 ecx, 174129		; 0002a831H
  0042c	51		 push	 ecx
  0042d	e8 00 00 00 00	 call	 _strcpy
  00432	83 c4 08	 add	 esp, 8
$L93889:

; 385  : 		while( pBot )

  00435	83 7d a4 00	 cmp	 DWORD PTR _pBot$[ebp], 0
  00439	0f 84 a1 01 00
	00		 je	 $L93890

; 386  : 		{
; 387  : 			//
; 388  : 			// BIGBOTS
; 389  : 			//
; 390  : 			if (FAILED(pBot->pFighter->RestoreDeviceObjects(pD3D, pDev, m_pX7->m_pOverlayMan, m_pX7->m_pTextures, fAspect))) return E_FAIL ;

  0043f	8b 45 10	 mov	 eax, DWORD PTR _fAspect$[ebp]
  00442	50		 push	 eax
  00443	8b 4d f8	 mov	 ecx, DWORD PTR _this$[ebp]
  00446	8b 51 38	 mov	 edx, DWORD PTR [ecx+56]
  00449	8b 82 e8 a8 02
	00		 mov	 eax, DWORD PTR [edx+174312]
  0044f	50		 push	 eax
  00450	8b 4d f8	 mov	 ecx, DWORD PTR _this$[ebp]
  00453	8b 51 38	 mov	 edx, DWORD PTR [ecx+56]
  00456	8b 82 d8 a8 02
	00		 mov	 eax, DWORD PTR [edx+174296]
  0045c	50		 push	 eax
  0045d	8b 4d 0c	 mov	 ecx, DWORD PTR _pDev$[ebp]
  00460	51		 push	 ecx
  00461	8b 55 08	 mov	 edx, DWORD PTR _pD3D$[ebp]
  00464	52		 push	 edx
  00465	8b 45 a4	 mov	 eax, DWORD PTR _pBot$[ebp]
  00468	8b 48 04	 mov	 ecx, DWORD PTR [eax+4]
  0046b	e8 00 00 00 00	 call	 ?RestoreDeviceObjects@CBotFighter@@QAEJPAUIDirect3D8@@PAUIDirect3DDevice8@@PAVCScreenOverlayManager@@PAVCTextures@@M@Z ; CBotFighter::RestoreDeviceObjects
  00470	85 c0		 test	 eax, eax
  00472	7d 0a		 jge	 SHORT $L93892
  00474	b8 05 40 00 80	 mov	 eax, -2147467259	; 80004005H
  00479	e9 6e 01 00 00	 jmp	 $L93850
$L93892:

; 391  : 			pBot->pFighter->m_pFRO->SetLargestSide( m_fFighterSize * 3 );

  0047e	8b 45 f8	 mov	 eax, DWORD PTR _this$[ebp]
  00481	d9 80 ec 00 00
	00		 fld	 DWORD PTR [eax+236]
  00487	d8 0d 00 00 00
	00		 fmul	 DWORD PTR __real@40400000
  0048d	51		 push	 ecx
  0048e	d9 1c 24	 fstp	 DWORD PTR [esp]
  00491	8b 4d a4	 mov	 ecx, DWORD PTR _pBot$[ebp]
  00494	8b 51 04	 mov	 edx, DWORD PTR [ecx+4]
  00497	8b 4a 2c	 mov	 ecx, DWORD PTR [edx+44]
  0049a	e8 00 00 00 00	 call	 ?SetLargestSide@CFileRenderObject@@QAEXM@Z ; CFileRenderObject::SetLargestSide

; 392  : 		
; 393  : 		/*ods( "Bot bbox center: %0.1f, %0.1f, %0.1f\n", pBot->pFighter->m_pFRO->m_pBBox->m_vCenter.x, pBot->pFighter->m_pFRO->m_pBBox->m_vCenter.y, pBot->pFighter->m_pFRO->m_pBBox->m_vCenter.z );
; 394  : 		ods( "Bot bsrad: %0.1f\n", pBot->pFighter->m_pFRO->m_pRenderData->m_fBSphereRadius );
; 395  : 		ods( "Bot orientation: %0.1f, %0.1f, %0.1f\n", pBot->pFighter->m_vOrientation.x, pBot->pFighter->m_vOrientation.y, pBot->pFighter->m_vOrientation.z );
; 396  : 		ods( "Bot largest side: %0.1f\n", pBot->pFighter->m_pFRO->m_fLargestSide );				   
; 397  : 		ods( "Bot scaled largest side: %0.1f\n", pBot->pFighter->m_pFRO->m_fScaledLargestSide );*/
; 398  : 
; 399  : 			if( !m_bDoneOneTimeSetup )

  0049f	8b 45 f8	 mov	 eax, DWORD PTR _this$[ebp]
  004a2	83 78 0c 00	 cmp	 DWORD PTR [eax+12], 0
  004a6	0f 85 26 01 00
	00		 jne	 $L93894

; 400  : 			{
; 401  : 				float f = 3 ;

  004ac	c7 45 98 00 00
	40 40		 mov	 DWORD PTR _f$93895[ebp], 1077936128 ; 40400000H

; 402  : 
; 403  : 				pBot->pFighter->SetPositionFromValues( 
; 404  : 					m_pFighter->m_vPosition.x + m_fFighterSize * 2 * f * (pBot->dwID+1) * (pBot->dwID%2==0?+1:-1),
; 405  : 					m_pFighter->m_vPosition.y + m_fFighterSize * 2 * f,
; 406  : 					m_pFighter->m_vPosition.z - m_fFighterSize * 4 * f * (pBot->dwID+1) );

  004b3	8b 45 f8	 mov	 eax, DWORD PTR _this$[ebp]
  004b6	8b 48 30	 mov	 ecx, DWORD PTR [eax+48]
  004b9	8b 55 f8	 mov	 edx, DWORD PTR _this$[ebp]
  004bc	d9 82 ec 00 00
	00		 fld	 DWORD PTR [edx+236]
  004c2	d8 0d 00 00 00
	00		 fmul	 DWORD PTR __real@40800000
  004c8	d8 4d 98	 fmul	 DWORD PTR _f$93895[ebp]
  004cb	8b 45 a4	 mov	 eax, DWORD PTR _pBot$[ebp]
  004ce	8b 10		 mov	 edx, DWORD PTR [eax]
  004d0	83 c2 01	 add	 edx, 1
  004d3	89 95 c0 fe ff
	ff		 mov	 DWORD PTR tv566[ebp], edx
  004d9	c7 85 c4 fe ff
	ff 00 00 00 00	 mov	 DWORD PTR tv566[ebp+4], 0
  004e3	df ad c0 fe ff
	ff		 fild	 QWORD PTR tv566[ebp]
  004e9	de c9		 fmulp	 ST(1), ST(0)
  004eb	d8 a9 04 02 00
	00		 fsubr	 DWORD PTR [ecx+516]
  004f1	51		 push	 ecx
  004f2	d9 1c 24	 fstp	 DWORD PTR [esp]
  004f5	8b 45 f8	 mov	 eax, DWORD PTR _this$[ebp]
  004f8	8b 48 30	 mov	 ecx, DWORD PTR [eax+48]
  004fb	8b 55 f8	 mov	 edx, DWORD PTR _this$[ebp]
  004fe	d9 82 ec 00 00
	00		 fld	 DWORD PTR [edx+236]
  00504	dc c0		 fadd	 ST(0), ST(0)
  00506	d8 4d 98	 fmul	 DWORD PTR _f$93895[ebp]
  00509	d8 81 00 02 00
	00		 fadd	 DWORD PTR [ecx+512]
  0050f	51		 push	 ecx
  00510	d9 1c 24	 fstp	 DWORD PTR [esp]
  00513	8b 45 f8	 mov	 eax, DWORD PTR _this$[ebp]
  00516	8b 48 30	 mov	 ecx, DWORD PTR [eax+48]
  00519	8b 55 f8	 mov	 edx, DWORD PTR _this$[ebp]
  0051c	d9 82 ec 00 00
	00		 fld	 DWORD PTR [edx+236]
  00522	dc c0		 fadd	 ST(0), ST(0)
  00524	d8 4d 98	 fmul	 DWORD PTR _f$93895[ebp]
  00527	8b 45 a4	 mov	 eax, DWORD PTR _pBot$[ebp]
  0052a	8b 10		 mov	 edx, DWORD PTR [eax]
  0052c	83 c2 01	 add	 edx, 1
  0052f	89 95 b8 fe ff
	ff		 mov	 DWORD PTR tv576[ebp], edx
  00535	c7 85 bc fe ff
	ff 00 00 00 00	 mov	 DWORD PTR tv576[ebp+4], 0
  0053f	df ad b8 fe ff
	ff		 fild	 QWORD PTR tv576[ebp]
  00545	de c9		 fmulp	 ST(1), ST(0)
  00547	8b 45 a4	 mov	 eax, DWORD PTR _pBot$[ebp]
  0054a	8b 00		 mov	 eax, DWORD PTR [eax]
  0054c	33 d2		 xor	 edx, edx
  0054e	be 02 00 00 00	 mov	 esi, 2
  00553	f7 f6		 div	 esi
  00555	f7 da		 neg	 edx
  00557	1b d2		 sbb	 edx, edx
  00559	83 e2 fe	 and	 edx, -2			; fffffffeH
  0055c	83 c2 01	 add	 edx, 1
  0055f	89 95 b4 fe ff
	ff		 mov	 DWORD PTR tv587[ebp], edx
  00565	da 8d b4 fe ff
	ff		 fimul	 DWORD PTR tv587[ebp]
  0056b	d8 81 fc 01 00
	00		 fadd	 DWORD PTR [ecx+508]
  00571	51		 push	 ecx
  00572	d9 1c 24	 fstp	 DWORD PTR [esp]
  00575	8b 4d a4	 mov	 ecx, DWORD PTR _pBot$[ebp]
  00578	8b 49 04	 mov	 ecx, DWORD PTR [ecx+4]
  0057b	e8 00 00 00 00	 call	 ?SetPositionFromValues@CFighter@@QAEXMMM@Z ; CFighter::SetPositionFromValues

; 407  : 
; 408  : 				ods( "***Bot position: %0.1f, %0.1f, %0.1f [fighter size=%0.1f]\n",
; 409  : 					 pBot->pFighter->m_vPosition.x,
; 410  : 					 pBot->pFighter->m_vPosition.y,
; 411  : 					 pBot->pFighter->m_vPosition.z,
; 412  : 					 m_fFighterSize );

  00580	8b 45 f8	 mov	 eax, DWORD PTR _this$[ebp]
  00583	d9 80 ec 00 00
	00		 fld	 DWORD PTR [eax+236]
  00589	83 ec 08	 sub	 esp, 8
  0058c	dd 1c 24	 fstp	 QWORD PTR [esp]
  0058f	8b 4d a4	 mov	 ecx, DWORD PTR _pBot$[ebp]
  00592	8b 51 04	 mov	 edx, DWORD PTR [ecx+4]
  00595	d9 82 04 02 00
	00		 fld	 DWORD PTR [edx+516]
  0059b	83 ec 08	 sub	 esp, 8
  0059e	dd 1c 24	 fstp	 QWORD PTR [esp]
  005a1	8b 45 a4	 mov	 eax, DWORD PTR _pBot$[ebp]
  005a4	8b 48 04	 mov	 ecx, DWORD PTR [eax+4]
  005a7	d9 81 00 02 00
	00		 fld	 DWORD PTR [ecx+512]
  005ad	83 ec 08	 sub	 esp, 8
  005b0	dd 1c 24	 fstp	 QWORD PTR [esp]
  005b3	8b 55 a4	 mov	 edx, DWORD PTR _pBot$[ebp]
  005b6	8b 42 04	 mov	 eax, DWORD PTR [edx+4]
  005b9	d9 80 fc 01 00
	00		 fld	 DWORD PTR [eax+508]
  005bf	83 ec 08	 sub	 esp, 8
  005c2	dd 1c 24	 fstp	 QWORD PTR [esp]
  005c5	68 00 00 00 00	 push	 OFFSET FLAT:??_C@_0DL@IDIEINAG@?$CK?$CK?$CKBot?5position?3?5?$CF0?41f?0?5?$CF0?41f?0?5?$CF@
  005ca	e8 00 00 00 00	 call	 ?ods@@YAXPADZZ		; ods
  005cf	83 c4 24	 add	 esp, 36			; 00000024H
$L93894:

; 413  : 
; 414  : 			}
; 415  : 			pBot = pBot->pNext ;

  005d2	8b 45 a4	 mov	 eax, DWORD PTR _pBot$[ebp]
  005d5	8b 48 0c	 mov	 ecx, DWORD PTR [eax+12]
  005d8	89 4d a4	 mov	 DWORD PTR _pBot$[ebp], ecx

; 416  : 		}

  005db	e9 55 fe ff ff	 jmp	 $L93889
$L93890:

; 417  : 
; 418  : 		m_bDoneOneTimeSetup = TRUE ;

  005e0	8b 45 f8	 mov	 eax, DWORD PTR _this$[ebp]
  005e3	c7 40 0c 01 00
	00 00		 mov	 DWORD PTR [eax+12], 1

; 419  : 		return S_OK ;

  005ea	33 c0		 xor	 eax, eax
$L93850:

; 420  : 	}

  005ec	52		 push	 edx
  005ed	8b cd		 mov	 ecx, ebp
  005ef	50		 push	 eax
  005f0	8d 15 00 00 00
	00		 lea	 edx, DWORD PTR $L94376
  005f6	e8 00 00 00 00	 call	 @_RTC_CheckStackVars@8
  005fb	58		 pop	 eax
  005fc	5a		 pop	 edx
  005fd	5f		 pop	 edi
  005fe	5e		 pop	 esi
  005ff	5b		 pop	 ebx
  00600	81 c4 4c 01 00
	00		 add	 esp, 332		; 0000014cH
  00606	3b ec		 cmp	 ebp, esp
  00608	e8 00 00 00 00	 call	 __RTC_CheckEsp
  0060d	8b e5		 mov	 esp, ebp
  0060f	5d		 pop	 ebp
  00610	c2 14 00	 ret	 20			; 00000014H
$L94376:
  00613	03 00 00 00	 DD	 3
  00617	00 00 00 00	 DD	 $L94375
$L94375:
  0061b	d4 ff ff ff	 DD	 -44			; ffffffd4H
  0061f	10 00 00 00	 DD	 16			; 00000010H
  00623	00 00 00 00	 DD	 $L94372
  00627	bc ff ff ff	 DD	 -68			; ffffffbcH
  0062b	04 00 00 00	 DD	 4
  0062f	00 00 00 00	 DD	 $L94373
  00633	b0 ff ff ff	 DD	 -80			; ffffffb0H
  00637	04 00 00 00	 DD	 4
  0063b	00 00 00 00	 DD	 $L94374
$L94374:
  0063f	79		 DB	 121			; 00000079H
  00640	00		 DB	 0
$L94373:
  00641	62		 DB	 98			; 00000062H
  00642	00		 DB	 0
$L94372:
  00643	63		 DB	 99			; 00000063H
  00644	00		 DB	 0
?RestoreDeviceObjects@CRace@@QAEJPAUIDirect3D8@@PAUIDirect3DDevice8@@MPAVCScreenOverlayManager@@PAVCTextures@@@Z ENDP ; CRace::RestoreDeviceObjects
_TEXT	ENDS
EXTRN	_sqrt:NEAR
; Function compile flags: /Odt /RTCsu /ZI
; File c:\program files\microsoft visual studio .net\vc7\include\math.h
;	COMDAT _sqrtf
_TEXT	SEGMENT
tv70 = -196
__X$ = 8
_sqrtf	PROC NEAR					; COMDAT

; 470  :         {return ((float)sqrt((double)_X)); }

  00000	55		 push	 ebp
  00001	8b ec		 mov	 ebp, esp
  00003	81 ec c4 00 00
	00		 sub	 esp, 196		; 000000c4H
  00009	53		 push	 ebx
  0000a	56		 push	 esi
  0000b	57		 push	 edi
  0000c	8d bd 3c ff ff
	ff		 lea	 edi, DWORD PTR [ebp-196]
  00012	b9 31 00 00 00	 mov	 ecx, 49			; 00000031H
  00017	b8 cc cc cc cc	 mov	 eax, -858993460		; ccccccccH
  0001c	f3 ab		 rep stosd
  0001e	d9 45 08	 fld	 DWORD PTR __X$[ebp]
  00021	83 ec 08	 sub	 esp, 8
  00024	dd 1c 24	 fstp	 QWORD PTR [esp]
  00027	e8 00 00 00 00	 call	 _sqrt
  0002c	83 c4 08	 add	 esp, 8
  0002f	d9 95 3c ff ff
	ff		 fst	 DWORD PTR tv70[ebp]
  00035	5f		 pop	 edi
  00036	5e		 pop	 esi
  00037	5b		 pop	 ebx
  00038	81 c4 c4 00 00
	00		 add	 esp, 196		; 000000c4H
  0003e	3b ec		 cmp	 ebp, esp
  00040	e8 00 00 00 00	 call	 __RTC_CheckEsp
  00045	8b e5		 mov	 esp, ebp
  00047	5d		 pop	 ebp
  00048	c3		 ret	 0
_sqrtf	ENDP
; Function compile flags: /Odt /RTCsu /ZI
; File c:\dxsdk\include\d3dx8math.h
_TEXT	ENDS
;	COMDAT ??0D3DXCOLOR@@QAE@XZ
_TEXT	SEGMENT
_this$ = -8
??0D3DXCOLOR@@QAE@XZ PROC NEAR				; D3DXCOLOR::D3DXCOLOR, COMDAT
; _this$ = ecx

; 409  :     D3DXCOLOR() {}

  00000	55		 push	 ebp
  00001	8b ec		 mov	 ebp, esp
  00003	81 ec cc 00 00
	00		 sub	 esp, 204		; 000000ccH
  00009	53		 push	 ebx
  0000a	56		 push	 esi
  0000b	57		 push	 edi
  0000c	51		 push	 ecx
  0000d	8d bd 34 ff ff
	ff		 lea	 edi, DWORD PTR [ebp-204]
  00013	b9 33 00 00 00	 mov	 ecx, 51			; 00000033H
  00018	b8 cc cc cc cc	 mov	 eax, -858993460		; ccccccccH
  0001d	f3 ab		 rep stosd
  0001f	59		 pop	 ecx
  00020	89 4d f8	 mov	 DWORD PTR _this$[ebp], ecx
  00023	8b 45 f8	 mov	 eax, DWORD PTR _this$[ebp]
  00026	5f		 pop	 edi
  00027	5e		 pop	 esi
  00028	5b		 pop	 ebx
  00029	8b e5		 mov	 esp, ebp
  0002b	5d		 pop	 ebp
  0002c	c3		 ret	 0
??0D3DXCOLOR@@QAE@XZ ENDP				; D3DXCOLOR::D3DXCOLOR
_TEXT	ENDS
PUBLIC	?InvalidateDeviceObjects@CRace@@QAEJPAUIDirect3DDevice8@@@Z ; CRace::InvalidateDeviceObjects
EXTRN	?InvalidateDeviceObjects@CUserFighter@@QAEJPAUIDirect3DDevice8@@@Z:NEAR ; CUserFighter::InvalidateDeviceObjects
EXTRN	?InvalidateDeviceObjects@CBotFighter@@QAEJPAUIDirect3DDevice8@@@Z:NEAR ; CBotFighter::InvalidateDeviceObjects
EXTRN	?InvalidateDeviceObjects@CSky@@QAEJXZ:NEAR	; CSky::InvalidateDeviceObjects
EXTRN	?InvalidateDeviceObjects@CHUDText@@QAEJXZ:NEAR	; CHUDText::InvalidateDeviceObjects
EXTRN	?InvalidateDeviceObjects@CTerrain@@QAEJPAUIDirect3DDevice8@@@Z:NEAR ; CTerrain::InvalidateDeviceObjects
EXTRN	?InvalidateDeviceObjects@COcean@@QAEJXZ:NEAR	; COcean::InvalidateDeviceObjects
; Function compile flags: /Odt /RTCsu /ZI
; File c:\documents and settings\dom\my documents\_dev\ae\xlr8a\x7g\crace.cpp
;	COMDAT ?InvalidateDeviceObjects@CRace@@QAEJPAUIDirect3DDevice8@@@Z
_TEXT	SEGMENT
tv152 = -244
$T94384 = -236
$T94383 = -224
_pBot$ = -20
_this$ = -8
_pDev$ = 8
?InvalidateDeviceObjects@CRace@@QAEJPAUIDirect3DDevice8@@@Z PROC NEAR ; CRace::InvalidateDeviceObjects, COMDAT
; _this$ = ecx

; 422  : 	{

  00000	55		 push	 ebp
  00001	8b ec		 mov	 ebp, esp
  00003	81 ec f4 00 00
	00		 sub	 esp, 244		; 000000f4H
  00009	53		 push	 ebx
  0000a	56		 push	 esi
  0000b	57		 push	 edi
  0000c	51		 push	 ecx
  0000d	8d bd 0c ff ff
	ff		 lea	 edi, DWORD PTR [ebp-244]
  00013	b9 3d 00 00 00	 mov	 ecx, 61			; 0000003dH
  00018	b8 cc cc cc cc	 mov	 eax, -858993460		; ccccccccH
  0001d	f3 ab		 rep stosd
  0001f	59		 pop	 ecx
  00020	89 4d f8	 mov	 DWORD PTR _this$[ebp], ecx

; 423  : 		SAFE_RELEASE( m_pSharedParticleSystemVB )

  00023	8b 45 f8	 mov	 eax, DWORD PTR _this$[ebp]
  00026	83 b8 10 01 00
	00 00		 cmp	 DWORD PTR [eax+272], 0
  0002d	74 2e		 je	 SHORT $L93902
  0002f	8b 45 f8	 mov	 eax, DWORD PTR _this$[ebp]
  00032	8b 88 10 01 00
	00		 mov	 ecx, DWORD PTR [eax+272]
  00038	8b 55 f8	 mov	 edx, DWORD PTR _this$[ebp]
  0003b	8b 82 10 01 00
	00		 mov	 eax, DWORD PTR [edx+272]
  00041	8b 09		 mov	 ecx, DWORD PTR [ecx]
  00043	8b f4		 mov	 esi, esp
  00045	50		 push	 eax
  00046	ff 51 08	 call	 DWORD PTR [ecx+8]
  00049	3b f4		 cmp	 esi, esp
  0004b	e8 00 00 00 00	 call	 __RTC_CheckEsp
  00050	8b 45 f8	 mov	 eax, DWORD PTR _this$[ebp]
  00053	c7 80 10 01 00
	00 00 00 00 00	 mov	 DWORD PTR [eax+272], 0
$L93902:

; 424  : 
; 425  : 		if (m_pTerrain)

  0005d	8b 45 f8	 mov	 eax, DWORD PTR _this$[ebp]
  00060	83 78 24 00	 cmp	 DWORD PTR [eax+36], 0
  00064	74 0f		 je	 SHORT $L93903

; 426  : 			m_pTerrain->InvalidateDeviceObjects( pDev );

  00066	8b 45 08	 mov	 eax, DWORD PTR _pDev$[ebp]
  00069	50		 push	 eax
  0006a	8b 4d f8	 mov	 ecx, DWORD PTR _this$[ebp]
  0006d	8b 49 24	 mov	 ecx, DWORD PTR [ecx+36]
  00070	e8 00 00 00 00	 call	 ?InvalidateDeviceObjects@CTerrain@@QAEJPAUIDirect3DDevice8@@@Z ; CTerrain::InvalidateDeviceObjects
$L93903:

; 427  : 
; 428  : 		if (m_pSky)

  00075	8b 45 f8	 mov	 eax, DWORD PTR _this$[ebp]
  00078	83 78 28 00	 cmp	 DWORD PTR [eax+40], 0
  0007c	74 0b		 je	 SHORT $L93904

; 429  : 			m_pSky->InvalidateDeviceObjects() ;

  0007e	8b 45 f8	 mov	 eax, DWORD PTR _this$[ebp]
  00081	8b 48 28	 mov	 ecx, DWORD PTR [eax+40]
  00084	e8 00 00 00 00	 call	 ?InvalidateDeviceObjects@CSky@@QAEJXZ ; CSky::InvalidateDeviceObjects
$L93904:

; 430  : 
; 431  : 		/*if (m_pSkyDome)
; 432  : 			m_pSkyDome->InvalidateDeviceObjects() ;*/
; 433  : 
; 434  : 		if (m_pOcean)

  00089	8b 45 f8	 mov	 eax, DWORD PTR _this$[ebp]
  0008c	83 78 34 00	 cmp	 DWORD PTR [eax+52], 0
  00090	74 0b		 je	 SHORT $L93905

; 435  : 			m_pOcean->InvalidateDeviceObjects() ;

  00092	8b 45 f8	 mov	 eax, DWORD PTR _this$[ebp]
  00095	8b 48 34	 mov	 ecx, DWORD PTR [eax+52]
  00098	e8 00 00 00 00	 call	 ?InvalidateDeviceObjects@COcean@@QAEJXZ ; COcean::InvalidateDeviceObjects
$L93905:

; 436  : 
; 437  : 		if (m_pFighter)

  0009d	8b 45 f8	 mov	 eax, DWORD PTR _this$[ebp]
  000a0	83 78 30 00	 cmp	 DWORD PTR [eax+48], 0
  000a4	74 0f		 je	 SHORT $L93906

; 438  : 			m_pFighter->InvalidateDeviceObjects( pDev );

  000a6	8b 45 08	 mov	 eax, DWORD PTR _pDev$[ebp]
  000a9	50		 push	 eax
  000aa	8b 4d f8	 mov	 ecx, DWORD PTR _this$[ebp]
  000ad	8b 49 30	 mov	 ecx, DWORD PTR [ecx+48]
  000b0	e8 00 00 00 00	 call	 ?InvalidateDeviceObjects@CUserFighter@@QAEJPAUIDirect3DDevice8@@@Z ; CUserFighter::InvalidateDeviceObjects
$L93906:

; 439  : 
; 440  : 		BOT_FIGHTER* pBot = m_pBots ;

  000b5	8b 45 f8	 mov	 eax, DWORD PTR _this$[ebp]
  000b8	8b 48 14	 mov	 ecx, DWORD PTR [eax+20]
  000bb	89 4d ec	 mov	 DWORD PTR _pBot$[ebp], ecx
$L93909:

; 441  : 		while( pBot )

  000be	83 7d ec 00	 cmp	 DWORD PTR _pBot$[ebp], 0
  000c2	74 1a		 je	 SHORT $L93910

; 442  : 		{
; 443  : 			pBot->pFighter->InvalidateDeviceObjects( pDev );

  000c4	8b 45 08	 mov	 eax, DWORD PTR _pDev$[ebp]
  000c7	50		 push	 eax
  000c8	8b 4d ec	 mov	 ecx, DWORD PTR _pBot$[ebp]
  000cb	8b 49 04	 mov	 ecx, DWORD PTR [ecx+4]
  000ce	e8 00 00 00 00	 call	 ?InvalidateDeviceObjects@CBotFighter@@QAEJPAUIDirect3DDevice8@@@Z ; CBotFighter::InvalidateDeviceObjects

; 444  : 			pBot = pBot->pNext ;

  000d3	8b 45 ec	 mov	 eax, DWORD PTR _pBot$[ebp]
  000d6	8b 48 0c	 mov	 ecx, DWORD PTR [eax+12]
  000d9	89 4d ec	 mov	 DWORD PTR _pBot$[ebp], ecx

; 445  : 		}

  000dc	eb e0		 jmp	 SHORT $L93909
$L93910:

; 446  : 
; 447  : 		if( m_pHUDLevel )

  000de	8b 45 f8	 mov	 eax, DWORD PTR _this$[ebp]
  000e1	83 b8 fc 00 00
	00 00		 cmp	 DWORD PTR [eax+252], 0
  000e8	74 0e		 je	 SHORT $L93911

; 448  : 			m_pHUDLevel->InvalidateDeviceObjects() ;

  000ea	8b 45 f8	 mov	 eax, DWORD PTR _this$[ebp]
  000ed	8b 88 fc 00 00
	00		 mov	 ecx, DWORD PTR [eax+252]
  000f3	e8 00 00 00 00	 call	 ?InvalidateDeviceObjects@CHUDText@@QAEJXZ ; CHUDText::InvalidateDeviceObjects
$L93911:

; 449  : 
; 450  : 		if( m_pHUDElapsedTime )

  000f8	8b 45 f8	 mov	 eax, DWORD PTR _this$[ebp]
  000fb	83 b8 0c 01 00
	00 00		 cmp	 DWORD PTR [eax+268], 0
  00102	74 0e		 je	 SHORT $L93912

; 451  : 			m_pHUDElapsedTime->InvalidateDeviceObjects() ;

  00104	8b 45 f8	 mov	 eax, DWORD PTR _this$[ebp]
  00107	8b 88 0c 01 00
	00		 mov	 ecx, DWORD PTR [eax+268]
  0010d	e8 00 00 00 00	 call	 ?InvalidateDeviceObjects@CHUDText@@QAEJXZ ; CHUDText::InvalidateDeviceObjects
$L93912:

; 452  : 
; 453  : 		SAFE_DELETE( m_pUnderWaterQuad )

  00112	8b 45 f8	 mov	 eax, DWORD PTR _this$[ebp]
  00115	83 78 4c 00	 cmp	 DWORD PTR [eax+76], 0
  00119	74 4a		 je	 SHORT $L93913
  0011b	8b 45 f8	 mov	 eax, DWORD PTR _this$[ebp]
  0011e	8b 48 4c	 mov	 ecx, DWORD PTR [eax+76]
  00121	89 8d 14 ff ff
	ff		 mov	 DWORD PTR $T94384[ebp], ecx
  00127	8b 95 14 ff ff
	ff		 mov	 edx, DWORD PTR $T94384[ebp]
  0012d	89 95 20 ff ff
	ff		 mov	 DWORD PTR $T94383[ebp], edx
  00133	83 bd 20 ff ff
	ff 00		 cmp	 DWORD PTR $T94383[ebp], 0
  0013a	74 15		 je	 SHORT $L94385
  0013c	6a 01		 push	 1
  0013e	8b 8d 20 ff ff
	ff		 mov	 ecx, DWORD PTR $T94383[ebp]
  00144	e8 00 00 00 00	 call	 ??_GCScreenOverlay@@QAEPAXI@Z
  00149	89 85 0c ff ff
	ff		 mov	 DWORD PTR tv152[ebp], eax
  0014f	eb 0a		 jmp	 SHORT $L94386
$L94385:
  00151	c7 85 0c ff ff
	ff 00 00 00 00	 mov	 DWORD PTR tv152[ebp], 0
$L94386:
  0015b	8b 45 f8	 mov	 eax, DWORD PTR _this$[ebp]
  0015e	c7 40 4c 00 00
	00 00		 mov	 DWORD PTR [eax+76], 0
$L93913:

; 454  : 
; 455  : 		return S_OK ;

  00165	33 c0		 xor	 eax, eax

; 456  : 	}

  00167	5f		 pop	 edi
  00168	5e		 pop	 esi
  00169	5b		 pop	 ebx
  0016a	81 c4 f4 00 00
	00		 add	 esp, 244		; 000000f4H
  00170	3b ec		 cmp	 ebp, esp
  00172	e8 00 00 00 00	 call	 __RTC_CheckEsp
  00177	8b e5		 mov	 esp, ebp
  00179	5d		 pop	 ebp
  0017a	c2 04 00	 ret	 4
?InvalidateDeviceObjects@CRace@@QAEJPAUIDirect3DDevice8@@@Z ENDP ; CRace::InvalidateDeviceObjects
_TEXT	ENDS
PUBLIC	??0D3DXMATRIX@@QAE@XZ				; D3DXMATRIX::D3DXMATRIX
PUBLIC	__real@00000000
PUBLIC	__real@40c00000
PUBLIC	??BD3DXCOLOR@@QBEKXZ				; D3DXCOLOR::operator unsigned long
PUBLIC	?Render@CRace@@QAEJPAUIDirect3DDevice8@@PAVCTextures@@PAKMMH@Z ; CRace::Render
PUBLIC	??_C@_04DLGIGBAP@FM?3?5?$AA@			; `string'
PUBLIC	??_C@_05DIAFAFCL@?$CF02d?5?$AA@			; `string'
PUBLIC	??_C@_07JFCLMMGD@?$FL?$CF02d?$FN?5?$AA@		; `string'
PUBLIC	??_C@_01EEMJAFIK@?6?$AA@			; `string'
PUBLIC	??0D3DXVECTOR3@@QAE@ABU_D3DVECTOR@@@Z		; D3DXVECTOR3::D3DXVECTOR3
EXTRN	?Render@CFighter@@QAEHPAUIDirect3DDevice8@@PAVCTextures@@PAKPAVCCamera@@PAUD3DXMATRIX@@PAU_D3DVIEWPORT8@@4ABU5@6MABUD3DXVECTOR3@@@Z:NEAR ; CFighter::Render
EXTRN	?RenderFX_Weapons@CFighter@@QAEHPAUIDirect3DDevice8@@PAVCTextures@@PAKHPAUD3DXMATRIX@@PAVCCamera@@3PAU_D3DVIEWPORT8@@PAVCTerrain@@PAUIDirect3DVertexBuffer8@@MPAHH@Z:NEAR ; CFighter::RenderFX_Weapons
EXTRN	?RenderFX_Contrails@CFighter@@QAEJPAUIDirect3DDevice8@@PAVCTextures@@PAKHPAUD3DXMATRIX@@PAVCCamera@@3PAU_D3DVIEWPORT8@@PAVCTerrain@@PAUIDirect3DVertexBuffer8@@MHH@Z:NEAR ; CFighter::RenderFX_Contrails
EXTRN	?RenderFX_Explosion@CFighter@@QAEJPAUIDirect3DDevice8@@PAVCTextures@@PAKHPAUD3DXMATRIX@@PAVCCamera@@3PAU_D3DVIEWPORT8@@PAVCTerrain@@PAUIDirect3DVertexBuffer8@@MHH@Z:NEAR ; CFighter::RenderFX_Explosion
EXTRN	?RenderFX_Shield@CFighter@@QAEJPAUIDirect3DDevice8@@PAVCTextures@@PAKHPAUD3DXMATRIX@@PAVCCamera@@3PAU_D3DVIEWPORT8@@PAVCTerrain@@PAUIDirect3DVertexBuffer8@@MHH@Z:NEAR ; CFighter::RenderFX_Shield
EXTRN	?Render@CScreenOverlayManager@@QAEJPAUIDirect3DDevice8@@HH@Z:NEAR ; CScreenOverlayManager::Render
EXTRN	?RenderHUD@CUserFighter@@QAEJPAUIDirect3DDevice8@@PAVCTextures@@PAKHPAUD3DXMATRIX@@PAVCCamera@@PAVCScreenOverlayManager@@PAVCRace@@M@Z:NEAR ; CUserFighter::RenderHUD
EXTRN	?Render@CSky@@QAEJPAUIDirect3DDevice8@@PAVCTextures@@PAKPAUD3DXMATRIX@@PAUD3DXVECTOR3@@@Z:NEAR ; CSky::Render
EXTRN	_D3DXMatrixMultiply@12:NEAR
EXTRN	_D3DXMatrixTranslation@16:NEAR
EXTRN	?g_matIdent@@3UD3DXMATRIX@@A:BYTE		; g_matIdent
EXTRN	_D3DXMatrixRotationAxis@12:NEAR
EXTRN	_D3DXMatrixPerspectiveFovLH@20:NEAR
EXTRN	?DisableItemLights@CTerrain@@QAEHPAUIDirect3DDevice8@@HH@Z:NEAR ; CTerrain::DisableItemLights
EXTRN	?DistanceSortItemsAndSetLights@CTerrain@@QAEHPAUIDirect3DDevice8@@HHPAVCCamera@@@Z:NEAR ; CTerrain::DistanceSortItemsAndSetLights
EXTRN	?Render@CTerrain@@QAEJPAUIDirect3DDevice8@@PAVCTextures@@PAKPAVCCamera@@PAUD3DXMATRIX@@4PAU_D3DVIEWPORT8@@M@Z:NEAR ; CTerrain::Render
EXTRN	?Render@COcean@@QAEJPAUIDirect3DDevice8@@PAVCTextures@@PAKPAUD3DXMATRIX@@PAUD3DXVECTOR3@@@Z:NEAR ; COcean::Render
;	COMDAT __real@00000000
CONST	SEGMENT
__real@00000000 DD 000000000r			; 0
CONST	ENDS
;	COMDAT __real@40c00000
CONST	SEGMENT
__real@40c00000 DD 040c00000r			; 6
CONST	ENDS
;	COMDAT ??_C@_04DLGIGBAP@FM?3?5?$AA@
CONST	SEGMENT
??_C@_04DLGIGBAP@FM?3?5?$AA@ DB 'FM: ', 00H		; `string'
CONST	ENDS
;	COMDAT ??_C@_05DIAFAFCL@?$CF02d?5?$AA@
CONST	SEGMENT
??_C@_05DIAFAFCL@?$CF02d?5?$AA@ DB '%02d ', 00H		; `string'
CONST	ENDS
;	COMDAT ??_C@_07JFCLMMGD@?$FL?$CF02d?$FN?5?$AA@
CONST	SEGMENT
??_C@_07JFCLMMGD@?$FL?$CF02d?$FN?5?$AA@ DB '[%02d] ', 00H ; `string'
CONST	ENDS
;	COMDAT ??_C@_01EEMJAFIK@?6?$AA@
CONST	SEGMENT
??_C@_01EEMJAFIK@?6?$AA@ DB 0aH, 00H			; `string'
; Function compile flags: /Odt /RTCsu /ZI
CONST	ENDS
;	COMDAT ?Render@CRace@@QAEJPAUIDirect3DDevice8@@PAVCTextures@@PAKMMH@Z
_TEXT	SEGMENT
$T94392 = -768
$T94391 = -748
$T94390 = -728
$T94389 = -704
_r$93975 = -488
_bMustPopulateVB$93974 = -476
_w$93970 = -464
_dwColor$93946 = -452
_fEnd$93945 = -440
_fStart$93944 = -428
_dwColor$93939 = -416
_fEnd$93938 = -404
_fStart$93937 = -392
_pBot$ = -380
_m3$ = -368
_m2$ = -296
_m1$ = -224
_m0$ = -152
_matWorld$ = -80
_this$ = -8
_pDev$ = 8
_pTex$ = 12
_pulPolyCount$ = 16
_fAspect$ = 20
_fFPS$ = 24
_nMaxActiveLights$ = 28
?Render@CRace@@QAEJPAUIDirect3DDevice8@@PAVCTextures@@PAKMMH@Z PROC NEAR ; CRace::Render, COMDAT
; _this$ = ecx

; 459  : 	{

  00000	55		 push	 ebp
  00001	8b ec		 mov	 ebp, esp
  00003	81 ec 04 03 00
	00		 sub	 esp, 772		; 00000304H
  00009	53		 push	 ebx
  0000a	56		 push	 esi
  0000b	57		 push	 edi
  0000c	51		 push	 ecx
  0000d	8d bd fc fc ff
	ff		 lea	 edi, DWORD PTR [ebp-772]
  00013	b9 c1 00 00 00	 mov	 ecx, 193		; 000000c1H
  00018	b8 cc cc cc cc	 mov	 eax, -858993460		; ccccccccH
  0001d	f3 ab		 rep stosd
  0001f	59		 pop	 ecx
  00020	89 4d f8	 mov	 DWORD PTR _this$[ebp], ecx

; 460  : 		xMat matWorld, m0, m1, m2, m3 ;

  00023	8d 4d b0	 lea	 ecx, DWORD PTR _matWorld$[ebp]
  00026	e8 00 00 00 00	 call	 ??0D3DXMATRIX@@QAE@XZ	; D3DXMATRIX::D3DXMATRIX
  0002b	8d 8d 68 ff ff
	ff		 lea	 ecx, DWORD PTR _m0$[ebp]
  00031	e8 00 00 00 00	 call	 ??0D3DXMATRIX@@QAE@XZ	; D3DXMATRIX::D3DXMATRIX
  00036	8d 8d 20 ff ff
	ff		 lea	 ecx, DWORD PTR _m1$[ebp]
  0003c	e8 00 00 00 00	 call	 ??0D3DXMATRIX@@QAE@XZ	; D3DXMATRIX::D3DXMATRIX
  00041	8d 8d d8 fe ff
	ff		 lea	 ecx, DWORD PTR _m2$[ebp]
  00047	e8 00 00 00 00	 call	 ??0D3DXMATRIX@@QAE@XZ	; D3DXMATRIX::D3DXMATRIX
  0004c	8d 8d 90 fe ff
	ff		 lea	 ecx, DWORD PTR _m3$[ebp]
  00052	e8 00 00 00 00	 call	 ??0D3DXMATRIX@@QAE@XZ	; D3DXMATRIX::D3DXMATRIX

; 461  : 		BOT_FIGHTER* pBot ;
; 462  : 
; 463  : 	//
; 464  : 	// Set vertex shader constants for main directional light and ambient:
; 465  : 	//
; 466  : 		/*pDev->SetVertexShaderConstant(  7, &m_litMain.Direction, 1);	// c7; light direction
; 467  : 		pDev->SetVertexShaderConstant(  8, &m_litMain.Diffuse, 1);		// c8; light colour
; 468  : 		DWORD dw = m_dwAmbientLight & 0xff ;
; 469  : 		float f = (float)dw / (float)0xff ;
; 470  : 		pDev->SetVertexShaderConstant( 10, &xVec4( f,f,f,f ), 1 );// c10; ambient*/
; 471  : 
; 472  : 	//
; 473  : 	// Both set in FrameMove, but may be reset by InGameMenu
; 474  : 	//
; 475  : 		m_pCamera->SetViewMatrix( pDev, FALSE );

  00057	6a 00		 push	 0
  00059	8b 45 08	 mov	 eax, DWORD PTR _pDev$[ebp]
  0005c	50		 push	 eax
  0005d	8b 4d f8	 mov	 ecx, DWORD PTR _this$[ebp]
  00060	8b 49 2c	 mov	 ecx, DWORD PTR [ecx+44]
  00063	e8 00 00 00 00	 call	 ?SetViewMatrix@CCamera@@QAEHPAUIDirect3DDevice8@@H@Z ; CCamera::SetViewMatrix

; 476  : 		pDev->SetRenderState( D3DRS_ZENABLE, TRUE );

  00068	8b f4		 mov	 esi, esp
  0006a	6a 01		 push	 1
  0006c	6a 07		 push	 7
  0006e	8b 45 08	 mov	 eax, DWORD PTR _pDev$[ebp]
  00071	8b 08		 mov	 ecx, DWORD PTR [eax]
  00073	8b 55 08	 mov	 edx, DWORD PTR _pDev$[ebp]
  00076	52		 push	 edx
  00077	ff 91 c8 00 00
	00		 call	 DWORD PTR [ecx+200]
  0007d	3b f4		 cmp	 esi, esp
  0007f	e8 00 00 00 00	 call	 __RTC_CheckEsp

; 477  : 	
; 478  : 	//
; 479  : 	// Modify view matrix for cockpit roll:
; 480  : 	//
; 481  : 		matWorld = g_matIdent ;

  00084	b9 10 00 00 00	 mov	 ecx, 16			; 00000010H
  00089	be 00 00 00 00	 mov	 esi, OFFSET FLAT:?g_matIdent@@3UD3DXMATRIX@@A ; g_matIdent
  0008e	8d 7d b0	 lea	 edi, DWORD PTR _matWorld$[ebp]
  00091	f3 a5		 rep movsd

; 482  : 		if( m_ctCamMode == CT_COCKPIT_ROLL && m_pFighter && m_pCamera )

  00093	8b 45 f8	 mov	 eax, DWORD PTR _this$[ebp]
  00096	83 78 6c 08	 cmp	 DWORD PTR [eax+108], 8
  0009a	0f 85 19 01 00
	00		 jne	 $L93932
  000a0	8b 45 f8	 mov	 eax, DWORD PTR _this$[ebp]
  000a3	83 78 30 00	 cmp	 DWORD PTR [eax+48], 0
  000a7	0f 84 0c 01 00
	00		 je	 $L93932
  000ad	8b 45 f8	 mov	 eax, DWORD PTR _this$[ebp]
  000b0	83 78 2c 00	 cmp	 DWORD PTR [eax+44], 0
  000b4	0f 84 ff 00 00
	00		 je	 $L93932

; 483  : 		{
; 484  : 			D3DXMatrixTranslation( &m0, -m_pCamera->m_vEyePt.x, -m_pCamera->m_vEyePt.y, -m_pCamera->m_vEyePt.z ); 

  000ba	8b 45 f8	 mov	 eax, DWORD PTR _this$[ebp]
  000bd	8b 48 2c	 mov	 ecx, DWORD PTR [eax+44]
  000c0	d9 41 08	 fld	 DWORD PTR [ecx+8]
  000c3	d9 e0		 fchs
  000c5	51		 push	 ecx
  000c6	d9 1c 24	 fstp	 DWORD PTR [esp]
  000c9	8b 55 f8	 mov	 edx, DWORD PTR _this$[ebp]
  000cc	8b 42 2c	 mov	 eax, DWORD PTR [edx+44]
  000cf	d9 40 04	 fld	 DWORD PTR [eax+4]
  000d2	d9 e0		 fchs
  000d4	51		 push	 ecx
  000d5	d9 1c 24	 fstp	 DWORD PTR [esp]
  000d8	8b 4d f8	 mov	 ecx, DWORD PTR _this$[ebp]
  000db	8b 51 2c	 mov	 edx, DWORD PTR [ecx+44]
  000de	d9 02		 fld	 DWORD PTR [edx]
  000e0	d9 e0		 fchs
  000e2	51		 push	 ecx
  000e3	d9 1c 24	 fstp	 DWORD PTR [esp]
  000e6	8d 85 68 ff ff
	ff		 lea	 eax, DWORD PTR _m0$[ebp]
  000ec	50		 push	 eax
  000ed	e8 00 00 00 00	 call	 _D3DXMatrixTranslation@16

; 485  : 			D3DXMatrixRotationAxis( &m1, &m_pFighter->m_vOrientation, m_pFighter->m_fRoll );

  000f2	8b 45 f8	 mov	 eax, DWORD PTR _this$[ebp]
  000f5	8b 48 30	 mov	 ecx, DWORD PTR [eax+48]
  000f8	8b 91 20 02 00
	00		 mov	 edx, DWORD PTR [ecx+544]
  000fe	52		 push	 edx
  000ff	8b 45 f8	 mov	 eax, DWORD PTR _this$[ebp]
  00102	8b 48 30	 mov	 ecx, DWORD PTR [eax+48]
  00105	81 c1 c0 01 00
	00		 add	 ecx, 448		; 000001c0H
  0010b	51		 push	 ecx
  0010c	8d 95 20 ff ff
	ff		 lea	 edx, DWORD PTR _m1$[ebp]
  00112	52		 push	 edx
  00113	e8 00 00 00 00	 call	 _D3DXMatrixRotationAxis@12

; 486  : 			D3DXMatrixTranslation( &m2, +m_pCamera->m_vEyePt.x, +m_pCamera->m_vEyePt.y, +m_pCamera->m_vEyePt.z ); 

  00118	8b 45 f8	 mov	 eax, DWORD PTR _this$[ebp]
  0011b	8b 48 2c	 mov	 ecx, DWORD PTR [eax+44]
  0011e	8b 51 08	 mov	 edx, DWORD PTR [ecx+8]
  00121	52		 push	 edx
  00122	8b 45 f8	 mov	 eax, DWORD PTR _this$[ebp]
  00125	8b 48 2c	 mov	 ecx, DWORD PTR [eax+44]
  00128	8b 51 04	 mov	 edx, DWORD PTR [ecx+4]
  0012b	52		 push	 edx
  0012c	8b 45 f8	 mov	 eax, DWORD PTR _this$[ebp]
  0012f	8b 48 2c	 mov	 ecx, DWORD PTR [eax+44]
  00132	8b 11		 mov	 edx, DWORD PTR [ecx]
  00134	52		 push	 edx
  00135	8d 85 d8 fe ff
	ff		 lea	 eax, DWORD PTR _m2$[ebp]
  0013b	50		 push	 eax
  0013c	e8 00 00 00 00	 call	 _D3DXMatrixTranslation@16

; 487  : 			D3DXMatrixMultiply( &m3, &m0, &m1 );

  00141	8d 85 20 ff ff
	ff		 lea	 eax, DWORD PTR _m1$[ebp]
  00147	50		 push	 eax
  00148	8d 8d 68 ff ff
	ff		 lea	 ecx, DWORD PTR _m0$[ebp]
  0014e	51		 push	 ecx
  0014f	8d 95 90 fe ff
	ff		 lea	 edx, DWORD PTR _m3$[ebp]
  00155	52		 push	 edx
  00156	e8 00 00 00 00	 call	 _D3DXMatrixMultiply@12

; 488  : 			D3DXMatrixMultiply( &m3, &m3, &m2 );

  0015b	8d 85 d8 fe ff
	ff		 lea	 eax, DWORD PTR _m2$[ebp]
  00161	50		 push	 eax
  00162	8d 8d 90 fe ff
	ff		 lea	 ecx, DWORD PTR _m3$[ebp]
  00168	51		 push	 ecx
  00169	8d 95 90 fe ff
	ff		 lea	 edx, DWORD PTR _m3$[ebp]
  0016f	52		 push	 edx
  00170	e8 00 00 00 00	 call	 _D3DXMatrixMultiply@12

; 489  : 			D3DXMatrixMultiply( &m_pCamera->m_matView, &m3, &m_pCamera->m_matView );

  00175	8b 45 f8	 mov	 eax, DWORD PTR _this$[ebp]
  00178	8b 48 2c	 mov	 ecx, DWORD PTR [eax+44]
  0017b	83 c1 30	 add	 ecx, 48			; 00000030H
  0017e	51		 push	 ecx
  0017f	8d 95 90 fe ff
	ff		 lea	 edx, DWORD PTR _m3$[ebp]
  00185	52		 push	 edx
  00186	8b 45 f8	 mov	 eax, DWORD PTR _this$[ebp]
  00189	8b 48 2c	 mov	 ecx, DWORD PTR [eax+44]
  0018c	83 c1 30	 add	 ecx, 48			; 00000030H
  0018f	51		 push	 ecx
  00190	e8 00 00 00 00	 call	 _D3DXMatrixMultiply@12

; 490  : 			pDev->SetTransform( D3DTS_VIEW, &m_pCamera->m_matView );

  00195	8b 45 f8	 mov	 eax, DWORD PTR _this$[ebp]
  00198	8b 48 2c	 mov	 ecx, DWORD PTR [eax+44]
  0019b	83 c1 30	 add	 ecx, 48			; 00000030H
  0019e	8b f4		 mov	 esi, esp
  001a0	51		 push	 ecx
  001a1	6a 02		 push	 2
  001a3	8b 55 08	 mov	 edx, DWORD PTR _pDev$[ebp]
  001a6	8b 02		 mov	 eax, DWORD PTR [edx]
  001a8	8b 4d 08	 mov	 ecx, DWORD PTR _pDev$[ebp]
  001ab	51		 push	 ecx
  001ac	ff 90 94 00 00
	00		 call	 DWORD PTR [eax+148]
  001b2	3b f4		 cmp	 esi, esp
  001b4	e8 00 00 00 00	 call	 __RTC_CheckEsp
$L93932:

; 491  : 		}
; 492  : 
; 493  : 	//
; 494  : 	// proj. mat. hell.
; 495  : 	//
; 496  : 		D3DXMatrixPerspectiveFovLH( &m_pX7->m_matProj, D3DX_PI/4, fAspect, m_fFighterSize / 2, m_fTerrainLenSq * 20 );

  001b9	8b 45 f8	 mov	 eax, DWORD PTR _this$[ebp]
  001bc	d9 80 e8 00 00
	00		 fld	 DWORD PTR [eax+232]
  001c2	d8 0d 00 00 00
	00		 fmul	 DWORD PTR __real@41a00000
  001c8	51		 push	 ecx
  001c9	d9 1c 24	 fstp	 DWORD PTR [esp]
  001cc	8b 4d f8	 mov	 ecx, DWORD PTR _this$[ebp]
  001cf	d9 81 ec 00 00
	00		 fld	 DWORD PTR [ecx+236]
  001d5	d8 35 00 00 00
	00		 fdiv	 DWORD PTR __real@40000000
  001db	51		 push	 ecx
  001dc	d9 1c 24	 fstp	 DWORD PTR [esp]
  001df	8b 55 14	 mov	 edx, DWORD PTR _fAspect$[ebp]
  001e2	52		 push	 edx
  001e3	68 db 0f 49 3f	 push	 1061752795		; 3f490fdbH
  001e8	8b 45 f8	 mov	 eax, DWORD PTR _this$[ebp]
  001eb	8b 48 38	 mov	 ecx, DWORD PTR [eax+56]
  001ee	81 c1 54 a9 02
	00		 add	 ecx, 174420		; 0002a954H
  001f4	51		 push	 ecx
  001f5	e8 00 00 00 00	 call	 _D3DXMatrixPerspectiveFovLH@20

; 497  : 		pDev->SetTransform( D3DTS_PROJECTION, &m_pX7->m_matProj );

  001fa	8b 45 f8	 mov	 eax, DWORD PTR _this$[ebp]
  001fd	8b 48 38	 mov	 ecx, DWORD PTR [eax+56]
  00200	81 c1 54 a9 02
	00		 add	 ecx, 174420		; 0002a954H
  00206	8b f4		 mov	 esi, esp
  00208	51		 push	 ecx
  00209	6a 03		 push	 3
  0020b	8b 55 08	 mov	 edx, DWORD PTR _pDev$[ebp]
  0020e	8b 02		 mov	 eax, DWORD PTR [edx]
  00210	8b 4d 08	 mov	 ecx, DWORD PTR _pDev$[ebp]
  00213	51		 push	 ecx
  00214	ff 90 94 00 00
	00		 call	 DWORD PTR [eax+148]
  0021a	3b f4		 cmp	 esi, esp
  0021c	e8 00 00 00 00	 call	 __RTC_CheckEsp

; 498  : 
; 499  : 	//
; 500  : 	// Ambient lighting + Main directional light, default them to OFF
; 501  : 	//
; 502  : 		pDev->SetRenderState(D3DRS_AMBIENT, m_dwAmbientLight) ;

  00221	8b f4		 mov	 esi, esp
  00223	8b 45 f8	 mov	 eax, DWORD PTR _this$[ebp]
  00226	8b 48 78	 mov	 ecx, DWORD PTR [eax+120]
  00229	51		 push	 ecx
  0022a	68 8b 00 00 00	 push	 139			; 0000008bH
  0022f	8b 55 08	 mov	 edx, DWORD PTR _pDev$[ebp]
  00232	8b 02		 mov	 eax, DWORD PTR [edx]
  00234	8b 4d 08	 mov	 ecx, DWORD PTR _pDev$[ebp]
  00237	51		 push	 ecx
  00238	ff 90 c8 00 00
	00		 call	 DWORD PTR [eax+200]
  0023e	3b f4		 cmp	 esi, esp
  00240	e8 00 00 00 00	 call	 __RTC_CheckEsp

; 503  : 		pDev->SetLight(0, &m_litMain) ;

  00245	8b 45 f8	 mov	 eax, DWORD PTR _this$[ebp]
  00248	05 80 00 00 00	 add	 eax, 128		; 00000080H
  0024d	8b f4		 mov	 esi, esp
  0024f	50		 push	 eax
  00250	6a 00		 push	 0
  00252	8b 4d 08	 mov	 ecx, DWORD PTR _pDev$[ebp]
  00255	8b 11		 mov	 edx, DWORD PTR [ecx]
  00257	8b 45 08	 mov	 eax, DWORD PTR _pDev$[ebp]
  0025a	50		 push	 eax
  0025b	ff 92 b0 00 00
	00		 call	 DWORD PTR [edx+176]
  00261	3b f4		 cmp	 esi, esp
  00263	e8 00 00 00 00	 call	 __RTC_CheckEsp

; 504  : 		pDev->SetRenderState(D3DRS_LIGHTING, FALSE) ;

  00268	8b f4		 mov	 esi, esp
  0026a	6a 00		 push	 0
  0026c	68 89 00 00 00	 push	 137			; 00000089H
  00271	8b 45 08	 mov	 eax, DWORD PTR _pDev$[ebp]
  00274	8b 08		 mov	 ecx, DWORD PTR [eax]
  00276	8b 55 08	 mov	 edx, DWORD PTR _pDev$[ebp]
  00279	52		 push	 edx
  0027a	ff 91 c8 00 00
	00		 call	 DWORD PTR [ecx+200]
  00280	3b f4		 cmp	 esi, esp
  00282	e8 00 00 00 00	 call	 __RTC_CheckEsp

; 505  : 		pDev->LightEnable(0, FALSE) ;

  00287	8b f4		 mov	 esi, esp
  00289	6a 00		 push	 0
  0028b	6a 00		 push	 0
  0028d	8b 45 08	 mov	 eax, DWORD PTR _pDev$[ebp]
  00290	8b 08		 mov	 ecx, DWORD PTR [eax]
  00292	8b 55 08	 mov	 edx, DWORD PTR _pDev$[ebp]
  00295	52		 push	 edx
  00296	ff 91 b8 00 00
	00		 call	 DWORD PTR [ecx+184]
  0029c	3b f4		 cmp	 esi, esp
  0029e	e8 00 00 00 00	 call	 __RTC_CheckEsp

; 506  : 
; 507  : 	// def. fog state;
; 508  : 		pDev->SetRenderState( D3DRS_FOGENABLE, FALSE );

  002a3	8b f4		 mov	 esi, esp
  002a5	6a 00		 push	 0
  002a7	6a 1c		 push	 28			; 0000001cH
  002a9	8b 45 08	 mov	 eax, DWORD PTR _pDev$[ebp]
  002ac	8b 08		 mov	 ecx, DWORD PTR [eax]
  002ae	8b 55 08	 mov	 edx, DWORD PTR _pDev$[ebp]
  002b1	52		 push	 edx
  002b2	ff 91 c8 00 00
	00		 call	 DWORD PTR [ecx+200]
  002b8	3b f4		 cmp	 esi, esp
  002ba	e8 00 00 00 00	 call	 __RTC_CheckEsp

; 509  : 		
; 510  : 	//
; 511  : 	// Sky
; 512  : 	//
; 513  : 		if( m_pSky && m_bShowSky && m_pFighter )

  002bf	8b 45 f8	 mov	 eax, DWORD PTR _this$[ebp]
  002c2	83 78 28 00	 cmp	 DWORD PTR [eax+40], 0
  002c6	74 50		 je	 SHORT $L93934
  002c8	8b 45 f8	 mov	 eax, DWORD PTR _this$[ebp]
  002cb	83 78 58 00	 cmp	 DWORD PTR [eax+88], 0
  002cf	74 47		 je	 SHORT $L93934
  002d1	8b 45 f8	 mov	 eax, DWORD PTR _this$[ebp]
  002d4	83 78 30 00	 cmp	 DWORD PTR [eax+48], 0
  002d8	74 3e		 je	 SHORT $L93934

; 514  : 		{
; 515  : 			pDev->SetRenderState( D3DRS_CULLMODE, D3DCULL_NONE );

  002da	8b f4		 mov	 esi, esp
  002dc	6a 01		 push	 1
  002de	6a 16		 push	 22			; 00000016H
  002e0	8b 45 08	 mov	 eax, DWORD PTR _pDev$[ebp]
  002e3	8b 08		 mov	 ecx, DWORD PTR [eax]
  002e5	8b 55 08	 mov	 edx, DWORD PTR _pDev$[ebp]
  002e8	52		 push	 edx
  002e9	ff 91 c8 00 00
	00		 call	 DWORD PTR [ecx+200]
  002ef	3b f4		 cmp	 esi, esp
  002f1	e8 00 00 00 00	 call	 __RTC_CheckEsp

; 516  : 			m_pSky->Render( pDev, pTex, pulPolyCount, &matWorld, &m_pCamera->m_vEyePt );

  002f6	8b 45 f8	 mov	 eax, DWORD PTR _this$[ebp]
  002f9	8b 48 2c	 mov	 ecx, DWORD PTR [eax+44]
  002fc	51		 push	 ecx
  002fd	8d 55 b0	 lea	 edx, DWORD PTR _matWorld$[ebp]
  00300	52		 push	 edx
  00301	8b 45 10	 mov	 eax, DWORD PTR _pulPolyCount$[ebp]
  00304	50		 push	 eax
  00305	8b 4d 0c	 mov	 ecx, DWORD PTR _pTex$[ebp]
  00308	51		 push	 ecx
  00309	8b 55 08	 mov	 edx, DWORD PTR _pDev$[ebp]
  0030c	52		 push	 edx
  0030d	8b 45 f8	 mov	 eax, DWORD PTR _this$[ebp]
  00310	8b 48 28	 mov	 ecx, DWORD PTR [eax+40]
  00313	e8 00 00 00 00	 call	 ?Render@CSky@@QAEJPAUIDirect3DDevice8@@PAVCTextures@@PAKPAUD3DXMATRIX@@PAUD3DXVECTOR3@@@Z ; CSky::Render
$L93934:

; 517  : 		}
; 518  : 		/*if( m_pSkyDome && m_bShowSky && m_pFighter )
; 519  : 		{
; 520  : 			pDev->SetRenderState(D3DRS_CULLMODE, D3DCULL_NONE) ;
; 521  : 			m_pSkyDome->Render( pDev, pTex, pulPolyCount, &matWorld, &m_pFighter->m_vPosition, fFPS );
; 522  : 			pDev->SetRenderState(D3DRS_CULLMODE, D3DCULL_CCW) ;
; 523  : 		}*/
; 524  : 	
; 525  : 	//
; 526  :     // Underwater fullscreen quad & blue fog;
; 527  : 	//
; 528  : 		m_pUnderWaterQuad->m_bActive = FALSE ;

  00318	8b 45 f8	 mov	 eax, DWORD PTR _this$[ebp]
  0031b	8b 48 4c	 mov	 ecx, DWORD PTR [eax+76]
  0031e	c7 81 84 00 00
	00 00 00 00 00	 mov	 DWORD PTR [ecx+132], 0

; 529  : 		if( m_bShowOcean )

  00328	8b 45 f8	 mov	 eax, DWORD PTR _this$[ebp]
  0032b	83 78 54 00	 cmp	 DWORD PTR [eax+84], 0
  0032f	0f 84 16 01 00
	00		 je	 $L93935

; 530  : 			if (m_pCamera->m_vEyePt.y < 0 )

  00335	8b 45 f8	 mov	 eax, DWORD PTR _this$[ebp]
  00338	8b 48 2c	 mov	 ecx, DWORD PTR [eax+44]
  0033b	d9 41 04	 fld	 DWORD PTR [ecx+4]
  0033e	d8 1d 00 00 00
	00		 fcomp	 DWORD PTR __real@00000000
  00344	df e0		 fnstsw	 ax
  00346	f6 c4 05	 test	 ah, 5
  00349	0f 8a fc 00 00
	00		 jp	 $L93935

; 531  : 			{
; 532  : 				m_pUnderWaterQuad->m_bActive = TRUE ;

  0034f	8b 45 f8	 mov	 eax, DWORD PTR _this$[ebp]
  00352	8b 48 4c	 mov	 ecx, DWORD PTR [eax+76]
  00355	c7 81 84 00 00
	00 01 00 00 00	 mov	 DWORD PTR [ecx+132], 1

; 533  : 				
; 534  : 				float fStart = 1.0f;

  0035f	c7 85 78 fe ff
	ff 00 00 80 3f	 mov	 DWORD PTR _fStart$93937[ebp], 1065353216 ; 3f800000H

; 535  : 				float fEnd = m_fTerrainLenSq / 6 ;

  00369	8b 45 f8	 mov	 eax, DWORD PTR _this$[ebp]
  0036c	d9 80 e8 00 00
	00		 fld	 DWORD PTR [eax+232]
  00372	d8 35 00 00 00
	00		 fdiv	 DWORD PTR __real@40c00000
  00378	d9 9d 6c fe ff
	ff		 fstp	 DWORD PTR _fEnd$93938[ebp]

; 536  : 				DWORD dwColor = D3DXCOLOR( m_OceanColour.r, m_OceanColour.g, m_OceanColour.b, 1 );

  0037e	68 00 00 80 3f	 push	 1065353216		; 3f800000H
  00383	8b 45 f8	 mov	 eax, DWORD PTR _this$[ebp]
  00386	8b 48 44	 mov	 ecx, DWORD PTR [eax+68]
  00389	51		 push	 ecx
  0038a	8b 55 f8	 mov	 edx, DWORD PTR _this$[ebp]
  0038d	8b 42 40	 mov	 eax, DWORD PTR [edx+64]
  00390	50		 push	 eax
  00391	8b 4d f8	 mov	 ecx, DWORD PTR _this$[ebp]
  00394	8b 51 3c	 mov	 edx, DWORD PTR [ecx+60]
  00397	52		 push	 edx
  00398	8d 8d 40 fd ff
	ff		 lea	 ecx, DWORD PTR $T94389[ebp]
  0039e	e8 00 00 00 00	 call	 ??0D3DXCOLOR@@QAE@MMMM@Z ; D3DXCOLOR::D3DXCOLOR
  003a3	8b c8		 mov	 ecx, eax
  003a5	e8 00 00 00 00	 call	 ??BD3DXCOLOR@@QBEKXZ	; D3DXCOLOR::operator unsigned long
  003aa	89 85 60 fe ff
	ff		 mov	 DWORD PTR _dwColor$93939[ebp], eax

; 537  : 				pDev->SetRenderState( D3DRS_FOGENABLE, TRUE );

  003b0	8b f4		 mov	 esi, esp
  003b2	6a 01		 push	 1
  003b4	6a 1c		 push	 28			; 0000001cH
  003b6	8b 45 08	 mov	 eax, DWORD PTR _pDev$[ebp]
  003b9	8b 08		 mov	 ecx, DWORD PTR [eax]
  003bb	8b 55 08	 mov	 edx, DWORD PTR _pDev$[ebp]
  003be	52		 push	 edx
  003bf	ff 91 c8 00 00
	00		 call	 DWORD PTR [ecx+200]
  003c5	3b f4		 cmp	 esi, esp
  003c7	e8 00 00 00 00	 call	 __RTC_CheckEsp

; 538  : 				pDev->SetRenderState( D3DRS_FOGTABLEMODE, D3DFOG_LINEAR );

  003cc	8b f4		 mov	 esi, esp
  003ce	6a 03		 push	 3
  003d0	6a 23		 push	 35			; 00000023H
  003d2	8b 45 08	 mov	 eax, DWORD PTR _pDev$[ebp]
  003d5	8b 08		 mov	 ecx, DWORD PTR [eax]
  003d7	8b 55 08	 mov	 edx, DWORD PTR _pDev$[ebp]
  003da	52		 push	 edx
  003db	ff 91 c8 00 00
	00		 call	 DWORD PTR [ecx+200]
  003e1	3b f4		 cmp	 esi, esp
  003e3	e8 00 00 00 00	 call	 __RTC_CheckEsp

; 539  : 				pDev->SetRenderState( D3DRS_FOGSTART, *(DWORD *)(&fStart) );

  003e8	8b f4		 mov	 esi, esp
  003ea	8b 85 78 fe ff
	ff		 mov	 eax, DWORD PTR _fStart$93937[ebp]
  003f0	50		 push	 eax
  003f1	6a 24		 push	 36			; 00000024H
  003f3	8b 4d 08	 mov	 ecx, DWORD PTR _pDev$[ebp]
  003f6	8b 11		 mov	 edx, DWORD PTR [ecx]
  003f8	8b 45 08	 mov	 eax, DWORD PTR _pDev$[ebp]
  003fb	50		 push	 eax
  003fc	ff 92 c8 00 00
	00		 call	 DWORD PTR [edx+200]
  00402	3b f4		 cmp	 esi, esp
  00404	e8 00 00 00 00	 call	 __RTC_CheckEsp

; 540  : 				pDev->SetRenderState( D3DRS_FOGEND,   *(DWORD *)(&fEnd) );

  00409	8b f4		 mov	 esi, esp
  0040b	8b 85 6c fe ff
	ff		 mov	 eax, DWORD PTR _fEnd$93938[ebp]
  00411	50		 push	 eax
  00412	6a 25		 push	 37			; 00000025H
  00414	8b 4d 08	 mov	 ecx, DWORD PTR _pDev$[ebp]
  00417	8b 11		 mov	 edx, DWORD PTR [ecx]
  00419	8b 45 08	 mov	 eax, DWORD PTR _pDev$[ebp]
  0041c	50		 push	 eax
  0041d	ff 92 c8 00 00
	00		 call	 DWORD PTR [edx+200]
  00423	3b f4		 cmp	 esi, esp
  00425	e8 00 00 00 00	 call	 __RTC_CheckEsp

; 541  : 				pDev->SetRenderState( D3DRS_FOGCOLOR, dwColor );

  0042a	8b f4		 mov	 esi, esp
  0042c	8b 85 60 fe ff
	ff		 mov	 eax, DWORD PTR _dwColor$93939[ebp]
  00432	50		 push	 eax
  00433	6a 22		 push	 34			; 00000022H
  00435	8b 4d 08	 mov	 ecx, DWORD PTR _pDev$[ebp]
  00438	8b 11		 mov	 edx, DWORD PTR [ecx]
  0043a	8b 45 08	 mov	 eax, DWORD PTR _pDev$[ebp]
  0043d	50		 push	 eax
  0043e	ff 92 c8 00 00
	00		 call	 DWORD PTR [edx+200]
  00444	3b f4		 cmp	 esi, esp
  00446	e8 00 00 00 00	 call	 __RTC_CheckEsp
$L93935:

; 542  : 			}
; 543  : 
; 544  : 	//
; 545  : 	// Night black fog;
; 546  : 	//
; 547  : 		if( m_bNight )

  0044b	8b 45 f8	 mov	 eax, DWORD PTR _this$[ebp]
  0044e	0f b6 48 7c	 movzx	 ecx, BYTE PTR [eax+124]
  00452	85 c9		 test	 ecx, ecx
  00454	0f 84 d4 00 00
	00		 je	 $L93943

; 548  : 		{
; 549  : 			float fStart = 1.0f;

  0045a	c7 85 54 fe ff
	ff 00 00 80 3f	 mov	 DWORD PTR _fStart$93944[ebp], 1065353216 ; 3f800000H

; 550  : 			float fEnd = m_fTerrainLenSq ;

  00464	8b 45 f8	 mov	 eax, DWORD PTR _this$[ebp]
  00467	8b 88 e8 00 00
	00		 mov	 ecx, DWORD PTR [eax+232]
  0046d	89 8d 48 fe ff
	ff		 mov	 DWORD PTR _fEnd$93945[ebp], ecx

; 551  : 			DWORD dwColor = D3DXCOLOR( 0, 0, 0, 0 );

  00473	6a 00		 push	 0
  00475	6a 00		 push	 0
  00477	6a 00		 push	 0
  00479	6a 00		 push	 0
  0047b	8d 8d 28 fd ff
	ff		 lea	 ecx, DWORD PTR $T94390[ebp]
  00481	e8 00 00 00 00	 call	 ??0D3DXCOLOR@@QAE@MMMM@Z ; D3DXCOLOR::D3DXCOLOR
  00486	8b c8		 mov	 ecx, eax
  00488	e8 00 00 00 00	 call	 ??BD3DXCOLOR@@QBEKXZ	; D3DXCOLOR::operator unsigned long
  0048d	89 85 3c fe ff
	ff		 mov	 DWORD PTR _dwColor$93946[ebp], eax

; 552  : 			pDev->SetRenderState( D3DRS_FOGENABLE, TRUE );

  00493	8b f4		 mov	 esi, esp
  00495	6a 01		 push	 1
  00497	6a 1c		 push	 28			; 0000001cH
  00499	8b 45 08	 mov	 eax, DWORD PTR _pDev$[ebp]
  0049c	8b 08		 mov	 ecx, DWORD PTR [eax]
  0049e	8b 55 08	 mov	 edx, DWORD PTR _pDev$[ebp]
  004a1	52		 push	 edx
  004a2	ff 91 c8 00 00
	00		 call	 DWORD PTR [ecx+200]
  004a8	3b f4		 cmp	 esi, esp
  004aa	e8 00 00 00 00	 call	 __RTC_CheckEsp

; 553  : 			pDev->SetRenderState( D3DRS_FOGTABLEMODE, D3DFOG_LINEAR );

  004af	8b f4		 mov	 esi, esp
  004b1	6a 03		 push	 3
  004b3	6a 23		 push	 35			; 00000023H
  004b5	8b 45 08	 mov	 eax, DWORD PTR _pDev$[ebp]
  004b8	8b 08		 mov	 ecx, DWORD PTR [eax]
  004ba	8b 55 08	 mov	 edx, DWORD PTR _pDev$[ebp]
  004bd	52		 push	 edx
  004be	ff 91 c8 00 00
	00		 call	 DWORD PTR [ecx+200]
  004c4	3b f4		 cmp	 esi, esp
  004c6	e8 00 00 00 00	 call	 __RTC_CheckEsp

; 554  : 			pDev->SetRenderState( D3DRS_FOGSTART, *(DWORD *)(&fStart) );

  004cb	8b f4		 mov	 esi, esp
  004cd	8b 85 54 fe ff
	ff		 mov	 eax, DWORD PTR _fStart$93944[ebp]
  004d3	50		 push	 eax
  004d4	6a 24		 push	 36			; 00000024H
  004d6	8b 4d 08	 mov	 ecx, DWORD PTR _pDev$[ebp]
  004d9	8b 11		 mov	 edx, DWORD PTR [ecx]
  004db	8b 45 08	 mov	 eax, DWORD PTR _pDev$[ebp]
  004de	50		 push	 eax
  004df	ff 92 c8 00 00
	00		 call	 DWORD PTR [edx+200]
  004e5	3b f4		 cmp	 esi, esp
  004e7	e8 00 00 00 00	 call	 __RTC_CheckEsp

; 555  : 			pDev->SetRenderState( D3DRS_FOGEND,   *(DWORD *)(&fEnd) );

  004ec	8b f4		 mov	 esi, esp
  004ee	8b 85 48 fe ff
	ff		 mov	 eax, DWORD PTR _fEnd$93945[ebp]
  004f4	50		 push	 eax
  004f5	6a 25		 push	 37			; 00000025H
  004f7	8b 4d 08	 mov	 ecx, DWORD PTR _pDev$[ebp]
  004fa	8b 11		 mov	 edx, DWORD PTR [ecx]
  004fc	8b 45 08	 mov	 eax, DWORD PTR _pDev$[ebp]
  004ff	50		 push	 eax
  00500	ff 92 c8 00 00
	00		 call	 DWORD PTR [edx+200]
  00506	3b f4		 cmp	 esi, esp
  00508	e8 00 00 00 00	 call	 __RTC_CheckEsp

; 556  : 			pDev->SetRenderState( D3DRS_FOGCOLOR, dwColor );

  0050d	8b f4		 mov	 esi, esp
  0050f	8b 85 3c fe ff
	ff		 mov	 eax, DWORD PTR _dwColor$93946[ebp]
  00515	50		 push	 eax
  00516	6a 22		 push	 34			; 00000022H
  00518	8b 4d 08	 mov	 ecx, DWORD PTR _pDev$[ebp]
  0051b	8b 11		 mov	 edx, DWORD PTR [ecx]
  0051d	8b 45 08	 mov	 eax, DWORD PTR _pDev$[ebp]
  00520	50		 push	 eax
  00521	ff 92 c8 00 00
	00		 call	 DWORD PTR [edx+200]
  00527	3b f4		 cmp	 esi, esp
  00529	e8 00 00 00 00	 call	 __RTC_CheckEsp
$L93943:

; 557  : 		}
; 558  : 
; 559  : 	//
; 560  : 	// Distance Sort Terrain gameitems and enable some gameitem lights:
; 561  : 	//
; 562  : 	// NOTE: this call is REQUIRED in order for CTerrain::Render to perform as expected
; 563  : 	// NOTE: use lights carefully; they have a large performance penalty
; 564  : 	//
; 565  : 		m_pTerrain->DistanceSortItemsAndSetLights( pDev, 3, 1, m_pCamera );

  0052e	8b 45 f8	 mov	 eax, DWORD PTR _this$[ebp]
  00531	8b 48 2c	 mov	 ecx, DWORD PTR [eax+44]
  00534	51		 push	 ecx
  00535	6a 01		 push	 1
  00537	6a 03		 push	 3
  00539	8b 55 08	 mov	 edx, DWORD PTR _pDev$[ebp]
  0053c	52		 push	 edx
  0053d	8b 45 f8	 mov	 eax, DWORD PTR _this$[ebp]
  00540	8b 48 24	 mov	 ecx, DWORD PTR [eax+36]
  00543	e8 00 00 00 00	 call	 ?DistanceSortItemsAndSetLights@CTerrain@@QAEHPAUIDirect3DDevice8@@HHPAVCCamera@@@Z ; CTerrain::DistanceSortItemsAndSetLights

; 566  : 		
; 567  : 
; 568  : 	//
; 569  : 	// Terrain:
; 570  : 	//
; 571  : 		pDev->SetRenderState(D3DRS_LIGHTING, TRUE) ;

  00548	8b f4		 mov	 esi, esp
  0054a	6a 01		 push	 1
  0054c	68 89 00 00 00	 push	 137			; 00000089H
  00551	8b 45 08	 mov	 eax, DWORD PTR _pDev$[ebp]
  00554	8b 08		 mov	 ecx, DWORD PTR [eax]
  00556	8b 55 08	 mov	 edx, DWORD PTR _pDev$[ebp]
  00559	52		 push	 edx
  0055a	ff 91 c8 00 00
	00		 call	 DWORD PTR [ecx+200]
  00560	3b f4		 cmp	 esi, esp
  00562	e8 00 00 00 00	 call	 __RTC_CheckEsp

; 572  : 		pDev->LightEnable(0, TRUE) ;

  00567	8b f4		 mov	 esi, esp
  00569	6a 01		 push	 1
  0056b	6a 00		 push	 0
  0056d	8b 45 08	 mov	 eax, DWORD PTR _pDev$[ebp]
  00570	8b 08		 mov	 ecx, DWORD PTR [eax]
  00572	8b 55 08	 mov	 edx, DWORD PTR _pDev$[ebp]
  00575	52		 push	 edx
  00576	ff 91 b8 00 00
	00		 call	 DWORD PTR [ecx+184]
  0057c	3b f4		 cmp	 esi, esp
  0057e	e8 00 00 00 00	 call	 __RTC_CheckEsp

; 573  : 
; 574  : 		if( m_pTerrain && m_bShowTerrain )

  00583	8b 45 f8	 mov	 eax, DWORD PTR _this$[ebp]
  00586	83 78 24 00	 cmp	 DWORD PTR [eax+36], 0
  0058a	0f 84 81 00 00
	00		 je	 $L93950
  00590	8b 45 f8	 mov	 eax, DWORD PTR _this$[ebp]
  00593	83 78 50 00	 cmp	 DWORD PTR [eax+80], 0
  00597	74 78		 je	 SHORT $L93950

; 575  : 		{
; 576  : 			pDev->SetRenderState(D3DRS_CULLMODE, D3DCULL_CW) ;

  00599	8b f4		 mov	 esi, esp
  0059b	6a 02		 push	 2
  0059d	6a 16		 push	 22			; 00000016H
  0059f	8b 45 08	 mov	 eax, DWORD PTR _pDev$[ebp]
  005a2	8b 08		 mov	 ecx, DWORD PTR [eax]
  005a4	8b 55 08	 mov	 edx, DWORD PTR _pDev$[ebp]
  005a7	52		 push	 edx
  005a8	ff 91 c8 00 00
	00		 call	 DWORD PTR [ecx+200]
  005ae	3b f4		 cmp	 esi, esp
  005b0	e8 00 00 00 00	 call	 __RTC_CheckEsp

; 577  : 			m_pTerrain->Render( pDev, pTex, pulPolyCount, m_pCamera, &matWorld, &m_pX7->m_matProj, &m_pX7->m_vpViewport, fFPS );

  005b5	8b 45 18	 mov	 eax, DWORD PTR _fFPS$[ebp]
  005b8	50		 push	 eax
  005b9	8b 4d f8	 mov	 ecx, DWORD PTR _this$[ebp]
  005bc	8b 51 38	 mov	 edx, DWORD PTR [ecx+56]
  005bf	81 c2 3c a9 02
	00		 add	 edx, 174396		; 0002a93cH
  005c5	52		 push	 edx
  005c6	8b 45 f8	 mov	 eax, DWORD PTR _this$[ebp]
  005c9	8b 48 38	 mov	 ecx, DWORD PTR [eax+56]
  005cc	81 c1 54 a9 02
	00		 add	 ecx, 174420		; 0002a954H
  005d2	51		 push	 ecx
  005d3	8d 55 b0	 lea	 edx, DWORD PTR _matWorld$[ebp]
  005d6	52		 push	 edx
  005d7	8b 45 f8	 mov	 eax, DWORD PTR _this$[ebp]
  005da	8b 48 2c	 mov	 ecx, DWORD PTR [eax+44]
  005dd	51		 push	 ecx
  005de	8b 55 10	 mov	 edx, DWORD PTR _pulPolyCount$[ebp]
  005e1	52		 push	 edx
  005e2	8b 45 0c	 mov	 eax, DWORD PTR _pTex$[ebp]
  005e5	50		 push	 eax
  005e6	8b 4d 08	 mov	 ecx, DWORD PTR _pDev$[ebp]
  005e9	51		 push	 ecx
  005ea	8b 55 f8	 mov	 edx, DWORD PTR _this$[ebp]
  005ed	8b 4a 24	 mov	 ecx, DWORD PTR [edx+36]
  005f0	e8 00 00 00 00	 call	 ?Render@CTerrain@@QAEJPAUIDirect3DDevice8@@PAVCTextures@@PAKPAVCCamera@@PAUD3DXMATRIX@@4PAU_D3DVIEWPORT8@@M@Z ; CTerrain::Render

; 578  : 			pDev->SetRenderState(D3DRS_CULLMODE, D3DCULL_CCW) ;

  005f5	8b f4		 mov	 esi, esp
  005f7	6a 03		 push	 3
  005f9	6a 16		 push	 22			; 00000016H
  005fb	8b 45 08	 mov	 eax, DWORD PTR _pDev$[ebp]
  005fe	8b 08		 mov	 ecx, DWORD PTR [eax]
  00600	8b 55 08	 mov	 edx, DWORD PTR _pDev$[ebp]
  00603	52		 push	 edx
  00604	ff 91 c8 00 00
	00		 call	 DWORD PTR [ecx+200]
  0060a	3b f4		 cmp	 esi, esp
  0060c	e8 00 00 00 00	 call	 __RTC_CheckEsp
$L93950:

; 579  : 		}
; 580  : 
; 581  : 	//
; 582  : 	// Ocean:
; 583  : 	//
; 584  : 		if( m_pOcean && m_bShowOcean && m_pFighter )

  00611	8b 45 f8	 mov	 eax, DWORD PTR _this$[ebp]
  00614	83 78 34 00	 cmp	 DWORD PTR [eax+52], 0
  00618	0f 84 ea 00 00
	00		 je	 $L93951
  0061e	8b 45 f8	 mov	 eax, DWORD PTR _this$[ebp]
  00621	83 78 54 00	 cmp	 DWORD PTR [eax+84], 0
  00625	0f 84 dd 00 00
	00		 je	 $L93951
  0062b	8b 45 f8	 mov	 eax, DWORD PTR _this$[ebp]
  0062e	83 78 30 00	 cmp	 DWORD PTR [eax+48], 0
  00632	0f 84 d0 00 00
	00		 je	 $L93951

; 585  : 		{
; 586  : 			pDev->SetRenderState(D3DRS_ZBIAS, 1) ;

  00638	8b f4		 mov	 esi, esp
  0063a	6a 01		 push	 1
  0063c	6a 2f		 push	 47			; 0000002fH
  0063e	8b 45 08	 mov	 eax, DWORD PTR _pDev$[ebp]
  00641	8b 08		 mov	 ecx, DWORD PTR [eax]
  00643	8b 55 08	 mov	 edx, DWORD PTR _pDev$[ebp]
  00646	52		 push	 edx
  00647	ff 91 c8 00 00
	00		 call	 DWORD PTR [ecx+200]
  0064d	3b f4		 cmp	 esi, esp
  0064f	e8 00 00 00 00	 call	 __RTC_CheckEsp

; 587  : 			pDev->SetRenderState(D3DRS_CULLMODE, D3DCULL_NONE) ;

  00654	8b f4		 mov	 esi, esp
  00656	6a 01		 push	 1
  00658	6a 16		 push	 22			; 00000016H
  0065a	8b 45 08	 mov	 eax, DWORD PTR _pDev$[ebp]
  0065d	8b 08		 mov	 ecx, DWORD PTR [eax]
  0065f	8b 55 08	 mov	 edx, DWORD PTR _pDev$[ebp]
  00662	52		 push	 edx
  00663	ff 91 c8 00 00
	00		 call	 DWORD PTR [ecx+200]
  00669	3b f4		 cmp	 esi, esp
  0066b	e8 00 00 00 00	 call	 __RTC_CheckEsp

; 588  : 			pDev->SetRenderState(D3DRS_ALPHABLENDENABLE, TRUE) ;

  00670	8b f4		 mov	 esi, esp
  00672	6a 01		 push	 1
  00674	6a 1b		 push	 27			; 0000001bH
  00676	8b 45 08	 mov	 eax, DWORD PTR _pDev$[ebp]
  00679	8b 08		 mov	 ecx, DWORD PTR [eax]
  0067b	8b 55 08	 mov	 edx, DWORD PTR _pDev$[ebp]
  0067e	52		 push	 edx
  0067f	ff 91 c8 00 00
	00		 call	 DWORD PTR [ecx+200]
  00685	3b f4		 cmp	 esi, esp
  00687	e8 00 00 00 00	 call	 __RTC_CheckEsp

; 589  : 			m_pOcean->Render( pDev, pTex, pulPolyCount, &matWorld, &m_pFighter->m_vPosition );

  0068c	8b 45 f8	 mov	 eax, DWORD PTR _this$[ebp]
  0068f	8b 48 30	 mov	 ecx, DWORD PTR [eax+48]
  00692	81 c1 fc 01 00
	00		 add	 ecx, 508		; 000001fcH
  00698	51		 push	 ecx
  00699	8d 55 b0	 lea	 edx, DWORD PTR _matWorld$[ebp]
  0069c	52		 push	 edx
  0069d	8b 45 10	 mov	 eax, DWORD PTR _pulPolyCount$[ebp]
  006a0	50		 push	 eax
  006a1	8b 4d 0c	 mov	 ecx, DWORD PTR _pTex$[ebp]
  006a4	51		 push	 ecx
  006a5	8b 55 08	 mov	 edx, DWORD PTR _pDev$[ebp]
  006a8	52		 push	 edx
  006a9	8b 45 f8	 mov	 eax, DWORD PTR _this$[ebp]
  006ac	8b 48 34	 mov	 ecx, DWORD PTR [eax+52]
  006af	e8 00 00 00 00	 call	 ?Render@COcean@@QAEJPAUIDirect3DDevice8@@PAVCTextures@@PAKPAUD3DXMATRIX@@PAUD3DXVECTOR3@@@Z ; COcean::Render

; 590  : 			pDev->SetRenderState(D3DRS_ALPHABLENDENABLE, FALSE) ;

  006b4	8b f4		 mov	 esi, esp
  006b6	6a 00		 push	 0
  006b8	6a 1b		 push	 27			; 0000001bH
  006ba	8b 45 08	 mov	 eax, DWORD PTR _pDev$[ebp]
  006bd	8b 08		 mov	 ecx, DWORD PTR [eax]
  006bf	8b 55 08	 mov	 edx, DWORD PTR _pDev$[ebp]
  006c2	52		 push	 edx
  006c3	ff 91 c8 00 00
	00		 call	 DWORD PTR [ecx+200]
  006c9	3b f4		 cmp	 esi, esp
  006cb	e8 00 00 00 00	 call	 __RTC_CheckEsp

; 591  : 			pDev->SetRenderState(D3DRS_CULLMODE, D3DCULL_CCW) ;

  006d0	8b f4		 mov	 esi, esp
  006d2	6a 03		 push	 3
  006d4	6a 16		 push	 22			; 00000016H
  006d6	8b 45 08	 mov	 eax, DWORD PTR _pDev$[ebp]
  006d9	8b 08		 mov	 ecx, DWORD PTR [eax]
  006db	8b 55 08	 mov	 edx, DWORD PTR _pDev$[ebp]
  006de	52		 push	 edx
  006df	ff 91 c8 00 00
	00		 call	 DWORD PTR [ecx+200]
  006e5	3b f4		 cmp	 esi, esp
  006e7	e8 00 00 00 00	 call	 __RTC_CheckEsp

; 592  : 			pDev->SetRenderState(D3DRS_ZBIAS, 0) ;

  006ec	8b f4		 mov	 esi, esp
  006ee	6a 00		 push	 0
  006f0	6a 2f		 push	 47			; 0000002fH
  006f2	8b 45 08	 mov	 eax, DWORD PTR _pDev$[ebp]
  006f5	8b 08		 mov	 ecx, DWORD PTR [eax]
  006f7	8b 55 08	 mov	 edx, DWORD PTR _pDev$[ebp]
  006fa	52		 push	 edx
  006fb	ff 91 c8 00 00
	00		 call	 DWORD PTR [ecx+200]
  00701	3b f4		 cmp	 esi, esp
  00703	e8 00 00 00 00	 call	 __RTC_CheckEsp
$L93951:

; 593  : 		}
; 594  : 
; 595  : 	//
; 596  : 	// Fighters:
; 597  : 	//
; 598  : 		pDev->SetRenderState( D3DRS_LIGHTING, TRUE );

  00708	8b f4		 mov	 esi, esp
  0070a	6a 01		 push	 1
  0070c	68 89 00 00 00	 push	 137			; 00000089H
  00711	8b 45 08	 mov	 eax, DWORD PTR _pDev$[ebp]
  00714	8b 08		 mov	 ecx, DWORD PTR [eax]
  00716	8b 55 08	 mov	 edx, DWORD PTR _pDev$[ebp]
  00719	52		 push	 edx
  0071a	ff 91 c8 00 00
	00		 call	 DWORD PTR [ecx+200]
  00720	3b f4		 cmp	 esi, esp
  00722	e8 00 00 00 00	 call	 __RTC_CheckEsp

; 599  : 		pDev->SetRenderState( D3DRS_NORMALIZENORMALS, TRUE );

  00727	8b f4		 mov	 esi, esp
  00729	6a 01		 push	 1
  0072b	68 8f 00 00 00	 push	 143			; 0000008fH
  00730	8b 45 08	 mov	 eax, DWORD PTR _pDev$[ebp]
  00733	8b 08		 mov	 ecx, DWORD PTR [eax]
  00735	8b 55 08	 mov	 edx, DWORD PTR _pDev$[ebp]
  00738	52		 push	 edx
  00739	ff 91 c8 00 00
	00		 call	 DWORD PTR [ecx+200]
  0073f	3b f4		 cmp	 esi, esp
  00741	e8 00 00 00 00	 call	 __RTC_CheckEsp

; 600  : 		pDev->SetRenderState( D3DRS_CULLMODE, D3DCULL_CCW );

  00746	8b f4		 mov	 esi, esp
  00748	6a 03		 push	 3
  0074a	6a 16		 push	 22			; 00000016H
  0074c	8b 45 08	 mov	 eax, DWORD PTR _pDev$[ebp]
  0074f	8b 08		 mov	 ecx, DWORD PTR [eax]
  00751	8b 55 08	 mov	 edx, DWORD PTR _pDev$[ebp]
  00754	52		 push	 edx
  00755	ff 91 c8 00 00
	00		 call	 DWORD PTR [ecx+200]
  0075b	3b f4		 cmp	 esi, esp
  0075d	e8 00 00 00 00	 call	 __RTC_CheckEsp

; 601  : 		pDev->SetRenderState( D3DRS_ALPHABLENDENABLE, TRUE );

  00762	8b f4		 mov	 esi, esp
  00764	6a 01		 push	 1
  00766	6a 1b		 push	 27			; 0000001bH
  00768	8b 45 08	 mov	 eax, DWORD PTR _pDev$[ebp]
  0076b	8b 08		 mov	 ecx, DWORD PTR [eax]
  0076d	8b 55 08	 mov	 edx, DWORD PTR _pDev$[ebp]
  00770	52		 push	 edx
  00771	ff 91 c8 00 00
	00		 call	 DWORD PTR [ecx+200]
  00777	3b f4		 cmp	 esi, esp
  00779	e8 00 00 00 00	 call	 __RTC_CheckEsp

; 602  : 		pDev->SetRenderState( D3DRS_SPECULARENABLE, TRUE );

  0077e	8b f4		 mov	 esi, esp
  00780	6a 01		 push	 1
  00782	6a 1d		 push	 29			; 0000001dH
  00784	8b 45 08	 mov	 eax, DWORD PTR _pDev$[ebp]
  00787	8b 08		 mov	 ecx, DWORD PTR [eax]
  00789	8b 55 08	 mov	 edx, DWORD PTR _pDev$[ebp]
  0078c	52		 push	 edx
  0078d	ff 91 c8 00 00
	00		 call	 DWORD PTR [ecx+200]
  00793	3b f4		 cmp	 esi, esp
  00795	e8 00 00 00 00	 call	 __RTC_CheckEsp

; 603  : 		pDev->SetTexture( 0, pTex->m_pTex[ MISC_TEX_START + 0 ] );

  0079a	8b f4		 mov	 esi, esp
  0079c	8b 45 0c	 mov	 eax, DWORD PTR _pTex$[ebp]
  0079f	8b 88 0c 0b 00
	00		 mov	 ecx, DWORD PTR [eax+2828]
  007a5	51		 push	 ecx
  007a6	6a 00		 push	 0
  007a8	8b 55 08	 mov	 edx, DWORD PTR _pDev$[ebp]
  007ab	8b 02		 mov	 eax, DWORD PTR [edx]
  007ad	8b 4d 08	 mov	 ecx, DWORD PTR _pDev$[ebp]
  007b0	51		 push	 ecx
  007b1	ff 90 f4 00 00
	00		 call	 DWORD PTR [eax+244]
  007b7	3b f4		 cmp	 esi, esp
  007b9	e8 00 00 00 00	 call	 __RTC_CheckEsp

; 604  : 		m_dwNumFightersPVS = 0 ;

  007be	8b 45 f8	 mov	 eax, DWORD PTR _this$[ebp]
  007c1	c7 40 1c 00 00
	00 00		 mov	 DWORD PTR [eax+28], 0

; 605  : 		m_dwNumFightersDrawn = 0 ;

  007c8	8b 45 f8	 mov	 eax, DWORD PTR _this$[ebp]
  007cb	c7 40 20 00 00
	00 00		 mov	 DWORD PTR [eax+32], 0

; 606  : 		if( m_pFighter && m_bShowFighter )

  007d2	8b 45 f8	 mov	 eax, DWORD PTR _this$[ebp]
  007d5	83 78 30 00	 cmp	 DWORD PTR [eax+48], 0
  007d9	0f 84 b6 00 00
	00		 je	 $L93952
  007df	8b 45 f8	 mov	 eax, DWORD PTR _this$[ebp]
  007e2	83 78 5c 00	 cmp	 DWORD PTR [eax+92], 0
  007e6	0f 84 a9 00 00
	00		 je	 $L93952

; 607  : 		{	
; 608  : 		// don't draw when inside cockpit
; 609  : 			if( m_ctCamMode != CT_COCKPIT_FIXED && m_ctCamMode != CT_COCKPIT_ROLL )

  007ec	8b 45 f8	 mov	 eax, DWORD PTR _this$[ebp]
  007ef	83 78 6c 07	 cmp	 DWORD PTR [eax+108], 7
  007f3	0f 84 9c 00 00
	00		 je	 $L93952
  007f9	8b 45 f8	 mov	 eax, DWORD PTR _this$[ebp]
  007fc	83 78 6c 08	 cmp	 DWORD PTR [eax+108], 8
  00800	0f 84 8f 00 00
	00		 je	 $L93952

; 610  : 			{
; 611  : 				m_dwNumFightersPVS++ ;

  00806	8b 45 f8	 mov	 eax, DWORD PTR _this$[ebp]
  00809	8b 48 1c	 mov	 ecx, DWORD PTR [eax+28]
  0080c	83 c1 01	 add	 ecx, 1
  0080f	8b 55 f8	 mov	 edx, DWORD PTR _this$[ebp]
  00812	89 4a 1c	 mov	 DWORD PTR [edx+28], ecx

; 612  : 				m_dwNumFightersDrawn += m_pFighter->Render( pDev, pTex, pulPolyCount, m_pCamera, &m_pX7->m_matProj, &m_pX7->m_vpViewport, &matWorld, m_pCamera->m_matView, m_pX7->m_matProj, m_pX7->m_fTime, (const xVec3)m_litMain.Direction );

  00815	8b 45 f8	 mov	 eax, DWORD PTR _this$[ebp]
  00818	05 c0 00 00 00	 add	 eax, 192		; 000000c0H
  0081d	50		 push	 eax
  0081e	8d 8d 14 fd ff
	ff		 lea	 ecx, DWORD PTR $T94391[ebp]
  00824	e8 00 00 00 00	 call	 ??0D3DXVECTOR3@@QAE@ABU_D3DVECTOR@@@Z ; D3DXVECTOR3::D3DXVECTOR3
  00829	50		 push	 eax
  0082a	8b 4d f8	 mov	 ecx, DWORD PTR _this$[ebp]
  0082d	8b 51 38	 mov	 edx, DWORD PTR [ecx+56]
  00830	8b 82 c4 a7 02
	00		 mov	 eax, DWORD PTR [edx+174020]
  00836	50		 push	 eax
  00837	8b 4d f8	 mov	 ecx, DWORD PTR _this$[ebp]
  0083a	8b 51 38	 mov	 edx, DWORD PTR [ecx+56]
  0083d	81 c2 54 a9 02
	00		 add	 edx, 174420		; 0002a954H
  00843	52		 push	 edx
  00844	8b 45 f8	 mov	 eax, DWORD PTR _this$[ebp]
  00847	8b 48 2c	 mov	 ecx, DWORD PTR [eax+44]
  0084a	83 c1 30	 add	 ecx, 48			; 00000030H
  0084d	51		 push	 ecx
  0084e	8d 55 b0	 lea	 edx, DWORD PTR _matWorld$[ebp]
  00851	52		 push	 edx
  00852	8b 45 f8	 mov	 eax, DWORD PTR _this$[ebp]
  00855	8b 48 38	 mov	 ecx, DWORD PTR [eax+56]
  00858	81 c1 3c a9 02
	00		 add	 ecx, 174396		; 0002a93cH
  0085e	51		 push	 ecx
  0085f	8b 55 f8	 mov	 edx, DWORD PTR _this$[ebp]
  00862	8b 42 38	 mov	 eax, DWORD PTR [edx+56]
  00865	05 54 a9 02 00	 add	 eax, 174420		; 0002a954H
  0086a	50		 push	 eax
  0086b	8b 4d f8	 mov	 ecx, DWORD PTR _this$[ebp]
  0086e	8b 51 2c	 mov	 edx, DWORD PTR [ecx+44]
  00871	52		 push	 edx
  00872	8b 45 10	 mov	 eax, DWORD PTR _pulPolyCount$[ebp]
  00875	50		 push	 eax
  00876	8b 4d 0c	 mov	 ecx, DWORD PTR _pTex$[ebp]
  00879	51		 push	 ecx
  0087a	8b 55 08	 mov	 edx, DWORD PTR _pDev$[ebp]
  0087d	52		 push	 edx
  0087e	8b 45 f8	 mov	 eax, DWORD PTR _this$[ebp]
  00881	8b 48 30	 mov	 ecx, DWORD PTR [eax+48]
  00884	e8 00 00 00 00	 call	 ?Render@CFighter@@QAEHPAUIDirect3DDevice8@@PAVCTextures@@PAKPAVCCamera@@PAUD3DXMATRIX@@PAU_D3DVIEWPORT8@@4ABU5@6MABUD3DXVECTOR3@@@Z ; CFighter::Render
  00889	8b 4d f8	 mov	 ecx, DWORD PTR _this$[ebp]
  0088c	03 41 20	 add	 eax, DWORD PTR [ecx+32]
  0088f	8b 55 f8	 mov	 edx, DWORD PTR _this$[ebp]
  00892	89 42 20	 mov	 DWORD PTR [edx+32], eax
$L93952:

; 613  : 			}
; 614  : 		}
; 615  : 		pBot = m_pBots ;

  00895	8b 45 f8	 mov	 eax, DWORD PTR _this$[ebp]
  00898	8b 48 14	 mov	 ecx, DWORD PTR [eax+20]
  0089b	89 8d 84 fe ff
	ff		 mov	 DWORD PTR _pBot$[ebp], ecx
$L93957:

; 616  : 		while( pBot )

  008a1	83 bd 84 fe ff
	ff 00		 cmp	 DWORD PTR _pBot$[ebp], 0
  008a8	0f 84 be 00 00
	00		 je	 $L93958

; 617  : 		{
; 618  : 			if( !pBot->pFighter->m_bBotIsDead )

  008ae	8b 85 84 fe ff
	ff		 mov	 eax, DWORD PTR _pBot$[ebp]
  008b4	8b 48 04	 mov	 ecx, DWORD PTR [eax+4]
  008b7	0f b6 91 50 03
	00 00		 movzx	 edx, BYTE PTR [ecx+848]
  008be	85 d2		 test	 edx, edx
  008c0	0f 85 92 00 00
	00		 jne	 $L93959

; 619  : 			{
; 620  : 				m_dwNumFightersPVS++ ;

  008c6	8b 45 f8	 mov	 eax, DWORD PTR _this$[ebp]
  008c9	8b 48 1c	 mov	 ecx, DWORD PTR [eax+28]
  008cc	83 c1 01	 add	 ecx, 1
  008cf	8b 55 f8	 mov	 edx, DWORD PTR _this$[ebp]
  008d2	89 4a 1c	 mov	 DWORD PTR [edx+28], ecx

; 621  : 				m_dwNumFightersDrawn += pBot->pFighter->Render( pDev, pTex, pulPolyCount, m_pCamera, &m_pX7->m_matProj, &m_pX7->m_vpViewport, &matWorld, m_pCamera->m_matView, m_pX7->m_matProj, m_pX7->m_fTime, (const xVec3)m_litMain.Direction );

  008d5	8b 45 f8	 mov	 eax, DWORD PTR _this$[ebp]
  008d8	05 c0 00 00 00	 add	 eax, 192		; 000000c0H
  008dd	50		 push	 eax
  008de	8d 8d 00 fd ff
	ff		 lea	 ecx, DWORD PTR $T94392[ebp]
  008e4	e8 00 00 00 00	 call	 ??0D3DXVECTOR3@@QAE@ABU_D3DVECTOR@@@Z ; D3DXVECTOR3::D3DXVECTOR3
  008e9	50		 push	 eax
  008ea	8b 4d f8	 mov	 ecx, DWORD PTR _this$[ebp]
  008ed	8b 51 38	 mov	 edx, DWORD PTR [ecx+56]
  008f0	8b 82 c4 a7 02
	00		 mov	 eax, DWORD PTR [edx+174020]
  008f6	50		 push	 eax
  008f7	8b 4d f8	 mov	 ecx, DWORD PTR _this$[ebp]
  008fa	8b 51 38	 mov	 edx, DWORD PTR [ecx+56]
  008fd	81 c2 54 a9 02
	00		 add	 edx, 174420		; 0002a954H
  00903	52		 push	 edx
  00904	8b 45 f8	 mov	 eax, DWORD PTR _this$[ebp]
  00907	8b 48 2c	 mov	 ecx, DWORD PTR [eax+44]
  0090a	83 c1 30	 add	 ecx, 48			; 00000030H
  0090d	51		 push	 ecx
  0090e	8d 55 b0	 lea	 edx, DWORD PTR _matWorld$[ebp]
  00911	52		 push	 edx
  00912	8b 45 f8	 mov	 eax, DWORD PTR _this$[ebp]
  00915	8b 48 38	 mov	 ecx, DWORD PTR [eax+56]
  00918	81 c1 3c a9 02
	00		 add	 ecx, 174396		; 0002a93cH
  0091e	51		 push	 ecx
  0091f	8b 55 f8	 mov	 edx, DWORD PTR _this$[ebp]
  00922	8b 42 38	 mov	 eax, DWORD PTR [edx+56]
  00925	05 54 a9 02 00	 add	 eax, 174420		; 0002a954H
  0092a	50		 push	 eax
  0092b	8b 4d f8	 mov	 ecx, DWORD PTR _this$[ebp]
  0092e	8b 51 2c	 mov	 edx, DWORD PTR [ecx+44]
  00931	52		 push	 edx
  00932	8b 45 10	 mov	 eax, DWORD PTR _pulPolyCount$[ebp]
  00935	50		 push	 eax
  00936	8b 4d 0c	 mov	 ecx, DWORD PTR _pTex$[ebp]
  00939	51		 push	 ecx
  0093a	8b 55 08	 mov	 edx, DWORD PTR _pDev$[ebp]
  0093d	52		 push	 edx
  0093e	8b 85 84 fe ff
	ff		 mov	 eax, DWORD PTR _pBot$[ebp]
  00944	8b 48 04	 mov	 ecx, DWORD PTR [eax+4]
  00947	e8 00 00 00 00	 call	 ?Render@CFighter@@QAEHPAUIDirect3DDevice8@@PAVCTextures@@PAKPAVCCamera@@PAUD3DXMATRIX@@PAU_D3DVIEWPORT8@@4ABU5@6MABUD3DXVECTOR3@@@Z ; CFighter::Render
  0094c	8b 4d f8	 mov	 ecx, DWORD PTR _this$[ebp]
  0094f	03 41 20	 add	 eax, DWORD PTR [ecx+32]
  00952	8b 55 f8	 mov	 edx, DWORD PTR _this$[ebp]
  00955	89 42 20	 mov	 DWORD PTR [edx+32], eax
$L93959:

; 622  : 			}
; 623  : 			pBot = pBot->pNext ;

  00958	8b 85 84 fe ff
	ff		 mov	 eax, DWORD PTR _pBot$[ebp]
  0095e	8b 48 0c	 mov	 ecx, DWORD PTR [eax+12]
  00961	89 8d 84 fe ff
	ff		 mov	 DWORD PTR _pBot$[ebp], ecx

; 624  : 		}

  00967	e9 35 ff ff ff	 jmp	 $L93957
$L93958:

; 625  : 		pDev->SetRenderState( D3DRS_SPECULARENABLE, FALSE );

  0096c	8b f4		 mov	 esi, esp
  0096e	6a 00		 push	 0
  00970	6a 1d		 push	 29			; 0000001dH
  00972	8b 45 08	 mov	 eax, DWORD PTR _pDev$[ebp]
  00975	8b 08		 mov	 ecx, DWORD PTR [eax]
  00977	8b 55 08	 mov	 edx, DWORD PTR _pDev$[ebp]
  0097a	52		 push	 edx
  0097b	ff 91 c8 00 00
	00		 call	 DWORD PTR [ecx+200]
  00981	3b f4		 cmp	 esi, esp
  00983	e8 00 00 00 00	 call	 __RTC_CheckEsp

; 626  : 		pDev->SetRenderState( D3DRS_ALPHABLENDENABLE, FALSE );

  00988	8b f4		 mov	 esi, esp
  0098a	6a 00		 push	 0
  0098c	6a 1b		 push	 27			; 0000001bH
  0098e	8b 45 08	 mov	 eax, DWORD PTR _pDev$[ebp]
  00991	8b 08		 mov	 ecx, DWORD PTR [eax]
  00993	8b 55 08	 mov	 edx, DWORD PTR _pDev$[ebp]
  00996	52		 push	 edx
  00997	ff 91 c8 00 00
	00		 call	 DWORD PTR [ecx+200]
  0099d	3b f4		 cmp	 esi, esp
  0099f	e8 00 00 00 00	 call	 __RTC_CheckEsp

; 627  : 		pDev->SetRenderState( D3DRS_CULLMODE, D3DCULL_CCW );  

  009a4	8b f4		 mov	 esi, esp
  009a6	6a 03		 push	 3
  009a8	6a 16		 push	 22			; 00000016H
  009aa	8b 45 08	 mov	 eax, DWORD PTR _pDev$[ebp]
  009ad	8b 08		 mov	 ecx, DWORD PTR [eax]
  009af	8b 55 08	 mov	 edx, DWORD PTR _pDev$[ebp]
  009b2	52		 push	 edx
  009b3	ff 91 c8 00 00
	00		 call	 DWORD PTR [ecx+200]
  009b9	3b f4		 cmp	 esi, esp
  009bb	e8 00 00 00 00	 call	 __RTC_CheckEsp

; 628  : 		pDev->SetRenderState( D3DRS_NORMALIZENORMALS, FALSE );

  009c0	8b f4		 mov	 esi, esp
  009c2	6a 00		 push	 0
  009c4	68 8f 00 00 00	 push	 143			; 0000008fH
  009c9	8b 45 08	 mov	 eax, DWORD PTR _pDev$[ebp]
  009cc	8b 08		 mov	 ecx, DWORD PTR [eax]
  009ce	8b 55 08	 mov	 edx, DWORD PTR _pDev$[ebp]
  009d1	52		 push	 edx
  009d2	ff 91 c8 00 00
	00		 call	 DWORD PTR [ecx+200]
  009d8	3b f4		 cmp	 esi, esp
  009da	e8 00 00 00 00	 call	 __RTC_CheckEsp

; 629  : 
; 630  : 	//
; 631  : 	// Fighters' FX systems:
; 632  : 	//
; 633  : 		pDev->SetTexture( 0, pTex->m_pTex[ PARTICLE_TEX_START+1 ] );

  009df	8b f4		 mov	 esi, esp
  009e1	8b 45 0c	 mov	 eax, DWORD PTR _pTex$[ebp]
  009e4	8b 88 48 0a 00
	00		 mov	 ecx, DWORD PTR [eax+2632]
  009ea	51		 push	 ecx
  009eb	6a 00		 push	 0
  009ed	8b 55 08	 mov	 edx, DWORD PTR _pDev$[ebp]
  009f0	8b 02		 mov	 eax, DWORD PTR [edx]
  009f2	8b 4d 08	 mov	 ecx, DWORD PTR _pDev$[ebp]
  009f5	51		 push	 ecx
  009f6	ff 90 f4 00 00
	00		 call	 DWORD PTR [eax+244]
  009fc	3b f4		 cmp	 esi, esp
  009fe	e8 00 00 00 00	 call	 __RTC_CheckEsp

; 634  : 		pDev->SetRenderState( D3DRS_SRCBLEND,  D3DBLEND_SRCALPHA );

  00a03	8b f4		 mov	 esi, esp
  00a05	6a 05		 push	 5
  00a07	6a 13		 push	 19			; 00000013H
  00a09	8b 45 08	 mov	 eax, DWORD PTR _pDev$[ebp]
  00a0c	8b 08		 mov	 ecx, DWORD PTR [eax]
  00a0e	8b 55 08	 mov	 edx, DWORD PTR _pDev$[ebp]
  00a11	52		 push	 edx
  00a12	ff 91 c8 00 00
	00		 call	 DWORD PTR [ecx+200]
  00a18	3b f4		 cmp	 esi, esp
  00a1a	e8 00 00 00 00	 call	 __RTC_CheckEsp

; 635  : 		pDev->SetRenderState( D3DRS_DESTBLEND, D3DBLEND_DESTALPHA );

  00a1f	8b f4		 mov	 esi, esp
  00a21	6a 07		 push	 7
  00a23	6a 14		 push	 20			; 00000014H
  00a25	8b 45 08	 mov	 eax, DWORD PTR _pDev$[ebp]
  00a28	8b 08		 mov	 ecx, DWORD PTR [eax]
  00a2a	8b 55 08	 mov	 edx, DWORD PTR _pDev$[ebp]
  00a2d	52		 push	 edx
  00a2e	ff 91 c8 00 00
	00		 call	 DWORD PTR [ecx+200]
  00a34	3b f4		 cmp	 esi, esp
  00a36	e8 00 00 00 00	 call	 __RTC_CheckEsp

; 636  : 
; 637  : 	// contrails;
; 638  : 		pDev->SetRenderState( D3DRS_ZWRITEENABLE, FALSE );

  00a3b	8b f4		 mov	 esi, esp
  00a3d	6a 00		 push	 0
  00a3f	6a 0e		 push	 14			; 0000000eH
  00a41	8b 45 08	 mov	 eax, DWORD PTR _pDev$[ebp]
  00a44	8b 08		 mov	 ecx, DWORD PTR [eax]
  00a46	8b 55 08	 mov	 edx, DWORD PTR _pDev$[ebp]
  00a49	52		 push	 edx
  00a4a	ff 91 c8 00 00
	00		 call	 DWORD PTR [ecx+200]
  00a50	3b f4		 cmp	 esi, esp
  00a52	e8 00 00 00 00	 call	 __RTC_CheckEsp

; 639  : 		if( m_pFighter && m_bShowFighter )

  00a57	8b 45 f8	 mov	 eax, DWORD PTR _this$[ebp]
  00a5a	83 78 30 00	 cmp	 DWORD PTR [eax+48], 0
  00a5e	74 6e		 je	 SHORT $L93962
  00a60	8b 45 f8	 mov	 eax, DWORD PTR _this$[ebp]
  00a63	83 78 5c 00	 cmp	 DWORD PTR [eax+92], 0
  00a67	74 65		 je	 SHORT $L93962

; 640  : 		{
; 641  : 			m_pFighter->RenderFX_Contrails( pDev, pTex, pulPolyCount, m_ctCamMode, &matWorld, m_pCamera, &m_pX7->m_matProj, &m_pX7->m_vpViewport, m_pTerrain, m_pSharedParticleSystemVB, fFPS, SB, DB );

  00a69	8b 45 f8	 mov	 eax, DWORD PTR _this$[ebp]
  00a6c	8b 48 68	 mov	 ecx, DWORD PTR [eax+104]
  00a6f	51		 push	 ecx
  00a70	8b 55 f8	 mov	 edx, DWORD PTR _this$[ebp]
  00a73	8b 42 64	 mov	 eax, DWORD PTR [edx+100]
  00a76	50		 push	 eax
  00a77	8b 4d 18	 mov	 ecx, DWORD PTR _fFPS$[ebp]
  00a7a	51		 push	 ecx
  00a7b	8b 55 f8	 mov	 edx, DWORD PTR _this$[ebp]
  00a7e	8b 82 10 01 00
	00		 mov	 eax, DWORD PTR [edx+272]
  00a84	50		 push	 eax
  00a85	8b 4d f8	 mov	 ecx, DWORD PTR _this$[ebp]
  00a88	8b 51 24	 mov	 edx, DWORD PTR [ecx+36]
  00a8b	52		 push	 edx
  00a8c	8b 45 f8	 mov	 eax, DWORD PTR _this$[ebp]
  00a8f	8b 48 38	 mov	 ecx, DWORD PTR [eax+56]
  00a92	81 c1 3c a9 02
	00		 add	 ecx, 174396		; 0002a93cH
  00a98	51		 push	 ecx
  00a99	8b 55 f8	 mov	 edx, DWORD PTR _this$[ebp]
  00a9c	8b 42 38	 mov	 eax, DWORD PTR [edx+56]
  00a9f	05 54 a9 02 00	 add	 eax, 174420		; 0002a954H
  00aa4	50		 push	 eax
  00aa5	8b 4d f8	 mov	 ecx, DWORD PTR _this$[ebp]
  00aa8	8b 51 2c	 mov	 edx, DWORD PTR [ecx+44]
  00aab	52		 push	 edx
  00aac	8d 45 b0	 lea	 eax, DWORD PTR _matWorld$[ebp]
  00aaf	50		 push	 eax
  00ab0	8b 4d f8	 mov	 ecx, DWORD PTR _this$[ebp]
  00ab3	8b 51 6c	 mov	 edx, DWORD PTR [ecx+108]
  00ab6	52		 push	 edx
  00ab7	8b 45 10	 mov	 eax, DWORD PTR _pulPolyCount$[ebp]
  00aba	50		 push	 eax
  00abb	8b 4d 0c	 mov	 ecx, DWORD PTR _pTex$[ebp]
  00abe	51		 push	 ecx
  00abf	8b 55 08	 mov	 edx, DWORD PTR _pDev$[ebp]
  00ac2	52		 push	 edx
  00ac3	8b 45 f8	 mov	 eax, DWORD PTR _this$[ebp]
  00ac6	8b 48 30	 mov	 ecx, DWORD PTR [eax+48]
  00ac9	e8 00 00 00 00	 call	 ?RenderFX_Contrails@CFighter@@QAEJPAUIDirect3DDevice8@@PAVCTextures@@PAKHPAUD3DXMATRIX@@PAVCCamera@@3PAU_D3DVIEWPORT8@@PAVCTerrain@@PAUIDirect3DVertexBuffer8@@MHH@Z ; CFighter::RenderFX_Contrails
$L93962:

; 642  : 		}
; 643  : 		pBot = m_pBots ;

  00ace	8b 45 f8	 mov	 eax, DWORD PTR _this$[ebp]
  00ad1	8b 48 14	 mov	 ecx, DWORD PTR [eax+20]
  00ad4	89 8d 84 fe ff
	ff		 mov	 DWORD PTR _pBot$[ebp], ecx
$L93964:

; 644  : 		while( pBot )

  00ada	83 bd 84 fe ff
	ff 00		 cmp	 DWORD PTR _pBot$[ebp], 0
  00ae1	0f 84 90 00 00
	00		 je	 $L93965

; 645  : 		{
; 646  : 			if( !pBot->pFighter->m_bBotIsDead )

  00ae7	8b 85 84 fe ff
	ff		 mov	 eax, DWORD PTR _pBot$[ebp]
  00aed	8b 48 04	 mov	 ecx, DWORD PTR [eax+4]
  00af0	0f b6 91 50 03
	00 00		 movzx	 edx, BYTE PTR [ecx+848]
  00af7	85 d2		 test	 edx, edx
  00af9	75 68		 jne	 SHORT $L93966

; 647  : 				pBot->pFighter->RenderFX_Contrails( pDev, pTex, pulPolyCount, m_ctCamMode, &matWorld, m_pCamera, &m_pX7->m_matProj, &m_pX7->m_vpViewport, m_pTerrain, m_pSharedParticleSystemVB, fFPS, SB, DB );

  00afb	8b 45 f8	 mov	 eax, DWORD PTR _this$[ebp]
  00afe	8b 48 68	 mov	 ecx, DWORD PTR [eax+104]
  00b01	51		 push	 ecx
  00b02	8b 55 f8	 mov	 edx, DWORD PTR _this$[ebp]
  00b05	8b 42 64	 mov	 eax, DWORD PTR [edx+100]
  00b08	50		 push	 eax
  00b09	8b 4d 18	 mov	 ecx, DWORD PTR _fFPS$[ebp]
  00b0c	51		 push	 ecx
  00b0d	8b 55 f8	 mov	 edx, DWORD PTR _this$[ebp]
  00b10	8b 82 10 01 00
	00		 mov	 eax, DWORD PTR [edx+272]
  00b16	50		 push	 eax
  00b17	8b 4d f8	 mov	 ecx, DWORD PTR _this$[ebp]
  00b1a	8b 51 24	 mov	 edx, DWORD PTR [ecx+36]
  00b1d	52		 push	 edx
  00b1e	8b 45 f8	 mov	 eax, DWORD PTR _this$[ebp]
  00b21	8b 48 38	 mov	 ecx, DWORD PTR [eax+56]
  00b24	81 c1 3c a9 02
	00		 add	 ecx, 174396		; 0002a93cH
  00b2a	51		 push	 ecx
  00b2b	8b 55 f8	 mov	 edx, DWORD PTR _this$[ebp]
  00b2e	8b 42 38	 mov	 eax, DWORD PTR [edx+56]
  00b31	05 54 a9 02 00	 add	 eax, 174420		; 0002a954H
  00b36	50		 push	 eax
  00b37	8b 4d f8	 mov	 ecx, DWORD PTR _this$[ebp]
  00b3a	8b 51 2c	 mov	 edx, DWORD PTR [ecx+44]
  00b3d	52		 push	 edx
  00b3e	8d 45 b0	 lea	 eax, DWORD PTR _matWorld$[ebp]
  00b41	50		 push	 eax
  00b42	8b 4d f8	 mov	 ecx, DWORD PTR _this$[ebp]
  00b45	8b 51 6c	 mov	 edx, DWORD PTR [ecx+108]
  00b48	52		 push	 edx
  00b49	8b 45 10	 mov	 eax, DWORD PTR _pulPolyCount$[ebp]
  00b4c	50		 push	 eax
  00b4d	8b 4d 0c	 mov	 ecx, DWORD PTR _pTex$[ebp]
  00b50	51		 push	 ecx
  00b51	8b 55 08	 mov	 edx, DWORD PTR _pDev$[ebp]
  00b54	52		 push	 edx
  00b55	8b 85 84 fe ff
	ff		 mov	 eax, DWORD PTR _pBot$[ebp]
  00b5b	8b 48 04	 mov	 ecx, DWORD PTR [eax+4]
  00b5e	e8 00 00 00 00	 call	 ?RenderFX_Contrails@CFighter@@QAEJPAUIDirect3DDevice8@@PAVCTextures@@PAKHPAUD3DXMATRIX@@PAVCCamera@@3PAU_D3DVIEWPORT8@@PAVCTerrain@@PAUIDirect3DVertexBuffer8@@MHH@Z ; CFighter::RenderFX_Contrails
$L93966:

; 648  : 			pBot = pBot->pNext ;

  00b63	8b 85 84 fe ff
	ff		 mov	 eax, DWORD PTR _pBot$[ebp]
  00b69	8b 48 0c	 mov	 ecx, DWORD PTR [eax+12]
  00b6c	89 8d 84 fe ff
	ff		 mov	 DWORD PTR _pBot$[ebp], ecx

; 649  : 		}

  00b72	e9 63 ff ff ff	 jmp	 $L93964
$L93965:

; 650  : 
; 651  : 	// weapons;
; 652  : 		if( m_pX7->m_pUserInput->m_bF6 ) ods("FM: ");

  00b77	8b 45 f8	 mov	 eax, DWORD PTR _this$[ebp]
  00b7a	8b 48 38	 mov	 ecx, DWORD PTR [eax+56]
  00b7d	8b 91 fc a8 02
	00		 mov	 edx, DWORD PTR [ecx+174332]
  00b83	83 ba 20 06 00
	00 00		 cmp	 DWORD PTR [edx+1568], 0
  00b8a	74 0d		 je	 SHORT $L93967
  00b8c	68 00 00 00 00	 push	 OFFSET FLAT:??_C@_04DLGIGBAP@FM?3?5?$AA@
  00b91	e8 00 00 00 00	 call	 ?ods@@YAXPADZZ		; ods
  00b96	83 c4 04	 add	 esp, 4
$L93967:

; 653  : 		//pDev->SetRenderState( D3DRS_ZFUNC, D3DCMP_ALWAYS );
; 654  : 		if( m_pFighter && m_bShowFighter )

  00b99	8b 45 f8	 mov	 eax, DWORD PTR _this$[ebp]
  00b9c	83 78 30 00	 cmp	 DWORD PTR [eax+48], 0
  00ba0	0f 84 b6 01 00
	00		 je	 $L93969
  00ba6	8b 45 f8	 mov	 eax, DWORD PTR _this$[ebp]
  00ba9	83 78 5c 00	 cmp	 DWORD PTR [eax+92], 0
  00bad	0f 84 a9 01 00
	00		 je	 $L93969

; 655  : 		{
; 656  : 			for( int w=WT_GREENLASER; w<MAX_WEAPON_TYPES; w++ )

  00bb3	c7 85 30 fe ff
	ff 00 00 00 00	 mov	 DWORD PTR _w$93970[ebp], 0
  00bbd	eb 0f		 jmp	 SHORT $L93971
$L93972:
  00bbf	8b 85 30 fe ff
	ff		 mov	 eax, DWORD PTR _w$93970[ebp]
  00bc5	83 c0 01	 add	 eax, 1
  00bc8	89 85 30 fe ff
	ff		 mov	 DWORD PTR _w$93970[ebp], eax
$L93971:
  00bce	83 bd 30 fe ff
	ff 03		 cmp	 DWORD PTR _w$93970[ebp], 3
  00bd5	0f 8d 81 01 00
	00		 jge	 $L93969

; 657  : 			{
; 658  : 				BOOL bMustPopulateVB = TRUE ;

  00bdb	c7 85 24 fe ff
	ff 01 00 00 00	 mov	 DWORD PTR _bMustPopulateVB$93974[ebp], 1

; 659  : 				int r ;
; 660  : 
; 661  : 			// all bots;
; 662  : 				pBot = m_pBots ;

  00be5	8b 45 f8	 mov	 eax, DWORD PTR _this$[ebp]
  00be8	8b 48 14	 mov	 ecx, DWORD PTR [eax+20]
  00beb	89 8d 84 fe ff
	ff		 mov	 DWORD PTR _pBot$[ebp], ecx
$L93977:

; 663  : 				while( pBot )

  00bf1	83 bd 84 fe ff
	ff 00		 cmp	 DWORD PTR _pBot$[ebp], 0
  00bf8	0f 84 c4 00 00
	00		 je	 $L93978

; 664  : 				{
; 665  : 					if( !pBot->pFighter->m_bBotIsDead )

  00bfe	8b 85 84 fe ff
	ff		 mov	 eax, DWORD PTR _pBot$[ebp]
  00c04	8b 48 04	 mov	 ecx, DWORD PTR [eax+4]
  00c07	0f b6 91 50 03
	00 00		 movzx	 edx, BYTE PTR [ecx+848]
  00c0e	85 d2		 test	 edx, edx
  00c10	0f 85 98 00 00
	00		 jne	 $L93979

; 666  : 					{
; 667  : 						r = pBot->pFighter->RenderFX_Weapons( pDev, pTex, pulPolyCount, m_ctCamMode, &matWorld, m_pCamera, &m_pX7->m_matProj, &m_pX7->m_vpViewport, m_pTerrain, m_pSharedParticleSystemVB, fFPS, &bMustPopulateVB, w );

  00c16	8b 85 30 fe ff
	ff		 mov	 eax, DWORD PTR _w$93970[ebp]
  00c1c	50		 push	 eax
  00c1d	8d 8d 24 fe ff
	ff		 lea	 ecx, DWORD PTR _bMustPopulateVB$93974[ebp]
  00c23	51		 push	 ecx
  00c24	8b 55 18	 mov	 edx, DWORD PTR _fFPS$[ebp]
  00c27	52		 push	 edx
  00c28	8b 45 f8	 mov	 eax, DWORD PTR _this$[ebp]
  00c2b	8b 88 10 01 00
	00		 mov	 ecx, DWORD PTR [eax+272]
  00c31	51		 push	 ecx
  00c32	8b 55 f8	 mov	 edx, DWORD PTR _this$[ebp]
  00c35	8b 42 24	 mov	 eax, DWORD PTR [edx+36]
  00c38	50		 push	 eax
  00c39	8b 4d f8	 mov	 ecx, DWORD PTR _this$[ebp]
  00c3c	8b 51 38	 mov	 edx, DWORD PTR [ecx+56]
  00c3f	81 c2 3c a9 02
	00		 add	 edx, 174396		; 0002a93cH
  00c45	52		 push	 edx
  00c46	8b 45 f8	 mov	 eax, DWORD PTR _this$[ebp]
  00c49	8b 48 38	 mov	 ecx, DWORD PTR [eax+56]
  00c4c	81 c1 54 a9 02
	00		 add	 ecx, 174420		; 0002a954H
  00c52	51		 push	 ecx
  00c53	8b 55 f8	 mov	 edx, DWORD PTR _this$[ebp]
  00c56	8b 42 2c	 mov	 eax, DWORD PTR [edx+44]
  00c59	50		 push	 eax
  00c5a	8d 4d b0	 lea	 ecx, DWORD PTR _matWorld$[ebp]
  00c5d	51		 push	 ecx
  00c5e	8b 55 f8	 mov	 edx, DWORD PTR _this$[ebp]
  00c61	8b 42 6c	 mov	 eax, DWORD PTR [edx+108]
  00c64	50		 push	 eax
  00c65	8b 4d 10	 mov	 ecx, DWORD PTR _pulPolyCount$[ebp]
  00c68	51		 push	 ecx
  00c69	8b 55 0c	 mov	 edx, DWORD PTR _pTex$[ebp]
  00c6c	52		 push	 edx
  00c6d	8b 45 08	 mov	 eax, DWORD PTR _pDev$[ebp]
  00c70	50		 push	 eax
  00c71	8b 8d 84 fe ff
	ff		 mov	 ecx, DWORD PTR _pBot$[ebp]
  00c77	8b 49 04	 mov	 ecx, DWORD PTR [ecx+4]
  00c7a	e8 00 00 00 00	 call	 ?RenderFX_Weapons@CFighter@@QAEHPAUIDirect3DDevice8@@PAVCTextures@@PAKHPAUD3DXMATRIX@@PAVCCamera@@3PAU_D3DVIEWPORT8@@PAVCTerrain@@PAUIDirect3DVertexBuffer8@@MPAHH@Z ; CFighter::RenderFX_Weapons
  00c7f	89 85 18 fe ff
	ff		 mov	 DWORD PTR _r$93975[ebp], eax

; 668  : 						if( m_pX7->m_pUserInput->m_bF6 ) ods("%02d ", r);

  00c85	8b 45 f8	 mov	 eax, DWORD PTR _this$[ebp]
  00c88	8b 48 38	 mov	 ecx, DWORD PTR [eax+56]
  00c8b	8b 91 fc a8 02
	00		 mov	 edx, DWORD PTR [ecx+174332]
  00c91	83 ba 20 06 00
	00 00		 cmp	 DWORD PTR [edx+1568], 0
  00c98	74 14		 je	 SHORT $L93979
  00c9a	8b 85 18 fe ff
	ff		 mov	 eax, DWORD PTR _r$93975[ebp]
  00ca0	50		 push	 eax
  00ca1	68 00 00 00 00	 push	 OFFSET FLAT:??_C@_05DIAFAFCL@?$CF02d?5?$AA@
  00ca6	e8 00 00 00 00	 call	 ?ods@@YAXPADZZ		; ods
  00cab	83 c4 08	 add	 esp, 8
$L93979:

; 669  : 					}
; 670  : 					pBot = pBot->pNext ;

  00cae	8b 85 84 fe ff
	ff		 mov	 eax, DWORD PTR _pBot$[ebp]
  00cb4	8b 48 0c	 mov	 ecx, DWORD PTR [eax+12]
  00cb7	89 8d 84 fe ff
	ff		 mov	 DWORD PTR _pBot$[ebp], ecx

; 671  : 				}

  00cbd	e9 2f ff ff ff	 jmp	 $L93977
$L93978:

; 672  : 
; 673  : 			// user fighter;
; 674  : 				r = m_pFighter->RenderFX_Weapons( pDev, pTex, pulPolyCount, m_ctCamMode, &matWorld, m_pCamera, &m_pX7->m_matProj, &m_pX7->m_vpViewport, m_pTerrain, m_pSharedParticleSystemVB, fFPS, &bMustPopulateVB, w );

  00cc2	8b 85 30 fe ff
	ff		 mov	 eax, DWORD PTR _w$93970[ebp]
  00cc8	50		 push	 eax
  00cc9	8d 8d 24 fe ff
	ff		 lea	 ecx, DWORD PTR _bMustPopulateVB$93974[ebp]
  00ccf	51		 push	 ecx
  00cd0	8b 55 18	 mov	 edx, DWORD PTR _fFPS$[ebp]
  00cd3	52		 push	 edx
  00cd4	8b 45 f8	 mov	 eax, DWORD PTR _this$[ebp]
  00cd7	8b 88 10 01 00
	00		 mov	 ecx, DWORD PTR [eax+272]
  00cdd	51		 push	 ecx
  00cde	8b 55 f8	 mov	 edx, DWORD PTR _this$[ebp]
  00ce1	8b 42 24	 mov	 eax, DWORD PTR [edx+36]
  00ce4	50		 push	 eax
  00ce5	8b 4d f8	 mov	 ecx, DWORD PTR _this$[ebp]
  00ce8	8b 51 38	 mov	 edx, DWORD PTR [ecx+56]
  00ceb	81 c2 3c a9 02
	00		 add	 edx, 174396		; 0002a93cH
  00cf1	52		 push	 edx
  00cf2	8b 45 f8	 mov	 eax, DWORD PTR _this$[ebp]
  00cf5	8b 48 38	 mov	 ecx, DWORD PTR [eax+56]
  00cf8	81 c1 54 a9 02
	00		 add	 ecx, 174420		; 0002a954H
  00cfe	51		 push	 ecx
  00cff	8b 55 f8	 mov	 edx, DWORD PTR _this$[ebp]
  00d02	8b 42 2c	 mov	 eax, DWORD PTR [edx+44]
  00d05	50		 push	 eax
  00d06	8d 4d b0	 lea	 ecx, DWORD PTR _matWorld$[ebp]
  00d09	51		 push	 ecx
  00d0a	8b 55 f8	 mov	 edx, DWORD PTR _this$[ebp]
  00d0d	8b 42 6c	 mov	 eax, DWORD PTR [edx+108]
  00d10	50		 push	 eax
  00d11	8b 4d 10	 mov	 ecx, DWORD PTR _pulPolyCount$[ebp]
  00d14	51		 push	 ecx
  00d15	8b 55 0c	 mov	 edx, DWORD PTR _pTex$[ebp]
  00d18	52		 push	 edx
  00d19	8b 45 08	 mov	 eax, DWORD PTR _pDev$[ebp]
  00d1c	50		 push	 eax
  00d1d	8b 4d f8	 mov	 ecx, DWORD PTR _this$[ebp]
  00d20	8b 49 30	 mov	 ecx, DWORD PTR [ecx+48]
  00d23	e8 00 00 00 00	 call	 ?RenderFX_Weapons@CFighter@@QAEHPAUIDirect3DDevice8@@PAVCTextures@@PAKHPAUD3DXMATRIX@@PAVCCamera@@3PAU_D3DVIEWPORT8@@PAVCTerrain@@PAUIDirect3DVertexBuffer8@@MPAHH@Z ; CFighter::RenderFX_Weapons
  00d28	89 85 18 fe ff
	ff		 mov	 DWORD PTR _r$93975[ebp], eax

; 675  : 				if( m_pX7->m_pUserInput->m_bF6 ) ods("[%02d] ", r);

  00d2e	8b 45 f8	 mov	 eax, DWORD PTR _this$[ebp]
  00d31	8b 48 38	 mov	 ecx, DWORD PTR [eax+56]
  00d34	8b 91 fc a8 02
	00		 mov	 edx, DWORD PTR [ecx+174332]
  00d3a	83 ba 20 06 00
	00 00		 cmp	 DWORD PTR [edx+1568], 0
  00d41	74 14		 je	 SHORT $L93982
  00d43	8b 85 18 fe ff
	ff		 mov	 eax, DWORD PTR _r$93975[ebp]
  00d49	50		 push	 eax
  00d4a	68 00 00 00 00	 push	 OFFSET FLAT:??_C@_07JFCLMMGD@?$FL?$CF02d?$FN?5?$AA@
  00d4f	e8 00 00 00 00	 call	 ?ods@@YAXPADZZ		; ods
  00d54	83 c4 08	 add	 esp, 8
$L93982:

; 676  : 			}

  00d57	e9 63 fe ff ff	 jmp	 $L93972
$L93969:

; 677  : 		}
; 678  : 		//pDev->SetRenderState( D3DRS_ZFUNC, D3DCMP_LESSEQUAL );
; 679  : 		if( m_pX7->m_pUserInput->m_bF6 ) ods("\n");

  00d5c	8b 45 f8	 mov	 eax, DWORD PTR _this$[ebp]
  00d5f	8b 48 38	 mov	 ecx, DWORD PTR [eax+56]
  00d62	8b 91 fc a8 02
	00		 mov	 edx, DWORD PTR [ecx+174332]
  00d68	83 ba 20 06 00
	00 00		 cmp	 DWORD PTR [edx+1568], 0
  00d6f	74 0d		 je	 SHORT $L93984
  00d71	68 00 00 00 00	 push	 OFFSET FLAT:??_C@_01EEMJAFIK@?6?$AA@
  00d76	e8 00 00 00 00	 call	 ?ods@@YAXPADZZ		; ods
  00d7b	83 c4 04	 add	 esp, 4
$L93984:

; 680  : 
; 681  : 	// explosions;
; 682  : 		pDev->SetRenderState( D3DRS_SRCBLEND,  D3DBLEND_ONE );

  00d7e	8b f4		 mov	 esi, esp
  00d80	6a 02		 push	 2
  00d82	6a 13		 push	 19			; 00000013H
  00d84	8b 45 08	 mov	 eax, DWORD PTR _pDev$[ebp]
  00d87	8b 08		 mov	 ecx, DWORD PTR [eax]
  00d89	8b 55 08	 mov	 edx, DWORD PTR _pDev$[ebp]
  00d8c	52		 push	 edx
  00d8d	ff 91 c8 00 00
	00		 call	 DWORD PTR [ecx+200]
  00d93	3b f4		 cmp	 esi, esp
  00d95	e8 00 00 00 00	 call	 __RTC_CheckEsp

; 683  : 		pDev->SetRenderState( D3DRS_DESTBLEND, D3DBLEND_ONE );

  00d9a	8b f4		 mov	 esi, esp
  00d9c	6a 02		 push	 2
  00d9e	6a 14		 push	 20			; 00000014H
  00da0	8b 45 08	 mov	 eax, DWORD PTR _pDev$[ebp]
  00da3	8b 08		 mov	 ecx, DWORD PTR [eax]
  00da5	8b 55 08	 mov	 edx, DWORD PTR _pDev$[ebp]
  00da8	52		 push	 edx
  00da9	ff 91 c8 00 00
	00		 call	 DWORD PTR [ecx+200]
  00daf	3b f4		 cmp	 esi, esp
  00db1	e8 00 00 00 00	 call	 __RTC_CheckEsp

; 684  : 
; 685  : 		pDev->SetRenderState( D3DRS_LIGHTING,  FALSE );

  00db6	8b f4		 mov	 esi, esp
  00db8	6a 00		 push	 0
  00dba	68 89 00 00 00	 push	 137			; 00000089H
  00dbf	8b 45 08	 mov	 eax, DWORD PTR _pDev$[ebp]
  00dc2	8b 08		 mov	 ecx, DWORD PTR [eax]
  00dc4	8b 55 08	 mov	 edx, DWORD PTR _pDev$[ebp]
  00dc7	52		 push	 edx
  00dc8	ff 91 c8 00 00
	00		 call	 DWORD PTR [ecx+200]
  00dce	3b f4		 cmp	 esi, esp
  00dd0	e8 00 00 00 00	 call	 __RTC_CheckEsp

; 686  : 		pDev->SetRenderState( D3DRS_CULLMODE,  D3DCULL_NONE );

  00dd5	8b f4		 mov	 esi, esp
  00dd7	6a 01		 push	 1
  00dd9	6a 16		 push	 22			; 00000016H
  00ddb	8b 45 08	 mov	 eax, DWORD PTR _pDev$[ebp]
  00dde	8b 08		 mov	 ecx, DWORD PTR [eax]
  00de0	8b 55 08	 mov	 edx, DWORD PTR _pDev$[ebp]
  00de3	52		 push	 edx
  00de4	ff 91 c8 00 00
	00		 call	 DWORD PTR [ecx+200]
  00dea	3b f4		 cmp	 esi, esp
  00dec	e8 00 00 00 00	 call	 __RTC_CheckEsp

; 687  : 		pDev->SetRenderState( D3DRS_ALPHABLENDENABLE, FALSE );

  00df1	8b f4		 mov	 esi, esp
  00df3	6a 00		 push	 0
  00df5	6a 1b		 push	 27			; 0000001bH
  00df7	8b 45 08	 mov	 eax, DWORD PTR _pDev$[ebp]
  00dfa	8b 08		 mov	 ecx, DWORD PTR [eax]
  00dfc	8b 55 08	 mov	 edx, DWORD PTR _pDev$[ebp]
  00dff	52		 push	 edx
  00e00	ff 91 c8 00 00
	00		 call	 DWORD PTR [ecx+200]
  00e06	3b f4		 cmp	 esi, esp
  00e08	e8 00 00 00 00	 call	 __RTC_CheckEsp

; 688  : 
; 689  : 		if( m_pFighter && m_bShowFighter )

  00e0d	8b 45 f8	 mov	 eax, DWORD PTR _this$[ebp]
  00e10	83 78 30 00	 cmp	 DWORD PTR [eax+48], 0
  00e14	74 6e		 je	 SHORT $L93986
  00e16	8b 45 f8	 mov	 eax, DWORD PTR _this$[ebp]
  00e19	83 78 5c 00	 cmp	 DWORD PTR [eax+92], 0
  00e1d	74 65		 je	 SHORT $L93986

; 690  : 		{	
; 691  : 			m_pFighter->RenderFX_Explosion( pDev, pTex, pulPolyCount, m_ctCamMode, &matWorld, m_pCamera, &m_pX7->m_matProj, &m_pX7->m_vpViewport, m_pTerrain, m_pSharedParticleSystemVB, fFPS, SB, DB );

  00e1f	8b 45 f8	 mov	 eax, DWORD PTR _this$[ebp]
  00e22	8b 48 68	 mov	 ecx, DWORD PTR [eax+104]
  00e25	51		 push	 ecx
  00e26	8b 55 f8	 mov	 edx, DWORD PTR _this$[ebp]
  00e29	8b 42 64	 mov	 eax, DWORD PTR [edx+100]
  00e2c	50		 push	 eax
  00e2d	8b 4d 18	 mov	 ecx, DWORD PTR _fFPS$[ebp]
  00e30	51		 push	 ecx
  00e31	8b 55 f8	 mov	 edx, DWORD PTR _this$[ebp]
  00e34	8b 82 10 01 00
	00		 mov	 eax, DWORD PTR [edx+272]
  00e3a	50		 push	 eax
  00e3b	8b 4d f8	 mov	 ecx, DWORD PTR _this$[ebp]
  00e3e	8b 51 24	 mov	 edx, DWORD PTR [ecx+36]
  00e41	52		 push	 edx
  00e42	8b 45 f8	 mov	 eax, DWORD PTR _this$[ebp]
  00e45	8b 48 38	 mov	 ecx, DWORD PTR [eax+56]
  00e48	81 c1 3c a9 02
	00		 add	 ecx, 174396		; 0002a93cH
  00e4e	51		 push	 ecx
  00e4f	8b 55 f8	 mov	 edx, DWORD PTR _this$[ebp]
  00e52	8b 42 38	 mov	 eax, DWORD PTR [edx+56]
  00e55	05 54 a9 02 00	 add	 eax, 174420		; 0002a954H
  00e5a	50		 push	 eax
  00e5b	8b 4d f8	 mov	 ecx, DWORD PTR _this$[ebp]
  00e5e	8b 51 2c	 mov	 edx, DWORD PTR [ecx+44]
  00e61	52		 push	 edx
  00e62	8d 45 b0	 lea	 eax, DWORD PTR _matWorld$[ebp]
  00e65	50		 push	 eax
  00e66	8b 4d f8	 mov	 ecx, DWORD PTR _this$[ebp]
  00e69	8b 51 6c	 mov	 edx, DWORD PTR [ecx+108]
  00e6c	52		 push	 edx
  00e6d	8b 45 10	 mov	 eax, DWORD PTR _pulPolyCount$[ebp]
  00e70	50		 push	 eax
  00e71	8b 4d 0c	 mov	 ecx, DWORD PTR _pTex$[ebp]
  00e74	51		 push	 ecx
  00e75	8b 55 08	 mov	 edx, DWORD PTR _pDev$[ebp]
  00e78	52		 push	 edx
  00e79	8b 45 f8	 mov	 eax, DWORD PTR _this$[ebp]
  00e7c	8b 48 30	 mov	 ecx, DWORD PTR [eax+48]
  00e7f	e8 00 00 00 00	 call	 ?RenderFX_Explosion@CFighter@@QAEJPAUIDirect3DDevice8@@PAVCTextures@@PAKHPAUD3DXMATRIX@@PAVCCamera@@3PAU_D3DVIEWPORT8@@PAVCTerrain@@PAUIDirect3DVertexBuffer8@@MHH@Z ; CFighter::RenderFX_Explosion
$L93986:

; 692  : 		}
; 693  : 		pBot = m_pBots ;

  00e84	8b 45 f8	 mov	 eax, DWORD PTR _this$[ebp]
  00e87	8b 48 14	 mov	 ecx, DWORD PTR [eax+20]
  00e8a	89 8d 84 fe ff
	ff		 mov	 DWORD PTR _pBot$[ebp], ecx
$L93988:

; 694  : 		while( pBot )

  00e90	83 bd 84 fe ff
	ff 00		 cmp	 DWORD PTR _pBot$[ebp], 0
  00e97	0f 84 90 00 00
	00		 je	 $L93989

; 695  : 		{
; 696  : 			if( !pBot->pFighter->m_bBotIsDead )

  00e9d	8b 85 84 fe ff
	ff		 mov	 eax, DWORD PTR _pBot$[ebp]
  00ea3	8b 48 04	 mov	 ecx, DWORD PTR [eax+4]
  00ea6	0f b6 91 50 03
	00 00		 movzx	 edx, BYTE PTR [ecx+848]
  00ead	85 d2		 test	 edx, edx
  00eaf	75 68		 jne	 SHORT $L93990

; 697  : 				pBot->pFighter->RenderFX_Explosion( pDev, pTex, pulPolyCount, m_ctCamMode, &matWorld, m_pCamera, &m_pX7->m_matProj, &m_pX7->m_vpViewport, m_pTerrain, m_pSharedParticleSystemVB, fFPS, SB, DB );

  00eb1	8b 45 f8	 mov	 eax, DWORD PTR _this$[ebp]
  00eb4	8b 48 68	 mov	 ecx, DWORD PTR [eax+104]
  00eb7	51		 push	 ecx
  00eb8	8b 55 f8	 mov	 edx, DWORD PTR _this$[ebp]
  00ebb	8b 42 64	 mov	 eax, DWORD PTR [edx+100]
  00ebe	50		 push	 eax
  00ebf	8b 4d 18	 mov	 ecx, DWORD PTR _fFPS$[ebp]
  00ec2	51		 push	 ecx
  00ec3	8b 55 f8	 mov	 edx, DWORD PTR _this$[ebp]
  00ec6	8b 82 10 01 00
	00		 mov	 eax, DWORD PTR [edx+272]
  00ecc	50		 push	 eax
  00ecd	8b 4d f8	 mov	 ecx, DWORD PTR _this$[ebp]
  00ed0	8b 51 24	 mov	 edx, DWORD PTR [ecx+36]
  00ed3	52		 push	 edx
  00ed4	8b 45 f8	 mov	 eax, DWORD PTR _this$[ebp]
  00ed7	8b 48 38	 mov	 ecx, DWORD PTR [eax+56]
  00eda	81 c1 3c a9 02
	00		 add	 ecx, 174396		; 0002a93cH
  00ee0	51		 push	 ecx
  00ee1	8b 55 f8	 mov	 edx, DWORD PTR _this$[ebp]
  00ee4	8b 42 38	 mov	 eax, DWORD PTR [edx+56]
  00ee7	05 54 a9 02 00	 add	 eax, 174420		; 0002a954H
  00eec	50		 push	 eax
  00eed	8b 4d f8	 mov	 ecx, DWORD PTR _this$[ebp]
  00ef0	8b 51 2c	 mov	 edx, DWORD PTR [ecx+44]
  00ef3	52		 push	 edx
  00ef4	8d 45 b0	 lea	 eax, DWORD PTR _matWorld$[ebp]
  00ef7	50		 push	 eax
  00ef8	8b 4d f8	 mov	 ecx, DWORD PTR _this$[ebp]
  00efb	8b 51 6c	 mov	 edx, DWORD PTR [ecx+108]
  00efe	52		 push	 edx
  00eff	8b 45 10	 mov	 eax, DWORD PTR _pulPolyCount$[ebp]
  00f02	50		 push	 eax
  00f03	8b 4d 0c	 mov	 ecx, DWORD PTR _pTex$[ebp]
  00f06	51		 push	 ecx
  00f07	8b 55 08	 mov	 edx, DWORD PTR _pDev$[ebp]
  00f0a	52		 push	 edx
  00f0b	8b 85 84 fe ff
	ff		 mov	 eax, DWORD PTR _pBot$[ebp]
  00f11	8b 48 04	 mov	 ecx, DWORD PTR [eax+4]
  00f14	e8 00 00 00 00	 call	 ?RenderFX_Explosion@CFighter@@QAEJPAUIDirect3DDevice8@@PAVCTextures@@PAKHPAUD3DXMATRIX@@PAVCCamera@@3PAU_D3DVIEWPORT8@@PAVCTerrain@@PAUIDirect3DVertexBuffer8@@MHH@Z ; CFighter::RenderFX_Explosion
$L93990:

; 698  : 			pBot = pBot->pNext ;

  00f19	8b 85 84 fe ff
	ff		 mov	 eax, DWORD PTR _pBot$[ebp]
  00f1f	8b 48 0c	 mov	 ecx, DWORD PTR [eax+12]
  00f22	89 8d 84 fe ff
	ff		 mov	 DWORD PTR _pBot$[ebp], ecx

; 699  : 		}

  00f28	e9 63 ff ff ff	 jmp	 $L93988
$L93989:

; 700  : 		pDev->SetRenderState( D3DRS_ZWRITEENABLE, TRUE );

  00f2d	8b f4		 mov	 esi, esp
  00f2f	6a 01		 push	 1
  00f31	6a 0e		 push	 14			; 0000000eH
  00f33	8b 45 08	 mov	 eax, DWORD PTR _pDev$[ebp]
  00f36	8b 08		 mov	 ecx, DWORD PTR [eax]
  00f38	8b 55 08	 mov	 edx, DWORD PTR _pDev$[ebp]
  00f3b	52		 push	 edx
  00f3c	ff 91 c8 00 00
	00		 call	 DWORD PTR [ecx+200]
  00f42	3b f4		 cmp	 esi, esp
  00f44	e8 00 00 00 00	 call	 __RTC_CheckEsp

; 701  : 
; 702  : 	// shield;
; 703  : 		if( m_pFighter && m_bShowFighter )

  00f49	8b 45 f8	 mov	 eax, DWORD PTR _this$[ebp]
  00f4c	83 78 30 00	 cmp	 DWORD PTR [eax+48], 0
  00f50	0f 84 c8 02 00
	00		 je	 $L93991
  00f56	8b 45 f8	 mov	 eax, DWORD PTR _this$[ebp]
  00f59	83 78 5c 00	 cmp	 DWORD PTR [eax+92], 0
  00f5d	0f 84 bb 02 00
	00		 je	 $L93991

; 704  : 		{	
; 705  : 			pDev->SetRenderState( D3DRS_LIGHTING, TRUE );

  00f63	8b f4		 mov	 esi, esp
  00f65	6a 01		 push	 1
  00f67	68 89 00 00 00	 push	 137			; 00000089H
  00f6c	8b 45 08	 mov	 eax, DWORD PTR _pDev$[ebp]
  00f6f	8b 08		 mov	 ecx, DWORD PTR [eax]
  00f71	8b 55 08	 mov	 edx, DWORD PTR _pDev$[ebp]
  00f74	52		 push	 edx
  00f75	ff 91 c8 00 00
	00		 call	 DWORD PTR [ecx+200]
  00f7b	3b f4		 cmp	 esi, esp
  00f7d	e8 00 00 00 00	 call	 __RTC_CheckEsp

; 706  : 			pDev->SetRenderState( D3DRS_NORMALIZENORMALS, TRUE );

  00f82	8b f4		 mov	 esi, esp
  00f84	6a 01		 push	 1
  00f86	68 8f 00 00 00	 push	 143			; 0000008fH
  00f8b	8b 45 08	 mov	 eax, DWORD PTR _pDev$[ebp]
  00f8e	8b 08		 mov	 ecx, DWORD PTR [eax]
  00f90	8b 55 08	 mov	 edx, DWORD PTR _pDev$[ebp]
  00f93	52		 push	 edx
  00f94	ff 91 c8 00 00
	00		 call	 DWORD PTR [ecx+200]
  00f9a	3b f4		 cmp	 esi, esp
  00f9c	e8 00 00 00 00	 call	 __RTC_CheckEsp

; 707  : 			pDev->SetRenderState( D3DRS_CULLMODE, D3DCULL_CCW );

  00fa1	8b f4		 mov	 esi, esp
  00fa3	6a 03		 push	 3
  00fa5	6a 16		 push	 22			; 00000016H
  00fa7	8b 45 08	 mov	 eax, DWORD PTR _pDev$[ebp]
  00faa	8b 08		 mov	 ecx, DWORD PTR [eax]
  00fac	8b 55 08	 mov	 edx, DWORD PTR _pDev$[ebp]
  00faf	52		 push	 edx
  00fb0	ff 91 c8 00 00
	00		 call	 DWORD PTR [ecx+200]
  00fb6	3b f4		 cmp	 esi, esp
  00fb8	e8 00 00 00 00	 call	 __RTC_CheckEsp

; 708  : 			pDev->SetRenderState( D3DRS_ALPHABLENDENABLE, TRUE );

  00fbd	8b f4		 mov	 esi, esp
  00fbf	6a 01		 push	 1
  00fc1	6a 1b		 push	 27			; 0000001bH
  00fc3	8b 45 08	 mov	 eax, DWORD PTR _pDev$[ebp]
  00fc6	8b 08		 mov	 ecx, DWORD PTR [eax]
  00fc8	8b 55 08	 mov	 edx, DWORD PTR _pDev$[ebp]
  00fcb	52		 push	 edx
  00fcc	ff 91 c8 00 00
	00		 call	 DWORD PTR [ecx+200]
  00fd2	3b f4		 cmp	 esi, esp
  00fd4	e8 00 00 00 00	 call	 __RTC_CheckEsp

; 709  : 			pDev->SetRenderState( D3DRS_SPECULARENABLE, TRUE );

  00fd9	8b f4		 mov	 esi, esp
  00fdb	6a 01		 push	 1
  00fdd	6a 1d		 push	 29			; 0000001dH
  00fdf	8b 45 08	 mov	 eax, DWORD PTR _pDev$[ebp]
  00fe2	8b 08		 mov	 ecx, DWORD PTR [eax]
  00fe4	8b 55 08	 mov	 edx, DWORD PTR _pDev$[ebp]
  00fe7	52		 push	 edx
  00fe8	ff 91 c8 00 00
	00		 call	 DWORD PTR [ecx+200]
  00fee	3b f4		 cmp	 esi, esp
  00ff0	e8 00 00 00 00	 call	 __RTC_CheckEsp

; 710  : 			pDev->SetRenderState( D3DRS_SPECULARENABLE, TRUE );

  00ff5	8b f4		 mov	 esi, esp
  00ff7	6a 01		 push	 1
  00ff9	6a 1d		 push	 29			; 0000001dH
  00ffb	8b 45 08	 mov	 eax, DWORD PTR _pDev$[ebp]
  00ffe	8b 08		 mov	 ecx, DWORD PTR [eax]
  01000	8b 55 08	 mov	 edx, DWORD PTR _pDev$[ebp]
  01003	52		 push	 edx
  01004	ff 91 c8 00 00
	00		 call	 DWORD PTR [ecx+200]
  0100a	3b f4		 cmp	 esi, esp
  0100c	e8 00 00 00 00	 call	 __RTC_CheckEsp

; 711  : 			pDev->SetRenderState( D3DRS_ZWRITEENABLE, FALSE );

  01011	8b f4		 mov	 esi, esp
  01013	6a 00		 push	 0
  01015	6a 0e		 push	 14			; 0000000eH
  01017	8b 45 08	 mov	 eax, DWORD PTR _pDev$[ebp]
  0101a	8b 08		 mov	 ecx, DWORD PTR [eax]
  0101c	8b 55 08	 mov	 edx, DWORD PTR _pDev$[ebp]
  0101f	52		 push	 edx
  01020	ff 91 c8 00 00
	00		 call	 DWORD PTR [ecx+200]
  01026	3b f4		 cmp	 esi, esp
  01028	e8 00 00 00 00	 call	 __RTC_CheckEsp

; 712  : 			
; 713  : 			// SRCCOLOR, INVSRCCOLOR = nice v. translucent, but doesn't respect material alpha
; 714  : 			// SRCALPHA, ONE = nice, respects material alpha, but never becomes fully opaque
; 715  : 			pDev->SetRenderState( D3DRS_SRCBLEND, D3DBLEND_SRCALPHA );

  0102d	8b f4		 mov	 esi, esp
  0102f	6a 05		 push	 5
  01031	6a 13		 push	 19			; 00000013H
  01033	8b 45 08	 mov	 eax, DWORD PTR _pDev$[ebp]
  01036	8b 08		 mov	 ecx, DWORD PTR [eax]
  01038	8b 55 08	 mov	 edx, DWORD PTR _pDev$[ebp]
  0103b	52		 push	 edx
  0103c	ff 91 c8 00 00
	00		 call	 DWORD PTR [ecx+200]
  01042	3b f4		 cmp	 esi, esp
  01044	e8 00 00 00 00	 call	 __RTC_CheckEsp

; 716  : 			pDev->SetRenderState( D3DRS_DESTBLEND, D3DBLEND_ONE );

  01049	8b f4		 mov	 esi, esp
  0104b	6a 02		 push	 2
  0104d	6a 14		 push	 20			; 00000014H
  0104f	8b 45 08	 mov	 eax, DWORD PTR _pDev$[ebp]
  01052	8b 08		 mov	 ecx, DWORD PTR [eax]
  01054	8b 55 08	 mov	 edx, DWORD PTR _pDev$[ebp]
  01057	52		 push	 edx
  01058	ff 91 c8 00 00
	00		 call	 DWORD PTR [ecx+200]
  0105e	3b f4		 cmp	 esi, esp
  01060	e8 00 00 00 00	 call	 __RTC_CheckEsp

; 717  : 		
; 718  : 			m_pFighter->RenderFX_Shield( pDev, pTex, pulPolyCount, m_ctCamMode, &matWorld, m_pCamera, &m_pX7->m_matProj, &m_pX7->m_vpViewport, m_pTerrain, m_pSharedParticleSystemVB, fFPS, SB, DB );

  01065	8b 45 f8	 mov	 eax, DWORD PTR _this$[ebp]
  01068	8b 48 68	 mov	 ecx, DWORD PTR [eax+104]
  0106b	51		 push	 ecx
  0106c	8b 55 f8	 mov	 edx, DWORD PTR _this$[ebp]
  0106f	8b 42 64	 mov	 eax, DWORD PTR [edx+100]
  01072	50		 push	 eax
  01073	8b 4d 18	 mov	 ecx, DWORD PTR _fFPS$[ebp]
  01076	51		 push	 ecx
  01077	8b 55 f8	 mov	 edx, DWORD PTR _this$[ebp]
  0107a	8b 82 10 01 00
	00		 mov	 eax, DWORD PTR [edx+272]
  01080	50		 push	 eax
  01081	8b 4d f8	 mov	 ecx, DWORD PTR _this$[ebp]
  01084	8b 51 24	 mov	 edx, DWORD PTR [ecx+36]
  01087	52		 push	 edx
  01088	8b 45 f8	 mov	 eax, DWORD PTR _this$[ebp]
  0108b	8b 48 38	 mov	 ecx, DWORD PTR [eax+56]
  0108e	81 c1 3c a9 02
	00		 add	 ecx, 174396		; 0002a93cH
  01094	51		 push	 ecx
  01095	8b 55 f8	 mov	 edx, DWORD PTR _this$[ebp]
  01098	8b 42 38	 mov	 eax, DWORD PTR [edx+56]
  0109b	05 54 a9 02 00	 add	 eax, 174420		; 0002a954H
  010a0	50		 push	 eax
  010a1	8b 4d f8	 mov	 ecx, DWORD PTR _this$[ebp]
  010a4	8b 51 2c	 mov	 edx, DWORD PTR [ecx+44]
  010a7	52		 push	 edx
  010a8	8d 45 b0	 lea	 eax, DWORD PTR _matWorld$[ebp]
  010ab	50		 push	 eax
  010ac	8b 4d f8	 mov	 ecx, DWORD PTR _this$[ebp]
  010af	8b 51 6c	 mov	 edx, DWORD PTR [ecx+108]
  010b2	52		 push	 edx
  010b3	8b 45 10	 mov	 eax, DWORD PTR _pulPolyCount$[ebp]
  010b6	50		 push	 eax
  010b7	8b 4d 0c	 mov	 ecx, DWORD PTR _pTex$[ebp]
  010ba	51		 push	 ecx
  010bb	8b 55 08	 mov	 edx, DWORD PTR _pDev$[ebp]
  010be	52		 push	 edx
  010bf	8b 45 f8	 mov	 eax, DWORD PTR _this$[ebp]
  010c2	8b 48 30	 mov	 ecx, DWORD PTR [eax+48]
  010c5	e8 00 00 00 00	 call	 ?RenderFX_Shield@CFighter@@QAEJPAUIDirect3DDevice8@@PAVCTextures@@PAKHPAUD3DXMATRIX@@PAVCCamera@@3PAU_D3DVIEWPORT8@@PAVCTerrain@@PAUIDirect3DVertexBuffer8@@MHH@Z ; CFighter::RenderFX_Shield

; 719  : 			pBot = m_pBots ;

  010ca	8b 45 f8	 mov	 eax, DWORD PTR _this$[ebp]
  010cd	8b 48 14	 mov	 ecx, DWORD PTR [eax+20]
  010d0	89 8d 84 fe ff
	ff		 mov	 DWORD PTR _pBot$[ebp], ecx
$L93993:

; 720  : 			while( pBot )

  010d6	83 bd 84 fe ff
	ff 00		 cmp	 DWORD PTR _pBot$[ebp], 0
  010dd	0f 84 90 00 00
	00		 je	 $L93994

; 721  : 			{
; 722  : 				if( !pBot->pFighter->m_bBotIsDead )

  010e3	8b 85 84 fe ff
	ff		 mov	 eax, DWORD PTR _pBot$[ebp]
  010e9	8b 48 04	 mov	 ecx, DWORD PTR [eax+4]
  010ec	0f b6 91 50 03
	00 00		 movzx	 edx, BYTE PTR [ecx+848]
  010f3	85 d2		 test	 edx, edx
  010f5	75 68		 jne	 SHORT $L93995

; 723  : 					pBot->pFighter->RenderFX_Shield( pDev, pTex, pulPolyCount, m_ctCamMode, &matWorld, m_pCamera, &m_pX7->m_matProj, &m_pX7->m_vpViewport, m_pTerrain, m_pSharedParticleSystemVB, fFPS, SB, DB );

  010f7	8b 45 f8	 mov	 eax, DWORD PTR _this$[ebp]
  010fa	8b 48 68	 mov	 ecx, DWORD PTR [eax+104]
  010fd	51		 push	 ecx
  010fe	8b 55 f8	 mov	 edx, DWORD PTR _this$[ebp]
  01101	8b 42 64	 mov	 eax, DWORD PTR [edx+100]
  01104	50		 push	 eax
  01105	8b 4d 18	 mov	 ecx, DWORD PTR _fFPS$[ebp]
  01108	51		 push	 ecx
  01109	8b 55 f8	 mov	 edx, DWORD PTR _this$[ebp]
  0110c	8b 82 10 01 00
	00		 mov	 eax, DWORD PTR [edx+272]
  01112	50		 push	 eax
  01113	8b 4d f8	 mov	 ecx, DWORD PTR _this$[ebp]
  01116	8b 51 24	 mov	 edx, DWORD PTR [ecx+36]
  01119	52		 push	 edx
  0111a	8b 45 f8	 mov	 eax, DWORD PTR _this$[ebp]
  0111d	8b 48 38	 mov	 ecx, DWORD PTR [eax+56]
  01120	81 c1 3c a9 02
	00		 add	 ecx, 174396		; 0002a93cH
  01126	51		 push	 ecx
  01127	8b 55 f8	 mov	 edx, DWORD PTR _this$[ebp]
  0112a	8b 42 38	 mov	 eax, DWORD PTR [edx+56]
  0112d	05 54 a9 02 00	 add	 eax, 174420		; 0002a954H
  01132	50		 push	 eax
  01133	8b 4d f8	 mov	 ecx, DWORD PTR _this$[ebp]
  01136	8b 51 2c	 mov	 edx, DWORD PTR [ecx+44]
  01139	52		 push	 edx
  0113a	8d 45 b0	 lea	 eax, DWORD PTR _matWorld$[ebp]
  0113d	50		 push	 eax
  0113e	8b 4d f8	 mov	 ecx, DWORD PTR _this$[ebp]
  01141	8b 51 6c	 mov	 edx, DWORD PTR [ecx+108]
  01144	52		 push	 edx
  01145	8b 45 10	 mov	 eax, DWORD PTR _pulPolyCount$[ebp]
  01148	50		 push	 eax
  01149	8b 4d 0c	 mov	 ecx, DWORD PTR _pTex$[ebp]
  0114c	51		 push	 ecx
  0114d	8b 55 08	 mov	 edx, DWORD PTR _pDev$[ebp]
  01150	52		 push	 edx
  01151	8b 85 84 fe ff
	ff		 mov	 eax, DWORD PTR _pBot$[ebp]
  01157	8b 48 04	 mov	 ecx, DWORD PTR [eax+4]
  0115a	e8 00 00 00 00	 call	 ?RenderFX_Shield@CFighter@@QAEJPAUIDirect3DDevice8@@PAVCTextures@@PAKHPAUD3DXMATRIX@@PAVCCamera@@3PAU_D3DVIEWPORT8@@PAVCTerrain@@PAUIDirect3DVertexBuffer8@@MHH@Z ; CFighter::RenderFX_Shield
$L93995:

; 724  : 				pBot = pBot->pNext ;

  0115f	8b 85 84 fe ff
	ff		 mov	 eax, DWORD PTR _pBot$[ebp]
  01165	8b 48 0c	 mov	 ecx, DWORD PTR [eax+12]
  01168	89 8d 84 fe ff
	ff		 mov	 DWORD PTR _pBot$[ebp], ecx

; 725  : 			}

  0116e	e9 63 ff ff ff	 jmp	 $L93993
$L93994:

; 726  : 
; 727  : 			pDev->SetRenderState( D3DRS_ZWRITEENABLE, TRUE );

  01173	8b f4		 mov	 esi, esp
  01175	6a 01		 push	 1
  01177	6a 0e		 push	 14			; 0000000eH
  01179	8b 45 08	 mov	 eax, DWORD PTR _pDev$[ebp]
  0117c	8b 08		 mov	 ecx, DWORD PTR [eax]
  0117e	8b 55 08	 mov	 edx, DWORD PTR _pDev$[ebp]
  01181	52		 push	 edx
  01182	ff 91 c8 00 00
	00		 call	 DWORD PTR [ecx+200]
  01188	3b f4		 cmp	 esi, esp
  0118a	e8 00 00 00 00	 call	 __RTC_CheckEsp

; 728  : 			pDev->SetRenderState( D3DRS_SPECULARENABLE, FALSE );

  0118f	8b f4		 mov	 esi, esp
  01191	6a 00		 push	 0
  01193	6a 1d		 push	 29			; 0000001dH
  01195	8b 45 08	 mov	 eax, DWORD PTR _pDev$[ebp]
  01198	8b 08		 mov	 ecx, DWORD PTR [eax]
  0119a	8b 55 08	 mov	 edx, DWORD PTR _pDev$[ebp]
  0119d	52		 push	 edx
  0119e	ff 91 c8 00 00
	00		 call	 DWORD PTR [ecx+200]
  011a4	3b f4		 cmp	 esi, esp
  011a6	e8 00 00 00 00	 call	 __RTC_CheckEsp

; 729  : 			pDev->SetRenderState( D3DRS_ALPHABLENDENABLE, FALSE );

  011ab	8b f4		 mov	 esi, esp
  011ad	6a 00		 push	 0
  011af	6a 1b		 push	 27			; 0000001bH
  011b1	8b 45 08	 mov	 eax, DWORD PTR _pDev$[ebp]
  011b4	8b 08		 mov	 ecx, DWORD PTR [eax]
  011b6	8b 55 08	 mov	 edx, DWORD PTR _pDev$[ebp]
  011b9	52		 push	 edx
  011ba	ff 91 c8 00 00
	00		 call	 DWORD PTR [ecx+200]
  011c0	3b f4		 cmp	 esi, esp
  011c2	e8 00 00 00 00	 call	 __RTC_CheckEsp

; 730  : 			pDev->SetRenderState( D3DRS_CULLMODE, D3DCULL_CCW );  

  011c7	8b f4		 mov	 esi, esp
  011c9	6a 03		 push	 3
  011cb	6a 16		 push	 22			; 00000016H
  011cd	8b 45 08	 mov	 eax, DWORD PTR _pDev$[ebp]
  011d0	8b 08		 mov	 ecx, DWORD PTR [eax]
  011d2	8b 55 08	 mov	 edx, DWORD PTR _pDev$[ebp]
  011d5	52		 push	 edx
  011d6	ff 91 c8 00 00
	00		 call	 DWORD PTR [ecx+200]
  011dc	3b f4		 cmp	 esi, esp
  011de	e8 00 00 00 00	 call	 __RTC_CheckEsp

; 731  : 			pDev->SetRenderState( D3DRS_NORMALIZENORMALS, FALSE );

  011e3	8b f4		 mov	 esi, esp
  011e5	6a 00		 push	 0
  011e7	68 8f 00 00 00	 push	 143			; 0000008fH
  011ec	8b 45 08	 mov	 eax, DWORD PTR _pDev$[ebp]
  011ef	8b 08		 mov	 ecx, DWORD PTR [eax]
  011f1	8b 55 08	 mov	 edx, DWORD PTR _pDev$[ebp]
  011f4	52		 push	 edx
  011f5	ff 91 c8 00 00
	00		 call	 DWORD PTR [ecx+200]
  011fb	3b f4		 cmp	 esi, esp
  011fd	e8 00 00 00 00	 call	 __RTC_CheckEsp

; 732  : 			pDev->SetRenderState(D3DRS_SPECULARENABLE, FALSE) ;

  01202	8b f4		 mov	 esi, esp
  01204	6a 00		 push	 0
  01206	6a 1d		 push	 29			; 0000001dH
  01208	8b 45 08	 mov	 eax, DWORD PTR _pDev$[ebp]
  0120b	8b 08		 mov	 ecx, DWORD PTR [eax]
  0120d	8b 55 08	 mov	 edx, DWORD PTR _pDev$[ebp]
  01210	52		 push	 edx
  01211	ff 91 c8 00 00
	00		 call	 DWORD PTR [ecx+200]
  01217	3b f4		 cmp	 esi, esp
  01219	e8 00 00 00 00	 call	 __RTC_CheckEsp
$L93991:

; 733  : 		}
; 734  : 
; 735  : 	//
; 736  : 	// Disable GameItem lights & D3D lighting:
; 737  : 	//
; 738  : 		m_pTerrain->DisableItemLights( pDev, nMaxActiveLights - 1, 1 );

  0121e	6a 01		 push	 1
  01220	8b 45 1c	 mov	 eax, DWORD PTR _nMaxActiveLights$[ebp]
  01223	83 e8 01	 sub	 eax, 1
  01226	50		 push	 eax
  01227	8b 4d 08	 mov	 ecx, DWORD PTR _pDev$[ebp]
  0122a	51		 push	 ecx
  0122b	8b 55 f8	 mov	 edx, DWORD PTR _this$[ebp]
  0122e	8b 4a 24	 mov	 ecx, DWORD PTR [edx+36]
  01231	e8 00 00 00 00	 call	 ?DisableItemLights@CTerrain@@QAEHPAUIDirect3DDevice8@@HH@Z ; CTerrain::DisableItemLights

; 739  : 		pDev->SetRenderState(D3DRS_LIGHTING, FALSE) ;

  01236	8b f4		 mov	 esi, esp
  01238	6a 00		 push	 0
  0123a	68 89 00 00 00	 push	 137			; 00000089H
  0123f	8b 45 08	 mov	 eax, DWORD PTR _pDev$[ebp]
  01242	8b 08		 mov	 ecx, DWORD PTR [eax]
  01244	8b 55 08	 mov	 edx, DWORD PTR _pDev$[ebp]
  01247	52		 push	 edx
  01248	ff 91 c8 00 00
	00		 call	 DWORD PTR [ecx+200]
  0124e	3b f4		 cmp	 esi, esp
  01250	e8 00 00 00 00	 call	 __RTC_CheckEsp

; 740  : 		pDev->LightEnable( 0, FALSE );

  01255	8b f4		 mov	 esi, esp
  01257	6a 00		 push	 0
  01259	6a 00		 push	 0
  0125b	8b 45 08	 mov	 eax, DWORD PTR _pDev$[ebp]
  0125e	8b 08		 mov	 ecx, DWORD PTR [eax]
  01260	8b 55 08	 mov	 edx, DWORD PTR _pDev$[ebp]
  01263	52		 push	 edx
  01264	ff 91 b8 00 00
	00		 call	 DWORD PTR [ecx+184]
  0126a	3b f4		 cmp	 esi, esp
  0126c	e8 00 00 00 00	 call	 __RTC_CheckEsp

; 741  : 		
; 742  : 	//
; 743  : 	// Fighter's HUD; (overlay system, destroys proj. mat.)
; 744  : 	//
; 745  : 		if( m_pFighter && m_bShowHUD )

  01271	8b 45 f8	 mov	 eax, DWORD PTR _this$[ebp]
  01274	83 78 30 00	 cmp	 DWORD PTR [eax+48], 0
  01278	74 47		 je	 SHORT $L93996
  0127a	8b 45 f8	 mov	 eax, DWORD PTR _this$[ebp]
  0127d	83 78 60 00	 cmp	 DWORD PTR [eax+96], 0
  01281	74 3e		 je	 SHORT $L93996

; 746  : 		{	
; 747  : 			m_pFighter->RenderHUD( pDev, pTex, pulPolyCount, m_ctCamMode, &matWorld, m_pCamera, m_pX7->m_pOverlayMan, this, fFPS );

  01283	8b 45 18	 mov	 eax, DWORD PTR _fFPS$[ebp]
  01286	50		 push	 eax
  01287	8b 4d f8	 mov	 ecx, DWORD PTR _this$[ebp]
  0128a	51		 push	 ecx
  0128b	8b 55 f8	 mov	 edx, DWORD PTR _this$[ebp]
  0128e	8b 42 38	 mov	 eax, DWORD PTR [edx+56]
  01291	8b 88 d8 a8 02
	00		 mov	 ecx, DWORD PTR [eax+174296]
  01297	51		 push	 ecx
  01298	8b 55 f8	 mov	 edx, DWORD PTR _this$[ebp]
  0129b	8b 42 2c	 mov	 eax, DWORD PTR [edx+44]
  0129e	50		 push	 eax
  0129f	8d 4d b0	 lea	 ecx, DWORD PTR _matWorld$[ebp]
  012a2	51		 push	 ecx
  012a3	8b 55 f8	 mov	 edx, DWORD PTR _this$[ebp]
  012a6	8b 42 6c	 mov	 eax, DWORD PTR [edx+108]
  012a9	50		 push	 eax
  012aa	8b 4d 10	 mov	 ecx, DWORD PTR _pulPolyCount$[ebp]
  012ad	51		 push	 ecx
  012ae	8b 55 0c	 mov	 edx, DWORD PTR _pTex$[ebp]
  012b1	52		 push	 edx
  012b2	8b 45 08	 mov	 eax, DWORD PTR _pDev$[ebp]
  012b5	50		 push	 eax
  012b6	8b 4d f8	 mov	 ecx, DWORD PTR _this$[ebp]
  012b9	8b 49 30	 mov	 ecx, DWORD PTR [ecx+48]
  012bc	e8 00 00 00 00	 call	 ?RenderHUD@CUserFighter@@QAEJPAUIDirect3DDevice8@@PAVCTextures@@PAKHPAUD3DXMATRIX@@PAVCCamera@@PAVCScreenOverlayManager@@PAVCRace@@M@Z ; CUserFighter::RenderHUD
$L93996:

; 748  : 		}
; 749  : 
; 750  : 	//
; 751  : 	// Fullscreen Quads; (overlay system, destroys proj. mat.)
; 752  : 	//
; 753  : 		pDev->SetRenderState( D3DRS_ALPHABLENDENABLE, TRUE );

  012c1	8b f4		 mov	 esi, esp
  012c3	6a 01		 push	 1
  012c5	6a 1b		 push	 27			; 0000001bH
  012c7	8b 45 08	 mov	 eax, DWORD PTR _pDev$[ebp]
  012ca	8b 08		 mov	 ecx, DWORD PTR [eax]
  012cc	8b 55 08	 mov	 edx, DWORD PTR _pDev$[ebp]
  012cf	52		 push	 edx
  012d0	ff 91 c8 00 00
	00		 call	 DWORD PTR [ecx+200]
  012d6	3b f4		 cmp	 esi, esp
  012d8	e8 00 00 00 00	 call	 __RTC_CheckEsp

; 754  : 		m_pX7->m_pOverlayMan->Render( pDev, OT_FULLSCREENQUAD, ORT_FAST );

  012dd	6a 01		 push	 1
  012df	6a 0b		 push	 11			; 0000000bH
  012e1	8b 45 08	 mov	 eax, DWORD PTR _pDev$[ebp]
  012e4	50		 push	 eax
  012e5	8b 4d f8	 mov	 ecx, DWORD PTR _this$[ebp]
  012e8	8b 51 38	 mov	 edx, DWORD PTR [ecx+56]
  012eb	8b 8a d8 a8 02
	00		 mov	 ecx, DWORD PTR [edx+174296]
  012f1	e8 00 00 00 00	 call	 ?Render@CScreenOverlayManager@@QAEJPAUIDirect3DDevice8@@HH@Z ; CScreenOverlayManager::Render

; 755  : 		pDev->SetRenderState( D3DRS_ALPHABLENDENABLE, FALSE );

  012f6	8b f4		 mov	 esi, esp
  012f8	6a 00		 push	 0
  012fa	6a 1b		 push	 27			; 0000001bH
  012fc	8b 45 08	 mov	 eax, DWORD PTR _pDev$[ebp]
  012ff	8b 08		 mov	 ecx, DWORD PTR [eax]
  01301	8b 55 08	 mov	 edx, DWORD PTR _pDev$[ebp]
  01304	52		 push	 edx
  01305	ff 91 c8 00 00
	00		 call	 DWORD PTR [ecx+200]
  0130b	3b f4		 cmp	 esi, esp
  0130d	e8 00 00 00 00	 call	 __RTC_CheckEsp

; 756  : 
; 757  : 		return S_OK ;

  01312	33 c0		 xor	 eax, eax

; 758  : 	}

  01314	52		 push	 edx
  01315	8b cd		 mov	 ecx, ebp
  01317	50		 push	 eax
  01318	8d 15 00 00 00
	00		 lea	 edx, DWORD PTR $L94404
  0131e	e8 00 00 00 00	 call	 @_RTC_CheckStackVars@8
  01323	58		 pop	 eax
  01324	5a		 pop	 edx
  01325	5f		 pop	 edi
  01326	5e		 pop	 esi
  01327	5b		 pop	 ebx
  01328	81 c4 04 03 00
	00		 add	 esp, 772		; 00000304H
  0132e	3b ec		 cmp	 ebp, esp
  01330	e8 00 00 00 00	 call	 __RTC_CheckEsp
  01335	8b e5		 mov	 esp, ebp
  01337	5d		 pop	 ebp
  01338	c2 18 00	 ret	 24			; 00000018H
$L94404:
  0133b	06 00 00 00	 DD	 6
  0133f	00 00 00 00	 DD	 $L94403
$L94403:
  01343	b0 ff ff ff	 DD	 -80			; ffffffb0H
  01347	40 00 00 00	 DD	 64			; 00000040H
  0134b	00 00 00 00	 DD	 $L94397
  0134f	68 ff ff ff	 DD	 -152			; ffffff68H
  01353	40 00 00 00	 DD	 64			; 00000040H
  01357	00 00 00 00	 DD	 $L94398
  0135b	20 ff ff ff	 DD	 -224			; ffffff20H
  0135f	40 00 00 00	 DD	 64			; 00000040H
  01363	00 00 00 00	 DD	 $L94399
  01367	d8 fe ff ff	 DD	 -296			; fffffed8H
  0136b	40 00 00 00	 DD	 64			; 00000040H
  0136f	00 00 00 00	 DD	 $L94400
  01373	90 fe ff ff	 DD	 -368			; fffffe90H
  01377	40 00 00 00	 DD	 64			; 00000040H
  0137b	00 00 00 00	 DD	 $L94401
  0137f	24 fe ff ff	 DD	 -476			; fffffe24H
  01383	04 00 00 00	 DD	 4
  01387	00 00 00 00	 DD	 $L94402
$L94402:
  0138b	62		 DB	 98			; 00000062H
  0138c	4d		 DB	 77			; 0000004dH
  0138d	75		 DB	 117			; 00000075H
  0138e	73		 DB	 115			; 00000073H
  0138f	74		 DB	 116			; 00000074H
  01390	50		 DB	 80			; 00000050H
  01391	6f		 DB	 111			; 0000006fH
  01392	70		 DB	 112			; 00000070H
  01393	75		 DB	 117			; 00000075H
  01394	6c		 DB	 108			; 0000006cH
  01395	61		 DB	 97			; 00000061H
  01396	74		 DB	 116			; 00000074H
  01397	65		 DB	 101			; 00000065H
  01398	56		 DB	 86			; 00000056H
  01399	42		 DB	 66			; 00000042H
  0139a	00		 DB	 0
$L94401:
  0139b	6d		 DB	 109			; 0000006dH
  0139c	33		 DB	 51			; 00000033H
  0139d	00		 DB	 0
$L94400:
  0139e	6d		 DB	 109			; 0000006dH
  0139f	32		 DB	 50			; 00000032H
  013a0	00		 DB	 0
$L94399:
  013a1	6d		 DB	 109			; 0000006dH
  013a2	31		 DB	 49			; 00000031H
  013a3	00		 DB	 0
$L94398:
  013a4	6d		 DB	 109			; 0000006dH
  013a5	30		 DB	 48			; 00000030H
  013a6	00		 DB	 0
$L94397:
  013a7	6d		 DB	 109			; 0000006dH
  013a8	61		 DB	 97			; 00000061H
  013a9	74		 DB	 116			; 00000074H
  013aa	57		 DB	 87			; 00000057H
  013ab	6f		 DB	 111			; 0000006fH
  013ac	72		 DB	 114			; 00000072H
  013ad	6c		 DB	 108			; 0000006cH
  013ae	64		 DB	 100			; 00000064H
  013af	00		 DB	 0
?Render@CRace@@QAEJPAUIDirect3DDevice8@@PAVCTextures@@PAKMMH@Z ENDP ; CRace::Render
; Function compile flags: /Odt /RTCsu /ZI
; File c:\dxsdk\include\d3dx8math.h
_TEXT	ENDS
;	COMDAT ??0D3DXMATRIX@@QAE@XZ
_TEXT	SEGMENT
_this$ = -8
??0D3DXMATRIX@@QAE@XZ PROC NEAR				; D3DXMATRIX::D3DXMATRIX, COMDAT
; _this$ = ecx

; 177  :     D3DXMATRIX() {};

  00000	55		 push	 ebp
  00001	8b ec		 mov	 ebp, esp
  00003	81 ec cc 00 00
	00		 sub	 esp, 204		; 000000ccH
  00009	53		 push	 ebx
  0000a	56		 push	 esi
  0000b	57		 push	 edi
  0000c	51		 push	 ecx
  0000d	8d bd 34 ff ff
	ff		 lea	 edi, DWORD PTR [ebp-204]
  00013	b9 33 00 00 00	 mov	 ecx, 51			; 00000033H
  00018	b8 cc cc cc cc	 mov	 eax, -858993460		; ccccccccH
  0001d	f3 ab		 rep stosd
  0001f	59		 pop	 ecx
  00020	89 4d f8	 mov	 DWORD PTR _this$[ebp], ecx
  00023	8b 45 f8	 mov	 eax, DWORD PTR _this$[ebp]
  00026	5f		 pop	 edi
  00027	5e		 pop	 esi
  00028	5b		 pop	 ebx
  00029	8b e5		 mov	 esp, ebp
  0002b	5d		 pop	 ebp
  0002c	c3		 ret	 0
??0D3DXMATRIX@@QAE@XZ ENDP				; D3DXMATRIX::D3DXMATRIX
; Function compile flags: /Odt /RTCsu /ZI
; File c:\dxsdk\include\d3dx8math.inl
_TEXT	ENDS
;	COMDAT ??0D3DXVECTOR3@@QAE@ABU_D3DVECTOR@@@Z
_TEXT	SEGMENT
_this$ = -8
_v$ = 8
??0D3DXVECTOR3@@QAE@ABU_D3DVECTOR@@@Z PROC NEAR		; D3DXVECTOR3::D3DXVECTOR3, COMDAT
; _this$ = ecx

; 171  : {

  00000	55		 push	 ebp
  00001	8b ec		 mov	 ebp, esp
  00003	81 ec cc 00 00
	00		 sub	 esp, 204		; 000000ccH
  00009	53		 push	 ebx
  0000a	56		 push	 esi
  0000b	57		 push	 edi
  0000c	51		 push	 ecx
  0000d	8d bd 34 ff ff
	ff		 lea	 edi, DWORD PTR [ebp-204]
  00013	b9 33 00 00 00	 mov	 ecx, 51			; 00000033H
  00018	b8 cc cc cc cc	 mov	 eax, -858993460		; ccccccccH
  0001d	f3 ab		 rep stosd
  0001f	59		 pop	 ecx
  00020	89 4d f8	 mov	 DWORD PTR _this$[ebp], ecx

; 172  :     x = v.x;

  00023	8b 45 f8	 mov	 eax, DWORD PTR _this$[ebp]
  00026	8b 4d 08	 mov	 ecx, DWORD PTR _v$[ebp]
  00029	8b 11		 mov	 edx, DWORD PTR [ecx]
  0002b	89 10		 mov	 DWORD PTR [eax], edx

; 173  :     y = v.y;

  0002d	8b 45 f8	 mov	 eax, DWORD PTR _this$[ebp]
  00030	8b 4d 08	 mov	 ecx, DWORD PTR _v$[ebp]
  00033	8b 51 04	 mov	 edx, DWORD PTR [ecx+4]
  00036	89 50 04	 mov	 DWORD PTR [eax+4], edx

; 174  :     z = v.z;

  00039	8b 45 f8	 mov	 eax, DWORD PTR _this$[ebp]
  0003c	8b 4d 08	 mov	 ecx, DWORD PTR _v$[ebp]
  0003f	8b 51 08	 mov	 edx, DWORD PTR [ecx+8]
  00042	89 50 08	 mov	 DWORD PTR [eax+8], edx

; 175  : }

  00045	8b 45 f8	 mov	 eax, DWORD PTR _this$[ebp]
  00048	5f		 pop	 edi
  00049	5e		 pop	 esi
  0004a	5b		 pop	 ebx
  0004b	8b e5		 mov	 esp, ebp
  0004d	5d		 pop	 ebp
  0004e	c2 04 00	 ret	 4
??0D3DXVECTOR3@@QAE@ABU_D3DVECTOR@@@Z ENDP		; D3DXVECTOR3::D3DXVECTOR3
; Function compile flags: /Odt /RTCsu /ZI
_TEXT	ENDS
;	COMDAT ??0D3DXVECTOR3@@QAE@MMM@Z
_TEXT	SEGMENT
_this$ = -8
_fx$ = 8
_fy$ = 12
_fz$ = 16
??0D3DXVECTOR3@@QAE@MMM@Z PROC NEAR			; D3DXVECTOR3::D3DXVECTOR3, COMDAT
; _this$ = ecx

; 179  : {

  00000	55		 push	 ebp
  00001	8b ec		 mov	 ebp, esp
  00003	81 ec cc 00 00
	00		 sub	 esp, 204		; 000000ccH
  00009	53		 push	 ebx
  0000a	56		 push	 esi
  0000b	57		 push	 edi
  0000c	51		 push	 ecx
  0000d	8d bd 34 ff ff
	ff		 lea	 edi, DWORD PTR [ebp-204]
  00013	b9 33 00 00 00	 mov	 ecx, 51			; 00000033H
  00018	b8 cc cc cc cc	 mov	 eax, -858993460		; ccccccccH
  0001d	f3 ab		 rep stosd
  0001f	59		 pop	 ecx
  00020	89 4d f8	 mov	 DWORD PTR _this$[ebp], ecx

; 180  :     x = fx;

  00023	8b 45 f8	 mov	 eax, DWORD PTR _this$[ebp]
  00026	8b 4d 08	 mov	 ecx, DWORD PTR _fx$[ebp]
  00029	89 08		 mov	 DWORD PTR [eax], ecx

; 181  :     y = fy;

  0002b	8b 45 f8	 mov	 eax, DWORD PTR _this$[ebp]
  0002e	8b 4d 0c	 mov	 ecx, DWORD PTR _fy$[ebp]
  00031	89 48 04	 mov	 DWORD PTR [eax+4], ecx

; 182  :     z = fz;

  00034	8b 45 f8	 mov	 eax, DWORD PTR _this$[ebp]
  00037	8b 4d 10	 mov	 ecx, DWORD PTR _fz$[ebp]
  0003a	89 48 08	 mov	 DWORD PTR [eax+8], ecx

; 183  : }

  0003d	8b 45 f8	 mov	 eax, DWORD PTR _this$[ebp]
  00040	5f		 pop	 edi
  00041	5e		 pop	 esi
  00042	5b		 pop	 ebx
  00043	8b e5		 mov	 esp, ebp
  00045	5d		 pop	 ebp
  00046	c2 0c 00	 ret	 12			; 0000000cH
??0D3DXVECTOR3@@QAE@MMM@Z ENDP				; D3DXVECTOR3::D3DXVECTOR3
_TEXT	ENDS
PUBLIC	__real@42700000
PUBLIC	__real@40200000
PUBLIC	__real@42c80000
PUBLIC	?FrameMove@CRace@@QAEJPAUIDirect3DDevice8@@PAVCUserInput@@M@Z ; CRace::FrameMove
PUBLIC	_floorf
PUBLIC	_fmodf
PUBLIC	??_C@_0N@OMCPJJIN@GET?5?$CFd?5ITEMS?$AA@	; `string'
PUBLIC	??_C@_03CPCBJPHJ@GO?$CB?$AA@			; `string'
PUBLIC	??_C@_05GEPBPPAJ@?$FL?$CFd?$FN?5?$AA@		; `string'
PUBLIC	??_C@_03JDANDILB@?$CFd?5?$AA@			; `string'
PUBLIC	??_C@_06HHKMCLEN@?$CF02?40f?$AA@		; `string'
PUBLIC	??_C@_0P@FBNAFMPM@?$CF01d?3?$CF02d?4?$CFc?$CFc?$AA@ ; `string'
EXTRN	?PreFrameMove@CFighter@@QAEXPAVCRace@@@Z:NEAR	; CFighter::PreFrameMove
EXTRN	?FrameMove@CUserFighter@@QAEHPAUIDirect3DDevice8@@PAVCUserInput@@MPAVCCamera@@PAUD3DXMATRIX@@PAU_D3DVIEWPORT8@@HHPAVCTerrain@@HMHPAVCRace@@@Z:NEAR ; CUserFighter::FrameMove
EXTRN	?FrameMove@CBotFighter@@QAEHPAUIDirect3DDevice8@@PAVCUserInput@@MPAVCCamera@@PAUD3DXMATRIX@@PAU_D3DVIEWPORT8@@HPAVCTerrain@@HMPAVCRace@@@Z:NEAR ; CBotFighter::FrameMove
EXTRN	?FrameMove@CSky@@QAEJPAUIDirect3DDevice8@@PAVCUserInput@@MPAVCCamera@@PAUD3DXMATRIX@@PAU_D3DVIEWPORT8@@@Z:NEAR ; CSky::FrameMove
EXTRN	?RotateVectorY@@YAXPAUD3DXVECTOR3@@M0@Z:NEAR	; RotateVectorY
EXTRN	?SetManualFromInput@CCamera@@QAEHPAUIDirect3DDevice8@@PAVCUserInput@@MM@Z:NEAR ; CCamera::SetManualFromInput
EXTRN	?SetPresetFromInput@CCamera@@QAEHPAUIDirect3DDevice8@@PAVCUserInput@@@Z:NEAR ; CCamera::SetPresetFromInput
EXTRN	?SetShowoff@CCamera@@QAEHPAUIDirect3DDevice8@@PAUD3DXVECTOR3@@MMMMM@Z:NEAR ; CCamera::SetShowoff
EXTRN	?FrameMove3D@CSoundManager@@QAEXPAUD3DXVECTOR3@@000@Z:NEAR ; CSoundManager::FrameMove3D
EXTRN	?SetFrameMoveRequired@CHUDText@@QAEHH@Z:NEAR	; CHUDText::SetFrameMoveRequired
EXTRN	?FrameMove@CHUDText@@QAEJPAUIDirect3DDevice8@@PAVCUserInput@@PAUOVERLAYVERTEX@@@Z:NEAR ; CHUDText::FrameMove
EXTRN	?FrameMove@CTerrain@@QAEJPAUIDirect3DDevice8@@PAVCUserInput@@MPAVCCamera@@PAUD3DXMATRIX@@PAU_D3DVIEWPORT8@@@Z:NEAR ; CTerrain::FrameMove
EXTRN	?FrameMove@COcean@@QAEJPAUIDirect3DDevice8@@PAVCUserInput@@MPAVCCamera@@PAUD3DXMATRIX@@PAU_D3DVIEWPORT8@@@Z:NEAR ; COcean::FrameMove
;	COMDAT ??_C@_0N@OMCPJJIN@GET?5?$CFd?5ITEMS?$AA@
; File c:\documents and settings\dom\my documents\_dev\ae\xlr8a\x7g\crace.cpp
CONST	SEGMENT
??_C@_0N@OMCPJJIN@GET?5?$CFd?5ITEMS?$AA@ DB 'GET %d ITEMS', 00H ; `string'
CONST	ENDS
;	COMDAT ??_C@_03CPCBJPHJ@GO?$CB?$AA@
CONST	SEGMENT
??_C@_03CPCBJPHJ@GO?$CB?$AA@ DB 'GO!', 00H		; `string'
CONST	ENDS
;	COMDAT __real@42700000
CONST	SEGMENT
__real@42700000 DD 042700000r			; 60
CONST	ENDS
;	COMDAT ??_C@_05GEPBPPAJ@?$FL?$CFd?$FN?5?$AA@
CONST	SEGMENT
??_C@_05GEPBPPAJ@?$FL?$CFd?$FN?5?$AA@ DB '[%d] ', 00H	; `string'
CONST	ENDS
;	COMDAT ??_C@_03JDANDILB@?$CFd?5?$AA@
CONST	SEGMENT
??_C@_03JDANDILB@?$CFd?5?$AA@ DB '%d ', 00H		; `string'
CONST	ENDS
;	COMDAT __real@40200000
CONST	SEGMENT
__real@40200000 DD 040200000r			; 2.5
CONST	ENDS
;	COMDAT __real@42c80000
CONST	SEGMENT
__real@42c80000 DD 042c80000r			; 100
CONST	ENDS
;	COMDAT ??_C@_06HHKMCLEN@?$CF02?40f?$AA@
CONST	SEGMENT
??_C@_06HHKMCLEN@?$CF02?40f?$AA@ DB '%02.0f', 00H	; `string'
CONST	ENDS
;	COMDAT ??_C@_0P@FBNAFMPM@?$CF01d?3?$CF02d?4?$CFc?$CFc?$AA@
CONST	SEGMENT
??_C@_0P@FBNAFMPM@?$CF01d?3?$CF02d?4?$CFc?$CFc?$AA@ DB '%01d:%02d.%c%c', 00H ; `string'
; Function compile flags: /Odt /RTCsu /ZI
CONST	ENDS
;	COMDAT ?FrameMove@CRace@@QAEJPAUIDirect3DDevice8@@PAVCUserInput@@M@Z
_TEXT	SEGMENT
tv386 = -616
tv321 = -616
tv139 = -616
$T94420 = -605
$T94414 = -596
_szMillis$ = -384
_i$ = -116
_bAcceptInput$94049 = -104
_bManageCam$94048 = -92
_r$ = -80
_v$ = -68
_fDegRotPer60th$ = -48
_bSkipLevel$ = -33
_pBot$ = -24
_this$ = -12
__$ArrayPad$ = -4
__$ReturnAddr$ = 4
_pDev$ = 8
_pInput$ = 12
_fFPS$ = 16
?FrameMove@CRace@@QAEJPAUIDirect3DDevice8@@PAVCUserInput@@M@Z PROC NEAR ; CRace::FrameMove, COMDAT
; _this$ = ecx

; 761  : 	{

  00000	55		 push	 ebp
  00001	8b ec		 mov	 ebp, esp
  00003	81 ec 68 02 00
	00		 sub	 esp, 616		; 00000268H
  00009	53		 push	 ebx
  0000a	56		 push	 esi
  0000b	57		 push	 edi
  0000c	51		 push	 ecx
  0000d	8d bd 98 fd ff
	ff		 lea	 edi, DWORD PTR [ebp-616]
  00013	b9 9a 00 00 00	 mov	 ecx, 154		; 0000009aH
  00018	b8 cc cc cc cc	 mov	 eax, -858993460		; ccccccccH
  0001d	f3 ab		 rep stosd
  0001f	59		 pop	 ecx
  00020	a1 00 00 00 00	 mov	 eax, DWORD PTR ___security_cookie
  00025	33 45 04	 xor	 eax, DWORD PTR __$ReturnAddr$[ebp]
  00028	89 45 fc	 mov	 DWORD PTR __$ArrayPad$[ebp], eax
  0002b	89 4d f4	 mov	 DWORD PTR _this$[ebp], ecx
  0002e	c6 85 a3 fd ff
	ff 00		 mov	 BYTE PTR $T94420[ebp], 0

; 762  : #ifdef FULL_DBG_TRACE
; 763  : 	ods( "CRace::FrameMove START\n" );
; 764  : #endif 
; 765  : 
; 766  : 		BOT_FIGHTER* pBot ;
; 767  : 
; 768  : 		if (fFPS == 0)

  00035	d9 45 10	 fld	 DWORD PTR _fFPS$[ebp]
  00038	d8 1d 00 00 00
	00		 fcomp	 DWORD PTR __real@00000000
  0003e	df e0		 fnstsw	 ax
  00040	f6 c4 44	 test	 ah, 68			; 00000044H
  00043	7a 07		 jp	 SHORT $L94005

; 769  : 			return S_OK ;

  00045	33 c0		 xor	 eax, eax
  00047	e9 9e 0a 00 00	 jmp	 $L94003
$L94005:

; 770  : 
; 771  : 	//
; 772  : 	// LEVEL SKIP: If all bots are dead, next level:
; 773  : 	//
; 774  : 		bool bSkipLevel = false ;

  0004c	c6 45 df 00	 mov	 BYTE PTR _bSkipLevel$[ebp], 0

; 775  : 		/*int nDeadBots = 0 ;
; 776  : 		pBot = m_pBots ;
; 777  : 		while( pBot )
; 778  : 		{
; 779  : 			if( pBot->pFighter->m_bBotIsDead )
; 780  : 				nDeadBots++ ;
; 781  : 			pBot = pBot->pNext ;
; 782  : 		}
; 783  : 		if( nDeadBots==m_nBots || pInput->m_bKB_Pressed[ DIK_F9 ] )		// DBG
; 784  : 		{
; 785  : 			m_pX7->m_bGamePaused = FALSE ;
; 786  : 			m_pX7->m_bInGame = FALSE ;
; 787  : 			m_pX7->m_bInMainMenu = FALSE ;
; 788  : 			m_pX7->m_bInLevelTransition = TRUE ;
; 789  : 			return S_OK ;
; 790  : 		}*/
; 791  : 
; 792  : 	//
; 793  : 	// LEVEL SKIP: DBG
; 794  : 	//
; 795  : 		if( pInput->m_bKB_Pressed[ DIK_F9 ] )

  00050	8b 45 0c	 mov	 eax, DWORD PTR _pInput$[ebp]
  00053	83 b8 14 03 00
	00 00		 cmp	 DWORD PTR [eax+788], 0
  0005a	74 04		 je	 SHORT $L94008

; 796  : 			bSkipLevel = true ;

  0005c	c6 45 df 01	 mov	 BYTE PTR _bSkipLevel$[ebp], 1
$L94008:

; 797  : 
; 798  : 	//
; 799  : 	// LEVEL SKIP: If all cherries are collected!
; 800  : 	//
; 801  : 		if( m_pFighter->m_nCherries == m_pTerrain->m_nCherries )

  00060	8b 45 f4	 mov	 eax, DWORD PTR _this$[ebp]
  00063	8b 48 30	 mov	 ecx, DWORD PTR [eax+48]
  00066	8b 55 f4	 mov	 edx, DWORD PTR _this$[ebp]
  00069	8b 42 24	 mov	 eax, DWORD PTR [edx+36]
  0006c	8b 89 58 03 00
	00		 mov	 ecx, DWORD PTR [ecx+856]
  00072	3b 48 70	 cmp	 ecx, DWORD PTR [eax+112]
  00075	75 04		 jne	 SHORT $L94009

; 802  : 			bSkipLevel = true ;

  00077	c6 45 df 01	 mov	 BYTE PTR _bSkipLevel$[ebp], 1
$L94009:

; 803  : 
; 804  : 		if( bSkipLevel )

  0007b	0f b6 45 df	 movzx	 eax, BYTE PTR _bSkipLevel$[ebp]
  0007f	85 c0		 test	 eax, eax
  00081	74 3b		 je	 SHORT $L94010

; 805  : 		{
; 806  : 			m_pX7->m_bGamePaused = FALSE ;

  00083	8b 45 f4	 mov	 eax, DWORD PTR _this$[ebp]
  00086	8b 48 38	 mov	 ecx, DWORD PTR [eax+56]
  00089	c6 81 dc a7 02
	00 00		 mov	 BYTE PTR [ecx+174044], 0

; 807  : 			m_pX7->m_bInGame = FALSE ;

  00090	8b 45 f4	 mov	 eax, DWORD PTR _this$[ebp]
  00093	8b 48 38	 mov	 ecx, DWORD PTR [eax+56]
  00096	c6 81 db a7 02
	00 00		 mov	 BYTE PTR [ecx+174043], 0

; 808  : 			m_pX7->m_bInMainMenu = FALSE ;

  0009d	8b 45 f4	 mov	 eax, DWORD PTR _this$[ebp]
  000a0	8b 48 38	 mov	 ecx, DWORD PTR [eax+56]
  000a3	c6 81 d8 a7 02
	00 00		 mov	 BYTE PTR [ecx+174040], 0

; 809  : 			m_pX7->m_bInLevelTransition = TRUE ;

  000aa	8b 45 f4	 mov	 eax, DWORD PTR _this$[ebp]
  000ad	8b 48 38	 mov	 ecx, DWORD PTR [eax+56]
  000b0	c6 81 de a7 02
	00 01		 mov	 BYTE PTR [ecx+174046], 1

; 810  : 			return S_OK ;

  000b7	33 c0		 xor	 eax, eax
  000b9	e9 2c 0a 00 00	 jmp	 $L94003
$L94010:

; 811  : 		}
; 812  : 
; 813  : 	// DBG; blend ops.
; 814  : 		SB = m_pX7->SB ;

  000be	8b 45 f4	 mov	 eax, DWORD PTR _this$[ebp]
  000c1	8b 48 38	 mov	 ecx, DWORD PTR [eax+56]
  000c4	8b 55 f4	 mov	 edx, DWORD PTR _this$[ebp]
  000c7	8b 81 ac a9 02
	00		 mov	 eax, DWORD PTR [ecx+174508]
  000cd	89 42 64	 mov	 DWORD PTR [edx+100], eax

; 815  : 		DB = m_pX7->DB ;

  000d0	8b 45 f4	 mov	 eax, DWORD PTR _this$[ebp]
  000d3	8b 48 38	 mov	 ecx, DWORD PTR [eax+56]
  000d6	8b 55 f4	 mov	 edx, DWORD PTR _this$[ebp]
  000d9	8b 81 b0 a9 02
	00		 mov	 eax, DWORD PTR [ecx+174512]
  000df	89 42 68	 mov	 DWORD PTR [edx+104], eax

; 816  : 
; 817  : 	// DBG; bot tracking
; 818  : 		static bool bDbgTrackBot = false ;
; 819  : 		static int nTrackBot = 0 ;
; 820  : 		if( pInput->m_bKB_Pressed[ DIK_B ] )

  000e2	8b 45 0c	 mov	 eax, DWORD PTR _pInput$[ebp]
  000e5	83 b8 c8 02 00
	00 00		 cmp	 DWORD PTR [eax+712], 0
  000ec	74 5c		 je	 SHORT $L94016

; 821  : 		{
; 822  : 			if( !bDbgTrackBot )

  000ee	0f b6 05 00 00
	00 00		 movzx	 eax, BYTE PTR ?bDbgTrackBot@?L@??FrameMove@CRace@@QAEJPAUIDirect3DDevice8@@PAVCUserInput@@M@Z@4_NA
  000f5	85 c0		 test	 eax, eax
  000f7	75 13		 jne	 SHORT $L94017

; 823  : 			{
; 824  : 				nTrackBot = 0 ;

  000f9	c7 05 00 00 00
	00 00 00 00 00	 mov	 DWORD PTR ?nTrackBot@?L@??FrameMove@CRace@@QAEJPAUIDirect3DDevice8@@PAVCUserInput@@M@Z@4HA, 0

; 825  : 				bDbgTrackBot = true ;

  00103	c6 05 00 00 00
	00 01		 mov	 BYTE PTR ?bDbgTrackBot@?L@??FrameMove@CRace@@QAEJPAUIDirect3DDevice8@@PAVCUserInput@@M@Z@4_NA, 1

; 826  : 			}
; 827  : 			else if( ++nTrackBot == m_nBots )

  0010a	eb 2c		 jmp	 SHORT $L94018
$L94017:
  0010c	a1 00 00 00 00	 mov	 eax, DWORD PTR ?nTrackBot@?L@??FrameMove@CRace@@QAEJPAUIDirect3DDevice8@@PAVCUserInput@@M@Z@4HA
  00111	83 c0 01	 add	 eax, 1
  00114	a3 00 00 00 00	 mov	 DWORD PTR ?nTrackBot@?L@??FrameMove@CRace@@QAEJPAUIDirect3DDevice8@@PAVCUserInput@@M@Z@4HA, eax
  00119	8b 4d f4	 mov	 ecx, DWORD PTR _this$[ebp]
  0011c	8b 15 00 00 00
	00		 mov	 edx, DWORD PTR ?nTrackBot@?L@??FrameMove@CRace@@QAEJPAUIDirect3DDevice8@@PAVCUserInput@@M@Z@4HA
  00122	3b 51 18	 cmp	 edx, DWORD PTR [ecx+24]
  00125	75 11		 jne	 SHORT $L94018

; 828  : 			{
; 829  : 				bDbgTrackBot = false ;

  00127	c6 05 00 00 00
	00 00		 mov	 BYTE PTR ?bDbgTrackBot@?L@??FrameMove@CRace@@QAEJPAUIDirect3DDevice8@@PAVCUserInput@@M@Z@4_NA, 0

; 830  : 				nTrackBot = 0 ;

  0012e	c7 05 00 00 00
	00 00 00 00 00	 mov	 DWORD PTR ?nTrackBot@?L@??FrameMove@CRace@@QAEJPAUIDirect3DDevice8@@PAVCUserInput@@M@Z@4HA, 0
$L94018:

; 831  : 			}
; 832  : 			m_bShowHUD = !bDbgTrackBot ;

  00138	0f b6 05 00 00
	00 00		 movzx	 eax, BYTE PTR ?bDbgTrackBot@?L@??FrameMove@CRace@@QAEJPAUIDirect3DDevice8@@PAVCUserInput@@M@Z@4_NA
  0013f	f7 d8		 neg	 eax
  00141	1b c0		 sbb	 eax, eax
  00143	40		 inc	 eax
  00144	8b 4d f4	 mov	 ecx, DWORD PTR _this$[ebp]
  00147	89 41 60	 mov	 DWORD PTR [ecx+96], eax
$L94016:

; 833  : 		}
; 834  : 
; 835  : 	// DBG; player damage
; 836  : 		if( !m_pX7->m_bPlayerDamage )

  0014a	8b 45 f4	 mov	 eax, DWORD PTR _this$[ebp]
  0014d	8b 48 38	 mov	 ecx, DWORD PTR [eax+56]
  00150	0f b6 91 b5 a9
	02 00		 movzx	 edx, BYTE PTR [ecx+174517]
  00157	85 d2		 test	 edx, edx
  00159	75 10		 jne	 SHORT $L94020

; 837  : 		{
; 838  : 			m_pFighter->m_fShieldLevel = 1 ;

  0015b	8b 45 f4	 mov	 eax, DWORD PTR _this$[ebp]
  0015e	8b 48 30	 mov	 ecx, DWORD PTR [eax+48]
  00161	c7 81 08 03 00
	00 00 00 80 3f	 mov	 DWORD PTR [ecx+776], 1065353216 ; 3f800000H
$L94020:

; 839  : 		}
; 840  : 
; 841  : #ifdef FULL_DBG_TRACE
; 842  : 	ods( "1\n" );
; 843  : #endif
; 844  : 
; 845  : 	//
; 846  : 	// Race State:
; 847  : 	//
; 848  : 		switch( m_State )
; 849  : 		{

  0016b	8b 45 f4	 mov	 eax, DWORD PTR _this$[ebp]
  0016e	8b 08		 mov	 ecx, DWORD PTR [eax]
  00170	89 8d 98 fd ff
	ff		 mov	 DWORD PTR tv139[ebp], ecx
  00176	83 bd 98 fd ff
	ff 00		 cmp	 DWORD PTR tv139[ebp], 0
  0017d	74 12		 je	 SHORT $L94025
  0017f	83 bd 98 fd ff
	ff 01		 cmp	 DWORD PTR tv139[ebp], 1
  00186	0f 84 e4 00 00
	00		 je	 $L94027
  0018c	e9 f9 01 00 00	 jmp	 $L94022
$L94025:

; 850  : 			case GCS_LEVEL_PREINTRO:
; 851  : 				m_State = GCS_LEVEL_INTRO ;

  00191	8b 45 f4	 mov	 eax, DWORD PTR _this$[ebp]
  00194	c7 00 01 00 00
	00		 mov	 DWORD PTR [eax], 1

; 852  : 
; 853  : 				m_pFighter->m_bShowingHUDText = true ;

  0019a	8b 45 f4	 mov	 eax, DWORD PTR _this$[ebp]
  0019d	8b 48 30	 mov	 ecx, DWORD PTR [eax+48]
  001a0	c6 81 08 04 00
	00 01		 mov	 BYTE PTR [ecx+1032], 1

; 854  : 				sprintf( m_pFighter->m_szHUDText, "GET %d ITEMS", m_pTerrain->m_nCherries );

  001a7	8b 45 f4	 mov	 eax, DWORD PTR _this$[ebp]
  001aa	8b 48 24	 mov	 ecx, DWORD PTR [eax+36]
  001ad	8b 51 70	 mov	 edx, DWORD PTR [ecx+112]
  001b0	52		 push	 edx
  001b1	68 00 00 00 00	 push	 OFFSET FLAT:??_C@_0N@OMCPJJIN@GET?5?$CFd?5ITEMS?$AA@
  001b6	8b 45 f4	 mov	 eax, DWORD PTR _this$[ebp]
  001b9	8b 48 30	 mov	 ecx, DWORD PTR [eax+48]
  001bc	81 c1 b8 03 00
	00		 add	 ecx, 952		; 000003b8H
  001c2	51		 push	 ecx
  001c3	e8 00 00 00 00	 call	 _sprintf
  001c8	83 c4 0c	 add	 esp, 12			; 0000000cH

; 855  : 
; 856  : 				m_pFighter->m_fHUDTextAge = 0 ;	m_pFighter->m_fHUDTextLifespan = 2 ;

  001cb	8b 45 f4	 mov	 eax, DWORD PTR _this$[ebp]
  001ce	8b 48 30	 mov	 ecx, DWORD PTR [eax+48]
  001d1	c7 81 10 04 00
	00 00 00 00 00	 mov	 DWORD PTR [ecx+1040], 0
  001db	8b 45 f4	 mov	 eax, DWORD PTR _this$[ebp]
  001de	8b 48 30	 mov	 ecx, DWORD PTR [eax+48]
  001e1	c7 81 0c 04 00
	00 00 00 00 40	 mov	 DWORD PTR [ecx+1036], 1073741824 ; 40000000H

; 857  : 				m_pFighter->m_fHUDTextX = -1 ; m_pFighter->m_fHUDTextY = -0.4f ;

  001eb	8b 45 f4	 mov	 eax, DWORD PTR _this$[ebp]
  001ee	8b 48 30	 mov	 ecx, DWORD PTR [eax+48]
  001f1	c7 81 24 04 00
	00 00 00 80 bf	 mov	 DWORD PTR [ecx+1060], -1082130432 ; bf800000H
  001fb	8b 45 f4	 mov	 eax, DWORD PTR _this$[ebp]
  001fe	8b 48 30	 mov	 ecx, DWORD PTR [eax+48]
  00201	c7 81 28 04 00
	00 cd cc cc be	 mov	 DWORD PTR [ecx+1064], -1093874483 ; becccccdH

; 858  : 				m_pFighter->m_fHUDTextXScale = 0.2f ; m_pFighter->m_fHUDTextYScale = 0.3f ;

  0020b	8b 45 f4	 mov	 eax, DWORD PTR _this$[ebp]
  0020e	8b 48 30	 mov	 ecx, DWORD PTR [eax+48]
  00211	c7 81 2c 04 00
	00 cd cc 4c 3e	 mov	 DWORD PTR [ecx+1068], 1045220557 ; 3e4ccccdH
  0021b	8b 45 f4	 mov	 eax, DWORD PTR _this$[ebp]
  0021e	8b 48 30	 mov	 ecx, DWORD PTR [eax+48]
  00221	c7 81 30 04 00
	00 9a 99 99 3e	 mov	 DWORD PTR [ecx+1072], 1050253722 ; 3e99999aH

; 859  : 				m_pFighter->m_fHUDTextRed = 1 ;	m_pFighter->m_fHUDTextGreen = 1 ; m_pFighter->m_fHUDTextBlue = 1 ; m_pFighter->m_fHUDTextAlpha = 0.3f ;

  0022b	8b 45 f4	 mov	 eax, DWORD PTR _this$[ebp]
  0022e	8b 48 30	 mov	 ecx, DWORD PTR [eax+48]
  00231	c7 81 14 04 00
	00 00 00 80 3f	 mov	 DWORD PTR [ecx+1044], 1065353216 ; 3f800000H
  0023b	8b 45 f4	 mov	 eax, DWORD PTR _this$[ebp]
  0023e	8b 48 30	 mov	 ecx, DWORD PTR [eax+48]
  00241	c7 81 18 04 00
	00 00 00 80 3f	 mov	 DWORD PTR [ecx+1048], 1065353216 ; 3f800000H
  0024b	8b 45 f4	 mov	 eax, DWORD PTR _this$[ebp]
  0024e	8b 48 30	 mov	 ecx, DWORD PTR [eax+48]
  00251	c7 81 1c 04 00
	00 00 00 80 3f	 mov	 DWORD PTR [ecx+1052], 1065353216 ; 3f800000H
  0025b	8b 45 f4	 mov	 eax, DWORD PTR _this$[ebp]
  0025e	8b 48 30	 mov	 ecx, DWORD PTR [eax+48]
  00261	c7 81 20 04 00
	00 9a 99 99 3e	 mov	 DWORD PTR [ecx+1056], 1050253722 ; 3e99999aH

; 860  : 				break ;

  0026b	e9 1a 01 00 00	 jmp	 $L94022
$L94027:

; 861  : 
; 862  : 			case GCS_LEVEL_INTRO:
; 863  : 				m_ctCamMode = CT_SHOWOFF ;

  00270	8b 45 f4	 mov	 eax, DWORD PTR _this$[ebp]
  00273	c7 40 6c 09 00
	00 00		 mov	 DWORD PTR [eax+108], 9

; 864  : 				m_fIntroTimeS -= ( 1 / fFPS );

  0027a	d9 05 00 00 00
	00		 fld	 DWORD PTR __real@3f800000
  00280	d8 75 10	 fdiv	 DWORD PTR _fFPS$[ebp]
  00283	8b 45 f4	 mov	 eax, DWORD PTR _this$[ebp]
  00286	d8 68 04	 fsubr	 DWORD PTR [eax+4]
  00289	8b 4d f4	 mov	 ecx, DWORD PTR _this$[ebp]
  0028c	d9 59 04	 fstp	 DWORD PTR [ecx+4]

; 865  : 				if( m_fIntroTimeS < 0 )

  0028f	8b 45 f4	 mov	 eax, DWORD PTR _this$[ebp]
  00292	d9 40 04	 fld	 DWORD PTR [eax+4]
  00295	d8 1d 00 00 00
	00		 fcomp	 DWORD PTR __real@00000000
  0029b	df e0		 fnstsw	 ax
  0029d	f6 c4 05	 test	 ah, 5
  002a0	0f 8a e4 00 00
	00		 jp	 $L94022

; 866  : 				{
; 867  : 					m_State = GCS_LEVEL_INGAME ;

  002a6	8b 45 f4	 mov	 eax, DWORD PTR _this$[ebp]
  002a9	c7 00 02 00 00
	00		 mov	 DWORD PTR [eax], 2

; 868  : 					m_ctCamMode = CT_BEHIND_VARIABLE1 ;

  002af	8b 45 f4	 mov	 eax, DWORD PTR _this$[ebp]
  002b2	c7 40 6c 04 00
	00 00		 mov	 DWORD PTR [eax+108], 4

; 869  : 
; 870  : 					m_pFighter->m_bShowingHUDText = true ;

  002b9	8b 45 f4	 mov	 eax, DWORD PTR _this$[ebp]
  002bc	8b 48 30	 mov	 ecx, DWORD PTR [eax+48]
  002bf	c6 81 08 04 00
	00 01		 mov	 BYTE PTR [ecx+1032], 1

; 871  : 					sprintf( m_pFighter->m_szHUDText, "GO!", m_pTerrain->m_nCherries );

  002c6	8b 45 f4	 mov	 eax, DWORD PTR _this$[ebp]
  002c9	8b 48 24	 mov	 ecx, DWORD PTR [eax+36]
  002cc	8b 51 70	 mov	 edx, DWORD PTR [ecx+112]
  002cf	52		 push	 edx
  002d0	68 00 00 00 00	 push	 OFFSET FLAT:??_C@_03CPCBJPHJ@GO?$CB?$AA@
  002d5	8b 45 f4	 mov	 eax, DWORD PTR _this$[ebp]
  002d8	8b 48 30	 mov	 ecx, DWORD PTR [eax+48]
  002db	81 c1 b8 03 00
	00		 add	 ecx, 952		; 000003b8H
  002e1	51		 push	 ecx
  002e2	e8 00 00 00 00	 call	 _sprintf
  002e7	83 c4 0c	 add	 esp, 12			; 0000000cH

; 872  : 					m_pFighter->m_fHUDTextAge = 0 ;	m_pFighter->m_fHUDTextLifespan = 0.5f ;

  002ea	8b 45 f4	 mov	 eax, DWORD PTR _this$[ebp]
  002ed	8b 48 30	 mov	 ecx, DWORD PTR [eax+48]
  002f0	c7 81 10 04 00
	00 00 00 00 00	 mov	 DWORD PTR [ecx+1040], 0
  002fa	8b 45 f4	 mov	 eax, DWORD PTR _this$[ebp]
  002fd	8b 48 30	 mov	 ecx, DWORD PTR [eax+48]
  00300	c7 81 0c 04 00
	00 00 00 00 3f	 mov	 DWORD PTR [ecx+1036], 1056964608 ; 3f000000H

; 873  : 					m_pFighter->m_fHUDTextX = -0.93f ; m_pFighter->m_fHUDTextY = -0.77f;

  0030a	8b 45 f4	 mov	 eax, DWORD PTR _this$[ebp]
  0030d	8b 48 30	 mov	 ecx, DWORD PTR [eax+48]
  00310	c7 81 24 04 00
	00 7b 14 6e bf	 mov	 DWORD PTR [ecx+1060], -1083304837 ; bf6e147bH
  0031a	8b 45 f4	 mov	 eax, DWORD PTR _this$[ebp]
  0031d	8b 48 30	 mov	 ecx, DWORD PTR [eax+48]
  00320	c7 81 28 04 00
	00 b8 1e 45 bf	 mov	 DWORD PTR [ecx+1064], -1085989192 ; bf451eb8H

; 874  : 					m_pFighter->m_fHUDTextXScale = 0.65f ; m_pFighter->m_fHUDTextYScale = 0.65f ;

  0032a	8b 45 f4	 mov	 eax, DWORD PTR _this$[ebp]
  0032d	8b 48 30	 mov	 ecx, DWORD PTR [eax+48]
  00330	c7 81 2c 04 00
	00 66 66 26 3f	 mov	 DWORD PTR [ecx+1068], 1059481190 ; 3f266666H
  0033a	8b 45 f4	 mov	 eax, DWORD PTR _this$[ebp]
  0033d	8b 48 30	 mov	 ecx, DWORD PTR [eax+48]
  00340	c7 81 30 04 00
	00 66 66 26 3f	 mov	 DWORD PTR [ecx+1072], 1059481190 ; 3f266666H

