; Listing generated by Microsoft (R) Optimizing Compiler Version 13.00.9466 

	TITLE	CScreenOverlayManager.cpp
	.386P
include listing.inc
if @Version gt 510
.model FLAT
else
_TEXT	SEGMENT PARA USE32 PUBLIC 'CODE'
_TEXT	ENDS
_DATA	SEGMENT DWORD USE32 PUBLIC 'DATA'
_DATA	ENDS
CONST	SEGMENT DWORD USE32 PUBLIC 'CONST'
CONST	ENDS
_BSS	SEGMENT DWORD USE32 PUBLIC 'BSS'
_BSS	ENDS
$$SYMBOLS	SEGMENT BYTE USE32 'DEBSYM'
$$SYMBOLS	ENDS
$$TYPES	SEGMENT BYTE USE32 'DEBTYP'
$$TYPES	ENDS
_TLS	SEGMENT DWORD USE32 PUBLIC 'TLS'
_TLS	ENDS
;	COMDAT ??_C@_0FH@KCMNJALG@c?3?2documents?5and?5settings?2dom?2my@
CONST	SEGMENT DWORD USE32 PUBLIC 'CONST'
CONST	ENDS
;	COMDAT ??_C@_0BP@KPDKNGBM@m_dwNumOverlays?5?$DM?5MAX_OVERLAYS?$AA@
CONST	SEGMENT DWORD USE32 PUBLIC 'CONST'
CONST	ENDS
;	COMDAT ??_C@_0CN@ONLJMEB@CScreenOverlayManager?3?3RestoreDe@
CONST	SEGMENT DWORD USE32 PUBLIC 'CONST'
CONST	ENDS
;	COMDAT ??_C@_0L@CJJJJEMF@hr?$DN?$DND3D_OK?$AA@
CONST	SEGMENT DWORD USE32 PUBLIC 'CONST'
CONST	ENDS
;	COMDAT ??_C@_0M@NKNCPJJD@?$CBFAILED?$CIhr?$CJ?$AA@
CONST	SEGMENT DWORD USE32 PUBLIC 'CONST'
CONST	ENDS
;	COMDAT _IsEqualGUID
_TEXT	SEGMENT PARA USE32 PUBLIC 'CODE'
_TEXT	ENDS
;	COMDAT _==
_TEXT	SEGMENT PARA USE32 PUBLIC 'CODE'
_TEXT	ENDS
;	COMDAT _sinf
_TEXT	SEGMENT PARA USE32 PUBLIC 'CODE'
_TEXT	ENDS
;	COMDAT _sqrtf
_TEXT	SEGMENT PARA USE32 PUBLIC 'CODE'
_TEXT	ENDS
;	COMDAT ??0D3DXVECTOR3@@QAE@XZ
_TEXT	SEGMENT PARA USE32 PUBLIC 'CODE'
_TEXT	ENDS
;	COMDAT ??0D3DXMATRIX@@QAE@XZ
_TEXT	SEGMENT PARA USE32 PUBLIC 'CODE'
_TEXT	ENDS
;	COMDAT ??0D3DXQUATERNION@@QAE@XZ
_TEXT	SEGMENT PARA USE32 PUBLIC 'CODE'
_TEXT	ENDS
;	COMDAT ??0D3DXVECTOR2@@QAE@MM@Z
_TEXT	SEGMENT PARA USE32 PUBLIC 'CODE'
_TEXT	ENDS
;	COMDAT ??0D3DXVECTOR3@@QAE@MMM@Z
_TEXT	SEGMENT PARA USE32 PUBLIC 'CODE'
_TEXT	ENDS
;	COMDAT ??0D3DXVECTOR4@@QAE@MMMM@Z
_TEXT	SEGMENT PARA USE32 PUBLIC 'CODE'
_TEXT	ENDS
;	COMDAT ??0D3DXMATRIX@@QAE@PBM@Z
_TEXT	SEGMENT PARA USE32 PUBLIC 'CODE'
_TEXT	ENDS
;	COMDAT ??0D3DXMATRIX@@QAE@ABU_D3DMATRIX@@@Z
_TEXT	SEGMENT PARA USE32 PUBLIC 'CODE'
_TEXT	ENDS
;	COMDAT ??0D3DXMATRIX@@QAE@MMMMMMMMMMMMMMMM@Z
_TEXT	SEGMENT PARA USE32 PUBLIC 'CODE'
_TEXT	ENDS
;	COMDAT ??0D3DXQUATERNION@@QAE@MMMM@Z
_TEXT	SEGMENT PARA USE32 PUBLIC 'CODE'
_TEXT	ENDS
;	COMDAT ??0D3DXPLANE@@QAE@MMMM@Z
_TEXT	SEGMENT PARA USE32 PUBLIC 'CODE'
_TEXT	ENDS
;	COMDAT ??0D3DXCOLOR@@QAE@MMMM@Z
_TEXT	SEGMENT PARA USE32 PUBLIC 'CODE'
_TEXT	ENDS
;	COMDAT ??0CScreenOverlayManager@@QAE@XZ
_TEXT	SEGMENT PARA USE32 PUBLIC 'CODE'
_TEXT	ENDS
;	COMDAT ??1CScreenOverlayManager@@QAE@XZ
_TEXT	SEGMENT PARA USE32 PUBLIC 'CODE'
_TEXT	ENDS
;	COMDAT ?RegisterNewOverlay@CScreenOverlayManager@@QAEHPAVCScreenOverlay@@@Z
_TEXT	SEGMENT PARA USE32 PUBLIC 'CODE'
_TEXT	ENDS
;	COMDAT ?RestoreDeviceObjects@CScreenOverlayManager@@QAEJPAUIDirect3DDevice8@@M@Z
_TEXT	SEGMENT PARA USE32 PUBLIC 'CODE'
_TEXT	ENDS
;	COMDAT ?SetProjMat@CScreenOverlayManager@@QAEXPAUIDirect3DDevice8@@@Z
_TEXT	SEGMENT PARA USE32 PUBLIC 'CODE'
_TEXT	ENDS
;	COMDAT ?Render@CScreenOverlayManager@@QAEJPAUIDirect3DDevice8@@HH@Z
_TEXT	SEGMENT PARA USE32 PUBLIC 'CODE'
_TEXT	ENDS
;	COMDAT ?LockVB@CScreenOverlayManager@@QAEJXZ
_TEXT	SEGMENT PARA USE32 PUBLIC 'CODE'
_TEXT	ENDS
;	COMDAT ?UnlockVB@CScreenOverlayManager@@QAEJXZ
_TEXT	SEGMENT PARA USE32 PUBLIC 'CODE'
_TEXT	ENDS
;	COMDAT ?FrameMove@CScreenOverlayManager@@QAEJPAUIDirect3DDevice8@@MM@Z
_TEXT	SEGMENT PARA USE32 PUBLIC 'CODE'
_TEXT	ENDS
;	COMDAT ?InvalidateDeviceObjects@CScreenOverlayManager@@QAEJXZ
_TEXT	SEGMENT PARA USE32 PUBLIC 'CODE'
_TEXT	ENDS
;	COMDAT ?__LINE__Var@?1??UnlockVB@CScreenOverlayManager@@QAEJXZ@4JA
_DATA	SEGMENT DWORD USE32 PUBLIC 'DATA'
_DATA	ENDS
;	COMDAT ?__LINE__Var@?1??LockVB@CScreenOverlayManager@@QAEJXZ@4JA
_DATA	SEGMENT DWORD USE32 PUBLIC 'DATA'
_DATA	ENDS
;	COMDAT ?__LINE__Var@?1??Render@CScreenOverlayManager@@QAEJPAUIDirect3DDevice8@@HH@Z@4JA
_DATA	SEGMENT DWORD USE32 PUBLIC 'DATA'
_DATA	ENDS
;	COMDAT ?__LINE__Var@?1??RegisterNewOverlay@CScreenOverlayManager@@QAEHPAVCScreenOverlay@@@Z@4JA
_DATA	SEGMENT DWORD USE32 PUBLIC 'DATA'
_DATA	ENDS
FLAT	GROUP _DATA, CONST, _BSS
	ASSUME	CS: FLAT, DS: FLAT, SS: FLAT
endif

INCLUDELIB LIBCMTD
INCLUDELIB OLDNAMES

CONST	SEGMENT
_g_DEGTORAD DD	03c8efa35r			; 0.0174533
CONST	ENDS
PUBLIC	??0D3DXMATRIX@@QAE@XZ				; D3DXMATRIX::D3DXMATRIX
PUBLIC	??0CScreenOverlayManager@@QAE@XZ		; CScreenOverlayManager::CScreenOverlayManager
EXTRN	__RTC_InitBase:NEAR
EXTRN	__RTC_Shutdown:NEAR
EXTRN	__RTC_CheckEsp:NEAR
EXTRN	__fltused:NEAR
EXTRN	_memset:NEAR
EXTRN	?g_matIdent@@3UD3DXMATRIX@@A:BYTE		; g_matIdent
;	COMDAT rtc$IMZ
; File c:\documents and settings\dom\my documents\_dev\ae\xlr8a\x7g\cscreenoverlaymanager.cpp
rtc$IMZ	SEGMENT
__RTC_InitBase.rtc$IMZ DD FLAT:__RTC_InitBase
rtc$IMZ	ENDS
;	COMDAT rtc$TMZ
rtc$TMZ	SEGMENT
__RTC_Shutdown.rtc$TMZ DD FLAT:__RTC_Shutdown
; Function compile flags: /Odt /RTCsu /ZI
rtc$TMZ	ENDS
;	COMDAT ??0CScreenOverlayManager@@QAE@XZ
_TEXT	SEGMENT
_i$85103 = -20
_this$ = -8
??0CScreenOverlayManager@@QAE@XZ PROC NEAR		; CScreenOverlayManager::CScreenOverlayManager, COMDAT
; _this$ = ecx

; 6    : {

  00000	55		 push	 ebp
  00001	8b ec		 mov	 ebp, esp
  00003	81 ec d8 00 00
	00		 sub	 esp, 216		; 000000d8H
  00009	53		 push	 ebx
  0000a	56		 push	 esi
  0000b	57		 push	 edi
  0000c	51		 push	 ecx
  0000d	8d bd 28 ff ff
	ff		 lea	 edi, DWORD PTR [ebp-216]
  00013	b9 36 00 00 00	 mov	 ecx, 54			; 00000036H
  00018	b8 cc cc cc cc	 mov	 eax, -858993460		; ccccccccH
  0001d	f3 ab		 rep stosd
  0001f	59		 pop	 ecx
  00020	89 4d f8	 mov	 DWORD PTR _this$[ebp], ecx
  00023	8b 4d f8	 mov	 ecx, DWORD PTR _this$[ebp]
  00026	81 c1 54 02 00
	00		 add	 ecx, 596		; 00000254H
  0002c	e8 00 00 00 00	 call	 ??0D3DXMATRIX@@QAE@XZ	; D3DXMATRIX::D3DXMATRIX

; 7    : 	m_pVB = NULL ;

  00031	8b 45 f8	 mov	 eax, DWORD PTR _this$[ebp]
  00034	c7 80 00 02 00
	00 00 00 00 00	 mov	 DWORD PTR [eax+512], 0

; 8    : 	m_pIB = NULL ;

  0003e	8b 45 f8	 mov	 eax, DWORD PTR _this$[ebp]
  00041	c7 80 04 02 00
	00 00 00 00 00	 mov	 DWORD PTR [eax+516], 0

; 9    : 	m_pVBVertices = NULL ;

  0004b	8b 45 f8	 mov	 eax, DWORD PTR _this$[ebp]
  0004e	c7 80 94 02 00
	00 00 00 00 00	 mov	 DWORD PTR [eax+660], 0

; 10   : 	m_bVBLocked = FALSE ;

  00058	8b 45 f8	 mov	 eax, DWORD PTR _this$[ebp]
  0005b	c7 80 08 02 00
	00 00 00 00 00	 mov	 DWORD PTR [eax+520], 0

; 11   : 
; 12   : 	m_dwNumOverlays = 0 ;

  00065	8b 45 f8	 mov	 eax, DWORD PTR _this$[ebp]
  00068	c7 80 0c 02 00
	00 00 00 00 00	 mov	 DWORD PTR [eax+524], 0

; 13   : 
; 14   : 	ZeroMemory( &m_mtrlDef, sizeof(D3DMATERIAL8) );

  00072	6a 44		 push	 68			; 00000044H
  00074	6a 00		 push	 0
  00076	8b 45 f8	 mov	 eax, DWORD PTR _this$[ebp]
  00079	05 10 02 00 00	 add	 eax, 528		; 00000210H
  0007e	50		 push	 eax
  0007f	e8 00 00 00 00	 call	 _memset
  00084	83 c4 0c	 add	 esp, 12			; 0000000cH

; 15   : 	m_mtrlDef.Diffuse.r = m_mtrlDef.Ambient.r = 1.0f;

  00087	8b 45 f8	 mov	 eax, DWORD PTR _this$[ebp]
  0008a	c7 80 20 02 00
	00 00 00 80 3f	 mov	 DWORD PTR [eax+544], 1065353216 ; 3f800000H
  00094	8b 4d f8	 mov	 ecx, DWORD PTR _this$[ebp]
  00097	c7 81 10 02 00
	00 00 00 80 3f	 mov	 DWORD PTR [ecx+528], 1065353216 ; 3f800000H

; 16   : 	m_mtrlDef.Diffuse.g = m_mtrlDef.Ambient.g = 1.0f;

  000a1	8b 45 f8	 mov	 eax, DWORD PTR _this$[ebp]
  000a4	c7 80 24 02 00
	00 00 00 80 3f	 mov	 DWORD PTR [eax+548], 1065353216 ; 3f800000H
  000ae	8b 4d f8	 mov	 ecx, DWORD PTR _this$[ebp]
  000b1	c7 81 14 02 00
	00 00 00 80 3f	 mov	 DWORD PTR [ecx+532], 1065353216 ; 3f800000H

; 17   : 	m_mtrlDef.Diffuse.b = m_mtrlDef.Ambient.b = 1.0f;

  000bb	8b 45 f8	 mov	 eax, DWORD PTR _this$[ebp]
  000be	c7 80 28 02 00
	00 00 00 80 3f	 mov	 DWORD PTR [eax+552], 1065353216 ; 3f800000H
  000c8	8b 4d f8	 mov	 ecx, DWORD PTR _this$[ebp]
  000cb	c7 81 18 02 00
	00 00 00 80 3f	 mov	 DWORD PTR [ecx+536], 1065353216 ; 3f800000H

; 18   : 	m_mtrlDef.Diffuse.a = m_mtrlDef.Ambient.a = 1.0f;

  000d5	8b 45 f8	 mov	 eax, DWORD PTR _this$[ebp]
  000d8	c7 80 2c 02 00
	00 00 00 80 3f	 mov	 DWORD PTR [eax+556], 1065353216 ; 3f800000H
  000e2	8b 4d f8	 mov	 ecx, DWORD PTR _this$[ebp]
  000e5	c7 81 1c 02 00
	00 00 00 80 3f	 mov	 DWORD PTR [ecx+540], 1065353216 ; 3f800000H

; 19   : 
; 20   : 	m_matWorldIdent = g_matIdent ;

  000ef	8b 7d f8	 mov	 edi, DWORD PTR _this$[ebp]
  000f2	81 c7 54 02 00
	00		 add	 edi, 596		; 00000254H
  000f8	b9 10 00 00 00	 mov	 ecx, 16			; 00000010H
  000fd	be 00 00 00 00	 mov	 esi, OFFSET FLAT:?g_matIdent@@3UD3DXMATRIX@@A ; g_matIdent
  00102	f3 a5		 rep movsd

; 21   : 
; 22   : 	for( int i = 0 ; i < MAX_OVERLAYS ; i++ )

  00104	c7 45 ec 00 00
	00 00		 mov	 DWORD PTR _i$85103[ebp], 0
  0010b	eb 09		 jmp	 SHORT $L85104
$L85105:
  0010d	8b 45 ec	 mov	 eax, DWORD PTR _i$85103[ebp]
  00110	83 c0 01	 add	 eax, 1
  00113	89 45 ec	 mov	 DWORD PTR _i$85103[ebp], eax
$L85104:
  00116	81 7d ec 80 00
	00 00		 cmp	 DWORD PTR _i$85103[ebp], 128 ; 00000080H
  0011d	7d 0f		 jge	 SHORT $L85101

; 23   : 		m_pOverlays[ i ] = NULL ;

  0011f	8b 45 ec	 mov	 eax, DWORD PTR _i$85103[ebp]
  00122	8b 4d f8	 mov	 ecx, DWORD PTR _this$[ebp]
  00125	c7 04 81 00 00
	00 00		 mov	 DWORD PTR [ecx+eax*4], 0
  0012c	eb df		 jmp	 SHORT $L85105
$L85101:

; 24   : }

  0012e	8b 45 f8	 mov	 eax, DWORD PTR _this$[ebp]
  00131	5f		 pop	 edi
  00132	5e		 pop	 esi
  00133	5b		 pop	 ebx
  00134	81 c4 d8 00 00
	00		 add	 esp, 216		; 000000d8H
  0013a	3b ec		 cmp	 ebp, esp
  0013c	e8 00 00 00 00	 call	 __RTC_CheckEsp
  00141	8b e5		 mov	 esp, ebp
  00143	5d		 pop	 ebp
  00144	c3		 ret	 0
??0CScreenOverlayManager@@QAE@XZ ENDP			; CScreenOverlayManager::CScreenOverlayManager
_TEXT	ENDS
PUBLIC	??1CScreenOverlayManager@@QAE@XZ		; CScreenOverlayManager::~CScreenOverlayManager
; Function compile flags: /Odt /RTCsu /ZI
;	COMDAT ??1CScreenOverlayManager@@QAE@XZ
_TEXT	SEGMENT
_this$ = -8
??1CScreenOverlayManager@@QAE@XZ PROC NEAR		; CScreenOverlayManager::~CScreenOverlayManager, COMDAT
; _this$ = ecx

; 26   : {

  00000	55		 push	 ebp
  00001	8b ec		 mov	 ebp, esp
  00003	81 ec cc 00 00
	00		 sub	 esp, 204		; 000000ccH
  00009	53		 push	 ebx
  0000a	56		 push	 esi
  0000b	57		 push	 edi
  0000c	51		 push	 ecx
  0000d	8d bd 34 ff ff
	ff		 lea	 edi, DWORD PTR [ebp-204]
  00013	b9 33 00 00 00	 mov	 ecx, 51			; 00000033H
  00018	b8 cc cc cc cc	 mov	 eax, -858993460		; ccccccccH
  0001d	f3 ab		 rep stosd
  0001f	59		 pop	 ecx
  00020	89 4d f8	 mov	 DWORD PTR _this$[ebp], ecx

; 27   : }

  00023	5f		 pop	 edi
  00024	5e		 pop	 esi
  00025	5b		 pop	 ebx
  00026	8b e5		 mov	 esp, ebp
  00028	5d		 pop	 ebp
  00029	c3		 ret	 0
??1CScreenOverlayManager@@QAE@XZ ENDP			; CScreenOverlayManager::~CScreenOverlayManager
_TEXT	ENDS
PUBLIC	?RegisterNewOverlay@CScreenOverlayManager@@QAEHPAVCScreenOverlay@@@Z ; CScreenOverlayManager::RegisterNewOverlay
PUBLIC	?__LINE__Var@?1??RegisterNewOverlay@CScreenOverlayManager@@QAEHPAVCScreenOverlay@@@Z@4JA ; `CScreenOverlayManager::RegisterNewOverlay'::`2'::__LINE__Var
PUBLIC	??_C@_0FH@KCMNJALG@c?3?2documents?5and?5settings?2dom?2my@ ; `string'
PUBLIC	??_C@_0BP@KPDKNGBM@m_dwNumOverlays?5?$DM?5MAX_OVERLAYS?$AA@ ; `string'
EXTRN	__assert:NEAR
;	COMDAT ?__LINE__Var@?1??RegisterNewOverlay@CScreenOverlayManager@@QAEHPAVCScreenOverlay@@@Z@4JA
_DATA	SEGMENT
?__LINE__Var@?1??RegisterNewOverlay@CScreenOverlayManager@@QAEHPAVCScreenOverlay@@@Z@4JA DD 01eH ; `CScreenOverlayManager::RegisterNewOverlay'::`2'::__LINE__Var
_DATA	ENDS
;	COMDAT ??_C@_0FH@KCMNJALG@c?3?2documents?5and?5settings?2dom?2my@
CONST	SEGMENT
??_C@_0FH@KCMNJALG@c?3?2documents?5and?5settings?2dom?2my@ DB 'c:\documen'
	DB	'ts and settings\dom\my documents\_dev\ae\xlr8a\x7g\cscreenove'
	DB	'rlaymanager.cpp', 00H			; `string'
CONST	ENDS
;	COMDAT ??_C@_0BP@KPDKNGBM@m_dwNumOverlays?5?$DM?5MAX_OVERLAYS?$AA@
CONST	SEGMENT
??_C@_0BP@KPDKNGBM@m_dwNumOverlays?5?$DM?5MAX_OVERLAYS?$AA@ DB 'm_dwNumOv'
	DB	'erlays < MAX_OVERLAYS', 00H			; `string'
; Function compile flags: /Odt /RTCsu /ZI
CONST	ENDS
;	COMDAT ?RegisterNewOverlay@CScreenOverlayManager@@QAEHPAVCScreenOverlay@@@Z
_TEXT	SEGMENT
_this$ = -8
_pOverlay$ = 8
?RegisterNewOverlay@CScreenOverlayManager@@QAEHPAVCScreenOverlay@@@Z PROC NEAR ; CScreenOverlayManager::RegisterNewOverlay, COMDAT
; _this$ = ecx

; 30   : {

  00000	55		 push	 ebp
  00001	8b ec		 mov	 ebp, esp
  00003	81 ec cc 00 00
	00		 sub	 esp, 204		; 000000ccH
  00009	53		 push	 ebx
  0000a	56		 push	 esi
  0000b	57		 push	 edi
  0000c	51		 push	 ecx
  0000d	8d bd 34 ff ff
	ff		 lea	 edi, DWORD PTR [ebp-204]
  00013	b9 33 00 00 00	 mov	 ecx, 51			; 00000033H
  00018	b8 cc cc cc cc	 mov	 eax, -858993460		; ccccccccH
  0001d	f3 ab		 rep stosd
  0001f	59		 pop	 ecx
  00020	89 4d f8	 mov	 DWORD PTR _this$[ebp], ecx

; 31   : 	pOverlay->m_dwIndexOffset = (m_dwNumOverlays+1) * 4 ;

  00023	8b 45 f8	 mov	 eax, DWORD PTR _this$[ebp]
  00026	8b 88 0c 02 00
	00		 mov	 ecx, DWORD PTR [eax+524]
  0002c	8d 14 8d 04 00
	00 00		 lea	 edx, DWORD PTR [ecx*4+4]
  00033	8b 45 08	 mov	 eax, DWORD PTR _pOverlay$[ebp]
  00036	89 50 08	 mov	 DWORD PTR [eax+8], edx

; 32   : 
; 33   : 	m_pOverlays[ m_dwNumOverlays ] = pOverlay ;

  00039	8b 45 f8	 mov	 eax, DWORD PTR _this$[ebp]
  0003c	8b 88 0c 02 00
	00		 mov	 ecx, DWORD PTR [eax+524]
  00042	8b 55 f8	 mov	 edx, DWORD PTR _this$[ebp]
  00045	8b 45 08	 mov	 eax, DWORD PTR _pOverlay$[ebp]
  00048	89 04 8a	 mov	 DWORD PTR [edx+ecx*4], eax

; 34   : 	m_dwNumOverlays++ ;

  0004b	8b 45 f8	 mov	 eax, DWORD PTR _this$[ebp]
  0004e	8b 88 0c 02 00
	00		 mov	 ecx, DWORD PTR [eax+524]
  00054	83 c1 01	 add	 ecx, 1
  00057	8b 55 f8	 mov	 edx, DWORD PTR _this$[ebp]
  0005a	89 8a 0c 02 00
	00		 mov	 DWORD PTR [edx+524], ecx

; 35   : 
; 36   : 	assert( m_dwNumOverlays < MAX_OVERLAYS );

  00060	8b 45 f8	 mov	 eax, DWORD PTR _this$[ebp]
  00063	81 b8 0c 02 00
	00 80 00 00 00	 cmp	 DWORD PTR [eax+524], 128 ; 00000080H
  0006d	72 1c		 jb	 SHORT $L85113
  0006f	8b 0d 00 00 00
	00		 mov	 ecx, DWORD PTR ?__LINE__Var@?1??RegisterNewOverlay@CScreenOverlayManager@@QAEHPAVCScreenOverlay@@@Z@4JA
  00075	83 c1 06	 add	 ecx, 6
  00078	51		 push	 ecx
  00079	68 00 00 00 00	 push	 OFFSET FLAT:??_C@_0FH@KCMNJALG@c?3?2documents?5and?5settings?2dom?2my@
  0007e	68 00 00 00 00	 push	 OFFSET FLAT:??_C@_0BP@KPDKNGBM@m_dwNumOverlays?5?$DM?5MAX_OVERLAYS?$AA@
  00083	e8 00 00 00 00	 call	 __assert
  00088	83 c4 0c	 add	 esp, 12			; 0000000cH
$L85113:

; 37   : }

  0008b	5f		 pop	 edi
  0008c	5e		 pop	 esi
  0008d	5b		 pop	 ebx
  0008e	81 c4 cc 00 00
	00		 add	 esp, 204		; 000000ccH
  00094	3b ec		 cmp	 ebp, esp
  00096	e8 00 00 00 00	 call	 __RTC_CheckEsp
  0009b	8b e5		 mov	 esp, ebp
  0009d	5d		 pop	 ebp
  0009e	c2 04 00	 ret	 4
?RegisterNewOverlay@CScreenOverlayManager@@QAEHPAVCScreenOverlay@@@Z ENDP ; CScreenOverlayManager::RegisterNewOverlay
_TEXT	ENDS
PUBLIC	?RestoreDeviceObjects@CScreenOverlayManager@@QAEJPAUIDirect3DDevice8@@M@Z ; CScreenOverlayManager::RestoreDeviceObjects
PUBLIC	??_C@_0CN@ONLJMEB@CScreenOverlayManager?3?3RestoreDe@ ; `string'
EXTRN	?ods@@YAXPADZZ:NEAR				; ods
;	COMDAT ??_C@_0CN@ONLJMEB@CScreenOverlayManager?3?3RestoreDe@
CONST	SEGMENT
??_C@_0CN@ONLJMEB@CScreenOverlayManager?3?3RestoreDe@ DB 'CScreenOverlayM'
	DB	'anager::RestoreDeviceObjects', 0aH, 00H	; `string'
; Function compile flags: /Odt /RTCsu /ZI
CONST	ENDS
;	COMDAT ?RestoreDeviceObjects@CScreenOverlayManager@@QAEJPAUIDirect3DDevice8@@M@Z
_TEXT	SEGMENT
_i$85129 = -32
_hr$ = -20
_this$ = -8
_pDev$ = 8
_fAspect$ = 12
?RestoreDeviceObjects@CScreenOverlayManager@@QAEJPAUIDirect3DDevice8@@M@Z PROC NEAR ; CScreenOverlayManager::RestoreDeviceObjects, COMDAT
; _this$ = ecx

; 53   : {

  00000	55		 push	 ebp
  00001	8b ec		 mov	 ebp, esp
  00003	81 ec e4 00 00
	00		 sub	 esp, 228		; 000000e4H
  00009	53		 push	 ebx
  0000a	56		 push	 esi
  0000b	57		 push	 edi
  0000c	51		 push	 ecx
  0000d	8d bd 1c ff ff
	ff		 lea	 edi, DWORD PTR [ebp-228]
  00013	b9 39 00 00 00	 mov	 ecx, 57			; 00000039H
  00018	b8 cc cc cc cc	 mov	 eax, -858993460		; ccccccccH
  0001d	f3 ab		 rep stosd
  0001f	59		 pop	 ecx
  00020	89 4d f8	 mov	 DWORD PTR _this$[ebp], ecx

; 54   : 	ods( "CScreenOverlayManager::RestoreDeviceObjects\n" );

  00023	68 00 00 00 00	 push	 OFFSET FLAT:??_C@_0CN@ONLJMEB@CScreenOverlayManager?3?3RestoreDe@
  00028	e8 00 00 00 00	 call	 ?ods@@YAXPADZZ		; ods
  0002d	83 c4 04	 add	 esp, 4

; 55   : 
; 56   : //
; 57   : // Create common VB:
; 58   : //
; 59   : 	HRESULT hr ;
; 60   :     hr = pDev->CreateVertexBuffer( MAX_OMVB_VERTS*sizeof(OVERLAYVERTEX),
; 61   :                                    D3DUSAGE_WRITEONLY,
; 62   : 								   D3DFVF_OVERLAYVERTEX,
; 63   :                                    D3DPOOL_MANAGED,
; 64   : 								   &m_pVB );

  00030	8b 45 f8	 mov	 eax, DWORD PTR _this$[ebp]
  00033	05 00 02 00 00	 add	 eax, 512		; 00000200H
  00038	8b f4		 mov	 esi, esp
  0003a	50		 push	 eax
  0003b	6a 01		 push	 1
  0003d	68 42 01 00 00	 push	 322			; 00000142H
  00042	6a 08		 push	 8
  00044	68 00 30 00 00	 push	 12288			; 00003000H
  00049	8b 4d 08	 mov	 ecx, DWORD PTR _pDev$[ebp]
  0004c	8b 11		 mov	 edx, DWORD PTR [ecx]
  0004e	8b 45 08	 mov	 eax, DWORD PTR _pDev$[ebp]
  00051	50		 push	 eax
  00052	ff 52 5c	 call	 DWORD PTR [edx+92]
  00055	3b f4		 cmp	 esi, esp
  00057	e8 00 00 00 00	 call	 __RTC_CheckEsp
  0005c	89 45 ec	 mov	 DWORD PTR _hr$[ebp], eax

; 65   :     if( FAILED(hr) )

  0005f	83 7d ec 00	 cmp	 DWORD PTR _hr$[ebp], 0
  00063	7d 0a		 jge	 SHORT $L85127

; 66   :         return E_FAIL ;

  00065	b8 05 40 00 80	 mov	 eax, -2147467259	; 80004005H
  0006a	e9 96 00 00 00	 jmp	 $L85122
$L85127:

; 67   : 	
; 68   : 	m_bVBLocked = FALSE ;

  0006f	8b 45 f8	 mov	 eax, DWORD PTR _this$[ebp]
  00072	c7 80 08 02 00
	00 00 00 00 00	 mov	 DWORD PTR [eax+520], 0

; 69   : 
; 70   : //
; 71   : // Create the IB:
; 72   : //
; 73   : 	/*hr = pDev->CreateIndexBuffer( sizeof(WORD) * MAX_OVERLAYS * 3,
; 74   : 								  D3DUSAGE_DYNAMIC | D3DUSAGE_WRITEONLY,
; 75   : 								  D3DFMT_INDEX16,
; 76   : 								  D3DPOOL_DEFAULT,
; 77   : 								  &m_pIB );
; 78   : 	if( FAILED(hr) )
; 79   :         return E_FAIL ;*/
; 80   : 
; 81   : //
; 82   : // Restore managed overlays:
; 83   : //
; 84   : 	for (DWORD i = 0 ; i < m_dwNumOverlays ; i ++)

  0007c	c7 45 e0 00 00
	00 00		 mov	 DWORD PTR _i$85129[ebp], 0
  00083	eb 09		 jmp	 SHORT $L85130
$L85131:
  00085	8b 45 e0	 mov	 eax, DWORD PTR _i$85129[ebp]
  00088	83 c0 01	 add	 eax, 1
  0008b	89 45 e0	 mov	 DWORD PTR _i$85129[ebp], eax
$L85130:
  0008e	8b 45 f8	 mov	 eax, DWORD PTR _this$[ebp]
  00091	8b 4d e0	 mov	 ecx, DWORD PTR _i$85129[ebp]
  00094	3b 88 0c 02 00
	00		 cmp	 ecx, DWORD PTR [eax+524]
  0009a	73 67		 jae	 SHORT $L85132

; 85   : 	{
; 86   : 		if( m_pOverlays[ i ] )

  0009c	8b 45 e0	 mov	 eax, DWORD PTR _i$85129[ebp]
  0009f	8b 4d f8	 mov	 ecx, DWORD PTR _this$[ebp]
  000a2	83 3c 81 00	 cmp	 DWORD PTR [ecx+eax*4], 0
  000a6	74 59		 je	 SHORT $L85133

; 87   : 		{
; 88   : 			m_pOverlays[i]->m_pSharedVB = m_pVB ;

  000a8	8b 45 e0	 mov	 eax, DWORD PTR _i$85129[ebp]
  000ab	8b 4d f8	 mov	 ecx, DWORD PTR _this$[ebp]
  000ae	8b 14 81	 mov	 edx, DWORD PTR [ecx+eax*4]
  000b1	8b 45 f8	 mov	 eax, DWORD PTR _this$[ebp]
  000b4	8b 88 00 02 00
	00		 mov	 ecx, DWORD PTR [eax+512]
  000ba	89 4a 04	 mov	 DWORD PTR [edx+4], ecx

; 89   : 			m_bVBLocked = TRUE ;

  000bd	8b 45 f8	 mov	 eax, DWORD PTR _this$[ebp]
  000c0	c7 80 08 02 00
	00 01 00 00 00	 mov	 DWORD PTR [eax+520], 1

; 90   : 			m_pOverlays[i]->RestoreDeviceObjects( pDev, fAspect );

  000ca	8b f4		 mov	 esi, esp
  000cc	8b 45 0c	 mov	 eax, DWORD PTR _fAspect$[ebp]
  000cf	50		 push	 eax
  000d0	8b 4d 08	 mov	 ecx, DWORD PTR _pDev$[ebp]
  000d3	51		 push	 ecx
  000d4	8b 55 e0	 mov	 edx, DWORD PTR _i$85129[ebp]
  000d7	8b 45 f8	 mov	 eax, DWORD PTR _this$[ebp]
  000da	8b 0c 90	 mov	 ecx, DWORD PTR [eax+edx*4]
  000dd	8b 55 e0	 mov	 edx, DWORD PTR _i$85129[ebp]
  000e0	8b 45 f8	 mov	 eax, DWORD PTR _this$[ebp]
  000e3	8b 14 90	 mov	 edx, DWORD PTR [eax+edx*4]
  000e6	8b 01		 mov	 eax, DWORD PTR [ecx]
  000e8	8b ca		 mov	 ecx, edx
  000ea	ff 50 04	 call	 DWORD PTR [eax+4]
  000ed	3b f4		 cmp	 esi, esp
  000ef	e8 00 00 00 00	 call	 __RTC_CheckEsp

; 91   : 			m_bVBLocked = FALSE ;

  000f4	8b 45 f8	 mov	 eax, DWORD PTR _this$[ebp]
  000f7	c7 80 08 02 00
	00 00 00 00 00	 mov	 DWORD PTR [eax+520], 0
$L85133:

; 92   : 		}
; 93   : 	}

  00101	eb 82		 jmp	 SHORT $L85131
$L85132:

; 94   : 
; 95   : 	return S_OK ;

  00103	33 c0		 xor	 eax, eax
$L85122:

; 96   : }

  00105	5f		 pop	 edi
  00106	5e		 pop	 esi
  00107	5b		 pop	 ebx
  00108	81 c4 e4 00 00
	00		 add	 esp, 228		; 000000e4H
  0010e	3b ec		 cmp	 ebp, esp
  00110	e8 00 00 00 00	 call	 __RTC_CheckEsp
  00115	8b e5		 mov	 esp, ebp
  00117	5d		 pop	 ebp
  00118	c2 08 00	 ret	 8
?RestoreDeviceObjects@CScreenOverlayManager@@QAEJPAUIDirect3DDevice8@@M@Z ENDP ; CScreenOverlayManager::RestoreDeviceObjects
_TEXT	ENDS
PUBLIC	?SetProjMat@CScreenOverlayManager@@QAEXPAUIDirect3DDevice8@@@Z ; CScreenOverlayManager::SetProjMat
PUBLIC	__real@43340000
PUBLIC	_sinf
PUBLIC	_sqrtf
PUBLIC	??0D3DXVECTOR3@@QAE@XZ				; D3DXVECTOR3::D3DXVECTOR3
PUBLIC	??0D3DXVECTOR3@@QAE@MMM@Z			; D3DXVECTOR3::D3DXVECTOR3
EXTRN	@_RTC_CheckStackVars@8:NEAR
EXTRN	_D3DXMatrixLookAtLH@16:NEAR
;	COMDAT __real@43340000
CONST	SEGMENT
__real@43340000 DD 043340000r			; 180
; Function compile flags: /Odt /RTCsu /ZI
CONST	ENDS
;	COMDAT ?SetProjMat@CScreenOverlayManager@@QAEXPAUIDirect3DDevice8@@@Z
_TEXT	SEGMENT
$T85277 = -468
$T85276 = -448
$T85275 = -428
_r$ = -216
_h$ = -204
_x$ = -192
_c$ = -180
_b$ = -168
_a$ = -156
_matView$ = -144
_vUp$ = -68
_vLookAtPt$ = -48
_vEyePt$ = -28
_this$ = -8
_pDev$ = 8
?SetProjMat@CScreenOverlayManager@@QAEXPAUIDirect3DDevice8@@@Z PROC NEAR ; CScreenOverlayManager::SetProjMat, COMDAT
; _this$ = ecx

; 99   : {

  00000	55		 push	 ebp
  00001	8b ec		 mov	 ebp, esp
  00003	81 ec d8 01 00
	00		 sub	 esp, 472		; 000001d8H
  00009	53		 push	 ebx
  0000a	56		 push	 esi
  0000b	57		 push	 edi
  0000c	51		 push	 ecx
  0000d	8d bd 28 fe ff
	ff		 lea	 edi, DWORD PTR [ebp-472]
  00013	b9 76 00 00 00	 mov	 ecx, 118		; 00000076H
  00018	b8 cc cc cc cc	 mov	 eax, -858993460		; ccccccccH
  0001d	f3 ab		 rep stosd
  0001f	59		 pop	 ecx
  00020	89 4d f8	 mov	 DWORD PTR _this$[ebp], ecx

; 100  : //
; 101  : // Set View Matrix for Overlays (assumes 45deg. FOV)
; 102  : //
; 103  : 	xVec3 vEyePt, vLookAtPt, vUp ;

  00023	8d 4d e4	 lea	 ecx, DWORD PTR _vEyePt$[ebp]
  00026	e8 00 00 00 00	 call	 ??0D3DXVECTOR3@@QAE@XZ	; D3DXVECTOR3::D3DXVECTOR3
  0002b	8d 4d d0	 lea	 ecx, DWORD PTR _vLookAtPt$[ebp]
  0002e	e8 00 00 00 00	 call	 ??0D3DXVECTOR3@@QAE@XZ	; D3DXVECTOR3::D3DXVECTOR3
  00033	8d 4d bc	 lea	 ecx, DWORD PTR _vUp$[ebp]
  00036	e8 00 00 00 00	 call	 ??0D3DXVECTOR3@@QAE@XZ	; D3DXVECTOR3::D3DXVECTOR3

; 104  : 	xMat  matView ;

  0003b	8d 8d 70 ff ff
	ff		 lea	 ecx, DWORD PTR _matView$[ebp]
  00041	e8 00 00 00 00	 call	 ??0D3DXMATRIX@@QAE@XZ	; D3DXMATRIX::D3DXMATRIX

; 105  : 	float a = 90.0f ;

  00046	c7 85 64 ff ff
	ff 00 00 b4 42	 mov	 DWORD PTR _a$[ebp], 1119092736 ; 42b40000H

; 106  : 	float b = 45.0f / 2.0f ;

  00050	c7 85 58 ff ff
	ff 00 00 b4 41	 mov	 DWORD PTR _b$[ebp], 1102315520 ; 41b40000H

; 107  : 	float c = 180.0f - a - b ;

  0005a	d9 05 00 00 00
	00		 fld	 DWORD PTR __real@43340000
  00060	d8 a5 64 ff ff
	ff		 fsub	 DWORD PTR _a$[ebp]
  00066	d8 a5 58 ff ff
	ff		 fsub	 DWORD PTR _b$[ebp]
  0006c	d9 9d 4c ff ff
	ff		 fstp	 DWORD PTR _c$[ebp]

; 108  : 	float x = 1.0f / 2.0f ;

  00072	c7 85 40 ff ff
	ff 00 00 00 3f	 mov	 DWORD PTR _x$[ebp], 1056964608 ; 3f000000H

; 109  : 	float h = x / sinf(b * g_DEGTORAD) ;

  0007c	d9 85 58 ff ff
	ff		 fld	 DWORD PTR _b$[ebp]
  00082	d8 0d 00 00 00
	00		 fmul	 DWORD PTR _g_DEGTORAD
  00088	51		 push	 ecx
  00089	d9 1c 24	 fstp	 DWORD PTR [esp]
  0008c	e8 00 00 00 00	 call	 _sinf
  00091	83 c4 04	 add	 esp, 4
  00094	d8 bd 40 ff ff
	ff		 fdivr	 DWORD PTR _x$[ebp]
  0009a	d9 9d 34 ff ff
	ff		 fstp	 DWORD PTR _h$[ebp]

; 110  : 	float r = sqrtf((h * h) - (x * x)) ;

  000a0	d9 85 34 ff ff
	ff		 fld	 DWORD PTR _h$[ebp]
  000a6	d8 8d 34 ff ff
	ff		 fmul	 DWORD PTR _h$[ebp]
  000ac	d9 85 40 ff ff
	ff		 fld	 DWORD PTR _x$[ebp]
  000b2	d8 8d 40 ff ff
	ff		 fmul	 DWORD PTR _x$[ebp]
  000b8	de e9		 fsubp	 ST(1), ST(0)
  000ba	51		 push	 ecx
  000bb	d9 1c 24	 fstp	 DWORD PTR [esp]
  000be	e8 00 00 00 00	 call	 _sqrtf
  000c3	83 c4 04	 add	 esp, 4
  000c6	d9 9d 28 ff ff
	ff		 fstp	 DWORD PTR _r$[ebp]

; 111  : 	vEyePt = xVec3(0.0f, 0.0f, -r) ;

  000cc	d9 85 28 ff ff
	ff		 fld	 DWORD PTR _r$[ebp]
  000d2	d9 e0		 fchs
  000d4	51		 push	 ecx
  000d5	d9 1c 24	 fstp	 DWORD PTR [esp]
  000d8	6a 00		 push	 0
  000da	6a 00		 push	 0
  000dc	8d 8d 54 fe ff
	ff		 lea	 ecx, DWORD PTR $T85275[ebp]
  000e2	e8 00 00 00 00	 call	 ??0D3DXVECTOR3@@QAE@MMM@Z ; D3DXVECTOR3::D3DXVECTOR3
  000e7	8b 08		 mov	 ecx, DWORD PTR [eax]
  000e9	89 4d e4	 mov	 DWORD PTR _vEyePt$[ebp], ecx
  000ec	8b 50 04	 mov	 edx, DWORD PTR [eax+4]
  000ef	89 55 e8	 mov	 DWORD PTR _vEyePt$[ebp+4], edx
  000f2	8b 40 08	 mov	 eax, DWORD PTR [eax+8]
  000f5	89 45 ec	 mov	 DWORD PTR _vEyePt$[ebp+8], eax

; 112  : 	vLookAtPt = xVec3(0.0f, 0.0f, 0.0f) ;

  000f8	6a 00		 push	 0
  000fa	6a 00		 push	 0
  000fc	6a 00		 push	 0
  000fe	8d 8d 40 fe ff
	ff		 lea	 ecx, DWORD PTR $T85276[ebp]
  00104	e8 00 00 00 00	 call	 ??0D3DXVECTOR3@@QAE@MMM@Z ; D3DXVECTOR3::D3DXVECTOR3
  00109	8b 08		 mov	 ecx, DWORD PTR [eax]
  0010b	89 4d d0	 mov	 DWORD PTR _vLookAtPt$[ebp], ecx
  0010e	8b 50 04	 mov	 edx, DWORD PTR [eax+4]
  00111	89 55 d4	 mov	 DWORD PTR _vLookAtPt$[ebp+4], edx
  00114	8b 40 08	 mov	 eax, DWORD PTR [eax+8]
  00117	89 45 d8	 mov	 DWORD PTR _vLookAtPt$[ebp+8], eax

; 113  : 	vUp = xVec3(0.0f, 1.0f, 0.0f) ;

  0011a	6a 00		 push	 0
  0011c	68 00 00 80 3f	 push	 1065353216		; 3f800000H
  00121	6a 00		 push	 0
  00123	8d 8d 2c fe ff
	ff		 lea	 ecx, DWORD PTR $T85277[ebp]
  00129	e8 00 00 00 00	 call	 ??0D3DXVECTOR3@@QAE@MMM@Z ; D3DXVECTOR3::D3DXVECTOR3
  0012e	8b 08		 mov	 ecx, DWORD PTR [eax]
  00130	89 4d bc	 mov	 DWORD PTR _vUp$[ebp], ecx
  00133	8b 50 04	 mov	 edx, DWORD PTR [eax+4]
  00136	89 55 c0	 mov	 DWORD PTR _vUp$[ebp+4], edx
  00139	8b 40 08	 mov	 eax, DWORD PTR [eax+8]
  0013c	89 45 c4	 mov	 DWORD PTR _vUp$[ebp+8], eax

; 114  : 	D3DXMatrixLookAtLH(&matView, &vEyePt, &vLookAtPt, &vUp) ;

  0013f	8d 45 bc	 lea	 eax, DWORD PTR _vUp$[ebp]
  00142	50		 push	 eax
  00143	8d 4d d0	 lea	 ecx, DWORD PTR _vLookAtPt$[ebp]
  00146	51		 push	 ecx
  00147	8d 55 e4	 lea	 edx, DWORD PTR _vEyePt$[ebp]
  0014a	52		 push	 edx
  0014b	8d 85 70 ff ff
	ff		 lea	 eax, DWORD PTR _matView$[ebp]
  00151	50		 push	 eax
  00152	e8 00 00 00 00	 call	 _D3DXMatrixLookAtLH@16

; 115  : 	pDev->SetTransform(D3DTS_VIEW, &matView) ;

  00157	8b f4		 mov	 esi, esp
  00159	8d 85 70 ff ff
	ff		 lea	 eax, DWORD PTR _matView$[ebp]
  0015f	50		 push	 eax
  00160	6a 02		 push	 2
  00162	8b 4d 08	 mov	 ecx, DWORD PTR _pDev$[ebp]
  00165	8b 11		 mov	 edx, DWORD PTR [ecx]
  00167	8b 45 08	 mov	 eax, DWORD PTR _pDev$[ebp]
  0016a	50		 push	 eax
  0016b	ff 92 94 00 00
	00		 call	 DWORD PTR [edx+148]
  00171	3b f4		 cmp	 esi, esp
  00173	e8 00 00 00 00	 call	 __RTC_CheckEsp

; 116  : }

  00178	52		 push	 edx
  00179	8b cd		 mov	 ecx, ebp
  0017b	50		 push	 eax
  0017c	8d 15 00 00 00
	00		 lea	 edx, DWORD PTR $L85285
  00182	e8 00 00 00 00	 call	 @_RTC_CheckStackVars@8
  00187	58		 pop	 eax
  00188	5a		 pop	 edx
  00189	5f		 pop	 edi
  0018a	5e		 pop	 esi
  0018b	5b		 pop	 ebx
  0018c	81 c4 d8 01 00
	00		 add	 esp, 472		; 000001d8H
  00192	3b ec		 cmp	 ebp, esp
  00194	e8 00 00 00 00	 call	 __RTC_CheckEsp
  00199	8b e5		 mov	 esp, ebp
  0019b	5d		 pop	 ebp
  0019c	c2 04 00	 ret	 4
$L85285:
  0019f	04 00 00 00	 DD	 4
  001a3	00 00 00 00	 DD	 $L85284
$L85284:
  001a7	e4 ff ff ff	 DD	 -28			; ffffffe4H
  001ab	0c 00 00 00	 DD	 12			; 0000000cH
  001af	00 00 00 00	 DD	 $L85280
  001b3	d0 ff ff ff	 DD	 -48			; ffffffd0H
  001b7	0c 00 00 00	 DD	 12			; 0000000cH
  001bb	00 00 00 00	 DD	 $L85281
  001bf	bc ff ff ff	 DD	 -68			; ffffffbcH
  001c3	0c 00 00 00	 DD	 12			; 0000000cH
  001c7	00 00 00 00	 DD	 $L85282
  001cb	70 ff ff ff	 DD	 -144			; ffffff70H
  001cf	40 00 00 00	 DD	 64			; 00000040H
  001d3	00 00 00 00	 DD	 $L85283
$L85283:
  001d7	6d		 DB	 109			; 0000006dH
  001d8	61		 DB	 97			; 00000061H
  001d9	74		 DB	 116			; 00000074H
  001da	56		 DB	 86			; 00000056H
  001db	69		 DB	 105			; 00000069H
  001dc	65		 DB	 101			; 00000065H
  001dd	77		 DB	 119			; 00000077H
  001de	00		 DB	 0
$L85282:
  001df	76		 DB	 118			; 00000076H
  001e0	55		 DB	 85			; 00000055H
  001e1	70		 DB	 112			; 00000070H
  001e2	00		 DB	 0
$L85281:
  001e3	76		 DB	 118			; 00000076H
  001e4	4c		 DB	 76			; 0000004cH
  001e5	6f		 DB	 111			; 0000006fH
  001e6	6f		 DB	 111			; 0000006fH
  001e7	6b		 DB	 107			; 0000006bH
  001e8	41		 DB	 65			; 00000041H
  001e9	74		 DB	 116			; 00000074H
  001ea	50		 DB	 80			; 00000050H
  001eb	74		 DB	 116			; 00000074H
  001ec	00		 DB	 0
$L85280:
  001ed	76		 DB	 118			; 00000076H
  001ee	45		 DB	 69			; 00000045H
  001ef	79		 DB	 121			; 00000079H
  001f0	65		 DB	 101			; 00000065H
  001f1	50		 DB	 80			; 00000050H
  001f2	74		 DB	 116			; 00000074H
  001f3	00		 DB	 0
?SetProjMat@CScreenOverlayManager@@QAEXPAUIDirect3DDevice8@@@Z ENDP ; CScreenOverlayManager::SetProjMat
_TEXT	ENDS
PUBLIC	?Render@CScreenOverlayManager@@QAEJPAUIDirect3DDevice8@@HH@Z ; CScreenOverlayManager::Render
PUBLIC	?__LINE__Var@?1??Render@CScreenOverlayManager@@QAEJPAUIDirect3DDevice8@@HH@Z@4JA ; `CScreenOverlayManager::Render'::`2'::__LINE__Var
PUBLIC	??_C@_0L@CJJJJEMF@hr?$DN?$DND3D_OK?$AA@		; `string'
;	COMDAT ?__LINE__Var@?1??Render@CScreenOverlayManager@@QAEJPAUIDirect3DDevice8@@HH@Z@4JA
_DATA	SEGMENT
?__LINE__Var@?1??Render@CScreenOverlayManager@@QAEJPAUIDirect3DDevice8@@HH@Z@4JA DD 077H ; `CScreenOverlayManager::Render'::`2'::__LINE__Var
_DATA	ENDS
;	COMDAT ??_C@_0L@CJJJJEMF@hr?$DN?$DND3D_OK?$AA@
CONST	SEGMENT
??_C@_0L@CJJJJEMF@hr?$DN?$DND3D_OK?$AA@ DB 'hr==D3D_OK', 00H ; `string'
; Function compile flags: /Odt /RTCsu /ZI
CONST	ENDS
;	COMDAT ?Render@CScreenOverlayManager@@QAEJPAUIDirect3DDevice8@@HH@Z
_TEXT	SEGMENT
_i$85163 = -32
_hr$ = -20
_this$ = -8
_pDev$ = 8
_nTag$ = 12
_nMethod$ = 16
?Render@CScreenOverlayManager@@QAEJPAUIDirect3DDevice8@@HH@Z PROC NEAR ; CScreenOverlayManager::Render, COMDAT
; _this$ = ecx

; 119  : {

  00000	55		 push	 ebp
  00001	8b ec		 mov	 ebp, esp
  00003	81 ec e4 00 00
	00		 sub	 esp, 228		; 000000e4H
  00009	53		 push	 ebx
  0000a	56		 push	 esi
  0000b	57		 push	 edi
  0000c	51		 push	 ecx
  0000d	8d bd 1c ff ff
	ff		 lea	 edi, DWORD PTR [ebp-228]
  00013	b9 39 00 00 00	 mov	 ecx, 57			; 00000039H
  00018	b8 cc cc cc cc	 mov	 eax, -858993460		; ccccccccH
  0001d	f3 ab		 rep stosd
  0001f	59		 pop	 ecx
  00020	89 4d f8	 mov	 DWORD PTR _this$[ebp], ecx

; 120  : 	HRESULT hr ;
; 121  : 	
; 122  : 	if(	m_bVBLocked )

  00023	8b 45 f8	 mov	 eax, DWORD PTR _this$[ebp]
  00026	83 b8 08 02 00
	00 00		 cmp	 DWORD PTR [eax+520], 0
  0002d	74 07		 je	 SHORT $L85159

; 123  : 		return S_OK ;

  0002f	33 c0		 xor	 eax, eax
  00031	e9 47 01 00 00	 jmp	 $L85157
$L85159:

; 124  : 
; 125  : 	//pDev->SetMaterial(&m_mtrlDef) ;
; 126  : 	//pDev->SetRenderState( D3DRS_ZFUNC, D3DCMP_ALWAYS );
; 127  : 
; 128  : 	pDev->SetVertexShader( D3DFVF_OVERLAYVERTEX );

  00036	8b f4		 mov	 esi, esp
  00038	68 42 01 00 00	 push	 322			; 00000142H
  0003d	8b 45 08	 mov	 eax, DWORD PTR _pDev$[ebp]
  00040	8b 08		 mov	 ecx, DWORD PTR [eax]
  00042	8b 55 08	 mov	 edx, DWORD PTR _pDev$[ebp]
  00045	52		 push	 edx
  00046	ff 91 30 01 00
	00		 call	 DWORD PTR [ecx+304]
  0004c	3b f4		 cmp	 esi, esp
  0004e	e8 00 00 00 00	 call	 __RTC_CheckEsp

; 129  : 	pDev->SetStreamSource( 0, m_pVB, sizeof(OVERLAYVERTEX) );

  00053	8b f4		 mov	 esi, esp
  00055	6a 18		 push	 24			; 00000018H
  00057	8b 45 f8	 mov	 eax, DWORD PTR _this$[ebp]
  0005a	8b 88 00 02 00
	00		 mov	 ecx, DWORD PTR [eax+512]
  00060	51		 push	 ecx
  00061	6a 00		 push	 0
  00063	8b 55 08	 mov	 edx, DWORD PTR _pDev$[ebp]
  00066	8b 02		 mov	 eax, DWORD PTR [edx]
  00068	8b 4d 08	 mov	 ecx, DWORD PTR _pDev$[ebp]
  0006b	51		 push	 ecx
  0006c	ff 90 4c 01 00
	00		 call	 DWORD PTR [eax+332]
  00072	3b f4		 cmp	 esi, esp
  00074	e8 00 00 00 00	 call	 __RTC_CheckEsp

; 130  : 
; 131  : //
; 132  : // Render managed overlays:
; 133  : //
; 134  : 
; 135  : // method A; multiple DrawPrimitive. Sloooowwww.
; 136  : // always render with this method;
; 137  : 	if( 1 /*nMethod == eDrawSlow*/ )

  00079	b8 01 00 00 00	 mov	 eax, 1
  0007e	85 c0		 test	 eax, eax
  00080	0f 84 f5 00 00
	00		 je	 $done$85170

; 138  : 	{
; 139  : 		for( DWORD i = 0 ; i < m_dwNumOverlays ; i ++ )

  00086	c7 45 e0 00 00
	00 00		 mov	 DWORD PTR _i$85163[ebp], 0
  0008d	eb 09		 jmp	 SHORT $L85164
$L85165:
  0008f	8b 45 e0	 mov	 eax, DWORD PTR _i$85163[ebp]
  00092	83 c0 01	 add	 eax, 1
  00095	89 45 e0	 mov	 DWORD PTR _i$85163[ebp], eax
$L85164:
  00098	8b 45 f8	 mov	 eax, DWORD PTR _this$[ebp]
  0009b	8b 4d e0	 mov	 ecx, DWORD PTR _i$85163[ebp]
  0009e	3b 88 0c 02 00
	00		 cmp	 ecx, DWORD PTR [eax+524]
  000a4	0f 83 d1 00 00
	00		 jae	 $done$85170

; 140  : 		{
; 141  : 			if( m_pOverlays[ i ] )

  000aa	8b 45 e0	 mov	 eax, DWORD PTR _i$85163[ebp]
  000ad	8b 4d f8	 mov	 ecx, DWORD PTR _this$[ebp]
  000b0	83 3c 81 00	 cmp	 DWORD PTR [ecx+eax*4], 0
  000b4	0f 84 bc 00 00
	00		 je	 $L85167

; 142  : 				if (
; 143  : 					m_pOverlays[i]->m_bActive &&
; 144  : 					nTag == m_pOverlays[i]->m_nTag && 
; 145  : 					m_pOverlays[i]->m_bDrawingCanBeSkipped == FALSE
; 146  : 				   )

  000ba	8b 45 e0	 mov	 eax, DWORD PTR _i$85163[ebp]
  000bd	8b 4d f8	 mov	 ecx, DWORD PTR _this$[ebp]
  000c0	8b 14 81	 mov	 edx, DWORD PTR [ecx+eax*4]
  000c3	83 ba 84 00 00
	00 00		 cmp	 DWORD PTR [edx+132], 0
  000ca	0f 84 a6 00 00
	00		 je	 $L85167
  000d0	8b 45 e0	 mov	 eax, DWORD PTR _i$85163[ebp]
  000d3	8b 4d f8	 mov	 ecx, DWORD PTR _this$[ebp]
  000d6	8b 14 81	 mov	 edx, DWORD PTR [ecx+eax*4]
  000d9	8b 45 0c	 mov	 eax, DWORD PTR _nTag$[ebp]
  000dc	3b 82 c8 00 00
	00		 cmp	 eax, DWORD PTR [edx+200]
  000e2	0f 85 8e 00 00
	00		 jne	 $L85167
  000e8	8b 45 e0	 mov	 eax, DWORD PTR _i$85163[ebp]
  000eb	8b 4d f8	 mov	 ecx, DWORD PTR _this$[ebp]
  000ee	8b 14 81	 mov	 edx, DWORD PTR [ecx+eax*4]
  000f1	83 ba cc 00 00
	00 00		 cmp	 DWORD PTR [edx+204], 0
  000f8	75 7c		 jne	 SHORT $L85167

; 147  : 				{
; 148  : 					pDev->SetTexture( 0, m_pOverlays[i]->m_pTex );

  000fa	8b 45 e0	 mov	 eax, DWORD PTR _i$85163[ebp]
  000fd	8b 4d f8	 mov	 ecx, DWORD PTR _this$[ebp]
  00100	8b 14 81	 mov	 edx, DWORD PTR [ecx+eax*4]
  00103	8b f4		 mov	 esi, esp
  00105	8b 42 18	 mov	 eax, DWORD PTR [edx+24]
  00108	50		 push	 eax
  00109	6a 00		 push	 0
  0010b	8b 4d 08	 mov	 ecx, DWORD PTR _pDev$[ebp]
  0010e	8b 11		 mov	 edx, DWORD PTR [ecx]
  00110	8b 45 08	 mov	 eax, DWORD PTR _pDev$[ebp]
  00113	50		 push	 eax
  00114	ff 92 f4 00 00
	00		 call	 DWORD PTR [edx+244]
  0011a	3b f4		 cmp	 esi, esp
  0011c	e8 00 00 00 00	 call	 __RTC_CheckEsp

; 149  : 					if( m_bVBLocked )

  00121	8b 45 f8	 mov	 eax, DWORD PTR _this$[ebp]
  00124	83 b8 08 02 00
	00 00		 cmp	 DWORD PTR [eax+520], 0
  0012b	74 02		 je	 SHORT $L85169

; 150  : 						goto done ;

  0012d	eb 4c		 jmp	 SHORT $done$85170
$L85169:

; 151  : 					hr = m_pOverlays[i]->Render( pDev ) ;

  0012f	8b f4		 mov	 esi, esp
  00131	8b 45 08	 mov	 eax, DWORD PTR _pDev$[ebp]
  00134	50		 push	 eax
  00135	8b 4d e0	 mov	 ecx, DWORD PTR _i$85163[ebp]
  00138	8b 55 f8	 mov	 edx, DWORD PTR _this$[ebp]
  0013b	8b 04 8a	 mov	 eax, DWORD PTR [edx+ecx*4]
  0013e	8b 4d e0	 mov	 ecx, DWORD PTR _i$85163[ebp]
  00141	8b 55 f8	 mov	 edx, DWORD PTR _this$[ebp]
  00144	8b 0c 8a	 mov	 ecx, DWORD PTR [edx+ecx*4]
  00147	8b 00		 mov	 eax, DWORD PTR [eax]
  00149	ff 10		 call	 DWORD PTR [eax]
  0014b	3b f4		 cmp	 esi, esp
  0014d	e8 00 00 00 00	 call	 __RTC_CheckEsp
  00152	89 45 ec	 mov	 DWORD PTR _hr$[ebp], eax

; 152  : 					assert( hr==D3D_OK );

  00155	83 7d ec 00	 cmp	 DWORD PTR _hr$[ebp], 0
  00159	74 1b		 je	 SHORT $L85167
  0015b	a1 00 00 00 00	 mov	 eax, DWORD PTR ?__LINE__Var@?1??Render@CScreenOverlayManager@@QAEJPAUIDirect3DDevice8@@HH@Z@4JA
  00160	83 c0 21	 add	 eax, 33			; 00000021H
  00163	50		 push	 eax
  00164	68 00 00 00 00	 push	 OFFSET FLAT:??_C@_0FH@KCMNJALG@c?3?2documents?5and?5settings?2dom?2my@
  00169	68 00 00 00 00	 push	 OFFSET FLAT:??_C@_0L@CJJJJEMF@hr?$DN?$DND3D_OK?$AA@
  0016e	e8 00 00 00 00	 call	 __assert
  00173	83 c4 0c	 add	 esp, 12			; 0000000cH
$L85167:

; 153  : 				}
; 154  : 		}

  00176	e9 14 ff ff ff	 jmp	 $L85165
$done$85170:

; 155  : 	}
; 156  : 
; 157  : //
; 158  : // method B; single DrawIndexedPrimitive. Faster?
; 159  : // doesn't work properly yet; may well not be worth the effort?
; 160  : //
; 161  : 	/*if( 0 //nMethod == eDrawFast )
; 162  : 	{
; 163  : 		BYTE *pbIndices ;
; 164  : 		WORD *pIndices ;
; 165  : 		m_pIB->Lock( 0, 0, &pbIndices, D3DLOCK_DISCARD );
; 166  : 		assert( pbIndices != NULL );
; 167  : 		
; 168  : 		pIndices = (WORD*)pbIndices ;
; 169  : 
; 170  : 		DWORD MinIndex = 99999, MaxIndex = 0 ;
; 171  : 		DWORD nPolyCount = 0 ;
; 172  : 		
; 173  : 		for( DWORD i = 0 ; i < m_dwNumOverlays ; i ++ )
; 174  : 		{
; 175  : 			if( m_pOverlays[ i ] )
; 176  : 				if (
; 177  : 					m_pOverlays[i]->m_bActive &&
; 178  : 					nTag == m_pOverlays[i]->m_nTag && 
; 179  : 					m_pOverlays[i]->m_bDrawingCanBeSkipped == FALSE
; 180  : 				   )
; 181  : 				{
; 182  : 					*pIndices = (WORD)m_pOverlays[i]->m_dwIndexOffset ;
; 183  : 					if( *pIndices < MinIndex ) MinIndex = *pIndices ;
; 184  : 					if( *pIndices > MaxIndex ) MaxIndex = *pIndices ;
; 185  : 					pIndices++ ;
; 186  : 
; 187  : 					*pIndices = (WORD)m_pOverlays[i]->m_dwIndexOffset + 1 ;
; 188  : 					if( *pIndices < MinIndex ) MinIndex = *pIndices ;
; 189  : 					if( *pIndices > MaxIndex ) MaxIndex = *pIndices ;
; 190  : 					pIndices++ ;
; 191  : 
; 192  : 					*pIndices = (WORD)m_pOverlays[i]->m_dwIndexOffset + 2 ;
; 193  : 					if( *pIndices < MinIndex ) MinIndex = *pIndices ;
; 194  : 					if( *pIndices > MaxIndex ) MaxIndex = *pIndices ;
; 195  : 					pIndices++ ;
; 196  : 
; 197  : 					*pIndices = (WORD)m_pOverlays[i]->m_dwIndexOffset + 3 ;
; 198  : 					if( *pIndices < MinIndex ) MinIndex = *pIndices ;
; 199  : 					if( *pIndices > MaxIndex ) MaxIndex = *pIndices ;
; 200  : 					pIndices++ ;
; 201  : 
; 202  : 					nPolyCount += 2 ;
; 203  : 				}
; 204  : 		}
; 205  : 		m_pIB->Unlock() ;
; 206  : 		if( nPolyCount > 0 )
; 207  : 		{
; 208  : 			pDev->SetTransform(D3DTS_WORLD, &m_matWorldIdent) ;
; 209  : 			pDev->SetIndices( m_pIB, 0 );
; 210  : 			pDev->SetStreamSource( 0, m_pVB, sizeof(OVERLAYVERTEX) );
; 211  : 			pDev->SetVertexShader( D3DFVF_OVERLAYVERTEX );
; 212  : 			if( pDev->DrawIndexedPrimitive( D3DPT_TRIANGLESTRIP,
; 213  : 											MinIndex,
; 214  : 											MaxIndex - MinIndex,
; 215  : 											0,
; 216  : 											nPolyCount ) != D3D_OK )
; 217  : 				Msg("DrawIndexedPrimitive FAILURE 2!!!") ;
; 218  : 		}
; 219  : 	}*/
; 220  : 
; 221  : done:
; 222  : 	//pDev->SetRenderState( D3DRS_ZFUNC, D3DCMP_LESSEQUAL );
; 223  : 	return S_OK ;

  0017b	33 c0		 xor	 eax, eax
$L85157:

; 224  : }

  0017d	5f		 pop	 edi
  0017e	5e		 pop	 esi
  0017f	5b		 pop	 ebx
  00180	81 c4 e4 00 00
	00		 add	 esp, 228		; 000000e4H
  00186	3b ec		 cmp	 ebp, esp
  00188	e8 00 00 00 00	 call	 __RTC_CheckEsp
  0018d	8b e5		 mov	 esp, ebp
  0018f	5d		 pop	 ebp
  00190	c2 0c 00	 ret	 12			; 0000000cH
?Render@CScreenOverlayManager@@QAEJPAUIDirect3DDevice8@@HH@Z ENDP ; CScreenOverlayManager::Render
_TEXT	ENDS
PUBLIC	?LockVB@CScreenOverlayManager@@QAEJXZ		; CScreenOverlayManager::LockVB
PUBLIC	?__LINE__Var@?1??LockVB@CScreenOverlayManager@@QAEJXZ@4JA ; `CScreenOverlayManager::LockVB'::`2'::__LINE__Var
PUBLIC	??_C@_0M@NKNCPJJD@?$CBFAILED?$CIhr?$CJ?$AA@	; `string'
;	COMDAT ?__LINE__Var@?1??LockVB@CScreenOverlayManager@@QAEJXZ@4JA
_DATA	SEGMENT
?__LINE__Var@?1??LockVB@CScreenOverlayManager@@QAEJXZ@4JA DD 0e3H ; `CScreenOverlayManager::LockVB'::`2'::__LINE__Var
_DATA	ENDS
;	COMDAT ??_C@_0M@NKNCPJJD@?$CBFAILED?$CIhr?$CJ?$AA@
CONST	SEGMENT
??_C@_0M@NKNCPJJD@?$CBFAILED?$CIhr?$CJ?$AA@ DB '!FAILED(hr)', 00H ; `string'
; Function compile flags: /Odt /RTCsu /ZI
CONST	ENDS
;	COMDAT ?LockVB@CScreenOverlayManager@@QAEJXZ
_TEXT	SEGMENT
_hr$ = -20
_this$ = -8
?LockVB@CScreenOverlayManager@@QAEJXZ PROC NEAR		; CScreenOverlayManager::LockVB, COMDAT
; _this$ = ecx

; 227  : {

  00000	55		 push	 ebp
  00001	8b ec		 mov	 ebp, esp
  00003	81 ec d8 00 00
	00		 sub	 esp, 216		; 000000d8H
  00009	53		 push	 ebx
  0000a	56		 push	 esi
  0000b	57		 push	 edi
  0000c	51		 push	 ecx
  0000d	8d bd 28 ff ff
	ff		 lea	 edi, DWORD PTR [ebp-216]
  00013	b9 36 00 00 00	 mov	 ecx, 54			; 00000036H
  00018	b8 cc cc cc cc	 mov	 eax, -858993460		; ccccccccH
  0001d	f3 ab		 rep stosd
  0001f	59		 pop	 ecx
  00020	89 4d f8	 mov	 DWORD PTR _this$[ebp], ecx

; 228  : 	//ods("CScreenOverlayManager::LockVB()\n") ;
; 229  : 	m_bVBLocked = TRUE ;

  00023	8b 45 f8	 mov	 eax, DWORD PTR _this$[ebp]
  00026	c7 80 08 02 00
	00 01 00 00 00	 mov	 DWORD PTR [eax+520], 1

; 230  : 	HRESULT hr ;
; 231  : 	hr = m_pVB->Lock( 0, 0, (BYTE**)&m_pVBVertices, 0 );

  00030	8b f4		 mov	 esi, esp
  00032	6a 00		 push	 0
  00034	8b 45 f8	 mov	 eax, DWORD PTR _this$[ebp]
  00037	05 94 02 00 00	 add	 eax, 660		; 00000294H
  0003c	50		 push	 eax
  0003d	6a 00		 push	 0
  0003f	6a 00		 push	 0
  00041	8b 4d f8	 mov	 ecx, DWORD PTR _this$[ebp]
  00044	8b 91 00 02 00
	00		 mov	 edx, DWORD PTR [ecx+512]
  0004a	8b 45 f8	 mov	 eax, DWORD PTR _this$[ebp]
  0004d	8b 88 00 02 00
	00		 mov	 ecx, DWORD PTR [eax+512]
  00053	8b 12		 mov	 edx, DWORD PTR [edx]
  00055	51		 push	 ecx
  00056	ff 52 2c	 call	 DWORD PTR [edx+44]
  00059	3b f4		 cmp	 esi, esp
  0005b	e8 00 00 00 00	 call	 __RTC_CheckEsp
  00060	89 45 ec	 mov	 DWORD PTR _hr$[ebp], eax

; 232  : 	assert( !FAILED(hr) );

  00063	83 7d ec 00	 cmp	 DWORD PTR _hr$[ebp], 0
  00067	7d 1b		 jge	 SHORT $L85292
  00069	a1 00 00 00 00	 mov	 eax, DWORD PTR ?__LINE__Var@?1??LockVB@CScreenOverlayManager@@QAEJXZ@4JA
  0006e	83 c0 05	 add	 eax, 5
  00071	50		 push	 eax
  00072	68 00 00 00 00	 push	 OFFSET FLAT:??_C@_0FH@KCMNJALG@c?3?2documents?5and?5settings?2dom?2my@
  00077	68 00 00 00 00	 push	 OFFSET FLAT:??_C@_0M@NKNCPJJD@?$CBFAILED?$CIhr?$CJ?$AA@
  0007c	e8 00 00 00 00	 call	 __assert
  00081	83 c4 0c	 add	 esp, 12			; 0000000cH
$L85292:

; 233  : 	return S_OK ;

  00084	33 c0		 xor	 eax, eax

; 234  : }

  00086	5f		 pop	 edi
  00087	5e		 pop	 esi
  00088	5b		 pop	 ebx
  00089	81 c4 d8 00 00
	00		 add	 esp, 216		; 000000d8H
  0008f	3b ec		 cmp	 ebp, esp
  00091	e8 00 00 00 00	 call	 __RTC_CheckEsp
  00096	8b e5		 mov	 esp, ebp
  00098	5d		 pop	 ebp
  00099	c3		 ret	 0
?LockVB@CScreenOverlayManager@@QAEJXZ ENDP		; CScreenOverlayManager::LockVB
_TEXT	ENDS
PUBLIC	?UnlockVB@CScreenOverlayManager@@QAEJXZ		; CScreenOverlayManager::UnlockVB
PUBLIC	?__LINE__Var@?1??UnlockVB@CScreenOverlayManager@@QAEJXZ@4JA ; `CScreenOverlayManager::UnlockVB'::`2'::__LINE__Var
;	COMDAT ?__LINE__Var@?1??UnlockVB@CScreenOverlayManager@@QAEJXZ@4JA
_DATA	SEGMENT
?__LINE__Var@?1??UnlockVB@CScreenOverlayManager@@QAEJXZ@4JA DD 0edH ; `CScreenOverlayManager::UnlockVB'::`2'::__LINE__Var
; Function compile flags: /Odt /RTCsu /ZI
_DATA	ENDS
;	COMDAT ?UnlockVB@CScreenOverlayManager@@QAEJXZ
_TEXT	SEGMENT
_hr$85191 = -20
_this$ = -8
?UnlockVB@CScreenOverlayManager@@QAEJXZ PROC NEAR	; CScreenOverlayManager::UnlockVB, COMDAT
; _this$ = ecx

; 237  : {

  00000	55		 push	 ebp
  00001	8b ec		 mov	 ebp, esp
  00003	81 ec d8 00 00
	00		 sub	 esp, 216		; 000000d8H
  00009	53		 push	 ebx
  0000a	56		 push	 esi
  0000b	57		 push	 edi
  0000c	51		 push	 ecx
  0000d	8d bd 28 ff ff
	ff		 lea	 edi, DWORD PTR [ebp-216]
  00013	b9 36 00 00 00	 mov	 ecx, 54			; 00000036H
  00018	b8 cc cc cc cc	 mov	 eax, -858993460		; ccccccccH
  0001d	f3 ab		 rep stosd
  0001f	59		 pop	 ecx
  00020	89 4d f8	 mov	 DWORD PTR _this$[ebp], ecx

; 238  : 	if( m_bVBLocked )

  00023	8b 45 f8	 mov	 eax, DWORD PTR _this$[ebp]
  00026	83 b8 08 02 00
	00 00		 cmp	 DWORD PTR [eax+520], 0
  0002d	74 52		 je	 SHORT $L85190

; 239  : 	{
; 240  : 		//ods("CScreenOverlayManager::UnlockVB()\n") ;
; 241  : 		HRESULT hr ;
; 242  : 		hr = m_pVB->Unlock() ;

  0002f	8b 45 f8	 mov	 eax, DWORD PTR _this$[ebp]
  00032	8b 88 00 02 00
	00		 mov	 ecx, DWORD PTR [eax+512]
  00038	8b 55 f8	 mov	 edx, DWORD PTR _this$[ebp]
  0003b	8b 82 00 02 00
	00		 mov	 eax, DWORD PTR [edx+512]
  00041	8b 09		 mov	 ecx, DWORD PTR [ecx]
  00043	8b f4		 mov	 esi, esp
  00045	50		 push	 eax
  00046	ff 51 30	 call	 DWORD PTR [ecx+48]
  00049	3b f4		 cmp	 esi, esp
  0004b	e8 00 00 00 00	 call	 __RTC_CheckEsp
  00050	89 45 ec	 mov	 DWORD PTR _hr$85191[ebp], eax

; 243  : 		assert( !FAILED(hr) );

  00053	83 7d ec 00	 cmp	 DWORD PTR _hr$85191[ebp], 0
  00057	7d 1b		 jge	 SHORT $L85295
  00059	a1 00 00 00 00	 mov	 eax, DWORD PTR ?__LINE__Var@?1??UnlockVB@CScreenOverlayManager@@QAEJXZ@4JA
  0005e	83 c0 06	 add	 eax, 6
  00061	50		 push	 eax
  00062	68 00 00 00 00	 push	 OFFSET FLAT:??_C@_0FH@KCMNJALG@c?3?2documents?5and?5settings?2dom?2my@
  00067	68 00 00 00 00	 push	 OFFSET FLAT:??_C@_0M@NKNCPJJD@?$CBFAILED?$CIhr?$CJ?$AA@
  0006c	e8 00 00 00 00	 call	 __assert
  00071	83 c4 0c	 add	 esp, 12			; 0000000cH
$L85295:

; 244  : 		m_bVBLocked = FALSE ;

  00074	8b 45 f8	 mov	 eax, DWORD PTR _this$[ebp]
  00077	c7 80 08 02 00
	00 00 00 00 00	 mov	 DWORD PTR [eax+520], 0
$L85190:

; 245  : 	}
; 246  : 	return S_OK ;

  00081	33 c0		 xor	 eax, eax

; 247  : }

  00083	5f		 pop	 edi
  00084	5e		 pop	 esi
  00085	5b		 pop	 ebx
  00086	81 c4 d8 00 00
	00		 add	 esp, 216		; 000000d8H
  0008c	3b ec		 cmp	 ebp, esp
  0008e	e8 00 00 00 00	 call	 __RTC_CheckEsp
  00093	8b e5		 mov	 esp, ebp
  00095	5d		 pop	 ebp
  00096	c3		 ret	 0
?UnlockVB@CScreenOverlayManager@@QAEJXZ ENDP		; CScreenOverlayManager::UnlockVB
_TEXT	ENDS
PUBLIC	?FrameMove@CScreenOverlayManager@@QAEJPAUIDirect3DDevice8@@MM@Z ; CScreenOverlayManager::FrameMove
; Function compile flags: /Odt /RTCsu /ZI
;	COMDAT ?FrameMove@CScreenOverlayManager@@QAEJPAUIDirect3DDevice8@@MM@Z
_TEXT	SEGMENT
_i$ = -20
_this$ = -8
_pDev$ = 8
_fTimeMult$ = 12
_fAspect$ = 16
?FrameMove@CScreenOverlayManager@@QAEJPAUIDirect3DDevice8@@MM@Z PROC NEAR ; CScreenOverlayManager::FrameMove, COMDAT
; _this$ = ecx

; 250  : {

  00000	55		 push	 ebp
  00001	8b ec		 mov	 ebp, esp
  00003	81 ec d8 00 00
	00		 sub	 esp, 216		; 000000d8H
  00009	53		 push	 ebx
  0000a	56		 push	 esi
  0000b	57		 push	 edi
  0000c	51		 push	 ecx
  0000d	8d bd 28 ff ff
	ff		 lea	 edi, DWORD PTR [ebp-216]
  00013	b9 36 00 00 00	 mov	 ecx, 54			; 00000036H
  00018	b8 cc cc cc cc	 mov	 eax, -858993460		; ccccccccH
  0001d	f3 ab		 rep stosd
  0001f	59		 pop	 ecx
  00020	89 4d f8	 mov	 DWORD PTR _this$[ebp], ecx

; 251  : 	DWORD i ;
; 252  : 
; 253  : //
; 254  : // Managed overlays may require a FrameMove:
; 255  : //
; 256  : 	for( i = 0 ; i < m_dwNumOverlays ; i++ )

  00023	c7 45 ec 00 00
	00 00		 mov	 DWORD PTR _i$[ebp], 0
  0002a	eb 09		 jmp	 SHORT $L85203
$L85204:
  0002c	8b 45 ec	 mov	 eax, DWORD PTR _i$[ebp]
  0002f	83 c0 01	 add	 eax, 1
  00032	89 45 ec	 mov	 DWORD PTR _i$[ebp], eax
$L85203:
  00035	8b 45 f8	 mov	 eax, DWORD PTR _this$[ebp]
  00038	8b 4d ec	 mov	 ecx, DWORD PTR _i$[ebp]
  0003b	3b 88 0c 02 00
	00		 cmp	 ecx, DWORD PTR [eax+524]
  00041	73 73		 jae	 SHORT $L85205

; 257  : 		if( m_pOverlays[i]->m_bActive )

  00043	8b 45 ec	 mov	 eax, DWORD PTR _i$[ebp]
  00046	8b 4d f8	 mov	 ecx, DWORD PTR _this$[ebp]
  00049	8b 14 81	 mov	 edx, DWORD PTR [ecx+eax*4]
  0004c	83 ba 84 00 00
	00 00		 cmp	 DWORD PTR [edx+132], 0
  00053	74 5c		 je	 SHORT $L85206

; 258  : 			if( m_pOverlays[i]->m_bActive &&
; 259  : 				m_pOverlays[i]->m_bFrameMoveRequired )

  00055	8b 45 ec	 mov	 eax, DWORD PTR _i$[ebp]
  00058	8b 4d f8	 mov	 ecx, DWORD PTR _this$[ebp]
  0005b	8b 14 81	 mov	 edx, DWORD PTR [ecx+eax*4]
  0005e	83 ba 84 00 00
	00 00		 cmp	 DWORD PTR [edx+132], 0
  00065	74 4a		 je	 SHORT $L85206
  00067	8b 45 ec	 mov	 eax, DWORD PTR _i$[ebp]
  0006a	8b 4d f8	 mov	 ecx, DWORD PTR _this$[ebp]
  0006d	8b 14 81	 mov	 edx, DWORD PTR [ecx+eax*4]
  00070	83 ba d0 00 00
	00 00		 cmp	 DWORD PTR [edx+208], 0
  00077	74 38		 je	 SHORT $L85206

; 260  : 			{
; 261  : 				m_pOverlays[i]->FrameMove( pDev, fTimeMult, fAspect, m_pVBVertices );

  00079	8b f4		 mov	 esi, esp
  0007b	8b 45 f8	 mov	 eax, DWORD PTR _this$[ebp]
  0007e	8b 88 94 02 00
	00		 mov	 ecx, DWORD PTR [eax+660]
  00084	51		 push	 ecx
  00085	8b 55 10	 mov	 edx, DWORD PTR _fAspect$[ebp]
  00088	52		 push	 edx
  00089	8b 45 0c	 mov	 eax, DWORD PTR _fTimeMult$[ebp]
  0008c	50		 push	 eax
  0008d	8b 4d 08	 mov	 ecx, DWORD PTR _pDev$[ebp]
  00090	51		 push	 ecx
  00091	8b 55 ec	 mov	 edx, DWORD PTR _i$[ebp]
  00094	8b 45 f8	 mov	 eax, DWORD PTR _this$[ebp]
  00097	8b 0c 90	 mov	 ecx, DWORD PTR [eax+edx*4]
  0009a	8b 55 ec	 mov	 edx, DWORD PTR _i$[ebp]
  0009d	8b 45 f8	 mov	 eax, DWORD PTR _this$[ebp]
  000a0	8b 14 90	 mov	 edx, DWORD PTR [eax+edx*4]
  000a3	8b 01		 mov	 eax, DWORD PTR [ecx]
  000a5	8b ca		 mov	 ecx, edx
  000a7	ff 50 08	 call	 DWORD PTR [eax+8]
  000aa	3b f4		 cmp	 esi, esp
  000ac	e8 00 00 00 00	 call	 __RTC_CheckEsp
$L85206:

; 262  : 			}
; 263  : 
; 264  : 	return S_OK ;

  000b1	e9 76 ff ff ff	 jmp	 $L85204
$L85205:
  000b6	33 c0		 xor	 eax, eax

; 265  : }

  000b8	5f		 pop	 edi
  000b9	5e		 pop	 esi
  000ba	5b		 pop	 ebx
  000bb	81 c4 d8 00 00
	00		 add	 esp, 216		; 000000d8H
  000c1	3b ec		 cmp	 ebp, esp
  000c3	e8 00 00 00 00	 call	 __RTC_CheckEsp
  000c8	8b e5		 mov	 esp, ebp
  000ca	5d		 pop	 ebp
  000cb	c2 0c 00	 ret	 12			; 0000000cH
?FrameMove@CScreenOverlayManager@@QAEJPAUIDirect3DDevice8@@MM@Z ENDP ; CScreenOverlayManager::FrameMove
_TEXT	ENDS
PUBLIC	?InvalidateDeviceObjects@CScreenOverlayManager@@QAEJXZ ; CScreenOverlayManager::InvalidateDeviceObjects
; Function compile flags: /Odt /RTCsu /ZI
;	COMDAT ?InvalidateDeviceObjects@CScreenOverlayManager@@QAEJXZ
_TEXT	SEGMENT
_this$ = -8
?InvalidateDeviceObjects@CScreenOverlayManager@@QAEJXZ PROC NEAR ; CScreenOverlayManager::InvalidateDeviceObjects, COMDAT
; _this$ = ecx

; 268  : {

  00000	55		 push	 ebp
  00001	8b ec		 mov	 ebp, esp
  00003	81 ec cc 00 00
	00		 sub	 esp, 204		; 000000ccH
  00009	53		 push	 ebx
  0000a	56		 push	 esi
  0000b	57		 push	 edi
  0000c	51		 push	 ecx
  0000d	8d bd 34 ff ff
	ff		 lea	 edi, DWORD PTR [ebp-204]
  00013	b9 33 00 00 00	 mov	 ecx, 51			; 00000033H
  00018	b8 cc cc cc cc	 mov	 eax, -858993460		; ccccccccH
  0001d	f3 ab		 rep stosd
  0001f	59		 pop	 ecx
  00020	89 4d f8	 mov	 DWORD PTR _this$[ebp], ecx

; 269  :     SAFE_RELEASE( m_pVB )

  00023	8b 45 f8	 mov	 eax, DWORD PTR _this$[ebp]
  00026	83 b8 00 02 00
	00 00		 cmp	 DWORD PTR [eax+512], 0
  0002d	74 2e		 je	 SHORT $L85212
  0002f	8b 45 f8	 mov	 eax, DWORD PTR _this$[ebp]
  00032	8b 88 00 02 00
	00		 mov	 ecx, DWORD PTR [eax+512]
  00038	8b 55 f8	 mov	 edx, DWORD PTR _this$[ebp]
  0003b	8b 82 00 02 00
	00		 mov	 eax, DWORD PTR [edx+512]
  00041	8b 09		 mov	 ecx, DWORD PTR [ecx]
  00043	8b f4		 mov	 esi, esp
  00045	50		 push	 eax
  00046	ff 51 08	 call	 DWORD PTR [ecx+8]
  00049	3b f4		 cmp	 esi, esp
  0004b	e8 00 00 00 00	 call	 __RTC_CheckEsp
  00050	8b 45 f8	 mov	 eax, DWORD PTR _this$[ebp]
  00053	c7 80 00 02 00
	00 00 00 00 00	 mov	 DWORD PTR [eax+512], 0
$L85212:

; 270  : 	SAFE_RELEASE( m_pIB )

  0005d	8b 45 f8	 mov	 eax, DWORD PTR _this$[ebp]
  00060	83 b8 04 02 00
	00 00		 cmp	 DWORD PTR [eax+516], 0
  00067	74 2e		 je	 SHORT $L85213
  00069	8b 45 f8	 mov	 eax, DWORD PTR _this$[ebp]
  0006c	8b 88 04 02 00
	00		 mov	 ecx, DWORD PTR [eax+516]
  00072	8b 55 f8	 mov	 edx, DWORD PTR _this$[ebp]
  00075	8b 82 04 02 00
	00		 mov	 eax, DWORD PTR [edx+516]
  0007b	8b 09		 mov	 ecx, DWORD PTR [ecx]
  0007d	8b f4		 mov	 esi, esp
  0007f	50		 push	 eax
  00080	ff 51 08	 call	 DWORD PTR [ecx+8]
  00083	3b f4		 cmp	 esi, esp
  00085	e8 00 00 00 00	 call	 __RTC_CheckEsp
  0008a	8b 45 f8	 mov	 eax, DWORD PTR _this$[ebp]
  0008d	c7 80 04 02 00
	00 00 00 00 00	 mov	 DWORD PTR [eax+516], 0
$L85213:

; 271  : 	m_dwNumOverlays = 0 ;

  00097	8b 45 f8	 mov	 eax, DWORD PTR _this$[ebp]
  0009a	c7 80 0c 02 00
	00 00 00 00 00	 mov	 DWORD PTR [eax+524], 0

; 272  : 	return S_OK ;

  000a4	33 c0		 xor	 eax, eax

; 273  : }

  000a6	5f		 pop	 edi
  000a7	5e		 pop	 esi
  000a8	5b		 pop	 ebx
  000a9	81 c4 cc 00 00
	00		 add	 esp, 204		; 000000ccH
  000af	3b ec		 cmp	 ebp, esp
  000b1	e8 00 00 00 00	 call	 __RTC_CheckEsp
  000b6	8b e5		 mov	 esp, ebp
  000b8	5d		 pop	 ebp
  000b9	c3		 ret	 0
?InvalidateDeviceObjects@CScreenOverlayManager@@QAEJXZ ENDP ; CScreenOverlayManager::InvalidateDeviceObjects
_TEXT	ENDS
EXTRN	_sin:NEAR
; Function compile flags: /Odt /RTCsu /ZI
; File c:\program files\microsoft visual studio .net\vc7\include\math.h
;	COMDAT _sinf
_TEXT	SEGMENT
tv70 = -196
__X$ = 8
_sinf	PROC NEAR					; COMDAT

; 466  :         {return ((float)sin((double)_X)); }

  00000	55		 push	 ebp
  00001	8b ec		 mov	 ebp, esp
  00003	81 ec c4 00 00
	00		 sub	 esp, 196		; 000000c4H
  00009	53		 push	 ebx
  0000a	56		 push	 esi
  0000b	57		 push	 edi
  0000c	8d bd 3c ff ff
	ff		 lea	 edi, DWORD PTR [ebp-196]
  00012	b9 31 00 00 00	 mov	 ecx, 49			; 00000031H
  00017	b8 cc cc cc cc	 mov	 eax, -858993460		; ccccccccH
  0001c	f3 ab		 rep stosd
  0001e	d9 45 08	 fld	 DWORD PTR __X$[ebp]
  00021	83 ec 08	 sub	 esp, 8
  00024	dd 1c 24	 fstp	 QWORD PTR [esp]
  00027	e8 00 00 00 00	 call	 _sin
  0002c	83 c4 08	 add	 esp, 8
  0002f	d9 95 3c ff ff
	ff		 fst	 DWORD PTR tv70[ebp]
  00035	5f		 pop	 edi
  00036	5e		 pop	 esi
  00037	5b		 pop	 ebx
  00038	81 c4 c4 00 00
	00		 add	 esp, 196		; 000000c4H
  0003e	3b ec		 cmp	 ebp, esp
  00040	e8 00 00 00 00	 call	 __RTC_CheckEsp
  00045	8b e5		 mov	 esp, ebp
  00047	5d		 pop	 ebp
  00048	c3		 ret	 0
_sinf	ENDP
_TEXT	ENDS
EXTRN	_sqrt:NEAR
; Function compile flags: /Odt /RTCsu /ZI
;	COMDAT _sqrtf
_TEXT	SEGMENT
tv70 = -196
__X$ = 8
_sqrtf	PROC NEAR					; COMDAT

; 470  :         {return ((float)sqrt((double)_X)); }

  00000	55		 push	 ebp
  00001	8b ec		 mov	 ebp, esp
  00003	81 ec c4 00 00
	00		 sub	 esp, 196		; 000000c4H
  00009	53		 push	 ebx
  0000a	56		 push	 esi
  0000b	57		 push	 edi
  0000c	8d bd 3c ff ff
	ff		 lea	 edi, DWORD PTR [ebp-196]
  00012	b9 31 00 00 00	 mov	 ecx, 49			; 00000031H
  00017	b8 cc cc cc cc	 mov	 eax, -858993460		; ccccccccH
  0001c	f3 ab		 rep stosd
  0001e	d9 45 08	 fld	 DWORD PTR __X$[ebp]
  00021	83 ec 08	 sub	 esp, 8
  00024	dd 1c 24	 fstp	 QWORD PTR [esp]
  00027	e8 00 00 00 00	 call	 _sqrt
  0002c	83 c4 08	 add	 esp, 8
  0002f	d9 95 3c ff ff
	ff		 fst	 DWORD PTR tv70[ebp]
  00035	5f		 pop	 edi
  00036	5e		 pop	 esi
  00037	5b		 pop	 ebx
  00038	81 c4 c4 00 00
	00		 add	 esp, 196		; 000000c4H
  0003e	3b ec		 cmp	 ebp, esp
  00040	e8 00 00 00 00	 call	 __RTC_CheckEsp
  00045	8b e5		 mov	 esp, ebp
  00047	5d		 pop	 ebp
  00048	c3		 ret	 0
_sqrtf	ENDP
; Function compile flags: /Odt /RTCsu /ZI
; File c:\dxsdk\include\d3dx8math.h
_TEXT	ENDS
;	COMDAT ??0D3DXVECTOR3@@QAE@XZ
_TEXT	SEGMENT
_this$ = -8
??0D3DXVECTOR3@@QAE@XZ PROC NEAR			; D3DXVECTOR3::D3DXVECTOR3, COMDAT
; _this$ = ecx

; 89   :     D3DXVECTOR3() {};

  00000	55		 push	 ebp
  00001	8b ec		 mov	 ebp, esp
  00003	81 ec cc 00 00
	00		 sub	 esp, 204		; 000000ccH
  00009	53		 push	 ebx
  0000a	56		 push	 esi
  0000b	57		 push	 edi
  0000c	51		 push	 ecx
  0000d	8d bd 34 ff ff
	ff		 lea	 edi, DWORD PTR [ebp-204]
  00013	b9 33 00 00 00	 mov	 ecx, 51			; 00000033H
  00018	b8 cc cc cc cc	 mov	 eax, -858993460		; ccccccccH
  0001d	f3 ab		 rep stosd
  0001f	59		 pop	 ecx
  00020	89 4d f8	 mov	 DWORD PTR _this$[ebp], ecx
  00023	8b 45 f8	 mov	 eax, DWORD PTR _this$[ebp]
  00026	5f		 pop	 edi
  00027	5e		 pop	 esi
  00028	5b		 pop	 ebx
  00029	8b e5		 mov	 esp, ebp
  0002b	5d		 pop	 ebp
  0002c	c3		 ret	 0
??0D3DXVECTOR3@@QAE@XZ ENDP				; D3DXVECTOR3::D3DXVECTOR3
; Function compile flags: /Odt /RTCsu /ZI
_TEXT	ENDS
;	COMDAT ??0D3DXMATRIX@@QAE@XZ
_TEXT	SEGMENT
_this$ = -8
??0D3DXMATRIX@@QAE@XZ PROC NEAR				; D3DXMATRIX::D3DXMATRIX, COMDAT
; _this$ = ecx

; 177  :     D3DXMATRIX() {};

  00000	55		 push	 ebp
  00001	8b ec		 mov	 ebp, esp
  00003	81 ec cc 00 00
	00		 sub	 esp, 204		; 000000ccH
  00009	53		 push	 ebx
  0000a	56		 push	 esi
  0000b	57		 push	 edi
  0000c	51		 push	 ecx
  0000d	8d bd 34 ff ff
	ff		 lea	 edi, DWORD PTR [ebp-204]
  00013	b9 33 00 00 00	 mov	 ecx, 51			; 00000033H
  00018	b8 cc cc cc cc	 mov	 eax, -858993460		; ccccccccH
  0001d	f3 ab		 rep stosd
  0001f	59		 pop	 ecx
  00020	89 4d f8	 mov	 DWORD PTR _this$[ebp], ecx
  00023	8b 45 f8	 mov	 eax, DWORD PTR _this$[ebp]
  00026	5f		 pop	 edi
  00027	5e		 pop	 esi
  00028	5b		 pop	 ebx
  00029	8b e5		 mov	 esp, ebp
  0002b	5d		 pop	 ebp
  0002c	c3		 ret	 0
??0D3DXMATRIX@@QAE@XZ ENDP				; D3DXMATRIX::D3DXMATRIX
; Function compile flags: /Odt /RTCsu /ZI
; File c:\dxsdk\include\d3dx8math.inl
_TEXT	ENDS
;	COMDAT ??0D3DXVECTOR3@@QAE@MMM@Z
_TEXT	SEGMENT
_this$ = -8
_fx$ = 8
_fy$ = 12
_fz$ = 16
??0D3DXVECTOR3@@QAE@MMM@Z PROC NEAR			; D3DXVECTOR3::D3DXVECTOR3, COMDAT
; _this$ = ecx

; 179  : {

  00000	55		 push	 ebp
  00001	8b ec		 mov	 ebp, esp
  00003	81 ec cc 00 00
	00		 sub	 esp, 204		; 000000ccH
  00009	53		 push	 ebx
  0000a	56		 push	 esi
  0000b	57		 push	 edi
  0000c	51		 push	 ecx
  0000d	8d bd 34 ff ff
	ff		 lea	 edi, DWORD PTR [ebp-204]
  00013	b9 33 00 00 00	 mov	 ecx, 51			; 00000033H
  00018	b8 cc cc cc cc	 mov	 eax, -858993460		; ccccccccH
  0001d	f3 ab		 rep stosd
  0001f	59		 pop	 ecx
  00020	89 4d f8	 mov	 DWORD PTR _this$[ebp], ecx

; 180  :     x = fx;

  00023	8b 45 f8	 mov	 eax, DWORD PTR _this$[ebp]
  00026	8b 4d 08	 mov	 ecx, DWORD PTR _fx$[ebp]
  00029	89 08		 mov	 DWORD PTR [eax], ecx

; 181  :     y = fy;

  0002b	8b 45 f8	 mov	 eax, DWORD PTR _this$[ebp]
  0002e	8b 4d 0c	 mov	 ecx, DWORD PTR _fy$[ebp]
  00031	89 48 04	 mov	 DWORD PTR [eax+4], ecx

; 182  :     z = fz;

  00034	8b 45 f8	 mov	 eax, DWORD PTR _this$[ebp]
  00037	8b 4d 10	 mov	 ecx, DWORD PTR _fz$[ebp]
  0003a	89 48 08	 mov	 DWORD PTR [eax+8], ecx

; 183  : }

  0003d	8b 45 f8	 mov	 eax, DWORD PTR _this$[ebp]
  00040	5f		 pop	 edi
  00041	5e		 pop	 esi
  00042	5b		 pop	 ebx
  00043	8b e5		 mov	 esp, ebp
  00045	5d		 pop	 ebp
  00046	c2 0c 00	 ret	 12			; 0000000cH
??0D3DXVECTOR3@@QAE@MMM@Z ENDP				; D3DXVECTOR3::D3DXVECTOR3
_TEXT	ENDS
END
