; Listing generated by Microsoft (R) Optimizing Compiler Version 13.00.9466 

	TITLE	CScreenOverlay.cpp
	.386P
include listing.inc
if @Version gt 510
.model FLAT
else
_TEXT	SEGMENT PARA USE32 PUBLIC 'CODE'
_TEXT	ENDS
_DATA	SEGMENT DWORD USE32 PUBLIC 'DATA'
_DATA	ENDS
CONST	SEGMENT DWORD USE32 PUBLIC 'CONST'
CONST	ENDS
_BSS	SEGMENT DWORD USE32 PUBLIC 'BSS'
_BSS	ENDS
$$SYMBOLS	SEGMENT BYTE USE32 'DEBSYM'
$$SYMBOLS	ENDS
$$TYPES	SEGMENT BYTE USE32 'DEBTYP'
$$TYPES	ENDS
_TLS	SEGMENT DWORD USE32 PUBLIC 'TLS'
_TLS	ENDS
;	COMDAT ??_C@_0FA@KCKFACEA@c?3?2documents?5and?5settings?2dom?2my@
CONST	SEGMENT DWORD USE32 PUBLIC 'CONST'
CONST	ENDS
;	COMDAT ??_C@_0M@NKNCPJJD@?$CBFAILED?$CIhr?$CJ?$AA@
CONST	SEGMENT DWORD USE32 PUBLIC 'CONST'
CONST	ENDS
;	COMDAT _IsEqualGUID
_TEXT	SEGMENT PARA USE32 PUBLIC 'CODE'
_TEXT	ENDS
;	COMDAT _==
_TEXT	SEGMENT PARA USE32 PUBLIC 'CODE'
_TEXT	ENDS
;	COMDAT _sqrtf
_TEXT	SEGMENT PARA USE32 PUBLIC 'CODE'
_TEXT	ENDS
;	COMDAT ??0D3DXVECTOR3@@QAE@XZ
_TEXT	SEGMENT PARA USE32 PUBLIC 'CODE'
_TEXT	ENDS
;	COMDAT ??0D3DXMATRIX@@QAE@XZ
_TEXT	SEGMENT PARA USE32 PUBLIC 'CODE'
_TEXT	ENDS
;	COMDAT ??0D3DXQUATERNION@@QAE@XZ
_TEXT	SEGMENT PARA USE32 PUBLIC 'CODE'
_TEXT	ENDS
;	COMDAT ??0D3DXCOLOR@@QAE@XZ
_TEXT	SEGMENT PARA USE32 PUBLIC 'CODE'
_TEXT	ENDS
;	COMDAT ??0D3DXVECTOR2@@QAE@MM@Z
_TEXT	SEGMENT PARA USE32 PUBLIC 'CODE'
_TEXT	ENDS
;	COMDAT ??0D3DXVECTOR3@@QAE@MMM@Z
_TEXT	SEGMENT PARA USE32 PUBLIC 'CODE'
_TEXT	ENDS
;	COMDAT ??0D3DXVECTOR4@@QAE@MMMM@Z
_TEXT	SEGMENT PARA USE32 PUBLIC 'CODE'
_TEXT	ENDS
;	COMDAT ??0D3DXMATRIX@@QAE@PBM@Z
_TEXT	SEGMENT PARA USE32 PUBLIC 'CODE'
_TEXT	ENDS
;	COMDAT ??0D3DXMATRIX@@QAE@ABU_D3DMATRIX@@@Z
_TEXT	SEGMENT PARA USE32 PUBLIC 'CODE'
_TEXT	ENDS
;	COMDAT ??0D3DXMATRIX@@QAE@MMMMMMMMMMMMMMMM@Z
_TEXT	SEGMENT PARA USE32 PUBLIC 'CODE'
_TEXT	ENDS
;	COMDAT ??0D3DXQUATERNION@@QAE@MMMM@Z
_TEXT	SEGMENT PARA USE32 PUBLIC 'CODE'
_TEXT	ENDS
;	COMDAT ??0D3DXPLANE@@QAE@MMMM@Z
_TEXT	SEGMENT PARA USE32 PUBLIC 'CODE'
_TEXT	ENDS
;	COMDAT ??0D3DXCOLOR@@QAE@MMMM@Z
_TEXT	SEGMENT PARA USE32 PUBLIC 'CODE'
_TEXT	ENDS
;	COMDAT ??BD3DXCOLOR@@QBEKXZ
_TEXT	SEGMENT PARA USE32 PUBLIC 'CODE'
_TEXT	ENDS
;	COMDAT ??0CScreenOverlay@@QAE@XZ
_TEXT	SEGMENT PARA USE32 PUBLIC 'CODE'
_TEXT	ENDS
;	COMDAT ??0CScreenOverlay@@QAE@PAUIDirect3DTexture8@@MMMMMMH@Z
_TEXT	SEGMENT PARA USE32 PUBLIC 'CODE'
_TEXT	ENDS
;	COMDAT ??0CScreenOverlay@@QAE@PAUIDirect3DTexture8@@MMMMMMPAUD3DXCOLOR@@111H@Z
_TEXT	SEGMENT PARA USE32 PUBLIC 'CODE'
_TEXT	ENDS
;	COMDAT ??0CScreenOverlay@@QAE@PAUIDirect3DTexture8@@MMMMMMMMMH@Z
_TEXT	SEGMENT PARA USE32 PUBLIC 'CODE'
_TEXT	ENDS
;	COMDAT ??1CScreenOverlay@@QAE@XZ
_TEXT	SEGMENT PARA USE32 PUBLIC 'CODE'
_TEXT	ENDS
;	COMDAT ?RestoreDeviceObjects@CScreenOverlay@@UAEJPAUIDirect3DDevice8@@M@Z
_TEXT	SEGMENT PARA USE32 PUBLIC 'CODE'
_TEXT	ENDS
;	COMDAT ?FrameMove@CScreenOverlay@@UAEJPAUIDirect3DDevice8@@MMPAUOVERLAYVERTEX@@@Z
_TEXT	SEGMENT PARA USE32 PUBLIC 'CODE'
_TEXT	ENDS
;	COMDAT ?Render@CScreenOverlay@@UAEJPAUIDirect3DDevice8@@@Z
_TEXT	SEGMENT PARA USE32 PUBLIC 'CODE'
_TEXT	ENDS
;	COMDAT ?__LINE__Var@?1??RestoreDeviceObjects@CScreenOverlay@@UAEJPAUIDirect3DDevice8@@M@Z@4JA
_DATA	SEGMENT DWORD USE32 PUBLIC 'DATA'
_DATA	ENDS
;	COMDAT ??_7CScreenOverlay@@6B@
CONST	SEGMENT DWORD USE32 PUBLIC 'CONST'
CONST	ENDS
FLAT	GROUP _DATA, CONST, _BSS
	ASSUME	CS: FLAT, DS: FLAT, SS: FLAT
endif

INCLUDELIB LIBCMTD
INCLUDELIB OLDNAMES

PUBLIC	??0D3DXVECTOR3@@QAE@XZ				; D3DXVECTOR3::D3DXVECTOR3
PUBLIC	??0D3DXVECTOR3@@QAE@MMM@Z			; D3DXVECTOR3::D3DXVECTOR3
PUBLIC	??0D3DXMATRIX@@QAE@XZ				; D3DXMATRIX::D3DXMATRIX
PUBLIC	??0D3DXCOLOR@@QAE@XZ				; D3DXCOLOR::D3DXCOLOR
PUBLIC	??0D3DXCOLOR@@QAE@MMMM@Z			; D3DXCOLOR::D3DXCOLOR
PUBLIC	??0CScreenOverlay@@QAE@XZ			; CScreenOverlay::CScreenOverlay
PUBLIC	?Render@CScreenOverlay@@UAEJPAUIDirect3DDevice8@@@Z ; CScreenOverlay::Render
PUBLIC	?RestoreDeviceObjects@CScreenOverlay@@UAEJPAUIDirect3DDevice8@@M@Z ; CScreenOverlay::RestoreDeviceObjects
PUBLIC	?FrameMove@CScreenOverlay@@UAEJPAUIDirect3DDevice8@@MMPAUOVERLAYVERTEX@@@Z ; CScreenOverlay::FrameMove
PUBLIC	??_7CScreenOverlay@@6B@				; CScreenOverlay::`vftable'
EXTRN	__RTC_InitBase:NEAR
EXTRN	__RTC_Shutdown:NEAR
EXTRN	__RTC_CheckEsp:NEAR
EXTRN	__fltused:NEAR
EXTRN	?g_matIdent@@3UD3DXMATRIX@@A:BYTE		; g_matIdent
;	COMDAT rtc$IMZ
; File c:\documents and settings\dom\my documents\_dev\ae\xlr8a\x7g\cscreenoverlay.cpp
rtc$IMZ	SEGMENT
__RTC_InitBase.rtc$IMZ DD FLAT:__RTC_InitBase
rtc$IMZ	ENDS
;	COMDAT rtc$TMZ
rtc$TMZ	SEGMENT
__RTC_Shutdown.rtc$TMZ DD FLAT:__RTC_Shutdown
rtc$TMZ	ENDS
;	COMDAT ??_7CScreenOverlay@@6B@
CONST	SEGMENT
??_7CScreenOverlay@@6B@ DD FLAT:?Render@CScreenOverlay@@UAEJPAUIDirect3DDevice8@@@Z ; CScreenOverlay::`vftable'
	DD	FLAT:?RestoreDeviceObjects@CScreenOverlay@@UAEJPAUIDirect3DDevice8@@M@Z
	DD	FLAT:?FrameMove@CScreenOverlay@@UAEJPAUIDirect3DDevice8@@MMPAUOVERLAYVERTEX@@@Z
; Function compile flags: /Odt /RTCsu /ZI
CONST	ENDS
;	COMDAT ??0CScreenOverlay@@QAE@XZ
_TEXT	SEGMENT
$T85066 = -244
$T85065 = -220
_this$ = -8
??0CScreenOverlay@@QAE@XZ PROC NEAR			; CScreenOverlay::CScreenOverlay, COMDAT
; _this$ = ecx

; 6    : {

  00000	55		 push	 ebp
  00001	8b ec		 mov	 ebp, esp
  00003	81 ec f8 00 00
	00		 sub	 esp, 248		; 000000f8H
  00009	53		 push	 ebx
  0000a	56		 push	 esi
  0000b	57		 push	 edi
  0000c	51		 push	 ecx
  0000d	8d bd 08 ff ff
	ff		 lea	 edi, DWORD PTR [ebp-248]
  00013	b9 3e 00 00 00	 mov	 ecx, 62			; 0000003eH
  00018	b8 cc cc cc cc	 mov	 eax, -858993460		; ccccccccH
  0001d	f3 ab		 rep stosd
  0001f	59		 pop	 ecx
  00020	89 4d f8	 mov	 DWORD PTR _this$[ebp], ecx
  00023	8b 45 f8	 mov	 eax, DWORD PTR _this$[ebp]
  00026	c7 00 00 00 00
	00		 mov	 DWORD PTR [eax], OFFSET FLAT:??_7CScreenOverlay@@6B@
  0002c	8b 4d f8	 mov	 ecx, DWORD PTR _this$[ebp]
  0002f	83 c1 0c	 add	 ecx, 12			; 0000000cH
  00032	e8 00 00 00 00	 call	 ??0D3DXVECTOR3@@QAE@XZ	; D3DXVECTOR3::D3DXVECTOR3
  00037	8b 4d f8	 mov	 ecx, DWORD PTR _this$[ebp]
  0003a	83 c1 30	 add	 ecx, 48			; 00000030H
  0003d	e8 00 00 00 00	 call	 ??0D3DXCOLOR@@QAE@XZ	; D3DXCOLOR::D3DXCOLOR
  00042	8b 4d f8	 mov	 ecx, DWORD PTR _this$[ebp]
  00045	83 c1 40	 add	 ecx, 64			; 00000040H
  00048	e8 00 00 00 00	 call	 ??0D3DXCOLOR@@QAE@XZ	; D3DXCOLOR::D3DXCOLOR
  0004d	8b 4d f8	 mov	 ecx, DWORD PTR _this$[ebp]
  00050	83 c1 50	 add	 ecx, 80			; 00000050H
  00053	e8 00 00 00 00	 call	 ??0D3DXCOLOR@@QAE@XZ	; D3DXCOLOR::D3DXCOLOR
  00058	8b 4d f8	 mov	 ecx, DWORD PTR _this$[ebp]
  0005b	83 c1 60	 add	 ecx, 96			; 00000060H
  0005e	e8 00 00 00 00	 call	 ??0D3DXCOLOR@@QAE@XZ	; D3DXCOLOR::D3DXCOLOR
  00063	8b 4d f8	 mov	 ecx, DWORD PTR _this$[ebp]
  00066	81 c1 88 00 00
	00		 add	 ecx, 136		; 00000088H
  0006c	e8 00 00 00 00	 call	 ??0D3DXMATRIX@@QAE@XZ	; D3DXMATRIX::D3DXMATRIX

; 7    : 	m_bDrawingCanBeSkipped = FALSE ;

  00071	8b 45 f8	 mov	 eax, DWORD PTR _this$[ebp]
  00074	c7 80 cc 00 00
	00 00 00 00 00	 mov	 DWORD PTR [eax+204], 0

; 8    : 	m_pSharedVB = NULL ;

  0007e	8b 45 f8	 mov	 eax, DWORD PTR _this$[ebp]
  00081	c7 40 04 00 00
	00 00		 mov	 DWORD PTR [eax+4], 0

; 9    : 	m_dwIndexOffset = 0 ;

  00088	8b 45 f8	 mov	 eax, DWORD PTR _this$[ebp]
  0008b	c7 40 08 00 00
	00 00		 mov	 DWORD PTR [eax+8], 0

; 10   : 
; 11   : 	m_vCenter = xVec3(0.0f, 0.0f, 0.0f) ;

  00092	6a 00		 push	 0
  00094	6a 00		 push	 0
  00096	6a 00		 push	 0
  00098	8d 8d 24 ff ff
	ff		 lea	 ecx, DWORD PTR $T85065[ebp]
  0009e	e8 00 00 00 00	 call	 ??0D3DXVECTOR3@@QAE@MMM@Z ; D3DXVECTOR3::D3DXVECTOR3
  000a3	8b 4d f8	 mov	 ecx, DWORD PTR _this$[ebp]
  000a6	83 c1 0c	 add	 ecx, 12			; 0000000cH
  000a9	8b 10		 mov	 edx, DWORD PTR [eax]
  000ab	89 11		 mov	 DWORD PTR [ecx], edx
  000ad	8b 50 04	 mov	 edx, DWORD PTR [eax+4]
  000b0	89 51 04	 mov	 DWORD PTR [ecx+4], edx
  000b3	8b 40 08	 mov	 eax, DWORD PTR [eax+8]
  000b6	89 41 08	 mov	 DWORD PTR [ecx+8], eax

; 12   : 	m_fHeight = 1.0f ;

  000b9	8b 45 f8	 mov	 eax, DWORD PTR _this$[ebp]
  000bc	c7 80 80 00 00
	00 00 00 80 3f	 mov	 DWORD PTR [eax+128], 1065353216 ; 3f800000H

; 13   : 	m_fWidth = 1.0f ;

  000c6	8b 45 f8	 mov	 eax, DWORD PTR _this$[ebp]
  000c9	c7 40 7c 00 00
	80 3f		 mov	 DWORD PTR [eax+124], 1065353216 ; 3f800000H

; 14   : 
; 15   : 	m_pTex = NULL ;

  000d0	8b 45 f8	 mov	 eax, DWORD PTR _this$[ebp]
  000d3	c7 40 18 00 00
	00 00		 mov	 DWORD PTR [eax+24], 0

; 16   : 	m_fTexRep = 1.0f ;

  000da	8b 45 f8	 mov	 eax, DWORD PTR _this$[ebp]
  000dd	c7 40 1c 00 00
	80 3f		 mov	 DWORD PTR [eax+28], 1065353216 ; 3f800000H

; 17   : 	m_fTopX = 0.0f ;

  000e4	8b 45 f8	 mov	 eax, DWORD PTR _this$[ebp]
  000e7	c7 40 70 00 00
	00 00		 mov	 DWORD PTR [eax+112], 0

; 18   : 	m_fTopY = 0.0f ;

  000ee	8b 45 f8	 mov	 eax, DWORD PTR _this$[ebp]
  000f1	c7 40 74 00 00
	00 00		 mov	 DWORD PTR [eax+116], 0

; 19   : 	m_fWidth = 1.0f ;

  000f8	8b 45 f8	 mov	 eax, DWORD PTR _this$[ebp]
  000fb	c7 40 7c 00 00
	80 3f		 mov	 DWORD PTR [eax+124], 1065353216 ; 3f800000H

; 20   : 	m_fHeight = 1.0f ;

  00102	8b 45 f8	 mov	 eax, DWORD PTR _this$[ebp]
  00105	c7 80 80 00 00
	00 00 00 80 3f	 mov	 DWORD PTR [eax+128], 1065353216 ; 3f800000H

; 21   : 	m_colTL = m_colTR = m_colBL = m_colBR = D3DXCOLOR( 1.0f, 1.0f, 1.0f, 1.0f );

  0010f	68 00 00 80 3f	 push	 1065353216		; 3f800000H
  00114	68 00 00 80 3f	 push	 1065353216		; 3f800000H
  00119	68 00 00 80 3f	 push	 1065353216		; 3f800000H
  0011e	68 00 00 80 3f	 push	 1065353216		; 3f800000H
  00123	8d 8d 0c ff ff
	ff		 lea	 ecx, DWORD PTR $T85066[ebp]
  00129	e8 00 00 00 00	 call	 ??0D3DXCOLOR@@QAE@MMMM@Z ; D3DXCOLOR::D3DXCOLOR
  0012e	8b 4d f8	 mov	 ecx, DWORD PTR _this$[ebp]
  00131	83 c1 60	 add	 ecx, 96			; 00000060H
  00134	8b 10		 mov	 edx, DWORD PTR [eax]
  00136	89 11		 mov	 DWORD PTR [ecx], edx
  00138	8b 50 04	 mov	 edx, DWORD PTR [eax+4]
  0013b	89 51 04	 mov	 DWORD PTR [ecx+4], edx
  0013e	8b 50 08	 mov	 edx, DWORD PTR [eax+8]
  00141	89 51 08	 mov	 DWORD PTR [ecx+8], edx
  00144	8b 40 0c	 mov	 eax, DWORD PTR [eax+12]
  00147	89 41 0c	 mov	 DWORD PTR [ecx+12], eax
  0014a	8b 4d f8	 mov	 ecx, DWORD PTR _this$[ebp]
  0014d	83 c1 60	 add	 ecx, 96			; 00000060H
  00150	8b 55 f8	 mov	 edx, DWORD PTR _this$[ebp]
  00153	83 c2 50	 add	 edx, 80			; 00000050H
  00156	8b 01		 mov	 eax, DWORD PTR [ecx]
  00158	89 02		 mov	 DWORD PTR [edx], eax
  0015a	8b 41 04	 mov	 eax, DWORD PTR [ecx+4]
  0015d	89 42 04	 mov	 DWORD PTR [edx+4], eax
  00160	8b 41 08	 mov	 eax, DWORD PTR [ecx+8]
  00163	89 42 08	 mov	 DWORD PTR [edx+8], eax
  00166	8b 49 0c	 mov	 ecx, DWORD PTR [ecx+12]
  00169	89 4a 0c	 mov	 DWORD PTR [edx+12], ecx
  0016c	8b 55 f8	 mov	 edx, DWORD PTR _this$[ebp]
  0016f	83 c2 50	 add	 edx, 80			; 00000050H
  00172	8b 45 f8	 mov	 eax, DWORD PTR _this$[ebp]
  00175	83 c0 40	 add	 eax, 64			; 00000040H
  00178	8b 0a		 mov	 ecx, DWORD PTR [edx]
  0017a	89 08		 mov	 DWORD PTR [eax], ecx
  0017c	8b 4a 04	 mov	 ecx, DWORD PTR [edx+4]
  0017f	89 48 04	 mov	 DWORD PTR [eax+4], ecx
  00182	8b 4a 08	 mov	 ecx, DWORD PTR [edx+8]
  00185	89 48 08	 mov	 DWORD PTR [eax+8], ecx
  00188	8b 52 0c	 mov	 edx, DWORD PTR [edx+12]
  0018b	89 50 0c	 mov	 DWORD PTR [eax+12], edx
  0018e	8b 45 f8	 mov	 eax, DWORD PTR _this$[ebp]
  00191	83 c0 40	 add	 eax, 64			; 00000040H
  00194	8b 4d f8	 mov	 ecx, DWORD PTR _this$[ebp]
  00197	83 c1 30	 add	 ecx, 48			; 00000030H
  0019a	8b 10		 mov	 edx, DWORD PTR [eax]
  0019c	89 11		 mov	 DWORD PTR [ecx], edx
  0019e	8b 50 04	 mov	 edx, DWORD PTR [eax+4]
  001a1	89 51 04	 mov	 DWORD PTR [ecx+4], edx
  001a4	8b 50 08	 mov	 edx, DWORD PTR [eax+8]
  001a7	89 51 08	 mov	 DWORD PTR [ecx+8], edx
  001aa	8b 40 0c	 mov	 eax, DWORD PTR [eax+12]
  001ad	89 41 0c	 mov	 DWORD PTR [ecx+12], eax

; 22   : 
; 23   : 	m_bActive = FALSE ;

  001b0	8b 45 f8	 mov	 eax, DWORD PTR _this$[ebp]
  001b3	c7 80 84 00 00
	00 00 00 00 00	 mov	 DWORD PTR [eax+132], 0

; 24   : 	m_bFrameMoveRequired = FALSE ;

  001bd	8b 45 f8	 mov	 eax, DWORD PTR _this$[ebp]
  001c0	c7 80 d0 00 00
	00 00 00 00 00	 mov	 DWORD PTR [eax+208], 0

; 25   : 
; 26   : 	m_matWorld = g_matIdent ;

  001ca	8b 7d f8	 mov	 edi, DWORD PTR _this$[ebp]
  001cd	81 c7 88 00 00
	00		 add	 edi, 136		; 00000088H
  001d3	b9 10 00 00 00	 mov	 ecx, 16			; 00000010H
  001d8	be 00 00 00 00	 mov	 esi, OFFSET FLAT:?g_matIdent@@3UD3DXMATRIX@@A ; g_matIdent
  001dd	f3 a5		 rep movsd

; 27   : 	m_nTag = 0 ;

  001df	8b 45 f8	 mov	 eax, DWORD PTR _this$[ebp]
  001e2	c7 80 c8 00 00
	00 00 00 00 00	 mov	 DWORD PTR [eax+200], 0

; 28   : }

  001ec	8b 45 f8	 mov	 eax, DWORD PTR _this$[ebp]
  001ef	5f		 pop	 edi
  001f0	5e		 pop	 esi
  001f1	5b		 pop	 ebx
  001f2	81 c4 f8 00 00
	00		 add	 esp, 248		; 000000f8H
  001f8	3b ec		 cmp	 ebp, esp
  001fa	e8 00 00 00 00	 call	 __RTC_CheckEsp
  001ff	8b e5		 mov	 esp, ebp
  00201	5d		 pop	 ebp
  00202	c3		 ret	 0
??0CScreenOverlay@@QAE@XZ ENDP				; CScreenOverlay::CScreenOverlay
_TEXT	ENDS
PUBLIC	??0CScreenOverlay@@QAE@PAUIDirect3DTexture8@@MMMMMMH@Z ; CScreenOverlay::CScreenOverlay
; Function compile flags: /Odt /RTCsu /ZI
;	COMDAT ??0CScreenOverlay@@QAE@PAUIDirect3DTexture8@@MMMMMMH@Z
_TEXT	SEGMENT
$T85080 = -244
$T85079 = -220
_this$ = -8
_pTex$ = 8
_fTexRep$ = 12
_fX$ = 16
_fY$ = 20
_fZ$ = 24
_fWidth$ = 28
_fHeight$ = 32
_nTag$ = 36
??0CScreenOverlay@@QAE@PAUIDirect3DTexture8@@MMMMMMH@Z PROC NEAR ; CScreenOverlay::CScreenOverlay, COMDAT
; _this$ = ecx

; 32   : {

  00000	55		 push	 ebp
  00001	8b ec		 mov	 ebp, esp
  00003	81 ec f8 00 00
	00		 sub	 esp, 248		; 000000f8H
  00009	53		 push	 ebx
  0000a	56		 push	 esi
  0000b	57		 push	 edi
  0000c	51		 push	 ecx
  0000d	8d bd 08 ff ff
	ff		 lea	 edi, DWORD PTR [ebp-248]
  00013	b9 3e 00 00 00	 mov	 ecx, 62			; 0000003eH
  00018	b8 cc cc cc cc	 mov	 eax, -858993460		; ccccccccH
  0001d	f3 ab		 rep stosd
  0001f	59		 pop	 ecx
  00020	89 4d f8	 mov	 DWORD PTR _this$[ebp], ecx
  00023	8b 45 f8	 mov	 eax, DWORD PTR _this$[ebp]
  00026	c7 00 00 00 00
	00		 mov	 DWORD PTR [eax], OFFSET FLAT:??_7CScreenOverlay@@6B@
  0002c	8b 4d f8	 mov	 ecx, DWORD PTR _this$[ebp]
  0002f	83 c1 0c	 add	 ecx, 12			; 0000000cH
  00032	e8 00 00 00 00	 call	 ??0D3DXVECTOR3@@QAE@XZ	; D3DXVECTOR3::D3DXVECTOR3
  00037	8b 4d f8	 mov	 ecx, DWORD PTR _this$[ebp]
  0003a	83 c1 30	 add	 ecx, 48			; 00000030H
  0003d	e8 00 00 00 00	 call	 ??0D3DXCOLOR@@QAE@XZ	; D3DXCOLOR::D3DXCOLOR
  00042	8b 4d f8	 mov	 ecx, DWORD PTR _this$[ebp]
  00045	83 c1 40	 add	 ecx, 64			; 00000040H
  00048	e8 00 00 00 00	 call	 ??0D3DXCOLOR@@QAE@XZ	; D3DXCOLOR::D3DXCOLOR
  0004d	8b 4d f8	 mov	 ecx, DWORD PTR _this$[ebp]
  00050	83 c1 50	 add	 ecx, 80			; 00000050H
  00053	e8 00 00 00 00	 call	 ??0D3DXCOLOR@@QAE@XZ	; D3DXCOLOR::D3DXCOLOR
  00058	8b 4d f8	 mov	 ecx, DWORD PTR _this$[ebp]
  0005b	83 c1 60	 add	 ecx, 96			; 00000060H
  0005e	e8 00 00 00 00	 call	 ??0D3DXCOLOR@@QAE@XZ	; D3DXCOLOR::D3DXCOLOR
  00063	8b 4d f8	 mov	 ecx, DWORD PTR _this$[ebp]
  00066	81 c1 88 00 00
	00		 add	 ecx, 136		; 00000088H
  0006c	e8 00 00 00 00	 call	 ??0D3DXMATRIX@@QAE@XZ	; D3DXMATRIX::D3DXMATRIX

; 33   : 	m_bDrawingCanBeSkipped = FALSE ;

  00071	8b 45 f8	 mov	 eax, DWORD PTR _this$[ebp]
  00074	c7 80 cc 00 00
	00 00 00 00 00	 mov	 DWORD PTR [eax+204], 0

; 34   : 	m_pSharedVB = NULL ;

  0007e	8b 45 f8	 mov	 eax, DWORD PTR _this$[ebp]
  00081	c7 40 04 00 00
	00 00		 mov	 DWORD PTR [eax+4], 0

; 35   : 	m_dwIndexOffset = 0 ;

  00088	8b 45 f8	 mov	 eax, DWORD PTR _this$[ebp]
  0008b	c7 40 08 00 00
	00 00		 mov	 DWORD PTR [eax+8], 0

; 36   : 
; 37   : 	m_vCenter = xVec3(0.0f, 0.0f, 0.0f) ;

  00092	6a 00		 push	 0
  00094	6a 00		 push	 0
  00096	6a 00		 push	 0
  00098	8d 8d 24 ff ff
	ff		 lea	 ecx, DWORD PTR $T85079[ebp]
  0009e	e8 00 00 00 00	 call	 ??0D3DXVECTOR3@@QAE@MMM@Z ; D3DXVECTOR3::D3DXVECTOR3
  000a3	8b 4d f8	 mov	 ecx, DWORD PTR _this$[ebp]
  000a6	83 c1 0c	 add	 ecx, 12			; 0000000cH
  000a9	8b 10		 mov	 edx, DWORD PTR [eax]
  000ab	89 11		 mov	 DWORD PTR [ecx], edx
  000ad	8b 50 04	 mov	 edx, DWORD PTR [eax+4]
  000b0	89 51 04	 mov	 DWORD PTR [ecx+4], edx
  000b3	8b 40 08	 mov	 eax, DWORD PTR [eax+8]
  000b6	89 41 08	 mov	 DWORD PTR [ecx+8], eax

; 38   : 	m_fHeight = 1.0f ;

  000b9	8b 45 f8	 mov	 eax, DWORD PTR _this$[ebp]
  000bc	c7 80 80 00 00
	00 00 00 80 3f	 mov	 DWORD PTR [eax+128], 1065353216 ; 3f800000H

; 39   : 	m_fWidth = 1.0f ;

  000c6	8b 45 f8	 mov	 eax, DWORD PTR _this$[ebp]
  000c9	c7 40 7c 00 00
	80 3f		 mov	 DWORD PTR [eax+124], 1065353216 ; 3f800000H

; 40   : 
; 41   : 	m_pTex = pTex ;

  000d0	8b 45 f8	 mov	 eax, DWORD PTR _this$[ebp]
  000d3	8b 4d 08	 mov	 ecx, DWORD PTR _pTex$[ebp]
  000d6	89 48 18	 mov	 DWORD PTR [eax+24], ecx

; 42   : 	m_fTexRep = fTexRep ;

  000d9	8b 45 f8	 mov	 eax, DWORD PTR _this$[ebp]
  000dc	8b 4d 0c	 mov	 ecx, DWORD PTR _fTexRep$[ebp]
  000df	89 48 1c	 mov	 DWORD PTR [eax+28], ecx

; 43   : 	m_fTU = 0.0f ;

  000e2	8b 45 f8	 mov	 eax, DWORD PTR _this$[ebp]
  000e5	c7 40 20 00 00
	00 00		 mov	 DWORD PTR [eax+32], 0

; 44   : 	m_fTV = 0.0f ;

  000ec	8b 45 f8	 mov	 eax, DWORD PTR _this$[ebp]
  000ef	c7 40 24 00 00
	00 00		 mov	 DWORD PTR [eax+36], 0

; 45   : 	m_fTUExtent = 0.0 ;

  000f6	8b 45 f8	 mov	 eax, DWORD PTR _this$[ebp]
  000f9	c7 40 28 00 00
	00 00		 mov	 DWORD PTR [eax+40], 0

; 46   : 	m_fTVExtent = 0.0 ;

  00100	8b 45 f8	 mov	 eax, DWORD PTR _this$[ebp]
  00103	c7 40 2c 00 00
	00 00		 mov	 DWORD PTR [eax+44], 0

; 47   : 	m_fTopX = fX ;

  0010a	8b 45 f8	 mov	 eax, DWORD PTR _this$[ebp]
  0010d	8b 4d 10	 mov	 ecx, DWORD PTR _fX$[ebp]
  00110	89 48 70	 mov	 DWORD PTR [eax+112], ecx

; 48   : 	m_fTopY = fY ;

  00113	8b 45 f8	 mov	 eax, DWORD PTR _this$[ebp]
  00116	8b 4d 14	 mov	 ecx, DWORD PTR _fY$[ebp]
  00119	89 48 74	 mov	 DWORD PTR [eax+116], ecx

; 49   : 	m_fTopZ = fZ ;

  0011c	8b 45 f8	 mov	 eax, DWORD PTR _this$[ebp]
  0011f	8b 4d 18	 mov	 ecx, DWORD PTR _fZ$[ebp]
  00122	89 48 78	 mov	 DWORD PTR [eax+120], ecx

; 50   : 	m_fWidth = fWidth ;

  00125	8b 45 f8	 mov	 eax, DWORD PTR _this$[ebp]
  00128	8b 4d 1c	 mov	 ecx, DWORD PTR _fWidth$[ebp]
  0012b	89 48 7c	 mov	 DWORD PTR [eax+124], ecx

; 51   : 	m_fHeight = fHeight ;

  0012e	8b 45 f8	 mov	 eax, DWORD PTR _this$[ebp]
  00131	8b 4d 20	 mov	 ecx, DWORD PTR _fHeight$[ebp]
  00134	89 88 80 00 00
	00		 mov	 DWORD PTR [eax+128], ecx

; 52   : 	m_colTL = m_colTR = m_colBL = m_colBR = D3DXCOLOR( 1.0f, 1.0f, 1.0f, 1.0f );

  0013a	68 00 00 80 3f	 push	 1065353216		; 3f800000H
  0013f	68 00 00 80 3f	 push	 1065353216		; 3f800000H
  00144	68 00 00 80 3f	 push	 1065353216		; 3f800000H
  00149	68 00 00 80 3f	 push	 1065353216		; 3f800000H
  0014e	8d 8d 0c ff ff
	ff		 lea	 ecx, DWORD PTR $T85080[ebp]
  00154	e8 00 00 00 00	 call	 ??0D3DXCOLOR@@QAE@MMMM@Z ; D3DXCOLOR::D3DXCOLOR
  00159	8b 4d f8	 mov	 ecx, DWORD PTR _this$[ebp]
  0015c	83 c1 60	 add	 ecx, 96			; 00000060H
  0015f	8b 10		 mov	 edx, DWORD PTR [eax]
  00161	89 11		 mov	 DWORD PTR [ecx], edx
  00163	8b 50 04	 mov	 edx, DWORD PTR [eax+4]
  00166	89 51 04	 mov	 DWORD PTR [ecx+4], edx
  00169	8b 50 08	 mov	 edx, DWORD PTR [eax+8]
  0016c	89 51 08	 mov	 DWORD PTR [ecx+8], edx
  0016f	8b 40 0c	 mov	 eax, DWORD PTR [eax+12]
  00172	89 41 0c	 mov	 DWORD PTR [ecx+12], eax
  00175	8b 4d f8	 mov	 ecx, DWORD PTR _this$[ebp]
  00178	83 c1 60	 add	 ecx, 96			; 00000060H
  0017b	8b 55 f8	 mov	 edx, DWORD PTR _this$[ebp]
  0017e	83 c2 50	 add	 edx, 80			; 00000050H
  00181	8b 01		 mov	 eax, DWORD PTR [ecx]
  00183	89 02		 mov	 DWORD PTR [edx], eax
  00185	8b 41 04	 mov	 eax, DWORD PTR [ecx+4]
  00188	89 42 04	 mov	 DWORD PTR [edx+4], eax
  0018b	8b 41 08	 mov	 eax, DWORD PTR [ecx+8]
  0018e	89 42 08	 mov	 DWORD PTR [edx+8], eax
  00191	8b 49 0c	 mov	 ecx, DWORD PTR [ecx+12]
  00194	89 4a 0c	 mov	 DWORD PTR [edx+12], ecx
  00197	8b 55 f8	 mov	 edx, DWORD PTR _this$[ebp]
  0019a	83 c2 50	 add	 edx, 80			; 00000050H
  0019d	8b 45 f8	 mov	 eax, DWORD PTR _this$[ebp]
  001a0	83 c0 40	 add	 eax, 64			; 00000040H
  001a3	8b 0a		 mov	 ecx, DWORD PTR [edx]
  001a5	89 08		 mov	 DWORD PTR [eax], ecx
  001a7	8b 4a 04	 mov	 ecx, DWORD PTR [edx+4]
  001aa	89 48 04	 mov	 DWORD PTR [eax+4], ecx
  001ad	8b 4a 08	 mov	 ecx, DWORD PTR [edx+8]
  001b0	89 48 08	 mov	 DWORD PTR [eax+8], ecx
  001b3	8b 52 0c	 mov	 edx, DWORD PTR [edx+12]
  001b6	89 50 0c	 mov	 DWORD PTR [eax+12], edx
  001b9	8b 45 f8	 mov	 eax, DWORD PTR _this$[ebp]
  001bc	83 c0 40	 add	 eax, 64			; 00000040H
  001bf	8b 4d f8	 mov	 ecx, DWORD PTR _this$[ebp]
  001c2	83 c1 30	 add	 ecx, 48			; 00000030H
  001c5	8b 10		 mov	 edx, DWORD PTR [eax]
  001c7	89 11		 mov	 DWORD PTR [ecx], edx
  001c9	8b 50 04	 mov	 edx, DWORD PTR [eax+4]
  001cc	89 51 04	 mov	 DWORD PTR [ecx+4], edx
  001cf	8b 50 08	 mov	 edx, DWORD PTR [eax+8]
  001d2	89 51 08	 mov	 DWORD PTR [ecx+8], edx
  001d5	8b 40 0c	 mov	 eax, DWORD PTR [eax+12]
  001d8	89 41 0c	 mov	 DWORD PTR [ecx+12], eax

; 53   : 
; 54   : 	m_bActive = FALSE ;

  001db	8b 45 f8	 mov	 eax, DWORD PTR _this$[ebp]
  001de	c7 80 84 00 00
	00 00 00 00 00	 mov	 DWORD PTR [eax+132], 0

; 55   : 	m_bFrameMoveRequired = FALSE ;

  001e8	8b 45 f8	 mov	 eax, DWORD PTR _this$[ebp]
  001eb	c7 80 d0 00 00
	00 00 00 00 00	 mov	 DWORD PTR [eax+208], 0

; 56   : 
; 57   : 	m_matWorld = g_matIdent ;

  001f5	8b 7d f8	 mov	 edi, DWORD PTR _this$[ebp]
  001f8	81 c7 88 00 00
	00		 add	 edi, 136		; 00000088H
  001fe	b9 10 00 00 00	 mov	 ecx, 16			; 00000010H
  00203	be 00 00 00 00	 mov	 esi, OFFSET FLAT:?g_matIdent@@3UD3DXMATRIX@@A ; g_matIdent
  00208	f3 a5		 rep movsd

; 58   : 	m_nTag = nTag ;

  0020a	8b 45 f8	 mov	 eax, DWORD PTR _this$[ebp]
  0020d	8b 4d 24	 mov	 ecx, DWORD PTR _nTag$[ebp]
  00210	89 88 c8 00 00
	00		 mov	 DWORD PTR [eax+200], ecx

; 59   : }

  00216	8b 45 f8	 mov	 eax, DWORD PTR _this$[ebp]
  00219	5f		 pop	 edi
  0021a	5e		 pop	 esi
  0021b	5b		 pop	 ebx
  0021c	81 c4 f8 00 00
	00		 add	 esp, 248		; 000000f8H
  00222	3b ec		 cmp	 ebp, esp
  00224	e8 00 00 00 00	 call	 __RTC_CheckEsp
  00229	8b e5		 mov	 esp, ebp
  0022b	5d		 pop	 ebp
  0022c	c2 20 00	 ret	 32			; 00000020H
??0CScreenOverlay@@QAE@PAUIDirect3DTexture8@@MMMMMMH@Z ENDP ; CScreenOverlay::CScreenOverlay
_TEXT	ENDS
PUBLIC	??0CScreenOverlay@@QAE@PAUIDirect3DTexture8@@MMMMMMPAUD3DXCOLOR@@111H@Z ; CScreenOverlay::CScreenOverlay
; Function compile flags: /Odt /RTCsu /ZI
;	COMDAT ??0CScreenOverlay@@QAE@PAUIDirect3DTexture8@@MMMMMMPAUD3DXCOLOR@@111H@Z
_TEXT	SEGMENT
$T85083 = -220
_this$ = -8
_pTex$ = 8
_fTexRep$ = 12
_fX$ = 16
_fY$ = 20
_fZ$ = 24
_fWidth$ = 28
_fHeight$ = 32
_colTL$ = 36
_colTR$ = 40
_colBL$ = 44
_colBR$ = 48
_nTag$ = 52
??0CScreenOverlay@@QAE@PAUIDirect3DTexture8@@MMMMMMPAUD3DXCOLOR@@111H@Z PROC NEAR ; CScreenOverlay::CScreenOverlay, COMDAT
; _this$ = ecx

; 63   : {

  00000	55		 push	 ebp
  00001	8b ec		 mov	 ebp, esp
  00003	81 ec e0 00 00
	00		 sub	 esp, 224		; 000000e0H
  00009	53		 push	 ebx
  0000a	56		 push	 esi
  0000b	57		 push	 edi
  0000c	51		 push	 ecx
  0000d	8d bd 20 ff ff
	ff		 lea	 edi, DWORD PTR [ebp-224]
  00013	b9 38 00 00 00	 mov	 ecx, 56			; 00000038H
  00018	b8 cc cc cc cc	 mov	 eax, -858993460		; ccccccccH
  0001d	f3 ab		 rep stosd
  0001f	59		 pop	 ecx
  00020	89 4d f8	 mov	 DWORD PTR _this$[ebp], ecx
  00023	8b 45 f8	 mov	 eax, DWORD PTR _this$[ebp]
  00026	c7 00 00 00 00
	00		 mov	 DWORD PTR [eax], OFFSET FLAT:??_7CScreenOverlay@@6B@
  0002c	8b 4d f8	 mov	 ecx, DWORD PTR _this$[ebp]
  0002f	83 c1 0c	 add	 ecx, 12			; 0000000cH
  00032	e8 00 00 00 00	 call	 ??0D3DXVECTOR3@@QAE@XZ	; D3DXVECTOR3::D3DXVECTOR3
  00037	8b 4d f8	 mov	 ecx, DWORD PTR _this$[ebp]
  0003a	83 c1 30	 add	 ecx, 48			; 00000030H
  0003d	e8 00 00 00 00	 call	 ??0D3DXCOLOR@@QAE@XZ	; D3DXCOLOR::D3DXCOLOR
  00042	8b 4d f8	 mov	 ecx, DWORD PTR _this$[ebp]
  00045	83 c1 40	 add	 ecx, 64			; 00000040H
  00048	e8 00 00 00 00	 call	 ??0D3DXCOLOR@@QAE@XZ	; D3DXCOLOR::D3DXCOLOR
  0004d	8b 4d f8	 mov	 ecx, DWORD PTR _this$[ebp]
  00050	83 c1 50	 add	 ecx, 80			; 00000050H
  00053	e8 00 00 00 00	 call	 ??0D3DXCOLOR@@QAE@XZ	; D3DXCOLOR::D3DXCOLOR
  00058	8b 4d f8	 mov	 ecx, DWORD PTR _this$[ebp]
  0005b	83 c1 60	 add	 ecx, 96			; 00000060H
  0005e	e8 00 00 00 00	 call	 ??0D3DXCOLOR@@QAE@XZ	; D3DXCOLOR::D3DXCOLOR
  00063	8b 4d f8	 mov	 ecx, DWORD PTR _this$[ebp]
  00066	81 c1 88 00 00
	00		 add	 ecx, 136		; 00000088H
  0006c	e8 00 00 00 00	 call	 ??0D3DXMATRIX@@QAE@XZ	; D3DXMATRIX::D3DXMATRIX

; 64   : 	m_bDrawingCanBeSkipped = FALSE ;

  00071	8b 45 f8	 mov	 eax, DWORD PTR _this$[ebp]
  00074	c7 80 cc 00 00
	00 00 00 00 00	 mov	 DWORD PTR [eax+204], 0

; 65   : 	m_pSharedVB = NULL ;

  0007e	8b 45 f8	 mov	 eax, DWORD PTR _this$[ebp]
  00081	c7 40 04 00 00
	00 00		 mov	 DWORD PTR [eax+4], 0

; 66   : 	m_dwIndexOffset = 0 ;

  00088	8b 45 f8	 mov	 eax, DWORD PTR _this$[ebp]
  0008b	c7 40 08 00 00
	00 00		 mov	 DWORD PTR [eax+8], 0

; 67   : 
; 68   : 	m_vCenter = xVec3(0.0f, 0.0f, 0.0f) ;

  00092	6a 00		 push	 0
  00094	6a 00		 push	 0
  00096	6a 00		 push	 0
  00098	8d 8d 24 ff ff
	ff		 lea	 ecx, DWORD PTR $T85083[ebp]
  0009e	e8 00 00 00 00	 call	 ??0D3DXVECTOR3@@QAE@MMM@Z ; D3DXVECTOR3::D3DXVECTOR3
  000a3	8b 4d f8	 mov	 ecx, DWORD PTR _this$[ebp]
  000a6	83 c1 0c	 add	 ecx, 12			; 0000000cH
  000a9	8b 10		 mov	 edx, DWORD PTR [eax]
  000ab	89 11		 mov	 DWORD PTR [ecx], edx
  000ad	8b 50 04	 mov	 edx, DWORD PTR [eax+4]
  000b0	89 51 04	 mov	 DWORD PTR [ecx+4], edx
  000b3	8b 40 08	 mov	 eax, DWORD PTR [eax+8]
  000b6	89 41 08	 mov	 DWORD PTR [ecx+8], eax

; 69   : 	m_fHeight = 1.0f ;

  000b9	8b 45 f8	 mov	 eax, DWORD PTR _this$[ebp]
  000bc	c7 80 80 00 00
	00 00 00 80 3f	 mov	 DWORD PTR [eax+128], 1065353216 ; 3f800000H

; 70   : 	m_fWidth = 1.0f ;

  000c6	8b 45 f8	 mov	 eax, DWORD PTR _this$[ebp]
  000c9	c7 40 7c 00 00
	80 3f		 mov	 DWORD PTR [eax+124], 1065353216 ; 3f800000H

; 71   : 
; 72   : 	m_pTex = pTex ;

  000d0	8b 45 f8	 mov	 eax, DWORD PTR _this$[ebp]
  000d3	8b 4d 08	 mov	 ecx, DWORD PTR _pTex$[ebp]
  000d6	89 48 18	 mov	 DWORD PTR [eax+24], ecx

; 73   : 	m_fTexRep = fTexRep ;

  000d9	8b 45 f8	 mov	 eax, DWORD PTR _this$[ebp]
  000dc	8b 4d 0c	 mov	 ecx, DWORD PTR _fTexRep$[ebp]
  000df	89 48 1c	 mov	 DWORD PTR [eax+28], ecx

; 74   : 	m_fTU = 0.0f ;

  000e2	8b 45 f8	 mov	 eax, DWORD PTR _this$[ebp]
  000e5	c7 40 20 00 00
	00 00		 mov	 DWORD PTR [eax+32], 0

; 75   : 	m_fTV = 0.0f ;

  000ec	8b 45 f8	 mov	 eax, DWORD PTR _this$[ebp]
  000ef	c7 40 24 00 00
	00 00		 mov	 DWORD PTR [eax+36], 0

; 76   : 	m_fTUExtent = 0.0 ;

  000f6	8b 45 f8	 mov	 eax, DWORD PTR _this$[ebp]
  000f9	c7 40 28 00 00
	00 00		 mov	 DWORD PTR [eax+40], 0

; 77   : 	m_fTVExtent = 0.0 ;

  00100	8b 45 f8	 mov	 eax, DWORD PTR _this$[ebp]
  00103	c7 40 2c 00 00
	00 00		 mov	 DWORD PTR [eax+44], 0

; 78   : 	m_fTopX = fX ;

  0010a	8b 45 f8	 mov	 eax, DWORD PTR _this$[ebp]
  0010d	8b 4d 10	 mov	 ecx, DWORD PTR _fX$[ebp]
  00110	89 48 70	 mov	 DWORD PTR [eax+112], ecx

; 79   : 	m_fTopY = fY ;

  00113	8b 45 f8	 mov	 eax, DWORD PTR _this$[ebp]
  00116	8b 4d 14	 mov	 ecx, DWORD PTR _fY$[ebp]
  00119	89 48 74	 mov	 DWORD PTR [eax+116], ecx

; 80   : 	m_fTopZ = fZ ;

  0011c	8b 45 f8	 mov	 eax, DWORD PTR _this$[ebp]
  0011f	8b 4d 18	 mov	 ecx, DWORD PTR _fZ$[ebp]
  00122	89 48 78	 mov	 DWORD PTR [eax+120], ecx

; 81   : 	m_fWidth = fWidth ;

  00125	8b 45 f8	 mov	 eax, DWORD PTR _this$[ebp]
  00128	8b 4d 1c	 mov	 ecx, DWORD PTR _fWidth$[ebp]
  0012b	89 48 7c	 mov	 DWORD PTR [eax+124], ecx

; 82   : 	m_fHeight = fHeight ;

  0012e	8b 45 f8	 mov	 eax, DWORD PTR _this$[ebp]
  00131	8b 4d 20	 mov	 ecx, DWORD PTR _fHeight$[ebp]
  00134	89 88 80 00 00
	00		 mov	 DWORD PTR [eax+128], ecx

; 83   : 	m_colTL = *colTL ;

  0013a	8b 45 24	 mov	 eax, DWORD PTR _colTL$[ebp]
  0013d	8b 4d f8	 mov	 ecx, DWORD PTR _this$[ebp]
  00140	83 c1 30	 add	 ecx, 48			; 00000030H
  00143	8b 10		 mov	 edx, DWORD PTR [eax]
  00145	89 11		 mov	 DWORD PTR [ecx], edx
  00147	8b 50 04	 mov	 edx, DWORD PTR [eax+4]
  0014a	89 51 04	 mov	 DWORD PTR [ecx+4], edx
  0014d	8b 50 08	 mov	 edx, DWORD PTR [eax+8]
  00150	89 51 08	 mov	 DWORD PTR [ecx+8], edx
  00153	8b 40 0c	 mov	 eax, DWORD PTR [eax+12]
  00156	89 41 0c	 mov	 DWORD PTR [ecx+12], eax

; 84   : 	m_colTR = *colTR ;

  00159	8b 45 28	 mov	 eax, DWORD PTR _colTR$[ebp]
  0015c	8b 4d f8	 mov	 ecx, DWORD PTR _this$[ebp]
  0015f	83 c1 40	 add	 ecx, 64			; 00000040H
  00162	8b 10		 mov	 edx, DWORD PTR [eax]
  00164	89 11		 mov	 DWORD PTR [ecx], edx
  00166	8b 50 04	 mov	 edx, DWORD PTR [eax+4]
  00169	89 51 04	 mov	 DWORD PTR [ecx+4], edx
  0016c	8b 50 08	 mov	 edx, DWORD PTR [eax+8]
  0016f	89 51 08	 mov	 DWORD PTR [ecx+8], edx
  00172	8b 40 0c	 mov	 eax, DWORD PTR [eax+12]
  00175	89 41 0c	 mov	 DWORD PTR [ecx+12], eax

; 85   : 	m_colBL = *colBL ;

  00178	8b 45 2c	 mov	 eax, DWORD PTR _colBL$[ebp]
  0017b	8b 4d f8	 mov	 ecx, DWORD PTR _this$[ebp]
  0017e	83 c1 50	 add	 ecx, 80			; 00000050H
  00181	8b 10		 mov	 edx, DWORD PTR [eax]
  00183	89 11		 mov	 DWORD PTR [ecx], edx
  00185	8b 50 04	 mov	 edx, DWORD PTR [eax+4]
  00188	89 51 04	 mov	 DWORD PTR [ecx+4], edx
  0018b	8b 50 08	 mov	 edx, DWORD PTR [eax+8]
  0018e	89 51 08	 mov	 DWORD PTR [ecx+8], edx
  00191	8b 40 0c	 mov	 eax, DWORD PTR [eax+12]
  00194	89 41 0c	 mov	 DWORD PTR [ecx+12], eax

; 86   : 	m_colBR = *colBR ;

  00197	8b 45 30	 mov	 eax, DWORD PTR _colBR$[ebp]
  0019a	8b 4d f8	 mov	 ecx, DWORD PTR _this$[ebp]
  0019d	83 c1 60	 add	 ecx, 96			; 00000060H
  001a0	8b 10		 mov	 edx, DWORD PTR [eax]
  001a2	89 11		 mov	 DWORD PTR [ecx], edx
  001a4	8b 50 04	 mov	 edx, DWORD PTR [eax+4]
  001a7	89 51 04	 mov	 DWORD PTR [ecx+4], edx
  001aa	8b 50 08	 mov	 edx, DWORD PTR [eax+8]
  001ad	89 51 08	 mov	 DWORD PTR [ecx+8], edx
  001b0	8b 40 0c	 mov	 eax, DWORD PTR [eax+12]
  001b3	89 41 0c	 mov	 DWORD PTR [ecx+12], eax

; 87   : 
; 88   : 	m_bActive = FALSE ;

  001b6	8b 45 f8	 mov	 eax, DWORD PTR _this$[ebp]
  001b9	c7 80 84 00 00
	00 00 00 00 00	 mov	 DWORD PTR [eax+132], 0

; 89   : 	m_bFrameMoveRequired = FALSE ;

  001c3	8b 45 f8	 mov	 eax, DWORD PTR _this$[ebp]
  001c6	c7 80 d0 00 00
	00 00 00 00 00	 mov	 DWORD PTR [eax+208], 0

; 90   : 
; 91   : 	m_matWorld = g_matIdent ;

  001d0	8b 7d f8	 mov	 edi, DWORD PTR _this$[ebp]
  001d3	81 c7 88 00 00
	00		 add	 edi, 136		; 00000088H
  001d9	b9 10 00 00 00	 mov	 ecx, 16			; 00000010H
  001de	be 00 00 00 00	 mov	 esi, OFFSET FLAT:?g_matIdent@@3UD3DXMATRIX@@A ; g_matIdent
  001e3	f3 a5		 rep movsd

; 92   : 	m_nTag = nTag ;

  001e5	8b 45 f8	 mov	 eax, DWORD PTR _this$[ebp]
  001e8	8b 4d 34	 mov	 ecx, DWORD PTR _nTag$[ebp]
  001eb	89 88 c8 00 00
	00		 mov	 DWORD PTR [eax+200], ecx

; 93   : }

  001f1	8b 45 f8	 mov	 eax, DWORD PTR _this$[ebp]
  001f4	5f		 pop	 edi
  001f5	5e		 pop	 esi
  001f6	5b		 pop	 ebx
  001f7	81 c4 e0 00 00
	00		 add	 esp, 224		; 000000e0H
  001fd	3b ec		 cmp	 ebp, esp
  001ff	e8 00 00 00 00	 call	 __RTC_CheckEsp
  00204	8b e5		 mov	 esp, ebp
  00206	5d		 pop	 ebp
  00207	c2 30 00	 ret	 48			; 00000030H
??0CScreenOverlay@@QAE@PAUIDirect3DTexture8@@MMMMMMPAUD3DXCOLOR@@111H@Z ENDP ; CScreenOverlay::CScreenOverlay
_TEXT	ENDS
PUBLIC	??0CScreenOverlay@@QAE@PAUIDirect3DTexture8@@MMMMMMMMMH@Z ; CScreenOverlay::CScreenOverlay
; Function compile flags: /Odt /RTCsu /ZI
;	COMDAT ??0CScreenOverlay@@QAE@PAUIDirect3DTexture8@@MMMMMMMMMH@Z
_TEXT	SEGMENT
$T85087 = -244
$T85086 = -220
_this$ = -8
_pTex$ = 8
_fTU$ = 12
_fTV$ = 16
_fTUExtent$ = 20
_fTVExtent$ = 24
_fX$ = 28
_fY$ = 32
_fZ$ = 36
_fWidth$ = 40
_fHeight$ = 44
_nTag$ = 48
??0CScreenOverlay@@QAE@PAUIDirect3DTexture8@@MMMMMMMMMH@Z PROC NEAR ; CScreenOverlay::CScreenOverlay, COMDAT
; _this$ = ecx

; 97   : {

  00000	55		 push	 ebp
  00001	8b ec		 mov	 ebp, esp
  00003	81 ec f8 00 00
	00		 sub	 esp, 248		; 000000f8H
  00009	53		 push	 ebx
  0000a	56		 push	 esi
  0000b	57		 push	 edi
  0000c	51		 push	 ecx
  0000d	8d bd 08 ff ff
	ff		 lea	 edi, DWORD PTR [ebp-248]
  00013	b9 3e 00 00 00	 mov	 ecx, 62			; 0000003eH
  00018	b8 cc cc cc cc	 mov	 eax, -858993460		; ccccccccH
  0001d	f3 ab		 rep stosd
  0001f	59		 pop	 ecx
  00020	89 4d f8	 mov	 DWORD PTR _this$[ebp], ecx
  00023	8b 45 f8	 mov	 eax, DWORD PTR _this$[ebp]
  00026	c7 00 00 00 00
	00		 mov	 DWORD PTR [eax], OFFSET FLAT:??_7CScreenOverlay@@6B@
  0002c	8b 4d f8	 mov	 ecx, DWORD PTR _this$[ebp]
  0002f	83 c1 0c	 add	 ecx, 12			; 0000000cH
  00032	e8 00 00 00 00	 call	 ??0D3DXVECTOR3@@QAE@XZ	; D3DXVECTOR3::D3DXVECTOR3
  00037	8b 4d f8	 mov	 ecx, DWORD PTR _this$[ebp]
  0003a	83 c1 30	 add	 ecx, 48			; 00000030H
  0003d	e8 00 00 00 00	 call	 ??0D3DXCOLOR@@QAE@XZ	; D3DXCOLOR::D3DXCOLOR
  00042	8b 4d f8	 mov	 ecx, DWORD PTR _this$[ebp]
  00045	83 c1 40	 add	 ecx, 64			; 00000040H
  00048	e8 00 00 00 00	 call	 ??0D3DXCOLOR@@QAE@XZ	; D3DXCOLOR::D3DXCOLOR
  0004d	8b 4d f8	 mov	 ecx, DWORD PTR _this$[ebp]
  00050	83 c1 50	 add	 ecx, 80			; 00000050H
  00053	e8 00 00 00 00	 call	 ??0D3DXCOLOR@@QAE@XZ	; D3DXCOLOR::D3DXCOLOR
  00058	8b 4d f8	 mov	 ecx, DWORD PTR _this$[ebp]
  0005b	83 c1 60	 add	 ecx, 96			; 00000060H
  0005e	e8 00 00 00 00	 call	 ??0D3DXCOLOR@@QAE@XZ	; D3DXCOLOR::D3DXCOLOR
  00063	8b 4d f8	 mov	 ecx, DWORD PTR _this$[ebp]
  00066	81 c1 88 00 00
	00		 add	 ecx, 136		; 00000088H
  0006c	e8 00 00 00 00	 call	 ??0D3DXMATRIX@@QAE@XZ	; D3DXMATRIX::D3DXMATRIX

; 98   : 	m_bDrawingCanBeSkipped = FALSE ;

  00071	8b 45 f8	 mov	 eax, DWORD PTR _this$[ebp]
  00074	c7 80 cc 00 00
	00 00 00 00 00	 mov	 DWORD PTR [eax+204], 0

; 99   : 	m_pSharedVB = NULL ;

  0007e	8b 45 f8	 mov	 eax, DWORD PTR _this$[ebp]
  00081	c7 40 04 00 00
	00 00		 mov	 DWORD PTR [eax+4], 0

; 100  : 	m_dwIndexOffset = 0 ;

  00088	8b 45 f8	 mov	 eax, DWORD PTR _this$[ebp]
  0008b	c7 40 08 00 00
	00 00		 mov	 DWORD PTR [eax+8], 0

; 101  : 
; 102  : 	m_vCenter = xVec3(0.0f, 0.0f, 0.0f) ;

  00092	6a 00		 push	 0
  00094	6a 00		 push	 0
  00096	6a 00		 push	 0
  00098	8d 8d 24 ff ff
	ff		 lea	 ecx, DWORD PTR $T85086[ebp]
  0009e	e8 00 00 00 00	 call	 ??0D3DXVECTOR3@@QAE@MMM@Z ; D3DXVECTOR3::D3DXVECTOR3
  000a3	8b 4d f8	 mov	 ecx, DWORD PTR _this$[ebp]
  000a6	83 c1 0c	 add	 ecx, 12			; 0000000cH
  000a9	8b 10		 mov	 edx, DWORD PTR [eax]
  000ab	89 11		 mov	 DWORD PTR [ecx], edx
  000ad	8b 50 04	 mov	 edx, DWORD PTR [eax+4]
  000b0	89 51 04	 mov	 DWORD PTR [ecx+4], edx
  000b3	8b 40 08	 mov	 eax, DWORD PTR [eax+8]
  000b6	89 41 08	 mov	 DWORD PTR [ecx+8], eax

; 103  : 	m_fHeight = 1.0f ;

  000b9	8b 45 f8	 mov	 eax, DWORD PTR _this$[ebp]
  000bc	c7 80 80 00 00
	00 00 00 80 3f	 mov	 DWORD PTR [eax+128], 1065353216 ; 3f800000H

; 104  : 	m_fWidth = 1.0f ;

  000c6	8b 45 f8	 mov	 eax, DWORD PTR _this$[ebp]
  000c9	c7 40 7c 00 00
	80 3f		 mov	 DWORD PTR [eax+124], 1065353216 ; 3f800000H

; 105  : 
; 106  : 	m_pTex = pTex ;

  000d0	8b 45 f8	 mov	 eax, DWORD PTR _this$[ebp]
  000d3	8b 4d 08	 mov	 ecx, DWORD PTR _pTex$[ebp]
  000d6	89 48 18	 mov	 DWORD PTR [eax+24], ecx

; 107  : 	m_fTexRep = 0.0f ;

  000d9	8b 45 f8	 mov	 eax, DWORD PTR _this$[ebp]
  000dc	c7 40 1c 00 00
	00 00		 mov	 DWORD PTR [eax+28], 0

; 108  : 	m_fTU = fTU ;

  000e3	8b 45 f8	 mov	 eax, DWORD PTR _this$[ebp]
  000e6	8b 4d 0c	 mov	 ecx, DWORD PTR _fTU$[ebp]
  000e9	89 48 20	 mov	 DWORD PTR [eax+32], ecx

; 109  : 	m_fTV = fTV ;

  000ec	8b 45 f8	 mov	 eax, DWORD PTR _this$[ebp]
  000ef	8b 4d 10	 mov	 ecx, DWORD PTR _fTV$[ebp]
  000f2	89 48 24	 mov	 DWORD PTR [eax+36], ecx

; 110  : 	m_fTUExtent = fTUExtent ;

  000f5	8b 45 f8	 mov	 eax, DWORD PTR _this$[ebp]
  000f8	8b 4d 14	 mov	 ecx, DWORD PTR _fTUExtent$[ebp]
  000fb	89 48 28	 mov	 DWORD PTR [eax+40], ecx

; 111  : 	m_fTVExtent = fTVExtent ;

  000fe	8b 45 f8	 mov	 eax, DWORD PTR _this$[ebp]
  00101	8b 4d 18	 mov	 ecx, DWORD PTR _fTVExtent$[ebp]
  00104	89 48 2c	 mov	 DWORD PTR [eax+44], ecx

; 112  : 	m_fTopX = fX ;

  00107	8b 45 f8	 mov	 eax, DWORD PTR _this$[ebp]
  0010a	8b 4d 1c	 mov	 ecx, DWORD PTR _fX$[ebp]
  0010d	89 48 70	 mov	 DWORD PTR [eax+112], ecx

; 113  : 	m_fTopY = fY ;

  00110	8b 45 f8	 mov	 eax, DWORD PTR _this$[ebp]
  00113	8b 4d 20	 mov	 ecx, DWORD PTR _fY$[ebp]
  00116	89 48 74	 mov	 DWORD PTR [eax+116], ecx

; 114  : 	m_fTopZ = fZ ;

  00119	8b 45 f8	 mov	 eax, DWORD PTR _this$[ebp]
  0011c	8b 4d 24	 mov	 ecx, DWORD PTR _fZ$[ebp]
  0011f	89 48 78	 mov	 DWORD PTR [eax+120], ecx

; 115  : 	m_fWidth = fWidth ;

  00122	8b 45 f8	 mov	 eax, DWORD PTR _this$[ebp]
  00125	8b 4d 28	 mov	 ecx, DWORD PTR _fWidth$[ebp]
  00128	89 48 7c	 mov	 DWORD PTR [eax+124], ecx

; 116  : 	m_fHeight = fHeight ;

  0012b	8b 45 f8	 mov	 eax, DWORD PTR _this$[ebp]
  0012e	8b 4d 2c	 mov	 ecx, DWORD PTR _fHeight$[ebp]
  00131	89 88 80 00 00
	00		 mov	 DWORD PTR [eax+128], ecx

; 117  : 	m_colTL = m_colTR = m_colBL = m_colBR = D3DXCOLOR( 1.0f, 1.0f, 1.0f, 1.0f );

  00137	68 00 00 80 3f	 push	 1065353216		; 3f800000H
  0013c	68 00 00 80 3f	 push	 1065353216		; 3f800000H
  00141	68 00 00 80 3f	 push	 1065353216		; 3f800000H
  00146	68 00 00 80 3f	 push	 1065353216		; 3f800000H
  0014b	8d 8d 0c ff ff
	ff		 lea	 ecx, DWORD PTR $T85087[ebp]
  00151	e8 00 00 00 00	 call	 ??0D3DXCOLOR@@QAE@MMMM@Z ; D3DXCOLOR::D3DXCOLOR
  00156	8b 4d f8	 mov	 ecx, DWORD PTR _this$[ebp]
  00159	83 c1 60	 add	 ecx, 96			; 00000060H
  0015c	8b 10		 mov	 edx, DWORD PTR [eax]
  0015e	89 11		 mov	 DWORD PTR [ecx], edx
  00160	8b 50 04	 mov	 edx, DWORD PTR [eax+4]
  00163	89 51 04	 mov	 DWORD PTR [ecx+4], edx
  00166	8b 50 08	 mov	 edx, DWORD PTR [eax+8]
  00169	89 51 08	 mov	 DWORD PTR [ecx+8], edx
  0016c	8b 40 0c	 mov	 eax, DWORD PTR [eax+12]
  0016f	89 41 0c	 mov	 DWORD PTR [ecx+12], eax
  00172	8b 4d f8	 mov	 ecx, DWORD PTR _this$[ebp]
  00175	83 c1 60	 add	 ecx, 96			; 00000060H
  00178	8b 55 f8	 mov	 edx, DWORD PTR _this$[ebp]
  0017b	83 c2 50	 add	 edx, 80			; 00000050H
  0017e	8b 01		 mov	 eax, DWORD PTR [ecx]
  00180	89 02		 mov	 DWORD PTR [edx], eax
  00182	8b 41 04	 mov	 eax, DWORD PTR [ecx+4]
  00185	89 42 04	 mov	 DWORD PTR [edx+4], eax
  00188	8b 41 08	 mov	 eax, DWORD PTR [ecx+8]
  0018b	89 42 08	 mov	 DWORD PTR [edx+8], eax
  0018e	8b 49 0c	 mov	 ecx, DWORD PTR [ecx+12]
  00191	89 4a 0c	 mov	 DWORD PTR [edx+12], ecx
  00194	8b 55 f8	 mov	 edx, DWORD PTR _this$[ebp]
  00197	83 c2 50	 add	 edx, 80			; 00000050H
  0019a	8b 45 f8	 mov	 eax, DWORD PTR _this$[ebp]
  0019d	83 c0 40	 add	 eax, 64			; 00000040H
  001a0	8b 0a		 mov	 ecx, DWORD PTR [edx]
  001a2	89 08		 mov	 DWORD PTR [eax], ecx
  001a4	8b 4a 04	 mov	 ecx, DWORD PTR [edx+4]
  001a7	89 48 04	 mov	 DWORD PTR [eax+4], ecx
  001aa	8b 4a 08	 mov	 ecx, DWORD PTR [edx+8]
  001ad	89 48 08	 mov	 DWORD PTR [eax+8], ecx
  001b0	8b 52 0c	 mov	 edx, DWORD PTR [edx+12]
  001b3	89 50 0c	 mov	 DWORD PTR [eax+12], edx
  001b6	8b 45 f8	 mov	 eax, DWORD PTR _this$[ebp]
  001b9	83 c0 40	 add	 eax, 64			; 00000040H
  001bc	8b 4d f8	 mov	 ecx, DWORD PTR _this$[ebp]
  001bf	83 c1 30	 add	 ecx, 48			; 00000030H
  001c2	8b 10		 mov	 edx, DWORD PTR [eax]
  001c4	89 11		 mov	 DWORD PTR [ecx], edx
  001c6	8b 50 04	 mov	 edx, DWORD PTR [eax+4]
  001c9	89 51 04	 mov	 DWORD PTR [ecx+4], edx
  001cc	8b 50 08	 mov	 edx, DWORD PTR [eax+8]
  001cf	89 51 08	 mov	 DWORD PTR [ecx+8], edx
  001d2	8b 40 0c	 mov	 eax, DWORD PTR [eax+12]
  001d5	89 41 0c	 mov	 DWORD PTR [ecx+12], eax

; 118  : 
; 119  : 	m_bActive = FALSE ;

  001d8	8b 45 f8	 mov	 eax, DWORD PTR _this$[ebp]
  001db	c7 80 84 00 00
	00 00 00 00 00	 mov	 DWORD PTR [eax+132], 0

; 120  : 	m_bFrameMoveRequired = FALSE ;

  001e5	8b 45 f8	 mov	 eax, DWORD PTR _this$[ebp]
  001e8	c7 80 d0 00 00
	00 00 00 00 00	 mov	 DWORD PTR [eax+208], 0

; 121  : 
; 122  : 	m_matWorld = g_matIdent ;

  001f2	8b 7d f8	 mov	 edi, DWORD PTR _this$[ebp]
  001f5	81 c7 88 00 00
	00		 add	 edi, 136		; 00000088H
  001fb	b9 10 00 00 00	 mov	 ecx, 16			; 00000010H
  00200	be 00 00 00 00	 mov	 esi, OFFSET FLAT:?g_matIdent@@3UD3DXMATRIX@@A ; g_matIdent
  00205	f3 a5		 rep movsd

; 123  : 	m_nTag = nTag ;

  00207	8b 45 f8	 mov	 eax, DWORD PTR _this$[ebp]
  0020a	8b 4d 30	 mov	 ecx, DWORD PTR _nTag$[ebp]
  0020d	89 88 c8 00 00
	00		 mov	 DWORD PTR [eax+200], ecx

; 124  : }

  00213	8b 45 f8	 mov	 eax, DWORD PTR _this$[ebp]
  00216	5f		 pop	 edi
  00217	5e		 pop	 esi
  00218	5b		 pop	 ebx
  00219	81 c4 f8 00 00
	00		 add	 esp, 248		; 000000f8H
  0021f	3b ec		 cmp	 ebp, esp
  00221	e8 00 00 00 00	 call	 __RTC_CheckEsp
  00226	8b e5		 mov	 esp, ebp
  00228	5d		 pop	 ebp
  00229	c2 2c 00	 ret	 44			; 0000002cH
??0CScreenOverlay@@QAE@PAUIDirect3DTexture8@@MMMMMMMMMH@Z ENDP ; CScreenOverlay::CScreenOverlay
_TEXT	ENDS
PUBLIC	??1CScreenOverlay@@QAE@XZ			; CScreenOverlay::~CScreenOverlay
; Function compile flags: /Odt /RTCsu /ZI
;	COMDAT ??1CScreenOverlay@@QAE@XZ
_TEXT	SEGMENT
_this$ = -8
??1CScreenOverlay@@QAE@XZ PROC NEAR			; CScreenOverlay::~CScreenOverlay, COMDAT
; _this$ = ecx

; 126  : {

  00000	55		 push	 ebp
  00001	8b ec		 mov	 ebp, esp
  00003	81 ec cc 00 00
	00		 sub	 esp, 204		; 000000ccH
  00009	53		 push	 ebx
  0000a	56		 push	 esi
  0000b	57		 push	 edi
  0000c	51		 push	 ecx
  0000d	8d bd 34 ff ff
	ff		 lea	 edi, DWORD PTR [ebp-204]
  00013	b9 33 00 00 00	 mov	 ecx, 51			; 00000033H
  00018	b8 cc cc cc cc	 mov	 eax, -858993460		; ccccccccH
  0001d	f3 ab		 rep stosd
  0001f	59		 pop	 ecx
  00020	89 4d f8	 mov	 DWORD PTR _this$[ebp], ecx
  00023	8b 45 f8	 mov	 eax, DWORD PTR _this$[ebp]
  00026	c7 00 00 00 00
	00		 mov	 DWORD PTR [eax], OFFSET FLAT:??_7CScreenOverlay@@6B@

; 127  : }

  0002c	5f		 pop	 edi
  0002d	5e		 pop	 esi
  0002e	5b		 pop	 ebx
  0002f	8b e5		 mov	 esp, ebp
  00031	5d		 pop	 ebp
  00032	c3		 ret	 0
??1CScreenOverlay@@QAE@XZ ENDP				; CScreenOverlay::~CScreenOverlay
_TEXT	ENDS
PUBLIC	?__LINE__Var@?1??RestoreDeviceObjects@CScreenOverlay@@UAEJPAUIDirect3DDevice8@@M@Z@4JA ; `CScreenOverlay::RestoreDeviceObjects'::`2'::__LINE__Var
PUBLIC	??_C@_0FA@KCKFACEA@c?3?2documents?5and?5settings?2dom?2my@ ; `string'
PUBLIC	??_C@_0M@NKNCPJJD@?$CBFAILED?$CIhr?$CJ?$AA@	; `string'
PUBLIC	__real@3f800000
PUBLIC	__real@bf000000
PUBLIC	__real@3f000000
PUBLIC	__real@00000000
PUBLIC	??BD3DXCOLOR@@QBEKXZ				; D3DXCOLOR::operator unsigned long
EXTRN	@_RTC_CheckStackVars@8:NEAR
EXTRN	__assert:NEAR
;	COMDAT ?__LINE__Var@?1??RestoreDeviceObjects@CScreenOverlay@@UAEJPAUIDirect3DDevice8@@M@Z@4JA
_DATA	SEGMENT
?__LINE__Var@?1??RestoreDeviceObjects@CScreenOverlay@@UAEJPAUIDirect3DDevice8@@M@Z@4JA DD 082H ; `CScreenOverlay::RestoreDeviceObjects'::`2'::__LINE__Var
_DATA	ENDS
;	COMDAT ??_C@_0FA@KCKFACEA@c?3?2documents?5and?5settings?2dom?2my@
CONST	SEGMENT
??_C@_0FA@KCKFACEA@c?3?2documents?5and?5settings?2dom?2my@ DB 'c:\documen'
	DB	'ts and settings\dom\my documents\_dev\ae\xlr8a\x7g\cscreenove'
	DB	'rlay.cpp', 00H				; `string'
CONST	ENDS
;	COMDAT ??_C@_0M@NKNCPJJD@?$CBFAILED?$CIhr?$CJ?$AA@
CONST	SEGMENT
??_C@_0M@NKNCPJJD@?$CBFAILED?$CIhr?$CJ?$AA@ DB '!FAILED(hr)', 00H ; `string'
CONST	ENDS
;	COMDAT __real@3f800000
CONST	SEGMENT
__real@3f800000 DD 03f800000r			; 1
CONST	ENDS
;	COMDAT __real@bf000000
CONST	SEGMENT
__real@bf000000 DD 0bf000000r			; -0.5
CONST	ENDS
;	COMDAT __real@3f000000
CONST	SEGMENT
__real@3f000000 DD 03f000000r			; 0.5
CONST	ENDS
;	COMDAT __real@00000000
CONST	SEGMENT
__real@00000000 DD 000000000r			; 0
; Function compile flags: /Odt /RTCsu /ZI
CONST	ENDS
;	COMDAT ?RestoreDeviceObjects@CScreenOverlay@@UAEJPAUIDirect3DDevice8@@M@Z
_TEXT	SEGMENT
_fHorizSize$ = -56
_fVertSize$ = -44
_pVertices$ = -32
_hr$ = -20
_this$ = -8
_pDev$ = 8
_fAspect$ = 12
?RestoreDeviceObjects@CScreenOverlay@@UAEJPAUIDirect3DDevice8@@M@Z PROC NEAR ; CScreenOverlay::RestoreDeviceObjects, COMDAT
; _this$ = ecx

; 130  : {

  00000	55		 push	 ebp
  00001	8b ec		 mov	 ebp, esp
  00003	81 ec fc 00 00
	00		 sub	 esp, 252		; 000000fcH
  00009	53		 push	 ebx
  0000a	56		 push	 esi
  0000b	57		 push	 edi
  0000c	51		 push	 ecx
  0000d	8d bd 04 ff ff
	ff		 lea	 edi, DWORD PTR [ebp-252]
  00013	b9 3f 00 00 00	 mov	 ecx, 63			; 0000003fH
  00018	b8 cc cc cc cc	 mov	 eax, -858993460		; ccccccccH
  0001d	f3 ab		 rep stosd
  0001f	59		 pop	 ecx
  00020	89 4d f8	 mov	 DWORD PTR _this$[ebp], ecx

; 131  : #ifdef FULL_DBG_TRACE
; 132  : 	ods( "CScreenOverlay::RestoreDeviceObjects\n" );
; 133  : #endif
; 134  : 
; 135  : 	HRESULT hr ;
; 136  : 
; 137  : 	/*char sz[256] ;
; 138  : 	sprintf(sz, "pVB=%p; dwIndexOffset=%d", m_pSharedVB, (int)m_dwIndexOffset) ;
; 139  : 	MessageBox(NULL, "Baseclass RDO", sz, MB_OK) ;*/
; 140  : 
; 141  : //
; 142  : // Fill the shared VB with our data, at the index specified
; 143  : // by the overlay manager.
; 144  : //
; 145  : 	//ods("CScreenOverlay::RestoreDeviceObjects - Lock: ") ;
; 146  :     OVERLAYVERTEX* pVertices ; 
; 147  : 	hr = m_pSharedVB->Lock(0, 0, (BYTE**)&pVertices, NULL) ;

  00023	8b f4		 mov	 esi, esp
  00025	6a 00		 push	 0
  00027	8d 45 e0	 lea	 eax, DWORD PTR _pVertices$[ebp]
  0002a	50		 push	 eax
  0002b	6a 00		 push	 0
  0002d	6a 00		 push	 0
  0002f	8b 4d f8	 mov	 ecx, DWORD PTR _this$[ebp]
  00032	8b 51 04	 mov	 edx, DWORD PTR [ecx+4]
  00035	8b 45 f8	 mov	 eax, DWORD PTR _this$[ebp]
  00038	8b 48 04	 mov	 ecx, DWORD PTR [eax+4]
  0003b	8b 12		 mov	 edx, DWORD PTR [edx]
  0003d	51		 push	 ecx
  0003e	ff 52 2c	 call	 DWORD PTR [edx+44]
  00041	3b f4		 cmp	 esi, esp
  00043	e8 00 00 00 00	 call	 __RTC_CheckEsp
  00048	89 45 ec	 mov	 DWORD PTR _hr$[ebp], eax

; 148  : 	assert( !FAILED(hr) );

  0004b	83 7d ec 00	 cmp	 DWORD PTR _hr$[ebp], 0
  0004f	7d 1b		 jge	 SHORT $L85092
  00051	a1 00 00 00 00	 mov	 eax, DWORD PTR ?__LINE__Var@?1??RestoreDeviceObjects@CScreenOverlay@@UAEJPAUIDirect3DDevice8@@M@Z@4JA
  00056	83 c0 12	 add	 eax, 18			; 00000012H
  00059	50		 push	 eax
  0005a	68 00 00 00 00	 push	 OFFSET FLAT:??_C@_0FA@KCKFACEA@c?3?2documents?5and?5settings?2dom?2my@
  0005f	68 00 00 00 00	 push	 OFFSET FLAT:??_C@_0M@NKNCPJJD@?$CBFAILED?$CIhr?$CJ?$AA@
  00064	e8 00 00 00 00	 call	 __assert
  00069	83 c4 0c	 add	 esp, 12			; 0000000cH
$L85092:

; 149  : 	//ods("OK\n") ;
; 150  : 
; 151  :     pVertices += m_dwIndexOffset ;

  0006c	8b 45 f8	 mov	 eax, DWORD PTR _this$[ebp]
  0006f	8b 48 08	 mov	 ecx, DWORD PTR [eax+8]
  00072	6b c9 18	 imul	 ecx, 24			; 00000018H
  00075	8b 55 e0	 mov	 edx, DWORD PTR _pVertices$[ebp]
  00078	03 d1		 add	 edx, ecx
  0007a	89 55 e0	 mov	 DWORD PTR _pVertices$[ebp], edx

; 152  : 	
; 153  : 	float fVertSize = 1.0f * m_fHeight ;

  0007d	8b 45 f8	 mov	 eax, DWORD PTR _this$[ebp]
  00080	d9 05 00 00 00
	00		 fld	 DWORD PTR __real@3f800000
  00086	d8 88 80 00 00
	00		 fmul	 DWORD PTR [eax+128]
  0008c	d9 5d d4	 fstp	 DWORD PTR _fVertSize$[ebp]

; 154  : 	float fHorizSize = 1.0f * m_fWidth ;

  0008f	8b 45 f8	 mov	 eax, DWORD PTR _this$[ebp]
  00092	d9 05 00 00 00
	00		 fld	 DWORD PTR __real@3f800000
  00098	d8 48 7c	 fmul	 DWORD PTR [eax+124]
  0009b	d9 5d c8	 fstp	 DWORD PTR _fHorizSize$[ebp]

; 155  : 
; 156  : // bottom-left
; 157  : 	pVertices->v.x   = (-0.5f + (m_fTopX))* fAspect ; 				

  0009e	8b 45 f8	 mov	 eax, DWORD PTR _this$[ebp]
  000a1	d9 40 70	 fld	 DWORD PTR [eax+112]
  000a4	d8 05 00 00 00
	00		 fadd	 DWORD PTR __real@bf000000
  000aa	d8 4d 0c	 fmul	 DWORD PTR _fAspect$[ebp]
  000ad	8b 4d e0	 mov	 ecx, DWORD PTR _pVertices$[ebp]
  000b0	d9 19		 fstp	 DWORD PTR [ecx]

; 158  : 	pVertices->v.y   = +0.5f -(m_fTopY);

  000b2	8b 45 f8	 mov	 eax, DWORD PTR _this$[ebp]
  000b5	d9 40 74	 fld	 DWORD PTR [eax+116]
  000b8	d8 2d 00 00 00
	00		 fsubr	 DWORD PTR __real@3f000000
  000be	8b 4d e0	 mov	 ecx, DWORD PTR _pVertices$[ebp]
  000c1	d9 59 04	 fstp	 DWORD PTR [ecx+4]

; 159  : 	pVertices->v.z   = m_fTopZ ;

  000c4	8b 45 e0	 mov	 eax, DWORD PTR _pVertices$[ebp]
  000c7	8b 4d f8	 mov	 ecx, DWORD PTR _this$[ebp]
  000ca	8b 51 78	 mov	 edx, DWORD PTR [ecx+120]
  000cd	89 50 08	 mov	 DWORD PTR [eax+8], edx

; 160  : 	pVertices->color = m_colBL ;

  000d0	8b 4d f8	 mov	 ecx, DWORD PTR _this$[ebp]
  000d3	83 c1 50	 add	 ecx, 80			; 00000050H
  000d6	e8 00 00 00 00	 call	 ??BD3DXCOLOR@@QBEKXZ	; D3DXCOLOR::operator unsigned long
  000db	8b 4d e0	 mov	 ecx, DWORD PTR _pVertices$[ebp]
  000de	89 41 0c	 mov	 DWORD PTR [ecx+12], eax

; 161  : 	if( m_fTexRep != 0.0f )

  000e1	8b 45 f8	 mov	 eax, DWORD PTR _this$[ebp]
  000e4	d9 40 1c	 fld	 DWORD PTR [eax+28]
  000e7	d8 1d 00 00 00
	00		 fcomp	 DWORD PTR __real@00000000
  000ed	df e0		 fnstsw	 ax
  000ef	f6 c4 44	 test	 ah, 68			; 00000044H
  000f2	7b 16		 jnp	 SHORT $L85005

; 162  : 	{
; 163  : 		pVertices->tu = 0.0f ;

  000f4	8b 45 e0	 mov	 eax, DWORD PTR _pVertices$[ebp]
  000f7	c7 40 10 00 00
	00 00		 mov	 DWORD PTR [eax+16], 0

; 164  : 		pVertices->tv = 0.0f ;

  000fe	8b 45 e0	 mov	 eax, DWORD PTR _pVertices$[ebp]
  00101	c7 40 14 00 00
	00 00		 mov	 DWORD PTR [eax+20], 0

; 165  : 	}
; 166  : 	else

  00108	eb 18		 jmp	 SHORT $L85006
$L85005:

; 167  : 	{
; 168  : 		pVertices->tu = m_fTU ;

  0010a	8b 45 e0	 mov	 eax, DWORD PTR _pVertices$[ebp]
  0010d	8b 4d f8	 mov	 ecx, DWORD PTR _this$[ebp]
  00110	8b 51 20	 mov	 edx, DWORD PTR [ecx+32]
  00113	89 50 10	 mov	 DWORD PTR [eax+16], edx

; 169  : 		pVertices->tv = m_fTV ;

  00116	8b 45 e0	 mov	 eax, DWORD PTR _pVertices$[ebp]
  00119	8b 4d f8	 mov	 ecx, DWORD PTR _this$[ebp]
  0011c	8b 51 24	 mov	 edx, DWORD PTR [ecx+36]
  0011f	89 50 14	 mov	 DWORD PTR [eax+20], edx
$L85006:

; 170  : 	}
; 171  :     pVertices++ ;

  00122	8b 45 e0	 mov	 eax, DWORD PTR _pVertices$[ebp]
  00125	83 c0 18	 add	 eax, 24			; 00000018H
  00128	89 45 e0	 mov	 DWORD PTR _pVertices$[ebp], eax

; 172  : 
; 173  : // bottom-right
; 174  : 	pVertices->v.x   = (-0.5f + (m_fTopX) + fHorizSize)* fAspect ;	

  0012b	8b 45 f8	 mov	 eax, DWORD PTR _this$[ebp]
  0012e	d9 40 70	 fld	 DWORD PTR [eax+112]
  00131	d8 05 00 00 00
	00		 fadd	 DWORD PTR __real@bf000000
  00137	d8 45 c8	 fadd	 DWORD PTR _fHorizSize$[ebp]
  0013a	d8 4d 0c	 fmul	 DWORD PTR _fAspect$[ebp]
  0013d	8b 4d e0	 mov	 ecx, DWORD PTR _pVertices$[ebp]
  00140	d9 19		 fstp	 DWORD PTR [ecx]

; 175  : 	pVertices->v.y   = +0.5f - (m_fTopY);

  00142	8b 45 f8	 mov	 eax, DWORD PTR _this$[ebp]
  00145	d9 40 74	 fld	 DWORD PTR [eax+116]
  00148	d8 2d 00 00 00
	00		 fsubr	 DWORD PTR __real@3f000000
  0014e	8b 4d e0	 mov	 ecx, DWORD PTR _pVertices$[ebp]
  00151	d9 59 04	 fstp	 DWORD PTR [ecx+4]

; 176  : 	pVertices->v.z   = m_fTopZ ;

  00154	8b 45 e0	 mov	 eax, DWORD PTR _pVertices$[ebp]
  00157	8b 4d f8	 mov	 ecx, DWORD PTR _this$[ebp]
  0015a	8b 51 78	 mov	 edx, DWORD PTR [ecx+120]
  0015d	89 50 08	 mov	 DWORD PTR [eax+8], edx

; 177  : 	pVertices->color = m_colBR ;

  00160	8b 4d f8	 mov	 ecx, DWORD PTR _this$[ebp]
  00163	83 c1 60	 add	 ecx, 96			; 00000060H
  00166	e8 00 00 00 00	 call	 ??BD3DXCOLOR@@QBEKXZ	; D3DXCOLOR::operator unsigned long
  0016b	8b 4d e0	 mov	 ecx, DWORD PTR _pVertices$[ebp]
  0016e	89 41 0c	 mov	 DWORD PTR [ecx+12], eax

; 178  : 	if( m_fTexRep != 0.0f )

  00171	8b 45 f8	 mov	 eax, DWORD PTR _this$[ebp]
  00174	d9 40 1c	 fld	 DWORD PTR [eax+28]
  00177	d8 1d 00 00 00
	00		 fcomp	 DWORD PTR __real@00000000
  0017d	df e0		 fnstsw	 ax
  0017f	f6 c4 44	 test	 ah, 68			; 00000044H
  00182	7b 18		 jnp	 SHORT $L85007

; 179  : 	{
; 180  : 		pVertices->tu = m_fTexRep ;

  00184	8b 45 e0	 mov	 eax, DWORD PTR _pVertices$[ebp]
  00187	8b 4d f8	 mov	 ecx, DWORD PTR _this$[ebp]
  0018a	8b 51 1c	 mov	 edx, DWORD PTR [ecx+28]
  0018d	89 50 10	 mov	 DWORD PTR [eax+16], edx

; 181  : 		pVertices->tv = 0.0f ;

  00190	8b 45 e0	 mov	 eax, DWORD PTR _pVertices$[ebp]
  00193	c7 40 14 00 00
	00 00		 mov	 DWORD PTR [eax+20], 0

; 182  : 	}
; 183  : 	else

  0019a	eb 1e		 jmp	 SHORT $L85008
$L85007:

; 184  : 	{
; 185  : 		pVertices->tu = m_fTU + m_fTUExtent ;

  0019c	8b 45 f8	 mov	 eax, DWORD PTR _this$[ebp]
  0019f	8b 4d f8	 mov	 ecx, DWORD PTR _this$[ebp]
  001a2	d9 40 20	 fld	 DWORD PTR [eax+32]
  001a5	d8 41 28	 fadd	 DWORD PTR [ecx+40]
  001a8	8b 55 e0	 mov	 edx, DWORD PTR _pVertices$[ebp]
  001ab	d9 5a 10	 fstp	 DWORD PTR [edx+16]

; 186  : 		pVertices->tv = m_fTV ;

  001ae	8b 45 e0	 mov	 eax, DWORD PTR _pVertices$[ebp]
  001b1	8b 4d f8	 mov	 ecx, DWORD PTR _this$[ebp]
  001b4	8b 51 24	 mov	 edx, DWORD PTR [ecx+36]
  001b7	89 50 14	 mov	 DWORD PTR [eax+20], edx
$L85008:

; 187  : 	}
; 188  :     pVertices++ ;

  001ba	8b 45 e0	 mov	 eax, DWORD PTR _pVertices$[ebp]
  001bd	83 c0 18	 add	 eax, 24			; 00000018H
  001c0	89 45 e0	 mov	 DWORD PTR _pVertices$[ebp], eax

; 189  : 
; 190  : // top-left	
; 191  : 	pVertices->v.x   = (-0.5f + (m_fTopX))* fAspect ;				

  001c3	8b 45 f8	 mov	 eax, DWORD PTR _this$[ebp]
  001c6	d9 40 70	 fld	 DWORD PTR [eax+112]
  001c9	d8 05 00 00 00
	00		 fadd	 DWORD PTR __real@bf000000
  001cf	d8 4d 0c	 fmul	 DWORD PTR _fAspect$[ebp]
  001d2	8b 4d e0	 mov	 ecx, DWORD PTR _pVertices$[ebp]
  001d5	d9 19		 fstp	 DWORD PTR [ecx]

; 192  : 	pVertices->v.y   = +0.5f - (m_fTopY) - fVertSize ;

  001d7	8b 45 f8	 mov	 eax, DWORD PTR _this$[ebp]
  001da	d9 40 74	 fld	 DWORD PTR [eax+116]
  001dd	d8 2d 00 00 00
	00		 fsubr	 DWORD PTR __real@3f000000
  001e3	d8 65 d4	 fsub	 DWORD PTR _fVertSize$[ebp]
  001e6	8b 4d e0	 mov	 ecx, DWORD PTR _pVertices$[ebp]
  001e9	d9 59 04	 fstp	 DWORD PTR [ecx+4]

; 193  : 	pVertices->v.z   = m_fTopZ ;

  001ec	8b 45 e0	 mov	 eax, DWORD PTR _pVertices$[ebp]
  001ef	8b 4d f8	 mov	 ecx, DWORD PTR _this$[ebp]
  001f2	8b 51 78	 mov	 edx, DWORD PTR [ecx+120]
  001f5	89 50 08	 mov	 DWORD PTR [eax+8], edx

; 194  : 	pVertices->color = m_colTL ;

  001f8	8b 4d f8	 mov	 ecx, DWORD PTR _this$[ebp]
  001fb	83 c1 30	 add	 ecx, 48			; 00000030H
  001fe	e8 00 00 00 00	 call	 ??BD3DXCOLOR@@QBEKXZ	; D3DXCOLOR::operator unsigned long
  00203	8b 4d e0	 mov	 ecx, DWORD PTR _pVertices$[ebp]
  00206	89 41 0c	 mov	 DWORD PTR [ecx+12], eax

; 195  : 	if( m_fTexRep != 0.0f )

  00209	8b 45 f8	 mov	 eax, DWORD PTR _this$[ebp]
  0020c	d9 40 1c	 fld	 DWORD PTR [eax+28]
  0020f	d8 1d 00 00 00
	00		 fcomp	 DWORD PTR __real@00000000
  00215	df e0		 fnstsw	 ax
  00217	f6 c4 44	 test	 ah, 68			; 00000044H
  0021a	7b 18		 jnp	 SHORT $L85009

; 196  : 	{
; 197  : 		pVertices->tu = 0.0f ;

  0021c	8b 45 e0	 mov	 eax, DWORD PTR _pVertices$[ebp]
  0021f	c7 40 10 00 00
	00 00		 mov	 DWORD PTR [eax+16], 0

; 198  : 		pVertices->tv = m_fTexRep ;

  00226	8b 45 e0	 mov	 eax, DWORD PTR _pVertices$[ebp]
  00229	8b 4d f8	 mov	 ecx, DWORD PTR _this$[ebp]
  0022c	8b 51 1c	 mov	 edx, DWORD PTR [ecx+28]
  0022f	89 50 14	 mov	 DWORD PTR [eax+20], edx

; 199  : 	}
; 200  : 	else

  00232	eb 1e		 jmp	 SHORT $L85010
$L85009:

; 201  : 	{
; 202  : 		pVertices->tu = m_fTU ;

  00234	8b 45 e0	 mov	 eax, DWORD PTR _pVertices$[ebp]
  00237	8b 4d f8	 mov	 ecx, DWORD PTR _this$[ebp]
  0023a	8b 51 20	 mov	 edx, DWORD PTR [ecx+32]
  0023d	89 50 10	 mov	 DWORD PTR [eax+16], edx

; 203  : 		pVertices->tv = m_fTV + m_fTVExtent ;

  00240	8b 45 f8	 mov	 eax, DWORD PTR _this$[ebp]
  00243	8b 4d f8	 mov	 ecx, DWORD PTR _this$[ebp]
  00246	d9 40 24	 fld	 DWORD PTR [eax+36]
  00249	d8 41 2c	 fadd	 DWORD PTR [ecx+44]
  0024c	8b 55 e0	 mov	 edx, DWORD PTR _pVertices$[ebp]
  0024f	d9 5a 14	 fstp	 DWORD PTR [edx+20]
$L85010:

; 204  : 	}
; 205  :     pVertices++ ;

  00252	8b 45 e0	 mov	 eax, DWORD PTR _pVertices$[ebp]
  00255	83 c0 18	 add	 eax, 24			; 00000018H
  00258	89 45 e0	 mov	 DWORD PTR _pVertices$[ebp], eax

; 206  : 
; 207  : // top-right
; 208  : 	pVertices->v.x   = (-0.5f + (m_fTopX) + fHorizSize)* fAspect ;	

  0025b	8b 45 f8	 mov	 eax, DWORD PTR _this$[ebp]
  0025e	d9 40 70	 fld	 DWORD PTR [eax+112]
  00261	d8 05 00 00 00
	00		 fadd	 DWORD PTR __real@bf000000
  00267	d8 45 c8	 fadd	 DWORD PTR _fHorizSize$[ebp]
  0026a	d8 4d 0c	 fmul	 DWORD PTR _fAspect$[ebp]
  0026d	8b 4d e0	 mov	 ecx, DWORD PTR _pVertices$[ebp]
  00270	d9 19		 fstp	 DWORD PTR [ecx]

; 209  : 	pVertices->v.y   = +0.5f - (m_fTopY) - fVertSize;

  00272	8b 45 f8	 mov	 eax, DWORD PTR _this$[ebp]
  00275	d9 40 74	 fld	 DWORD PTR [eax+116]
  00278	d8 2d 00 00 00
	00		 fsubr	 DWORD PTR __real@3f000000
  0027e	d8 65 d4	 fsub	 DWORD PTR _fVertSize$[ebp]
  00281	8b 4d e0	 mov	 ecx, DWORD PTR _pVertices$[ebp]
  00284	d9 59 04	 fstp	 DWORD PTR [ecx+4]

; 210  : 	pVertices->v.z   = m_fTopZ ;

  00287	8b 45 e0	 mov	 eax, DWORD PTR _pVertices$[ebp]
  0028a	8b 4d f8	 mov	 ecx, DWORD PTR _this$[ebp]
  0028d	8b 51 78	 mov	 edx, DWORD PTR [ecx+120]
  00290	89 50 08	 mov	 DWORD PTR [eax+8], edx

; 211  : 	pVertices->color = m_colTR ;

  00293	8b 4d f8	 mov	 ecx, DWORD PTR _this$[ebp]
  00296	83 c1 40	 add	 ecx, 64			; 00000040H
  00299	e8 00 00 00 00	 call	 ??BD3DXCOLOR@@QBEKXZ	; D3DXCOLOR::operator unsigned long
  0029e	8b 4d e0	 mov	 ecx, DWORD PTR _pVertices$[ebp]
  002a1	89 41 0c	 mov	 DWORD PTR [ecx+12], eax

; 212  : 	if( m_fTexRep != 0.0f )

  002a4	8b 45 f8	 mov	 eax, DWORD PTR _this$[ebp]
  002a7	d9 40 1c	 fld	 DWORD PTR [eax+28]
  002aa	d8 1d 00 00 00
	00		 fcomp	 DWORD PTR __real@00000000
  002b0	df e0		 fnstsw	 ax
  002b2	f6 c4 44	 test	 ah, 68			; 00000044H
  002b5	7b 1a		 jnp	 SHORT $L85011

; 213  : 	{
; 214  : 		pVertices->tu = m_fTexRep ;

  002b7	8b 45 e0	 mov	 eax, DWORD PTR _pVertices$[ebp]
  002ba	8b 4d f8	 mov	 ecx, DWORD PTR _this$[ebp]
  002bd	8b 51 1c	 mov	 edx, DWORD PTR [ecx+28]
  002c0	89 50 10	 mov	 DWORD PTR [eax+16], edx

; 215  : 		pVertices->tv = m_fTexRep ;

  002c3	8b 45 e0	 mov	 eax, DWORD PTR _pVertices$[ebp]
  002c6	8b 4d f8	 mov	 ecx, DWORD PTR _this$[ebp]
  002c9	8b 51 1c	 mov	 edx, DWORD PTR [ecx+28]
  002cc	89 50 14	 mov	 DWORD PTR [eax+20], edx

; 216  : 	}
; 217  : 	else

  002cf	eb 24		 jmp	 SHORT $L85012
$L85011:

; 218  : 	{
; 219  : 		pVertices->tu = m_fTU + m_fTUExtent ;

  002d1	8b 45 f8	 mov	 eax, DWORD PTR _this$[ebp]
  002d4	8b 4d f8	 mov	 ecx, DWORD PTR _this$[ebp]
  002d7	d9 40 20	 fld	 DWORD PTR [eax+32]
  002da	d8 41 28	 fadd	 DWORD PTR [ecx+40]
  002dd	8b 55 e0	 mov	 edx, DWORD PTR _pVertices$[ebp]
  002e0	d9 5a 10	 fstp	 DWORD PTR [edx+16]

; 220  : 		pVertices->tv = m_fTV + m_fTVExtent ;

  002e3	8b 45 f8	 mov	 eax, DWORD PTR _this$[ebp]
  002e6	8b 4d f8	 mov	 ecx, DWORD PTR _this$[ebp]
  002e9	d9 40 24	 fld	 DWORD PTR [eax+36]
  002ec	d8 41 2c	 fadd	 DWORD PTR [ecx+44]
  002ef	8b 55 e0	 mov	 edx, DWORD PTR _pVertices$[ebp]
  002f2	d9 5a 14	 fstp	 DWORD PTR [edx+20]
$L85012:

; 221  : 	}
; 222  :     pVertices++ ;

  002f5	8b 45 e0	 mov	 eax, DWORD PTR _pVertices$[ebp]
  002f8	83 c0 18	 add	 eax, 24			; 00000018H
  002fb	89 45 e0	 mov	 DWORD PTR _pVertices$[ebp], eax

; 223  : 
; 224  : 	//ods("CScreenOverlay::RestoreDeviceObjects - Unlock: ") ;
; 225  : 	hr = m_pSharedVB->Unlock();

  002fe	8b 45 f8	 mov	 eax, DWORD PTR _this$[ebp]
  00301	8b 48 04	 mov	 ecx, DWORD PTR [eax+4]
  00304	8b 55 f8	 mov	 edx, DWORD PTR _this$[ebp]
  00307	8b 42 04	 mov	 eax, DWORD PTR [edx+4]
  0030a	8b 09		 mov	 ecx, DWORD PTR [ecx]
  0030c	8b f4		 mov	 esi, esp
  0030e	50		 push	 eax
  0030f	ff 51 30	 call	 DWORD PTR [ecx+48]
  00312	3b f4		 cmp	 esi, esp
  00314	e8 00 00 00 00	 call	 __RTC_CheckEsp
  00319	89 45 ec	 mov	 DWORD PTR _hr$[ebp], eax

; 226  : 	assert( !FAILED(hr) );

  0031c	83 7d ec 00	 cmp	 DWORD PTR _hr$[ebp], 0
  00320	7d 1b		 jge	 SHORT $L85093
  00322	a1 00 00 00 00	 mov	 eax, DWORD PTR ?__LINE__Var@?1??RestoreDeviceObjects@CScreenOverlay@@UAEJPAUIDirect3DDevice8@@M@Z@4JA
  00327	83 c0 60	 add	 eax, 96			; 00000060H
  0032a	50		 push	 eax
  0032b	68 00 00 00 00	 push	 OFFSET FLAT:??_C@_0FA@KCKFACEA@c?3?2documents?5and?5settings?2dom?2my@
  00330	68 00 00 00 00	 push	 OFFSET FLAT:??_C@_0M@NKNCPJJD@?$CBFAILED?$CIhr?$CJ?$AA@
  00335	e8 00 00 00 00	 call	 __assert
  0033a	83 c4 0c	 add	 esp, 12			; 0000000cH
$L85093:

; 227  : 	//ods("OK\n") ;
; 228  : 	
; 229  : 	return S_OK ;

  0033d	33 c0		 xor	 eax, eax

; 230  : }

  0033f	52		 push	 edx
  00340	8b cd		 mov	 ecx, ebp
  00342	50		 push	 eax
  00343	8d 15 00 00 00
	00		 lea	 edx, DWORD PTR $L85104
  00349	e8 00 00 00 00	 call	 @_RTC_CheckStackVars@8
  0034e	58		 pop	 eax
  0034f	5a		 pop	 edx
  00350	5f		 pop	 edi
  00351	5e		 pop	 esi
  00352	5b		 pop	 ebx
  00353	81 c4 fc 00 00
	00		 add	 esp, 252		; 000000fcH
  00359	3b ec		 cmp	 ebp, esp
  0035b	e8 00 00 00 00	 call	 __RTC_CheckEsp
  00360	8b e5		 mov	 esp, ebp
  00362	5d		 pop	 ebp
  00363	c2 08 00	 ret	 8
$L85104:
  00366	01 00 00 00	 DD	 1
  0036a	00 00 00 00	 DD	 $L85103
$L85103:
  0036e	e0 ff ff ff	 DD	 -32			; ffffffe0H
  00372	04 00 00 00	 DD	 4
  00376	00 00 00 00	 DD	 $L85102
$L85102:
  0037a	70		 DB	 112			; 00000070H
  0037b	56		 DB	 86			; 00000056H
  0037c	65		 DB	 101			; 00000065H
  0037d	72		 DB	 114			; 00000072H
  0037e	74		 DB	 116			; 00000074H
  0037f	69		 DB	 105			; 00000069H
  00380	63		 DB	 99			; 00000063H
  00381	65		 DB	 101			; 00000065H
  00382	73		 DB	 115			; 00000073H
  00383	00		 DB	 0
?RestoreDeviceObjects@CScreenOverlay@@UAEJPAUIDirect3DDevice8@@M@Z ENDP ; CScreenOverlay::RestoreDeviceObjects
; Function compile flags: /Odt /RTCsu /ZI
_TEXT	ENDS
;	COMDAT ?FrameMove@CScreenOverlay@@UAEJPAUIDirect3DDevice8@@MMPAUOVERLAYVERTEX@@@Z
_TEXT	SEGMENT
_this$ = -8
_pDev$ = 8
_fTimeMult$ = 12
_fAspect$ = 16
_pVertices$ = 20
?FrameMove@CScreenOverlay@@UAEJPAUIDirect3DDevice8@@MMPAUOVERLAYVERTEX@@@Z PROC NEAR ; CScreenOverlay::FrameMove, COMDAT
; _this$ = ecx

; 232  : {

  00000	55		 push	 ebp
  00001	8b ec		 mov	 ebp, esp
  00003	81 ec cc 00 00
	00		 sub	 esp, 204		; 000000ccH
  00009	53		 push	 ebx
  0000a	56		 push	 esi
  0000b	57		 push	 edi
  0000c	51		 push	 ecx
  0000d	8d bd 34 ff ff
	ff		 lea	 edi, DWORD PTR [ebp-204]
  00013	b9 33 00 00 00	 mov	 ecx, 51			; 00000033H
  00018	b8 cc cc cc cc	 mov	 eax, -858993460		; ccccccccH
  0001d	f3 ab		 rep stosd
  0001f	59		 pop	 ecx
  00020	89 4d f8	 mov	 DWORD PTR _this$[ebp], ecx

; 233  : 	return S_OK ;

  00023	33 c0		 xor	 eax, eax

; 234  : }

  00025	5f		 pop	 edi
  00026	5e		 pop	 esi
  00027	5b		 pop	 ebx
  00028	8b e5		 mov	 esp, ebp
  0002a	5d		 pop	 ebp
  0002b	c2 10 00	 ret	 16			; 00000010H
?FrameMove@CScreenOverlay@@UAEJPAUIDirect3DDevice8@@MMPAUOVERLAYVERTEX@@@Z ENDP ; CScreenOverlay::FrameMove
; Function compile flags: /Odt /RTCsu /ZI
_TEXT	ENDS
;	COMDAT ?Render@CScreenOverlay@@UAEJPAUIDirect3DDevice8@@@Z
_TEXT	SEGMENT
_this$ = -8
_pDev$ = 8
?Render@CScreenOverlay@@UAEJPAUIDirect3DDevice8@@@Z PROC NEAR ; CScreenOverlay::Render, COMDAT
; _this$ = ecx

; 236  : {

  00000	55		 push	 ebp
  00001	8b ec		 mov	 ebp, esp
  00003	81 ec cc 00 00
	00		 sub	 esp, 204		; 000000ccH
  00009	53		 push	 ebx
  0000a	56		 push	 esi
  0000b	57		 push	 edi
  0000c	51		 push	 ecx
  0000d	8d bd 34 ff ff
	ff		 lea	 edi, DWORD PTR [ebp-204]
  00013	b9 33 00 00 00	 mov	 ecx, 51			; 00000033H
  00018	b8 cc cc cc cc	 mov	 eax, -858993460		; ccccccccH
  0001d	f3 ab		 rep stosd
  0001f	59		 pop	 ecx
  00020	89 4d f8	 mov	 DWORD PTR _this$[ebp], ecx

; 237  : 	pDev->SetTransform(D3DTS_WORLD, &m_matWorld) ;

  00023	8b 45 f8	 mov	 eax, DWORD PTR _this$[ebp]
  00026	05 88 00 00 00	 add	 eax, 136		; 00000088H
  0002b	8b f4		 mov	 esi, esp
  0002d	50		 push	 eax
  0002e	68 00 01 00 00	 push	 256			; 00000100H
  00033	8b 4d 08	 mov	 ecx, DWORD PTR _pDev$[ebp]
  00036	8b 11		 mov	 edx, DWORD PTR [ecx]
  00038	8b 45 08	 mov	 eax, DWORD PTR _pDev$[ebp]
  0003b	50		 push	 eax
  0003c	ff 92 94 00 00
	00		 call	 DWORD PTR [edx+148]
  00042	3b f4		 cmp	 esi, esp
  00044	e8 00 00 00 00	 call	 __RTC_CheckEsp

; 238  : 	pDev->DrawPrimitive(D3DPT_TRIANGLESTRIP, m_dwIndexOffset, 2) ;

  00049	8b f4		 mov	 esi, esp
  0004b	6a 02		 push	 2
  0004d	8b 45 f8	 mov	 eax, DWORD PTR _this$[ebp]
  00050	8b 48 08	 mov	 ecx, DWORD PTR [eax+8]
  00053	51		 push	 ecx
  00054	6a 05		 push	 5
  00056	8b 55 08	 mov	 edx, DWORD PTR _pDev$[ebp]
  00059	8b 02		 mov	 eax, DWORD PTR [edx]
  0005b	8b 4d 08	 mov	 ecx, DWORD PTR _pDev$[ebp]
  0005e	51		 push	 ecx
  0005f	ff 90 18 01 00
	00		 call	 DWORD PTR [eax+280]
  00065	3b f4		 cmp	 esi, esp
  00067	e8 00 00 00 00	 call	 __RTC_CheckEsp

; 239  : 	return S_OK ;

  0006c	33 c0		 xor	 eax, eax

; 240  : }

  0006e	5f		 pop	 edi
  0006f	5e		 pop	 esi
  00070	5b		 pop	 ebx
  00071	81 c4 cc 00 00
	00		 add	 esp, 204		; 000000ccH
  00077	3b ec		 cmp	 ebp, esp
  00079	e8 00 00 00 00	 call	 __RTC_CheckEsp
  0007e	8b e5		 mov	 esp, ebp
  00080	5d		 pop	 ebp
  00081	c2 04 00	 ret	 4
?Render@CScreenOverlay@@UAEJPAUIDirect3DDevice8@@@Z ENDP ; CScreenOverlay::Render
; Function compile flags: /Odt /RTCsu /ZI
; File c:\dxsdk\include\d3dx8math.h
_TEXT	ENDS
;	COMDAT ??0D3DXVECTOR3@@QAE@XZ
_TEXT	SEGMENT
_this$ = -8
??0D3DXVECTOR3@@QAE@XZ PROC NEAR			; D3DXVECTOR3::D3DXVECTOR3, COMDAT
; _this$ = ecx

; 89   :     D3DXVECTOR3() {};

  00000	55		 push	 ebp
  00001	8b ec		 mov	 ebp, esp
  00003	81 ec cc 00 00
	00		 sub	 esp, 204		; 000000ccH
  00009	53		 push	 ebx
  0000a	56		 push	 esi
  0000b	57		 push	 edi
  0000c	51		 push	 ecx
  0000d	8d bd 34 ff ff
	ff		 lea	 edi, DWORD PTR [ebp-204]
  00013	b9 33 00 00 00	 mov	 ecx, 51			; 00000033H
  00018	b8 cc cc cc cc	 mov	 eax, -858993460		; ccccccccH
  0001d	f3 ab		 rep stosd
  0001f	59		 pop	 ecx
  00020	89 4d f8	 mov	 DWORD PTR _this$[ebp], ecx
  00023	8b 45 f8	 mov	 eax, DWORD PTR _this$[ebp]
  00026	5f		 pop	 edi
  00027	5e		 pop	 esi
  00028	5b		 pop	 ebx
  00029	8b e5		 mov	 esp, ebp
  0002b	5d		 pop	 ebp
  0002c	c3		 ret	 0
??0D3DXVECTOR3@@QAE@XZ ENDP				; D3DXVECTOR3::D3DXVECTOR3
; Function compile flags: /Odt /RTCsu /ZI
_TEXT	ENDS
;	COMDAT ??0D3DXMATRIX@@QAE@XZ
_TEXT	SEGMENT
_this$ = -8
??0D3DXMATRIX@@QAE@XZ PROC NEAR				; D3DXMATRIX::D3DXMATRIX, COMDAT
; _this$ = ecx

; 177  :     D3DXMATRIX() {};

  00000	55		 push	 ebp
  00001	8b ec		 mov	 ebp, esp
  00003	81 ec cc 00 00
	00		 sub	 esp, 204		; 000000ccH
  00009	53		 push	 ebx
  0000a	56		 push	 esi
  0000b	57		 push	 edi
  0000c	51		 push	 ecx
  0000d	8d bd 34 ff ff
	ff		 lea	 edi, DWORD PTR [ebp-204]
  00013	b9 33 00 00 00	 mov	 ecx, 51			; 00000033H
  00018	b8 cc cc cc cc	 mov	 eax, -858993460		; ccccccccH
  0001d	f3 ab		 rep stosd
  0001f	59		 pop	 ecx
  00020	89 4d f8	 mov	 DWORD PTR _this$[ebp], ecx
  00023	8b 45 f8	 mov	 eax, DWORD PTR _this$[ebp]
  00026	5f		 pop	 edi
  00027	5e		 pop	 esi
  00028	5b		 pop	 ebx
  00029	8b e5		 mov	 esp, ebp
  0002b	5d		 pop	 ebp
  0002c	c3		 ret	 0
??0D3DXMATRIX@@QAE@XZ ENDP				; D3DXMATRIX::D3DXMATRIX
; Function compile flags: /Odt /RTCsu /ZI
_TEXT	ENDS
;	COMDAT ??0D3DXCOLOR@@QAE@XZ
_TEXT	SEGMENT
_this$ = -8
??0D3DXCOLOR@@QAE@XZ PROC NEAR				; D3DXCOLOR::D3DXCOLOR, COMDAT
; _this$ = ecx

; 409  :     D3DXCOLOR() {}

  00000	55		 push	 ebp
  00001	8b ec		 mov	 ebp, esp
  00003	81 ec cc 00 00
	00		 sub	 esp, 204		; 000000ccH
  00009	53		 push	 ebx
  0000a	56		 push	 esi
  0000b	57		 push	 edi
  0000c	51		 push	 ecx
  0000d	8d bd 34 ff ff
	ff		 lea	 edi, DWORD PTR [ebp-204]
  00013	b9 33 00 00 00	 mov	 ecx, 51			; 00000033H
  00018	b8 cc cc cc cc	 mov	 eax, -858993460		; ccccccccH
  0001d	f3 ab		 rep stosd
  0001f	59		 pop	 ecx
  00020	89 4d f8	 mov	 DWORD PTR _this$[ebp], ecx
  00023	8b 45 f8	 mov	 eax, DWORD PTR _this$[ebp]
  00026	5f		 pop	 edi
  00027	5e		 pop	 esi
  00028	5b		 pop	 ebx
  00029	8b e5		 mov	 esp, ebp
  0002b	5d		 pop	 ebp
  0002c	c3		 ret	 0
??0D3DXCOLOR@@QAE@XZ ENDP				; D3DXCOLOR::D3DXCOLOR
; Function compile flags: /Odt /RTCsu /ZI
; File c:\dxsdk\include\d3dx8math.inl
_TEXT	ENDS
;	COMDAT ??0D3DXVECTOR3@@QAE@MMM@Z
_TEXT	SEGMENT
_this$ = -8
_fx$ = 8
_fy$ = 12
_fz$ = 16
??0D3DXVECTOR3@@QAE@MMM@Z PROC NEAR			; D3DXVECTOR3::D3DXVECTOR3, COMDAT
; _this$ = ecx

; 179  : {

  00000	55		 push	 ebp
  00001	8b ec		 mov	 ebp, esp
  00003	81 ec cc 00 00
	00		 sub	 esp, 204		; 000000ccH
  00009	53		 push	 ebx
  0000a	56		 push	 esi
  0000b	57		 push	 edi
  0000c	51		 push	 ecx
  0000d	8d bd 34 ff ff
	ff		 lea	 edi, DWORD PTR [ebp-204]
  00013	b9 33 00 00 00	 mov	 ecx, 51			; 00000033H
  00018	b8 cc cc cc cc	 mov	 eax, -858993460		; ccccccccH
  0001d	f3 ab		 rep stosd
  0001f	59		 pop	 ecx
  00020	89 4d f8	 mov	 DWORD PTR _this$[ebp], ecx

; 180  :     x = fx;

  00023	8b 45 f8	 mov	 eax, DWORD PTR _this$[ebp]
  00026	8b 4d 08	 mov	 ecx, DWORD PTR _fx$[ebp]
  00029	89 08		 mov	 DWORD PTR [eax], ecx

; 181  :     y = fy;

  0002b	8b 45 f8	 mov	 eax, DWORD PTR _this$[ebp]
  0002e	8b 4d 0c	 mov	 ecx, DWORD PTR _fy$[ebp]
  00031	89 48 04	 mov	 DWORD PTR [eax+4], ecx

; 182  :     z = fz;

  00034	8b 45 f8	 mov	 eax, DWORD PTR _this$[ebp]
  00037	8b 4d 10	 mov	 ecx, DWORD PTR _fz$[ebp]
  0003a	89 48 08	 mov	 DWORD PTR [eax+8], ecx

; 183  : }

  0003d	8b 45 f8	 mov	 eax, DWORD PTR _this$[ebp]
  00040	5f		 pop	 edi
  00041	5e		 pop	 esi
  00042	5b		 pop	 ebx
  00043	8b e5		 mov	 esp, ebp
  00045	5d		 pop	 ebp
  00046	c2 0c 00	 ret	 12			; 0000000cH
??0D3DXVECTOR3@@QAE@MMM@Z ENDP				; D3DXVECTOR3::D3DXVECTOR3
; Function compile flags: /Odt /RTCsu /ZI
_TEXT	ENDS
;	COMDAT ??0D3DXCOLOR@@QAE@MMMM@Z
_TEXT	SEGMENT
_this$ = -8
_fr$ = 8
_fg$ = 12
_fb$ = 16
_fa$ = 20
??0D3DXCOLOR@@QAE@MMMM@Z PROC NEAR			; D3DXCOLOR::D3DXCOLOR, COMDAT
; _this$ = ecx

; 919  : {

  00000	55		 push	 ebp
  00001	8b ec		 mov	 ebp, esp
  00003	81 ec cc 00 00
	00		 sub	 esp, 204		; 000000ccH
  00009	53		 push	 ebx
  0000a	56		 push	 esi
  0000b	57		 push	 edi
  0000c	51		 push	 ecx
  0000d	8d bd 34 ff ff
	ff		 lea	 edi, DWORD PTR [ebp-204]
  00013	b9 33 00 00 00	 mov	 ecx, 51			; 00000033H
  00018	b8 cc cc cc cc	 mov	 eax, -858993460		; ccccccccH
  0001d	f3 ab		 rep stosd
  0001f	59		 pop	 ecx
  00020	89 4d f8	 mov	 DWORD PTR _this$[ebp], ecx

; 920  :     r = fr;

  00023	8b 45 f8	 mov	 eax, DWORD PTR _this$[ebp]
  00026	8b 4d 08	 mov	 ecx, DWORD PTR _fr$[ebp]
  00029	89 08		 mov	 DWORD PTR [eax], ecx

; 921  :     g = fg;

  0002b	8b 45 f8	 mov	 eax, DWORD PTR _this$[ebp]
  0002e	8b 4d 0c	 mov	 ecx, DWORD PTR _fg$[ebp]
  00031	89 48 04	 mov	 DWORD PTR [eax+4], ecx

; 922  :     b = fb;

  00034	8b 45 f8	 mov	 eax, DWORD PTR _this$[ebp]
  00037	8b 4d 10	 mov	 ecx, DWORD PTR _fb$[ebp]
  0003a	89 48 08	 mov	 DWORD PTR [eax+8], ecx

; 923  :     a = fa;

  0003d	8b 45 f8	 mov	 eax, DWORD PTR _this$[ebp]
  00040	8b 4d 14	 mov	 ecx, DWORD PTR _fa$[ebp]
  00043	89 48 0c	 mov	 DWORD PTR [eax+12], ecx

; 924  : }

  00046	8b 45 f8	 mov	 eax, DWORD PTR _this$[ebp]
  00049	5f		 pop	 edi
  0004a	5e		 pop	 esi
  0004b	5b		 pop	 ebx
  0004c	8b e5		 mov	 esp, ebp
  0004e	5d		 pop	 ebp
  0004f	c2 10 00	 ret	 16			; 00000010H
??0D3DXCOLOR@@QAE@MMMM@Z ENDP				; D3DXCOLOR::D3DXCOLOR
_TEXT	ENDS
PUBLIC	__real@437f0000
EXTRN	__ftol2:NEAR
;	COMDAT __real@437f0000
CONST	SEGMENT
__real@437f0000 DD 0437f0000r			; 255
; Function compile flags: /Odt /RTCsu /ZI
CONST	ENDS
;	COMDAT ??BD3DXCOLOR@@QBEKXZ
_TEXT	SEGMENT
tv135 = -260
tv92 = -260
tv81 = -260
tv70 = -260
tv136 = -256
tv93 = -256
tv82 = -256
tv71 = -256
_dwA$ = -56
_dwB$ = -44
_dwG$ = -32
_dwR$ = -20
_this$ = -8
??BD3DXCOLOR@@QBEKXZ PROC NEAR				; D3DXCOLOR::operator unsigned long, COMDAT
; _this$ = ecx

; 930  : {

  00000	55		 push	 ebp
  00001	8b ec		 mov	 ebp, esp
  00003	81 ec 04 01 00
	00		 sub	 esp, 260		; 00000104H
  00009	53		 push	 ebx
  0000a	56		 push	 esi
  0000b	57		 push	 edi
  0000c	51		 push	 ecx
  0000d	8d bd fc fe ff
	ff		 lea	 edi, DWORD PTR [ebp-260]
  00013	b9 41 00 00 00	 mov	 ecx, 65			; 00000041H
  00018	b8 cc cc cc cc	 mov	 eax, -858993460		; ccccccccH
  0001d	f3 ab		 rep stosd
  0001f	59		 pop	 ecx
  00020	89 4d f8	 mov	 DWORD PTR _this$[ebp], ecx

; 931  :     DWORD dwR = r >= 1.0f ? 0xff : r <= 0.0f ? 0x00 : (DWORD) (r * 255.0f + 0.5f);

  00023	8b 45 f8	 mov	 eax, DWORD PTR _this$[ebp]
  00026	d9 00		 fld	 DWORD PTR [eax]
  00028	d8 1d 00 00 00
	00		 fcomp	 DWORD PTR __real@3f800000
  0002e	df e0		 fnstsw	 ax
  00030	f6 c4 01	 test	 ah, 1
  00033	75 0c		 jne	 SHORT $L85124
  00035	c7 85 00 ff ff
	ff ff 00 00 00	 mov	 DWORD PTR tv71[ebp], 255 ; 000000ffH
  0003f	eb 46		 jmp	 SHORT $L85125
$L85124:
  00041	8b 4d f8	 mov	 ecx, DWORD PTR _this$[ebp]
  00044	d9 01		 fld	 DWORD PTR [ecx]
  00046	d8 1d 00 00 00
	00		 fcomp	 DWORD PTR __real@00000000
  0004c	df e0		 fnstsw	 ax
  0004e	f6 c4 41	 test	 ah, 65			; 00000041H
  00051	7a 0c		 jp	 SHORT $L85122
  00053	c7 85 fc fe ff
	ff 00 00 00 00	 mov	 DWORD PTR tv70[ebp], 0
  0005d	eb 1c		 jmp	 SHORT $L85123
$L85122:
  0005f	8b 55 f8	 mov	 edx, DWORD PTR _this$[ebp]
  00062	d9 02		 fld	 DWORD PTR [edx]
  00064	d8 0d 00 00 00
	00		 fmul	 DWORD PTR __real@437f0000
  0006a	d8 05 00 00 00
	00		 fadd	 DWORD PTR __real@3f000000
  00070	e8 00 00 00 00	 call	 __ftol2
  00075	89 85 fc fe ff
	ff		 mov	 DWORD PTR tv70[ebp], eax
$L85123:
  0007b	8b 85 fc fe ff
	ff		 mov	 eax, DWORD PTR tv70[ebp]
  00081	89 85 00 ff ff
	ff		 mov	 DWORD PTR tv71[ebp], eax
$L85125:
  00087	8b 8d 00 ff ff
	ff		 mov	 ecx, DWORD PTR tv71[ebp]
  0008d	89 4d ec	 mov	 DWORD PTR _dwR$[ebp], ecx

; 932  :     DWORD dwG = g >= 1.0f ? 0xff : g <= 0.0f ? 0x00 : (DWORD) (g * 255.0f + 0.5f);

  00090	8b 45 f8	 mov	 eax, DWORD PTR _this$[ebp]
  00093	d9 40 04	 fld	 DWORD PTR [eax+4]
  00096	d8 1d 00 00 00
	00		 fcomp	 DWORD PTR __real@3f800000
  0009c	df e0		 fnstsw	 ax
  0009e	f6 c4 01	 test	 ah, 1
  000a1	75 0c		 jne	 SHORT $L85128
  000a3	c7 85 00 ff ff
	ff ff 00 00 00	 mov	 DWORD PTR tv82[ebp], 255 ; 000000ffH
  000ad	eb 48		 jmp	 SHORT $L85129
$L85128:
  000af	8b 4d f8	 mov	 ecx, DWORD PTR _this$[ebp]
  000b2	d9 41 04	 fld	 DWORD PTR [ecx+4]
  000b5	d8 1d 00 00 00
	00		 fcomp	 DWORD PTR __real@00000000
  000bb	df e0		 fnstsw	 ax
  000bd	f6 c4 41	 test	 ah, 65			; 00000041H
  000c0	7a 0c		 jp	 SHORT $L85126
  000c2	c7 85 fc fe ff
	ff 00 00 00 00	 mov	 DWORD PTR tv81[ebp], 0
  000cc	eb 1d		 jmp	 SHORT $L85127
$L85126:
  000ce	8b 55 f8	 mov	 edx, DWORD PTR _this$[ebp]
  000d1	d9 42 04	 fld	 DWORD PTR [edx+4]
  000d4	d8 0d 00 00 00
	00		 fmul	 DWORD PTR __real@437f0000
  000da	d8 05 00 00 00
	00		 fadd	 DWORD PTR __real@3f000000
  000e0	e8 00 00 00 00	 call	 __ftol2
  000e5	89 85 fc fe ff
	ff		 mov	 DWORD PTR tv81[ebp], eax
$L85127:
  000eb	8b 85 fc fe ff
	ff		 mov	 eax, DWORD PTR tv81[ebp]
  000f1	89 85 00 ff ff
	ff		 mov	 DWORD PTR tv82[ebp], eax
$L85129:
  000f7	8b 8d 00 ff ff
	ff		 mov	 ecx, DWORD PTR tv82[ebp]
  000fd	89 4d e0	 mov	 DWORD PTR _dwG$[ebp], ecx

; 933  :     DWORD dwB = b >= 1.0f ? 0xff : b <= 0.0f ? 0x00 : (DWORD) (b * 255.0f + 0.5f);

  00100	8b 45 f8	 mov	 eax, DWORD PTR _this$[ebp]
  00103	d9 40 08	 fld	 DWORD PTR [eax+8]
  00106	d8 1d 00 00 00
	00		 fcomp	 DWORD PTR __real@3f800000
  0010c	df e0		 fnstsw	 ax
  0010e	f6 c4 01	 test	 ah, 1
  00111	75 0c		 jne	 SHORT $L85132
  00113	c7 85 00 ff ff
	ff ff 00 00 00	 mov	 DWORD PTR tv93[ebp], 255 ; 000000ffH
  0011d	eb 48		 jmp	 SHORT $L85133
$L85132:
  0011f	8b 4d f8	 mov	 ecx, DWORD PTR _this$[ebp]
  00122	d9 41 08	 fld	 DWORD PTR [ecx+8]
  00125	d8 1d 00 00 00
	00		 fcomp	 DWORD PTR __real@00000000
  0012b	df e0		 fnstsw	 ax
  0012d	f6 c4 41	 test	 ah, 65			; 00000041H
  00130	7a 0c		 jp	 SHORT $L85130
  00132	c7 85 fc fe ff
	ff 00 00 00 00	 mov	 DWORD PTR tv92[ebp], 0
  0013c	eb 1d		 jmp	 SHORT $L85131
$L85130:
  0013e	8b 55 f8	 mov	 edx, DWORD PTR _this$[ebp]
  00141	d9 42 08	 fld	 DWORD PTR [edx+8]
  00144	d8 0d 00 00 00
	00		 fmul	 DWORD PTR __real@437f0000
  0014a	d8 05 00 00 00
	00		 fadd	 DWORD PTR __real@3f000000
  00150	e8 00 00 00 00	 call	 __ftol2
  00155	89 85 fc fe ff
	ff		 mov	 DWORD PTR tv92[ebp], eax
$L85131:
  0015b	8b 85 fc fe ff
	ff		 mov	 eax, DWORD PTR tv92[ebp]
  00161	89 85 00 ff ff
	ff		 mov	 DWORD PTR tv93[ebp], eax
$L85133:
  00167	8b 8d 00 ff ff
	ff		 mov	 ecx, DWORD PTR tv93[ebp]
  0016d	89 4d d4	 mov	 DWORD PTR _dwB$[ebp], ecx

; 934  :     DWORD dwA = a >= 1.0f ? 0xff : a <= 0.0f ? 0x00 : (DWORD) (a * 255.0f + 0.5f);

  00170	8b 45 f8	 mov	 eax, DWORD PTR _this$[ebp]
  00173	d9 40 0c	 fld	 DWORD PTR [eax+12]
  00176	d8 1d 00 00 00
	00		 fcomp	 DWORD PTR __real@3f800000
  0017c	df e0		 fnstsw	 ax
  0017e	f6 c4 01	 test	 ah, 1
  00181	75 0c		 jne	 SHORT $L85136
  00183	c7 85 00 ff ff
	ff ff 00 00 00	 mov	 DWORD PTR tv136[ebp], 255 ; 000000ffH
  0018d	eb 48		 jmp	 SHORT $L85137
$L85136:
  0018f	8b 4d f8	 mov	 ecx, DWORD PTR _this$[ebp]
  00192	d9 41 0c	 fld	 DWORD PTR [ecx+12]
  00195	d8 1d 00 00 00
	00		 fcomp	 DWORD PTR __real@00000000
  0019b	df e0		 fnstsw	 ax
  0019d	f6 c4 41	 test	 ah, 65			; 00000041H
  001a0	7a 0c		 jp	 SHORT $L85134
  001a2	c7 85 fc fe ff
	ff 00 00 00 00	 mov	 DWORD PTR tv135[ebp], 0
  001ac	eb 1d		 jmp	 SHORT $L85135
$L85134:
  001ae	8b 55 f8	 mov	 edx, DWORD PTR _this$[ebp]
  001b1	d9 42 0c	 fld	 DWORD PTR [edx+12]
  001b4	d8 0d 00 00 00
	00		 fmul	 DWORD PTR __real@437f0000
  001ba	d8 05 00 00 00
	00		 fadd	 DWORD PTR __real@3f000000
  001c0	e8 00 00 00 00	 call	 __ftol2
  001c5	89 85 fc fe ff
	ff		 mov	 DWORD PTR tv135[ebp], eax
$L85135:
  001cb	8b 85 fc fe ff
	ff		 mov	 eax, DWORD PTR tv135[ebp]
  001d1	89 85 00 ff ff
	ff		 mov	 DWORD PTR tv136[ebp], eax
$L85137:
  001d7	8b 8d 00 ff ff
	ff		 mov	 ecx, DWORD PTR tv136[ebp]
  001dd	89 4d c8	 mov	 DWORD PTR _dwA$[ebp], ecx

; 935  : 
; 936  :     return (dwA << 24) | (dwR << 16) | (dwG << 8) | dwB;

  001e0	8b 45 c8	 mov	 eax, DWORD PTR _dwA$[ebp]
  001e3	c1 e0 18	 shl	 eax, 24			; 00000018H
  001e6	8b 4d ec	 mov	 ecx, DWORD PTR _dwR$[ebp]
  001e9	c1 e1 10	 shl	 ecx, 16			; 00000010H
  001ec	0b c1		 or	 eax, ecx
  001ee	8b 55 e0	 mov	 edx, DWORD PTR _dwG$[ebp]
  001f1	c1 e2 08	 shl	 edx, 8
  001f4	0b c2		 or	 eax, edx
  001f6	0b 45 d4	 or	 eax, DWORD PTR _dwB$[ebp]

; 937  : }

  001f9	5f		 pop	 edi
  001fa	5e		 pop	 esi
  001fb	5b		 pop	 ebx
  001fc	8b e5		 mov	 esp, ebp
  001fe	5d		 pop	 ebp
  001ff	c3		 ret	 0
??BD3DXCOLOR@@QBEKXZ ENDP				; D3DXCOLOR::operator unsigned long
_TEXT	ENDS
END
