; Listing generated by Microsoft (R) Optimizing Compiler Version 13.00.9466 

	TITLE	CSky.cpp
	.386P
include listing.inc
if @Version gt 510
.model FLAT
else
_TEXT	SEGMENT PARA USE32 PUBLIC 'CODE'
_TEXT	ENDS
_DATA	SEGMENT DWORD USE32 PUBLIC 'DATA'
_DATA	ENDS
CONST	SEGMENT DWORD USE32 PUBLIC 'CONST'
CONST	ENDS
_BSS	SEGMENT DWORD USE32 PUBLIC 'BSS'
_BSS	ENDS
$$SYMBOLS	SEGMENT BYTE USE32 'DEBSYM'
$$SYMBOLS	ENDS
$$TYPES	SEGMENT BYTE USE32 'DEBTYP'
$$TYPES	ENDS
_TLS	SEGMENT DWORD USE32 PUBLIC 'TLS'
_TLS	ENDS
;	COMDAT ??_C@_0EG@INCBMHMB@c?3?2documents?5and?5settings?2dom?2my@
CONST	SEGMENT DWORD USE32 PUBLIC 'CONST'
CONST	ENDS
;	COMDAT ??_C@_05DDPCBDEK@m_pRO?$AA@
CONST	SEGMENT DWORD USE32 PUBLIC 'CONST'
CONST	ENDS
;	COMDAT ??_C@_08OFPOHIDN@hr?$DN?$DNS_OK?$AA@
CONST	SEGMENT DWORD USE32 PUBLIC 'CONST'
CONST	ENDS
;	COMDAT ??_C@_0BM@NGNHCIBK@CSky?3?3RestoreDeviceObjects?6?$AA@
CONST	SEGMENT DWORD USE32 PUBLIC 'CONST'
CONST	ENDS
;	COMDAT ??_C@_09GPIEGEMI@pVertices?$AA@
CONST	SEGMENT DWORD USE32 PUBLIC 'CONST'
CONST	ENDS
;	COMDAT ??_C@_08GANEOFJJ@pIndices?$AA@
CONST	SEGMENT DWORD USE32 PUBLIC 'CONST'
CONST	ENDS
;	COMDAT ??_C@_0BK@FJMAAAMI@dwNumVertices?5?$DM?5SD_MAX_VS?$AA@
CONST	SEGMENT DWORD USE32 PUBLIC 'CONST'
CONST	ENDS
;	COMDAT ??_C@_0BN@NJLOINGM@dwNumIndices?5?$DM?5SD_MAX_VS?5?$CK?53?$AA@
CONST	SEGMENT DWORD USE32 PUBLIC 'CONST'
CONST	ENDS
;	COMDAT _IsEqualGUID
_TEXT	SEGMENT PARA USE32 PUBLIC 'CODE'
_TEXT	ENDS
;	COMDAT _==
_TEXT	SEGMENT PARA USE32 PUBLIC 'CODE'
_TEXT	ENDS
;	COMDAT _sqrtf
_TEXT	SEGMENT PARA USE32 PUBLIC 'CODE'
_TEXT	ENDS
;	COMDAT ??0D3DXVECTOR3@@QAE@XZ
_TEXT	SEGMENT PARA USE32 PUBLIC 'CODE'
_TEXT	ENDS
;	COMDAT ??0D3DXMATRIX@@QAE@XZ
_TEXT	SEGMENT PARA USE32 PUBLIC 'CODE'
_TEXT	ENDS
;	COMDAT ??0D3DXQUATERNION@@QAE@XZ
_TEXT	SEGMENT PARA USE32 PUBLIC 'CODE'
_TEXT	ENDS
;	COMDAT ??0D3DXVECTOR2@@QAE@MM@Z
_TEXT	SEGMENT PARA USE32 PUBLIC 'CODE'
_TEXT	ENDS
;	COMDAT ??0D3DXVECTOR3@@QAE@MMM@Z
_TEXT	SEGMENT PARA USE32 PUBLIC 'CODE'
_TEXT	ENDS
;	COMDAT ??GD3DXVECTOR3@@QBE?AU0@XZ
_TEXT	SEGMENT PARA USE32 PUBLIC 'CODE'
_TEXT	ENDS
;	COMDAT ??KD3DXVECTOR3@@QBE?AU0@M@Z
_TEXT	SEGMENT PARA USE32 PUBLIC 'CODE'
_TEXT	ENDS
;	COMDAT ??D@YA?AUD3DXVECTOR3@@MABU0@@Z
_TEXT	SEGMENT PARA USE32 PUBLIC 'CODE'
_TEXT	ENDS
;	COMDAT ??0D3DXVECTOR4@@QAE@MMMM@Z
_TEXT	SEGMENT PARA USE32 PUBLIC 'CODE'
_TEXT	ENDS
;	COMDAT ??0D3DXMATRIX@@QAE@PBM@Z
_TEXT	SEGMENT PARA USE32 PUBLIC 'CODE'
_TEXT	ENDS
;	COMDAT ??0D3DXMATRIX@@QAE@ABU_D3DMATRIX@@@Z
_TEXT	SEGMENT PARA USE32 PUBLIC 'CODE'
_TEXT	ENDS
;	COMDAT ??0D3DXMATRIX@@QAE@MMMMMMMMMMMMMMMM@Z
_TEXT	SEGMENT PARA USE32 PUBLIC 'CODE'
_TEXT	ENDS
;	COMDAT ??0D3DXQUATERNION@@QAE@MMMM@Z
_TEXT	SEGMENT PARA USE32 PUBLIC 'CODE'
_TEXT	ENDS
;	COMDAT ??0D3DXPLANE@@QAE@MMMM@Z
_TEXT	SEGMENT PARA USE32 PUBLIC 'CODE'
_TEXT	ENDS
;	COMDAT ??0D3DXCOLOR@@QAE@MMMM@Z
_TEXT	SEGMENT PARA USE32 PUBLIC 'CODE'
_TEXT	ENDS
;	COMDAT ??0UNCOLOREDVERTEX@@QAE@XZ
_TEXT	SEGMENT PARA USE32 PUBLIC 'CODE'
_TEXT	ENDS
;	COMDAT ??0UNCOLOREDVERTEX@@QAE@MMMMMMMM@Z
_TEXT	SEGMENT PARA USE32 PUBLIC 'CODE'
_TEXT	ENDS
;	COMDAT ??0CSky@@QAE@MH@Z
_TEXT	SEGMENT PARA USE32 PUBLIC 'CODE'
_TEXT	ENDS
;	COMDAT ??1CSky@@QAE@XZ
_TEXT	SEGMENT PARA USE32 PUBLIC 'CODE'
_TEXT	ENDS
;	COMDAT ??_GCProceduralRenderObject@@QAEPAXI@Z
_TEXT	SEGMENT PARA USE32 PUBLIC 'CODE'
_TEXT	ENDS
;	COMDAT ?RestoreDeviceObjects@CSky@@QAEJPAUIDirect3D8@@PAUIDirect3DDevice8@@@Z
_TEXT	SEGMENT PARA USE32 PUBLIC 'CODE'
_TEXT	ENDS
;	COMDAT ?InvalidateDeviceObjects@CSky@@QAEJXZ
_TEXT	SEGMENT PARA USE32 PUBLIC 'CODE'
_TEXT	ENDS
;	COMDAT ?Render@CSky@@QAEJPAUIDirect3DDevice8@@PAVCTextures@@PAKPAUD3DXMATRIX@@PAUD3DXVECTOR3@@@Z
_TEXT	SEGMENT PARA USE32 PUBLIC 'CODE'
_TEXT	ENDS
;	COMDAT ?FrameMove@CSky@@QAEJPAUIDirect3DDevice8@@PAVCUserInput@@MPAVCCamera@@PAUD3DXMATRIX@@PAU_D3DVIEWPORT8@@@Z
_TEXT	SEGMENT PARA USE32 PUBLIC 'CODE'
_TEXT	ENDS
;	COMDAT ?Create@CSky@@QAEJH@Z
_TEXT	SEGMENT PARA USE32 PUBLIC 'CODE'
_TEXT	ENDS
;	COMDAT ??_H@YGXPAXIHP6EPAX0@Z@Z
_TEXT	SEGMENT PARA USE32 PUBLIC 'CODE'
_TEXT	ENDS
;	COMDAT ?CreateHalfSphere@CSky@@IAEJPAUUNCOLOREDVERTEX@@PAKPAG1MK@Z
_TEXT	SEGMENT PARA USE32 PUBLIC 'CODE'
_TEXT	ENDS
;	COMDAT ?__LINE__Var@?1??CreateHalfSphere@CSky@@IAEJPAUUNCOLOREDVERTEX@@PAKPAG1MK@Z@4JA
_DATA	SEGMENT DWORD USE32 PUBLIC 'DATA'
_DATA	ENDS
;	COMDAT ?__LINE__Var@?1??Create@CSky@@QAEJH@Z@4JA
_DATA	SEGMENT DWORD USE32 PUBLIC 'DATA'
_DATA	ENDS
;	COMDAT ?__LINE__Var@?1???0CSky@@QAE@MH@Z@4JA
_DATA	SEGMENT DWORD USE32 PUBLIC 'DATA'
_DATA	ENDS
FLAT	GROUP _DATA, CONST, _BSS
	ASSUME	CS: FLAT, DS: FLAT, SS: FLAT
endif

INCLUDELIB LIBCMTD
INCLUDELIB OLDNAMES

CONST	SEGMENT
_g_PI	DD	040490fdbr			; 3.14159
CONST	ENDS
PUBLIC	??0CSky@@QAE@MH@Z				; CSky::CSky
PUBLIC	?Create@CSky@@QAEJH@Z				; CSky::Create
PUBLIC	?__LINE__Var@?1???0CSky@@QAE@MH@Z@4JA		; `CSky::CSky'::`2'::__LINE__Var
PUBLIC	??_C@_0EG@INCBMHMB@c?3?2documents?5and?5settings?2dom?2my@ ; `string'
PUBLIC	??_C@_05DDPCBDEK@m_pRO?$AA@			; `string'
PUBLIC	??_C@_08OFPOHIDN@hr?$DN?$DNS_OK?$AA@		; `string'
EXTRN	??2@YAPAXI@Z:NEAR				; operator new
EXTRN	??0CProceduralRenderObject@@QAE@XZ:NEAR		; CProceduralRenderObject::CProceduralRenderObject
EXTRN	?ScaleX7LTs@CProceduralRenderObject@@QAEXM@Z:NEAR ; CProceduralRenderObject::ScaleX7LTs
EXTRN	?IndexToList@CProceduralRenderObject@@QAEJXZ:NEAR ; CProceduralRenderObject::IndexToList
EXTRN	__assert:NEAR
EXTRN	__RTC_InitBase:NEAR
EXTRN	__RTC_Shutdown:NEAR
EXTRN	__RTC_CheckEsp:NEAR
EXTRN	__fltused:NEAR
;	COMDAT rtc$IMZ
; File c:\documents and settings\dom\my documents\_dev\ae\xlr8a\x7g\csky.cpp
rtc$IMZ	SEGMENT
__RTC_InitBase.rtc$IMZ DD FLAT:__RTC_InitBase
rtc$IMZ	ENDS
;	COMDAT rtc$TMZ
rtc$TMZ	SEGMENT
__RTC_Shutdown.rtc$TMZ DD FLAT:__RTC_Shutdown
rtc$TMZ	ENDS
;	COMDAT ?__LINE__Var@?1???0CSky@@QAE@MH@Z@4JA
_DATA	SEGMENT
?__LINE__Var@?1???0CSky@@QAE@MH@Z@4JA DD 0bH		; `CSky::CSky'::`2'::__LINE__Var
_DATA	ENDS
;	COMDAT ??_C@_0EG@INCBMHMB@c?3?2documents?5and?5settings?2dom?2my@
CONST	SEGMENT
??_C@_0EG@INCBMHMB@c?3?2documents?5and?5settings?2dom?2my@ DB 'c:\documen'
	DB	'ts and settings\dom\my documents\_dev\ae\xlr8a\x7g\csky.cpp', 00H ; `string'
CONST	ENDS
;	COMDAT ??_C@_05DDPCBDEK@m_pRO?$AA@
CONST	SEGMENT
??_C@_05DDPCBDEK@m_pRO?$AA@ DB 'm_pRO', 00H		; `string'
CONST	ENDS
;	COMDAT ??_C@_08OFPOHIDN@hr?$DN?$DNS_OK?$AA@
CONST	SEGMENT
??_C@_08OFPOHIDN@hr?$DN?$DNS_OK?$AA@ DB 'hr==S_OK', 00H	; `string'
; Function compile flags: /Odt /RTCsu /ZI
CONST	ENDS
;	COMDAT ??0CSky@@QAE@MH@Z
_TEXT	SEGMENT
tv69 = -232
$T85671 = -224
_hr$ = -20
_this$ = -8
_f$ = 8
_bBlackSky$ = 12
??0CSky@@QAE@MH@Z PROC NEAR				; CSky::CSky, COMDAT
; _this$ = ecx

; 11   : 	{

  00000	55		 push	 ebp
  00001	8b ec		 mov	 ebp, esp
  00003	81 ec e8 00 00
	00		 sub	 esp, 232		; 000000e8H
  00009	53		 push	 ebx
  0000a	56		 push	 esi
  0000b	57		 push	 edi
  0000c	51		 push	 ecx
  0000d	8d bd 18 ff ff
	ff		 lea	 edi, DWORD PTR [ebp-232]
  00013	b9 3a 00 00 00	 mov	 ecx, 58			; 0000003aH
  00018	b8 cc cc cc cc	 mov	 eax, -858993460		; ccccccccH
  0001d	f3 ab		 rep stosd
  0001f	59		 pop	 ecx
  00020	89 4d f8	 mov	 DWORD PTR _this$[ebp], ecx

; 12   : 		HRESULT hr ;
; 13   : 
; 14   : 	//
; 15   : 	// Render Object:
; 16   : 	//
; 17   : 		m_pRO = NULL ;

  00023	8b 45 f8	 mov	 eax, DWORD PTR _this$[ebp]
  00026	c7 00 00 00 00
	00		 mov	 DWORD PTR [eax], 0

; 18   : 		m_pRO = new CProceduralRenderObject() ;

  0002c	68 b8 0a 00 00	 push	 2744			; 00000ab8H
  00031	e8 00 00 00 00	 call	 ??2@YAPAXI@Z		; operator new
  00036	83 c4 04	 add	 esp, 4
  00039	89 85 20 ff ff
	ff		 mov	 DWORD PTR $T85671[ebp], eax
  0003f	83 bd 20 ff ff
	ff 00		 cmp	 DWORD PTR $T85671[ebp], 0
  00046	74 13		 je	 SHORT $L85672
  00048	8b 8d 20 ff ff
	ff		 mov	 ecx, DWORD PTR $T85671[ebp]
  0004e	e8 00 00 00 00	 call	 ??0CProceduralRenderObject@@QAE@XZ ; CProceduralRenderObject::CProceduralRenderObject
  00053	89 85 18 ff ff
	ff		 mov	 DWORD PTR tv69[ebp], eax
  00059	eb 0a		 jmp	 SHORT $L85673
$L85672:
  0005b	c7 85 18 ff ff
	ff 00 00 00 00	 mov	 DWORD PTR tv69[ebp], 0
$L85673:
  00065	8b 45 f8	 mov	 eax, DWORD PTR _this$[ebp]
  00068	8b 8d 18 ff ff
	ff		 mov	 ecx, DWORD PTR tv69[ebp]
  0006e	89 08		 mov	 DWORD PTR [eax], ecx

; 19   : 		assert( m_pRO );

  00070	8b 45 f8	 mov	 eax, DWORD PTR _this$[ebp]
  00073	83 38 00	 cmp	 DWORD PTR [eax], 0
  00076	75 1c		 jne	 SHORT $L85674
  00078	8b 0d 00 00 00
	00		 mov	 ecx, DWORD PTR ?__LINE__Var@?1???0CSky@@QAE@MH@Z@4JA
  0007e	83 c1 08	 add	 ecx, 8
  00081	51		 push	 ecx
  00082	68 00 00 00 00	 push	 OFFSET FLAT:??_C@_0EG@INCBMHMB@c?3?2documents?5and?5settings?2dom?2my@
  00087	68 00 00 00 00	 push	 OFFSET FLAT:??_C@_05DDPCBDEK@m_pRO?$AA@
  0008c	e8 00 00 00 00	 call	 __assert
  00091	83 c4 0c	 add	 esp, 12			; 0000000cH
$L85674:

; 20   : 
; 21   : 		m_pRO->m_dwFVF = MYFVF_COLOREDVERTEX ; //WITHNORMAL2TEX ;

  00094	8b 45 f8	 mov	 eax, DWORD PTR _this$[ebp]
  00097	8b 08		 mov	 ecx, DWORD PTR [eax]
  00099	c7 01 c2 01 00
	00		 mov	 DWORD PTR [ecx], 450	; 000001c2H

; 22   : 		/*m_pRO->m_dwMeshOptions = D3DXMESH_VB_DYNAMIC | D3DXMESH_IB_WRITEONLY ;*/
; 23   : 		
; 24   : 	//
; 25   : 	// Geometry:
; 26   : 	//
; 27   : 		hr = Create( bBlackSky );

  0009f	8b 45 0c	 mov	 eax, DWORD PTR _bBlackSky$[ebp]
  000a2	50		 push	 eax
  000a3	8b 4d f8	 mov	 ecx, DWORD PTR _this$[ebp]
  000a6	e8 00 00 00 00	 call	 ?Create@CSky@@QAEJH@Z	; CSky::Create
  000ab	89 45 ec	 mov	 DWORD PTR _hr$[ebp], eax

; 28   : 		assert( hr==S_OK );

  000ae	83 7d ec 00	 cmp	 DWORD PTR _hr$[ebp], 0
  000b2	74 1b		 je	 SHORT $L85675
  000b4	a1 00 00 00 00	 mov	 eax, DWORD PTR ?__LINE__Var@?1???0CSky@@QAE@MH@Z@4JA
  000b9	83 c0 11	 add	 eax, 17			; 00000011H
  000bc	50		 push	 eax
  000bd	68 00 00 00 00	 push	 OFFSET FLAT:??_C@_0EG@INCBMHMB@c?3?2documents?5and?5settings?2dom?2my@
  000c2	68 00 00 00 00	 push	 OFFSET FLAT:??_C@_08OFPOHIDN@hr?$DN?$DNS_OK?$AA@
  000c7	e8 00 00 00 00	 call	 __assert
  000cc	83 c4 0c	 add	 esp, 12			; 0000000cH
$L85675:

; 29   : 		
; 30   : 		m_pRO->ScaleX7LTs( f );

  000cf	8b 45 08	 mov	 eax, DWORD PTR _f$[ebp]
  000d2	50		 push	 eax
  000d3	8b 4d f8	 mov	 ecx, DWORD PTR _this$[ebp]
  000d6	8b 09		 mov	 ecx, DWORD PTR [ecx]
  000d8	e8 00 00 00 00	 call	 ?ScaleX7LTs@CProceduralRenderObject@@QAEXM@Z ; CProceduralRenderObject::ScaleX7LTs

; 31   : 		//m_pRO->TranslateX7LTs(0.0f, -f / 4.0f, 0.0f) ;
; 32   : 
; 33   : 		hr = m_pRO->IndexToList() ;

  000dd	8b 45 f8	 mov	 eax, DWORD PTR _this$[ebp]
  000e0	8b 08		 mov	 ecx, DWORD PTR [eax]
  000e2	e8 00 00 00 00	 call	 ?IndexToList@CProceduralRenderObject@@QAEJXZ ; CProceduralRenderObject::IndexToList
  000e7	89 45 ec	 mov	 DWORD PTR _hr$[ebp], eax

; 34   : 		assert( hr==S_OK );

  000ea	83 7d ec 00	 cmp	 DWORD PTR _hr$[ebp], 0
  000ee	74 1b		 je	 SHORT $L85414
  000f0	a1 00 00 00 00	 mov	 eax, DWORD PTR ?__LINE__Var@?1???0CSky@@QAE@MH@Z@4JA
  000f5	83 c0 17	 add	 eax, 23			; 00000017H
  000f8	50		 push	 eax
  000f9	68 00 00 00 00	 push	 OFFSET FLAT:??_C@_0EG@INCBMHMB@c?3?2documents?5and?5settings?2dom?2my@
  000fe	68 00 00 00 00	 push	 OFFSET FLAT:??_C@_08OFPOHIDN@hr?$DN?$DNS_OK?$AA@
  00103	e8 00 00 00 00	 call	 __assert
  00108	83 c4 0c	 add	 esp, 12			; 0000000cH
$L85414:

; 35   : 	}

  0010b	8b 45 f8	 mov	 eax, DWORD PTR _this$[ebp]
  0010e	5f		 pop	 edi
  0010f	5e		 pop	 esi
  00110	5b		 pop	 ebx
  00111	81 c4 e8 00 00
	00		 add	 esp, 232		; 000000e8H
  00117	3b ec		 cmp	 ebp, esp
  00119	e8 00 00 00 00	 call	 __RTC_CheckEsp
  0011e	8b e5		 mov	 esp, ebp
  00120	5d		 pop	 ebp
  00121	c2 08 00	 ret	 8
??0CSky@@QAE@MH@Z ENDP					; CSky::CSky
_TEXT	ENDS
PUBLIC	??_GCProceduralRenderObject@@QAEPAXI@Z		; CProceduralRenderObject::`scalar deleting destructor'
PUBLIC	??1CSky@@QAE@XZ					; CSky::~CSky
; Function compile flags: /Odt /RTCsu /ZI
;	COMDAT ??1CSky@@QAE@XZ
_TEXT	SEGMENT
tv69 = -232
$T85690 = -224
$T85689 = -212
_this$ = -8
??1CSky@@QAE@XZ PROC NEAR				; CSky::~CSky, COMDAT
; _this$ = ecx

; 37   : 	{

  00000	55		 push	 ebp
  00001	8b ec		 mov	 ebp, esp
  00003	81 ec e8 00 00
	00		 sub	 esp, 232		; 000000e8H
  00009	53		 push	 ebx
  0000a	56		 push	 esi
  0000b	57		 push	 edi
  0000c	51		 push	 ecx
  0000d	8d bd 18 ff ff
	ff		 lea	 edi, DWORD PTR [ebp-232]
  00013	b9 3a 00 00 00	 mov	 ecx, 58			; 0000003aH
  00018	b8 cc cc cc cc	 mov	 eax, -858993460		; ccccccccH
  0001d	f3 ab		 rep stosd
  0001f	59		 pop	 ecx
  00020	89 4d f8	 mov	 DWORD PTR _this$[ebp], ecx

; 38   : 		SAFE_DELETE(m_pRO)

  00023	8b 45 f8	 mov	 eax, DWORD PTR _this$[ebp]
  00026	83 38 00	 cmp	 DWORD PTR [eax], 0
  00029	74 48		 je	 SHORT $L85429
  0002b	8b 45 f8	 mov	 eax, DWORD PTR _this$[ebp]
  0002e	8b 08		 mov	 ecx, DWORD PTR [eax]
  00030	89 8d 20 ff ff
	ff		 mov	 DWORD PTR $T85690[ebp], ecx
  00036	8b 95 20 ff ff
	ff		 mov	 edx, DWORD PTR $T85690[ebp]
  0003c	89 95 2c ff ff
	ff		 mov	 DWORD PTR $T85689[ebp], edx
  00042	83 bd 2c ff ff
	ff 00		 cmp	 DWORD PTR $T85689[ebp], 0
  00049	74 15		 je	 SHORT $L85691
  0004b	6a 01		 push	 1
  0004d	8b 8d 2c ff ff
	ff		 mov	 ecx, DWORD PTR $T85689[ebp]
  00053	e8 00 00 00 00	 call	 ??_GCProceduralRenderObject@@QAEPAXI@Z
  00058	89 85 18 ff ff
	ff		 mov	 DWORD PTR tv69[ebp], eax
  0005e	eb 0a		 jmp	 SHORT $L85692
$L85691:
  00060	c7 85 18 ff ff
	ff 00 00 00 00	 mov	 DWORD PTR tv69[ebp], 0
$L85692:
  0006a	8b 45 f8	 mov	 eax, DWORD PTR _this$[ebp]
  0006d	c7 00 00 00 00
	00		 mov	 DWORD PTR [eax], 0
$L85429:

; 39   : 	}

  00073	5f		 pop	 edi
  00074	5e		 pop	 esi
  00075	5b		 pop	 ebx
  00076	81 c4 e8 00 00
	00		 add	 esp, 232		; 000000e8H
  0007c	3b ec		 cmp	 ebp, esp
  0007e	e8 00 00 00 00	 call	 __RTC_CheckEsp
  00083	8b e5		 mov	 esp, ebp
  00085	5d		 pop	 ebp
  00086	c3		 ret	 0
??1CSky@@QAE@XZ ENDP					; CSky::~CSky
_TEXT	ENDS
EXTRN	??3@YAXPAX@Z:NEAR				; operator delete
EXTRN	??1CProceduralRenderObject@@QAE@XZ:NEAR		; CProceduralRenderObject::~CProceduralRenderObject
; Function compile flags: /Odt /RTCsu /ZI
;	COMDAT ??_GCProceduralRenderObject@@QAEPAXI@Z
_TEXT	SEGMENT
_this$ = -8
___flags$ = 8
??_GCProceduralRenderObject@@QAEPAXI@Z PROC NEAR	; CProceduralRenderObject::`scalar deleting destructor', COMDAT
; _this$ = ecx
  00000	55		 push	 ebp
  00001	8b ec		 mov	 ebp, esp
  00003	81 ec cc 00 00
	00		 sub	 esp, 204		; 000000ccH
  00009	53		 push	 ebx
  0000a	56		 push	 esi
  0000b	57		 push	 edi
  0000c	51		 push	 ecx
  0000d	8d bd 34 ff ff
	ff		 lea	 edi, DWORD PTR [ebp-204]
  00013	b9 33 00 00 00	 mov	 ecx, 51			; 00000033H
  00018	b8 cc cc cc cc	 mov	 eax, -858993460		; ccccccccH
  0001d	f3 ab		 rep stosd
  0001f	59		 pop	 ecx
  00020	89 4d f8	 mov	 DWORD PTR _this$[ebp], ecx
  00023	8b 4d f8	 mov	 ecx, DWORD PTR _this$[ebp]
  00026	e8 00 00 00 00	 call	 ??1CProceduralRenderObject@@QAE@XZ ; CProceduralRenderObject::~CProceduralRenderObject
  0002b	8b 45 08	 mov	 eax, DWORD PTR ___flags$[ebp]
  0002e	83 e0 01	 and	 eax, 1
  00031	85 c0		 test	 eax, eax
  00033	74 0c		 je	 SHORT $L85436
  00035	8b 45 f8	 mov	 eax, DWORD PTR _this$[ebp]
  00038	50		 push	 eax
  00039	e8 00 00 00 00	 call	 ??3@YAXPAX@Z		; operator delete
  0003e	83 c4 04	 add	 esp, 4
$L85436:
  00041	8b 45 f8	 mov	 eax, DWORD PTR _this$[ebp]
  00044	5f		 pop	 edi
  00045	5e		 pop	 esi
  00046	5b		 pop	 ebx
  00047	81 c4 cc 00 00
	00		 add	 esp, 204		; 000000ccH
  0004d	3b ec		 cmp	 ebp, esp
  0004f	e8 00 00 00 00	 call	 __RTC_CheckEsp
  00054	8b e5		 mov	 esp, ebp
  00056	5d		 pop	 ebp
  00057	c2 04 00	 ret	 4
??_GCProceduralRenderObject@@QAEPAXI@Z ENDP		; CProceduralRenderObject::`scalar deleting destructor'
_TEXT	ENDS
PUBLIC	?RestoreDeviceObjects@CSky@@QAEJPAUIDirect3D8@@PAUIDirect3DDevice8@@@Z ; CSky::RestoreDeviceObjects
PUBLIC	??_C@_0BM@NGNHCIBK@CSky?3?3RestoreDeviceObjects?6?$AA@ ; `string'
EXTRN	?RestoreDeviceObjects@CProceduralRenderObject@@QAEJPAUIDirect3D8@@PAUIDirect3DDevice8@@@Z:NEAR ; CProceduralRenderObject::RestoreDeviceObjects
EXTRN	?ods@@YAXPADZZ:NEAR				; ods
;	COMDAT ??_C@_0BM@NGNHCIBK@CSky?3?3RestoreDeviceObjects?6?$AA@
CONST	SEGMENT
??_C@_0BM@NGNHCIBK@CSky?3?3RestoreDeviceObjects?6?$AA@ DB 'CSky::RestoreD'
	DB	'eviceObjects', 0aH, 00H			; `string'
; Function compile flags: /Odt /RTCsu /ZI
CONST	ENDS
;	COMDAT ?RestoreDeviceObjects@CSky@@QAEJPAUIDirect3D8@@PAUIDirect3DDevice8@@@Z
_TEXT	SEGMENT
_this$ = -8
_pD3D$ = 8
_pDev$ = 12
?RestoreDeviceObjects@CSky@@QAEJPAUIDirect3D8@@PAUIDirect3DDevice8@@@Z PROC NEAR ; CSky::RestoreDeviceObjects, COMDAT
; _this$ = ecx

; 47   : 	{

  00000	55		 push	 ebp
  00001	8b ec		 mov	 ebp, esp
  00003	81 ec cc 00 00
	00		 sub	 esp, 204		; 000000ccH
  00009	53		 push	 ebx
  0000a	56		 push	 esi
  0000b	57		 push	 edi
  0000c	51		 push	 ecx
  0000d	8d bd 34 ff ff
	ff		 lea	 edi, DWORD PTR [ebp-204]
  00013	b9 33 00 00 00	 mov	 ecx, 51			; 00000033H
  00018	b8 cc cc cc cc	 mov	 eax, -858993460		; ccccccccH
  0001d	f3 ab		 rep stosd
  0001f	59		 pop	 ecx
  00020	89 4d f8	 mov	 DWORD PTR _this$[ebp], ecx

; 48   : 		ods( "CSky::RestoreDeviceObjects\n" );

  00023	68 00 00 00 00	 push	 OFFSET FLAT:??_C@_0BM@NGNHCIBK@CSky?3?3RestoreDeviceObjects?6?$AA@
  00028	e8 00 00 00 00	 call	 ?ods@@YAXPADZZ		; ods
  0002d	83 c4 04	 add	 esp, 4

; 49   : 
; 50   : 		if (FAILED(m_pRO->RestoreDeviceObjects(pD3D, pDev)))

  00030	8b 45 0c	 mov	 eax, DWORD PTR _pDev$[ebp]
  00033	50		 push	 eax
  00034	8b 4d 08	 mov	 ecx, DWORD PTR _pD3D$[ebp]
  00037	51		 push	 ecx
  00038	8b 55 f8	 mov	 edx, DWORD PTR _this$[ebp]
  0003b	8b 0a		 mov	 ecx, DWORD PTR [edx]
  0003d	e8 00 00 00 00	 call	 ?RestoreDeviceObjects@CProceduralRenderObject@@QAEJPAUIDirect3D8@@PAUIDirect3DDevice8@@@Z ; CProceduralRenderObject::RestoreDeviceObjects
  00042	85 c0		 test	 eax, eax
  00044	7d 07		 jge	 SHORT $L85444

; 51   : 			return E_FAIL ;

  00046	b8 05 40 00 80	 mov	 eax, -2147467259	; 80004005H
  0004b	eb 02		 jmp	 SHORT $L85441
$L85444:

; 52   : 
; 53   : 		return S_OK ;

  0004d	33 c0		 xor	 eax, eax
$L85441:

; 54   : 	}

  0004f	5f		 pop	 edi
  00050	5e		 pop	 esi
  00051	5b		 pop	 ebx
  00052	81 c4 cc 00 00
	00		 add	 esp, 204		; 000000ccH
  00058	3b ec		 cmp	 ebp, esp
  0005a	e8 00 00 00 00	 call	 __RTC_CheckEsp
  0005f	8b e5		 mov	 esp, ebp
  00061	5d		 pop	 ebp
  00062	c2 08 00	 ret	 8
?RestoreDeviceObjects@CSky@@QAEJPAUIDirect3D8@@PAUIDirect3DDevice8@@@Z ENDP ; CSky::RestoreDeviceObjects
_TEXT	ENDS
PUBLIC	?InvalidateDeviceObjects@CSky@@QAEJXZ		; CSky::InvalidateDeviceObjects
EXTRN	?InvalidateDeviceObjects@CProceduralRenderObject@@QAEJXZ:NEAR ; CProceduralRenderObject::InvalidateDeviceObjects
; Function compile flags: /Odt /RTCsu /ZI
;	COMDAT ?InvalidateDeviceObjects@CSky@@QAEJXZ
_TEXT	SEGMENT
_this$ = -8
?InvalidateDeviceObjects@CSky@@QAEJXZ PROC NEAR		; CSky::InvalidateDeviceObjects, COMDAT
; _this$ = ecx

; 56   : 	{

  00000	55		 push	 ebp
  00001	8b ec		 mov	 ebp, esp
  00003	81 ec cc 00 00
	00		 sub	 esp, 204		; 000000ccH
  00009	53		 push	 ebx
  0000a	56		 push	 esi
  0000b	57		 push	 edi
  0000c	51		 push	 ecx
  0000d	8d bd 34 ff ff
	ff		 lea	 edi, DWORD PTR [ebp-204]
  00013	b9 33 00 00 00	 mov	 ecx, 51			; 00000033H
  00018	b8 cc cc cc cc	 mov	 eax, -858993460		; ccccccccH
  0001d	f3 ab		 rep stosd
  0001f	59		 pop	 ecx
  00020	89 4d f8	 mov	 DWORD PTR _this$[ebp], ecx

; 57   : 		m_pRO->InvalidateDeviceObjects() ;

  00023	8b 45 f8	 mov	 eax, DWORD PTR _this$[ebp]
  00026	8b 08		 mov	 ecx, DWORD PTR [eax]
  00028	e8 00 00 00 00	 call	 ?InvalidateDeviceObjects@CProceduralRenderObject@@QAEJXZ ; CProceduralRenderObject::InvalidateDeviceObjects

; 58   : 		return S_OK ;

  0002d	33 c0		 xor	 eax, eax

; 59   : 	}

  0002f	5f		 pop	 edi
  00030	5e		 pop	 esi
  00031	5b		 pop	 ebx
  00032	81 c4 cc 00 00
	00		 add	 esp, 204		; 000000ccH
  00038	3b ec		 cmp	 ebp, esp
  0003a	e8 00 00 00 00	 call	 __RTC_CheckEsp
  0003f	8b e5		 mov	 esp, ebp
  00041	5d		 pop	 ebp
  00042	c3		 ret	 0
?InvalidateDeviceObjects@CSky@@QAEJXZ ENDP		; CSky::InvalidateDeviceObjects
_TEXT	ENDS
PUBLIC	??0D3DXMATRIX@@QAE@XZ				; D3DXMATRIX::D3DXMATRIX
PUBLIC	?Render@CSky@@QAEJPAUIDirect3DDevice8@@PAVCTextures@@PAKPAUD3DXMATRIX@@PAUD3DXVECTOR3@@@Z ; CSky::Render
EXTRN	?Render@CProceduralRenderObject@@QAEJPAUIDirect3DDevice8@@PAVCTextures@@PAKHPAUD3DXMATRIX@@_N@Z:NEAR ; CProceduralRenderObject::Render
EXTRN	_D3DXMatrixMultiply@12:NEAR
EXTRN	_D3DXMatrixTranslation@16:NEAR
EXTRN	@_RTC_CheckStackVars@8:NEAR
; Function compile flags: /Odt /RTCsu /ZI
;	COMDAT ?Render@CSky@@QAEJPAUIDirect3DDevice8@@PAVCTextures@@PAKPAUD3DXMATRIX@@PAUD3DXVECTOR3@@@Z
_TEXT	SEGMENT
_matWorld$ = -152
_matTrans$ = -80
_this$ = -8
_pDev$ = 8
_pTex$ = 12
_pulPolyCount$ = 16
_pmatCurWorld$ = 20
_pvEyePt$ = 24
?Render@CSky@@QAEJPAUIDirect3DDevice8@@PAVCTextures@@PAKPAUD3DXMATRIX@@PAUD3DXVECTOR3@@@Z PROC NEAR ; CSky::Render, COMDAT
; _this$ = ecx

; 61   : 	{

  00000	55		 push	 ebp
  00001	8b ec		 mov	 ebp, esp
  00003	81 ec 5c 01 00
	00		 sub	 esp, 348		; 0000015cH
  00009	53		 push	 ebx
  0000a	56		 push	 esi
  0000b	57		 push	 edi
  0000c	51		 push	 ecx
  0000d	8d bd a4 fe ff
	ff		 lea	 edi, DWORD PTR [ebp-348]
  00013	b9 57 00 00 00	 mov	 ecx, 87			; 00000057H
  00018	b8 cc cc cc cc	 mov	 eax, -858993460		; ccccccccH
  0001d	f3 ab		 rep stosd
  0001f	59		 pop	 ecx
  00020	89 4d f8	 mov	 DWORD PTR _this$[ebp], ecx

; 62   : 		xMat matTrans, matWorld ;

  00023	8d 4d b0	 lea	 ecx, DWORD PTR _matTrans$[ebp]
  00026	e8 00 00 00 00	 call	 ??0D3DXMATRIX@@QAE@XZ	; D3DXMATRIX::D3DXMATRIX
  0002b	8d 8d 68 ff ff
	ff		 lea	 ecx, DWORD PTR _matWorld$[ebp]
  00031	e8 00 00 00 00	 call	 ??0D3DXMATRIX@@QAE@XZ	; D3DXMATRIX::D3DXMATRIX

; 63   : 		D3DXMatrixTranslation( &matTrans, pvEyePt->x, 0.0f, pvEyePt->z );

  00036	8b 45 18	 mov	 eax, DWORD PTR _pvEyePt$[ebp]
  00039	8b 48 08	 mov	 ecx, DWORD PTR [eax+8]
  0003c	51		 push	 ecx
  0003d	6a 00		 push	 0
  0003f	8b 55 18	 mov	 edx, DWORD PTR _pvEyePt$[ebp]
  00042	8b 02		 mov	 eax, DWORD PTR [edx]
  00044	50		 push	 eax
  00045	8d 4d b0	 lea	 ecx, DWORD PTR _matTrans$[ebp]
  00048	51		 push	 ecx
  00049	e8 00 00 00 00	 call	 _D3DXMatrixTranslation@16

; 64   : 		D3DXMatrixMultiply( &matWorld, &matTrans, pmatCurWorld );

  0004e	8b 45 14	 mov	 eax, DWORD PTR _pmatCurWorld$[ebp]
  00051	50		 push	 eax
  00052	8d 4d b0	 lea	 ecx, DWORD PTR _matTrans$[ebp]
  00055	51		 push	 ecx
  00056	8d 95 68 ff ff
	ff		 lea	 edx, DWORD PTR _matWorld$[ebp]
  0005c	52		 push	 edx
  0005d	e8 00 00 00 00	 call	 _D3DXMatrixMultiply@12

; 65   : 
; 66   : 	// ask for auto-gen'd tex. coords;
; 67   : 		/*pDev->SetTextureStageState( 0, D3DTSS_TEXTURETRANSFORMFLAGS, D3DTTFF_COUNT2 );
; 68   : 		pDev->SetTextureStageState( 0, D3DTSS_TEXCOORDINDEX,
; 69   : 									   D3DTSS_TCI_CAMERASPACENORMAL );
; 70   : 									   //D3DTSS_TCI_CAMERASPACEPOSITION );*/
; 71   : 
; 72   : 		m_pRO->Render( pDev, pTex, pulPolyCount, 0, &matWorld, false );

  00062	6a 00		 push	 0
  00064	8d 85 68 ff ff
	ff		 lea	 eax, DWORD PTR _matWorld$[ebp]
  0006a	50		 push	 eax
  0006b	6a 00		 push	 0
  0006d	8b 4d 10	 mov	 ecx, DWORD PTR _pulPolyCount$[ebp]
  00070	51		 push	 ecx
  00071	8b 55 0c	 mov	 edx, DWORD PTR _pTex$[ebp]
  00074	52		 push	 edx
  00075	8b 45 08	 mov	 eax, DWORD PTR _pDev$[ebp]
  00078	50		 push	 eax
  00079	8b 4d f8	 mov	 ecx, DWORD PTR _this$[ebp]
  0007c	8b 09		 mov	 ecx, DWORD PTR [ecx]
  0007e	e8 00 00 00 00	 call	 ?Render@CProceduralRenderObject@@QAEJPAUIDirect3DDevice8@@PAVCTextures@@PAKHPAUD3DXMATRIX@@_N@Z ; CProceduralRenderObject::Render

; 73   : 
; 74   : 	// turn off auto-gen'd tex. coords;
; 75   : 		/*pDev->SetTextureStageState( 0, D3DTSS_TEXTURETRANSFORMFLAGS, D3DTTFF_DISABLE );
; 76   : 		pDev->SetTextureStageState( 0, D3DTSS_TEXCOORDINDEX, D3DTSS_TCI_PASSTHRU  );*/
; 77   : 
; 78   : 		return S_OK ;

  00083	33 c0		 xor	 eax, eax

; 79   : 	}

  00085	52		 push	 edx
  00086	8b cd		 mov	 ecx, ebp
  00088	50		 push	 eax
  00089	8d 15 00 00 00
	00		 lea	 edx, DWORD PTR $L85704
  0008f	e8 00 00 00 00	 call	 @_RTC_CheckStackVars@8
  00094	58		 pop	 eax
  00095	5a		 pop	 edx
  00096	5f		 pop	 edi
  00097	5e		 pop	 esi
  00098	5b		 pop	 ebx
  00099	81 c4 5c 01 00
	00		 add	 esp, 348		; 0000015cH
  0009f	3b ec		 cmp	 ebp, esp
  000a1	e8 00 00 00 00	 call	 __RTC_CheckEsp
  000a6	8b e5		 mov	 esp, ebp
  000a8	5d		 pop	 ebp
  000a9	c2 14 00	 ret	 20			; 00000014H
$L85704:
  000ac	02 00 00 00	 DD	 2
  000b0	00 00 00 00	 DD	 $L85703
$L85703:
  000b4	b0 ff ff ff	 DD	 -80			; ffffffb0H
  000b8	40 00 00 00	 DD	 64			; 00000040H
  000bc	00 00 00 00	 DD	 $L85701
  000c0	68 ff ff ff	 DD	 -152			; ffffff68H
  000c4	40 00 00 00	 DD	 64			; 00000040H
  000c8	00 00 00 00	 DD	 $L85702
$L85702:
  000cc	6d		 DB	 109			; 0000006dH
  000cd	61		 DB	 97			; 00000061H
  000ce	74		 DB	 116			; 00000074H
  000cf	57		 DB	 87			; 00000057H
  000d0	6f		 DB	 111			; 0000006fH
  000d1	72		 DB	 114			; 00000072H
  000d2	6c		 DB	 108			; 0000006cH
  000d3	64		 DB	 100			; 00000064H
  000d4	00		 DB	 0
$L85701:
  000d5	6d		 DB	 109			; 0000006dH
  000d6	61		 DB	 97			; 00000061H
  000d7	74		 DB	 116			; 00000074H
  000d8	54		 DB	 84			; 00000054H
  000d9	72		 DB	 114			; 00000072H
  000da	61		 DB	 97			; 00000061H
  000db	6e		 DB	 110			; 0000006eH
  000dc	73		 DB	 115			; 00000073H
  000dd	00		 DB	 0
?Render@CSky@@QAEJPAUIDirect3DDevice8@@PAVCTextures@@PAKPAUD3DXMATRIX@@PAUD3DXVECTOR3@@@Z ENDP ; CSky::Render
_TEXT	ENDS
PUBLIC	?FrameMove@CSky@@QAEJPAUIDirect3DDevice8@@PAVCUserInput@@MPAVCCamera@@PAUD3DXMATRIX@@PAU_D3DVIEWPORT8@@@Z ; CSky::FrameMove
; Function compile flags: /Odt /RTCsu /ZI
;	COMDAT ?FrameMove@CSky@@QAEJPAUIDirect3DDevice8@@PAVCUserInput@@MPAVCCamera@@PAUD3DXMATRIX@@PAU_D3DVIEWPORT8@@@Z
_TEXT	SEGMENT
_this$ = -8
_pDev$ = 8
_pInput$ = 12
_fFPS$ = 16
_pCamera$ = 20
_pmatProj$ = 24
_pVP$ = 28
?FrameMove@CSky@@QAEJPAUIDirect3DDevice8@@PAVCUserInput@@MPAVCCamera@@PAUD3DXMATRIX@@PAU_D3DVIEWPORT8@@@Z PROC NEAR ; CSky::FrameMove, COMDAT
; _this$ = ecx

; 81   : 	{

  00000	55		 push	 ebp
  00001	8b ec		 mov	 ebp, esp
  00003	81 ec cc 00 00
	00		 sub	 esp, 204		; 000000ccH
  00009	53		 push	 ebx
  0000a	56		 push	 esi
  0000b	57		 push	 edi
  0000c	51		 push	 ecx
  0000d	8d bd 34 ff ff
	ff		 lea	 edi, DWORD PTR [ebp-204]
  00013	b9 33 00 00 00	 mov	 ecx, 51			; 00000033H
  00018	b8 cc cc cc cc	 mov	 eax, -858993460		; ccccccccH
  0001d	f3 ab		 rep stosd
  0001f	59		 pop	 ecx
  00020	89 4d f8	 mov	 DWORD PTR _this$[ebp], ecx

; 82   : 		/*for (int nRS = 0 ; nRS < m_pRO->m_nRSs ; nRS ++)
; 83   : 		{
; 84   : 			LPCOLOREDVERTEXWITHNORMAL2TEX pVerts ;
; 85   : 			if (FAILED(m_pRO->m_ntvRS[nRS].pMesh->LockVertexBuffer(0, (BYTE**)&pVerts)))
; 86   : 			{
; 87   : 				Msg("CSky::FrameMove: FAILED(pMesh->LockVertexBuffer(...)) == TRUE") ;
; 88   : 				return E_FAIL ;
; 89   : 			}
; 90   : 			for (unsigned int i = 0 ; i < m_pRO->m_ntvRS[nRS].dwNumVertices ; i ++)
; 91   : 			{
; 92   : 				COLOREDVERTEXWITHNORMAL2TEX cv ;
; 93   : 				xVec3 v3 ;
; 94   : 				cv = *pVerts ;
; 95   : 				
; 96   : 				cv.tu1 += (60.0f / fFPS) / 1000.0f ;
; 97   : 
; 98   : 				*pVerts = cv ;
; 99   : 				pVerts++ ;
; 100  : 			}
; 101  : 			m_pRO->m_ntvRS[nRS].pMesh->UnlockVertexBuffer() ;
; 102  : 		}*/
; 103  : 
; 104  : 		return S_OK ;

  00023	33 c0		 xor	 eax, eax

; 105  : 	}

  00025	5f		 pop	 edi
  00026	5e		 pop	 esi
  00027	5b		 pop	 ebx
  00028	8b e5		 mov	 esp, ebp
  0002a	5d		 pop	 ebp
  0002b	c2 18 00	 ret	 24			; 00000018H
?FrameMove@CSky@@QAEJPAUIDirect3DDevice8@@PAVCUserInput@@MPAVCCamera@@PAUD3DXMATRIX@@PAU_D3DVIEWPORT8@@@Z ENDP ; CSky::FrameMove
_TEXT	ENDS
PUBLIC	??_H@YGXPAXIHP6EPAX0@Z@Z			; `vector constructor iterator'
PUBLIC	??0UNCOLOREDVERTEX@@QAE@XZ			; UNCOLOREDVERTEX::UNCOLOREDVERTEX
PUBLIC	?__LINE__Var@?1??Create@CSky@@QAEJH@Z@4JA	; `CSky::Create'::`2'::__LINE__Var
PUBLIC	??_C@_09GPIEGEMI@pVertices?$AA@			; `string'
PUBLIC	??_C@_08GANEOFJJ@pIndices?$AA@			; `string'
PUBLIC	__real@3f800000
PUBLIC	__real@42800000
PUBLIC	__real@43000000
EXTRN	?AddX7LT@CProceduralRenderObject@@QAEPAUX7LT@@PAUUNCOLOREDVERTEX@@PAK1KKPAM2@Z:NEAR ; CProceduralRenderObject::AddX7LT
EXTRN	_memcpy:NEAR
EXTRN	_free:NEAR
EXTRN	_malloc:NEAR
EXTRN	__RTC_UninitUse:NEAR
EXTRN	__ftol2:NEAR
;	COMDAT ?__LINE__Var@?1??Create@CSky@@QAEJH@Z@4JA
_DATA	SEGMENT
?__LINE__Var@?1??Create@CSky@@QAEJH@Z@4JA DD 075H	; `CSky::Create'::`2'::__LINE__Var
_DATA	ENDS
;	COMDAT ??_C@_09GPIEGEMI@pVertices?$AA@
CONST	SEGMENT
??_C@_09GPIEGEMI@pVertices?$AA@ DB 'pVertices', 00H	; `string'
CONST	ENDS
;	COMDAT ??_C@_08GANEOFJJ@pIndices?$AA@
CONST	SEGMENT
??_C@_08GANEOFJJ@pIndices?$AA@ DB 'pIndices', 00H	; `string'
CONST	ENDS
;	COMDAT __real@3f800000
CONST	SEGMENT
__real@3f800000 DD 03f800000r			; 1
CONST	ENDS
;	COMDAT __real@42800000
CONST	SEGMENT
__real@42800000 DD 042800000r			; 64
CONST	ENDS
;	COMDAT __real@43000000
CONST	SEGMENT
__real@43000000 DD 043000000r			; 128
; Function compile flags: /Odt /RTCsu /ZI
CONST	ENDS
;	COMDAT ?Create@CSky@@QAEJH@Z
_TEXT	SEGMENT
$T85712 = -513
_fTV2$85527 = -312
_fTU2$85526 = -292
_s$85522 = -272
_a$85506 = -252
_y$85505 = -240
_c$85504 = -228
_v$85499 = -208
_i$85495 = -104
_nTex$ = -92
_fEndTexCoord$ = -80
_fStartTexCoord$ = -68
_dwNumIndices$ = -56
_pIndices$ = -44
_dwNumVertices$ = -32
_pVertices$ = -20
_this$ = -8
_bBlackSky$ = 8
?Create@CSky@@QAEJH@Z PROC NEAR				; CSky::Create, COMDAT
; _this$ = ecx

; 117  : 	{

  00000	55		 push	 ebp
  00001	8b ec		 mov	 ebp, esp
  00003	81 ec 08 02 00
	00		 sub	 esp, 520		; 00000208H
  00009	53		 push	 ebx
  0000a	56		 push	 esi
  0000b	57		 push	 edi
  0000c	51		 push	 ecx
  0000d	8d bd f8 fd ff
	ff		 lea	 edi, DWORD PTR [ebp-520]
  00013	b9 82 00 00 00	 mov	 ecx, 130		; 00000082H
  00018	b8 cc cc cc cc	 mov	 eax, -858993460		; ccccccccH
  0001d	f3 ab		 rep stosd
  0001f	59		 pop	 ecx
  00020	89 4d f8	 mov	 DWORD PTR _this$[ebp], ecx
  00023	c6 85 ff fd ff
	ff 00		 mov	 BYTE PTR $T85712[ebp], 0

; 118  : 		UNCOLOREDVERTEX *pVertices ;
; 119  : 		DWORD	         dwNumVertices ;
; 120  : 		WORD			*pIndices ;
; 121  : 		DWORD			 dwNumIndices ;
; 122  : 
; 123  : 	//
; 124  : 	// Skydome method 1:
; 125  : 	// FIXME: excessive allocation.
; 126  : 	//
; 127  : 		/*pVertices = (UNCOLOREDVERTEX*)malloc(sizeof(UNCOLOREDVERTEX) * SD_MAX_VS) ;
; 128  : 		if (!pVertices)
; 129  : 			return E_FAIL ;
; 130  : 		
; 131  : 		pIndices  = (WORD*)malloc(sizeof(WORD) * SD_MAX_VS * 3) ;
; 132  : 		if (!pIndices)
; 133  : 			return E_FAIL ;
; 134  : 		
; 135  : 		if (CreateHalfSphere ( pVertices,
; 136  : 							   &dwNumVertices,
; 137  : 							   pIndices,
; 138  :  							   &dwNumIndices,
; 139  : 							   1,
; 140  : 							   10) != S_OK)
; 141  : 		  return E_FAIL ; 
; 142  : 
; 143  : 		D3DCOLOR c[3], s[3] ;
; 144  : 		c[0]=c[1]=c[2] = D3DCOLOR_ARGB( 255,255,000,000 );	//D3DXCOLOR(1,1,0,1);
; 145  : 		s[0]=s[1]=s[2] = D3DCOLOR_ARGB( 255,255,255,255 );	//D3DXCOLOR(1,1,1,1);
; 146  : 		for( int i=0 ; i < dwNumIndices ; i+=3 )
; 147  : 		{
; 148  : 			UNCOLOREDVERTEX vs[3] ;
; 149  : 			vs[0] = pVertices[ pIndices[i+0] ];
; 150  : 			vs[1] = pVertices[ pIndices[i+1] ];
; 151  : 			vs[2] = pVertices[ pIndices[i+2] ];
; 152  : 			if( m_pRO->AddX7LT( vs,
; 153  : 								&c[0],
; 154  : 								&s[0],
; 155  : 								MISC_TEX_START+1,
; 156  : 								0,	
; 157  : 								0,	
; 158  : 								0	 ) == NULL )
; 159  : 				return E_FAIL ;
; 160  : 		}*/
; 161  : 
; 162  : 	//
; 163  : 	// Skydome method 2:
; 164  : 	//
; 165  : 		 /*dwNumVertices = SD_SQ * SD_SQ ;
; 166  : 		pVertices = (UNCOLOREDVERTEX*)malloc(sizeof(UNCOLOREDVERTEX) * dwNumVertices) ;
; 167  : 		if (!pVertices)
; 168  : 		{
; 169  : 			Msg("CSky::Create: malloc[1] == NULL") ;
; 170  : 			return E_FAIL ;
; 171  : 		}
; 172  : 		dwNumIndices = (SD_SQ - 1) * (SD_SQ - 1) * 2 * 3 ;
; 173  : 		pIndices = (WORD*)malloc(sizeof(WORD) * dwNumIndices) ;
; 174  : 		if (!pIndices)
; 175  : 		{
; 176  : 			Msg("CSky::Create: malloc[2] == NULL") ;
; 177  : 			return E_FAIL ;
; 178  : 		}
; 179  : 
; 180  : 		int nVert = 0, nIndex = 0 ;
; 181  : 		float fDomeCurve = 0.25f ;
; 182  : 		for (int y = 0 ; y < SD_SQ ; y ++)
; 183  : 		{
; 184  : 			for (int x = 0 ; x < SD_SQ ; x ++)
; 185  : 			{
; 186  : 				// build verts
; 187  : 				float fX, fY ;
; 188  : 				fX = (float)x / (float)(SD_SQ - 1) ;
; 189  : 				fY = (float)y / (float)(SD_SQ - 1) ;
; 190  : 				pVertices[nVert].tu1 = fX ;
; 191  : 				pVertices[nVert].tv1 = fY ;
; 192  : 				pVertices[nVert].x = fX - 0.5f ;
; 193  : 				pVertices[nVert].y = 0.0f + ((sin( g_PI * fX ) * fDomeCurve) + (sin( g_PI * fY ) * fDomeCurve) / 2.0f) ;
; 194  : 				pVertices[nVert].z = fY - 0.5f ;
; 195  : 				
; 196  : 				// build indices
; 197  : 				if (x < SD_SQ - 1 && y < SD_SQ - 1)
; 198  : 				{
; 199  : 					pIndices[nIndex++] = nVert ;
; 200  : 					pIndices[nIndex++] = nVert + 1 ;
; 201  : 					pIndices[nIndex++] = nVert + SD_SQ ;
; 202  : 				}
; 203  : 				if (x < SD_SQ - 1 && y > 0)
; 204  : 				{
; 205  : 					pIndices[nIndex++] = nVert ;
; 206  : 					pIndices[nIndex++] = nVert + 1 ;
; 207  : 					pIndices[nIndex++] = nVert + 1 - SD_SQ ;
; 208  : 				}
; 209  : 				
; 210  : 				nVert++ ;
; 211  : 			}
; 212  : 		}*/
; 213  : 
; 214  : 	//
; 215  : 	// Sky box:
; 216  : 	// 
; 217  : 		dwNumVertices = 24 ;

  0002a	c7 45 e0 18 00
	00 00		 mov	 DWORD PTR _dwNumVertices$[ebp], 24 ; 00000018H

; 218  : 		pVertices = (UNCOLOREDVERTEX*)malloc(sizeof(UNCOLOREDVERTEX) * dwNumVertices) ;

  00031	8b 45 e0	 mov	 eax, DWORD PTR _dwNumVertices$[ebp]
  00034	c1 e0 05	 shl	 eax, 5
  00037	50		 push	 eax
  00038	e8 00 00 00 00	 call	 _malloc
  0003d	83 c4 04	 add	 esp, 4
  00040	89 45 ec	 mov	 DWORD PTR _pVertices$[ebp], eax

; 219  : 		assert( pVertices );

  00043	83 7d ec 00	 cmp	 DWORD PTR _pVertices$[ebp], 0
  00047	75 1b		 jne	 SHORT $L85710
  00049	a1 00 00 00 00	 mov	 eax, DWORD PTR ?__LINE__Var@?1??Create@CSky@@QAEJH@Z@4JA
  0004e	83 c0 66	 add	 eax, 102		; 00000066H
  00051	50		 push	 eax
  00052	68 00 00 00 00	 push	 OFFSET FLAT:??_C@_0EG@INCBMHMB@c?3?2documents?5and?5settings?2dom?2my@
  00057	68 00 00 00 00	 push	 OFFSET FLAT:??_C@_09GPIEGEMI@pVertices?$AA@
  0005c	e8 00 00 00 00	 call	 __assert
  00061	83 c4 0c	 add	 esp, 12			; 0000000cH
$L85710:

; 220  : 
; 221  : 		dwNumIndices = 36 ;

  00064	c7 45 c8 24 00
	00 00		 mov	 DWORD PTR _dwNumIndices$[ebp], 36 ; 00000024H

; 222  : 		pIndices = (WORD*)malloc(sizeof(WORD) * dwNumIndices) ;

  0006b	8b 45 c8	 mov	 eax, DWORD PTR _dwNumIndices$[ebp]
  0006e	d1 e0		 shl	 eax, 1
  00070	50		 push	 eax
  00071	e8 00 00 00 00	 call	 _malloc
  00076	83 c4 04	 add	 esp, 4
  00079	89 45 d4	 mov	 DWORD PTR _pIndices$[ebp], eax

; 223  : 		assert( pIndices );

  0007c	83 7d d4 00	 cmp	 DWORD PTR _pIndices$[ebp], 0
  00080	75 1b		 jne	 SHORT $L85711
  00082	a1 00 00 00 00	 mov	 eax, DWORD PTR ?__LINE__Var@?1??Create@CSky@@QAEJH@Z@4JA
  00087	83 c0 6a	 add	 eax, 106		; 0000006aH
  0008a	50		 push	 eax
  0008b	68 00 00 00 00	 push	 OFFSET FLAT:??_C@_0EG@INCBMHMB@c?3?2documents?5and?5settings?2dom?2my@
  00090	68 00 00 00 00	 push	 OFFSET FLAT:??_C@_08GANEOFJJ@pIndices?$AA@
  00095	e8 00 00 00 00	 call	 __assert
  0009a	83 c4 0c	 add	 esp, 12			; 0000000cH
$L85711:

; 224  : 
; 225  : 		float fStartTexCoord = 0.002f ;

  0009d	c7 45 bc 6f 12
	03 3b		 mov	 DWORD PTR _fStartTexCoord$[ebp], 990057071 ; 3b03126fH

; 226  : 		float fEndTexCoord = 0.998f ;

  000a4	c7 45 b0 ee 7c
	7f 3f		 mov	 DWORD PTR _fEndTexCoord$[ebp], 1065319662 ; 3f7f7ceeH

; 227  : 
; 228  : 		// front face
; 229  : 		pVertices[0].x = -0.5f ;  pVertices[0].y = +0.5f ;  pVertices[0].z = +0.5f ;  pVertices[0].tu1 = fStartTexCoord ;  pVertices[0].tv1 = fStartTexCoord ;

  000ab	8b 45 ec	 mov	 eax, DWORD PTR _pVertices$[ebp]
  000ae	c7 00 00 00 00
	bf		 mov	 DWORD PTR [eax], -1090519040 ; bf000000H
  000b4	8b 45 ec	 mov	 eax, DWORD PTR _pVertices$[ebp]
  000b7	c7 40 04 00 00
	00 3f		 mov	 DWORD PTR [eax+4], 1056964608 ; 3f000000H
  000be	8b 45 ec	 mov	 eax, DWORD PTR _pVertices$[ebp]
  000c1	c7 40 08 00 00
	00 3f		 mov	 DWORD PTR [eax+8], 1056964608 ; 3f000000H
  000c8	8b 45 ec	 mov	 eax, DWORD PTR _pVertices$[ebp]
  000cb	8b 4d bc	 mov	 ecx, DWORD PTR _fStartTexCoord$[ebp]
  000ce	89 48 18	 mov	 DWORD PTR [eax+24], ecx
  000d1	8b 45 ec	 mov	 eax, DWORD PTR _pVertices$[ebp]
  000d4	8b 4d bc	 mov	 ecx, DWORD PTR _fStartTexCoord$[ebp]
  000d7	89 48 1c	 mov	 DWORD PTR [eax+28], ecx

; 230  : 		pVertices[1].x = +0.5f ;  pVertices[1].y = +0.5f ;  pVertices[1].z = +0.5f ;  pVertices[1].tu1 = fEndTexCoord ;  pVertices[1].tv1 = fStartTexCoord ;

  000da	8b 45 ec	 mov	 eax, DWORD PTR _pVertices$[ebp]
  000dd	c7 40 20 00 00
	00 3f		 mov	 DWORD PTR [eax+32], 1056964608 ; 3f000000H
  000e4	8b 45 ec	 mov	 eax, DWORD PTR _pVertices$[ebp]
  000e7	c7 40 24 00 00
	00 3f		 mov	 DWORD PTR [eax+36], 1056964608 ; 3f000000H
  000ee	8b 45 ec	 mov	 eax, DWORD PTR _pVertices$[ebp]
  000f1	c7 40 28 00 00
	00 3f		 mov	 DWORD PTR [eax+40], 1056964608 ; 3f000000H
  000f8	8b 45 ec	 mov	 eax, DWORD PTR _pVertices$[ebp]
  000fb	8b 4d b0	 mov	 ecx, DWORD PTR _fEndTexCoord$[ebp]
  000fe	89 48 38	 mov	 DWORD PTR [eax+56], ecx
  00101	8b 45 ec	 mov	 eax, DWORD PTR _pVertices$[ebp]
  00104	8b 4d bc	 mov	 ecx, DWORD PTR _fStartTexCoord$[ebp]
  00107	89 48 3c	 mov	 DWORD PTR [eax+60], ecx

; 231  : 		pVertices[2].x = -0.5f ;  pVertices[2].y = -0.5f ;  pVertices[2].z = +0.5f ;  pVertices[2].tu1 = fStartTexCoord ;  pVertices[2].tv1 = fEndTexCoord ;

  0010a	8b 45 ec	 mov	 eax, DWORD PTR _pVertices$[ebp]
  0010d	c7 40 40 00 00
	00 bf		 mov	 DWORD PTR [eax+64], -1090519040 ; bf000000H
  00114	8b 45 ec	 mov	 eax, DWORD PTR _pVertices$[ebp]
  00117	c7 40 44 00 00
	00 bf		 mov	 DWORD PTR [eax+68], -1090519040 ; bf000000H
  0011e	8b 45 ec	 mov	 eax, DWORD PTR _pVertices$[ebp]
  00121	c7 40 48 00 00
	00 3f		 mov	 DWORD PTR [eax+72], 1056964608 ; 3f000000H
  00128	8b 45 ec	 mov	 eax, DWORD PTR _pVertices$[ebp]
  0012b	8b 4d bc	 mov	 ecx, DWORD PTR _fStartTexCoord$[ebp]
  0012e	89 48 58	 mov	 DWORD PTR [eax+88], ecx
  00131	8b 45 ec	 mov	 eax, DWORD PTR _pVertices$[ebp]
  00134	8b 4d b0	 mov	 ecx, DWORD PTR _fEndTexCoord$[ebp]
  00137	89 48 5c	 mov	 DWORD PTR [eax+92], ecx

; 232  : 		pVertices[3].x = +0.5f ;  pVertices[3].y = -0.5f ;  pVertices[3].z = +0.5f ;  pVertices[3].tu1 = fEndTexCoord ;  pVertices[3].tv1 = fEndTexCoord ;

  0013a	8b 45 ec	 mov	 eax, DWORD PTR _pVertices$[ebp]
  0013d	c7 40 60 00 00
	00 3f		 mov	 DWORD PTR [eax+96], 1056964608 ; 3f000000H
  00144	8b 45 ec	 mov	 eax, DWORD PTR _pVertices$[ebp]
  00147	c7 40 64 00 00
	00 bf		 mov	 DWORD PTR [eax+100], -1090519040 ; bf000000H
  0014e	8b 45 ec	 mov	 eax, DWORD PTR _pVertices$[ebp]
  00151	c7 40 68 00 00
	00 3f		 mov	 DWORD PTR [eax+104], 1056964608 ; 3f000000H
  00158	8b 45 ec	 mov	 eax, DWORD PTR _pVertices$[ebp]
  0015b	8b 4d b0	 mov	 ecx, DWORD PTR _fEndTexCoord$[ebp]
  0015e	89 48 78	 mov	 DWORD PTR [eax+120], ecx
  00161	8b 45 ec	 mov	 eax, DWORD PTR _pVertices$[ebp]
  00164	8b 4d b0	 mov	 ecx, DWORD PTR _fEndTexCoord$[ebp]
  00167	89 48 7c	 mov	 DWORD PTR [eax+124], ecx

; 233  : 		pIndices[0] = 0 ; pIndices[1] = 1 ; pIndices[2] = 2 ;

  0016a	8b 45 d4	 mov	 eax, DWORD PTR _pIndices$[ebp]
  0016d	66 c7 00 00 00	 mov	 WORD PTR [eax], 0
  00172	8b 45 d4	 mov	 eax, DWORD PTR _pIndices$[ebp]
  00175	66 c7 40 02 01
	00		 mov	 WORD PTR [eax+2], 1
  0017b	8b 45 d4	 mov	 eax, DWORD PTR _pIndices$[ebp]
  0017e	66 c7 40 04 02
	00		 mov	 WORD PTR [eax+4], 2

; 234  : 		pIndices[3] = 1 ; pIndices[4] = 2 ; pIndices[5] = 3 ;

  00184	8b 45 d4	 mov	 eax, DWORD PTR _pIndices$[ebp]
  00187	66 c7 40 06 01
	00		 mov	 WORD PTR [eax+6], 1
  0018d	8b 45 d4	 mov	 eax, DWORD PTR _pIndices$[ebp]
  00190	66 c7 40 08 02
	00		 mov	 WORD PTR [eax+8], 2
  00196	8b 45 d4	 mov	 eax, DWORD PTR _pIndices$[ebp]
  00199	66 c7 40 0a 03
	00		 mov	 WORD PTR [eax+10], 3

; 235  : 		// right face
; 236  : 		pVertices[4].x = +0.5f ;  pVertices[4].y = +0.5f ;  pVertices[4].z = -0.5f ;  pVertices[4].tu1 = fEndTexCoord ;  pVertices[4].tv1 = fStartTexCoord ;

  0019f	8b 45 ec	 mov	 eax, DWORD PTR _pVertices$[ebp]
  001a2	c7 80 80 00 00
	00 00 00 00 3f	 mov	 DWORD PTR [eax+128], 1056964608 ; 3f000000H
  001ac	8b 45 ec	 mov	 eax, DWORD PTR _pVertices$[ebp]
  001af	c7 80 84 00 00
	00 00 00 00 3f	 mov	 DWORD PTR [eax+132], 1056964608 ; 3f000000H
  001b9	8b 45 ec	 mov	 eax, DWORD PTR _pVertices$[ebp]
  001bc	c7 80 88 00 00
	00 00 00 00 bf	 mov	 DWORD PTR [eax+136], -1090519040 ; bf000000H
  001c6	8b 45 ec	 mov	 eax, DWORD PTR _pVertices$[ebp]
  001c9	8b 4d b0	 mov	 ecx, DWORD PTR _fEndTexCoord$[ebp]
  001cc	89 88 98 00 00
	00		 mov	 DWORD PTR [eax+152], ecx
  001d2	8b 45 ec	 mov	 eax, DWORD PTR _pVertices$[ebp]
  001d5	8b 4d bc	 mov	 ecx, DWORD PTR _fStartTexCoord$[ebp]
  001d8	89 88 9c 00 00
	00		 mov	 DWORD PTR [eax+156], ecx

; 237  : 		pVertices[5].x = +0.5f ;  pVertices[5].y = +0.5f ;  pVertices[5].z = +0.5f ;  pVertices[5].tu1 = fStartTexCoord ;  pVertices[5].tv1 = fStartTexCoord ;

  001de	8b 45 ec	 mov	 eax, DWORD PTR _pVertices$[ebp]
  001e1	c7 80 a0 00 00
	00 00 00 00 3f	 mov	 DWORD PTR [eax+160], 1056964608 ; 3f000000H
  001eb	8b 45 ec	 mov	 eax, DWORD PTR _pVertices$[ebp]
  001ee	c7 80 a4 00 00
	00 00 00 00 3f	 mov	 DWORD PTR [eax+164], 1056964608 ; 3f000000H
  001f8	8b 45 ec	 mov	 eax, DWORD PTR _pVertices$[ebp]
  001fb	c7 80 a8 00 00
	00 00 00 00 3f	 mov	 DWORD PTR [eax+168], 1056964608 ; 3f000000H
  00205	8b 45 ec	 mov	 eax, DWORD PTR _pVertices$[ebp]
  00208	8b 4d bc	 mov	 ecx, DWORD PTR _fStartTexCoord$[ebp]
  0020b	89 88 b8 00 00
	00		 mov	 DWORD PTR [eax+184], ecx
  00211	8b 45 ec	 mov	 eax, DWORD PTR _pVertices$[ebp]
  00214	8b 4d bc	 mov	 ecx, DWORD PTR _fStartTexCoord$[ebp]
  00217	89 88 bc 00 00
	00		 mov	 DWORD PTR [eax+188], ecx

; 238  : 		pVertices[6].x = +0.5f ;  pVertices[6].y = -0.5f ;  pVertices[6].z = -0.5f ;  pVertices[6].tu1 = fEndTexCoord ;  pVertices[6].tv1 = fEndTexCoord ;

  0021d	8b 45 ec	 mov	 eax, DWORD PTR _pVertices$[ebp]
  00220	c7 80 c0 00 00
	00 00 00 00 3f	 mov	 DWORD PTR [eax+192], 1056964608 ; 3f000000H
  0022a	8b 45 ec	 mov	 eax, DWORD PTR _pVertices$[ebp]
  0022d	c7 80 c4 00 00
	00 00 00 00 bf	 mov	 DWORD PTR [eax+196], -1090519040 ; bf000000H
  00237	8b 45 ec	 mov	 eax, DWORD PTR _pVertices$[ebp]
  0023a	c7 80 c8 00 00
	00 00 00 00 bf	 mov	 DWORD PTR [eax+200], -1090519040 ; bf000000H
  00244	8b 45 ec	 mov	 eax, DWORD PTR _pVertices$[ebp]
  00247	8b 4d b0	 mov	 ecx, DWORD PTR _fEndTexCoord$[ebp]
  0024a	89 88 d8 00 00
	00		 mov	 DWORD PTR [eax+216], ecx
  00250	8b 45 ec	 mov	 eax, DWORD PTR _pVertices$[ebp]
  00253	8b 4d b0	 mov	 ecx, DWORD PTR _fEndTexCoord$[ebp]
  00256	89 88 dc 00 00
	00		 mov	 DWORD PTR [eax+220], ecx

; 239  : 		pVertices[7].x = +0.5f ;  pVertices[7].y = -0.5f ;  pVertices[7].z = +0.5f ;  pVertices[7].tu1 = fStartTexCoord ;  pVertices[7].tv1 = fEndTexCoord ;

  0025c	8b 45 ec	 mov	 eax, DWORD PTR _pVertices$[ebp]
  0025f	c7 80 e0 00 00
	00 00 00 00 3f	 mov	 DWORD PTR [eax+224], 1056964608 ; 3f000000H
  00269	8b 45 ec	 mov	 eax, DWORD PTR _pVertices$[ebp]
  0026c	c7 80 e4 00 00
	00 00 00 00 bf	 mov	 DWORD PTR [eax+228], -1090519040 ; bf000000H
  00276	8b 45 ec	 mov	 eax, DWORD PTR _pVertices$[ebp]
  00279	c7 80 e8 00 00
	00 00 00 00 3f	 mov	 DWORD PTR [eax+232], 1056964608 ; 3f000000H
  00283	8b 45 ec	 mov	 eax, DWORD PTR _pVertices$[ebp]
  00286	8b 4d bc	 mov	 ecx, DWORD PTR _fStartTexCoord$[ebp]
  00289	89 88 f8 00 00
	00		 mov	 DWORD PTR [eax+248], ecx
  0028f	8b 45 ec	 mov	 eax, DWORD PTR _pVertices$[ebp]
  00292	8b 4d b0	 mov	 ecx, DWORD PTR _fEndTexCoord$[ebp]
  00295	89 88 fc 00 00
	00		 mov	 DWORD PTR [eax+252], ecx

; 240  : 		pIndices[6] = 4 ; pIndices[7] = 5 ; pIndices[8] = 6 ;

  0029b	8b 45 d4	 mov	 eax, DWORD PTR _pIndices$[ebp]
  0029e	66 c7 40 0c 04
	00		 mov	 WORD PTR [eax+12], 4
  002a4	8b 45 d4	 mov	 eax, DWORD PTR _pIndices$[ebp]
  002a7	66 c7 40 0e 05
	00		 mov	 WORD PTR [eax+14], 5
  002ad	8b 45 d4	 mov	 eax, DWORD PTR _pIndices$[ebp]
  002b0	66 c7 40 10 06
	00		 mov	 WORD PTR [eax+16], 6

; 241  : 		pIndices[9] = 5 ; pIndices[10] = 6 ; pIndices[11] = 7 ;

  002b6	8b 45 d4	 mov	 eax, DWORD PTR _pIndices$[ebp]
  002b9	66 c7 40 12 05
	00		 mov	 WORD PTR [eax+18], 5
  002bf	8b 45 d4	 mov	 eax, DWORD PTR _pIndices$[ebp]
  002c2	66 c7 40 14 06
	00		 mov	 WORD PTR [eax+20], 6
  002c8	8b 45 d4	 mov	 eax, DWORD PTR _pIndices$[ebp]
  002cb	66 c7 40 16 07
	00		 mov	 WORD PTR [eax+22], 7

; 242  : 		// back face
; 243  : 		pVertices[8].x = -0.5f ;  pVertices[8].y = +0.5f ;	pVertices[8].z = -0.5f ;  pVertices[8].tu1 = fEndTexCoord ;  pVertices[8].tv1 = fStartTexCoord ;

  002d1	8b 45 ec	 mov	 eax, DWORD PTR _pVertices$[ebp]
  002d4	c7 80 00 01 00
	00 00 00 00 bf	 mov	 DWORD PTR [eax+256], -1090519040 ; bf000000H
  002de	8b 45 ec	 mov	 eax, DWORD PTR _pVertices$[ebp]
  002e1	c7 80 04 01 00
	00 00 00 00 3f	 mov	 DWORD PTR [eax+260], 1056964608 ; 3f000000H
  002eb	8b 45 ec	 mov	 eax, DWORD PTR _pVertices$[ebp]
  002ee	c7 80 08 01 00
	00 00 00 00 bf	 mov	 DWORD PTR [eax+264], -1090519040 ; bf000000H
  002f8	8b 45 ec	 mov	 eax, DWORD PTR _pVertices$[ebp]
  002fb	8b 4d b0	 mov	 ecx, DWORD PTR _fEndTexCoord$[ebp]
  002fe	89 88 18 01 00
	00		 mov	 DWORD PTR [eax+280], ecx
  00304	8b 45 ec	 mov	 eax, DWORD PTR _pVertices$[ebp]
  00307	8b 4d bc	 mov	 ecx, DWORD PTR _fStartTexCoord$[ebp]
  0030a	89 88 1c 01 00
	00		 mov	 DWORD PTR [eax+284], ecx

; 244  : 		pVertices[9].x = +0.5f ;  pVertices[9].y = +0.5f ;	pVertices[9].z = -0.5f ;  pVertices[9].tu1 = fStartTexCoord ;  pVertices[9].tv1 = fStartTexCoord ;

  00310	8b 45 ec	 mov	 eax, DWORD PTR _pVertices$[ebp]
  00313	c7 80 20 01 00
	00 00 00 00 3f	 mov	 DWORD PTR [eax+288], 1056964608 ; 3f000000H
  0031d	8b 45 ec	 mov	 eax, DWORD PTR _pVertices$[ebp]
  00320	c7 80 24 01 00
	00 00 00 00 3f	 mov	 DWORD PTR [eax+292], 1056964608 ; 3f000000H
  0032a	8b 45 ec	 mov	 eax, DWORD PTR _pVertices$[ebp]
  0032d	c7 80 28 01 00
	00 00 00 00 bf	 mov	 DWORD PTR [eax+296], -1090519040 ; bf000000H
  00337	8b 45 ec	 mov	 eax, DWORD PTR _pVertices$[ebp]
  0033a	8b 4d bc	 mov	 ecx, DWORD PTR _fStartTexCoord$[ebp]
  0033d	89 88 38 01 00
	00		 mov	 DWORD PTR [eax+312], ecx
  00343	8b 45 ec	 mov	 eax, DWORD PTR _pVertices$[ebp]
  00346	8b 4d bc	 mov	 ecx, DWORD PTR _fStartTexCoord$[ebp]
  00349	89 88 3c 01 00
	00		 mov	 DWORD PTR [eax+316], ecx

; 245  : 		pVertices[10].x = -0.5f ; pVertices[10].y = -0.5f ; pVertices[10].z = -0.5f ; pVertices[10].tu1 = fEndTexCoord ; pVertices[10].tv1 = fEndTexCoord ;

  0034f	8b 45 ec	 mov	 eax, DWORD PTR _pVertices$[ebp]
  00352	c7 80 40 01 00
	00 00 00 00 bf	 mov	 DWORD PTR [eax+320], -1090519040 ; bf000000H
  0035c	8b 45 ec	 mov	 eax, DWORD PTR _pVertices$[ebp]
  0035f	c7 80 44 01 00
	00 00 00 00 bf	 mov	 DWORD PTR [eax+324], -1090519040 ; bf000000H
  00369	8b 45 ec	 mov	 eax, DWORD PTR _pVertices$[ebp]
  0036c	c7 80 48 01 00
	00 00 00 00 bf	 mov	 DWORD PTR [eax+328], -1090519040 ; bf000000H
  00376	8b 45 ec	 mov	 eax, DWORD PTR _pVertices$[ebp]
  00379	8b 4d b0	 mov	 ecx, DWORD PTR _fEndTexCoord$[ebp]
  0037c	89 88 58 01 00
	00		 mov	 DWORD PTR [eax+344], ecx
  00382	8b 45 ec	 mov	 eax, DWORD PTR _pVertices$[ebp]
  00385	8b 4d b0	 mov	 ecx, DWORD PTR _fEndTexCoord$[ebp]
  00388	89 88 5c 01 00
	00		 mov	 DWORD PTR [eax+348], ecx

; 246  : 		pVertices[11].x = +0.5f ; pVertices[11].y = -0.5f ; pVertices[11].z = -0.5f ; pVertices[11].tu1 = fStartTexCoord ; pVertices[11].tv1 = fEndTexCoord ;

  0038e	8b 45 ec	 mov	 eax, DWORD PTR _pVertices$[ebp]
  00391	c7 80 60 01 00
	00 00 00 00 3f	 mov	 DWORD PTR [eax+352], 1056964608 ; 3f000000H
  0039b	8b 45 ec	 mov	 eax, DWORD PTR _pVertices$[ebp]
  0039e	c7 80 64 01 00
	00 00 00 00 bf	 mov	 DWORD PTR [eax+356], -1090519040 ; bf000000H
  003a8	8b 45 ec	 mov	 eax, DWORD PTR _pVertices$[ebp]
  003ab	c7 80 68 01 00
	00 00 00 00 bf	 mov	 DWORD PTR [eax+360], -1090519040 ; bf000000H
  003b5	8b 45 ec	 mov	 eax, DWORD PTR _pVertices$[ebp]
  003b8	8b 4d bc	 mov	 ecx, DWORD PTR _fStartTexCoord$[ebp]
  003bb	89 88 78 01 00
	00		 mov	 DWORD PTR [eax+376], ecx
  003c1	8b 45 ec	 mov	 eax, DWORD PTR _pVertices$[ebp]
  003c4	8b 4d b0	 mov	 ecx, DWORD PTR _fEndTexCoord$[ebp]
  003c7	89 88 7c 01 00
	00		 mov	 DWORD PTR [eax+380], ecx

; 247  : 		pIndices[12] = 8 ; pIndices[13] = 9 ; pIndices[14] = 10 ;

  003cd	8b 45 d4	 mov	 eax, DWORD PTR _pIndices$[ebp]
  003d0	66 c7 40 18 08
	00		 mov	 WORD PTR [eax+24], 8
  003d6	8b 45 d4	 mov	 eax, DWORD PTR _pIndices$[ebp]
  003d9	66 c7 40 1a 09
	00		 mov	 WORD PTR [eax+26], 9
  003df	8b 45 d4	 mov	 eax, DWORD PTR _pIndices$[ebp]
  003e2	66 c7 40 1c 0a
	00		 mov	 WORD PTR [eax+28], 10	; 0000000aH

; 248  : 		pIndices[15] = 9 ; pIndices[16] = 10 ; pIndices[17] = 11 ;

  003e8	8b 45 d4	 mov	 eax, DWORD PTR _pIndices$[ebp]
  003eb	66 c7 40 1e 09
	00		 mov	 WORD PTR [eax+30], 9
  003f1	8b 45 d4	 mov	 eax, DWORD PTR _pIndices$[ebp]
  003f4	66 c7 40 20 0a
	00		 mov	 WORD PTR [eax+32], 10	; 0000000aH
  003fa	8b 45 d4	 mov	 eax, DWORD PTR _pIndices$[ebp]
  003fd	66 c7 40 22 0b
	00		 mov	 WORD PTR [eax+34], 11	; 0000000bH

; 249  : 		// left face
; 250  : 		pVertices[12].x = -0.5f ; pVertices[12].y = +0.5f ; pVertices[12].z = -0.5f ; pVertices[12].tu1 = fStartTexCoord ; pVertices[12].tv1 = fStartTexCoord ;

  00403	8b 45 ec	 mov	 eax, DWORD PTR _pVertices$[ebp]
  00406	c7 80 80 01 00
	00 00 00 00 bf	 mov	 DWORD PTR [eax+384], -1090519040 ; bf000000H
  00410	8b 45 ec	 mov	 eax, DWORD PTR _pVertices$[ebp]
  00413	c7 80 84 01 00
	00 00 00 00 3f	 mov	 DWORD PTR [eax+388], 1056964608 ; 3f000000H
  0041d	8b 45 ec	 mov	 eax, DWORD PTR _pVertices$[ebp]
  00420	c7 80 88 01 00
	00 00 00 00 bf	 mov	 DWORD PTR [eax+392], -1090519040 ; bf000000H
  0042a	8b 45 ec	 mov	 eax, DWORD PTR _pVertices$[ebp]
  0042d	8b 4d bc	 mov	 ecx, DWORD PTR _fStartTexCoord$[ebp]
  00430	89 88 98 01 00
	00		 mov	 DWORD PTR [eax+408], ecx
  00436	8b 45 ec	 mov	 eax, DWORD PTR _pVertices$[ebp]
  00439	8b 4d bc	 mov	 ecx, DWORD PTR _fStartTexCoord$[ebp]
  0043c	89 88 9c 01 00
	00		 mov	 DWORD PTR [eax+412], ecx

; 251  : 		pVertices[13].x = -0.5f ; pVertices[13].y = +0.5f ; pVertices[13].z = +0.5f ; pVertices[13].tu1 = fEndTexCoord ; pVertices[13].tv1 = fStartTexCoord ;

  00442	8b 45 ec	 mov	 eax, DWORD PTR _pVertices$[ebp]
  00445	c7 80 a0 01 00
	00 00 00 00 bf	 mov	 DWORD PTR [eax+416], -1090519040 ; bf000000H
  0044f	8b 45 ec	 mov	 eax, DWORD PTR _pVertices$[ebp]
  00452	c7 80 a4 01 00
	00 00 00 00 3f	 mov	 DWORD PTR [eax+420], 1056964608 ; 3f000000H
  0045c	8b 45 ec	 mov	 eax, DWORD PTR _pVertices$[ebp]
  0045f	c7 80 a8 01 00
	00 00 00 00 3f	 mov	 DWORD PTR [eax+424], 1056964608 ; 3f000000H
  00469	8b 45 ec	 mov	 eax, DWORD PTR _pVertices$[ebp]
  0046c	8b 4d b0	 mov	 ecx, DWORD PTR _fEndTexCoord$[ebp]
  0046f	89 88 b8 01 00
	00		 mov	 DWORD PTR [eax+440], ecx
  00475	8b 45 ec	 mov	 eax, DWORD PTR _pVertices$[ebp]
  00478	8b 4d bc	 mov	 ecx, DWORD PTR _fStartTexCoord$[ebp]
  0047b	89 88 bc 01 00
	00		 mov	 DWORD PTR [eax+444], ecx

; 252  : 		pVertices[14].x = -0.5f ; pVertices[14].y = -0.5f ; pVertices[14].z = -0.5f ; pVertices[14].tu1 = fStartTexCoord ; pVertices[14].tv1 = fEndTexCoord ;

  00481	8b 45 ec	 mov	 eax, DWORD PTR _pVertices$[ebp]
  00484	c7 80 c0 01 00
	00 00 00 00 bf	 mov	 DWORD PTR [eax+448], -1090519040 ; bf000000H
  0048e	8b 45 ec	 mov	 eax, DWORD PTR _pVertices$[ebp]
  00491	c7 80 c4 01 00
	00 00 00 00 bf	 mov	 DWORD PTR [eax+452], -1090519040 ; bf000000H
  0049b	8b 45 ec	 mov	 eax, DWORD PTR _pVertices$[ebp]
  0049e	c7 80 c8 01 00
	00 00 00 00 bf	 mov	 DWORD PTR [eax+456], -1090519040 ; bf000000H
  004a8	8b 45 ec	 mov	 eax, DWORD PTR _pVertices$[ebp]
  004ab	8b 4d bc	 mov	 ecx, DWORD PTR _fStartTexCoord$[ebp]
  004ae	89 88 d8 01 00
	00		 mov	 DWORD PTR [eax+472], ecx
  004b4	8b 45 ec	 mov	 eax, DWORD PTR _pVertices$[ebp]
  004b7	8b 4d b0	 mov	 ecx, DWORD PTR _fEndTexCoord$[ebp]
  004ba	89 88 dc 01 00
	00		 mov	 DWORD PTR [eax+476], ecx

; 253  : 		pVertices[15].x = -0.5f ; pVertices[15].y = -0.5f ; pVertices[15].z = +0.5f ; pVertices[15].tu1 = fEndTexCoord ; pVertices[15].tv1 = fEndTexCoord ;

  004c0	8b 45 ec	 mov	 eax, DWORD PTR _pVertices$[ebp]
  004c3	c7 80 e0 01 00
	00 00 00 00 bf	 mov	 DWORD PTR [eax+480], -1090519040 ; bf000000H
  004cd	8b 45 ec	 mov	 eax, DWORD PTR _pVertices$[ebp]
  004d0	c7 80 e4 01 00
	00 00 00 00 bf	 mov	 DWORD PTR [eax+484], -1090519040 ; bf000000H
  004da	8b 45 ec	 mov	 eax, DWORD PTR _pVertices$[ebp]
  004dd	c7 80 e8 01 00
	00 00 00 00 3f	 mov	 DWORD PTR [eax+488], 1056964608 ; 3f000000H
  004e7	8b 45 ec	 mov	 eax, DWORD PTR _pVertices$[ebp]
  004ea	8b 4d b0	 mov	 ecx, DWORD PTR _fEndTexCoord$[ebp]
  004ed	89 88 f8 01 00
	00		 mov	 DWORD PTR [eax+504], ecx
  004f3	8b 45 ec	 mov	 eax, DWORD PTR _pVertices$[ebp]
  004f6	8b 4d b0	 mov	 ecx, DWORD PTR _fEndTexCoord$[ebp]
  004f9	89 88 fc 01 00
	00		 mov	 DWORD PTR [eax+508], ecx

; 254  : 		pIndices[18] = 12 ; pIndices[19] = 13 ; pIndices[20] = 14 ;

  004ff	8b 45 d4	 mov	 eax, DWORD PTR _pIndices$[ebp]
  00502	66 c7 40 24 0c
	00		 mov	 WORD PTR [eax+36], 12	; 0000000cH
  00508	8b 45 d4	 mov	 eax, DWORD PTR _pIndices$[ebp]
  0050b	66 c7 40 26 0d
	00		 mov	 WORD PTR [eax+38], 13	; 0000000dH
  00511	8b 45 d4	 mov	 eax, DWORD PTR _pIndices$[ebp]
  00514	66 c7 40 28 0e
	00		 mov	 WORD PTR [eax+40], 14	; 0000000eH

; 255  : 		pIndices[21] = 13 ; pIndices[22] = 14 ; pIndices[23] = 15 ;

  0051a	8b 45 d4	 mov	 eax, DWORD PTR _pIndices$[ebp]
  0051d	66 c7 40 2a 0d
	00		 mov	 WORD PTR [eax+42], 13	; 0000000dH
  00523	8b 45 d4	 mov	 eax, DWORD PTR _pIndices$[ebp]
  00526	66 c7 40 2c 0e
	00		 mov	 WORD PTR [eax+44], 14	; 0000000eH
  0052c	8b 45 d4	 mov	 eax, DWORD PTR _pIndices$[ebp]
  0052f	66 c7 40 2e 0f
	00		 mov	 WORD PTR [eax+46], 15	; 0000000fH

; 256  : 		// up face
; 257  : 		pVertices[16].x = -0.5f ; pVertices[16].y = +0.5f ; pVertices[16].z = -0.5f ; pVertices[16].tu1 = fStartTexCoord ; pVertices[16].tv1 = fEndTexCoord ;

  00535	8b 45 ec	 mov	 eax, DWORD PTR _pVertices$[ebp]
  00538	c7 80 00 02 00
	00 00 00 00 bf	 mov	 DWORD PTR [eax+512], -1090519040 ; bf000000H
  00542	8b 45 ec	 mov	 eax, DWORD PTR _pVertices$[ebp]
  00545	c7 80 04 02 00
	00 00 00 00 3f	 mov	 DWORD PTR [eax+516], 1056964608 ; 3f000000H
  0054f	8b 45 ec	 mov	 eax, DWORD PTR _pVertices$[ebp]
  00552	c7 80 08 02 00
	00 00 00 00 bf	 mov	 DWORD PTR [eax+520], -1090519040 ; bf000000H
  0055c	8b 45 ec	 mov	 eax, DWORD PTR _pVertices$[ebp]
  0055f	8b 4d bc	 mov	 ecx, DWORD PTR _fStartTexCoord$[ebp]
  00562	89 88 18 02 00
	00		 mov	 DWORD PTR [eax+536], ecx
  00568	8b 45 ec	 mov	 eax, DWORD PTR _pVertices$[ebp]
  0056b	8b 4d b0	 mov	 ecx, DWORD PTR _fEndTexCoord$[ebp]
  0056e	89 88 1c 02 00
	00		 mov	 DWORD PTR [eax+540], ecx

; 258  : 		pVertices[17].x = +0.5f ; pVertices[17].y = +0.5f ; pVertices[17].z = -0.5f ; pVertices[17].tu1 = fStartTexCoord ; pVertices[17].tv1 = fStartTexCoord ;

  00574	8b 45 ec	 mov	 eax, DWORD PTR _pVertices$[ebp]
  00577	c7 80 20 02 00
	00 00 00 00 3f	 mov	 DWORD PTR [eax+544], 1056964608 ; 3f000000H
  00581	8b 45 ec	 mov	 eax, DWORD PTR _pVertices$[ebp]
  00584	c7 80 24 02 00
	00 00 00 00 3f	 mov	 DWORD PTR [eax+548], 1056964608 ; 3f000000H
  0058e	8b 45 ec	 mov	 eax, DWORD PTR _pVertices$[ebp]
  00591	c7 80 28 02 00
	00 00 00 00 bf	 mov	 DWORD PTR [eax+552], -1090519040 ; bf000000H
  0059b	8b 45 ec	 mov	 eax, DWORD PTR _pVertices$[ebp]
  0059e	8b 4d bc	 mov	 ecx, DWORD PTR _fStartTexCoord$[ebp]
  005a1	89 88 38 02 00
	00		 mov	 DWORD PTR [eax+568], ecx
  005a7	8b 45 ec	 mov	 eax, DWORD PTR _pVertices$[ebp]
  005aa	8b 4d bc	 mov	 ecx, DWORD PTR _fStartTexCoord$[ebp]
  005ad	89 88 3c 02 00
	00		 mov	 DWORD PTR [eax+572], ecx

; 259  : 		pVertices[18].x = -0.5f ; pVertices[18].y = +0.5f ; pVertices[18].z = +0.5f ; pVertices[18].tu1 = fEndTexCoord ; pVertices[18].tv1 = fEndTexCoord ;

  005b3	8b 45 ec	 mov	 eax, DWORD PTR _pVertices$[ebp]
  005b6	c7 80 40 02 00
	00 00 00 00 bf	 mov	 DWORD PTR [eax+576], -1090519040 ; bf000000H
  005c0	8b 45 ec	 mov	 eax, DWORD PTR _pVertices$[ebp]
  005c3	c7 80 44 02 00
	00 00 00 00 3f	 mov	 DWORD PTR [eax+580], 1056964608 ; 3f000000H
  005cd	8b 45 ec	 mov	 eax, DWORD PTR _pVertices$[ebp]
  005d0	c7 80 48 02 00
	00 00 00 00 3f	 mov	 DWORD PTR [eax+584], 1056964608 ; 3f000000H
  005da	8b 45 ec	 mov	 eax, DWORD PTR _pVertices$[ebp]
  005dd	8b 4d b0	 mov	 ecx, DWORD PTR _fEndTexCoord$[ebp]
  005e0	89 88 58 02 00
	00		 mov	 DWORD PTR [eax+600], ecx
  005e6	8b 45 ec	 mov	 eax, DWORD PTR _pVertices$[ebp]
  005e9	8b 4d b0	 mov	 ecx, DWORD PTR _fEndTexCoord$[ebp]
  005ec	89 88 5c 02 00
	00		 mov	 DWORD PTR [eax+604], ecx

; 260  : 		pVertices[19].x = +0.5f ; pVertices[19].y = +0.5f ; pVertices[19].z = +0.5f ; pVertices[19].tu1 = fEndTexCoord ; pVertices[19].tv1 = fStartTexCoord ;

  005f2	8b 45 ec	 mov	 eax, DWORD PTR _pVertices$[ebp]
  005f5	c7 80 60 02 00
	00 00 00 00 3f	 mov	 DWORD PTR [eax+608], 1056964608 ; 3f000000H
  005ff	8b 45 ec	 mov	 eax, DWORD PTR _pVertices$[ebp]
  00602	c7 80 64 02 00
	00 00 00 00 3f	 mov	 DWORD PTR [eax+612], 1056964608 ; 3f000000H
  0060c	8b 45 ec	 mov	 eax, DWORD PTR _pVertices$[ebp]
  0060f	c7 80 68 02 00
	00 00 00 00 3f	 mov	 DWORD PTR [eax+616], 1056964608 ; 3f000000H
  00619	8b 45 ec	 mov	 eax, DWORD PTR _pVertices$[ebp]
  0061c	8b 4d b0	 mov	 ecx, DWORD PTR _fEndTexCoord$[ebp]
  0061f	89 88 78 02 00
	00		 mov	 DWORD PTR [eax+632], ecx
  00625	8b 45 ec	 mov	 eax, DWORD PTR _pVertices$[ebp]
  00628	8b 4d bc	 mov	 ecx, DWORD PTR _fStartTexCoord$[ebp]
  0062b	89 88 7c 02 00
	00		 mov	 DWORD PTR [eax+636], ecx

; 261  : 		pIndices[24] = 16 ; pIndices[25] = 17 ; pIndices[26] = 18 ;

  00631	8b 45 d4	 mov	 eax, DWORD PTR _pIndices$[ebp]
  00634	66 c7 40 30 10
	00		 mov	 WORD PTR [eax+48], 16	; 00000010H
  0063a	8b 45 d4	 mov	 eax, DWORD PTR _pIndices$[ebp]
  0063d	66 c7 40 32 11
	00		 mov	 WORD PTR [eax+50], 17	; 00000011H
  00643	8b 45 d4	 mov	 eax, DWORD PTR _pIndices$[ebp]
  00646	66 c7 40 34 12
	00		 mov	 WORD PTR [eax+52], 18	; 00000012H

; 262  : 		pIndices[27] = 17 ; pIndices[28] = 18 ; pIndices[29] = 19 ;

  0064c	8b 45 d4	 mov	 eax, DWORD PTR _pIndices$[ebp]
  0064f	66 c7 40 36 11
	00		 mov	 WORD PTR [eax+54], 17	; 00000011H
  00655	8b 45 d4	 mov	 eax, DWORD PTR _pIndices$[ebp]
  00658	66 c7 40 38 12
	00		 mov	 WORD PTR [eax+56], 18	; 00000012H
  0065e	8b 45 d4	 mov	 eax, DWORD PTR _pIndices$[ebp]
  00661	66 c7 40 3a 13
	00		 mov	 WORD PTR [eax+58], 19	; 00000013H

; 263  : 		// down face
; 264  : 		pVertices[20].x = -0.5f ; pVertices[20].y = -0.5f ; pVertices[20].z = -0.5f ; pVertices[20].tu1 = fStartTexCoord ; pVertices[20].tv1 = fEndTexCoord ;

  00667	8b 45 ec	 mov	 eax, DWORD PTR _pVertices$[ebp]
  0066a	c7 80 80 02 00
	00 00 00 00 bf	 mov	 DWORD PTR [eax+640], -1090519040 ; bf000000H
  00674	8b 45 ec	 mov	 eax, DWORD PTR _pVertices$[ebp]
  00677	c7 80 84 02 00
	00 00 00 00 bf	 mov	 DWORD PTR [eax+644], -1090519040 ; bf000000H
  00681	8b 45 ec	 mov	 eax, DWORD PTR _pVertices$[ebp]
  00684	c7 80 88 02 00
	00 00 00 00 bf	 mov	 DWORD PTR [eax+648], -1090519040 ; bf000000H
  0068e	8b 45 ec	 mov	 eax, DWORD PTR _pVertices$[ebp]
  00691	8b 4d bc	 mov	 ecx, DWORD PTR _fStartTexCoord$[ebp]
  00694	89 88 98 02 00
	00		 mov	 DWORD PTR [eax+664], ecx
  0069a	8b 45 ec	 mov	 eax, DWORD PTR _pVertices$[ebp]
  0069d	8b 4d b0	 mov	 ecx, DWORD PTR _fEndTexCoord$[ebp]
  006a0	89 88 9c 02 00
	00		 mov	 DWORD PTR [eax+668], ecx

; 265  : 		pVertices[21].x = +0.5f ; pVertices[21].y = -0.5f ; pVertices[21].z = -0.5f ; pVertices[21].tu1 = fStartTexCoord ; pVertices[21].tv1 = fStartTexCoord ;

  006a6	8b 45 ec	 mov	 eax, DWORD PTR _pVertices$[ebp]
  006a9	c7 80 a0 02 00
	00 00 00 00 3f	 mov	 DWORD PTR [eax+672], 1056964608 ; 3f000000H
  006b3	8b 45 ec	 mov	 eax, DWORD PTR _pVertices$[ebp]
  006b6	c7 80 a4 02 00
	00 00 00 00 bf	 mov	 DWORD PTR [eax+676], -1090519040 ; bf000000H
  006c0	8b 45 ec	 mov	 eax, DWORD PTR _pVertices$[ebp]
  006c3	c7 80 a8 02 00
	00 00 00 00 bf	 mov	 DWORD PTR [eax+680], -1090519040 ; bf000000H
  006cd	8b 45 ec	 mov	 eax, DWORD PTR _pVertices$[ebp]
  006d0	8b 4d bc	 mov	 ecx, DWORD PTR _fStartTexCoord$[ebp]
  006d3	89 88 b8 02 00
	00		 mov	 DWORD PTR [eax+696], ecx
  006d9	8b 45 ec	 mov	 eax, DWORD PTR _pVertices$[ebp]
  006dc	8b 4d bc	 mov	 ecx, DWORD PTR _fStartTexCoord$[ebp]
  006df	89 88 bc 02 00
	00		 mov	 DWORD PTR [eax+700], ecx

; 266  : 		pVertices[22].x = -0.5f ; pVertices[22].y = -0.5f ; pVertices[22].z = +0.5f ; pVertices[22].tu1 = fEndTexCoord ; pVertices[22].tv1 = fEndTexCoord ;

  006e5	8b 45 ec	 mov	 eax, DWORD PTR _pVertices$[ebp]
  006e8	c7 80 c0 02 00
	00 00 00 00 bf	 mov	 DWORD PTR [eax+704], -1090519040 ; bf000000H
  006f2	8b 45 ec	 mov	 eax, DWORD PTR _pVertices$[ebp]
  006f5	c7 80 c4 02 00
	00 00 00 00 bf	 mov	 DWORD PTR [eax+708], -1090519040 ; bf000000H
  006ff	8b 45 ec	 mov	 eax, DWORD PTR _pVertices$[ebp]
  00702	c7 80 c8 02 00
	00 00 00 00 3f	 mov	 DWORD PTR [eax+712], 1056964608 ; 3f000000H
  0070c	8b 45 ec	 mov	 eax, DWORD PTR _pVertices$[ebp]
  0070f	8b 4d b0	 mov	 ecx, DWORD PTR _fEndTexCoord$[ebp]
  00712	89 88 d8 02 00
	00		 mov	 DWORD PTR [eax+728], ecx
  00718	8b 45 ec	 mov	 eax, DWORD PTR _pVertices$[ebp]
  0071b	8b 4d b0	 mov	 ecx, DWORD PTR _fEndTexCoord$[ebp]
  0071e	89 88 dc 02 00
	00		 mov	 DWORD PTR [eax+732], ecx

; 267  : 		pVertices[23].x = +0.5f ; pVertices[23].y = -0.5f ; pVertices[23].z = +0.5f ; pVertices[23].tu1 = fEndTexCoord ; pVertices[23].tv1 = fStartTexCoord ;

  00724	8b 45 ec	 mov	 eax, DWORD PTR _pVertices$[ebp]
  00727	c7 80 e0 02 00
	00 00 00 00 3f	 mov	 DWORD PTR [eax+736], 1056964608 ; 3f000000H
  00731	8b 45 ec	 mov	 eax, DWORD PTR _pVertices$[ebp]
  00734	c7 80 e4 02 00
	00 00 00 00 bf	 mov	 DWORD PTR [eax+740], -1090519040 ; bf000000H
  0073e	8b 45 ec	 mov	 eax, DWORD PTR _pVertices$[ebp]
  00741	c7 80 e8 02 00
	00 00 00 00 3f	 mov	 DWORD PTR [eax+744], 1056964608 ; 3f000000H
  0074b	8b 45 ec	 mov	 eax, DWORD PTR _pVertices$[ebp]
  0074e	8b 4d b0	 mov	 ecx, DWORD PTR _fEndTexCoord$[ebp]
  00751	89 88 f8 02 00
	00		 mov	 DWORD PTR [eax+760], ecx
  00757	8b 45 ec	 mov	 eax, DWORD PTR _pVertices$[ebp]
  0075a	8b 4d bc	 mov	 ecx, DWORD PTR _fStartTexCoord$[ebp]
  0075d	89 88 fc 02 00
	00		 mov	 DWORD PTR [eax+764], ecx

; 268  : 		pIndices[30] = 20 ; pIndices[31] = 21 ; pIndices[32] = 22 ;

  00763	8b 45 d4	 mov	 eax, DWORD PTR _pIndices$[ebp]
  00766	66 c7 40 3c 14
	00		 mov	 WORD PTR [eax+60], 20	; 00000014H
  0076c	8b 45 d4	 mov	 eax, DWORD PTR _pIndices$[ebp]
  0076f	66 c7 40 3e 15
	00		 mov	 WORD PTR [eax+62], 21	; 00000015H
  00775	8b 45 d4	 mov	 eax, DWORD PTR _pIndices$[ebp]
  00778	66 c7 40 40 16
	00		 mov	 WORD PTR [eax+64], 22	; 00000016H

; 269  : 		pIndices[33] = 21 ; pIndices[34] = 22 ; pIndices[35] = 23 ;

  0077e	8b 45 d4	 mov	 eax, DWORD PTR _pIndices$[ebp]
  00781	66 c7 40 42 15
	00		 mov	 WORD PTR [eax+66], 21	; 00000015H
  00787	8b 45 d4	 mov	 eax, DWORD PTR _pIndices$[ebp]
  0078a	66 c7 40 44 16
	00		 mov	 WORD PTR [eax+68], 22	; 00000016H
  00790	8b 45 d4	 mov	 eax, DWORD PTR _pIndices$[ebp]
  00793	66 c7 40 46 17
	00		 mov	 WORD PTR [eax+70], 23	; 00000017H

; 270  : 		
; 271  : 	//
; 272  : 	// xfer vertex data to underlying RenderObject:
; 273  : 	//
; 274  : 		r1 = 1 ; //rnd() ;

  00799	8b 45 f8	 mov	 eax, DWORD PTR _this$[ebp]
  0079c	c7 40 04 00 00
	80 3f		 mov	 DWORD PTR [eax+4], 1065353216 ; 3f800000H

; 275  : 		r2 = 1 ; //rnd() ;

  007a3	8b 45 f8	 mov	 eax, DWORD PTR _this$[ebp]
  007a6	c7 40 08 00 00
	80 3f		 mov	 DWORD PTR [eax+8], 1065353216 ; 3f800000H

; 276  : 		int nTex ;
; 277  : 		if( bBlackSky )

  007ad	83 7d 08 00	 cmp	 DWORD PTR _bBlackSky$[ebp], 0
  007b1	74 14		 je	 SHORT $L85494

; 278  : 			r1 = r2 = 0 ;

  007b3	8b 45 f8	 mov	 eax, DWORD PTR _this$[ebp]
  007b6	c7 40 08 00 00
	00 00		 mov	 DWORD PTR [eax+8], 0
  007bd	8b 4d f8	 mov	 ecx, DWORD PTR _this$[ebp]
  007c0	c7 41 04 00 00
	00 00		 mov	 DWORD PTR [ecx+4], 0
$L85494:

; 279  : 
; 280  : 		for (unsigned i = 0 ; i < dwNumIndices ; i += 3)

  007c7	c7 45 98 00 00
	00 00		 mov	 DWORD PTR _i$85495[ebp], 0
  007ce	eb 09		 jmp	 SHORT $L85496
$L85497:
  007d0	8b 45 98	 mov	 eax, DWORD PTR _i$85495[ebp]
  007d3	83 c0 03	 add	 eax, 3
  007d6	89 45 98	 mov	 DWORD PTR _i$85495[ebp], eax
$L85496:
  007d9	8b 45 98	 mov	 eax, DWORD PTR _i$85495[ebp]
  007dc	3b 45 c8	 cmp	 eax, DWORD PTR _dwNumIndices$[ebp]
  007df	0f 83 d6 03 00
	00		 jae	 $L85498

; 281  : 		{
; 282  : 			UNCOLOREDVERTEX v[3] ;

  007e5	68 00 00 00 00	 push	 OFFSET FLAT:??0UNCOLOREDVERTEX@@QAE@XZ ; UNCOLOREDVERTEX::UNCOLOREDVERTEX
  007ea	6a 03		 push	 3
  007ec	6a 20		 push	 32			; 00000020H
  007ee	8d 85 30 ff ff
	ff		 lea	 eax, DWORD PTR _v$85499[ebp]
  007f4	50		 push	 eax
  007f5	e8 00 00 00 00	 call	 ??_H@YGXPAXIHP6EPAX0@Z@Z

; 283  : 			memcpy(&v[0], &pVertices[pIndices[i+0]], sizeof(UNCOLOREDVERTEX)) ;

  007fa	6a 20		 push	 32			; 00000020H
  007fc	8b 45 98	 mov	 eax, DWORD PTR _i$85495[ebp]
  007ff	8b 4d d4	 mov	 ecx, DWORD PTR _pIndices$[ebp]
  00802	0f b7 14 41	 movzx	 edx, WORD PTR [ecx+eax*2]
  00806	c1 e2 05	 shl	 edx, 5
  00809	8b 45 ec	 mov	 eax, DWORD PTR _pVertices$[ebp]
  0080c	03 c2		 add	 eax, edx
  0080e	50		 push	 eax
  0080f	8d 8d 30 ff ff
	ff		 lea	 ecx, DWORD PTR _v$85499[ebp]
  00815	51		 push	 ecx
  00816	e8 00 00 00 00	 call	 _memcpy
  0081b	83 c4 0c	 add	 esp, 12			; 0000000cH

; 284  : 			memcpy(&v[1], &pVertices[pIndices[i+1]], sizeof(UNCOLOREDVERTEX)) ;

  0081e	6a 20		 push	 32			; 00000020H
  00820	8b 45 98	 mov	 eax, DWORD PTR _i$85495[ebp]
  00823	8b 4d d4	 mov	 ecx, DWORD PTR _pIndices$[ebp]
  00826	0f b7 54 41 02	 movzx	 edx, WORD PTR [ecx+eax*2+2]
  0082b	c1 e2 05	 shl	 edx, 5
  0082e	8b 45 ec	 mov	 eax, DWORD PTR _pVertices$[ebp]
  00831	03 c2		 add	 eax, edx
  00833	50		 push	 eax
  00834	8d 8d 50 ff ff
	ff		 lea	 ecx, DWORD PTR _v$85499[ebp+32]
  0083a	51		 push	 ecx
  0083b	e8 00 00 00 00	 call	 _memcpy
  00840	83 c4 0c	 add	 esp, 12			; 0000000cH

; 285  : 			memcpy(&v[2], &pVertices[pIndices[i+2]], sizeof(UNCOLOREDVERTEX)) ;

  00843	6a 20		 push	 32			; 00000020H
  00845	8b 45 98	 mov	 eax, DWORD PTR _i$85495[ebp]
  00848	8b 4d d4	 mov	 ecx, DWORD PTR _pIndices$[ebp]
  0084b	0f b7 54 41 04	 movzx	 edx, WORD PTR [ecx+eax*2+4]
  00850	c1 e2 05	 shl	 edx, 5
  00853	8b 45 ec	 mov	 eax, DWORD PTR _pVertices$[ebp]
  00856	03 c2		 add	 eax, edx
  00858	50		 push	 eax
  00859	8d 8d 70 ff ff
	ff		 lea	 ecx, DWORD PTR _v$85499[ebp+64]
  0085f	51		 push	 ecx
  00860	e8 00 00 00 00	 call	 _memcpy
  00865	83 c4 0c	 add	 esp, 12			; 0000000cH

; 286  : 			
; 287  : 			D3DCOLOR c[3];
; 288  : 			float y, a ;
; 289  : 			
; 290  : 			y = (v[0].y / 1.0f) ;

  00868	d9 85 34 ff ff
	ff		 fld	 DWORD PTR _v$85499[ebp+4]
  0086e	d8 35 00 00 00
	00		 fdiv	 DWORD PTR __real@3f800000
  00874	d9 9d 10 ff ff
	ff		 fstp	 DWORD PTR _y$85505[ebp]

; 291  : 			a = y * 64.0f ;

  0087a	d9 85 10 ff ff
	ff		 fld	 DWORD PTR _y$85505[ebp]
  00880	d8 0d 00 00 00
	00		 fmul	 DWORD PTR __real@42800000
  00886	d9 9d 04 ff ff
	ff		 fstp	 DWORD PTR _a$85506[ebp]

; 292  : 			c[0] = D3DCOLOR_ARGB((int)a, (int)((1-y) * r1 * 128), (int)((1-y)/r1 * r2 * 128), (int)(y/r2 * 128)) ;

  0088c	d9 85 04 ff ff
	ff		 fld	 DWORD PTR _a$85506[ebp]
  00892	e8 00 00 00 00	 call	 __ftol2
  00897	8b f0		 mov	 esi, eax
  00899	81 e6 ff 00 00
	00		 and	 esi, 255		; 000000ffH
  0089f	c1 e6 18	 shl	 esi, 24			; 00000018H
  008a2	d9 05 00 00 00
	00		 fld	 DWORD PTR __real@3f800000
  008a8	d8 a5 10 ff ff
	ff		 fsub	 DWORD PTR _y$85505[ebp]
  008ae	8b 45 f8	 mov	 eax, DWORD PTR _this$[ebp]
  008b1	d8 48 04	 fmul	 DWORD PTR [eax+4]
  008b4	d8 0d 00 00 00
	00		 fmul	 DWORD PTR __real@43000000
  008ba	e8 00 00 00 00	 call	 __ftol2
  008bf	25 ff 00 00 00	 and	 eax, 255		; 000000ffH
  008c4	c1 e0 10	 shl	 eax, 16			; 00000010H
  008c7	0b f0		 or	 esi, eax
  008c9	d9 05 00 00 00
	00		 fld	 DWORD PTR __real@3f800000
  008cf	d8 a5 10 ff ff
	ff		 fsub	 DWORD PTR _y$85505[ebp]
  008d5	8b 4d f8	 mov	 ecx, DWORD PTR _this$[ebp]
  008d8	d8 71 04	 fdiv	 DWORD PTR [ecx+4]
  008db	8b 55 f8	 mov	 edx, DWORD PTR _this$[ebp]
  008de	d8 4a 08	 fmul	 DWORD PTR [edx+8]
  008e1	d8 0d 00 00 00
	00		 fmul	 DWORD PTR __real@43000000
  008e7	e8 00 00 00 00	 call	 __ftol2
  008ec	25 ff 00 00 00	 and	 eax, 255		; 000000ffH
  008f1	c1 e0 08	 shl	 eax, 8
  008f4	0b f0		 or	 esi, eax
  008f6	8b 45 f8	 mov	 eax, DWORD PTR _this$[ebp]
  008f9	d9 85 10 ff ff
	ff		 fld	 DWORD PTR _y$85505[ebp]
  008ff	d8 70 08	 fdiv	 DWORD PTR [eax+8]
  00902	d8 0d 00 00 00
	00		 fmul	 DWORD PTR __real@43000000
  00908	e8 00 00 00 00	 call	 __ftol2
  0090d	25 ff 00 00 00	 and	 eax, 255		; 000000ffH
  00912	0b f0		 or	 esi, eax
  00914	89 b5 1c ff ff
	ff		 mov	 DWORD PTR _c$85504[ebp], esi

; 293  : 
; 294  : 			y = (v[1].y / 1.0f) ;

  0091a	d9 85 54 ff ff
	ff		 fld	 DWORD PTR _v$85499[ebp+36]
  00920	d8 35 00 00 00
	00		 fdiv	 DWORD PTR __real@3f800000
  00926	d9 9d 10 ff ff
	ff		 fstp	 DWORD PTR _y$85505[ebp]

; 295  : 			a = y * 64.0f ;

  0092c	d9 85 10 ff ff
	ff		 fld	 DWORD PTR _y$85505[ebp]
  00932	d8 0d 00 00 00
	00		 fmul	 DWORD PTR __real@42800000
  00938	d9 9d 04 ff ff
	ff		 fstp	 DWORD PTR _a$85506[ebp]

; 296  : 			c[1] = D3DCOLOR_ARGB((int)a, (int)((1-y) * r1 * 128), (int)((1-y)/r1 * r2 * 128), (int)(y/r2 * 128)) ;

  0093e	d9 85 04 ff ff
	ff		 fld	 DWORD PTR _a$85506[ebp]
  00944	e8 00 00 00 00	 call	 __ftol2
  00949	8b f0		 mov	 esi, eax
  0094b	81 e6 ff 00 00
	00		 and	 esi, 255		; 000000ffH
  00951	c1 e6 18	 shl	 esi, 24			; 00000018H
  00954	d9 05 00 00 00
	00		 fld	 DWORD PTR __real@3f800000
  0095a	d8 a5 10 ff ff
	ff		 fsub	 DWORD PTR _y$85505[ebp]
  00960	8b 45 f8	 mov	 eax, DWORD PTR _this$[ebp]
  00963	d8 48 04	 fmul	 DWORD PTR [eax+4]
  00966	d8 0d 00 00 00
	00		 fmul	 DWORD PTR __real@43000000
  0096c	e8 00 00 00 00	 call	 __ftol2
  00971	25 ff 00 00 00	 and	 eax, 255		; 000000ffH
  00976	c1 e0 10	 shl	 eax, 16			; 00000010H
  00979	0b f0		 or	 esi, eax
  0097b	d9 05 00 00 00
	00		 fld	 DWORD PTR __real@3f800000
  00981	d8 a5 10 ff ff
	ff		 fsub	 DWORD PTR _y$85505[ebp]
  00987	8b 4d f8	 mov	 ecx, DWORD PTR _this$[ebp]
  0098a	d8 71 04	 fdiv	 DWORD PTR [ecx+4]
  0098d	8b 55 f8	 mov	 edx, DWORD PTR _this$[ebp]
  00990	d8 4a 08	 fmul	 DWORD PTR [edx+8]
  00993	d8 0d 00 00 00
	00		 fmul	 DWORD PTR __real@43000000
  00999	e8 00 00 00 00	 call	 __ftol2
  0099e	25 ff 00 00 00	 and	 eax, 255		; 000000ffH
  009a3	c1 e0 08	 shl	 eax, 8
  009a6	0b f0		 or	 esi, eax
  009a8	8b 45 f8	 mov	 eax, DWORD PTR _this$[ebp]
  009ab	d9 85 10 ff ff
	ff		 fld	 DWORD PTR _y$85505[ebp]
  009b1	d8 70 08	 fdiv	 DWORD PTR [eax+8]
  009b4	d8 0d 00 00 00
	00		 fmul	 DWORD PTR __real@43000000
  009ba	e8 00 00 00 00	 call	 __ftol2
  009bf	25 ff 00 00 00	 and	 eax, 255		; 000000ffH
  009c4	0b f0		 or	 esi, eax
  009c6	89 b5 20 ff ff
	ff		 mov	 DWORD PTR _c$85504[ebp+4], esi

; 297  : 
; 298  : 			y = (v[2].y / 1.0f) ;

  009cc	d9 85 74 ff ff
	ff		 fld	 DWORD PTR _v$85499[ebp+68]
  009d2	d8 35 00 00 00
	00		 fdiv	 DWORD PTR __real@3f800000
  009d8	d9 9d 10 ff ff
	ff		 fstp	 DWORD PTR _y$85505[ebp]

; 299  : 			a = y * 64.0f ;

  009de	d9 85 10 ff ff
	ff		 fld	 DWORD PTR _y$85505[ebp]
  009e4	d8 0d 00 00 00
	00		 fmul	 DWORD PTR __real@42800000
  009ea	d9 9d 04 ff ff
	ff		 fstp	 DWORD PTR _a$85506[ebp]

; 300  : 			c[2] = D3DCOLOR_ARGB((int)a, (int)((1-y) * r1 * 128), (int)((1-y)/r1 * r2 * 128), (int)(y/r2 * 128)) ;

  009f0	d9 85 04 ff ff
	ff		 fld	 DWORD PTR _a$85506[ebp]
  009f6	e8 00 00 00 00	 call	 __ftol2
  009fb	8b f0		 mov	 esi, eax
  009fd	81 e6 ff 00 00
	00		 and	 esi, 255		; 000000ffH
  00a03	c1 e6 18	 shl	 esi, 24			; 00000018H
  00a06	d9 05 00 00 00
	00		 fld	 DWORD PTR __real@3f800000
  00a0c	d8 a5 10 ff ff
	ff		 fsub	 DWORD PTR _y$85505[ebp]
  00a12	8b 45 f8	 mov	 eax, DWORD PTR _this$[ebp]
  00a15	d8 48 04	 fmul	 DWORD PTR [eax+4]
  00a18	d8 0d 00 00 00
	00		 fmul	 DWORD PTR __real@43000000
  00a1e	e8 00 00 00 00	 call	 __ftol2
  00a23	25 ff 00 00 00	 and	 eax, 255		; 000000ffH
  00a28	c1 e0 10	 shl	 eax, 16			; 00000010H
  00a2b	0b f0		 or	 esi, eax
  00a2d	d9 05 00 00 00
	00		 fld	 DWORD PTR __real@3f800000
  00a33	d8 a5 10 ff ff
	ff		 fsub	 DWORD PTR _y$85505[ebp]
  00a39	8b 4d f8	 mov	 ecx, DWORD PTR _this$[ebp]
  00a3c	d8 71 04	 fdiv	 DWORD PTR [ecx+4]
  00a3f	8b 55 f8	 mov	 edx, DWORD PTR _this$[ebp]
  00a42	d8 4a 08	 fmul	 DWORD PTR [edx+8]
  00a45	d8 0d 00 00 00
	00		 fmul	 DWORD PTR __real@43000000
  00a4b	e8 00 00 00 00	 call	 __ftol2
  00a50	25 ff 00 00 00	 and	 eax, 255		; 000000ffH
  00a55	c1 e0 08	 shl	 eax, 8
  00a58	0b f0		 or	 esi, eax
  00a5a	8b 45 f8	 mov	 eax, DWORD PTR _this$[ebp]
  00a5d	d9 85 10 ff ff
	ff		 fld	 DWORD PTR _y$85505[ebp]
  00a63	d8 70 08	 fdiv	 DWORD PTR [eax+8]
  00a66	d8 0d 00 00 00
	00		 fmul	 DWORD PTR __real@43000000
  00a6c	e8 00 00 00 00	 call	 __ftol2
  00a71	25 ff 00 00 00	 and	 eax, 255		; 000000ffH
  00a76	0b f0		 or	 esi, eax
  00a78	89 b5 24 ff ff
	ff		 mov	 DWORD PTR _c$85504[ebp+8], esi

; 301  : 
; 302  : 			D3DCOLOR s[3] ;
; 303  : 			s[0] = D3DCOLOR_ARGB(0,0,0,0) ;

  00a7e	c7 85 f0 fe ff
	ff 00 00 00 00	 mov	 DWORD PTR _s$85522[ebp], 0

; 304  : 			s[1] = D3DCOLOR_ARGB(0,0,0,0) ;

  00a88	c7 85 f4 fe ff
	ff 00 00 00 00	 mov	 DWORD PTR _s$85522[ebp+4], 0

; 305  : 			s[2] = D3DCOLOR_ARGB(0,0,0,0) ;

  00a92	c7 85 f8 fe ff
	ff 00 00 00 00	 mov	 DWORD PTR _s$85522[ebp+8], 0

; 306  : 
; 307  : 			// second tex. coords.
; 308  : 			float fTU2[3], fTV2[3] ;
; 309  : 			fTU2[0] = v[0].tu1 * 2.0f ;

  00a9c	d9 85 48 ff ff
	ff		 fld	 DWORD PTR _v$85499[ebp+24]
  00aa2	dc c0		 fadd	 ST(0), ST(0)
  00aa4	d9 9d dc fe ff
	ff		 fstp	 DWORD PTR _fTU2$85526[ebp]

; 310  : 			fTU2[1] = v[1].tu1 * 2.0f ;

  00aaa	d9 85 68 ff ff
	ff		 fld	 DWORD PTR _v$85499[ebp+56]
  00ab0	dc c0		 fadd	 ST(0), ST(0)
  00ab2	d9 9d e0 fe ff
	ff		 fstp	 DWORD PTR _fTU2$85526[ebp+4]

; 311  : 			fTU2[2] = v[2].tu1 * 2.0f ;

  00ab8	d9 45 88	 fld	 DWORD PTR _v$85499[ebp+88]
  00abb	dc c0		 fadd	 ST(0), ST(0)
  00abd	d9 9d e4 fe ff
	ff		 fstp	 DWORD PTR _fTU2$85526[ebp+8]

; 312  : 			fTV2[0] = v[0].tv1 * 2.0f ;

  00ac3	d9 85 4c ff ff
	ff		 fld	 DWORD PTR _v$85499[ebp+28]
  00ac9	dc c0		 fadd	 ST(0), ST(0)
  00acb	d9 9d c8 fe ff
	ff		 fstp	 DWORD PTR _fTV2$85527[ebp]

; 313  : 			fTV2[1] = v[1].tv1 * 2.0f ;

  00ad1	d9 85 6c ff ff
	ff		 fld	 DWORD PTR _v$85499[ebp+60]
  00ad7	dc c0		 fadd	 ST(0), ST(0)
  00ad9	d9 9d cc fe ff
	ff		 fstp	 DWORD PTR _fTV2$85527[ebp+4]

; 314  : 			fTV2[2] = v[2].tv1 * 2.0f ;

  00adf	d9 45 8c	 fld	 DWORD PTR _v$85499[ebp+92]
  00ae2	dc c0		 fadd	 ST(0), ST(0)
  00ae4	d9 9d d0 fe ff
	ff		 fstp	 DWORD PTR _fTV2$85527[ebp+8]

; 315  : 
; 316  : 			if (i == 0) nTex = SKY_TEX_START + 0 ;

  00aea	83 7d 98 00	 cmp	 DWORD PTR _i$85495[ebp], 0
  00aee	75 0e		 jne	 SHORT $L85528
  00af0	c6 85 ff fd ff
	ff 01		 mov	 BYTE PTR $T85712[ebp], 1
  00af7	c7 45 a4 64 00
	00 00		 mov	 DWORD PTR _nTex$[ebp], 100 ; 00000064H
$L85528:

; 317  : 			if (i == 6) nTex = SKY_TEX_START + 1 ;

  00afe	83 7d 98 06	 cmp	 DWORD PTR _i$85495[ebp], 6
  00b02	75 0e		 jne	 SHORT $L85529
  00b04	c6 85 ff fd ff
	ff 01		 mov	 BYTE PTR $T85712[ebp], 1
  00b0b	c7 45 a4 65 00
	00 00		 mov	 DWORD PTR _nTex$[ebp], 101 ; 00000065H
$L85529:

; 318  : 			if (i == 12) nTex = SKY_TEX_START + 2 ;

  00b12	83 7d 98 0c	 cmp	 DWORD PTR _i$85495[ebp], 12 ; 0000000cH
  00b16	75 0e		 jne	 SHORT $L85530
  00b18	c6 85 ff fd ff
	ff 01		 mov	 BYTE PTR $T85712[ebp], 1
  00b1f	c7 45 a4 66 00
	00 00		 mov	 DWORD PTR _nTex$[ebp], 102 ; 00000066H
$L85530:

; 319  : 			if (i == 18) nTex = SKY_TEX_START + 3 ;

  00b26	83 7d 98 12	 cmp	 DWORD PTR _i$85495[ebp], 18 ; 00000012H
  00b2a	75 0e		 jne	 SHORT $L85531
  00b2c	c6 85 ff fd ff
	ff 01		 mov	 BYTE PTR $T85712[ebp], 1
  00b33	c7 45 a4 67 00
	00 00		 mov	 DWORD PTR _nTex$[ebp], 103 ; 00000067H
$L85531:

; 320  : 			if (i == 24) nTex = SKY_TEX_START + 4 ;

  00b3a	83 7d 98 18	 cmp	 DWORD PTR _i$85495[ebp], 24 ; 00000018H
  00b3e	75 0e		 jne	 SHORT $L85532
  00b40	c6 85 ff fd ff
	ff 01		 mov	 BYTE PTR $T85712[ebp], 1
  00b47	c7 45 a4 68 00
	00 00		 mov	 DWORD PTR _nTex$[ebp], 104 ; 00000068H
$L85532:

; 321  : 			if (i == 30) nTex = SKY_TEX_START + 5 ;

  00b4e	83 7d 98 1e	 cmp	 DWORD PTR _i$85495[ebp], 30 ; 0000001eH
  00b52	75 0e		 jne	 SHORT $L85533
  00b54	c6 85 ff fd ff
	ff 01		 mov	 BYTE PTR $T85712[ebp], 1
  00b5b	c7 45 a4 69 00
	00 00		 mov	 DWORD PTR _nTex$[ebp], 105 ; 00000069H
$L85533:

; 322  : 
; 323  : 			if (m_pRO->AddX7LT(v, &c[0], &s[0], nTex, 0, fTU2, fTV2) == NULL)

  00b62	80 bd ff fd ff
	ff 00		 cmp	 BYTE PTR $T85712[ebp], 0
  00b69	75 0d		 jne	 SHORT $L85713
  00b6b	68 00 00 00 00	 push	 OFFSET FLAT:$L85714
  00b70	e8 00 00 00 00	 call	 __RTC_UninitUse
  00b75	83 c4 04	 add	 esp, 4
$L85713:
  00b78	8d 85 c8 fe ff
	ff		 lea	 eax, DWORD PTR _fTV2$85527[ebp]
  00b7e	50		 push	 eax
  00b7f	8d 8d dc fe ff
	ff		 lea	 ecx, DWORD PTR _fTU2$85526[ebp]
  00b85	51		 push	 ecx
  00b86	6a 00		 push	 0
  00b88	8b 55 a4	 mov	 edx, DWORD PTR _nTex$[ebp]
  00b8b	52		 push	 edx
  00b8c	8d 85 f0 fe ff
	ff		 lea	 eax, DWORD PTR _s$85522[ebp]
  00b92	50		 push	 eax
  00b93	8d 8d 1c ff ff
	ff		 lea	 ecx, DWORD PTR _c$85504[ebp]
  00b99	51		 push	 ecx
  00b9a	8d 95 30 ff ff
	ff		 lea	 edx, DWORD PTR _v$85499[ebp]
  00ba0	52		 push	 edx
  00ba1	8b 45 f8	 mov	 eax, DWORD PTR _this$[ebp]
  00ba4	8b 08		 mov	 ecx, DWORD PTR [eax]
  00ba6	e8 00 00 00 00	 call	 ?AddX7LT@CProceduralRenderObject@@QAEPAUX7LT@@PAUUNCOLOREDVERTEX@@PAK1KKPAM2@Z ; CProceduralRenderObject::AddX7LT
  00bab	85 c0		 test	 eax, eax
  00bad	75 07		 jne	 SHORT $L85534

; 324  : 				return E_FAIL ;

  00baf	b8 05 40 00 80	 mov	 eax, -2147467259	; 80004005H
  00bb4	eb 1f		 jmp	 SHORT $L85477
$L85534:

; 325  : 		}

  00bb6	e9 15 fc ff ff	 jmp	 $L85497
$L85498:

; 326  : 
; 327  : 	//
; 328  : 	// Release mem.:
; 329  : 	//
; 330  : 		free(pVertices) ;

  00bbb	8b 45 ec	 mov	 eax, DWORD PTR _pVertices$[ebp]
  00bbe	50		 push	 eax
  00bbf	e8 00 00 00 00	 call	 _free
  00bc4	83 c4 04	 add	 esp, 4

; 331  : 		free(pIndices) ;

  00bc7	8b 45 d4	 mov	 eax, DWORD PTR _pIndices$[ebp]
  00bca	50		 push	 eax
  00bcb	e8 00 00 00 00	 call	 _free
  00bd0	83 c4 04	 add	 esp, 4

; 332  : 
; 333  : 		return S_OK ;

  00bd3	33 c0		 xor	 eax, eax
$L85477:

; 334  : 	}

  00bd5	52		 push	 edx
  00bd6	8b cd		 mov	 ecx, ebp
  00bd8	50		 push	 eax
  00bd9	8d 15 00 00 00
	00		 lea	 edx, DWORD PTR $L85731
  00bdf	e8 00 00 00 00	 call	 @_RTC_CheckStackVars@8
  00be4	58		 pop	 eax
  00be5	5a		 pop	 edx
  00be6	5f		 pop	 edi
  00be7	5e		 pop	 esi
  00be8	5b		 pop	 ebx
  00be9	81 c4 08 02 00
	00		 add	 esp, 520		; 00000208H
  00bef	3b ec		 cmp	 ebp, esp
  00bf1	e8 00 00 00 00	 call	 __RTC_CheckEsp
  00bf6	8b e5		 mov	 esp, ebp
  00bf8	5d		 pop	 ebp
  00bf9	c2 04 00	 ret	 4
$L85731:
  00bfc	05 00 00 00	 DD	 5
  00c00	00 00 00 00	 DD	 $L85730
$L85730:
  00c04	30 ff ff ff	 DD	 -208			; ffffff30H
  00c08	60 00 00 00	 DD	 96			; 00000060H
  00c0c	00 00 00 00	 DD	 $L85725
  00c10	1c ff ff ff	 DD	 -228			; ffffff1cH
  00c14	0c 00 00 00	 DD	 12			; 0000000cH
  00c18	00 00 00 00	 DD	 $L85726
  00c1c	f0 fe ff ff	 DD	 -272			; fffffef0H
  00c20	0c 00 00 00	 DD	 12			; 0000000cH
  00c24	00 00 00 00	 DD	 $L85727
  00c28	dc fe ff ff	 DD	 -292			; fffffedcH
  00c2c	0c 00 00 00	 DD	 12			; 0000000cH
  00c30	00 00 00 00	 DD	 $L85728
  00c34	c8 fe ff ff	 DD	 -312			; fffffec8H
  00c38	0c 00 00 00	 DD	 12			; 0000000cH
  00c3c	00 00 00 00	 DD	 $L85729
$L85729:
  00c40	66		 DB	 102			; 00000066H
  00c41	54		 DB	 84			; 00000054H
  00c42	56		 DB	 86			; 00000056H
  00c43	32		 DB	 50			; 00000032H
  00c44	00		 DB	 0
$L85728:
  00c45	66		 DB	 102			; 00000066H
  00c46	54		 DB	 84			; 00000054H
  00c47	55		 DB	 85			; 00000055H
  00c48	32		 DB	 50			; 00000032H
  00c49	00		 DB	 0
$L85727:
  00c4a	73		 DB	 115			; 00000073H
  00c4b	00		 DB	 0
$L85726:
  00c4c	63		 DB	 99			; 00000063H
  00c4d	00		 DB	 0
$L85725:
  00c4e	76		 DB	 118			; 00000076H
  00c4f	00		 DB	 0
$L85714:
  00c50	6e		 DB	 110			; 0000006eH
  00c51	54		 DB	 84			; 00000054H
  00c52	65		 DB	 101			; 00000065H
  00c53	78		 DB	 120			; 00000078H
  00c54	00		 DB	 0
?Create@CSky@@QAEJH@Z ENDP				; CSky::Create
; Function compile flags: /Odt /RTCsu /ZI
_TEXT	ENDS
;	COMDAT ??_H@YGXPAXIHP6EPAX0@Z@Z
_TEXT	SEGMENT
___t$ = 8
___s$ = 12
___n$ = 16
___f$ = 20
??_H@YGXPAXIHP6EPAX0@Z@Z PROC NEAR			; `vector constructor iterator', COMDAT
  00000	55		 push	 ebp
  00001	8b ec		 mov	 ebp, esp
  00003	81 ec c0 00 00
	00		 sub	 esp, 192		; 000000c0H
  00009	53		 push	 ebx
  0000a	56		 push	 esi
  0000b	57		 push	 edi
  0000c	8d bd 40 ff ff
	ff		 lea	 edi, DWORD PTR [ebp-192]
  00012	b9 30 00 00 00	 mov	 ecx, 48			; 00000030H
  00017	b8 cc cc cc cc	 mov	 eax, -858993460		; ccccccccH
  0001c	f3 ab		 rep stosd
$L85545:
  0001e	8b 45 10	 mov	 eax, DWORD PTR ___n$[ebp]
  00021	83 e8 01	 sub	 eax, 1
  00024	89 45 10	 mov	 DWORD PTR ___n$[ebp], eax
  00027	83 7d 10 00	 cmp	 DWORD PTR ___n$[ebp], 0
  0002b	7c 1a		 jl	 SHORT $L85543
  0002d	8b f4		 mov	 esi, esp
  0002f	8b 4d 08	 mov	 ecx, DWORD PTR ___t$[ebp]
  00032	ff 55 14	 call	 DWORD PTR ___f$[ebp]
  00035	3b f4		 cmp	 esi, esp
  00037	e8 00 00 00 00	 call	 __RTC_CheckEsp
  0003c	8b 45 08	 mov	 eax, DWORD PTR ___t$[ebp]
  0003f	03 45 0c	 add	 eax, DWORD PTR ___s$[ebp]
  00042	89 45 08	 mov	 DWORD PTR ___t$[ebp], eax
  00045	eb d7		 jmp	 SHORT $L85545
$L85543:
  00047	5f		 pop	 edi
  00048	5e		 pop	 esi
  00049	5b		 pop	 ebx
  0004a	81 c4 c0 00 00
	00		 add	 esp, 192		; 000000c0H
  00050	3b ec		 cmp	 ebp, esp
  00052	e8 00 00 00 00	 call	 __RTC_CheckEsp
  00057	8b e5		 mov	 esp, ebp
  00059	5d		 pop	 ebp
  0005a	c2 10 00	 ret	 16			; 00000010H
??_H@YGXPAXIHP6EPAX0@Z@Z ENDP				; `vector constructor iterator'
_TEXT	ENDS
PUBLIC	?CreateHalfSphere@CSky@@IAEJPAUUNCOLOREDVERTEX@@PAKPAG1MK@Z ; CSky::CreateHalfSphere
PUBLIC	??0UNCOLOREDVERTEX@@QAE@MMMMMMMM@Z		; UNCOLOREDVERTEX::UNCOLOREDVERTEX
PUBLIC	?__LINE__Var@?1??CreateHalfSphere@CSky@@IAEJPAUUNCOLOREDVERTEX@@PAKPAG1MK@Z@4JA ; `CSky::CreateHalfSphere'::`2'::__LINE__Var
PUBLIC	??_C@_0BK@FJMAAAMI@dwNumVertices?5?$DM?5SD_MAX_VS?$AA@ ; `string'
PUBLIC	??_C@_0BN@NJLOINGM@dwNumIndices?5?$DM?5SD_MAX_VS?5?$CK?53?$AA@ ; `string'
PUBLIC	__real@40000000
PUBLIC	__real@3f000000
PUBLIC	??0D3DXVECTOR3@@QAE@XZ				; D3DXVECTOR3::D3DXVECTOR3
PUBLIC	??0D3DXVECTOR3@@QAE@MMM@Z			; D3DXVECTOR3::D3DXVECTOR3
PUBLIC	??GD3DXVECTOR3@@QBE?AU0@XZ			; D3DXVECTOR3::operator-
PUBLIC	??KD3DXVECTOR3@@QBE?AU0@M@Z			; D3DXVECTOR3::operator/
PUBLIC	??D@YA?AUD3DXVECTOR3@@MABU0@@Z			; operator*
EXTRN	_cos:NEAR
EXTRN	_sin:NEAR
;	COMDAT ?__LINE__Var@?1??CreateHalfSphere@CSky@@IAEJPAUUNCOLOREDVERTEX@@PAKPAG1MK@Z@4JA
_DATA	SEGMENT
?__LINE__Var@?1??CreateHalfSphere@CSky@@IAEJPAUUNCOLOREDVERTEX@@PAKPAG1MK@Z@4JA DD 015dH ; `CSky::CreateHalfSphere'::`2'::__LINE__Var
_DATA	ENDS
;	COMDAT ??_C@_0BK@FJMAAAMI@dwNumVertices?5?$DM?5SD_MAX_VS?$AA@
CONST	SEGMENT
??_C@_0BK@FJMAAAMI@dwNumVertices?5?$DM?5SD_MAX_VS?$AA@ DB 'dwNumVertices '
	DB	'< SD_MAX_VS', 00H				; `string'
CONST	ENDS
;	COMDAT ??_C@_0BN@NJLOINGM@dwNumIndices?5?$DM?5SD_MAX_VS?5?$CK?53?$AA@
CONST	SEGMENT
??_C@_0BN@NJLOINGM@dwNumIndices?5?$DM?5SD_MAX_VS?5?$CK?53?$AA@ DB 'dwNumI'
	DB	'ndices < SD_MAX_VS * 3', 00H		; `string'
CONST	ENDS
;	COMDAT __real@3f000000
CONST	SEGMENT
__real@3f000000 DD 03f000000r			; 0.5
CONST	ENDS
;	COMDAT __real@40000000
CONST	SEGMENT
__real@40000000 DD 040000000r			; 2
; Function compile flags: /Odt /RTCsu /ZI
CONST	ENDS
;	COMDAT ?CreateHalfSphere@CSky@@IAEJPAUUNCOLOREDVERTEX@@PAKPAG1MK@Z
_TEXT	SEGMENT
tv513 = -752
tv459 = -752
tv435 = -752
tv453 = -748
tv370 = -748
tv511 = -744
tv457 = -744
tv450 = -744
tv448 = -744
tv433 = -744
$T85749 = -736
$T85748 = -716
$T85747 = -696
$T85746 = -676
$T85745 = -636
$T85744 = -616
$T85743 = -596
$T85742 = -576
$T85741 = -556
$T85740 = -536
$T85739 = -516
$T85738 = -496
_tu$85604 = -264
_v$85603 = -252
_fDAngX0$85600 = -232
_tv$85596 = -220
_r0$85594 = -208
_y0$85592 = -196
_p3$85586 = -184
_p2$85584 = -172
_p1$85583 = -160
_wNorthVtx$ = -148
_vy$ = -136
_t$ = -116
_fDAngY0$ = -104
_fDAng$ = -92
_index$ = -80
_vtx$ = -68
_y$ = -56
_x$ = -44
_dwNumIndices$ = -32
_dwNumVertices$ = -20
_this$ = -8
_pVertices$ = 8
_pdwNumVertices$ = 12
_pIndices$ = 16
_pdwNumIndices$ = 20
_fRadius$ = 24
_dwNumRings$ = 28
?CreateHalfSphere@CSky@@IAEJPAUUNCOLOREDVERTEX@@PAKPAG1MK@Z PROC NEAR ; CSky::CreateHalfSphere, COMDAT
; _this$ = ecx

; 349  : 	{

  00000	55		 push	 ebp
  00001	8b ec		 mov	 ebp, esp
  00003	81 ec f0 02 00
	00		 sub	 esp, 752		; 000002f0H
  00009	53		 push	 ebx
  0000a	56		 push	 esi
  0000b	57		 push	 edi
  0000c	51		 push	 ecx
  0000d	8d bd 10 fd ff
	ff		 lea	 edi, DWORD PTR [ebp-752]
  00013	b9 bc 00 00 00	 mov	 ecx, 188		; 000000bcH
  00018	b8 cc cc cc cc	 mov	 eax, -858993460		; ccccccccH
  0001d	f3 ab		 rep stosd
  0001f	59		 pop	 ecx
  00020	89 4d f8	 mov	 DWORD PTR _this$[ebp], ecx

; 350  : 		DWORD      dwNumVertices = (dwNumRings*(2*dwNumRings+1)+2);

  00023	8b 45 1c	 mov	 eax, DWORD PTR _dwNumRings$[ebp]
  00026	8d 4c 00 01	 lea	 ecx, DWORD PTR [eax+eax+1]
  0002a	8b 55 1c	 mov	 edx, DWORD PTR _dwNumRings$[ebp]
  0002d	0f af d1	 imul	 edx, ecx
  00030	83 c2 02	 add	 edx, 2
  00033	89 55 ec	 mov	 DWORD PTR _dwNumVertices$[ebp], edx

; 351  : 		DWORD      dwNumIndices  = 6*(dwNumRings*2)*((dwNumRings-1)+1);

  00036	8b 45 1c	 mov	 eax, DWORD PTR _dwNumRings$[ebp]
  00039	d1 e0		 shl	 eax, 1
  0003b	6b c0 06	 imul	 eax, 6
  0003e	8b 4d 1c	 mov	 ecx, DWORD PTR _dwNumRings$[ebp]
  00041	0f af c1	 imul	 eax, ecx
  00044	89 45 e0	 mov	 DWORD PTR _dwNumIndices$[ebp], eax

; 352  : 
; 353  : 		assert( dwNumVertices < SD_MAX_VS );

  00047	81 7d ec 00 08
	00 00		 cmp	 DWORD PTR _dwNumVertices$[ebp], 2048 ; 00000800H
  0004e	72 1b		 jb	 SHORT $L85736
  00050	a1 00 00 00 00	 mov	 eax, DWORD PTR ?__LINE__Var@?1??CreateHalfSphere@CSky@@IAEJPAUUNCOLOREDVERTEX@@PAKPAG1MK@Z@4JA
  00055	83 c0 04	 add	 eax, 4
  00058	50		 push	 eax
  00059	68 00 00 00 00	 push	 OFFSET FLAT:??_C@_0EG@INCBMHMB@c?3?2documents?5and?5settings?2dom?2my@
  0005e	68 00 00 00 00	 push	 OFFSET FLAT:??_C@_0BK@FJMAAAMI@dwNumVertices?5?$DM?5SD_MAX_VS?$AA@
  00063	e8 00 00 00 00	 call	 __assert
  00068	83 c4 0c	 add	 esp, 12			; 0000000cH
$L85736:

; 354  : 		assert( dwNumIndices < SD_MAX_VS * 3 );

  0006b	81 7d e0 00 18
	00 00		 cmp	 DWORD PTR _dwNumIndices$[ebp], 6144 ; 00001800H
  00072	72 1b		 jb	 SHORT $L85737
  00074	a1 00 00 00 00	 mov	 eax, DWORD PTR ?__LINE__Var@?1??CreateHalfSphere@CSky@@IAEJPAUUNCOLOREDVERTEX@@PAKPAG1MK@Z@4JA
  00079	83 c0 05	 add	 eax, 5
  0007c	50		 push	 eax
  0007d	68 00 00 00 00	 push	 OFFSET FLAT:??_C@_0EG@INCBMHMB@c?3?2documents?5and?5settings?2dom?2my@
  00082	68 00 00 00 00	 push	 OFFSET FLAT:??_C@_0BN@NJLOINGM@dwNumIndices?5?$DM?5SD_MAX_VS?5?$CK?53?$AA@
  00087	e8 00 00 00 00	 call	 __assert
  0008c	83 c4 0c	 add	 esp, 12			; 0000000cH
$L85737:

; 355  : 
; 356  : 		// Counters
; 357  : 		WORD x, y, vtx = 0, index = 0;

  0008f	66 c7 45 bc 00
	00		 mov	 WORD PTR _vtx$[ebp], 0
  00095	66 c7 45 b0 00
	00		 mov	 WORD PTR _index$[ebp], 0

; 358  : 
; 359  : 		// Angle deltas for constructing the sphere's vertices
; 360  : 		FLOAT fDAng   = g_PI / dwNumRings ;

  0009b	8b 45 1c	 mov	 eax, DWORD PTR _dwNumRings$[ebp]
  0009e	89 85 14 fd ff
	ff		 mov	 DWORD PTR tv370[ebp], eax
  000a4	c7 85 18 fd ff
	ff 00 00 00 00	 mov	 DWORD PTR tv370[ebp+4], 0
  000ae	df ad 14 fd ff
	ff		 fild	 QWORD PTR tv370[ebp]
  000b4	d8 3d 00 00 00
	00		 fdivr	 DWORD PTR _g_PI
  000ba	d9 5d a4	 fstp	 DWORD PTR _fDAng$[ebp]

; 361  : 		FLOAT fDAngY0 = fDAng;

  000bd	8b 45 a4	 mov	 eax, DWORD PTR _fDAng$[ebp]
  000c0	89 45 98	 mov	 DWORD PTR _fDAngY0$[ebp], eax

; 362  : 
; 363  : 		float t = 8 ;

  000c3	c7 45 8c 00 00
	00 41		 mov	 DWORD PTR _t$[ebp], 1090519040 ; 41000000H

; 364  : 
; 365  : 		// Make top
; 366  : 		xVec3 vy ;

  000ca	8d 8d 78 ff ff
	ff		 lea	 ecx, DWORD PTR _vy$[ebp]
  000d0	e8 00 00 00 00	 call	 ??0D3DXVECTOR3@@QAE@XZ	; D3DXVECTOR3::D3DXVECTOR3

; 367  : 		vy.x = 0 ; vy.y = 2 ; vy.z = 0 ;

  000d5	c7 85 78 ff ff
	ff 00 00 00 00	 mov	 DWORD PTR _vy$[ebp], 0
  000df	c7 85 7c ff ff
	ff 00 00 00 40	 mov	 DWORD PTR _vy$[ebp+4], 1073741824 ; 40000000H
  000e9	c7 45 80 00 00
	00 00		 mov	 DWORD PTR _vy$[ebp+8], 0

; 368  : 
; 369  : 		WORD wNorthVtx = vtx;

  000f0	66 8b 45 bc	 mov	 ax, WORD PTR _vtx$[ebp]
  000f4	66 89 85 6c ff
	ff ff		 mov	 WORD PTR _wNorthVtx$[ebp], ax

; 370  : 		*pVertices++ = UNCOLOREDVERTEX( (fRadius*vy/2).x,
; 371  : 									(fRadius*vy/2).y,
; 372  : 									(fRadius*vy/2).z,
; 373  : 									vy.x, vy.y, vy.z,
; 374  : 									0.0f, 1.0f );

  000fb	68 00 00 80 3f	 push	 1065353216		; 3f800000H
  00100	6a 00		 push	 0
  00102	8b 45 80	 mov	 eax, DWORD PTR _vy$[ebp+8]
  00105	50		 push	 eax
  00106	8b 8d 7c ff ff
	ff		 mov	 ecx, DWORD PTR _vy$[ebp+4]
  0010c	51		 push	 ecx
  0010d	8b 95 78 ff ff
	ff		 mov	 edx, DWORD PTR _vy$[ebp]
  00113	52		 push	 edx
  00114	68 00 00 00 40	 push	 1073741824		; 40000000H
  00119	8d 85 e8 fd ff
	ff		 lea	 eax, DWORD PTR $T85740[ebp]
  0011f	50		 push	 eax
  00120	8d 8d 78 ff ff
	ff		 lea	 ecx, DWORD PTR _vy$[ebp]
  00126	51		 push	 ecx
  00127	8b 55 18	 mov	 edx, DWORD PTR _fRadius$[ebp]
  0012a	52		 push	 edx
  0012b	8d 85 fc fd ff
	ff		 lea	 eax, DWORD PTR $T85739[ebp]
  00131	50		 push	 eax
  00132	e8 00 00 00 00	 call	 ??D@YA?AUD3DXVECTOR3@@MABU0@@Z ; operator*
  00137	83 c4 0c	 add	 esp, 12			; 0000000cH
  0013a	8b c8		 mov	 ecx, eax
  0013c	e8 00 00 00 00	 call	 ??KD3DXVECTOR3@@QBE?AU0@M@Z ; D3DXVECTOR3::operator/
  00141	8b 48 08	 mov	 ecx, DWORD PTR [eax+8]
  00144	51		 push	 ecx
  00145	68 00 00 00 40	 push	 1073741824		; 40000000H
  0014a	8d 95 c0 fd ff
	ff		 lea	 edx, DWORD PTR $T85742[ebp]
  00150	52		 push	 edx
  00151	8d 85 78 ff ff
	ff		 lea	 eax, DWORD PTR _vy$[ebp]
  00157	50		 push	 eax
  00158	8b 4d 18	 mov	 ecx, DWORD PTR _fRadius$[ebp]
  0015b	51		 push	 ecx
  0015c	8d 95 d4 fd ff
	ff		 lea	 edx, DWORD PTR $T85741[ebp]
  00162	52		 push	 edx
  00163	e8 00 00 00 00	 call	 ??D@YA?AUD3DXVECTOR3@@MABU0@@Z ; operator*
  00168	83 c4 0c	 add	 esp, 12			; 0000000cH
  0016b	8b c8		 mov	 ecx, eax
  0016d	e8 00 00 00 00	 call	 ??KD3DXVECTOR3@@QBE?AU0@M@Z ; D3DXVECTOR3::operator/
  00172	8b 40 04	 mov	 eax, DWORD PTR [eax+4]
  00175	50		 push	 eax
  00176	68 00 00 00 40	 push	 1073741824		; 40000000H
  0017b	8d 8d 98 fd ff
	ff		 lea	 ecx, DWORD PTR $T85744[ebp]
  00181	51		 push	 ecx
  00182	8d 95 78 ff ff
	ff		 lea	 edx, DWORD PTR _vy$[ebp]
  00188	52		 push	 edx
  00189	8b 45 18	 mov	 eax, DWORD PTR _fRadius$[ebp]
  0018c	50		 push	 eax
  0018d	8d 8d ac fd ff
	ff		 lea	 ecx, DWORD PTR $T85743[ebp]
  00193	51		 push	 ecx
  00194	e8 00 00 00 00	 call	 ??D@YA?AUD3DXVECTOR3@@MABU0@@Z ; operator*
  00199	83 c4 0c	 add	 esp, 12			; 0000000cH
  0019c	8b c8		 mov	 ecx, eax
  0019e	e8 00 00 00 00	 call	 ??KD3DXVECTOR3@@QBE?AU0@M@Z ; D3DXVECTOR3::operator/
  001a3	8b 10		 mov	 edx, DWORD PTR [eax]
  001a5	52		 push	 edx
  001a6	8d 8d 10 fe ff
	ff		 lea	 ecx, DWORD PTR $T85738[ebp]
  001ac	e8 00 00 00 00	 call	 ??0UNCOLOREDVERTEX@@QAE@MMMMMMMM@Z ; UNCOLOREDVERTEX::UNCOLOREDVERTEX
  001b1	b9 08 00 00 00	 mov	 ecx, 8
  001b6	8b f0		 mov	 esi, eax
  001b8	8b 7d 08	 mov	 edi, DWORD PTR _pVertices$[ebp]
  001bb	f3 a5		 rep movsd
  001bd	8b 45 08	 mov	 eax, DWORD PTR _pVertices$[ebp]
  001c0	83 c0 20	 add	 eax, 32			; 00000020H
  001c3	89 45 08	 mov	 DWORD PTR _pVertices$[ebp], eax

; 375  : 		vtx++;

  001c6	66 8b 45 bc	 mov	 ax, WORD PTR _vtx$[ebp]
  001ca	66 05 01 00	 add	 ax, 1
  001ce	66 89 45 bc	 mov	 WORD PTR _vtx$[ebp], ax

; 376  : 
; 377  : 		for( x=0; x<(dwNumRings*2)+1; x++ )

  001d2	66 c7 45 d4 00
	00		 mov	 WORD PTR _x$[ebp], 0
  001d8	eb 0c		 jmp	 SHORT $L85580
$L85581:
  001da	66 8b 45 d4	 mov	 ax, WORD PTR _x$[ebp]
  001de	66 05 01 00	 add	 ax, 1
  001e2	66 89 45 d4	 mov	 WORD PTR _x$[ebp], ax
$L85580:
  001e6	0f b7 45 d4	 movzx	 eax, WORD PTR _x$[ebp]
  001ea	8b 4d 1c	 mov	 ecx, DWORD PTR _dwNumRings$[ebp]
  001ed	8d 54 09 01	 lea	 edx, DWORD PTR [ecx+ecx+1]
  001f1	3b c2		 cmp	 eax, edx
  001f3	73 79		 jae	 SHORT $L85582

; 378  : 		{
; 379  : 			WORD p1 = wNorthVtx;

  001f5	66 8b 85 6c ff
	ff ff		 mov	 ax, WORD PTR _wNorthVtx$[ebp]
  001fc	66 89 85 60 ff
	ff ff		 mov	 WORD PTR _p1$85583[ebp], ax

; 380  : 			WORD p2 = (WORD)( (0)*(dwNumRings*2+1) + (x+1) );

  00203	0f b7 45 d4	 movzx	 eax, WORD PTR _x$[ebp]
  00207	83 c0 01	 add	 eax, 1
  0020a	66 89 85 54 ff
	ff ff		 mov	 WORD PTR _p2$85584[ebp], ax

; 381  : 			WORD p3 = (WORD)( (0)*(dwNumRings*2+1) + (x+0) );

  00211	66 8b 45 d4	 mov	 ax, WORD PTR _x$[ebp]
  00215	66 89 85 48 ff
	ff ff		 mov	 WORD PTR _p3$85586[ebp], ax

; 382  : 
; 383  : 			*pIndices++ = p1;

  0021c	8b 45 10	 mov	 eax, DWORD PTR _pIndices$[ebp]
  0021f	66 8b 8d 60 ff
	ff ff		 mov	 cx, WORD PTR _p1$85583[ebp]
  00226	66 89 08	 mov	 WORD PTR [eax], cx
  00229	8b 55 10	 mov	 edx, DWORD PTR _pIndices$[ebp]
  0022c	83 c2 02	 add	 edx, 2
  0022f	89 55 10	 mov	 DWORD PTR _pIndices$[ebp], edx

; 384  : 			*pIndices++ = p3;

  00232	8b 45 10	 mov	 eax, DWORD PTR _pIndices$[ebp]
  00235	66 8b 8d 48 ff
	ff ff		 mov	 cx, WORD PTR _p3$85586[ebp]
  0023c	66 89 08	 mov	 WORD PTR [eax], cx
  0023f	8b 55 10	 mov	 edx, DWORD PTR _pIndices$[ebp]
  00242	83 c2 02	 add	 edx, 2
  00245	89 55 10	 mov	 DWORD PTR _pIndices$[ebp], edx

; 385  : 			*pIndices++ = p2;

  00248	8b 45 10	 mov	 eax, DWORD PTR _pIndices$[ebp]
  0024b	66 8b 8d 54 ff
	ff ff		 mov	 cx, WORD PTR _p2$85584[ebp]
  00252	66 89 08	 mov	 WORD PTR [eax], cx
  00255	8b 55 10	 mov	 edx, DWORD PTR _pIndices$[ebp]
  00258	83 c2 02	 add	 edx, 2
  0025b	89 55 10	 mov	 DWORD PTR _pIndices$[ebp], edx

; 386  : 			index += 3;

  0025e	0f b7 45 b0	 movzx	 eax, WORD PTR _index$[ebp]
  00262	83 c0 03	 add	 eax, 3
  00265	66 89 45 b0	 mov	 WORD PTR _index$[ebp], ax

; 387  : 		}

  00269	e9 6c ff ff ff	 jmp	 $L85581
$L85582:

; 388  : 
; 389  : 		// Make the middle of the sphere
; 390  : 		for( y=0; y<(float)dwNumRings * 0.5f ; y++)

  0026e	66 c7 45 c8 00
	00		 mov	 WORD PTR _y$[ebp], 0
  00274	eb 0c		 jmp	 SHORT $L85589
$L85590:
  00276	66 8b 45 c8	 mov	 ax, WORD PTR _y$[ebp]
  0027a	66 05 01 00	 add	 ax, 1
  0027e	66 89 45 c8	 mov	 WORD PTR _y$[ebp], ax
$L85589:
  00282	0f b7 45 c8	 movzx	 eax, WORD PTR _y$[ebp]
  00286	89 85 18 fd ff
	ff		 mov	 DWORD PTR tv433[ebp], eax
  0028c	db 85 18 fd ff
	ff		 fild	 DWORD PTR tv433[ebp]
  00292	8b 4d 1c	 mov	 ecx, DWORD PTR _dwNumRings$[ebp]
  00295	89 8d 10 fd ff
	ff		 mov	 DWORD PTR tv435[ebp], ecx
  0029b	c7 85 14 fd ff
	ff 00 00 00 00	 mov	 DWORD PTR tv435[ebp+4], 0
  002a5	df ad 10 fd ff
	ff		 fild	 QWORD PTR tv435[ebp]
  002ab	d8 0d 00 00 00
	00		 fmul	 DWORD PTR __real@3f000000
  002b1	de d9		 fcompp
  002b3	df e0		 fnstsw	 ax
  002b5	f6 c4 41	 test	 ah, 65			; 00000041H
  002b8	0f 85 0c 02 00
	00		 jne	 $L85591

; 391  : 		{
; 392  : 			FLOAT y0 = (FLOAT)cos(fDAngY0);

  002be	d9 45 98	 fld	 DWORD PTR _fDAngY0$[ebp]
  002c1	83 ec 08	 sub	 esp, 8
  002c4	dd 1c 24	 fstp	 QWORD PTR [esp]
  002c7	e8 00 00 00 00	 call	 _cos
  002cc	83 c4 08	 add	 esp, 8
  002cf	d9 9d 3c ff ff
	ff		 fstp	 DWORD PTR _y0$85592[ebp]

; 393  : 			FLOAT r0 = (FLOAT)sin(fDAngY0);

  002d5	d9 45 98	 fld	 DWORD PTR _fDAngY0$[ebp]
  002d8	83 ec 08	 sub	 esp, 8
  002db	dd 1c 24	 fstp	 QWORD PTR [esp]
  002de	e8 00 00 00 00	 call	 _sin
  002e3	83 c4 08	 add	 esp, 8
  002e6	d9 9d 30 ff ff
	ff		 fstp	 DWORD PTR _r0$85594[ebp]

; 394  : 			FLOAT tv = (1.0f - y0)/2;

  002ec	d9 05 00 00 00
	00		 fld	 DWORD PTR __real@3f800000
  002f2	d8 a5 3c ff ff
	ff		 fsub	 DWORD PTR _y0$85592[ebp]
  002f8	d8 35 00 00 00
	00		 fdiv	 DWORD PTR __real@40000000
  002fe	d9 9d 24 ff ff
	ff		 fstp	 DWORD PTR _tv$85596[ebp]

; 395  : 
; 396  : 			for( x=0; x<(dwNumRings*2)+1; x++ )

  00304	66 c7 45 d4 00
	00		 mov	 WORD PTR _x$[ebp], 0
  0030a	eb 0c		 jmp	 SHORT $L85597
$L85598:
  0030c	66 8b 45 d4	 mov	 ax, WORD PTR _x$[ebp]
  00310	66 05 01 00	 add	 ax, 1
  00314	66 89 45 d4	 mov	 WORD PTR _x$[ebp], ax
$L85597:
  00318	0f b7 45 d4	 movzx	 eax, WORD PTR _x$[ebp]
  0031c	8b 4d 1c	 mov	 ecx, DWORD PTR _dwNumRings$[ebp]
  0031f	8d 54 09 01	 lea	 edx, DWORD PTR [ecx+ecx+1]
  00323	3b c2		 cmp	 eax, edx
  00325	0f 83 91 01 00
	00		 jae	 $L85599

; 397  : 			{
; 398  : 				FLOAT fDAngX0 = x*fDAng;

  0032b	0f b7 45 d4	 movzx	 eax, WORD PTR _x$[ebp]
  0032f	89 85 18 fd ff
	ff		 mov	 DWORD PTR tv448[ebp], eax
  00335	db 85 18 fd ff
	ff		 fild	 DWORD PTR tv448[ebp]
  0033b	d8 4d a4	 fmul	 DWORD PTR _fDAng$[ebp]
  0033e	d9 9d 18 ff ff
	ff		 fstp	 DWORD PTR _fDAngX0$85600[ebp]

; 399  :         
; 400  : 				xVec3 v( r0*(FLOAT)sin(fDAngX0), y0, r0*(FLOAT)cos(fDAngX0) );

  00344	d9 85 18 ff ff
	ff		 fld	 DWORD PTR _fDAngX0$85600[ebp]
  0034a	83 ec 08	 sub	 esp, 8
  0034d	dd 1c 24	 fstp	 QWORD PTR [esp]
  00350	e8 00 00 00 00	 call	 _cos
  00355	83 c4 08	 add	 esp, 8
  00358	d9 95 18 fd ff
	ff		 fst	 DWORD PTR tv450[ebp]
  0035e	d8 8d 30 ff ff
	ff		 fmul	 DWORD PTR _r0$85594[ebp]
  00364	51		 push	 ecx
  00365	d9 1c 24	 fstp	 DWORD PTR [esp]
  00368	8b 85 3c ff ff
	ff		 mov	 eax, DWORD PTR _y0$85592[ebp]
  0036e	50		 push	 eax
  0036f	d9 85 18 ff ff
	ff		 fld	 DWORD PTR _fDAngX0$85600[ebp]
  00375	83 ec 08	 sub	 esp, 8
  00378	dd 1c 24	 fstp	 QWORD PTR [esp]
  0037b	e8 00 00 00 00	 call	 _sin
  00380	83 c4 08	 add	 esp, 8
  00383	d9 95 14 fd ff
	ff		 fst	 DWORD PTR tv453[ebp]
  00389	d8 8d 30 ff ff
	ff		 fmul	 DWORD PTR _r0$85594[ebp]
  0038f	51		 push	 ecx
  00390	d9 1c 24	 fstp	 DWORD PTR [esp]
  00393	8d 8d 04 ff ff
	ff		 lea	 ecx, DWORD PTR _v$85603[ebp]
  00399	e8 00 00 00 00	 call	 ??0D3DXVECTOR3@@QAE@MMM@Z ; D3DXVECTOR3::D3DXVECTOR3

; 401  : 				FLOAT tu = 1.0f - x/(dwNumRings*2.0f);

  0039e	0f b7 45 d4	 movzx	 eax, WORD PTR _x$[ebp]
  003a2	89 85 18 fd ff
	ff		 mov	 DWORD PTR tv457[ebp], eax
  003a8	db 85 18 fd ff
	ff		 fild	 DWORD PTR tv457[ebp]
  003ae	8b 4d 1c	 mov	 ecx, DWORD PTR _dwNumRings$[ebp]
  003b1	89 8d 10 fd ff
	ff		 mov	 DWORD PTR tv459[ebp], ecx
  003b7	c7 85 14 fd ff
	ff 00 00 00 00	 mov	 DWORD PTR tv459[ebp+4], 0
  003c1	df ad 10 fd ff
	ff		 fild	 QWORD PTR tv459[ebp]
  003c7	dc c0		 fadd	 ST(0), ST(0)
  003c9	de f9		 fdivp	 ST(1), ST(0)
  003cb	d8 2d 00 00 00
	00		 fsubr	 DWORD PTR __real@3f800000
  003d1	d9 9d f8 fe ff
	ff		 fstp	 DWORD PTR _tu$85604[ebp]

; 402  : 
; 403  : 				v =-v ;

  003d7	8d 85 84 fd ff
	ff		 lea	 eax, DWORD PTR $T85745[ebp]
  003dd	50		 push	 eax
  003de	8d 8d 04 ff ff
	ff		 lea	 ecx, DWORD PTR _v$85603[ebp]
  003e4	e8 00 00 00 00	 call	 ??GD3DXVECTOR3@@QBE?AU0@XZ ; D3DXVECTOR3::operator-
  003e9	8b 08		 mov	 ecx, DWORD PTR [eax]
  003eb	89 8d 04 ff ff
	ff		 mov	 DWORD PTR _v$85603[ebp], ecx
  003f1	8b 50 04	 mov	 edx, DWORD PTR [eax+4]
  003f4	89 95 08 ff ff
	ff		 mov	 DWORD PTR _v$85603[ebp+4], edx
  003fa	8b 40 08	 mov	 eax, DWORD PTR [eax+8]
  003fd	89 85 0c ff ff
	ff		 mov	 DWORD PTR _v$85603[ebp+8], eax

; 404  : 				*pVertices++ = UNCOLOREDVERTEX( (fRadius*v).x,
; 405  : 											(fRadius*v).y,
; 406  : 											(fRadius*v).z,
; 407  : 											v.x, v.y, v.z,
; 408  : 											tu *t, tv *t );

  00403	d9 85 24 ff ff
	ff		 fld	 DWORD PTR _tv$85596[ebp]
  00409	d8 4d 8c	 fmul	 DWORD PTR _t$[ebp]
  0040c	51		 push	 ecx
  0040d	d9 1c 24	 fstp	 DWORD PTR [esp]
  00410	d9 85 f8 fe ff
	ff		 fld	 DWORD PTR _tu$85604[ebp]
  00416	d8 4d 8c	 fmul	 DWORD PTR _t$[ebp]
  00419	51		 push	 ecx
  0041a	d9 1c 24	 fstp	 DWORD PTR [esp]
  0041d	8b 85 0c ff ff
	ff		 mov	 eax, DWORD PTR _v$85603[ebp+8]
  00423	50		 push	 eax
  00424	8b 8d 08 ff ff
	ff		 mov	 ecx, DWORD PTR _v$85603[ebp+4]
  0042a	51		 push	 ecx
  0042b	8b 95 04 ff ff
	ff		 mov	 edx, DWORD PTR _v$85603[ebp]
  00431	52		 push	 edx
  00432	8d 85 04 ff ff
	ff		 lea	 eax, DWORD PTR _v$85603[ebp]
  00438	50		 push	 eax
  00439	8b 4d 18	 mov	 ecx, DWORD PTR _fRadius$[ebp]
  0043c	51		 push	 ecx
  0043d	8d 95 48 fd ff
	ff		 lea	 edx, DWORD PTR $T85747[ebp]
  00443	52		 push	 edx
  00444	e8 00 00 00 00	 call	 ??D@YA?AUD3DXVECTOR3@@MABU0@@Z ; operator*
  00449	83 c4 0c	 add	 esp, 12			; 0000000cH
  0044c	8b 40 08	 mov	 eax, DWORD PTR [eax+8]
  0044f	50		 push	 eax
  00450	8d 8d 04 ff ff
	ff		 lea	 ecx, DWORD PTR _v$85603[ebp]
  00456	51		 push	 ecx
  00457	8b 55 18	 mov	 edx, DWORD PTR _fRadius$[ebp]
  0045a	52		 push	 edx
  0045b	8d 85 34 fd ff
	ff		 lea	 eax, DWORD PTR $T85748[ebp]
  00461	50		 push	 eax
  00462	e8 00 00 00 00	 call	 ??D@YA?AUD3DXVECTOR3@@MABU0@@Z ; operator*
  00467	83 c4 0c	 add	 esp, 12			; 0000000cH
  0046a	8b 48 04	 mov	 ecx, DWORD PTR [eax+4]
  0046d	51		 push	 ecx
  0046e	8d 95 04 ff ff
	ff		 lea	 edx, DWORD PTR _v$85603[ebp]
  00474	52		 push	 edx
  00475	8b 45 18	 mov	 eax, DWORD PTR _fRadius$[ebp]
  00478	50		 push	 eax
  00479	8d 8d 20 fd ff
	ff		 lea	 ecx, DWORD PTR $T85749[ebp]
  0047f	51		 push	 ecx
  00480	e8 00 00 00 00	 call	 ??D@YA?AUD3DXVECTOR3@@MABU0@@Z ; operator*
  00485	83 c4 0c	 add	 esp, 12			; 0000000cH
  00488	8b 10		 mov	 edx, DWORD PTR [eax]
  0048a	52		 push	 edx
  0048b	8d 8d 5c fd ff
	ff		 lea	 ecx, DWORD PTR $T85746[ebp]
  00491	e8 00 00 00 00	 call	 ??0UNCOLOREDVERTEX@@QAE@MMMMMMMM@Z ; UNCOLOREDVERTEX::UNCOLOREDVERTEX
  00496	b9 08 00 00 00	 mov	 ecx, 8
  0049b	8b f0		 mov	 esi, eax
  0049d	8b 7d 08	 mov	 edi, DWORD PTR _pVertices$[ebp]
  004a0	f3 a5		 rep movsd
  004a2	8b 45 08	 mov	 eax, DWORD PTR _pVertices$[ebp]
  004a5	83 c0 20	 add	 eax, 32			; 00000020H
  004a8	89 45 08	 mov	 DWORD PTR _pVertices$[ebp], eax

; 409  : 				vtx ++;

  004ab	66 8b 45 bc	 mov	 ax, WORD PTR _vtx$[ebp]
  004af	66 05 01 00	 add	 ax, 1
  004b3	66 89 45 bc	 mov	 WORD PTR _vtx$[ebp], ax

; 410  : 			}

  004b7	e9 50 fe ff ff	 jmp	 $L85598
$L85599:

; 411  : 			fDAngY0 += fDAng;

  004bc	d9 45 98	 fld	 DWORD PTR _fDAngY0$[ebp]
  004bf	d8 45 a4	 fadd	 DWORD PTR _fDAng$[ebp]
  004c2	d9 5d 98	 fstp	 DWORD PTR _fDAngY0$[ebp]

; 412  : 		}

  004c5	e9 ac fd ff ff	 jmp	 $L85590
$L85591:

; 413  : 
; 414  : 		for( y=0; y < (float)dwNumRings * 0.5f -1; y++ )

  004ca	66 c7 45 c8 00
	00		 mov	 WORD PTR _y$[ebp], 0
  004d0	eb 0c		 jmp	 SHORT $L85611
$L85612:
  004d2	66 8b 45 c8	 mov	 ax, WORD PTR _y$[ebp]
  004d6	66 05 01 00	 add	 ax, 1
  004da	66 89 45 c8	 mov	 WORD PTR _y$[ebp], ax
$L85611:
  004de	0f b7 45 c8	 movzx	 eax, WORD PTR _y$[ebp]
  004e2	89 85 18 fd ff
	ff		 mov	 DWORD PTR tv511[ebp], eax
  004e8	db 85 18 fd ff
	ff		 fild	 DWORD PTR tv511[ebp]
  004ee	8b 4d 1c	 mov	 ecx, DWORD PTR _dwNumRings$[ebp]
  004f1	89 8d 10 fd ff
	ff		 mov	 DWORD PTR tv513[ebp], ecx
  004f7	c7 85 14 fd ff
	ff 00 00 00 00	 mov	 DWORD PTR tv513[ebp+4], 0
  00501	df ad 10 fd ff
	ff		 fild	 QWORD PTR tv513[ebp]
  00507	d8 0d 00 00 00
	00		 fmul	 DWORD PTR __real@3f000000
  0050d	d8 25 00 00 00
	00		 fsub	 DWORD PTR __real@3f800000
  00513	de d9		 fcompp
  00515	df e0		 fnstsw	 ax
  00517	f6 c4 41	 test	 ah, 65			; 00000041H
  0051a	0f 85 21 01 00
	00		 jne	 $L85613

; 415  : 		{
; 416  : 			for( x=0; x<(dwNumRings*2); x++ )

  00520	66 c7 45 d4 00
	00		 mov	 WORD PTR _x$[ebp], 0
  00526	eb 0c		 jmp	 SHORT $L85614
$L85615:
  00528	66 8b 45 d4	 mov	 ax, WORD PTR _x$[ebp]
  0052c	66 05 01 00	 add	 ax, 1
  00530	66 89 45 d4	 mov	 WORD PTR _x$[ebp], ax
$L85614:
  00534	0f b7 45 d4	 movzx	 eax, WORD PTR _x$[ebp]
  00538	8b 4d 1c	 mov	 ecx, DWORD PTR _dwNumRings$[ebp]
  0053b	d1 e1		 shl	 ecx, 1
  0053d	3b c1		 cmp	 eax, ecx
  0053f	0f 83 f7 00 00
	00		 jae	 $L85616

; 417  : 			{
; 418  : 				*pIndices++ = (WORD)( (y+0)*(dwNumRings*2+1) + (x+0) +1);

  00545	0f b7 45 c8	 movzx	 eax, WORD PTR _y$[ebp]
  00549	8b 4d 1c	 mov	 ecx, DWORD PTR _dwNumRings$[ebp]
  0054c	8d 54 09 01	 lea	 edx, DWORD PTR [ecx+ecx+1]
  00550	0f af c2	 imul	 eax, edx
  00553	0f b7 4d d4	 movzx	 ecx, WORD PTR _x$[ebp]
  00557	8d 54 08 01	 lea	 edx, DWORD PTR [eax+ecx+1]
  0055b	8b 45 10	 mov	 eax, DWORD PTR _pIndices$[ebp]
  0055e	66 89 10	 mov	 WORD PTR [eax], dx
  00561	8b 4d 10	 mov	 ecx, DWORD PTR _pIndices$[ebp]
  00564	83 c1 02	 add	 ecx, 2
  00567	89 4d 10	 mov	 DWORD PTR _pIndices$[ebp], ecx

; 419  : 				*pIndices++ = (WORD)( (y+1)*(dwNumRings*2+1) + (x+0) +1);

  0056a	0f b7 45 c8	 movzx	 eax, WORD PTR _y$[ebp]
  0056e	83 c0 01	 add	 eax, 1
  00571	8b 4d 1c	 mov	 ecx, DWORD PTR _dwNumRings$[ebp]
  00574	8d 54 09 01	 lea	 edx, DWORD PTR [ecx+ecx+1]
  00578	0f af c2	 imul	 eax, edx
  0057b	0f b7 4d d4	 movzx	 ecx, WORD PTR _x$[ebp]
  0057f	8d 54 08 01	 lea	 edx, DWORD PTR [eax+ecx+1]
  00583	8b 45 10	 mov	 eax, DWORD PTR _pIndices$[ebp]
  00586	66 89 10	 mov	 WORD PTR [eax], dx
  00589	8b 4d 10	 mov	 ecx, DWORD PTR _pIndices$[ebp]
  0058c	83 c1 02	 add	 ecx, 2
  0058f	89 4d 10	 mov	 DWORD PTR _pIndices$[ebp], ecx

; 420  : 				*pIndices++ = (WORD)( (y+0)*(dwNumRings*2+1) + (x+1) +1);

  00592	0f b7 45 c8	 movzx	 eax, WORD PTR _y$[ebp]
  00596	8b 4d 1c	 mov	 ecx, DWORD PTR _dwNumRings$[ebp]
  00599	8d 54 09 01	 lea	 edx, DWORD PTR [ecx+ecx+1]
  0059d	0f af c2	 imul	 eax, edx
  005a0	0f b7 4d d4	 movzx	 ecx, WORD PTR _x$[ebp]
  005a4	8d 54 08 02	 lea	 edx, DWORD PTR [eax+ecx+2]
  005a8	8b 45 10	 mov	 eax, DWORD PTR _pIndices$[ebp]
  005ab	66 89 10	 mov	 WORD PTR [eax], dx
  005ae	8b 4d 10	 mov	 ecx, DWORD PTR _pIndices$[ebp]
  005b1	83 c1 02	 add	 ecx, 2
  005b4	89 4d 10	 mov	 DWORD PTR _pIndices$[ebp], ecx

; 421  : 				*pIndices++ = (WORD)( (y+0)*(dwNumRings*2+1) + (x+1) +1);

  005b7	0f b7 45 c8	 movzx	 eax, WORD PTR _y$[ebp]
  005bb	8b 4d 1c	 mov	 ecx, DWORD PTR _dwNumRings$[ebp]
  005be	8d 54 09 01	 lea	 edx, DWORD PTR [ecx+ecx+1]
  005c2	0f af c2	 imul	 eax, edx
  005c5	0f b7 4d d4	 movzx	 ecx, WORD PTR _x$[ebp]
  005c9	8d 54 08 02	 lea	 edx, DWORD PTR [eax+ecx+2]
  005cd	8b 45 10	 mov	 eax, DWORD PTR _pIndices$[ebp]
  005d0	66 89 10	 mov	 WORD PTR [eax], dx
  005d3	8b 4d 10	 mov	 ecx, DWORD PTR _pIndices$[ebp]
  005d6	83 c1 02	 add	 ecx, 2
  005d9	89 4d 10	 mov	 DWORD PTR _pIndices$[ebp], ecx

; 422  : 				*pIndices++ = (WORD)( (y+1)*(dwNumRings*2+1) + (x+0) +1); 

  005dc	0f b7 45 c8	 movzx	 eax, WORD PTR _y$[ebp]
  005e0	83 c0 01	 add	 eax, 1
  005e3	8b 4d 1c	 mov	 ecx, DWORD PTR _dwNumRings$[ebp]
  005e6	8d 54 09 01	 lea	 edx, DWORD PTR [ecx+ecx+1]
  005ea	0f af c2	 imul	 eax, edx
  005ed	0f b7 4d d4	 movzx	 ecx, WORD PTR _x$[ebp]
  005f1	8d 54 08 01	 lea	 edx, DWORD PTR [eax+ecx+1]
  005f5	8b 45 10	 mov	 eax, DWORD PTR _pIndices$[ebp]
  005f8	66 89 10	 mov	 WORD PTR [eax], dx
  005fb	8b 4d 10	 mov	 ecx, DWORD PTR _pIndices$[ebp]
  005fe	83 c1 02	 add	 ecx, 2
  00601	89 4d 10	 mov	 DWORD PTR _pIndices$[ebp], ecx

; 423  : 				*pIndices++ = (WORD)( (y+1)*(dwNumRings*2+1) + (x+1) +1);

  00604	0f b7 45 c8	 movzx	 eax, WORD PTR _y$[ebp]
  00608	83 c0 01	 add	 eax, 1
  0060b	8b 4d 1c	 mov	 ecx, DWORD PTR _dwNumRings$[ebp]
  0060e	8d 54 09 01	 lea	 edx, DWORD PTR [ecx+ecx+1]
  00612	0f af c2	 imul	 eax, edx
  00615	0f b7 4d d4	 movzx	 ecx, WORD PTR _x$[ebp]
  00619	8d 54 08 02	 lea	 edx, DWORD PTR [eax+ecx+2]
  0061d	8b 45 10	 mov	 eax, DWORD PTR _pIndices$[ebp]
  00620	66 89 10	 mov	 WORD PTR [eax], dx
  00623	8b 4d 10	 mov	 ecx, DWORD PTR _pIndices$[ebp]
  00626	83 c1 02	 add	 ecx, 2
  00629	89 4d 10	 mov	 DWORD PTR _pIndices$[ebp], ecx

; 424  : 				index += 6;

  0062c	0f b7 45 b0	 movzx	 eax, WORD PTR _index$[ebp]
  00630	83 c0 06	 add	 eax, 6
  00633	66 89 45 b0	 mov	 WORD PTR _index$[ebp], ax

; 425  : 			}

  00637	e9 ec fe ff ff	 jmp	 $L85615
$L85616:

; 426  : 		}

  0063c	e9 91 fe ff ff	 jmp	 $L85612
$L85613:

; 427  : 
; 428  : 		*pdwNumVertices = vtx;

  00641	0f b7 45 bc	 movzx	 eax, WORD PTR _vtx$[ebp]
  00645	8b 4d 0c	 mov	 ecx, DWORD PTR _pdwNumVertices$[ebp]
  00648	89 01		 mov	 DWORD PTR [ecx], eax

; 429  : 		*pdwNumIndices  = index;

  0064a	0f b7 45 b0	 movzx	 eax, WORD PTR _index$[ebp]
  0064e	8b 4d 14	 mov	 ecx, DWORD PTR _pdwNumIndices$[ebp]
  00651	89 01		 mov	 DWORD PTR [ecx], eax

; 430  : 
; 431  : 		return S_OK ;

  00653	33 c0		 xor	 eax, eax

; 432  : 	}

  00655	52		 push	 edx
  00656	8b cd		 mov	 ecx, ebp
  00658	50		 push	 eax
  00659	8d 15 00 00 00
	00		 lea	 edx, DWORD PTR $L85755
  0065f	e8 00 00 00 00	 call	 @_RTC_CheckStackVars@8
  00664	58		 pop	 eax
  00665	5a		 pop	 edx
  00666	5f		 pop	 edi
  00667	5e		 pop	 esi
  00668	5b		 pop	 ebx
  00669	81 c4 f0 02 00
	00		 add	 esp, 752		; 000002f0H
  0066f	3b ec		 cmp	 ebp, esp
  00671	e8 00 00 00 00	 call	 __RTC_CheckEsp
  00676	8b e5		 mov	 esp, ebp
  00678	5d		 pop	 ebp
  00679	c2 18 00	 ret	 24			; 00000018H
$L85755:
  0067c	02 00 00 00	 DD	 2
  00680	00 00 00 00	 DD	 $L85754
$L85754:
  00684	78 ff ff ff	 DD	 -136			; ffffff78H
  00688	0c 00 00 00	 DD	 12			; 0000000cH
  0068c	00 00 00 00	 DD	 $L85752
  00690	04 ff ff ff	 DD	 -252			; ffffff04H
  00694	0c 00 00 00	 DD	 12			; 0000000cH
  00698	00 00 00 00	 DD	 $L85753
$L85753:
  0069c	76		 DB	 118			; 00000076H
  0069d	00		 DB	 0
$L85752:
  0069e	76		 DB	 118			; 00000076H
  0069f	79		 DB	 121			; 00000079H
  006a0	00		 DB	 0
?CreateHalfSphere@CSky@@IAEJPAUUNCOLOREDVERTEX@@PAKPAG1MK@Z ENDP ; CSky::CreateHalfSphere
; Function compile flags: /Odt /RTCsu /ZI
; File c:\dxsdk\include\d3dx8math.h
_TEXT	ENDS
;	COMDAT ??0D3DXVECTOR3@@QAE@XZ
_TEXT	SEGMENT
_this$ = -8
??0D3DXVECTOR3@@QAE@XZ PROC NEAR			; D3DXVECTOR3::D3DXVECTOR3, COMDAT
; _this$ = ecx

; 89   :     D3DXVECTOR3() {};

  00000	55		 push	 ebp
  00001	8b ec		 mov	 ebp, esp
  00003	81 ec cc 00 00
	00		 sub	 esp, 204		; 000000ccH
  00009	53		 push	 ebx
  0000a	56		 push	 esi
  0000b	57		 push	 edi
  0000c	51		 push	 ecx
  0000d	8d bd 34 ff ff
	ff		 lea	 edi, DWORD PTR [ebp-204]
  00013	b9 33 00 00 00	 mov	 ecx, 51			; 00000033H
  00018	b8 cc cc cc cc	 mov	 eax, -858993460		; ccccccccH
  0001d	f3 ab		 rep stosd
  0001f	59		 pop	 ecx
  00020	89 4d f8	 mov	 DWORD PTR _this$[ebp], ecx
  00023	8b 45 f8	 mov	 eax, DWORD PTR _this$[ebp]
  00026	5f		 pop	 edi
  00027	5e		 pop	 esi
  00028	5b		 pop	 ebx
  00029	8b e5		 mov	 esp, ebp
  0002b	5d		 pop	 ebp
  0002c	c3		 ret	 0
??0D3DXVECTOR3@@QAE@XZ ENDP				; D3DXVECTOR3::D3DXVECTOR3
; Function compile flags: /Odt /RTCsu /ZI
_TEXT	ENDS
;	COMDAT ??0D3DXMATRIX@@QAE@XZ
_TEXT	SEGMENT
_this$ = -8
??0D3DXMATRIX@@QAE@XZ PROC NEAR				; D3DXMATRIX::D3DXMATRIX, COMDAT
; _this$ = ecx

; 177  :     D3DXMATRIX() {};

  00000	55		 push	 ebp
  00001	8b ec		 mov	 ebp, esp
  00003	81 ec cc 00 00
	00		 sub	 esp, 204		; 000000ccH
  00009	53		 push	 ebx
  0000a	56		 push	 esi
  0000b	57		 push	 edi
  0000c	51		 push	 ecx
  0000d	8d bd 34 ff ff
	ff		 lea	 edi, DWORD PTR [ebp-204]
  00013	b9 33 00 00 00	 mov	 ecx, 51			; 00000033H
  00018	b8 cc cc cc cc	 mov	 eax, -858993460		; ccccccccH
  0001d	f3 ab		 rep stosd
  0001f	59		 pop	 ecx
  00020	89 4d f8	 mov	 DWORD PTR _this$[ebp], ecx
  00023	8b 45 f8	 mov	 eax, DWORD PTR _this$[ebp]
  00026	5f		 pop	 edi
  00027	5e		 pop	 esi
  00028	5b		 pop	 ebx
  00029	8b e5		 mov	 esp, ebp
  0002b	5d		 pop	 ebp
  0002c	c3		 ret	 0
??0D3DXMATRIX@@QAE@XZ ENDP				; D3DXMATRIX::D3DXMATRIX
; Function compile flags: /Odt /RTCsu /ZI
; File c:\dxsdk\include\d3dx8math.inl
_TEXT	ENDS
;	COMDAT ??0D3DXVECTOR3@@QAE@MMM@Z
_TEXT	SEGMENT
_this$ = -8
_fx$ = 8
_fy$ = 12
_fz$ = 16
??0D3DXVECTOR3@@QAE@MMM@Z PROC NEAR			; D3DXVECTOR3::D3DXVECTOR3, COMDAT
; _this$ = ecx

; 179  : {

  00000	55		 push	 ebp
  00001	8b ec		 mov	 ebp, esp
  00003	81 ec cc 00 00
	00		 sub	 esp, 204		; 000000ccH
  00009	53		 push	 ebx
  0000a	56		 push	 esi
  0000b	57		 push	 edi
  0000c	51		 push	 ecx
  0000d	8d bd 34 ff ff
	ff		 lea	 edi, DWORD PTR [ebp-204]
  00013	b9 33 00 00 00	 mov	 ecx, 51			; 00000033H
  00018	b8 cc cc cc cc	 mov	 eax, -858993460		; ccccccccH
  0001d	f3 ab		 rep stosd
  0001f	59		 pop	 ecx
  00020	89 4d f8	 mov	 DWORD PTR _this$[ebp], ecx

; 180  :     x = fx;

  00023	8b 45 f8	 mov	 eax, DWORD PTR _this$[ebp]
  00026	8b 4d 08	 mov	 ecx, DWORD PTR _fx$[ebp]
  00029	89 08		 mov	 DWORD PTR [eax], ecx

; 181  :     y = fy;

  0002b	8b 45 f8	 mov	 eax, DWORD PTR _this$[ebp]
  0002e	8b 4d 0c	 mov	 ecx, DWORD PTR _fy$[ebp]
  00031	89 48 04	 mov	 DWORD PTR [eax+4], ecx

; 182  :     z = fz;

  00034	8b 45 f8	 mov	 eax, DWORD PTR _this$[ebp]
  00037	8b 4d 10	 mov	 ecx, DWORD PTR _fz$[ebp]
  0003a	89 48 08	 mov	 DWORD PTR [eax+8], ecx

; 183  : }

  0003d	8b 45 f8	 mov	 eax, DWORD PTR _this$[ebp]
  00040	5f		 pop	 edi
  00041	5e		 pop	 esi
  00042	5b		 pop	 ebx
  00043	8b e5		 mov	 esp, ebp
  00045	5d		 pop	 ebp
  00046	c2 0c 00	 ret	 12			; 0000000cH
??0D3DXVECTOR3@@QAE@MMM@Z ENDP				; D3DXVECTOR3::D3DXVECTOR3
; Function compile flags: /Odt /RTCsu /ZI
_TEXT	ENDS
;	COMDAT ??GD3DXVECTOR3@@QBE?AU0@XZ
_TEXT	SEGMENT
_this$ = -8
___$ReturnUdt$ = 8
??GD3DXVECTOR3@@QBE?AU0@XZ PROC NEAR			; D3DXVECTOR3::operator-, COMDAT
; _this$ = ecx

; 248  : {

  00000	55		 push	 ebp
  00001	8b ec		 mov	 ebp, esp
  00003	81 ec cc 00 00
	00		 sub	 esp, 204		; 000000ccH
  00009	53		 push	 ebx
  0000a	56		 push	 esi
  0000b	57		 push	 edi
  0000c	51		 push	 ecx
  0000d	8d bd 34 ff ff
	ff		 lea	 edi, DWORD PTR [ebp-204]
  00013	b9 33 00 00 00	 mov	 ecx, 51			; 00000033H
  00018	b8 cc cc cc cc	 mov	 eax, -858993460		; ccccccccH
  0001d	f3 ab		 rep stosd
  0001f	59		 pop	 ecx
  00020	89 4d f8	 mov	 DWORD PTR _this$[ebp], ecx

; 249  :     return D3DXVECTOR3(-x, -y, -z);

  00023	8b 45 f8	 mov	 eax, DWORD PTR _this$[ebp]
  00026	d9 40 08	 fld	 DWORD PTR [eax+8]
  00029	d9 e0		 fchs
  0002b	51		 push	 ecx
  0002c	d9 1c 24	 fstp	 DWORD PTR [esp]
  0002f	8b 4d f8	 mov	 ecx, DWORD PTR _this$[ebp]
  00032	d9 41 04	 fld	 DWORD PTR [ecx+4]
  00035	d9 e0		 fchs
  00037	51		 push	 ecx
  00038	d9 1c 24	 fstp	 DWORD PTR [esp]
  0003b	8b 55 f8	 mov	 edx, DWORD PTR _this$[ebp]
  0003e	d9 02		 fld	 DWORD PTR [edx]
  00040	d9 e0		 fchs
  00042	51		 push	 ecx
  00043	d9 1c 24	 fstp	 DWORD PTR [esp]
  00046	8b 4d 08	 mov	 ecx, DWORD PTR ___$ReturnUdt$[ebp]
  00049	e8 00 00 00 00	 call	 ??0D3DXVECTOR3@@QAE@MMM@Z ; D3DXVECTOR3::D3DXVECTOR3
  0004e	8b 45 08	 mov	 eax, DWORD PTR ___$ReturnUdt$[ebp]

; 250  : }

  00051	5f		 pop	 edi
  00052	5e		 pop	 esi
  00053	5b		 pop	 ebx
  00054	81 c4 cc 00 00
	00		 add	 esp, 204		; 000000ccH
  0005a	3b ec		 cmp	 ebp, esp
  0005c	e8 00 00 00 00	 call	 __RTC_CheckEsp
  00061	8b e5		 mov	 esp, ebp
  00063	5d		 pop	 ebp
  00064	c2 04 00	 ret	 4
??GD3DXVECTOR3@@QBE?AU0@XZ ENDP				; D3DXVECTOR3::operator-
; Function compile flags: /Odt /RTCsu /ZI
_TEXT	ENDS
;	COMDAT ??KD3DXVECTOR3@@QBE?AU0@M@Z
_TEXT	SEGMENT
_fInv$ = -20
_this$ = -8
___$ReturnUdt$ = 8
_f$ = 12
??KD3DXVECTOR3@@QBE?AU0@M@Z PROC NEAR			; D3DXVECTOR3::operator/, COMDAT
; _this$ = ecx

; 274  : {

  00000	55		 push	 ebp
  00001	8b ec		 mov	 ebp, esp
  00003	81 ec d8 00 00
	00		 sub	 esp, 216		; 000000d8H
  00009	53		 push	 ebx
  0000a	56		 push	 esi
  0000b	57		 push	 edi
  0000c	51		 push	 ecx
  0000d	8d bd 28 ff ff
	ff		 lea	 edi, DWORD PTR [ebp-216]
  00013	b9 36 00 00 00	 mov	 ecx, 54			; 00000036H
  00018	b8 cc cc cc cc	 mov	 eax, -858993460		; ccccccccH
  0001d	f3 ab		 rep stosd
  0001f	59		 pop	 ecx
  00020	89 4d f8	 mov	 DWORD PTR _this$[ebp], ecx

; 275  :     FLOAT fInv = 1.0f / f;

  00023	d9 05 00 00 00
	00		 fld	 DWORD PTR __real@3f800000
  00029	d8 75 0c	 fdiv	 DWORD PTR _f$[ebp]
  0002c	d9 5d ec	 fstp	 DWORD PTR _fInv$[ebp]

; 276  :     return D3DXVECTOR3(x * fInv, y * fInv, z * fInv);

  0002f	8b 45 f8	 mov	 eax, DWORD PTR _this$[ebp]
  00032	d9 45 ec	 fld	 DWORD PTR _fInv$[ebp]
  00035	d8 48 08	 fmul	 DWORD PTR [eax+8]
  00038	51		 push	 ecx
  00039	d9 1c 24	 fstp	 DWORD PTR [esp]
  0003c	8b 4d f8	 mov	 ecx, DWORD PTR _this$[ebp]
  0003f	d9 45 ec	 fld	 DWORD PTR _fInv$[ebp]
  00042	d8 49 04	 fmul	 DWORD PTR [ecx+4]
  00045	51		 push	 ecx
  00046	d9 1c 24	 fstp	 DWORD PTR [esp]
  00049	8b 55 f8	 mov	 edx, DWORD PTR _this$[ebp]
  0004c	d9 45 ec	 fld	 DWORD PTR _fInv$[ebp]
  0004f	d8 0a		 fmul	 DWORD PTR [edx]
  00051	51		 push	 ecx
  00052	d9 1c 24	 fstp	 DWORD PTR [esp]
  00055	8b 4d 08	 mov	 ecx, DWORD PTR ___$ReturnUdt$[ebp]
  00058	e8 00 00 00 00	 call	 ??0D3DXVECTOR3@@QAE@MMM@Z ; D3DXVECTOR3::D3DXVECTOR3
  0005d	8b 45 08	 mov	 eax, DWORD PTR ___$ReturnUdt$[ebp]

; 277  : }

  00060	5f		 pop	 edi
  00061	5e		 pop	 esi
  00062	5b		 pop	 ebx
  00063	81 c4 d8 00 00
	00		 add	 esp, 216		; 000000d8H
  00069	3b ec		 cmp	 ebp, esp
  0006b	e8 00 00 00 00	 call	 __RTC_CheckEsp
  00070	8b e5		 mov	 esp, ebp
  00072	5d		 pop	 ebp
  00073	c2 08 00	 ret	 8
??KD3DXVECTOR3@@QBE?AU0@M@Z ENDP			; D3DXVECTOR3::operator/
; Function compile flags: /Odt /RTCsu /ZI
_TEXT	ENDS
;	COMDAT ??D@YA?AUD3DXVECTOR3@@MABU0@@Z
_TEXT	SEGMENT
___$ReturnUdt$ = 8
_f$ = 12
_v$ = 16
??D@YA?AUD3DXVECTOR3@@MABU0@@Z PROC NEAR		; operator*, COMDAT

; 282  : {

  00000	55		 push	 ebp
  00001	8b ec		 mov	 ebp, esp
  00003	81 ec c0 00 00
	00		 sub	 esp, 192		; 000000c0H
  00009	53		 push	 ebx
  0000a	56		 push	 esi
  0000b	57		 push	 edi
  0000c	8d bd 40 ff ff
	ff		 lea	 edi, DWORD PTR [ebp-192]
  00012	b9 30 00 00 00	 mov	 ecx, 48			; 00000030H
  00017	b8 cc cc cc cc	 mov	 eax, -858993460		; ccccccccH
  0001c	f3 ab		 rep stosd

; 283  :     return D3DXVECTOR3(f * v.x, f * v.y, f * v.z);

  0001e	8b 45 10	 mov	 eax, DWORD PTR _v$[ebp]
  00021	d9 45 0c	 fld	 DWORD PTR _f$[ebp]
  00024	d8 48 08	 fmul	 DWORD PTR [eax+8]
  00027	51		 push	 ecx
  00028	d9 1c 24	 fstp	 DWORD PTR [esp]
  0002b	8b 4d 10	 mov	 ecx, DWORD PTR _v$[ebp]
  0002e	d9 45 0c	 fld	 DWORD PTR _f$[ebp]
  00031	d8 49 04	 fmul	 DWORD PTR [ecx+4]
  00034	51		 push	 ecx
  00035	d9 1c 24	 fstp	 DWORD PTR [esp]
  00038	8b 55 10	 mov	 edx, DWORD PTR _v$[ebp]
  0003b	d9 45 0c	 fld	 DWORD PTR _f$[ebp]
  0003e	d8 0a		 fmul	 DWORD PTR [edx]
  00040	51		 push	 ecx
  00041	d9 1c 24	 fstp	 DWORD PTR [esp]
  00044	8b 4d 08	 mov	 ecx, DWORD PTR ___$ReturnUdt$[ebp]
  00047	e8 00 00 00 00	 call	 ??0D3DXVECTOR3@@QAE@MMM@Z ; D3DXVECTOR3::D3DXVECTOR3
  0004c	8b 45 08	 mov	 eax, DWORD PTR ___$ReturnUdt$[ebp]

; 284  : }

  0004f	5f		 pop	 edi
  00050	5e		 pop	 esi
  00051	5b		 pop	 ebx
  00052	81 c4 c0 00 00
	00		 add	 esp, 192		; 000000c0H
  00058	3b ec		 cmp	 ebp, esp
  0005a	e8 00 00 00 00	 call	 __RTC_CheckEsp
  0005f	8b e5		 mov	 esp, ebp
  00061	5d		 pop	 ebp
  00062	c3		 ret	 0
??D@YA?AUD3DXVECTOR3@@MABU0@@Z ENDP			; operator*
; Function compile flags: /Odt /RTCsu /ZI
; File c:\documents and settings\dom\my documents\_dev\ae\xlr8a\x7g\x7_primitives.h
_TEXT	ENDS
;	COMDAT ??0UNCOLOREDVERTEX@@QAE@XZ
_TEXT	SEGMENT
_this$ = -8
??0UNCOLOREDVERTEX@@QAE@XZ PROC NEAR			; UNCOLOREDVERTEX::UNCOLOREDVERTEX, COMDAT
; _this$ = ecx

; 185  :     UNCOLOREDVERTEX() {} ;

  00000	55		 push	 ebp
  00001	8b ec		 mov	 ebp, esp
  00003	81 ec cc 00 00
	00		 sub	 esp, 204		; 000000ccH
  00009	53		 push	 ebx
  0000a	56		 push	 esi
  0000b	57		 push	 edi
  0000c	51		 push	 ecx
  0000d	8d bd 34 ff ff
	ff		 lea	 edi, DWORD PTR [ebp-204]
  00013	b9 33 00 00 00	 mov	 ecx, 51			; 00000033H
  00018	b8 cc cc cc cc	 mov	 eax, -858993460		; ccccccccH
  0001d	f3 ab		 rep stosd
  0001f	59		 pop	 ecx
  00020	89 4d f8	 mov	 DWORD PTR _this$[ebp], ecx
  00023	8b 45 f8	 mov	 eax, DWORD PTR _this$[ebp]
  00026	5f		 pop	 edi
  00027	5e		 pop	 esi
  00028	5b		 pop	 ebx
  00029	8b e5		 mov	 esp, ebp
  0002b	5d		 pop	 ebp
  0002c	c3		 ret	 0
??0UNCOLOREDVERTEX@@QAE@XZ ENDP				; UNCOLOREDVERTEX::UNCOLOREDVERTEX
; Function compile flags: /Odt /RTCsu /ZI
_TEXT	ENDS
;	COMDAT ??0UNCOLOREDVERTEX@@QAE@MMMMMMMM@Z
_TEXT	SEGMENT
_this$ = -8
___x$ = 8
___y$ = 12
___z$ = 16
__nx$ = 20
__ny$ = 24
__nz$ = 28
___tu1$ = 32
___tv1$ = 36
??0UNCOLOREDVERTEX@@QAE@MMMMMMMM@Z PROC NEAR		; UNCOLOREDVERTEX::UNCOLOREDVERTEX, COMDAT
; _this$ = ecx

; 186  :     UNCOLOREDVERTEX(FLOAT __x, FLOAT __y, FLOAT __z,

  00000	55		 push	 ebp
  00001	8b ec		 mov	 ebp, esp
  00003	81 ec cc 00 00
	00		 sub	 esp, 204		; 000000ccH
  00009	53		 push	 ebx
  0000a	56		 push	 esi
  0000b	57		 push	 edi
  0000c	51		 push	 ecx
  0000d	8d bd 34 ff ff
	ff		 lea	 edi, DWORD PTR [ebp-204]
  00013	b9 33 00 00 00	 mov	 ecx, 51			; 00000033H
  00018	b8 cc cc cc cc	 mov	 eax, -858993460		; ccccccccH
  0001d	f3 ab		 rep stosd
  0001f	59		 pop	 ecx
  00020	89 4d f8	 mov	 DWORD PTR _this$[ebp], ecx

; 187  : 				FLOAT _nx, FLOAT _ny, FLOAT _nz,
; 188  : 				FLOAT __tu1, FLOAT __tv1)
; 189  : 	{
; 190  : 		x = __x; y = __y; z = __z;

  00023	8b 45 f8	 mov	 eax, DWORD PTR _this$[ebp]
  00026	8b 4d 08	 mov	 ecx, DWORD PTR ___x$[ebp]
  00029	89 08		 mov	 DWORD PTR [eax], ecx
  0002b	8b 45 f8	 mov	 eax, DWORD PTR _this$[ebp]
  0002e	8b 4d 0c	 mov	 ecx, DWORD PTR ___y$[ebp]
  00031	89 48 04	 mov	 DWORD PTR [eax+4], ecx
  00034	8b 45 f8	 mov	 eax, DWORD PTR _this$[ebp]
  00037	8b 4d 10	 mov	 ecx, DWORD PTR ___z$[ebp]
  0003a	89 48 08	 mov	 DWORD PTR [eax+8], ecx

; 191  : 		nx = _nx; ny = _ny; nz = _nz;

  0003d	8b 45 f8	 mov	 eax, DWORD PTR _this$[ebp]
  00040	8b 4d 14	 mov	 ecx, DWORD PTR __nx$[ebp]
  00043	89 48 0c	 mov	 DWORD PTR [eax+12], ecx
  00046	8b 45 f8	 mov	 eax, DWORD PTR _this$[ebp]
  00049	8b 4d 18	 mov	 ecx, DWORD PTR __ny$[ebp]
  0004c	89 48 10	 mov	 DWORD PTR [eax+16], ecx
  0004f	8b 45 f8	 mov	 eax, DWORD PTR _this$[ebp]
  00052	8b 4d 1c	 mov	 ecx, DWORD PTR __nz$[ebp]
  00055	89 48 14	 mov	 DWORD PTR [eax+20], ecx

; 192  : 		tu1 = __tu1 ; tv1 = __tv1 ;

  00058	8b 45 f8	 mov	 eax, DWORD PTR _this$[ebp]
  0005b	8b 4d 20	 mov	 ecx, DWORD PTR ___tu1$[ebp]
  0005e	89 48 18	 mov	 DWORD PTR [eax+24], ecx
  00061	8b 45 f8	 mov	 eax, DWORD PTR _this$[ebp]
  00064	8b 4d 24	 mov	 ecx, DWORD PTR ___tv1$[ebp]
  00067	89 48 1c	 mov	 DWORD PTR [eax+28], ecx

; 193  : 	}

  0006a	8b 45 f8	 mov	 eax, DWORD PTR _this$[ebp]
  0006d	5f		 pop	 edi
  0006e	5e		 pop	 esi
  0006f	5b		 pop	 ebx
  00070	8b e5		 mov	 esp, ebp
  00072	5d		 pop	 ebp
  00073	c2 20 00	 ret	 32			; 00000020H
??0UNCOLOREDVERTEX@@QAE@MMMMMMMM@Z ENDP			; UNCOLOREDVERTEX::UNCOLOREDVERTEX
_TEXT	ENDS
END
