; Listing generated by Microsoft (R) Optimizing Compiler Version 13.00.9466 

	TITLE	CTerrain.cpp
	.386P
include listing.inc
if @Version gt 510
.model FLAT
else
_TEXT	SEGMENT PARA USE32 PUBLIC 'CODE'
_TEXT	ENDS
_DATA	SEGMENT DWORD USE32 PUBLIC 'DATA'
_DATA	ENDS
CONST	SEGMENT DWORD USE32 PUBLIC 'CONST'
CONST	ENDS
_BSS	SEGMENT DWORD USE32 PUBLIC 'BSS'
_BSS	ENDS
$$SYMBOLS	SEGMENT BYTE USE32 'DEBSYM'
$$SYMBOLS	ENDS
$$TYPES	SEGMENT BYTE USE32 'DEBTYP'
$$TYPES	ENDS
_TLS	SEGMENT DWORD USE32 PUBLIC 'TLS'
_TLS	ENDS
;	COMDAT ??_C@_0BK@GLHNKMHC@?4?4?2resource?2mod0?2cherry?4x?$AA@
CONST	SEGMENT DWORD USE32 PUBLIC 'CONST'
CONST	ENDS
;	COMDAT ??_C@_0EK@KKPMANGB@c?3?2documents?5and?5settings?2dom?2my@
CONST	SEGMENT DWORD USE32 PUBLIC 'CONST'
CONST	ENDS
;	COMDAT ??_C@_09JBPPALAG@m_pCherry?$AA@
CONST	SEGMENT DWORD USE32 PUBLIC 'CONST'
CONST	ENDS
;	COMDAT ??_C@_0BJ@EPHGNNOF@?4?4?2resource?2mod0?2heart?4x?$AA@
CONST	SEGMENT DWORD USE32 PUBLIC 'CONST'
CONST	ENDS
;	COMDAT ??_C@_09DNHEJFOM@m_pHealth?$AA@
CONST	SEGMENT DWORD USE32 PUBLIC 'CONST'
CONST	ENDS
;	COMDAT ??_C@_0BB@GGFJFIEI@m_bPatchesPicked?$AA@
CONST	SEGMENT DWORD USE32 PUBLIC 'CONST'
CONST	ENDS
;	COMDAT ??_C@_0L@DFNOIBPD@m_pPatches?$AA@
CONST	SEGMENT DWORD USE32 PUBLIC 'CONST'
CONST	ENDS
;	COMDAT ??_C@_0BG@BNIFEAPI@m_nPatchesRequiredLOD?$AA@
CONST	SEGMENT DWORD USE32 PUBLIC 'CONST'
CONST	ENDS
;	COMDAT ??_C@_0BL@HKDDPDHH@m_dsPatchesRequiredTopEdge?$AA@
CONST	SEGMENT DWORD USE32 PUBLIC 'CONST'
CONST	ENDS
;	COMDAT ??_C@_0BM@HGPBLEOH@m_dsPatchesRequiredLeftEdge?$AA@
CONST	SEGMENT DWORD USE32 PUBLIC 'CONST'
CONST	ENDS
;	COMDAT ??_C@_0BO@DMNLCL@m_dsPatchesRequiredBottomEdge?$AA@
CONST	SEGMENT DWORD USE32 PUBLIC 'CONST'
CONST	ENDS
;	COMDAT ??_C@_0BN@LHKDAENK@m_dsPatchesRequiredRightEdge?$AA@
CONST	SEGMENT DWORD USE32 PUBLIC 'CONST'
CONST	ENDS
;	COMDAT ??_C@_0M@GEKMANND@m_psPatches?$AA@
CONST	SEGMENT DWORD USE32 PUBLIC 'CONST'
CONST	ENDS
;	COMDAT ??_C@_0O@PKANDAMC@m_pfHeightmap?$AA@
CONST	SEGMENT DWORD USE32 PUBLIC 'CONST'
CONST	ENDS
;	COMDAT ??_C@_0M@FIMMKKFH@m_pColormap?$AA@
CONST	SEGMENT DWORD USE32 PUBLIC 'CONST'
CONST	ENDS
;	COMDAT ??_C@_0M@CCKJODOB@TerrainFlat?$AA@
CONST	SEGMENT DWORD USE32 PUBLIC 'CONST'
CONST	ENDS
;	COMDAT ??_C@_0CD@BHAMOOPE@m_pfHeightmap?5?$CF03dx?$CF03d?5?$FLof?5?$CFdx?$CF@
CONST	SEGMENT DWORD USE32 PUBLIC 'CONST'
CONST	ENDS
;	COMDAT ??_C@_0BE@EBCPFEJJ@BlendSplineTrench?$CI?$CJ?$AA@
CONST	SEGMENT DWORD USE32 PUBLIC 'CONST'
CONST	ENDS
;	COMDAT ??_C@_0BJ@FKPFDJLF@m_pColormap?5?$CFlu?5?$FLof?5?$CFlu?$FN?$AA@
CONST	SEGMENT DWORD USE32 PUBLIC 'CONST'
CONST	ENDS
;	COMDAT ??_C@_0BM@MCDMADMC@BlendColorSpot?5?$CFlu?5?$FLof?5800?$FN?$AA@
CONST	SEGMENT DWORD USE32 PUBLIC 'CONST'
CONST	ENDS
;	COMDAT ??_C@_0BN@CKLFEHFG@BlendColorSpot?5?$CFlu?5?$FLof?53200?$FN?$AA@
CONST	SEGMENT DWORD USE32 PUBLIC 'CONST'
CONST	ENDS
;	COMDAT ??_C@_0BH@IFOBGJIO@Patch?5?$CFdx?$CFd?5?$FLof?5?$CFdx?$CFd?$FN?$AA@
CONST	SEGMENT DWORD USE32 PUBLIC 'CONST'
CONST	ENDS
;	COMDAT ??_C@_0BM@BLFKKMME@m_pPatches?$FLTER_RC2ABS?$CIx?0y?$CJ?$FN?$AA@
CONST	SEGMENT DWORD USE32 PUBLIC 'CONST'
CONST	ENDS
;	COMDAT ??_C@_0CG@NLOMHOHK@total?5CHERRIES?$DL?5required?5?$CFd?0?5got@
CONST	SEGMENT DWORD USE32 PUBLIC 'CONST'
CONST	ENDS
;	COMDAT ??_C@_0CE@BCEJGOPN@total?5SHIELD?$DL?5required?5?$CFd?0?5got?5?$CF@
CONST	SEGMENT DWORD USE32 PUBLIC 'CONST'
CONST	ENDS
;	COMDAT ??_C@_0CE@GBJHEIFO@total?5ENGINE?$DL?5required?5?$CFd?0?5got?5?$CF@
CONST	SEGMENT DWORD USE32 PUBLIC 'CONST'
CONST	ENDS
;	COMDAT ??_C@_0CE@GLFDPHCB@total?5WEAPON?$DL?5required?5?$CFd?0?5got?5?$CF@
CONST	SEGMENT DWORD USE32 PUBLIC 'CONST'
CONST	ENDS
;	COMDAT ??_C@_0BO@NCHGCELJ@MAX_SPAWN_POS?$DN?$CFd?0?5we?5got?5?$CFd?4?6?$AA@
CONST	SEGMENT DWORD USE32 PUBLIC 'CONST'
CONST	ENDS
;	COMDAT ??_C@_0BA@KMCMLBDG@m_nSpawnPos?5?$DO?50?$AA@
CONST	SEGMENT DWORD USE32 PUBLIC 'CONST'
CONST	ENDS
;	COMDAT ??_C@_0CN@GGJJMBAJ@nFoundPatches?5?$DN?$DN?5m_nPatchesSQ?5?$CK?5@
CONST	SEGMENT DWORD USE32 PUBLIC 'CONST'
CONST	ENDS
;	COMDAT ??_C@_0P@HMGOFBJC@m_pfLERPHelper?$AA@
CONST	SEGMENT DWORD USE32 PUBLIC 'CONST'
CONST	ENDS
;	COMDAT ??_C@_0CE@JCLPDDAF@Cherry?5center?3?5?$CF0?41f?0?5?$CF0?41f?0?5?$CF0?4@
CONST	SEGMENT DWORD USE32 PUBLIC 'CONST'
CONST	ENDS
;	COMDAT ??_C@_09BHMLPHIJ@m_pShield?$AA@
CONST	SEGMENT DWORD USE32 PUBLIC 'CONST'
CONST	ENDS
;	COMDAT ??_C@_0CE@FMLJKGJE@Shield?5center?3?5?$CF0?41f?0?5?$CF0?41f?0?5?$CF0?4@
CONST	SEGMENT DWORD USE32 PUBLIC 'CONST'
CONST	ENDS
;	COMDAT ??_C@_09PAAEHKPL@m_pWeapon?$AA@
CONST	SEGMENT DWORD USE32 PUBLIC 'CONST'
CONST	ENDS
;	COMDAT ??_C@_0CE@IBNHNLIF@Weapon?5center?3?5?$CF0?41f?0?5?$CF0?41f?0?5?$CF0?4@
CONST	SEGMENT DWORD USE32 PUBLIC 'CONST'
CONST	ENDS
;	COMDAT ??_C@_0CE@DDGAMKNN@Health?5center?3?5?$CF0?41f?0?5?$CF0?41f?0?5?$CF0?4@
CONST	SEGMENT DWORD USE32 PUBLIC 'CONST'
CONST	ENDS
;	COMDAT ??_C@_0BB@MLLMCDCB@Patch?5?$CFd?5?$FLof?5?$CFd?$FN?$AA@
CONST	SEGMENT DWORD USE32 PUBLIC 'CONST'
CONST	ENDS
;	COMDAT ??_C@_05JIICGGIJ@m_pQT?$AA@
CONST	SEGMENT DWORD USE32 PUBLIC 'CONST'
CONST	ENDS
;	COMDAT ??_C@_0BC@CJHPFPPB@m_pItemSphereMesh?$AA@
CONST	SEGMENT DWORD USE32 PUBLIC 'CONST'
CONST	ENDS
;	COMDAT ??_C@_0L@KJLEIMLM@D3D_OK?$DN?$DNhr?$AA@
CONST	SEGMENT DWORD USE32 PUBLIC 'CONST'
CONST	ENDS
;	COMDAT ??_C@_0BM@NJJPHLHP@m_pisAllItemsDistanceSorted?$AA@
CONST	SEGMENT DWORD USE32 PUBLIC 'CONST'
CONST	ENDS
;	COMDAT ??_C@_0M@CMEKCOKF@nLights?5?$DO?50?$AA@
CONST	SEGMENT DWORD USE32 PUBLIC 'CONST'
CONST	ENDS
;	COMDAT _IsEqualGUID
_TEXT	SEGMENT PARA USE32 PUBLIC 'CODE'
_TEXT	ENDS
;	COMDAT _==
_TEXT	SEGMENT PARA USE32 PUBLIC 'CODE'
_TEXT	ENDS
;	COMDAT _fabsf
_TEXT	SEGMENT PARA USE32 PUBLIC 'CODE'
_TEXT	ENDS
;	COMDAT _sinf
_TEXT	SEGMENT PARA USE32 PUBLIC 'CODE'
_TEXT	ENDS
;	COMDAT _sqrtf
_TEXT	SEGMENT PARA USE32 PUBLIC 'CODE'
_TEXT	ENDS
;	COMDAT ??0D3DXVECTOR2@@QAE@XZ
_TEXT	SEGMENT PARA USE32 PUBLIC 'CODE'
_TEXT	ENDS
;	COMDAT ??0D3DXVECTOR3@@QAE@XZ
_TEXT	SEGMENT PARA USE32 PUBLIC 'CODE'
_TEXT	ENDS
;	COMDAT ??0D3DXMATRIX@@QAE@XZ
_TEXT	SEGMENT PARA USE32 PUBLIC 'CODE'
_TEXT	ENDS
;	COMDAT ??0D3DXQUATERNION@@QAE@XZ
_TEXT	SEGMENT PARA USE32 PUBLIC 'CODE'
_TEXT	ENDS
;	COMDAT ??0D3DXCOLOR@@QAE@XZ
_TEXT	SEGMENT PARA USE32 PUBLIC 'CODE'
_TEXT	ENDS
;	COMDAT ??0D3DXVECTOR2@@QAE@MM@Z
_TEXT	SEGMENT PARA USE32 PUBLIC 'CODE'
_TEXT	ENDS
;	COMDAT ??GD3DXVECTOR2@@QBE?AU0@ABU0@@Z
_TEXT	SEGMENT PARA USE32 PUBLIC 'CODE'
_TEXT	ENDS
;	COMDAT ??0D3DXVECTOR3@@QAE@MMM@Z
_TEXT	SEGMENT PARA USE32 PUBLIC 'CODE'
_TEXT	ENDS
;	COMDAT ??HD3DXVECTOR3@@QBE?AU0@ABU0@@Z
_TEXT	SEGMENT PARA USE32 PUBLIC 'CODE'
_TEXT	ENDS
;	COMDAT ??GD3DXVECTOR3@@QBE?AU0@ABU0@@Z
_TEXT	SEGMENT PARA USE32 PUBLIC 'CODE'
_TEXT	ENDS
;	COMDAT ??9D3DXVECTOR3@@QBEHABU0@@Z
_TEXT	SEGMENT PARA USE32 PUBLIC 'CODE'
_TEXT	ENDS
;	COMDAT ??0D3DXVECTOR4@@QAE@MMMM@Z
_TEXT	SEGMENT PARA USE32 PUBLIC 'CODE'
_TEXT	ENDS
;	COMDAT ??0D3DXMATRIX@@QAE@PBM@Z
_TEXT	SEGMENT PARA USE32 PUBLIC 'CODE'
_TEXT	ENDS
;	COMDAT ??0D3DXMATRIX@@QAE@ABU_D3DMATRIX@@@Z
_TEXT	SEGMENT PARA USE32 PUBLIC 'CODE'
_TEXT	ENDS
;	COMDAT ??0D3DXMATRIX@@QAE@MMMMMMMMMMMMMMMM@Z
_TEXT	SEGMENT PARA USE32 PUBLIC 'CODE'
_TEXT	ENDS
;	COMDAT ??0D3DXQUATERNION@@QAE@MMMM@Z
_TEXT	SEGMENT PARA USE32 PUBLIC 'CODE'
_TEXT	ENDS
;	COMDAT ??0D3DXPLANE@@QAE@MMMM@Z
_TEXT	SEGMENT PARA USE32 PUBLIC 'CODE'
_TEXT	ENDS
;	COMDAT ??0D3DXCOLOR@@QAE@MMMM@Z
_TEXT	SEGMENT PARA USE32 PUBLIC 'CODE'
_TEXT	ENDS
;	COMDAT ?D3DXVec2Length@@YAMPBUD3DXVECTOR2@@@Z
_TEXT	SEGMENT PARA USE32 PUBLIC 'CODE'
_TEXT	ENDS
;	COMDAT ?D3DXVec3Length@@YAMPBUD3DXVECTOR3@@@Z
_TEXT	SEGMENT PARA USE32 PUBLIC 'CODE'
_TEXT	ENDS
;	COMDAT ??0CTerrain@@QAE@MPAVCx7@@HHHHHHHMHHIIHHH@Z
_TEXT	SEGMENT PARA USE32 PUBLIC 'CODE'
_TEXT	ENDS
;	COMDAT ??_H@YGXPAXIHP6EPAX0@Z@Z
_TEXT	SEGMENT PARA USE32 PUBLIC 'CODE'
_TEXT	ENDS
;	COMDAT ??1CTerrain@@QAE@XZ
_TEXT	SEGMENT PARA USE32 PUBLIC 'CODE'
_TEXT	ENDS
;	COMDAT ??_GCTerrainPatch@@QAEPAXI@Z
_TEXT	SEGMENT PARA USE32 PUBLIC 'CODE'
_TEXT	ENDS
;	COMDAT ??_GCQuadtree@@QAEPAXI@Z
_TEXT	SEGMENT PARA USE32 PUBLIC 'CODE'
_TEXT	ENDS
;	COMDAT ??_GCFileRenderObject@@QAEPAXI@Z
_TEXT	SEGMENT PARA USE32 PUBLIC 'CODE'
_TEXT	ENDS
;	COMDAT ?QueryMemUsage@CTerrain@@QAEKXZ
_TEXT	SEGMENT PARA USE32 PUBLIC 'CODE'
_TEXT	ENDS
;	COMDAT ?BlendColorSpot@CTerrain@@QAEHIIHPAUD3DXCOLOR@@@Z
_TEXT	SEGMENT PARA USE32 PUBLIC 'CODE'
_TEXT	ENDS
;	COMDAT ?BlendSplineTrench@CTerrain@@QAEHXZ
_TEXT	SEGMENT PARA USE32 PUBLIC 'CODE'
_TEXT	ENDS
;	COMDAT ?LERPdY@CTerrain@@QAEXMMPAMPAHPAUD3DXVECTOR3@@@Z
_TEXT	SEGMENT PARA USE32 PUBLIC 'CODE'
_TEXT	ENDS
;	COMDAT ?RestoreDeviceObjects@CTerrain@@QAEJPAUIDirect3D8@@PAUIDirect3DDevice8@@@Z
_TEXT	SEGMENT PARA USE32 PUBLIC 'CODE'
_TEXT	ENDS
;	COMDAT ?InvalidateDeviceObjects@CTerrain@@QAEJPAUIDirect3DDevice8@@@Z
_TEXT	SEGMENT PARA USE32 PUBLIC 'CODE'
_TEXT	ENDS
;	COMDAT ?DisableItemLights@CTerrain@@QAEHPAUIDirect3DDevice8@@HH@Z
_TEXT	SEGMENT PARA USE32 PUBLIC 'CODE'
_TEXT	ENDS
;	COMDAT ?Render@CTerrain@@QAEJPAUIDirect3DDevice8@@PAVCTextures@@PAKPAVCCamera@@PAUD3DXMATRIX@@4PAU_D3DVIEWPORT8@@M@Z
_TEXT	SEGMENT PARA USE32 PUBLIC 'CODE'
_TEXT	ENDS
;	COMDAT ?SortGameitemDistancesCallback@@YAHPBX0@Z
_TEXT	SEGMENT PARA USE32 PUBLIC 'CODE'
_TEXT	ENDS
;	COMDAT ?FrameMove@CTerrain@@QAEJPAUIDirect3DDevice8@@PAVCUserInput@@MPAVCCamera@@PAUD3DXMATRIX@@PAU_D3DVIEWPORT8@@@Z
_TEXT	SEGMENT PARA USE32 PUBLIC 'CODE'
_TEXT	ENDS
;	COMDAT ?DistanceSortItemsAndSetLights@CTerrain@@QAEHPAUIDirect3DDevice8@@HHPAVCCamera@@@Z
_TEXT	SEGMENT PARA USE32 PUBLIC 'CODE'
_TEXT	ENDS
;	COMDAT ?SortItemDistancesCallback@@YAHPBX0@Z
_TEXT	SEGMENT PARA USE32 PUBLIC 'CODE'
_TEXT	ENDS
;	COMDAT ?DetermineRequiredLOD@CTerrain@@QAEHPAVCCamera@@@Z
_TEXT	SEGMENT PARA USE32 PUBLIC 'CODE'
_TEXT	ENDS
;	COMDAT ?SortPatchDistancesCallback@@YAHPBX0@Z
_TEXT	SEGMENT PARA USE32 PUBLIC 'CODE'
_TEXT	ENDS
;	COMDAT ?DetermineVisibility@CTerrain@@QAEHPAUIDirect3DDevice8@@PAVCCamera@@PAUD3DXMATRIX@@PAU_D3DVIEWPORT8@@@Z
_TEXT	SEGMENT PARA USE32 PUBLIC 'CODE'
_TEXT	ENDS
;	COMDAT ?DetermineVisibilityForQuadtreeNode@CTerrain@@QAEHPAU_QTNode@CQuadtree@@PAUIDirect3DDevice8@@PAVCCamera@@PAUD3DXMATRIX@@PAU_D3DVIEWPORT8@@@Z
_TEXT	SEGMENT PARA USE32 PUBLIC 'CODE'
_TEXT	ENDS
;	COMDAT ?RenderItem@CTerrain@@QAEHPAUIDirect3DDevice8@@PAVCTextures@@PAKPAUD3DXMATRIX@@PAUGAMEITEM@@3PAU_D3DVIEWPORT8@@PAVCCamera@@MM@Z
_TEXT	SEGMENT PARA USE32 PUBLIC 'CODE'
_TEXT	ENDS
;	COMDAT ?__LINE__Var@?1??RenderItem@CTerrain@@QAEHPAUIDirect3DDevice8@@PAVCTextures@@PAKPAUD3DXMATRIX@@PAUGAMEITEM@@3PAU_D3DVIEWPORT8@@PAVCCamera@@MM@Z@4JA
_DATA	SEGMENT DWORD USE32 PUBLIC 'DATA'
_DATA	ENDS
;	COMDAT ?__LINE__Var@?1??DistanceSortItemsAndSetLights@CTerrain@@QAEHPAUIDirect3DDevice8@@HHPAVCCamera@@@Z@4JA
_DATA	SEGMENT DWORD USE32 PUBLIC 'DATA'
_DATA	ENDS
;	COMDAT ?__LINE__Var@?1??Render@CTerrain@@QAEJPAUIDirect3DDevice8@@PAVCTextures@@PAKPAVCCamera@@PAUD3DXMATRIX@@4PAU_D3DVIEWPORT8@@M@Z@4JA
_DATA	SEGMENT DWORD USE32 PUBLIC 'DATA'
_DATA	ENDS
;	COMDAT ?__LINE__Var@?1??RestoreDeviceObjects@CTerrain@@QAEJPAUIDirect3D8@@PAUIDirect3DDevice8@@@Z@4JA
_DATA	SEGMENT DWORD USE32 PUBLIC 'DATA'
_DATA	ENDS
;	COMDAT ?__LINE__Var@?1???0CTerrain@@QAE@MPAVCx7@@HHHHHHHMHHIIHHH@Z@4JA
_DATA	SEGMENT DWORD USE32 PUBLIC 'DATA'
_DATA	ENDS
FLAT	GROUP _DATA, CONST, _BSS
	ASSUME	CS: FLAT, DS: FLAT, SS: FLAT
endif

INCLUDELIB LIBCMTD
INCLUDELIB OLDNAMES

CONST	SEGMENT
_g_PI	DD	040490fdbr			; 3.14159
_g_DEGTORAD DD	03c8efa35r			; 0.0174533
CONST	ENDS
PUBLIC	??_H@YGXPAXIHP6EPAX0@Z@Z			; `vector constructor iterator'
PUBLIC	??0D3DXCOLOR@@QAE@XZ				; D3DXCOLOR::D3DXCOLOR
PUBLIC	??0D3DXCOLOR@@QAE@MMMM@Z			; D3DXCOLOR::D3DXCOLOR
PUBLIC	??0CTerrain@@QAE@MPAVCx7@@HHHHHHHMHHIIHHH@Z	; CTerrain::CTerrain
PUBLIC	?BlendColorSpot@CTerrain@@QAEHIIHPAUD3DXCOLOR@@@Z ; CTerrain::BlendColorSpot
PUBLIC	?BlendSplineTrench@CTerrain@@QAEHXZ		; CTerrain::BlendSplineTrench
PUBLIC	??_C@_0BK@GLHNKMHC@?4?4?2resource?2mod0?2cherry?4x?$AA@ ; `string'
PUBLIC	?__LINE__Var@?1???0CTerrain@@QAE@MPAVCx7@@HHHHHHHMHHIIHHH@Z@4JA ; `CTerrain::CTerrain'::`2'::__LINE__Var
PUBLIC	??_C@_0EK@KKPMANGB@c?3?2documents?5and?5settings?2dom?2my@ ; `string'
PUBLIC	??_C@_09JBPPALAG@m_pCherry?$AA@			; `string'
PUBLIC	__real@41a00000
PUBLIC	__real@3f800000
PUBLIC	__real@42480000
PUBLIC	__real@41200000
PUBLIC	__real@40000000
PUBLIC	__real@3f4ccccd
PUBLIC	__real@00000000
PUBLIC	__real@40400000
PUBLIC	__real@3f333333
PUBLIC	__real@3f000000
PUBLIC	__real@3e4ccccd
PUBLIC	__real@3f19999a
PUBLIC	??_C@_0BJ@EPHGNNOF@?4?4?2resource?2mod0?2heart?4x?$AA@ ; `string'
PUBLIC	__real@3ecccccd
PUBLIC	??_C@_09DNHEJFOM@m_pHealth?$AA@			; `string'
PUBLIC	__real@42800000
PUBLIC	__real@3cf5c28f
PUBLIC	??_C@_0BB@GGFJFIEI@m_bPatchesPicked?$AA@	; `string'
PUBLIC	__real@43000000
PUBLIC	__real@3ca3d70a
PUBLIC	??_C@_0L@DFNOIBPD@m_pPatches?$AA@		; `string'
PUBLIC	__real@43800000
PUBLIC	__real@3c23d70a
PUBLIC	??_C@_0BG@BNIFEAPI@m_nPatchesRequiredLOD?$AA@	; `string'
PUBLIC	__real@437f0000
PUBLIC	__real@41000000
PUBLIC	??_C@_0BL@HKDDPDHH@m_dsPatchesRequiredTopEdge?$AA@ ; `string'
PUBLIC	??_C@_0BM@HGPBLEOH@m_dsPatchesRequiredLeftEdge?$AA@ ; `string'
PUBLIC	??_C@_0BO@DMNLCL@m_dsPatchesRequiredBottomEdge?$AA@ ; `string'
PUBLIC	??_C@_0BN@LHKDAENK@m_dsPatchesRequiredRightEdge?$AA@ ; `string'
PUBLIC	??_C@_0M@GEKMANND@m_psPatches?$AA@		; `string'
PUBLIC	??_C@_0O@PKANDAMC@m_pfHeightmap?$AA@		; `string'
PUBLIC	??_C@_0M@FIMMKKFH@m_pColormap?$AA@		; `string'
PUBLIC	??_C@_0M@CCKJODOB@TerrainFlat?$AA@		; `string'
PUBLIC	??_C@_0CD@BHAMOOPE@m_pfHeightmap?5?$CF03dx?$CF03d?5?$FLof?5?$CFdx?$CF@ ; `string'
PUBLIC	??_C@_0BE@EBCPFEJJ@BlendSplineTrench?$CI?$CJ?$AA@ ; `string'
PUBLIC	??_C@_0BJ@FKPFDJLF@m_pColormap?5?$CFlu?5?$FLof?5?$CFlu?$FN?$AA@ ; `string'
PUBLIC	??_C@_0BM@MCDMADMC@BlendColorSpot?5?$CFlu?5?$FLof?5800?$FN?$AA@ ; `string'
PUBLIC	??_C@_0BN@CKLFEHFG@BlendColorSpot?5?$CFlu?5?$FLof?53200?$FN?$AA@ ; `string'
PUBLIC	??_C@_0BH@IFOBGJIO@Patch?5?$CFdx?$CFd?5?$FLof?5?$CFdx?$CFd?$FN?$AA@ ; `string'
PUBLIC	??_C@_0BM@BLFKKMME@m_pPatches?$FLTER_RC2ABS?$CIx?0y?$CJ?$FN?$AA@ ; `string'
PUBLIC	??_C@_0CG@NLOMHOHK@total?5CHERRIES?$DL?5required?5?$CFd?0?5got@ ; `string'
PUBLIC	??_C@_0CE@BCEJGOPN@total?5SHIELD?$DL?5required?5?$CFd?0?5got?5?$CF@ ; `string'
PUBLIC	??_C@_0CE@GBJHEIFO@total?5ENGINE?$DL?5required?5?$CFd?0?5got?5?$CF@ ; `string'
PUBLIC	??_C@_0CE@GLFDPHCB@total?5WEAPON?$DL?5required?5?$CFd?0?5got?5?$CF@ ; `string'
PUBLIC	??_C@_0BO@NCHGCELJ@MAX_SPAWN_POS?$DN?$CFd?0?5we?5got?5?$CFd?4?6?$AA@ ; `string'
PUBLIC	??_C@_0BA@KMCMLBDG@m_nSpawnPos?5?$DO?50?$AA@	; `string'
PUBLIC	??_C@_0CN@GGJJMBAJ@nFoundPatches?5?$DN?$DN?5m_nPatchesSQ?5?$CK?5@ ; `string'
PUBLIC	??_C@_0P@HMGOFBJC@m_pfLERPHelper?$AA@		; `string'
PUBLIC	_fabsf
PUBLIC	_sinf
PUBLIC	??0D3DXVECTOR3@@QAE@XZ				; D3DXVECTOR3::D3DXVECTOR3
PUBLIC	??0D3DXVECTOR3@@QAE@MMM@Z			; D3DXVECTOR3::D3DXVECTOR3
PUBLIC	??9D3DXVECTOR3@@QBEHABU0@@Z			; D3DXVECTOR3::operator!=
EXTRN	??0CFileRenderObject@@QAE@PADHPAURENDER_DATA_INFO@0@@Z:NEAR ; CFileRenderObject::CFileRenderObject
EXTRN	??2@YAPAXI@Z:NEAR				; operator new
EXTRN	_sprintf:NEAR
EXTRN	_memset:NEAR
EXTRN	_D3DXVec3Normalize@8:NEAR
EXTRN	?GetInt@CCmdLineParser@@QAEHPADH@Z:NEAR		; CCmdLineParser::GetInt
EXTRN	__RTC_InitBase:NEAR
EXTRN	__RTC_Shutdown:NEAR
EXTRN	__RTC_UninitUse:NEAR
EXTRN	__ftol2:NEAR
EXTRN	__assert:NEAR
EXTRN	@_RTC_CheckStackVars@8:NEAR
EXTRN	__RTC_CheckEsp:NEAR
EXTRN	__fltused:NEAR
EXTRN	?SetupSpecularMaterial@@YAXPAU_D3DMATERIAL8@@MMMM@Z:NEAR ; SetupSpecularMaterial
EXTRN	?Pow2@@YAHH@Z:NEAR				; Pow2
EXTRN	?ods@@YAXPADZZ:NEAR				; ods
EXTRN	?rnd@@YAMXZ:NEAR				; rnd
EXTRN	??0CTerrainPatch@@QAE@HPAUD3DXVECTOR3@@MMPAMPAUD3DXCOLOR@@KKMM0MMMMMMHH@Z:NEAR ; CTerrainPatch::CTerrainPatch
EXTRN	??0CQuadtree@@QAE@PAUD3DXVECTOR3@@0H@Z:NEAR	; CQuadtree::CQuadtree
;	COMDAT rtc$IMZ
; File c:\documents and settings\dom\my documents\_dev\ae\xlr8a\x7g\cterrain.cpp
rtc$IMZ	SEGMENT
__RTC_InitBase.rtc$IMZ DD FLAT:__RTC_InitBase
rtc$IMZ	ENDS
;	COMDAT rtc$TMZ
rtc$TMZ	SEGMENT
__RTC_Shutdown.rtc$TMZ DD FLAT:__RTC_Shutdown
rtc$TMZ	ENDS
;	COMDAT __real@41a00000
CONST	SEGMENT
__real@41a00000 DD 041a00000r			; 20
CONST	ENDS
;	COMDAT __real@3f800000
CONST	SEGMENT
__real@3f800000 DD 03f800000r			; 1
CONST	ENDS
;	COMDAT __real@42480000
CONST	SEGMENT
__real@42480000 DD 042480000r			; 50
CONST	ENDS
;	COMDAT ??_C@_0BK@GLHNKMHC@?4?4?2resource?2mod0?2cherry?4x?$AA@
CONST	SEGMENT
??_C@_0BK@GLHNKMHC@?4?4?2resource?2mod0?2cherry?4x?$AA@ DB '..\resource\m'
	DB	'od0\cherry.x', 00H				; `string'
CONST	ENDS
;	COMDAT ?__LINE__Var@?1???0CTerrain@@QAE@MPAVCx7@@HHHHHHHMHHIIHHH@Z@4JA
_DATA	SEGMENT
?__LINE__Var@?1???0CTerrain@@QAE@MPAVCx7@@HHHHHHHMHHIIHHH@Z@4JA DD 01fH ; `CTerrain::CTerrain'::`2'::__LINE__Var
_DATA	ENDS
;	COMDAT ??_C@_0EK@KKPMANGB@c?3?2documents?5and?5settings?2dom?2my@
CONST	SEGMENT
??_C@_0EK@KKPMANGB@c?3?2documents?5and?5settings?2dom?2my@ DB 'c:\documen'
	DB	'ts and settings\dom\my documents\_dev\ae\xlr8a\x7g\cterrain.c'
	DB	'pp', 00H					; `string'
CONST	ENDS
;	COMDAT ??_C@_09JBPPALAG@m_pCherry?$AA@
CONST	SEGMENT
??_C@_09JBPPALAG@m_pCherry?$AA@ DB 'm_pCherry', 00H	; `string'
CONST	ENDS
;	COMDAT ??_C@_0BJ@EPHGNNOF@?4?4?2resource?2mod0?2heart?4x?$AA@
CONST	SEGMENT
??_C@_0BJ@EPHGNNOF@?4?4?2resource?2mod0?2heart?4x?$AA@ DB '..\resource\mo'
	DB	'd0\heart.x', 00H				; `string'
CONST	ENDS
;	COMDAT ??_C@_09DNHEJFOM@m_pHealth?$AA@
CONST	SEGMENT
??_C@_09DNHEJFOM@m_pHealth?$AA@ DB 'm_pHealth', 00H	; `string'
CONST	ENDS
;	COMDAT ??_C@_0BB@GGFJFIEI@m_bPatchesPicked?$AA@
CONST	SEGMENT
??_C@_0BB@GGFJFIEI@m_bPatchesPicked?$AA@ DB 'm_bPatchesPicked', 00H ; `string'
CONST	ENDS
;	COMDAT ??_C@_0L@DFNOIBPD@m_pPatches?$AA@
CONST	SEGMENT
??_C@_0L@DFNOIBPD@m_pPatches?$AA@ DB 'm_pPatches', 00H	; `string'
CONST	ENDS
;	COMDAT ??_C@_0BG@BNIFEAPI@m_nPatchesRequiredLOD?$AA@
CONST	SEGMENT
??_C@_0BG@BNIFEAPI@m_nPatchesRequiredLOD?$AA@ DB 'm_nPatchesRequiredLOD', 00H ; `string'
CONST	ENDS
;	COMDAT ??_C@_0BL@HKDDPDHH@m_dsPatchesRequiredTopEdge?$AA@
CONST	SEGMENT
??_C@_0BL@HKDDPDHH@m_dsPatchesRequiredTopEdge?$AA@ DB 'm_dsPatchesRequire'
	DB	'dTopEdge', 00H				; `string'
CONST	ENDS
;	COMDAT ??_C@_0BM@HGPBLEOH@m_dsPatchesRequiredLeftEdge?$AA@
CONST	SEGMENT
??_C@_0BM@HGPBLEOH@m_dsPatchesRequiredLeftEdge?$AA@ DB 'm_dsPatchesRequir'
	DB	'edLeftEdge', 00H				; `string'
CONST	ENDS
;	COMDAT ??_C@_0BO@DMNLCL@m_dsPatchesRequiredBottomEdge?$AA@
CONST	SEGMENT
??_C@_0BO@DMNLCL@m_dsPatchesRequiredBottomEdge?$AA@ DB 'm_dsPatchesRequir'
	DB	'edBottomEdge', 00H				; `string'
CONST	ENDS
;	COMDAT ??_C@_0BN@LHKDAENK@m_dsPatchesRequiredRightEdge?$AA@
CONST	SEGMENT
??_C@_0BN@LHKDAENK@m_dsPatchesRequiredRightEdge?$AA@ DB 'm_dsPatchesRequi'
	DB	'redRightEdge', 00H				; `string'
CONST	ENDS
;	COMDAT ??_C@_0M@GEKMANND@m_psPatches?$AA@
CONST	SEGMENT
??_C@_0M@GEKMANND@m_psPatches?$AA@ DB 'm_psPatches', 00H ; `string'
CONST	ENDS
;	COMDAT ??_C@_0O@PKANDAMC@m_pfHeightmap?$AA@
CONST	SEGMENT
??_C@_0O@PKANDAMC@m_pfHeightmap?$AA@ DB 'm_pfHeightmap', 00H ; `string'
CONST	ENDS
;	COMDAT ??_C@_0M@FIMMKKFH@m_pColormap?$AA@
CONST	SEGMENT
??_C@_0M@FIMMKKFH@m_pColormap?$AA@ DB 'm_pColormap', 00H ; `string'
CONST	ENDS
;	COMDAT ??_C@_0M@CCKJODOB@TerrainFlat?$AA@
CONST	SEGMENT
??_C@_0M@CCKJODOB@TerrainFlat?$AA@ DB 'TerrainFlat', 00H ; `string'
CONST	ENDS
;	COMDAT __real@41200000
CONST	SEGMENT
__real@41200000 DD 041200000r			; 10
CONST	ENDS
;	COMDAT __real@40000000
CONST	SEGMENT
__real@40000000 DD 040000000r			; 2
CONST	ENDS
;	COMDAT ??_C@_0CD@BHAMOOPE@m_pfHeightmap?5?$CF03dx?$CF03d?5?$FLof?5?$CFdx?$CF@
CONST	SEGMENT
??_C@_0CD@BHAMOOPE@m_pfHeightmap?5?$CF03dx?$CF03d?5?$FLof?5?$CFdx?$CF@ DB 'm'
	DB	'_pfHeightmap %03dx%03d [of %dx%d]', 00H	; `string'
CONST	ENDS
;	COMDAT __real@3f4ccccd
CONST	SEGMENT
__real@3f4ccccd DD 03f4ccccdr			; 0.8
CONST	ENDS
;	COMDAT __real@00000000
CONST	SEGMENT
__real@00000000 DD 000000000r			; 0
CONST	ENDS
;	COMDAT __real@40400000
CONST	SEGMENT
__real@40400000 DD 040400000r			; 3
CONST	ENDS
;	COMDAT __real@3f333333
CONST	SEGMENT
__real@3f333333 DD 03f333333r			; 0.7
CONST	ENDS
;	COMDAT __real@3f000000
CONST	SEGMENT
__real@3f000000 DD 03f000000r			; 0.5
CONST	ENDS
;	COMDAT __real@3e4ccccd
CONST	SEGMENT
__real@3e4ccccd DD 03e4ccccdr			; 0.2
CONST	ENDS
;	COMDAT __real@3f19999a
CONST	SEGMENT
__real@3f19999a DD 03f19999ar			; 0.6
CONST	ENDS
;	COMDAT __real@3ecccccd
CONST	SEGMENT
__real@3ecccccd DD 03ecccccdr			; 0.4
CONST	ENDS
;	COMDAT __real@42800000
CONST	SEGMENT
__real@42800000 DD 042800000r			; 64
CONST	ENDS
;	COMDAT __real@3cf5c28f
CONST	SEGMENT
__real@3cf5c28f DD 03cf5c28fr			; 0.03
CONST	ENDS
;	COMDAT __real@43000000
CONST	SEGMENT
__real@43000000 DD 043000000r			; 128
CONST	ENDS
;	COMDAT __real@3ca3d70a
CONST	SEGMENT
__real@3ca3d70a DD 03ca3d70ar			; 0.02
CONST	ENDS
;	COMDAT __real@43800000
CONST	SEGMENT
__real@43800000 DD 043800000r			; 256
CONST	ENDS
;	COMDAT __real@3c23d70a
CONST	SEGMENT
__real@3c23d70a DD 03c23d70ar			; 0.01
CONST	ENDS
;	COMDAT ??_C@_0BE@EBCPFEJJ@BlendSplineTrench?$CI?$CJ?$AA@
CONST	SEGMENT
??_C@_0BE@EBCPFEJJ@BlendSplineTrench?$CI?$CJ?$AA@ DB 'BlendSplineTrench()'
	DB	00H						; `string'
CONST	ENDS
;	COMDAT __real@437f0000
CONST	SEGMENT
__real@437f0000 DD 0437f0000r			; 255
CONST	ENDS
;	COMDAT ??_C@_0BJ@FKPFDJLF@m_pColormap?5?$CFlu?5?$FLof?5?$CFlu?$FN?$AA@
CONST	SEGMENT
??_C@_0BJ@FKPFDJLF@m_pColormap?5?$CFlu?5?$FLof?5?$CFlu?$FN?$AA@ DB 'm_pCo'
	DB	'lormap %lu [of %lu]', 00H			; `string'
CONST	ENDS
;	COMDAT __real@41000000
CONST	SEGMENT
__real@41000000 DD 041000000r			; 8
CONST	ENDS
;	COMDAT ??_C@_0BM@MCDMADMC@BlendColorSpot?5?$CFlu?5?$FLof?5800?$FN?$AA@
CONST	SEGMENT
??_C@_0BM@MCDMADMC@BlendColorSpot?5?$CFlu?5?$FLof?5800?$FN?$AA@ DB 'Blend'
	DB	'ColorSpot %lu [of 800]', 00H		; `string'
CONST	ENDS
;	COMDAT ??_C@_0BN@CKLFEHFG@BlendColorSpot?5?$CFlu?5?$FLof?53200?$FN?$AA@
CONST	SEGMENT
??_C@_0BN@CKLFEHFG@BlendColorSpot?5?$CFlu?5?$FLof?53200?$FN?$AA@ DB 'Blen'
	DB	'dColorSpot %lu [of 3200]', 00H		; `string'
CONST	ENDS
;	COMDAT ??_C@_0BH@IFOBGJIO@Patch?5?$CFdx?$CFd?5?$FLof?5?$CFdx?$CFd?$FN?$AA@
CONST	SEGMENT
??_C@_0BH@IFOBGJIO@Patch?5?$CFdx?$CFd?5?$FLof?5?$CFdx?$CFd?$FN?$AA@ DB 'P'
	DB	'atch %dx%d [of %dx%d]', 00H			; `string'
CONST	ENDS
;	COMDAT ??_C@_0BM@BLFKKMME@m_pPatches?$FLTER_RC2ABS?$CIx?0y?$CJ?$FN?$AA@
CONST	SEGMENT
??_C@_0BM@BLFKKMME@m_pPatches?$FLTER_RC2ABS?$CIx?0y?$CJ?$FN?$AA@ DB 'm_pP'
	DB	'atches[TER_RC2ABS(x,y)]', 00H		; `string'
CONST	ENDS
;	COMDAT ??_C@_0CG@NLOMHOHK@total?5CHERRIES?$DL?5required?5?$CFd?0?5got@
CONST	SEGMENT
??_C@_0CG@NLOMHOHK@total?5CHERRIES?$DL?5required?5?$CFd?0?5got@ DB 'total'
	DB	' CHERRIES; required %d, got %d.', 0aH, 00H	; `string'
CONST	ENDS
;	COMDAT ??_C@_0CE@BCEJGOPN@total?5SHIELD?$DL?5required?5?$CFd?0?5got?5?$CF@
CONST	SEGMENT
??_C@_0CE@BCEJGOPN@total?5SHIELD?$DL?5required?5?$CFd?0?5got?5?$CF@ DB 't'
	DB	'otal SHIELD; required %d, got %d.', 0aH, 00H ; `string'
CONST	ENDS
;	COMDAT ??_C@_0CE@GBJHEIFO@total?5ENGINE?$DL?5required?5?$CFd?0?5got?5?$CF@
CONST	SEGMENT
??_C@_0CE@GBJHEIFO@total?5ENGINE?$DL?5required?5?$CFd?0?5got?5?$CF@ DB 't'
	DB	'otal ENGINE; required %d, got %d.', 0aH, 00H ; `string'
CONST	ENDS
;	COMDAT ??_C@_0CE@GLFDPHCB@total?5WEAPON?$DL?5required?5?$CFd?0?5got?5?$CF@
CONST	SEGMENT
??_C@_0CE@GLFDPHCB@total?5WEAPON?$DL?5required?5?$CFd?0?5got?5?$CF@ DB 't'
	DB	'otal WEAPON; required %d, got %d.', 0aH, 00H ; `string'
CONST	ENDS
;	COMDAT ??_C@_0BO@NCHGCELJ@MAX_SPAWN_POS?$DN?$CFd?0?5we?5got?5?$CFd?4?6?$AA@
CONST	SEGMENT
??_C@_0BO@NCHGCELJ@MAX_SPAWN_POS?$DN?$CFd?0?5we?5got?5?$CFd?4?6?$AA@ DB 'M'
	DB	'AX_SPAWN_POS=%d, we got %d.', 0aH, 00H	; `string'
CONST	ENDS
;	COMDAT ??_C@_0BA@KMCMLBDG@m_nSpawnPos?5?$DO?50?$AA@
CONST	SEGMENT
??_C@_0BA@KMCMLBDG@m_nSpawnPos?5?$DO?50?$AA@ DB 'm_nSpawnPos > 0', 00H ; `string'
CONST	ENDS
;	COMDAT ??_C@_0CN@GGJJMBAJ@nFoundPatches?5?$DN?$DN?5m_nPatchesSQ?5?$CK?5@
CONST	SEGMENT
??_C@_0CN@GGJJMBAJ@nFoundPatches?5?$DN?$DN?5m_nPatchesSQ?5?$CK?5@ DB 'nFo'
	DB	'undPatches == m_nPatchesSQ * m_nPatchesSQ', 00H ; `string'
CONST	ENDS
;	COMDAT ??_C@_0P@HMGOFBJC@m_pfLERPHelper?$AA@
CONST	SEGMENT
??_C@_0P@HMGOFBJC@m_pfLERPHelper?$AA@ DB 'm_pfLERPHelper', 00H ; `string'
; Function compile flags: /Odt /RTCsu /ZI
CONST	ENDS
;	COMDAT ??0CTerrain@@QAE@MPAVCx7@@HHHHHHHMHHIIHHH@Z
_TEXT	SEGMENT
tv2925 = -2432
tv2895 = -2432
tv2918 = -2424
tv2888 = -2424
tv2641 = -2424
tv2632 = -2424
tv3315 = -2416
tv2911 = -2416
tv2881 = -2416
tv2636 = -2416
tv2627 = -2416
tv2596 = -2416
tv1560 = -2416
tv2962 = -2412
tv2959 = -2412
tv2956 = -2412
tv2953 = -2412
tv2950 = -2412
tv1710 = -2412
tv1524 = -2412
tv1062 = -2412
tv803 = -2412
tv636 = -2412
tv280 = -2412
$T94742 = -2401
$T94734 = -2392
$T94730 = -2380
$T94729 = -2368
$T94728 = -2348
$T94725 = -2328
$T94720 = -2308
$T94719 = -2296
$T94718 = -2276
$T94717 = -2252
$T94711 = -2228
$T94710 = -2216
$T94708 = -2204
$T94706 = -2192
$T94704 = -2180
$T94702 = -2168
$T94700 = -2156
$T94698 = -2144
$T94696 = -2132
$T94694 = -2120
$T94692 = -2108
$T94688 = -2096
$T94687 = -2084
$T94686 = -2064
$T94685 = -2044
$T94684 = -2024
$T94683 = -2004
$T94682 = -1984
$T94681 = -1964
$T94680 = -1944
$T94676 = -1924
$T94675 = -1912
$T94674 = -1892
$T94673 = -1872
_x$93957 = -1660
_y$93953 = -1648
_nFoundPatches$ = -1636
_vTL$93928 = -1624
_fHealthPwrUps2Ask4$93892 = -1604
_fWeaponPwrUps2Ask4$93891 = -1592
_fEnginePwrUps2Ask4$93890 = -1580
_fShieldPwrUps2Ask4$93889 = -1568
_fCherries2Ask4$93888 = -1556
_x$93883 = -1544
_y$93879 = -1532
_nPatchesDone$ = -1520
_fPatchSizeSQ$ = -1508
_fHalfRange$ = -1496
_fFullRange$ = -1484
_fEA$93821 = -1472
_fE2$93820 = -1460
_fE1$93819 = -1448
_fSY$93818 = -1436
_fSX$93817 = -1424
_fY$93816 = -1412
_fX$93815 = -1400
_col$93810 = -1388
_row$93806 = -1376
_fIndent$ = -1364
_fDebug$ = -1352
_fMidY$ = -1340
_bBuildFlat$ = -1328
_ulNextRowHeightmapDelta$ = -1316
_m_colHealth$ = -1304
_m_colWeapon$ = -1280
_m_colEngine$ = -1256
_m_colShield$ = -1232
_m_colCherry$ = -1208
_itemLightType$ = -1184
_fItemLightMaxConeAngle$ = -1172
_fSpotlightRange$ = -1160
_fSpotlightAttenuation2$ = -1148
_fSpotlightAttenuation1$ = -1136
_fSpotlightAttenuation0$ = -1124
_fRnd$ = -1112
_i$ = -80
_fReqHealthPwrUpsPerPatch$ = -68
_fReqWeaponPwrUpsPerPatch$ = -56
_fReqEnginePwrUpsPerPatch$ = -44
_fReqShieldPwrUpsPerPatch$ = -32
_fReqCherriesPerPatch$ = -20
_this$ = -8
_fSizeSQ$ = 8
_pX7$ = 12
_nPatchesSQ$ = 16
_nPatchMaxLODSQ$ = 20
_nCherriesReq$ = 24
_nShieldPwrUpsReq$ = 28
_nEnginePwrUpsReq$ = 32
_nWeaponPwrUpsReq$ = 36
_nHealthPwrUpsReq$ = 40
_fMountainFactor$ = 44
_nTex1$ = 48
_nTex2$ = 52
_nNoisePatches1$ = 56
_nNoisePatches2$ = 60
_ColorFactor1$ = 64
_ColorFactor2$ = 68
_ColorFactor3$ = 72
??0CTerrain@@QAE@MPAVCx7@@HHHHHHHMHHIIHHH@Z PROC NEAR	; CTerrain::CTerrain, COMDAT
; _this$ = ecx

; 31   : 	{

  00000	55		 push	 ebp
  00001	8b ec		 mov	 ebp, esp
  00003	81 ec 80 09 00
	00		 sub	 esp, 2432		; 00000980H
  00009	53		 push	 ebx
  0000a	56		 push	 esi
  0000b	57		 push	 edi
  0000c	51		 push	 ecx
  0000d	8d bd 80 f6 ff
	ff		 lea	 edi, DWORD PTR [ebp-2432]
  00013	b9 60 02 00 00	 mov	 ecx, 608		; 00000260H
  00018	b8 cc cc cc cc	 mov	 eax, -858993460		; ccccccccH
  0001d	f3 ab		 rep stosd
  0001f	59		 pop	 ecx
  00020	89 4d f8	 mov	 DWORD PTR _this$[ebp], ecx
  00023	c6 85 9f f6 ff
	ff 00		 mov	 BYTE PTR $T94742[ebp], 0
  0002a	8b 4d f8	 mov	 ecx, DWORD PTR _this$[ebp]
  0002d	81 c1 e4 00 00
	00		 add	 ecx, 228		; 000000e4H
  00033	e8 00 00 00 00	 call	 ??0D3DXCOLOR@@QAE@XZ	; D3DXCOLOR::D3DXCOLOR
  00038	8b 4d f8	 mov	 ecx, DWORD PTR _this$[ebp]
  0003b	81 c1 a4 01 00
	00		 add	 ecx, 420		; 000001a4H
  00041	e8 00 00 00 00	 call	 ??0D3DXCOLOR@@QAE@XZ	; D3DXCOLOR::D3DXCOLOR
  00046	8b 4d f8	 mov	 ecx, DWORD PTR _this$[ebp]
  00049	81 c1 60 02 00
	00		 add	 ecx, 608		; 00000260H
  0004f	e8 00 00 00 00	 call	 ??0D3DXCOLOR@@QAE@XZ	; D3DXCOLOR::D3DXCOLOR
  00054	8b 4d f8	 mov	 ecx, DWORD PTR _this$[ebp]
  00057	81 c1 20 03 00
	00		 add	 ecx, 800		; 00000320H
  0005d	e8 00 00 00 00	 call	 ??0D3DXCOLOR@@QAE@XZ	; D3DXCOLOR::D3DXCOLOR
  00062	8b 4d f8	 mov	 ecx, DWORD PTR _this$[ebp]
  00065	81 c1 e0 03 00
	00		 add	 ecx, 992		; 000003e0H
  0006b	e8 00 00 00 00	 call	 ??0D3DXCOLOR@@QAE@XZ	; D3DXCOLOR::D3DXCOLOR
  00070	8b 4d f8	 mov	 ecx, DWORD PTR _this$[ebp]
  00073	81 c1 6c 04 00
	00		 add	 ecx, 1132		; 0000046cH
  00079	e8 00 00 00 00	 call	 ??0D3DXVECTOR3@@QAE@XZ	; D3DXVECTOR3::D3DXVECTOR3
  0007e	8b 4d f8	 mov	 ecx, DWORD PTR _this$[ebp]
  00081	81 c1 78 04 00
	00		 add	 ecx, 1144		; 00000478H
  00087	e8 00 00 00 00	 call	 ??0D3DXVECTOR3@@QAE@XZ	; D3DXVECTOR3::D3DXVECTOR3
  0008c	68 00 00 00 00	 push	 OFFSET FLAT:??0D3DXVECTOR3@@QAE@XZ ; D3DXVECTOR3::D3DXVECTOR3
  00091	6a 09		 push	 9
  00093	6a 0c		 push	 12			; 0000000cH
  00095	8b 45 f8	 mov	 eax, DWORD PTR _this$[ebp]
  00098	05 8c 04 00 00	 add	 eax, 1164		; 0000048cH
  0009d	50		 push	 eax
  0009e	e8 00 00 00 00	 call	 ??_H@YGXPAXIHP6EPAX0@Z@Z

; 32   : 		float		  fReqCherriesPerPatch ;
; 33   : 		float		  fReqShieldPwrUpsPerPatch ;
; 34   : 		float		  fReqEnginePwrUpsPerPatch ;
; 35   : 		float		  fReqWeaponPwrUpsPerPatch ;
; 36   : 		float		  fReqHealthPwrUpsPerPatch ;
; 37   : 		unsigned long i = 0 ;

  000a3	c7 45 b0 00 00
	00 00		 mov	 DWORD PTR _i$[ebp], 0

; 38   : 		float		  fRnd[ 256 ];
; 39   : 
; 40   : 		m_nCurLOD = 0 ;

  000aa	8b 45 f8	 mov	 eax, DWORD PTR _this$[ebp]
  000ad	c7 00 00 00 00
	00		 mov	 DWORD PTR [eax], 0

; 41   : 
; 42   : 	//
; 43   : 	// Basic Parameters:
; 44   : 	//
; 45   : 		m_nPatchesSQ = nPatchesSQ ;

  000b3	8b 45 f8	 mov	 eax, DWORD PTR _this$[ebp]
  000b6	8b 4d 10	 mov	 ecx, DWORD PTR _nPatchesSQ$[ebp]
  000b9	89 48 08	 mov	 DWORD PTR [eax+8], ecx

; 46   : 		m_nPatchesReqQuadTDepth = Pow2( m_nPatchesSQ );

  000bc	8b 45 f8	 mov	 eax, DWORD PTR _this$[ebp]
  000bf	8b 48 08	 mov	 ecx, DWORD PTR [eax+8]
  000c2	51		 push	 ecx
  000c3	e8 00 00 00 00	 call	 ?Pow2@@YAHH@Z		; Pow2
  000c8	83 c4 04	 add	 esp, 4
  000cb	8b 55 f8	 mov	 edx, DWORD PTR _this$[ebp]
  000ce	89 42 0c	 mov	 DWORD PTR [edx+12], eax

; 47   : 		
; 48   : 		m_nPatchMaxLODSQ = nPatchMaxLODSQ ;

  000d1	8b 45 f8	 mov	 eax, DWORD PTR _this$[ebp]
  000d4	8b 4d 14	 mov	 ecx, DWORD PTR _nPatchMaxLODSQ$[ebp]
  000d7	89 48 10	 mov	 DWORD PTR [eax+16], ecx

; 49   : 		m_nPatchMaxLODLevels = Pow2( m_nPatchMaxLODSQ ) - 1 ;

  000da	8b 45 f8	 mov	 eax, DWORD PTR _this$[ebp]
  000dd	8b 48 10	 mov	 ecx, DWORD PTR [eax+16]
  000e0	51		 push	 ecx
  000e1	e8 00 00 00 00	 call	 ?Pow2@@YAHH@Z		; Pow2
  000e6	83 c4 04	 add	 esp, 4
  000e9	83 e8 01	 sub	 eax, 1
  000ec	8b 55 f8	 mov	 edx, DWORD PTR _this$[ebp]
  000ef	89 42 14	 mov	 DWORD PTR [edx+20], eax

; 50   : 
; 51   : 	//
; 52   : 	// Member initialization:
; 53   : 	//
; 54   : 		m_pQT = NULL ;

  000f2	8b 45 f8	 mov	 eax, DWORD PTR _this$[ebp]
  000f5	c7 80 84 04 00
	00 00 00 00 00	 mov	 DWORD PTR [eax+1156], 0

; 55   : 		m_pX7 = pX7 ;

  000ff	8b 45 f8	 mov	 eax, DWORD PTR _this$[ebp]
  00102	8b 4d 0c	 mov	 ecx, DWORD PTR _pX7$[ebp]
  00105	89 48 04	 mov	 DWORD PTR [eax+4], ecx

; 56   : 		m_dwMem = sizeof(CTerrain) ;

  00108	8b 45 f8	 mov	 eax, DWORD PTR _this$[ebp]
  0010b	c7 80 58 04 00
	00 20 05 00 00	 mov	 DWORD PTR [eax+1112], 1312 ; 00000520H

; 57   : 		m_fLenSQ = fSizeSQ ;

  00115	8b 45 f8	 mov	 eax, DWORD PTR _this$[ebp]
  00118	8b 4d 08	 mov	 ecx, DWORD PTR _fSizeSQ$[ebp]
  0011b	89 48 18	 mov	 DWORD PTR [eax+24], ecx

; 58   : 		
; 59   : 		for( i = 0 ; i < MAX_SPAWN_POS ; i++ )

  0011e	c7 45 b0 00 00
	00 00		 mov	 DWORD PTR _i$[ebp], 0
  00125	eb 09		 jmp	 SHORT $L93697
$L93698:
  00127	8b 45 b0	 mov	 eax, DWORD PTR _i$[ebp]
  0012a	83 c0 01	 add	 eax, 1
  0012d	89 45 b0	 mov	 DWORD PTR _i$[ebp], eax
$L93697:
  00130	83 7d b0 09	 cmp	 DWORD PTR _i$[ebp], 9
  00134	73 33		 jae	 SHORT $L93699

; 60   : 			m_vSpawnPos[ i ] = xVec3( 0.0f, 0.0f, 0.0f );

  00136	6a 00		 push	 0
  00138	6a 00		 push	 0
  0013a	6a 00		 push	 0
  0013c	8d 8d b0 f8 ff
	ff		 lea	 ecx, DWORD PTR $T94673[ebp]
  00142	e8 00 00 00 00	 call	 ??0D3DXVECTOR3@@QAE@MMM@Z ; D3DXVECTOR3::D3DXVECTOR3
  00147	8b 4d b0	 mov	 ecx, DWORD PTR _i$[ebp]
  0014a	6b c9 0c	 imul	 ecx, 12			; 0000000cH
  0014d	8b 55 f8	 mov	 edx, DWORD PTR _this$[ebp]
  00150	8d 8c 0a 8c 04
	00 00		 lea	 ecx, DWORD PTR [edx+ecx+1164]
  00157	8b 10		 mov	 edx, DWORD PTR [eax]
  00159	89 11		 mov	 DWORD PTR [ecx], edx
  0015b	8b 50 04	 mov	 edx, DWORD PTR [eax+4]
  0015e	89 51 04	 mov	 DWORD PTR [ecx+4], edx
  00161	8b 40 08	 mov	 eax, DWORD PTR [eax+8]
  00164	89 41 08	 mov	 DWORD PTR [ecx+8], eax
  00167	eb be		 jmp	 SHORT $L93698
$L93699:

; 61   : 		m_nSpawnPos = 0 ;

  00169	8b 45 f8	 mov	 eax, DWORD PTR _this$[ebp]
  0016c	c7 80 f8 04 00
	00 00 00 00 00	 mov	 DWORD PTR [eax+1272], 0

; 62   : 
; 63   : //return ;
; 64   : 
; 65   : 	//
; 66   : 	// Items stuff:
; 67   : 	//
; 68   : 		float fSpotlightAttenuation0 = 0.0f ;

  00176	c7 85 9c fb ff
	ff 00 00 00 00	 mov	 DWORD PTR _fSpotlightAttenuation0$[ebp], 0

; 69   : 		float fSpotlightAttenuation1 = 0.01f ;	// linear falloff; inversely prop. to vertex distance from light

  00180	c7 85 90 fb ff
	ff 0a d7 23 3c	 mov	 DWORD PTR _fSpotlightAttenuation1$[ebp], 1008981770 ; 3c23d70aH

; 70   : 		float fSpotlightAttenuation2 = 0.0f ;

  0018a	c7 85 84 fb ff
	ff 00 00 00 00	 mov	 DWORD PTR _fSpotlightAttenuation2$[ebp], 0

; 71   : 		float fSpotlightRange = m_fLenSQ / 20.0f ; //sqrtf( FLT_MAX );

  00194	8b 45 f8	 mov	 eax, DWORD PTR _this$[ebp]
  00197	d9 40 18	 fld	 DWORD PTR [eax+24]
  0019a	d8 35 00 00 00
	00		 fdiv	 DWORD PTR __real@41a00000
  001a0	d9 9d 78 fb ff
	ff		 fstp	 DWORD PTR _fSpotlightRange$[ebp]

; 72   : 
; 73   : 		m_pItemSphereMesh = NULL ;

  001a6	8b 45 f8	 mov	 eax, DWORD PTR _this$[ebp]
  001a9	c7 40 24 00 00
	00 00		 mov	 DWORD PTR [eax+36], 0

; 74   : 		SetupSpecularMaterial( &m_mtrlItemSphere, 1.0f, 1.0f, 1.0f, 0.25f );

  001b0	68 00 00 80 3e	 push	 1048576000		; 3e800000H
  001b5	68 00 00 80 3f	 push	 1065353216		; 3f800000H
  001ba	68 00 00 80 3f	 push	 1065353216		; 3f800000H
  001bf	68 00 00 80 3f	 push	 1065353216		; 3f800000H
  001c4	8b 45 f8	 mov	 eax, DWORD PTR _this$[ebp]
  001c7	83 c0 28	 add	 eax, 40			; 00000028H
  001ca	50		 push	 eax
  001cb	e8 00 00 00 00	 call	 ?SetupSpecularMaterial@@YAXPAU_D3DMATERIAL8@@MMMM@Z ; SetupSpecularMaterial
  001d0	83 c4 14	 add	 esp, 20			; 00000014H

; 75   : 
; 76   : 		m_nCherriesReq = nCherriesReq ;

  001d3	8b 45 f8	 mov	 eax, DWORD PTR _this$[ebp]
  001d6	8b 4d 18	 mov	 ecx, DWORD PTR _nCherriesReq$[ebp]
  001d9	89 48 6c	 mov	 DWORD PTR [eax+108], ecx

; 77   : 		m_nCherries = 0 ;

  001dc	8b 45 f8	 mov	 eax, DWORD PTR _this$[ebp]
  001df	c7 40 70 00 00
	00 00		 mov	 DWORD PTR [eax+112], 0

; 78   : 
; 79   : 		m_nShieldPwrUpsReq = nShieldPwrUpsReq ;

  001e6	8b 45 f8	 mov	 eax, DWORD PTR _this$[ebp]
  001e9	8b 4d 1c	 mov	 ecx, DWORD PTR _nShieldPwrUpsReq$[ebp]
  001ec	89 48 74	 mov	 DWORD PTR [eax+116], ecx

; 80   : 		m_nShieldPwrUps = 0 ;

  001ef	8b 45 f8	 mov	 eax, DWORD PTR _this$[ebp]
  001f2	c7 40 78 00 00
	00 00		 mov	 DWORD PTR [eax+120], 0

; 81   : 
; 82   : 		m_nEnginePwrUpsReq = nEnginePwrUpsReq ;

  001f9	8b 45 f8	 mov	 eax, DWORD PTR _this$[ebp]
  001fc	8b 4d 20	 mov	 ecx, DWORD PTR _nEnginePwrUpsReq$[ebp]
  001ff	89 48 7c	 mov	 DWORD PTR [eax+124], ecx

; 83   : 		m_nEnginePwrUps = 0 ;

  00202	8b 45 f8	 mov	 eax, DWORD PTR _this$[ebp]
  00205	c7 80 80 00 00
	00 00 00 00 00	 mov	 DWORD PTR [eax+128], 0

; 84   : 
; 85   : 		m_nWeaponPwrUpsReq = nWeaponPwrUpsReq ;

  0020f	8b 45 f8	 mov	 eax, DWORD PTR _this$[ebp]
  00212	8b 4d 24	 mov	 ecx, DWORD PTR _nWeaponPwrUpsReq$[ebp]
  00215	89 88 84 00 00
	00		 mov	 DWORD PTR [eax+132], ecx

; 86   : 		m_nWeaponPwrUps = 0 ;

  0021b	8b 45 f8	 mov	 eax, DWORD PTR _this$[ebp]
  0021e	c7 80 88 00 00
	00 00 00 00 00	 mov	 DWORD PTR [eax+136], 0

; 87   : 
; 88   : 		m_nHealthPwrUpsReq = nHealthPwrUpsReq ;

  00228	8b 45 f8	 mov	 eax, DWORD PTR _this$[ebp]
  0022b	8b 4d 28	 mov	 ecx, DWORD PTR _nHealthPwrUpsReq$[ebp]
  0022e	89 88 8c 00 00
	00		 mov	 DWORD PTR [eax+140], ecx

; 89   : 		m_nHealthPwrUps = 0 ;

  00234	8b 45 f8	 mov	 eax, DWORD PTR _this$[ebp]
  00237	c7 80 90 00 00
	00 00 00 00 00	 mov	 DWORD PTR [eax+144], 0

; 90   : 
; 91   : 		float fItemLightMaxConeAngle = g_PI * 1.0f ;

  00241	d9 05 00 00 00
	00		 fld	 DWORD PTR _g_PI
  00247	d8 0d 00 00 00
	00		 fmul	 DWORD PTR __real@3f800000
  0024d	d9 9d 6c fb ff
	ff		 fstp	 DWORD PTR _fItemLightMaxConeAngle$[ebp]

; 92   : 
; 93   : 
; 94   : 		D3DLIGHTTYPE itemLightType = D3DLIGHT_SPOT ;

  00253	c7 85 60 fb ff
	ff 02 00 00 00	 mov	 DWORD PTR _itemLightType$[ebp], 2

; 95   : 
; 96   : 	//
; 97   : 	// Cherry Item stuff:
; 98   : 	//
; 99   : 		D3DXCOLOR m_colCherry = D3DXCOLOR( 1.0f, 0.0f, 1.0f, 1.0f );

  0025d	68 00 00 80 3f	 push	 1065353216		; 3f800000H
  00262	68 00 00 80 3f	 push	 1065353216		; 3f800000H
  00267	6a 00		 push	 0
  00269	68 00 00 80 3f	 push	 1065353216		; 3f800000H
  0026e	8d 8d 48 fb ff
	ff		 lea	 ecx, DWORD PTR _m_colCherry$[ebp]
  00274	e8 00 00 00 00	 call	 ??0D3DXCOLOR@@QAE@MMMM@Z ; D3DXCOLOR::D3DXCOLOR

; 100  : 		SetupSpecularMaterial( &m_mtrlCherry, m_colCherry.r, m_colCherry.g, m_colCherry.b, 1.0f );

  00279	68 00 00 80 3f	 push	 1065353216		; 3f800000H
  0027e	8b 85 50 fb ff
	ff		 mov	 eax, DWORD PTR _m_colCherry$[ebp+8]
  00284	50		 push	 eax
  00285	8b 8d 4c fb ff
	ff		 mov	 ecx, DWORD PTR _m_colCherry$[ebp+4]
  0028b	51		 push	 ecx
  0028c	8b 95 48 fb ff
	ff		 mov	 edx, DWORD PTR _m_colCherry$[ebp]
  00292	52		 push	 edx
  00293	8b 45 f8	 mov	 eax, DWORD PTR _this$[ebp]
  00296	05 a0 00 00 00	 add	 eax, 160		; 000000a0H
  0029b	50		 push	 eax
  0029c	e8 00 00 00 00	 call	 ?SetupSpecularMaterial@@YAXPAU_D3DMATERIAL8@@MMMM@Z ; SetupSpecularMaterial
  002a1	83 c4 14	 add	 esp, 20			; 00000014H

; 101  : 		ZeroMemory(&m_litCherry, sizeof(D3DLIGHT8)) ;

  002a4	6a 68		 push	 104			; 00000068H
  002a6	6a 00		 push	 0
  002a8	8b 45 f8	 mov	 eax, DWORD PTR _this$[ebp]
  002ab	05 f4 00 00 00	 add	 eax, 244		; 000000f4H
  002b0	50		 push	 eax
  002b1	e8 00 00 00 00	 call	 _memset
  002b6	83 c4 0c	 add	 esp, 12			; 0000000cH

; 102  : 		m_litCherry.Type         = itemLightType ;

  002b9	8b 45 f8	 mov	 eax, DWORD PTR _this$[ebp]
  002bc	8b 8d 60 fb ff
	ff		 mov	 ecx, DWORD PTR _itemLightType$[ebp]
  002c2	89 88 f4 00 00
	00		 mov	 DWORD PTR [eax+244], ecx

; 103  : 		m_litCherry.Diffuse.r	 = m_litCherry.Ambient.r = m_litCherry.Specular.r = m_colCherry.r ;

  002c8	8b 45 f8	 mov	 eax, DWORD PTR _this$[ebp]
  002cb	8b 8d 48 fb ff
	ff		 mov	 ecx, DWORD PTR _m_colCherry$[ebp]
  002d1	89 88 08 01 00
	00		 mov	 DWORD PTR [eax+264], ecx
  002d7	8b 55 f8	 mov	 edx, DWORD PTR _this$[ebp]
  002da	8b 85 48 fb ff
	ff		 mov	 eax, DWORD PTR _m_colCherry$[ebp]
  002e0	89 82 18 01 00
	00		 mov	 DWORD PTR [edx+280], eax
  002e6	8b 4d f8	 mov	 ecx, DWORD PTR _this$[ebp]
  002e9	8b 95 48 fb ff
	ff		 mov	 edx, DWORD PTR _m_colCherry$[ebp]
  002ef	89 91 f8 00 00
	00		 mov	 DWORD PTR [ecx+248], edx

; 104  : 		m_litCherry.Diffuse.g	 = m_litCherry.Ambient.g = m_litCherry.Specular.g = m_colCherry.g ;

  002f5	8b 45 f8	 mov	 eax, DWORD PTR _this$[ebp]
  002f8	8b 8d 4c fb ff
	ff		 mov	 ecx, DWORD PTR _m_colCherry$[ebp+4]
  002fe	89 88 0c 01 00
	00		 mov	 DWORD PTR [eax+268], ecx
  00304	8b 55 f8	 mov	 edx, DWORD PTR _this$[ebp]
  00307	8b 85 4c fb ff
	ff		 mov	 eax, DWORD PTR _m_colCherry$[ebp+4]
  0030d	89 82 1c 01 00
	00		 mov	 DWORD PTR [edx+284], eax
  00313	8b 4d f8	 mov	 ecx, DWORD PTR _this$[ebp]
  00316	8b 95 4c fb ff
	ff		 mov	 edx, DWORD PTR _m_colCherry$[ebp+4]
  0031c	89 91 fc 00 00
	00		 mov	 DWORD PTR [ecx+252], edx

; 105  : 		m_litCherry.Diffuse.b    = m_litCherry.Ambient.b = m_litCherry.Specular.b = m_colCherry.b ;

  00322	8b 45 f8	 mov	 eax, DWORD PTR _this$[ebp]
  00325	8b 8d 50 fb ff
	ff		 mov	 ecx, DWORD PTR _m_colCherry$[ebp+8]
  0032b	89 88 10 01 00
	00		 mov	 DWORD PTR [eax+272], ecx
  00331	8b 55 f8	 mov	 edx, DWORD PTR _this$[ebp]
  00334	8b 85 50 fb ff
	ff		 mov	 eax, DWORD PTR _m_colCherry$[ebp+8]
  0033a	89 82 20 01 00
	00		 mov	 DWORD PTR [edx+288], eax
  00340	8b 4d f8	 mov	 ecx, DWORD PTR _this$[ebp]
  00343	8b 95 50 fb ff
	ff		 mov	 edx, DWORD PTR _m_colCherry$[ebp+8]
  00349	89 91 00 01 00
	00		 mov	 DWORD PTR [ecx+256], edx

; 106  : 		//m_litCherry.Specular.r   = m_litCherry.Specular.g =	m_litCherry.Specular.b = 1 ;
; 107  : 		m_litCherry.Position     = D3DXVECTOR3( 0,0,0 );

  0034f	6a 00		 push	 0
  00351	6a 00		 push	 0
  00353	6a 00		 push	 0
  00355	8d 8d 9c f8 ff
	ff		 lea	 ecx, DWORD PTR $T94674[ebp]
  0035b	e8 00 00 00 00	 call	 ??0D3DXVECTOR3@@QAE@MMM@Z ; D3DXVECTOR3::D3DXVECTOR3
  00360	8b 4d f8	 mov	 ecx, DWORD PTR _this$[ebp]
  00363	81 c1 28 01 00
	00		 add	 ecx, 296		; 00000128H
  00369	8b 10		 mov	 edx, DWORD PTR [eax]
  0036b	89 11		 mov	 DWORD PTR [ecx], edx
  0036d	8b 50 04	 mov	 edx, DWORD PTR [eax+4]
  00370	89 51 04	 mov	 DWORD PTR [ecx+4], edx
  00373	8b 40 08	 mov	 eax, DWORD PTR [eax+8]
  00376	89 41 08	 mov	 DWORD PTR [ecx+8], eax

; 108  : 		D3DXVec3Normalize( (xVec3*)&m_litCherry.Direction, &xVec3( 0.0f, -1.0f, 0.0f ) );

  00379	6a 00		 push	 0
  0037b	68 00 00 80 bf	 push	 -1082130432		; bf800000H
  00380	6a 00		 push	 0
  00382	8d 8d 88 f8 ff
	ff		 lea	 ecx, DWORD PTR $T94675[ebp]
  00388	e8 00 00 00 00	 call	 ??0D3DXVECTOR3@@QAE@MMM@Z ; D3DXVECTOR3::D3DXVECTOR3
  0038d	50		 push	 eax
  0038e	8b 45 f8	 mov	 eax, DWORD PTR _this$[ebp]
  00391	05 34 01 00 00	 add	 eax, 308		; 00000134H
  00396	50		 push	 eax
  00397	e8 00 00 00 00	 call	 _D3DXVec3Normalize@8

; 109  : 		m_litCherry.Attenuation0 = fSpotlightAttenuation0 ;

  0039c	8b 45 f8	 mov	 eax, DWORD PTR _this$[ebp]
  0039f	8b 8d 9c fb ff
	ff		 mov	 ecx, DWORD PTR _fSpotlightAttenuation0$[ebp]
  003a5	89 88 48 01 00
	00		 mov	 DWORD PTR [eax+328], ecx

; 110  : 		m_litCherry.Attenuation1 = fSpotlightAttenuation1 ;

  003ab	8b 45 f8	 mov	 eax, DWORD PTR _this$[ebp]
  003ae	8b 8d 90 fb ff
	ff		 mov	 ecx, DWORD PTR _fSpotlightAttenuation1$[ebp]
  003b4	89 88 4c 01 00
	00		 mov	 DWORD PTR [eax+332], ecx

; 111  : 		m_litCherry.Attenuation2 = fSpotlightAttenuation2 ;

  003ba	8b 45 f8	 mov	 eax, DWORD PTR _this$[ebp]
  003bd	8b 8d 84 fb ff
	ff		 mov	 ecx, DWORD PTR _fSpotlightAttenuation2$[ebp]
  003c3	89 88 50 01 00
	00		 mov	 DWORD PTR [eax+336], ecx

; 112  : 		m_litCherry.Falloff		 = 1.0f ;

  003c9	8b 45 f8	 mov	 eax, DWORD PTR _this$[ebp]
  003cc	c7 80 44 01 00
	00 00 00 80 3f	 mov	 DWORD PTR [eax+324], 1065353216 ; 3f800000H

; 113  : 		m_litCherry.Theta		 = g_PI / 50.0f ; ;

  003d6	d9 05 00 00 00
	00		 fld	 DWORD PTR _g_PI
  003dc	d8 35 00 00 00
	00		 fdiv	 DWORD PTR __real@42480000
  003e2	8b 45 f8	 mov	 eax, DWORD PTR _this$[ebp]
  003e5	d9 98 54 01 00
	00		 fstp	 DWORD PTR [eax+340]

; 114  : 		m_litCherry.Phi			 = fItemLightMaxConeAngle ;

  003eb	8b 45 f8	 mov	 eax, DWORD PTR _this$[ebp]
  003ee	8b 8d 6c fb ff
	ff		 mov	 ecx, DWORD PTR _fItemLightMaxConeAngle$[ebp]
  003f4	89 88 58 01 00
	00		 mov	 DWORD PTR [eax+344], ecx

; 115  : 		m_litCherry.Range        = fSpotlightRange ;

  003fa	8b 45 f8	 mov	 eax, DWORD PTR _this$[ebp]
  003fd	8b 8d 78 fb ff
	ff		 mov	 ecx, DWORD PTR _fSpotlightRange$[ebp]
  00403	89 88 40 01 00
	00		 mov	 DWORD PTR [eax+320], ecx

; 116  : 
; 117  : 		m_pCherry = NULL ;

  00409	8b 45 f8	 mov	 eax, DWORD PTR _this$[ebp]
  0040c	c7 80 9c 00 00
	00 00 00 00 00	 mov	 DWORD PTR [eax+156], 0

; 118  : #ifdef LOAD_RES_FROM_FILE
; 119  : 		m_pCherry = new CFileRenderObject( "..\\resource\\mod0\\cherry.x", 0, NULL );

  00416	68 1c 01 00 00	 push	 284			; 0000011cH
  0041b	e8 00 00 00 00	 call	 ??2@YAPAXI@Z		; operator new
  00420	83 c4 04	 add	 esp, 4
  00423	89 85 7c f8 ff
	ff		 mov	 DWORD PTR $T94676[ebp], eax
  00429	83 bd 7c f8 ff
	ff 00		 cmp	 DWORD PTR $T94676[ebp], 0
  00430	74 1c		 je	 SHORT $L94677
  00432	6a 00		 push	 0
  00434	6a 00		 push	 0
  00436	68 00 00 00 00	 push	 OFFSET FLAT:??_C@_0BK@GLHNKMHC@?4?4?2resource?2mod0?2cherry?4x?$AA@
  0043b	8b 8d 7c f8 ff
	ff		 mov	 ecx, DWORD PTR $T94676[ebp]
  00441	e8 00 00 00 00	 call	 ??0CFileRenderObject@@QAE@PADHPAURENDER_DATA_INFO@0@@Z ; CFileRenderObject::CFileRenderObject
  00446	89 85 94 f6 ff
	ff		 mov	 DWORD PTR tv280[ebp], eax
  0044c	eb 0a		 jmp	 SHORT $L94678
$L94677:
  0044e	c7 85 94 f6 ff
	ff 00 00 00 00	 mov	 DWORD PTR tv280[ebp], 0
$L94678:
  00458	8b 45 f8	 mov	 eax, DWORD PTR _this$[ebp]
  0045b	8b 8d 94 f6 ff
	ff		 mov	 ecx, DWORD PTR tv280[ebp]
  00461	89 88 9c 00 00
	00		 mov	 DWORD PTR [eax+156], ecx

; 120  : #else
; 121  : 		m_pCherry = new CFileRenderObject( NULL, IDR_X_CHERRY );
; 122  : #endif
; 123  : 		assert( m_pCherry );

  00467	8b 45 f8	 mov	 eax, DWORD PTR _this$[ebp]
  0046a	83 b8 9c 00 00
	00 00		 cmp	 DWORD PTR [eax+156], 0
  00471	75 1c		 jne	 SHORT $L94679
  00473	8b 0d 00 00 00
	00		 mov	 ecx, DWORD PTR ?__LINE__Var@?1???0CTerrain@@QAE@MPAVCx7@@HHHHHHHMHHIIHHH@Z@4JA
  00479	83 c1 5c	 add	 ecx, 92			; 0000005cH
  0047c	51		 push	 ecx
  0047d	68 00 00 00 00	 push	 OFFSET FLAT:??_C@_0EK@KKPMANGB@c?3?2documents?5and?5settings?2dom?2my@
  00482	68 00 00 00 00	 push	 OFFSET FLAT:??_C@_09JBPPALAG@m_pCherry?$AA@
  00487	e8 00 00 00 00	 call	 __assert
  0048c	83 c4 0c	 add	 esp, 12			; 0000000cH
$L94679:

; 124  : 
; 125  : 
; 126  : 	//
; 127  : 	// Shield Item stuff:
; 128  : 	//
; 129  : 		D3DXCOLOR m_colShield = D3DXCOLOR( 0.0f, 0.0f, 1.0f, 1.0f );

  0048f	68 00 00 80 3f	 push	 1065353216		; 3f800000H
  00494	68 00 00 80 3f	 push	 1065353216		; 3f800000H
  00499	6a 00		 push	 0
  0049b	6a 00		 push	 0
  0049d	8d 8d 30 fb ff
	ff		 lea	 ecx, DWORD PTR _m_colShield$[ebp]
  004a3	e8 00 00 00 00	 call	 ??0D3DXCOLOR@@QAE@MMMM@Z ; D3DXCOLOR::D3DXCOLOR

; 130  : 		SetupSpecularMaterial( &m_mtrlShield, m_colShield.r, m_colShield.g, m_colShield.b, 0.5f );

  004a8	68 00 00 00 3f	 push	 1056964608		; 3f000000H
  004ad	8b 85 38 fb ff
	ff		 mov	 eax, DWORD PTR _m_colShield$[ebp+8]
  004b3	50		 push	 eax
  004b4	8b 8d 34 fb ff
	ff		 mov	 ecx, DWORD PTR _m_colShield$[ebp+4]
  004ba	51		 push	 ecx
  004bb	8b 95 30 fb ff
	ff		 mov	 edx, DWORD PTR _m_colShield$[ebp]
  004c1	52		 push	 edx
  004c2	8b 45 f8	 mov	 eax, DWORD PTR _this$[ebp]
  004c5	05 60 01 00 00	 add	 eax, 352		; 00000160H
  004ca	50		 push	 eax
  004cb	e8 00 00 00 00	 call	 ?SetupSpecularMaterial@@YAXPAU_D3DMATERIAL8@@MMMM@Z ; SetupSpecularMaterial
  004d0	83 c4 14	 add	 esp, 20			; 00000014H

; 131  : 		ZeroMemory( &m_litShield, sizeof(D3DLIGHT8) );

  004d3	6a 68		 push	 104			; 00000068H
  004d5	6a 00		 push	 0
  004d7	8b 45 f8	 mov	 eax, DWORD PTR _this$[ebp]
  004da	05 b4 01 00 00	 add	 eax, 436		; 000001b4H
  004df	50		 push	 eax
  004e0	e8 00 00 00 00	 call	 _memset
  004e5	83 c4 0c	 add	 esp, 12			; 0000000cH

; 132  : 		m_litShield.Type         = itemLightType ;

  004e8	8b 45 f8	 mov	 eax, DWORD PTR _this$[ebp]
  004eb	8b 8d 60 fb ff
	ff		 mov	 ecx, DWORD PTR _itemLightType$[ebp]
  004f1	89 88 b4 01 00
	00		 mov	 DWORD PTR [eax+436], ecx

; 133  : 		m_litShield.Diffuse.r	 = m_litShield.Ambient.r = m_litShield.Specular.r = m_colShield.r ;

  004f7	8b 45 f8	 mov	 eax, DWORD PTR _this$[ebp]
  004fa	8b 8d 30 fb ff
	ff		 mov	 ecx, DWORD PTR _m_colShield$[ebp]
  00500	89 88 c8 01 00
	00		 mov	 DWORD PTR [eax+456], ecx
  00506	8b 55 f8	 mov	 edx, DWORD PTR _this$[ebp]
  00509	8b 85 30 fb ff
	ff		 mov	 eax, DWORD PTR _m_colShield$[ebp]
  0050f	89 82 d8 01 00
	00		 mov	 DWORD PTR [edx+472], eax
  00515	8b 4d f8	 mov	 ecx, DWORD PTR _this$[ebp]
  00518	8b 95 30 fb ff
	ff		 mov	 edx, DWORD PTR _m_colShield$[ebp]
  0051e	89 91 b8 01 00
	00		 mov	 DWORD PTR [ecx+440], edx

; 134  : 		m_litShield.Diffuse.g	 = m_litShield.Ambient.g = m_litShield.Specular.g = m_colShield.g ;

  00524	8b 45 f8	 mov	 eax, DWORD PTR _this$[ebp]
  00527	8b 8d 34 fb ff
	ff		 mov	 ecx, DWORD PTR _m_colShield$[ebp+4]
  0052d	89 88 cc 01 00
	00		 mov	 DWORD PTR [eax+460], ecx
  00533	8b 55 f8	 mov	 edx, DWORD PTR _this$[ebp]
  00536	8b 85 34 fb ff
	ff		 mov	 eax, DWORD PTR _m_colShield$[ebp+4]
  0053c	89 82 dc 01 00
	00		 mov	 DWORD PTR [edx+476], eax
  00542	8b 4d f8	 mov	 ecx, DWORD PTR _this$[ebp]
  00545	8b 95 34 fb ff
	ff		 mov	 edx, DWORD PTR _m_colShield$[ebp+4]
  0054b	89 91 bc 01 00
	00		 mov	 DWORD PTR [ecx+444], edx

; 135  : 		m_litShield.Diffuse.b    = m_litShield.Ambient.b = m_litShield.Specular.b = m_colShield.b ;

  00551	8b 45 f8	 mov	 eax, DWORD PTR _this$[ebp]
  00554	8b 8d 38 fb ff
	ff		 mov	 ecx, DWORD PTR _m_colShield$[ebp+8]
  0055a	89 88 d0 01 00
	00		 mov	 DWORD PTR [eax+464], ecx
  00560	8b 55 f8	 mov	 edx, DWORD PTR _this$[ebp]
  00563	8b 85 38 fb ff
	ff		 mov	 eax, DWORD PTR _m_colShield$[ebp+8]
  00569	89 82 e0 01 00
	00		 mov	 DWORD PTR [edx+480], eax
  0056f	8b 4d f8	 mov	 ecx, DWORD PTR _this$[ebp]
  00572	8b 95 38 fb ff
	ff		 mov	 edx, DWORD PTR _m_colShield$[ebp+8]
  00578	89 91 c0 01 00
	00		 mov	 DWORD PTR [ecx+448], edx

; 136  : 		//m_litShield.Specular.r   = m_litShield.Specular.g =	m_litShield.Specular.b = 1 ;
; 137  : 		m_litShield.Position     = D3DXVECTOR3( 0, 0, 0 );

  0057e	6a 00		 push	 0
  00580	6a 00		 push	 0
  00582	6a 00		 push	 0
  00584	8d 8d 68 f8 ff
	ff		 lea	 ecx, DWORD PTR $T94680[ebp]
  0058a	e8 00 00 00 00	 call	 ??0D3DXVECTOR3@@QAE@MMM@Z ; D3DXVECTOR3::D3DXVECTOR3
  0058f	8b 4d f8	 mov	 ecx, DWORD PTR _this$[ebp]
  00592	81 c1 e8 01 00
	00		 add	 ecx, 488		; 000001e8H
  00598	8b 10		 mov	 edx, DWORD PTR [eax]
  0059a	89 11		 mov	 DWORD PTR [ecx], edx
  0059c	8b 50 04	 mov	 edx, DWORD PTR [eax+4]
  0059f	89 51 04	 mov	 DWORD PTR [ecx+4], edx
  005a2	8b 40 08	 mov	 eax, DWORD PTR [eax+8]
  005a5	89 41 08	 mov	 DWORD PTR [ecx+8], eax

; 138  : 		D3DXVec3Normalize( (xVec3*)&m_litShield.Direction, &xVec3( 0.0f, -1.0f, 0.0f ) );

  005a8	6a 00		 push	 0
  005aa	68 00 00 80 bf	 push	 -1082130432		; bf800000H
  005af	6a 00		 push	 0
  005b1	8d 8d 54 f8 ff
	ff		 lea	 ecx, DWORD PTR $T94681[ebp]
  005b7	e8 00 00 00 00	 call	 ??0D3DXVECTOR3@@QAE@MMM@Z ; D3DXVECTOR3::D3DXVECTOR3
  005bc	50		 push	 eax
  005bd	8b 45 f8	 mov	 eax, DWORD PTR _this$[ebp]
  005c0	05 f4 01 00 00	 add	 eax, 500		; 000001f4H
  005c5	50		 push	 eax
  005c6	e8 00 00 00 00	 call	 _D3DXVec3Normalize@8

; 139  : 		m_litShield.Attenuation0 = fSpotlightAttenuation0 ;

  005cb	8b 45 f8	 mov	 eax, DWORD PTR _this$[ebp]
  005ce	8b 8d 9c fb ff
	ff		 mov	 ecx, DWORD PTR _fSpotlightAttenuation0$[ebp]
  005d4	89 88 08 02 00
	00		 mov	 DWORD PTR [eax+520], ecx

; 140  : 		m_litShield.Attenuation1 = fSpotlightAttenuation1 ;

  005da	8b 45 f8	 mov	 eax, DWORD PTR _this$[ebp]
  005dd	8b 8d 90 fb ff
	ff		 mov	 ecx, DWORD PTR _fSpotlightAttenuation1$[ebp]
  005e3	89 88 0c 02 00
	00		 mov	 DWORD PTR [eax+524], ecx

; 141  : 		m_litShield.Attenuation2 = fSpotlightAttenuation2 ;

  005e9	8b 45 f8	 mov	 eax, DWORD PTR _this$[ebp]
  005ec	8b 8d 84 fb ff
	ff		 mov	 ecx, DWORD PTR _fSpotlightAttenuation2$[ebp]
  005f2	89 88 10 02 00
	00		 mov	 DWORD PTR [eax+528], ecx

; 142  : 		m_litShield.Falloff		 = 1.0f ;

  005f8	8b 45 f8	 mov	 eax, DWORD PTR _this$[ebp]
  005fb	c7 80 04 02 00
	00 00 00 80 3f	 mov	 DWORD PTR [eax+516], 1065353216 ; 3f800000H

; 143  : 		m_litShield.Theta		 = g_PI / 50.0f ;

  00605	d9 05 00 00 00
	00		 fld	 DWORD PTR _g_PI
  0060b	d8 35 00 00 00
	00		 fdiv	 DWORD PTR __real@42480000
  00611	8b 45 f8	 mov	 eax, DWORD PTR _this$[ebp]
  00614	d9 98 14 02 00
	00		 fstp	 DWORD PTR [eax+532]

; 144  : 		m_litShield.Phi			 = fItemLightMaxConeAngle ;

  0061a	8b 45 f8	 mov	 eax, DWORD PTR _this$[ebp]
  0061d	8b 8d 6c fb ff
	ff		 mov	 ecx, DWORD PTR _fItemLightMaxConeAngle$[ebp]
  00623	89 88 18 02 00
	00		 mov	 DWORD PTR [eax+536], ecx

; 145  : 		m_litShield.Range        = fSpotlightRange ;

  00629	8b 45 f8	 mov	 eax, DWORD PTR _this$[ebp]
  0062c	8b 8d 78 fb ff
	ff		 mov	 ecx, DWORD PTR _fSpotlightRange$[ebp]
  00632	89 88 00 02 00
	00		 mov	 DWORD PTR [eax+512], ecx

; 146  : 		m_pShield = NULL ;

  00638	8b 45 f8	 mov	 eax, DWORD PTR _this$[ebp]
  0063b	c7 80 5c 01 00
	00 00 00 00 00	 mov	 DWORD PTR [eax+348], 0

; 147  : #ifdef LOAD_RES_FROM_FILE
; 148  : 		//m_pShield = new CFileRenderObject( "..\\resource\\mod0\\cherry.x", 0, NULL );
; 149  : #else
; 150  : 		//TODO...
; 151  : #endif
; 152  : 		//assert( m_pShield );
; 153  : 
; 154  : 	//
; 155  : 	// Engine Item stuff:
; 156  : 	//
; 157  : 		D3DXCOLOR m_colEngine = D3DXCOLOR( 0.0f, 1.0f, 0.0f, 1.0f );

  00645	68 00 00 80 3f	 push	 1065353216		; 3f800000H
  0064a	6a 00		 push	 0
  0064c	68 00 00 80 3f	 push	 1065353216		; 3f800000H
  00651	6a 00		 push	 0
  00653	8d 8d 18 fb ff
	ff		 lea	 ecx, DWORD PTR _m_colEngine$[ebp]
  00659	e8 00 00 00 00	 call	 ??0D3DXCOLOR@@QAE@MMMM@Z ; D3DXCOLOR::D3DXCOLOR

; 158  : 		SetupSpecularMaterial( &m_mtrlEngine, m_colEngine.r, m_colEngine.g, m_colEngine.b, 0.5f );

  0065e	68 00 00 00 3f	 push	 1056964608		; 3f000000H
  00663	8b 85 20 fb ff
	ff		 mov	 eax, DWORD PTR _m_colEngine$[ebp+8]
  00669	50		 push	 eax
  0066a	8b 8d 1c fb ff
	ff		 mov	 ecx, DWORD PTR _m_colEngine$[ebp+4]
  00670	51		 push	 ecx
  00671	8b 95 18 fb ff
	ff		 mov	 edx, DWORD PTR _m_colEngine$[ebp]
  00677	52		 push	 edx
  00678	8b 45 f8	 mov	 eax, DWORD PTR _this$[ebp]
  0067b	05 1c 02 00 00	 add	 eax, 540		; 0000021cH
  00680	50		 push	 eax
  00681	e8 00 00 00 00	 call	 ?SetupSpecularMaterial@@YAXPAU_D3DMATERIAL8@@MMMM@Z ; SetupSpecularMaterial
  00686	83 c4 14	 add	 esp, 20			; 00000014H

; 159  : 		ZeroMemory( &m_litEngine, sizeof(D3DLIGHT8) );

  00689	6a 68		 push	 104			; 00000068H
  0068b	6a 00		 push	 0
  0068d	8b 45 f8	 mov	 eax, DWORD PTR _this$[ebp]
  00690	05 70 02 00 00	 add	 eax, 624		; 00000270H
  00695	50		 push	 eax
  00696	e8 00 00 00 00	 call	 _memset
  0069b	83 c4 0c	 add	 esp, 12			; 0000000cH

; 160  : 		m_litEngine.Type         = itemLightType ;

  0069e	8b 45 f8	 mov	 eax, DWORD PTR _this$[ebp]
  006a1	8b 8d 60 fb ff
	ff		 mov	 ecx, DWORD PTR _itemLightType$[ebp]
  006a7	89 88 70 02 00
	00		 mov	 DWORD PTR [eax+624], ecx

; 161  : 		m_litEngine.Diffuse.r	 = m_litEngine.Ambient.r = m_litEngine.Specular.r = m_colEngine.r ;

  006ad	8b 45 f8	 mov	 eax, DWORD PTR _this$[ebp]
  006b0	8b 8d 18 fb ff
	ff		 mov	 ecx, DWORD PTR _m_colEngine$[ebp]
  006b6	89 88 84 02 00
	00		 mov	 DWORD PTR [eax+644], ecx
  006bc	8b 55 f8	 mov	 edx, DWORD PTR _this$[ebp]
  006bf	8b 85 18 fb ff
	ff		 mov	 eax, DWORD PTR _m_colEngine$[ebp]
  006c5	89 82 94 02 00
	00		 mov	 DWORD PTR [edx+660], eax
  006cb	8b 4d f8	 mov	 ecx, DWORD PTR _this$[ebp]
  006ce	8b 95 18 fb ff
	ff		 mov	 edx, DWORD PTR _m_colEngine$[ebp]
  006d4	89 91 74 02 00
	00		 mov	 DWORD PTR [ecx+628], edx

; 162  : 		m_litEngine.Diffuse.g	 = m_litEngine.Ambient.g = m_litEngine.Specular.g = m_colEngine.g ;

  006da	8b 45 f8	 mov	 eax, DWORD PTR _this$[ebp]
  006dd	8b 8d 1c fb ff
	ff		 mov	 ecx, DWORD PTR _m_colEngine$[ebp+4]
  006e3	89 88 88 02 00
	00		 mov	 DWORD PTR [eax+648], ecx
  006e9	8b 55 f8	 mov	 edx, DWORD PTR _this$[ebp]
  006ec	8b 85 1c fb ff
	ff		 mov	 eax, DWORD PTR _m_colEngine$[ebp+4]
  006f2	89 82 98 02 00
	00		 mov	 DWORD PTR [edx+664], eax
  006f8	8b 4d f8	 mov	 ecx, DWORD PTR _this$[ebp]
  006fb	8b 95 1c fb ff
	ff		 mov	 edx, DWORD PTR _m_colEngine$[ebp+4]
  00701	89 91 78 02 00
	00		 mov	 DWORD PTR [ecx+632], edx

; 163  : 		m_litEngine.Diffuse.b    = m_litEngine.Ambient.b = m_litEngine.Specular.b = m_colEngine.b ;

  00707	8b 45 f8	 mov	 eax, DWORD PTR _this$[ebp]
  0070a	8b 8d 20 fb ff
	ff		 mov	 ecx, DWORD PTR _m_colEngine$[ebp+8]
  00710	89 88 8c 02 00
	00		 mov	 DWORD PTR [eax+652], ecx
  00716	8b 55 f8	 mov	 edx, DWORD PTR _this$[ebp]
  00719	8b 85 20 fb ff
	ff		 mov	 eax, DWORD PTR _m_colEngine$[ebp+8]
  0071f	89 82 9c 02 00
	00		 mov	 DWORD PTR [edx+668], eax
  00725	8b 4d f8	 mov	 ecx, DWORD PTR _this$[ebp]
  00728	8b 95 20 fb ff
	ff		 mov	 edx, DWORD PTR _m_colEngine$[ebp+8]
  0072e	89 91 7c 02 00
	00		 mov	 DWORD PTR [ecx+636], edx

; 164  : 		//m_litEngine.Specular.r   = m_litEngine.Specular.g =	m_litEngine.Specular.b = 1 ;
; 165  : 		m_litEngine.Position     = D3DXVECTOR3( 0, 0, 0 );

  00734	6a 00		 push	 0
  00736	6a 00		 push	 0
  00738	6a 00		 push	 0
  0073a	8d 8d 40 f8 ff
	ff		 lea	 ecx, DWORD PTR $T94682[ebp]
  00740	e8 00 00 00 00	 call	 ??0D3DXVECTOR3@@QAE@MMM@Z ; D3DXVECTOR3::D3DXVECTOR3
  00745	8b 4d f8	 mov	 ecx, DWORD PTR _this$[ebp]
  00748	81 c1 a4 02 00
	00		 add	 ecx, 676		; 000002a4H
  0074e	8b 10		 mov	 edx, DWORD PTR [eax]
  00750	89 11		 mov	 DWORD PTR [ecx], edx
  00752	8b 50 04	 mov	 edx, DWORD PTR [eax+4]
  00755	89 51 04	 mov	 DWORD PTR [ecx+4], edx
  00758	8b 40 08	 mov	 eax, DWORD PTR [eax+8]
  0075b	89 41 08	 mov	 DWORD PTR [ecx+8], eax

; 166  : 		D3DXVec3Normalize( (xVec3*)&m_litEngine.Direction, &xVec3( 0.0f, -1.0f, 0.0f ) );

  0075e	6a 00		 push	 0
  00760	68 00 00 80 bf	 push	 -1082130432		; bf800000H
  00765	6a 00		 push	 0
  00767	8d 8d 2c f8 ff
	ff		 lea	 ecx, DWORD PTR $T94683[ebp]
  0076d	e8 00 00 00 00	 call	 ??0D3DXVECTOR3@@QAE@MMM@Z ; D3DXVECTOR3::D3DXVECTOR3
  00772	50		 push	 eax
  00773	8b 45 f8	 mov	 eax, DWORD PTR _this$[ebp]
  00776	05 b0 02 00 00	 add	 eax, 688		; 000002b0H
  0077b	50		 push	 eax
  0077c	e8 00 00 00 00	 call	 _D3DXVec3Normalize@8

; 167  : 		m_litEngine.Attenuation0 = fSpotlightAttenuation0 ;

  00781	8b 45 f8	 mov	 eax, DWORD PTR _this$[ebp]
  00784	8b 8d 9c fb ff
	ff		 mov	 ecx, DWORD PTR _fSpotlightAttenuation0$[ebp]
  0078a	89 88 c4 02 00
	00		 mov	 DWORD PTR [eax+708], ecx

; 168  : 		m_litEngine.Attenuation1 = fSpotlightAttenuation1 ;

  00790	8b 45 f8	 mov	 eax, DWORD PTR _this$[ebp]
  00793	8b 8d 90 fb ff
	ff		 mov	 ecx, DWORD PTR _fSpotlightAttenuation1$[ebp]
  00799	89 88 c8 02 00
	00		 mov	 DWORD PTR [eax+712], ecx

; 169  : 		m_litEngine.Attenuation2 = fSpotlightAttenuation2 ;

  0079f	8b 45 f8	 mov	 eax, DWORD PTR _this$[ebp]
  007a2	8b 8d 84 fb ff
	ff		 mov	 ecx, DWORD PTR _fSpotlightAttenuation2$[ebp]
  007a8	89 88 cc 02 00
	00		 mov	 DWORD PTR [eax+716], ecx

; 170  : 		m_litEngine.Falloff		 = 1.0f ;

  007ae	8b 45 f8	 mov	 eax, DWORD PTR _this$[ebp]
  007b1	c7 80 c0 02 00
	00 00 00 80 3f	 mov	 DWORD PTR [eax+704], 1065353216 ; 3f800000H

; 171  : 		m_litEngine.Theta		 = g_PI / 50.0f ;

  007bb	d9 05 00 00 00
	00		 fld	 DWORD PTR _g_PI
  007c1	d8 35 00 00 00
	00		 fdiv	 DWORD PTR __real@42480000
  007c7	8b 45 f8	 mov	 eax, DWORD PTR _this$[ebp]
  007ca	d9 98 d0 02 00
	00		 fstp	 DWORD PTR [eax+720]

; 172  : 		m_litEngine.Phi			 = fItemLightMaxConeAngle ;

  007d0	8b 45 f8	 mov	 eax, DWORD PTR _this$[ebp]
  007d3	8b 8d 6c fb ff
	ff		 mov	 ecx, DWORD PTR _fItemLightMaxConeAngle$[ebp]
  007d9	89 88 d4 02 00
	00		 mov	 DWORD PTR [eax+724], ecx

; 173  : 		m_litEngine.Range        = fSpotlightRange ;

  007df	8b 45 f8	 mov	 eax, DWORD PTR _this$[ebp]
  007e2	8b 8d 78 fb ff
	ff		 mov	 ecx, DWORD PTR _fSpotlightRange$[ebp]
  007e8	89 88 bc 02 00
	00		 mov	 DWORD PTR [eax+700], ecx

; 174  : 
; 175  : 	//
; 176  : 	// Weapon Item stuff:
; 177  : 	//
; 178  : 		D3DXCOLOR m_colWeapon = D3DXCOLOR( 1.0f, 0.0f, 0.0f, 1.0f );

  007ee	68 00 00 80 3f	 push	 1065353216		; 3f800000H
  007f3	6a 00		 push	 0
  007f5	6a 00		 push	 0
  007f7	68 00 00 80 3f	 push	 1065353216		; 3f800000H
  007fc	8d 8d 00 fb ff
	ff		 lea	 ecx, DWORD PTR _m_colWeapon$[ebp]
  00802	e8 00 00 00 00	 call	 ??0D3DXCOLOR@@QAE@MMMM@Z ; D3DXCOLOR::D3DXCOLOR

; 179  : 		SetupSpecularMaterial( &m_mtrlWeapon, m_colWeapon.r, m_colWeapon.g, m_colWeapon.b, 0.5f );

  00807	68 00 00 00 3f	 push	 1056964608		; 3f000000H
  0080c	8b 85 08 fb ff
	ff		 mov	 eax, DWORD PTR _m_colWeapon$[ebp+8]
  00812	50		 push	 eax
  00813	8b 8d 04 fb ff
	ff		 mov	 ecx, DWORD PTR _m_colWeapon$[ebp+4]
  00819	51		 push	 ecx
  0081a	8b 95 00 fb ff
	ff		 mov	 edx, DWORD PTR _m_colWeapon$[ebp]
  00820	52		 push	 edx
  00821	8b 45 f8	 mov	 eax, DWORD PTR _this$[ebp]
  00824	05 dc 02 00 00	 add	 eax, 732		; 000002dcH
  00829	50		 push	 eax
  0082a	e8 00 00 00 00	 call	 ?SetupSpecularMaterial@@YAXPAU_D3DMATERIAL8@@MMMM@Z ; SetupSpecularMaterial
  0082f	83 c4 14	 add	 esp, 20			; 00000014H

; 180  : 		ZeroMemory( &m_litWeapon, sizeof(D3DLIGHT8) );

  00832	6a 68		 push	 104			; 00000068H
  00834	6a 00		 push	 0
  00836	8b 45 f8	 mov	 eax, DWORD PTR _this$[ebp]
  00839	05 30 03 00 00	 add	 eax, 816		; 00000330H
  0083e	50		 push	 eax
  0083f	e8 00 00 00 00	 call	 _memset
  00844	83 c4 0c	 add	 esp, 12			; 0000000cH

; 181  : 		m_litWeapon.Type         = itemLightType ;

  00847	8b 45 f8	 mov	 eax, DWORD PTR _this$[ebp]
  0084a	8b 8d 60 fb ff
	ff		 mov	 ecx, DWORD PTR _itemLightType$[ebp]
  00850	89 88 30 03 00
	00		 mov	 DWORD PTR [eax+816], ecx

; 182  : 		m_litWeapon.Diffuse.r	 = m_litWeapon.Ambient.r = m_litWeapon.Specular.r = m_colWeapon.r ;

  00856	8b 45 f8	 mov	 eax, DWORD PTR _this$[ebp]
  00859	8b 8d 00 fb ff
	ff		 mov	 ecx, DWORD PTR _m_colWeapon$[ebp]
  0085f	89 88 44 03 00
	00		 mov	 DWORD PTR [eax+836], ecx
  00865	8b 55 f8	 mov	 edx, DWORD PTR _this$[ebp]
  00868	8b 85 00 fb ff
	ff		 mov	 eax, DWORD PTR _m_colWeapon$[ebp]
  0086e	89 82 54 03 00
	00		 mov	 DWORD PTR [edx+852], eax
  00874	8b 4d f8	 mov	 ecx, DWORD PTR _this$[ebp]
  00877	8b 95 00 fb ff
	ff		 mov	 edx, DWORD PTR _m_colWeapon$[ebp]
  0087d	89 91 34 03 00
	00		 mov	 DWORD PTR [ecx+820], edx

; 183  : 		m_litWeapon.Diffuse.g	 = m_litWeapon.Ambient.g = m_litWeapon.Specular.g = m_colWeapon.g ;

  00883	8b 45 f8	 mov	 eax, DWORD PTR _this$[ebp]
  00886	8b 8d 04 fb ff
	ff		 mov	 ecx, DWORD PTR _m_colWeapon$[ebp+4]
  0088c	89 88 48 03 00
	00		 mov	 DWORD PTR [eax+840], ecx
  00892	8b 55 f8	 mov	 edx, DWORD PTR _this$[ebp]
  00895	8b 85 04 fb ff
	ff		 mov	 eax, DWORD PTR _m_colWeapon$[ebp+4]
  0089b	89 82 58 03 00
	00		 mov	 DWORD PTR [edx+856], eax
  008a1	8b 4d f8	 mov	 ecx, DWORD PTR _this$[ebp]
  008a4	8b 95 04 fb ff
	ff		 mov	 edx, DWORD PTR _m_colWeapon$[ebp+4]
  008aa	89 91 38 03 00
	00		 mov	 DWORD PTR [ecx+824], edx

; 184  : 		m_litWeapon.Diffuse.b    = m_litWeapon.Ambient.b = m_litWeapon.Specular.b = m_colWeapon.b ;

  008b0	8b 45 f8	 mov	 eax, DWORD PTR _this$[ebp]
  008b3	8b 8d 08 fb ff
	ff		 mov	 ecx, DWORD PTR _m_colWeapon$[ebp+8]
  008b9	89 88 4c 03 00
	00		 mov	 DWORD PTR [eax+844], ecx
  008bf	8b 55 f8	 mov	 edx, DWORD PTR _this$[ebp]
  008c2	8b 85 08 fb ff
	ff		 mov	 eax, DWORD PTR _m_colWeapon$[ebp+8]
  008c8	89 82 5c 03 00
	00		 mov	 DWORD PTR [edx+860], eax
  008ce	8b 4d f8	 mov	 ecx, DWORD PTR _this$[ebp]
  008d1	8b 95 08 fb ff
	ff		 mov	 edx, DWORD PTR _m_colWeapon$[ebp+8]
  008d7	89 91 3c 03 00
	00		 mov	 DWORD PTR [ecx+828], edx

; 185  : 		//m_litWeapon.Specular.r   = m_litWeapon.Specular.g =	m_litWeapon.Specular.b = 1 ;
; 186  : 		m_litWeapon.Position     = D3DXVECTOR3( 0, 0, 0 );

  008dd	6a 00		 push	 0
  008df	6a 00		 push	 0
  008e1	6a 00		 push	 0
  008e3	8d 8d 18 f8 ff
	ff		 lea	 ecx, DWORD PTR $T94684[ebp]
  008e9	e8 00 00 00 00	 call	 ??0D3DXVECTOR3@@QAE@MMM@Z ; D3DXVECTOR3::D3DXVECTOR3
  008ee	8b 4d f8	 mov	 ecx, DWORD PTR _this$[ebp]
  008f1	81 c1 64 03 00
	00		 add	 ecx, 868		; 00000364H
  008f7	8b 10		 mov	 edx, DWORD PTR [eax]
  008f9	89 11		 mov	 DWORD PTR [ecx], edx
  008fb	8b 50 04	 mov	 edx, DWORD PTR [eax+4]
  008fe	89 51 04	 mov	 DWORD PTR [ecx+4], edx
  00901	8b 40 08	 mov	 eax, DWORD PTR [eax+8]
  00904	89 41 08	 mov	 DWORD PTR [ecx+8], eax

; 187  : 		D3DXVec3Normalize( (xVec3*)&m_litWeapon.Direction, &xVec3( 0.0f, -1.0f, 0.0f ) );

  00907	6a 00		 push	 0
  00909	68 00 00 80 bf	 push	 -1082130432		; bf800000H
  0090e	6a 00		 push	 0
  00910	8d 8d 04 f8 ff
	ff		 lea	 ecx, DWORD PTR $T94685[ebp]
  00916	e8 00 00 00 00	 call	 ??0D3DXVECTOR3@@QAE@MMM@Z ; D3DXVECTOR3::D3DXVECTOR3
  0091b	50		 push	 eax
  0091c	8b 45 f8	 mov	 eax, DWORD PTR _this$[ebp]
  0091f	05 70 03 00 00	 add	 eax, 880		; 00000370H
  00924	50		 push	 eax
  00925	e8 00 00 00 00	 call	 _D3DXVec3Normalize@8

; 188  : 		m_litWeapon.Attenuation0 = fSpotlightAttenuation0 ;

  0092a	8b 45 f8	 mov	 eax, DWORD PTR _this$[ebp]
  0092d	8b 8d 9c fb ff
	ff		 mov	 ecx, DWORD PTR _fSpotlightAttenuation0$[ebp]
  00933	89 88 84 03 00
	00		 mov	 DWORD PTR [eax+900], ecx

; 189  : 		m_litWeapon.Attenuation1 = fSpotlightAttenuation1 ;

  00939	8b 45 f8	 mov	 eax, DWORD PTR _this$[ebp]
  0093c	8b 8d 90 fb ff
	ff		 mov	 ecx, DWORD PTR _fSpotlightAttenuation1$[ebp]
  00942	89 88 88 03 00
	00		 mov	 DWORD PTR [eax+904], ecx

; 190  : 		m_litWeapon.Attenuation2 = fSpotlightAttenuation2 ;

  00948	8b 45 f8	 mov	 eax, DWORD PTR _this$[ebp]
  0094b	8b 8d 84 fb ff
	ff		 mov	 ecx, DWORD PTR _fSpotlightAttenuation2$[ebp]
  00951	89 88 8c 03 00
	00		 mov	 DWORD PTR [eax+908], ecx

; 191  : 		m_litWeapon.Falloff		 = 1.0f ;

  00957	8b 45 f8	 mov	 eax, DWORD PTR _this$[ebp]
  0095a	c7 80 80 03 00
	00 00 00 80 3f	 mov	 DWORD PTR [eax+896], 1065353216 ; 3f800000H

; 192  : 		m_litWeapon.Theta		 = g_PI / 50.0f ;

  00964	d9 05 00 00 00
	00		 fld	 DWORD PTR _g_PI
  0096a	d8 35 00 00 00
	00		 fdiv	 DWORD PTR __real@42480000
  00970	8b 45 f8	 mov	 eax, DWORD PTR _this$[ebp]
  00973	d9 98 90 03 00
	00		 fstp	 DWORD PTR [eax+912]

; 193  : 		m_litWeapon.Phi			 = fItemLightMaxConeAngle ;

  00979	8b 45 f8	 mov	 eax, DWORD PTR _this$[ebp]
  0097c	8b 8d 6c fb ff
	ff		 mov	 ecx, DWORD PTR _fItemLightMaxConeAngle$[ebp]
  00982	89 88 94 03 00
	00		 mov	 DWORD PTR [eax+916], ecx

; 194  : 		m_litWeapon.Range        = fSpotlightRange ;

  00988	8b 45 f8	 mov	 eax, DWORD PTR _this$[ebp]
  0098b	8b 8d 78 fb ff
	ff		 mov	 ecx, DWORD PTR _fSpotlightRange$[ebp]
  00991	89 88 7c 03 00
	00		 mov	 DWORD PTR [eax+892], ecx

; 195  : 		m_pWeapon = NULL ;

  00997	8b 45 f8	 mov	 eax, DWORD PTR _this$[ebp]
  0099a	c7 80 d8 02 00
	00 00 00 00 00	 mov	 DWORD PTR [eax+728], 0

; 196  : #ifdef LOAD_RES_FROM_FILE
; 197  : 		//m_pWeapon = new CFileRenderObject( "..\\resource\\mod0\\sword.x", 0, NULL );
; 198  : #else
; 199  : 		//TODO...
; 200  : #endif
; 201  : 		//assert( m_pWeapon );
; 202  : 
; 203  : 	//
; 204  : 	// Health Item stuff:
; 205  : 	//
; 206  : 		D3DXCOLOR m_colHealth = D3DXCOLOR( 1.0f, 0.0f, 0.0f, 1.0f );

  009a4	68 00 00 80 3f	 push	 1065353216		; 3f800000H
  009a9	6a 00		 push	 0
  009ab	6a 00		 push	 0
  009ad	68 00 00 80 3f	 push	 1065353216		; 3f800000H
  009b2	8d 8d e8 fa ff
	ff		 lea	 ecx, DWORD PTR _m_colHealth$[ebp]
  009b8	e8 00 00 00 00	 call	 ??0D3DXCOLOR@@QAE@MMMM@Z ; D3DXCOLOR::D3DXCOLOR

; 207  : 		SetupSpecularMaterial( &m_mtrlHealth, m_colHealth.r, m_colHealth.g, m_colHealth.b, 0.5f );

  009bd	68 00 00 00 3f	 push	 1056964608		; 3f000000H
  009c2	8b 85 f0 fa ff
	ff		 mov	 eax, DWORD PTR _m_colHealth$[ebp+8]
  009c8	50		 push	 eax
  009c9	8b 8d ec fa ff
	ff		 mov	 ecx, DWORD PTR _m_colHealth$[ebp+4]
  009cf	51		 push	 ecx
  009d0	8b 95 e8 fa ff
	ff		 mov	 edx, DWORD PTR _m_colHealth$[ebp]
  009d6	52		 push	 edx
  009d7	8b 45 f8	 mov	 eax, DWORD PTR _this$[ebp]
  009da	05 9c 03 00 00	 add	 eax, 924		; 0000039cH
  009df	50		 push	 eax
  009e0	e8 00 00 00 00	 call	 ?SetupSpecularMaterial@@YAXPAU_D3DMATERIAL8@@MMMM@Z ; SetupSpecularMaterial
  009e5	83 c4 14	 add	 esp, 20			; 00000014H

; 208  : 		ZeroMemory( &m_litHealth, sizeof(D3DLIGHT8) );

  009e8	6a 68		 push	 104			; 00000068H
  009ea	6a 00		 push	 0
  009ec	8b 45 f8	 mov	 eax, DWORD PTR _this$[ebp]
  009ef	05 f0 03 00 00	 add	 eax, 1008		; 000003f0H
  009f4	50		 push	 eax
  009f5	e8 00 00 00 00	 call	 _memset
  009fa	83 c4 0c	 add	 esp, 12			; 0000000cH

; 209  : 		m_litHealth.Type         = itemLightType ;

  009fd	8b 45 f8	 mov	 eax, DWORD PTR _this$[ebp]
  00a00	8b 8d 60 fb ff
	ff		 mov	 ecx, DWORD PTR _itemLightType$[ebp]
  00a06	89 88 f0 03 00
	00		 mov	 DWORD PTR [eax+1008], ecx

; 210  : 		m_litHealth.Diffuse.r	 = m_litHealth.Ambient.r = m_litHealth.Specular.r = m_colHealth.r ;

  00a0c	8b 45 f8	 mov	 eax, DWORD PTR _this$[ebp]
  00a0f	8b 8d e8 fa ff
	ff		 mov	 ecx, DWORD PTR _m_colHealth$[ebp]
  00a15	89 88 04 04 00
	00		 mov	 DWORD PTR [eax+1028], ecx
  00a1b	8b 55 f8	 mov	 edx, DWORD PTR _this$[ebp]
  00a1e	8b 85 e8 fa ff
	ff		 mov	 eax, DWORD PTR _m_colHealth$[ebp]
  00a24	89 82 14 04 00
	00		 mov	 DWORD PTR [edx+1044], eax
  00a2a	8b 4d f8	 mov	 ecx, DWORD PTR _this$[ebp]
  00a2d	8b 95 e8 fa ff
	ff		 mov	 edx, DWORD PTR _m_colHealth$[ebp]
  00a33	89 91 f4 03 00
	00		 mov	 DWORD PTR [ecx+1012], edx

; 211  : 		m_litHealth.Diffuse.g	 = m_litHealth.Ambient.g = m_litHealth.Specular.g = m_colHealth.g ;

  00a39	8b 45 f8	 mov	 eax, DWORD PTR _this$[ebp]
  00a3c	8b 8d ec fa ff
	ff		 mov	 ecx, DWORD PTR _m_colHealth$[ebp+4]
  00a42	89 88 08 04 00
	00		 mov	 DWORD PTR [eax+1032], ecx
  00a48	8b 55 f8	 mov	 edx, DWORD PTR _this$[ebp]
  00a4b	8b 85 ec fa ff
	ff		 mov	 eax, DWORD PTR _m_colHealth$[ebp+4]
  00a51	89 82 18 04 00
	00		 mov	 DWORD PTR [edx+1048], eax
  00a57	8b 4d f8	 mov	 ecx, DWORD PTR _this$[ebp]
  00a5a	8b 95 ec fa ff
	ff		 mov	 edx, DWORD PTR _m_colHealth$[ebp+4]
  00a60	89 91 f8 03 00
	00		 mov	 DWORD PTR [ecx+1016], edx

; 212  : 		m_litHealth.Diffuse.b    = m_litHealth.Ambient.b = m_litHealth.Specular.b = m_colHealth.b ;

  00a66	8b 45 f8	 mov	 eax, DWORD PTR _this$[ebp]
  00a69	8b 8d f0 fa ff
	ff		 mov	 ecx, DWORD PTR _m_colHealth$[ebp+8]
  00a6f	89 88 0c 04 00
	00		 mov	 DWORD PTR [eax+1036], ecx
  00a75	8b 55 f8	 mov	 edx, DWORD PTR _this$[ebp]
  00a78	8b 85 f0 fa ff
	ff		 mov	 eax, DWORD PTR _m_colHealth$[ebp+8]
  00a7e	89 82 1c 04 00
	00		 mov	 DWORD PTR [edx+1052], eax
  00a84	8b 4d f8	 mov	 ecx, DWORD PTR _this$[ebp]
  00a87	8b 95 f0 fa ff
	ff		 mov	 edx, DWORD PTR _m_colHealth$[ebp+8]
  00a8d	89 91 fc 03 00
	00		 mov	 DWORD PTR [ecx+1020], edx

; 213  : 		//m_litHealth.Specular.r   = m_litHealth.Specular.g =	m_litHealth.Specular.b = 1 ;
; 214  : 		m_litHealth.Position     = D3DXVECTOR3( 0, 0, 0 );

  00a93	6a 00		 push	 0
  00a95	6a 00		 push	 0
  00a97	6a 00		 push	 0
  00a99	8d 8d f0 f7 ff
	ff		 lea	 ecx, DWORD PTR $T94686[ebp]
  00a9f	e8 00 00 00 00	 call	 ??0D3DXVECTOR3@@QAE@MMM@Z ; D3DXVECTOR3::D3DXVECTOR3
  00aa4	8b 4d f8	 mov	 ecx, DWORD PTR _this$[ebp]
  00aa7	81 c1 24 04 00
	00		 add	 ecx, 1060		; 00000424H
  00aad	8b 10		 mov	 edx, DWORD PTR [eax]
  00aaf	89 11		 mov	 DWORD PTR [ecx], edx
  00ab1	8b 50 04	 mov	 edx, DWORD PTR [eax+4]
  00ab4	89 51 04	 mov	 DWORD PTR [ecx+4], edx
  00ab7	8b 40 08	 mov	 eax, DWORD PTR [eax+8]
  00aba	89 41 08	 mov	 DWORD PTR [ecx+8], eax

; 215  : 		D3DXVec3Normalize( (xVec3*)&m_litHealth.Direction, &xVec3( 0.0f, -1.0f, 0.0f ) );

  00abd	6a 00		 push	 0
  00abf	68 00 00 80 bf	 push	 -1082130432		; bf800000H
  00ac4	6a 00		 push	 0
  00ac6	8d 8d dc f7 ff
	ff		 lea	 ecx, DWORD PTR $T94687[ebp]
  00acc	e8 00 00 00 00	 call	 ??0D3DXVECTOR3@@QAE@MMM@Z ; D3DXVECTOR3::D3DXVECTOR3
  00ad1	50		 push	 eax
  00ad2	8b 45 f8	 mov	 eax, DWORD PTR _this$[ebp]
  00ad5	05 30 04 00 00	 add	 eax, 1072		; 00000430H
  00ada	50		 push	 eax
  00adb	e8 00 00 00 00	 call	 _D3DXVec3Normalize@8

; 216  : 		m_litHealth.Attenuation0 = fSpotlightAttenuation0 ;

  00ae0	8b 45 f8	 mov	 eax, DWORD PTR _this$[ebp]
  00ae3	8b 8d 9c fb ff
	ff		 mov	 ecx, DWORD PTR _fSpotlightAttenuation0$[ebp]
  00ae9	89 88 44 04 00
	00		 mov	 DWORD PTR [eax+1092], ecx

; 217  : 		m_litHealth.Attenuation1 = fSpotlightAttenuation1 ;

  00aef	8b 45 f8	 mov	 eax, DWORD PTR _this$[ebp]
  00af2	8b 8d 90 fb ff
	ff		 mov	 ecx, DWORD PTR _fSpotlightAttenuation1$[ebp]
  00af8	89 88 48 04 00
	00		 mov	 DWORD PTR [eax+1096], ecx

; 218  : 		m_litHealth.Attenuation2 = fSpotlightAttenuation2 ;

  00afe	8b 45 f8	 mov	 eax, DWORD PTR _this$[ebp]
  00b01	8b 8d 84 fb ff
	ff		 mov	 ecx, DWORD PTR _fSpotlightAttenuation2$[ebp]
  00b07	89 88 4c 04 00
	00		 mov	 DWORD PTR [eax+1100], ecx

; 219  : 		m_litHealth.Falloff		 = 1.0f ;

  00b0d	8b 45 f8	 mov	 eax, DWORD PTR _this$[ebp]
  00b10	c7 80 40 04 00
	00 00 00 80 3f	 mov	 DWORD PTR [eax+1088], 1065353216 ; 3f800000H

; 220  : 		m_litHealth.Theta		 = g_PI / 50.0f ;

  00b1a	d9 05 00 00 00
	00		 fld	 DWORD PTR _g_PI
  00b20	d8 35 00 00 00
	00		 fdiv	 DWORD PTR __real@42480000
  00b26	8b 45 f8	 mov	 eax, DWORD PTR _this$[ebp]
  00b29	d9 98 50 04 00
	00		 fstp	 DWORD PTR [eax+1104]

; 221  : 		m_litHealth.Phi			 = fItemLightMaxConeAngle ;

  00b2f	8b 45 f8	 mov	 eax, DWORD PTR _this$[ebp]
  00b32	8b 8d 6c fb ff
	ff		 mov	 ecx, DWORD PTR _fItemLightMaxConeAngle$[ebp]
  00b38	89 88 54 04 00
	00		 mov	 DWORD PTR [eax+1108], ecx

; 222  : 		m_litHealth.Range        = fSpotlightRange ;

  00b3e	8b 45 f8	 mov	 eax, DWORD PTR _this$[ebp]
  00b41	8b 8d 78 fb ff
	ff		 mov	 ecx, DWORD PTR _fSpotlightRange$[ebp]
  00b47	89 88 3c 04 00
	00		 mov	 DWORD PTR [eax+1084], ecx

; 223  : 		m_pHealth = NULL ;

  00b4d	8b 45 f8	 mov	 eax, DWORD PTR _this$[ebp]
  00b50	c7 80 98 03 00
	00 00 00 00 00	 mov	 DWORD PTR [eax+920], 0

; 224  : #ifdef LOAD_RES_FROM_FILE
; 225  : 		m_pHealth = new CFileRenderObject( "..\\resource\\mod0\\heart.x", 0, NULL );

  00b5a	68 1c 01 00 00	 push	 284			; 0000011cH
  00b5f	e8 00 00 00 00	 call	 ??2@YAPAXI@Z		; operator new
  00b64	83 c4 04	 add	 esp, 4
  00b67	89 85 d0 f7 ff
	ff		 mov	 DWORD PTR $T94688[ebp], eax
  00b6d	83 bd d0 f7 ff
	ff 00		 cmp	 DWORD PTR $T94688[ebp], 0
  00b74	74 1c		 je	 SHORT $L94689
  00b76	6a 00		 push	 0
  00b78	6a 00		 push	 0
  00b7a	68 00 00 00 00	 push	 OFFSET FLAT:??_C@_0BJ@EPHGNNOF@?4?4?2resource?2mod0?2heart?4x?$AA@
  00b7f	8b 8d d0 f7 ff
	ff		 mov	 ecx, DWORD PTR $T94688[ebp]
  00b85	e8 00 00 00 00	 call	 ??0CFileRenderObject@@QAE@PADHPAURENDER_DATA_INFO@0@@Z ; CFileRenderObject::CFileRenderObject
  00b8a	89 85 94 f6 ff
	ff		 mov	 DWORD PTR tv636[ebp], eax
  00b90	eb 0a		 jmp	 SHORT $L94690
$L94689:
  00b92	c7 85 94 f6 ff
	ff 00 00 00 00	 mov	 DWORD PTR tv636[ebp], 0
$L94690:
  00b9c	8b 45 f8	 mov	 eax, DWORD PTR _this$[ebp]
  00b9f	8b 8d 94 f6 ff
	ff		 mov	 ecx, DWORD PTR tv636[ebp]
  00ba5	89 88 98 03 00
	00		 mov	 DWORD PTR [eax+920], ecx

; 226  : #else
; 227  : 		//TODO...
; 228  : #endif
; 229  : 		assert( m_pHealth );

  00bab	8b 45 f8	 mov	 eax, DWORD PTR _this$[ebp]
  00bae	83 b8 98 03 00
	00 00		 cmp	 DWORD PTR [eax+920], 0
  00bb5	75 1f		 jne	 SHORT $L94691
  00bb7	8b 0d 00 00 00
	00		 mov	 ecx, DWORD PTR ?__LINE__Var@?1???0CTerrain@@QAE@MPAVCx7@@HHHHHHHMHHIIHHH@Z@4JA
  00bbd	81 c1 c6 00 00
	00		 add	 ecx, 198		; 000000c6H
  00bc3	51		 push	 ecx
  00bc4	68 00 00 00 00	 push	 OFFSET FLAT:??_C@_0EK@KKPMANGB@c?3?2documents?5and?5settings?2dom?2my@
  00bc9	68 00 00 00 00	 push	 OFFSET FLAT:??_C@_09DNHEJFOM@m_pHealth?$AA@
  00bce	e8 00 00 00 00	 call	 __assert
  00bd3	83 c4 0c	 add	 esp, 12			; 0000000cH
$L94691:

; 230  : 
; 231  : 
; 232  : 	//
; 233  : 	// Allocate dynamic memory arrays:
; 234  : 	//
; 235  : 		m_bPatchesPicked = new BOOL[ m_nPatchesSQ * m_nPatchesSQ ];				assert( m_bPatchesPicked );

  00bd6	8b 45 f8	 mov	 eax, DWORD PTR _this$[ebp]
  00bd9	8b 4d f8	 mov	 ecx, DWORD PTR _this$[ebp]
  00bdc	8b 50 08	 mov	 edx, DWORD PTR [eax+8]
  00bdf	0f af 51 08	 imul	 edx, DWORD PTR [ecx+8]
  00be3	c1 e2 02	 shl	 edx, 2
  00be6	52		 push	 edx
  00be7	e8 00 00 00 00	 call	 ??2@YAPAXI@Z		; operator new
  00bec	83 c4 04	 add	 esp, 4
  00bef	89 85 c4 f7 ff
	ff		 mov	 DWORD PTR $T94692[ebp], eax
  00bf5	8b 45 f8	 mov	 eax, DWORD PTR _this$[ebp]
  00bf8	8b 8d c4 f7 ff
	ff		 mov	 ecx, DWORD PTR $T94692[ebp]
  00bfe	89 88 1c 05 00
	00		 mov	 DWORD PTR [eax+1308], ecx
  00c04	8b 45 f8	 mov	 eax, DWORD PTR _this$[ebp]
  00c07	83 b8 1c 05 00
	00 00		 cmp	 DWORD PTR [eax+1308], 0
  00c0e	75 1f		 jne	 SHORT $L94693
  00c10	8b 0d 00 00 00
	00		 mov	 ecx, DWORD PTR ?__LINE__Var@?1???0CTerrain@@QAE@MPAVCx7@@HHHHHHHMHHIIHHH@Z@4JA
  00c16	81 c1 cc 00 00
	00		 add	 ecx, 204		; 000000ccH
  00c1c	51		 push	 ecx
  00c1d	68 00 00 00 00	 push	 OFFSET FLAT:??_C@_0EK@KKPMANGB@c?3?2documents?5and?5settings?2dom?2my@
  00c22	68 00 00 00 00	 push	 OFFSET FLAT:??_C@_0BB@GGFJFIEI@m_bPatchesPicked?$AA@
  00c27	e8 00 00 00 00	 call	 __assert
  00c2c	83 c4 0c	 add	 esp, 12			; 0000000cH
$L94693:

; 236  : 		m_pPatches = new CTerrainPatch*[ m_nPatchesSQ * m_nPatchesSQ ];			assert( m_pPatches );

  00c2f	8b 45 f8	 mov	 eax, DWORD PTR _this$[ebp]
  00c32	8b 4d f8	 mov	 ecx, DWORD PTR _this$[ebp]
  00c35	8b 50 08	 mov	 edx, DWORD PTR [eax+8]
  00c38	0f af 51 08	 imul	 edx, DWORD PTR [ecx+8]
  00c3c	c1 e2 02	 shl	 edx, 2
  00c3f	52		 push	 edx
  00c40	e8 00 00 00 00	 call	 ??2@YAPAXI@Z		; operator new
  00c45	83 c4 04	 add	 esp, 4
  00c48	89 85 b8 f7 ff
	ff		 mov	 DWORD PTR $T94694[ebp], eax
  00c4e	8b 45 f8	 mov	 eax, DWORD PTR _this$[ebp]
  00c51	8b 8d b8 f7 ff
	ff		 mov	 ecx, DWORD PTR $T94694[ebp]
  00c57	89 88 fc 04 00
	00		 mov	 DWORD PTR [eax+1276], ecx
  00c5d	8b 45 f8	 mov	 eax, DWORD PTR _this$[ebp]
  00c60	83 b8 fc 04 00
	00 00		 cmp	 DWORD PTR [eax+1276], 0
  00c67	75 1f		 jne	 SHORT $L94695
  00c69	8b 0d 00 00 00
	00		 mov	 ecx, DWORD PTR ?__LINE__Var@?1???0CTerrain@@QAE@MPAVCx7@@HHHHHHHMHHIIHHH@Z@4JA
  00c6f	81 c1 cd 00 00
	00		 add	 ecx, 205		; 000000cdH
  00c75	51		 push	 ecx
  00c76	68 00 00 00 00	 push	 OFFSET FLAT:??_C@_0EK@KKPMANGB@c?3?2documents?5and?5settings?2dom?2my@
  00c7b	68 00 00 00 00	 push	 OFFSET FLAT:??_C@_0L@DFNOIBPD@m_pPatches?$AA@
  00c80	e8 00 00 00 00	 call	 __assert
  00c85	83 c4 0c	 add	 esp, 12			; 0000000cH
$L94695:

; 237  : 		m_nPatchesRequiredLOD = new int[ m_nPatchesSQ * m_nPatchesSQ ];			assert( m_nPatchesRequiredLOD );

  00c88	8b 45 f8	 mov	 eax, DWORD PTR _this$[ebp]
  00c8b	8b 4d f8	 mov	 ecx, DWORD PTR _this$[ebp]
  00c8e	8b 50 08	 mov	 edx, DWORD PTR [eax+8]
  00c91	0f af 51 08	 imul	 edx, DWORD PTR [ecx+8]
  00c95	c1 e2 02	 shl	 edx, 2
  00c98	52		 push	 edx
  00c99	e8 00 00 00 00	 call	 ??2@YAPAXI@Z		; operator new
  00c9e	83 c4 04	 add	 esp, 4
  00ca1	89 85 ac f7 ff
	ff		 mov	 DWORD PTR $T94696[ebp], eax
  00ca7	8b 45 f8	 mov	 eax, DWORD PTR _this$[ebp]
  00caa	8b 8d ac f7 ff
	ff		 mov	 ecx, DWORD PTR $T94696[ebp]
  00cb0	89 88 00 05 00
	00		 mov	 DWORD PTR [eax+1280], ecx
  00cb6	8b 45 f8	 mov	 eax, DWORD PTR _this$[ebp]
  00cb9	83 b8 00 05 00
	00 00		 cmp	 DWORD PTR [eax+1280], 0
  00cc0	75 1f		 jne	 SHORT $L94697
  00cc2	8b 0d 00 00 00
	00		 mov	 ecx, DWORD PTR ?__LINE__Var@?1???0CTerrain@@QAE@MPAVCx7@@HHHHHHHMHHIIHHH@Z@4JA
  00cc8	81 c1 ce 00 00
	00		 add	 ecx, 206		; 000000ceH
  00cce	51		 push	 ecx
  00ccf	68 00 00 00 00	 push	 OFFSET FLAT:??_C@_0EK@KKPMANGB@c?3?2documents?5and?5settings?2dom?2my@
  00cd4	68 00 00 00 00	 push	 OFFSET FLAT:??_C@_0BG@BNIFEAPI@m_nPatchesRequiredLOD?$AA@
  00cd9	e8 00 00 00 00	 call	 __assert
  00cde	83 c4 0c	 add	 esp, 12			; 0000000cH
$L94697:

; 238  : 		m_dsPatchesRequiredTopEdge = new int[ m_nPatchesSQ * m_nPatchesSQ ];	assert( m_dsPatchesRequiredTopEdge );

  00ce1	8b 45 f8	 mov	 eax, DWORD PTR _this$[ebp]
  00ce4	8b 4d f8	 mov	 ecx, DWORD PTR _this$[ebp]
  00ce7	8b 50 08	 mov	 edx, DWORD PTR [eax+8]
  00cea	0f af 51 08	 imul	 edx, DWORD PTR [ecx+8]
  00cee	c1 e2 02	 shl	 edx, 2
  00cf1	52		 push	 edx
  00cf2	e8 00 00 00 00	 call	 ??2@YAPAXI@Z		; operator new
  00cf7	83 c4 04	 add	 esp, 4
  00cfa	89 85 a0 f7 ff
	ff		 mov	 DWORD PTR $T94698[ebp], eax
  00d00	8b 45 f8	 mov	 eax, DWORD PTR _this$[ebp]
  00d03	8b 8d a0 f7 ff
	ff		 mov	 ecx, DWORD PTR $T94698[ebp]
  00d09	89 88 04 05 00
	00		 mov	 DWORD PTR [eax+1284], ecx
  00d0f	8b 45 f8	 mov	 eax, DWORD PTR _this$[ebp]
  00d12	83 b8 04 05 00
	00 00		 cmp	 DWORD PTR [eax+1284], 0
  00d19	75 1f		 jne	 SHORT $L94699
  00d1b	8b 0d 00 00 00
	00		 mov	 ecx, DWORD PTR ?__LINE__Var@?1???0CTerrain@@QAE@MPAVCx7@@HHHHHHHMHHIIHHH@Z@4JA
  00d21	81 c1 cf 00 00
	00		 add	 ecx, 207		; 000000cfH
  00d27	51		 push	 ecx
  00d28	68 00 00 00 00	 push	 OFFSET FLAT:??_C@_0EK@KKPMANGB@c?3?2documents?5and?5settings?2dom?2my@
  00d2d	68 00 00 00 00	 push	 OFFSET FLAT:??_C@_0BL@HKDDPDHH@m_dsPatchesRequiredTopEdge?$AA@
  00d32	e8 00 00 00 00	 call	 __assert
  00d37	83 c4 0c	 add	 esp, 12			; 0000000cH
$L94699:

; 239  : 		m_dsPatchesRequiredLeftEdge = new int[ m_nPatchesSQ * m_nPatchesSQ ];	assert( m_dsPatchesRequiredLeftEdge );

  00d3a	8b 45 f8	 mov	 eax, DWORD PTR _this$[ebp]
  00d3d	8b 4d f8	 mov	 ecx, DWORD PTR _this$[ebp]
  00d40	8b 50 08	 mov	 edx, DWORD PTR [eax+8]
  00d43	0f af 51 08	 imul	 edx, DWORD PTR [ecx+8]
  00d47	c1 e2 02	 shl	 edx, 2
  00d4a	52		 push	 edx
  00d4b	e8 00 00 00 00	 call	 ??2@YAPAXI@Z		; operator new
  00d50	83 c4 04	 add	 esp, 4
  00d53	89 85 94 f7 ff
	ff		 mov	 DWORD PTR $T94700[ebp], eax
  00d59	8b 45 f8	 mov	 eax, DWORD PTR _this$[ebp]
  00d5c	8b 8d 94 f7 ff
	ff		 mov	 ecx, DWORD PTR $T94700[ebp]
  00d62	89 88 08 05 00
	00		 mov	 DWORD PTR [eax+1288], ecx
  00d68	8b 45 f8	 mov	 eax, DWORD PTR _this$[ebp]
  00d6b	83 b8 08 05 00
	00 00		 cmp	 DWORD PTR [eax+1288], 0
  00d72	75 1f		 jne	 SHORT $L94701
  00d74	8b 0d 00 00 00
	00		 mov	 ecx, DWORD PTR ?__LINE__Var@?1???0CTerrain@@QAE@MPAVCx7@@HHHHHHHMHHIIHHH@Z@4JA
  00d7a	81 c1 d0 00 00
	00		 add	 ecx, 208		; 000000d0H
  00d80	51		 push	 ecx
  00d81	68 00 00 00 00	 push	 OFFSET FLAT:??_C@_0EK@KKPMANGB@c?3?2documents?5and?5settings?2dom?2my@
  00d86	68 00 00 00 00	 push	 OFFSET FLAT:??_C@_0BM@HGPBLEOH@m_dsPatchesRequiredLeftEdge?$AA@
  00d8b	e8 00 00 00 00	 call	 __assert
  00d90	83 c4 0c	 add	 esp, 12			; 0000000cH
$L94701:

; 240  : 		m_dsPatchesRequiredBottomEdge = new int[ m_nPatchesSQ * m_nPatchesSQ ]; assert( m_dsPatchesRequiredBottomEdge );

  00d93	8b 45 f8	 mov	 eax, DWORD PTR _this$[ebp]
  00d96	8b 4d f8	 mov	 ecx, DWORD PTR _this$[ebp]
  00d99	8b 50 08	 mov	 edx, DWORD PTR [eax+8]
  00d9c	0f af 51 08	 imul	 edx, DWORD PTR [ecx+8]
  00da0	c1 e2 02	 shl	 edx, 2
  00da3	52		 push	 edx
  00da4	e8 00 00 00 00	 call	 ??2@YAPAXI@Z		; operator new
  00da9	83 c4 04	 add	 esp, 4
  00dac	89 85 88 f7 ff
	ff		 mov	 DWORD PTR $T94702[ebp], eax
  00db2	8b 45 f8	 mov	 eax, DWORD PTR _this$[ebp]
  00db5	8b 8d 88 f7 ff
	ff		 mov	 ecx, DWORD PTR $T94702[ebp]
  00dbb	89 88 0c 05 00
	00		 mov	 DWORD PTR [eax+1292], ecx
  00dc1	8b 45 f8	 mov	 eax, DWORD PTR _this$[ebp]
  00dc4	83 b8 0c 05 00
	00 00		 cmp	 DWORD PTR [eax+1292], 0
  00dcb	75 1f		 jne	 SHORT $L94703
  00dcd	8b 0d 00 00 00
	00		 mov	 ecx, DWORD PTR ?__LINE__Var@?1???0CTerrain@@QAE@MPAVCx7@@HHHHHHHMHHIIHHH@Z@4JA
  00dd3	81 c1 d1 00 00
	00		 add	 ecx, 209		; 000000d1H
  00dd9	51		 push	 ecx
  00dda	68 00 00 00 00	 push	 OFFSET FLAT:??_C@_0EK@KKPMANGB@c?3?2documents?5and?5settings?2dom?2my@
  00ddf	68 00 00 00 00	 push	 OFFSET FLAT:??_C@_0BO@DMNLCL@m_dsPatchesRequiredBottomEdge?$AA@
  00de4	e8 00 00 00 00	 call	 __assert
  00de9	83 c4 0c	 add	 esp, 12			; 0000000cH
$L94703:

; 241  : 		m_dsPatchesRequiredRightEdge = new int[ m_nPatchesSQ * m_nPatchesSQ ];	assert( m_dsPatchesRequiredRightEdge );

  00dec	8b 45 f8	 mov	 eax, DWORD PTR _this$[ebp]
  00def	8b 4d f8	 mov	 ecx, DWORD PTR _this$[ebp]
  00df2	8b 50 08	 mov	 edx, DWORD PTR [eax+8]
  00df5	0f af 51 08	 imul	 edx, DWORD PTR [ecx+8]
  00df9	c1 e2 02	 shl	 edx, 2
  00dfc	52		 push	 edx
  00dfd	e8 00 00 00 00	 call	 ??2@YAPAXI@Z		; operator new
  00e02	83 c4 04	 add	 esp, 4
  00e05	89 85 7c f7 ff
	ff		 mov	 DWORD PTR $T94704[ebp], eax
  00e0b	8b 45 f8	 mov	 eax, DWORD PTR _this$[ebp]
  00e0e	8b 8d 7c f7 ff
	ff		 mov	 ecx, DWORD PTR $T94704[ebp]
  00e14	89 88 10 05 00
	00		 mov	 DWORD PTR [eax+1296], ecx
  00e1a	8b 45 f8	 mov	 eax, DWORD PTR _this$[ebp]
  00e1d	83 b8 10 05 00
	00 00		 cmp	 DWORD PTR [eax+1296], 0
  00e24	75 1f		 jne	 SHORT $L94705
  00e26	8b 0d 00 00 00
	00		 mov	 ecx, DWORD PTR ?__LINE__Var@?1???0CTerrain@@QAE@MPAVCx7@@HHHHHHHMHHIIHHH@Z@4JA
  00e2c	81 c1 d2 00 00
	00		 add	 ecx, 210		; 000000d2H
  00e32	51		 push	 ecx
  00e33	68 00 00 00 00	 push	 OFFSET FLAT:??_C@_0EK@KKPMANGB@c?3?2documents?5and?5settings?2dom?2my@
  00e38	68 00 00 00 00	 push	 OFFSET FLAT:??_C@_0BN@LHKDAENK@m_dsPatchesRequiredRightEdge?$AA@
  00e3d	e8 00 00 00 00	 call	 __assert
  00e42	83 c4 0c	 add	 esp, 12			; 0000000cH
$L94705:

; 242  : 		m_psPatches = new PATCH_SORT[ m_nPatchesSQ * m_nPatchesSQ ];			assert( m_psPatches );

  00e45	8b 45 f8	 mov	 eax, DWORD PTR _this$[ebp]
  00e48	8b 4d f8	 mov	 ecx, DWORD PTR _this$[ebp]
  00e4b	8b 50 08	 mov	 edx, DWORD PTR [eax+8]
  00e4e	0f af 51 08	 imul	 edx, DWORD PTR [ecx+8]
  00e52	6b d2 0c	 imul	 edx, 12			; 0000000cH
  00e55	52		 push	 edx
  00e56	e8 00 00 00 00	 call	 ??2@YAPAXI@Z		; operator new
  00e5b	83 c4 04	 add	 esp, 4
  00e5e	89 85 70 f7 ff
	ff		 mov	 DWORD PTR $T94706[ebp], eax
  00e64	8b 45 f8	 mov	 eax, DWORD PTR _this$[ebp]
  00e67	8b 8d 70 f7 ff
	ff		 mov	 ecx, DWORD PTR $T94706[ebp]
  00e6d	89 88 14 05 00
	00		 mov	 DWORD PTR [eax+1300], ecx
  00e73	8b 45 f8	 mov	 eax, DWORD PTR _this$[ebp]
  00e76	83 b8 14 05 00
	00 00		 cmp	 DWORD PTR [eax+1300], 0
  00e7d	75 1f		 jne	 SHORT $L94707
  00e7f	8b 0d 00 00 00
	00		 mov	 ecx, DWORD PTR ?__LINE__Var@?1???0CTerrain@@QAE@MPAVCx7@@HHHHHHHMHHIIHHH@Z@4JA
  00e85	81 c1 d3 00 00
	00		 add	 ecx, 211		; 000000d3H
  00e8b	51		 push	 ecx
  00e8c	68 00 00 00 00	 push	 OFFSET FLAT:??_C@_0EK@KKPMANGB@c?3?2documents?5and?5settings?2dom?2my@
  00e91	68 00 00 00 00	 push	 OFFSET FLAT:??_C@_0M@GEKMANND@m_psPatches?$AA@
  00e96	e8 00 00 00 00	 call	 __assert
  00e9b	83 c4 0c	 add	 esp, 12			; 0000000cH
$L94707:

; 243  : 
; 244  : 	//
; 245  : 	// Allocate the heightmap:
; 246  : 	//
; 247  : 		unsigned long ulNextRowHeightmapDelta ;
; 248  : 		m_nHeightmapSQ = m_nPatchMaxLODSQ + 1 ;

  00e9e	8b 45 f8	 mov	 eax, DWORD PTR _this$[ebp]
  00ea1	8b 48 10	 mov	 ecx, DWORD PTR [eax+16]
  00ea4	83 c1 01	 add	 ecx, 1
  00ea7	8b 55 f8	 mov	 edx, DWORD PTR _this$[ebp]
  00eaa	89 8a 60 04 00
	00		 mov	 DWORD PTR [edx+1120], ecx

; 249  : 		if (m_nPatchesSQ > 1)

  00eb0	8b 45 f8	 mov	 eax, DWORD PTR _this$[ebp]
  00eb3	83 78 08 01	 cmp	 DWORD PTR [eax+8], 1
  00eb7	7e 22		 jle	 SHORT $L93782

; 250  : 			m_nHeightmapSQ += (m_nPatchesSQ - 1) * m_nPatchMaxLODSQ ;

  00eb9	8b 45 f8	 mov	 eax, DWORD PTR _this$[ebp]
  00ebc	8b 48 08	 mov	 ecx, DWORD PTR [eax+8]
  00ebf	83 e9 01	 sub	 ecx, 1
  00ec2	8b 55 f8	 mov	 edx, DWORD PTR _this$[ebp]
  00ec5	0f af 4a 10	 imul	 ecx, DWORD PTR [edx+16]
  00ec9	8b 45 f8	 mov	 eax, DWORD PTR _this$[ebp]
  00ecc	03 88 60 04 00
	00		 add	 ecx, DWORD PTR [eax+1120]
  00ed2	8b 55 f8	 mov	 edx, DWORD PTR _this$[ebp]
  00ed5	89 8a 60 04 00
	00		 mov	 DWORD PTR [edx+1120], ecx
$L93782:

; 251  : 		m_pfHeightmap = NULL ;

  00edb	8b 45 f8	 mov	 eax, DWORD PTR _this$[ebp]
  00ede	c7 80 5c 04 00
	00 00 00 00 00	 mov	 DWORD PTR [eax+1116], 0

; 252  : 		m_pfHeightmap = new float[m_nHeightmapSQ * m_nHeightmapSQ] ;

  00ee8	8b 45 f8	 mov	 eax, DWORD PTR _this$[ebp]
  00eeb	8b 4d f8	 mov	 ecx, DWORD PTR _this$[ebp]
  00eee	8b 90 60 04 00
	00		 mov	 edx, DWORD PTR [eax+1120]
  00ef4	0f af 91 60 04
	00 00		 imul	 edx, DWORD PTR [ecx+1120]
  00efb	c1 e2 02	 shl	 edx, 2
  00efe	52		 push	 edx
  00eff	e8 00 00 00 00	 call	 ??2@YAPAXI@Z		; operator new
  00f04	83 c4 04	 add	 esp, 4
  00f07	89 85 64 f7 ff
	ff		 mov	 DWORD PTR $T94708[ebp], eax
  00f0d	8b 45 f8	 mov	 eax, DWORD PTR _this$[ebp]
  00f10	8b 8d 64 f7 ff
	ff		 mov	 ecx, DWORD PTR $T94708[ebp]
  00f16	89 88 5c 04 00
	00		 mov	 DWORD PTR [eax+1116], ecx

; 253  : 		assert( m_pfHeightmap );

  00f1c	8b 45 f8	 mov	 eax, DWORD PTR _this$[ebp]
  00f1f	83 b8 5c 04 00
	00 00		 cmp	 DWORD PTR [eax+1116], 0
  00f26	75 1f		 jne	 SHORT $L94709
  00f28	8b 0d 00 00 00
	00		 mov	 ecx, DWORD PTR ?__LINE__Var@?1???0CTerrain@@QAE@MPAVCx7@@HHHHHHHMHHIIHHH@Z@4JA
  00f2e	81 c1 de 00 00
	00		 add	 ecx, 222		; 000000deH
  00f34	51		 push	 ecx
  00f35	68 00 00 00 00	 push	 OFFSET FLAT:??_C@_0EK@KKPMANGB@c?3?2documents?5and?5settings?2dom?2my@
  00f3a	68 00 00 00 00	 push	 OFFSET FLAT:??_C@_0O@PKANDAMC@m_pfHeightmap?$AA@
  00f3f	e8 00 00 00 00	 call	 __assert
  00f44	83 c4 0c	 add	 esp, 12			; 0000000cH
$L94709:

; 254  : 		m_dwMem += sizeof(float) * m_nHeightmapSQ * m_nHeightmapSQ ;

  00f47	8b 45 f8	 mov	 eax, DWORD PTR _this$[ebp]
  00f4a	8b 88 60 04 00
	00		 mov	 ecx, DWORD PTR [eax+1120]
  00f50	c1 e1 02	 shl	 ecx, 2
  00f53	8b 55 f8	 mov	 edx, DWORD PTR _this$[ebp]
  00f56	0f af 8a 60 04
	00 00		 imul	 ecx, DWORD PTR [edx+1120]
  00f5d	8b 45 f8	 mov	 eax, DWORD PTR _this$[ebp]
  00f60	03 88 58 04 00
	00		 add	 ecx, DWORD PTR [eax+1112]
  00f66	8b 55 f8	 mov	 edx, DWORD PTR _this$[ebp]
  00f69	89 8a 58 04 00
	00		 mov	 DWORD PTR [edx+1112], ecx

; 255  : 
; 256  : 	//
; 257  : 	// Allocate the colormap:
; 258  : 	//
; 259  : 		m_pColormap = NULL ;

  00f6f	8b 45 f8	 mov	 eax, DWORD PTR _this$[ebp]
  00f72	c7 80 68 04 00
	00 00 00 00 00	 mov	 DWORD PTR [eax+1128], 0

; 260  : 		m_pColormap = new D3DXCOLOR[m_nHeightmapSQ * m_nHeightmapSQ] ;

  00f7c	8b 45 f8	 mov	 eax, DWORD PTR _this$[ebp]
  00f7f	8b 4d f8	 mov	 ecx, DWORD PTR _this$[ebp]
  00f82	8b 90 60 04 00
	00		 mov	 edx, DWORD PTR [eax+1120]
  00f88	0f af 91 60 04
	00 00		 imul	 edx, DWORD PTR [ecx+1120]
  00f8f	89 95 58 f7 ff
	ff		 mov	 DWORD PTR $T94710[ebp], edx
  00f95	8b 85 58 f7 ff
	ff		 mov	 eax, DWORD PTR $T94710[ebp]
  00f9b	c1 e0 04	 shl	 eax, 4
  00f9e	50		 push	 eax
  00f9f	e8 00 00 00 00	 call	 ??2@YAPAXI@Z		; operator new
  00fa4	83 c4 04	 add	 esp, 4
  00fa7	89 85 4c f7 ff
	ff		 mov	 DWORD PTR $T94711[ebp], eax
  00fad	83 bd 4c f7 ff
	ff 00		 cmp	 DWORD PTR $T94711[ebp], 0
  00fb4	74 28		 je	 SHORT $L94712
  00fb6	68 00 00 00 00	 push	 OFFSET FLAT:??0D3DXCOLOR@@QAE@XZ ; D3DXCOLOR::D3DXCOLOR
  00fbb	8b 8d 58 f7 ff
	ff		 mov	 ecx, DWORD PTR $T94710[ebp]
  00fc1	51		 push	 ecx
  00fc2	6a 10		 push	 16			; 00000010H
  00fc4	8b 95 4c f7 ff
	ff		 mov	 edx, DWORD PTR $T94711[ebp]
  00fca	52		 push	 edx
  00fcb	e8 00 00 00 00	 call	 ??_H@YGXPAXIHP6EPAX0@Z@Z
  00fd0	8b 85 4c f7 ff
	ff		 mov	 eax, DWORD PTR $T94711[ebp]
  00fd6	89 85 94 f6 ff
	ff		 mov	 DWORD PTR tv803[ebp], eax
  00fdc	eb 0a		 jmp	 SHORT $L94713
$L94712:
  00fde	c7 85 94 f6 ff
	ff 00 00 00 00	 mov	 DWORD PTR tv803[ebp], 0
$L94713:
  00fe8	8b 4d f8	 mov	 ecx, DWORD PTR _this$[ebp]
  00feb	8b 95 94 f6 ff
	ff		 mov	 edx, DWORD PTR tv803[ebp]
  00ff1	89 91 68 04 00
	00		 mov	 DWORD PTR [ecx+1128], edx

; 261  : 		assert( m_pColormap );

  00ff7	8b 45 f8	 mov	 eax, DWORD PTR _this$[ebp]
  00ffa	83 b8 68 04 00
	00 00		 cmp	 DWORD PTR [eax+1128], 0
  01001	75 1f		 jne	 SHORT $L94714
  01003	8b 0d 00 00 00
	00		 mov	 ecx, DWORD PTR ?__LINE__Var@?1???0CTerrain@@QAE@MPAVCx7@@HHHHHHHMHHIIHHH@Z@4JA
  01009	81 c1 e6 00 00
	00		 add	 ecx, 230		; 000000e6H
  0100f	51		 push	 ecx
  01010	68 00 00 00 00	 push	 OFFSET FLAT:??_C@_0EK@KKPMANGB@c?3?2documents?5and?5settings?2dom?2my@
  01015	68 00 00 00 00	 push	 OFFSET FLAT:??_C@_0M@FIMMKKFH@m_pColormap?$AA@
  0101a	e8 00 00 00 00	 call	 __assert
  0101f	83 c4 0c	 add	 esp, 12			; 0000000cH
$L94714:

; 262  : 		m_dwMem += sizeof(D3DXCOLOR) * m_nHeightmapSQ * m_nHeightmapSQ ;

  01022	8b 45 f8	 mov	 eax, DWORD PTR _this$[ebp]
  01025	8b 88 60 04 00
	00		 mov	 ecx, DWORD PTR [eax+1120]
  0102b	c1 e1 04	 shl	 ecx, 4
  0102e	8b 55 f8	 mov	 edx, DWORD PTR _this$[ebp]
  01031	0f af 8a 60 04
	00 00		 imul	 ecx, DWORD PTR [edx+1120]
  01038	8b 45 f8	 mov	 eax, DWORD PTR _this$[ebp]
  0103b	03 88 58 04 00
	00		 add	 ecx, DWORD PTR [eax+1112]
  01041	8b 55 f8	 mov	 edx, DWORD PTR _this$[ebp]
  01044	89 8a 58 04 00
	00		 mov	 DWORD PTR [edx+1112], ecx

; 263  : 
; 264  : 	// define unit grid size:
; 265  : 		m_fUnitSize = m_fLenSQ / (float)(m_nHeightmapSQ - 1) ;

  0104a	8b 45 f8	 mov	 eax, DWORD PTR _this$[ebp]
  0104d	8b 88 60 04 00
	00		 mov	 ecx, DWORD PTR [eax+1120]
  01053	83 e9 01	 sub	 ecx, 1
  01056	89 8d 90 f6 ff
	ff		 mov	 DWORD PTR tv2596[ebp], ecx
  0105c	c7 85 94 f6 ff
	ff 00 00 00 00	 mov	 DWORD PTR tv2596[ebp+4], 0
  01066	df ad 90 f6 ff
	ff		 fild	 QWORD PTR tv2596[ebp]
  0106c	8b 55 f8	 mov	 edx, DWORD PTR _this$[ebp]
  0106f	d8 7a 18	 fdivr	 DWORD PTR [edx+24]
  01072	8b 45 f8	 mov	 eax, DWORD PTR _this$[ebp]
  01075	d9 98 64 04 00
	00		 fstp	 DWORD PTR [eax+1124]

; 266  : 
; 267  : 	//
; 268  : 	// Populate the heightmap and colormap
; 269  : 	//
; 270  : 	// Heights built using superposing waves with different frequencies
; 271  : 	// Colors built using simple gradients on height values + random noise patches
; 272  : 	//
; 273  : 		BOOL bBuildFlat = m_pX7->m_pCmdLine->GetInt( "TerrainFlat", 0 );

  0107b	6a 00		 push	 0
  0107d	68 00 00 00 00	 push	 OFFSET FLAT:??_C@_0M@CCKJODOB@TerrainFlat?$AA@
  01082	8b 45 f8	 mov	 eax, DWORD PTR _this$[ebp]
  01085	8b 48 04	 mov	 ecx, DWORD PTR [eax+4]
  01088	8b 89 d4 a8 02
	00		 mov	 ecx, DWORD PTR [ecx+174292]
  0108e	e8 00 00 00 00	 call	 ?GetInt@CCmdLineParser@@QAEHPADH@Z ; CCmdLineParser::GetInt
  01093	89 85 d0 fa ff
	ff		 mov	 DWORD PTR _bBuildFlat$[ebp], eax

; 274  : 		
; 275  : 		if( !bBuildFlat )

  01099	83 bd d0 fa ff
	ff 00		 cmp	 DWORD PTR _bBuildFlat$[ebp], 0
  010a0	75 22		 jne	 SHORT $L93798

; 276  : 		{
; 277  : 			m_fMinY = -fSizeSQ / 50.0f ;

  010a2	d9 45 08	 fld	 DWORD PTR _fSizeSQ$[ebp]
  010a5	d9 e0		 fchs
  010a7	d8 35 00 00 00
	00		 fdiv	 DWORD PTR __real@42480000
  010ad	8b 45 f8	 mov	 eax, DWORD PTR _this$[ebp]
  010b0	d9 58 1c	 fstp	 DWORD PTR [eax+28]

; 278  : 			m_fMaxY = +fSizeSQ / 10.0f ;

  010b3	d9 45 08	 fld	 DWORD PTR _fSizeSQ$[ebp]
  010b6	d8 35 00 00 00
	00		 fdiv	 DWORD PTR __real@41200000
  010bc	8b 45 f8	 mov	 eax, DWORD PTR _this$[ebp]
  010bf	d9 58 20	 fstp	 DWORD PTR [eax+32]

; 279  : 		}
; 280  : 		else

  010c2	eb 14		 jmp	 SHORT $L93799
$L93798:

; 281  : 		{
; 282  : 			m_fMinY = m_fMaxY = 0.0f ;

  010c4	8b 45 f8	 mov	 eax, DWORD PTR _this$[ebp]
  010c7	c7 40 20 00 00
	00 00		 mov	 DWORD PTR [eax+32], 0
  010ce	8b 4d f8	 mov	 ecx, DWORD PTR _this$[ebp]
  010d1	c7 41 1c 00 00
	00 00		 mov	 DWORD PTR [ecx+28], 0
$L93799:

; 283  : 		}
; 284  : 		
; 285  : 		float fMidY = (m_fMaxY - m_fMinY) / 2.0f + m_fMinY ;

  010d8	8b 45 f8	 mov	 eax, DWORD PTR _this$[ebp]
  010db	8b 4d f8	 mov	 ecx, DWORD PTR _this$[ebp]
  010de	d9 40 20	 fld	 DWORD PTR [eax+32]
  010e1	d8 61 1c	 fsub	 DWORD PTR [ecx+28]
  010e4	d8 35 00 00 00
	00		 fdiv	 DWORD PTR __real@40000000
  010ea	8b 55 f8	 mov	 edx, DWORD PTR _this$[ebp]
  010ed	d8 42 1c	 fadd	 DWORD PTR [edx+28]
  010f0	d9 9d c4 fa ff
	ff		 fstp	 DWORD PTR _fMidY$[ebp]

; 286  : 
; 287  : 		for (i = 0 ; i < 256 ; i ++)

  010f6	c7 45 b0 00 00
	00 00		 mov	 DWORD PTR _i$[ebp], 0
  010fd	eb 09		 jmp	 SHORT $L93801
$L93802:
  010ff	8b 45 b0	 mov	 eax, DWORD PTR _i$[ebp]
  01102	83 c0 01	 add	 eax, 1
  01105	89 45 b0	 mov	 DWORD PTR _i$[ebp], eax
$L93801:
  01108	81 7d b0 00 01
	00 00		 cmp	 DWORD PTR _i$[ebp], 256	; 00000100H
  0110f	73 18		 jae	 SHORT $L93803

; 288  : 			fRnd[i] = rnd() ;

  01111	e8 00 00 00 00	 call	 ?rnd@@YAMXZ		; rnd
  01116	c6 85 9f f6 ff
	ff 01		 mov	 BYTE PTR $T94742[ebp], 1
  0111d	8b 45 b0	 mov	 eax, DWORD PTR _i$[ebp]
  01120	d9 9c 85 a8 fb
	ff ff		 fstp	 DWORD PTR _fRnd$[ebp+eax*4]
  01127	eb d6		 jmp	 SHORT $L93802
$L93803:

; 289  : 
; 290  : 		i = 0 ;

  01129	c7 45 b0 00 00
	00 00		 mov	 DWORD PTR _i$[ebp], 0

; 291  : 		float fDebug = 0.0f ;

  01130	c7 85 b8 fa ff
	ff 00 00 00 00	 mov	 DWORD PTR _fDebug$[ebp], 0

; 292  : 		float fIndent = 0.1f ;

  0113a	c7 85 ac fa ff
	ff cd cc cc 3d	 mov	 DWORD PTR _fIndent$[ebp], 1036831949 ; 3dcccccdH

; 293  : 		for (unsigned int row = 0 ; row < m_nHeightmapSQ ; row ++)

  01144	c7 85 a0 fa ff
	ff 00 00 00 00	 mov	 DWORD PTR _row$93806[ebp], 0
  0114e	eb 0f		 jmp	 SHORT $L93807
$L93808:
  01150	8b 85 a0 fa ff
	ff		 mov	 eax, DWORD PTR _row$93806[ebp]
  01156	83 c0 01	 add	 eax, 1
  01159	89 85 a0 fa ff
	ff		 mov	 DWORD PTR _row$93806[ebp], eax
$L93807:
  0115f	8b 45 f8	 mov	 eax, DWORD PTR _this$[ebp]
  01162	8b 8d a0 fa ff
	ff		 mov	 ecx, DWORD PTR _row$93806[ebp]
  01168	3b 88 60 04 00
	00		 cmp	 ecx, DWORD PTR [eax+1120]
  0116e	0f 83 5c 07 00
	00		 jae	 $L93809

; 294  : 		{
; 295  : 			for (unsigned int col = 0 ; col < m_nHeightmapSQ ; col ++)

  01174	c7 85 94 fa ff
	ff 00 00 00 00	 mov	 DWORD PTR _col$93810[ebp], 0
  0117e	eb 0f		 jmp	 SHORT $L93811
$L93812:
  01180	8b 85 94 fa ff
	ff		 mov	 eax, DWORD PTR _col$93810[ebp]
  01186	83 c0 01	 add	 eax, 1
  01189	89 85 94 fa ff
	ff		 mov	 DWORD PTR _col$93810[ebp], eax
$L93811:
  0118f	8b 45 f8	 mov	 eax, DWORD PTR _this$[ebp]
  01192	8b 8d 94 fa ff
	ff		 mov	 ecx, DWORD PTR _col$93810[ebp]
  01198	3b 88 60 04 00
	00		 cmp	 ecx, DWORD PTR [eax+1120]
  0119e	0f 83 27 07 00
	00		 jae	 $L93813

; 296  : 			{
; 297  : 				sprintf(m_pX7->m_szLoadingGameInfo2, "m_pfHeightmap %03dx%03d [of %dx%d]", row, col, m_nHeightmapSQ-1, m_nHeightmapSQ-1) ;

  011a4	8b 45 f8	 mov	 eax, DWORD PTR _this$[ebp]
  011a7	8b 88 60 04 00
	00		 mov	 ecx, DWORD PTR [eax+1120]
  011ad	83 e9 01	 sub	 ecx, 1
  011b0	51		 push	 ecx
  011b1	8b 55 f8	 mov	 edx, DWORD PTR _this$[ebp]
  011b4	8b 82 60 04 00
	00		 mov	 eax, DWORD PTR [edx+1120]
  011ba	83 e8 01	 sub	 eax, 1
  011bd	50		 push	 eax
  011be	8b 8d 94 fa ff
	ff		 mov	 ecx, DWORD PTR _col$93810[ebp]
  011c4	51		 push	 ecx
  011c5	8b 95 a0 fa ff
	ff		 mov	 edx, DWORD PTR _row$93806[ebp]
  011cb	52		 push	 edx
  011cc	68 00 00 00 00	 push	 OFFSET FLAT:??_C@_0CD@BHAMOOPE@m_pfHeightmap?5?$CF03dx?$CF03d?5?$FLof?5?$CFdx?$CF@
  011d1	8b 45 f8	 mov	 eax, DWORD PTR _this$[ebp]
  011d4	8b 48 04	 mov	 ecx, DWORD PTR [eax+4]
  011d7	81 c1 81 a8 02
	00		 add	 ecx, 174209		; 0002a881H
  011dd	51		 push	 ecx
  011de	e8 00 00 00 00	 call	 _sprintf
  011e3	83 c4 18	 add	 esp, 24			; 00000018H

; 298  : 
; 299  : 			//
; 300  : 			// Compute height:
; 301  : 			//
; 302  : 				float fX, fY, fSX, fSY, fE1, fE2, fEA ;
; 303  : 				fEA = 0 ;

  011e6	c7 85 40 fa ff
	ff 00 00 00 00	 mov	 DWORD PTR _fEA$93821[ebp], 0

; 304  : 				fX  = (float)row / ((float)m_nHeightmapSQ) ;

  011f0	8b 85 a0 fa ff
	ff		 mov	 eax, DWORD PTR _row$93806[ebp]
  011f6	89 85 90 f6 ff
	ff		 mov	 DWORD PTR tv2627[ebp], eax
  011fc	c7 85 94 f6 ff
	ff 00 00 00 00	 mov	 DWORD PTR tv2627[ebp+4], 0
  01206	df ad 90 f6 ff
	ff		 fild	 QWORD PTR tv2627[ebp]
  0120c	8b 4d f8	 mov	 ecx, DWORD PTR _this$[ebp]
  0120f	8b 91 60 04 00
	00		 mov	 edx, DWORD PTR [ecx+1120]
  01215	89 95 88 f6 ff
	ff		 mov	 DWORD PTR tv2632[ebp], edx
  0121b	c7 85 8c f6 ff
	ff 00 00 00 00	 mov	 DWORD PTR tv2632[ebp+4], 0
  01225	df ad 88 f6 ff
	ff		 fild	 QWORD PTR tv2632[ebp]
  0122b	de f9		 fdivp	 ST(1), ST(0)
  0122d	d9 9d 88 fa ff
	ff		 fstp	 DWORD PTR _fX$93815[ebp]

; 305  : 				fY  = (float)col / ((float)m_nHeightmapSQ) ;

  01233	8b 85 94 fa ff
	ff		 mov	 eax, DWORD PTR _col$93810[ebp]
  01239	89 85 90 f6 ff
	ff		 mov	 DWORD PTR tv2636[ebp], eax
  0123f	c7 85 94 f6 ff
	ff 00 00 00 00	 mov	 DWORD PTR tv2636[ebp+4], 0
  01249	df ad 90 f6 ff
	ff		 fild	 QWORD PTR tv2636[ebp]
  0124f	8b 4d f8	 mov	 ecx, DWORD PTR _this$[ebp]
  01252	8b 91 60 04 00
	00		 mov	 edx, DWORD PTR [ecx+1120]
  01258	89 95 88 f6 ff
	ff		 mov	 DWORD PTR tv2641[ebp], edx
  0125e	c7 85 8c f6 ff
	ff 00 00 00 00	 mov	 DWORD PTR tv2641[ebp+4], 0
  01268	df ad 88 f6 ff
	ff		 fild	 QWORD PTR tv2641[ebp]
  0126e	de f9		 fdivp	 ST(1), ST(0)
  01270	d9 9d 7c fa ff
	ff		 fstp	 DWORD PTR _fY$93816[ebp]

; 306  : 
; 307  : 				if (row != 0 && row != m_nHeightmapSQ - 1 && col != 0 && col != m_nHeightmapSQ - 1)

  01276	83 bd a0 fa ff
	ff 00		 cmp	 DWORD PTR _row$93806[ebp], 0
  0127d	0f 84 ee 04 00
	00		 je	 $L93826
  01283	8b 45 f8	 mov	 eax, DWORD PTR _this$[ebp]
  01286	8b 88 60 04 00
	00		 mov	 ecx, DWORD PTR [eax+1120]
  0128c	83 e9 01	 sub	 ecx, 1
  0128f	39 8d a0 fa ff
	ff		 cmp	 DWORD PTR _row$93806[ebp], ecx
  01295	0f 84 d6 04 00
	00		 je	 $L93826
  0129b	83 bd 94 fa ff
	ff 00		 cmp	 DWORD PTR _col$93810[ebp], 0
  012a2	0f 84 c9 04 00
	00		 je	 $L93826
  012a8	8b 45 f8	 mov	 eax, DWORD PTR _this$[ebp]
  012ab	8b 88 60 04 00
	00		 mov	 ecx, DWORD PTR [eax+1120]
  012b1	83 e9 01	 sub	 ecx, 1
  012b4	39 8d 94 fa ff
	ff		 cmp	 DWORD PTR _col$93810[ebp], ecx
  012ba	0f 84 b1 04 00
	00		 je	 $L93826

; 308  : 				{
; 309  : 					fSX = g_PI * fX ;

  012c0	d9 05 00 00 00
	00		 fld	 DWORD PTR _g_PI
  012c6	d8 8d 88 fa ff
	ff		 fmul	 DWORD PTR _fX$93815[ebp]
  012cc	d9 9d 70 fa ff
	ff		 fstp	 DWORD PTR _fSX$93817[ebp]

; 310  : 					fSY = g_PI * fY ;

  012d2	d9 05 00 00 00
	00		 fld	 DWORD PTR _g_PI
  012d8	d8 8d 7c fa ff
	ff		 fmul	 DWORD PTR _fY$93816[ebp]
  012de	d9 9d 64 fa ff
	ff		 fstp	 DWORD PTR _fSY$93818[ebp]

; 311  : 
; 312  : 				// main low amp wave
; 313  : 					{
; 314  : 						fE1 = sinf(fSX) * ( fMountainFactor + 0.8f );

  012e4	8b 85 70 fa ff
	ff		 mov	 eax, DWORD PTR _fSX$93817[ebp]
  012ea	50		 push	 eax
  012eb	e8 00 00 00 00	 call	 _sinf
  012f0	83 c4 04	 add	 esp, 4
  012f3	d9 45 2c	 fld	 DWORD PTR _fMountainFactor$[ebp]
  012f6	d8 05 00 00 00
	00		 fadd	 DWORD PTR __real@3f4ccccd
  012fc	de c9		 fmulp	 ST(1), ST(0)
  012fe	d9 9d 58 fa ff
	ff		 fstp	 DWORD PTR _fE1$93819[ebp]

; 315  : 						fE2 = sinf(fSY) * ( fMountainFactor + 0.8f );

  01304	8b 85 64 fa ff
	ff		 mov	 eax, DWORD PTR _fSY$93818[ebp]
  0130a	50		 push	 eax
  0130b	e8 00 00 00 00	 call	 _sinf
  01310	83 c4 04	 add	 esp, 4
  01313	d9 45 2c	 fld	 DWORD PTR _fMountainFactor$[ebp]
  01316	d8 05 00 00 00
	00		 fadd	 DWORD PTR __real@3f4ccccd
  0131c	de c9		 fmulp	 ST(1), ST(0)
  0131e	d9 9d 4c fa ff
	ff		 fstp	 DWORD PTR _fE2$93820[ebp]

; 316  : 						fEA = ((fE1 + fE2)) / 2 ;

  01324	d9 85 58 fa ff
	ff		 fld	 DWORD PTR _fE1$93819[ebp]
  0132a	d8 85 4c fa ff
	ff		 fadd	 DWORD PTR _fE2$93820[ebp]
  01330	d8 35 00 00 00
	00		 fdiv	 DWORD PTR __real@40000000
  01336	d9 9d 40 fa ff
	ff		 fstp	 DWORD PTR _fEA$93821[ebp]

; 317  : 						if (fE1 < fE2) fEA = fE1 ; else fEA = fE2 ;

  0133c	d9 85 58 fa ff
	ff		 fld	 DWORD PTR _fE1$93819[ebp]
  01342	d8 9d 4c fa ff
	ff		 fcomp	 DWORD PTR _fE2$93820[ebp]
  01348	df e0		 fnstsw	 ax
  0134a	f6 c4 05	 test	 ah, 5
  0134d	7a 0e		 jp	 SHORT $L93827
  0134f	8b 85 58 fa ff
	ff		 mov	 eax, DWORD PTR _fE1$93819[ebp]
  01355	89 85 40 fa ff
	ff		 mov	 DWORD PTR _fEA$93821[ebp], eax
  0135b	eb 0c		 jmp	 SHORT $L93828
$L93827:
  0135d	8b 85 4c fa ff
	ff		 mov	 eax, DWORD PTR _fE2$93820[ebp]
  01363	89 85 40 fa ff
	ff		 mov	 DWORD PTR _fEA$93821[ebp], eax
$L93828:

; 318  : 					}
; 319  : 
; 320  : 				// mid amp. waves
; 321  : 					if( fX > fIndent && fX < 1.0f - fIndent &&
; 322  : 						fY > fIndent && fY < 1.0f - fIndent )

  01369	d9 85 88 fa ff
	ff		 fld	 DWORD PTR _fX$93815[ebp]
  0136f	d8 9d ac fa ff
	ff		 fcomp	 DWORD PTR _fIndent$[ebp]
  01375	df e0		 fnstsw	 ax
  01377	f6 c4 41	 test	 ah, 65			; 00000041H
  0137a	0f 85 8f 02 00
	00		 jne	 $L93829
  01380	d9 05 00 00 00
	00		 fld	 DWORD PTR __real@3f800000
  01386	d8 a5 ac fa ff
	ff		 fsub	 DWORD PTR _fIndent$[ebp]
  0138c	d8 9d 88 fa ff
	ff		 fcomp	 DWORD PTR _fX$93815[ebp]
  01392	df e0		 fnstsw	 ax
  01394	f6 c4 41	 test	 ah, 65			; 00000041H
  01397	0f 85 72 02 00
	00		 jne	 $L93829
  0139d	d9 85 7c fa ff
	ff		 fld	 DWORD PTR _fY$93816[ebp]
  013a3	d8 9d ac fa ff
	ff		 fcomp	 DWORD PTR _fIndent$[ebp]
  013a9	df e0		 fnstsw	 ax
  013ab	f6 c4 41	 test	 ah, 65			; 00000041H
  013ae	0f 85 5b 02 00
	00		 jne	 $L93829
  013b4	d9 05 00 00 00
	00		 fld	 DWORD PTR __real@3f800000
  013ba	d8 a5 ac fa ff
	ff		 fsub	 DWORD PTR _fIndent$[ebp]
  013c0	d8 9d 7c fa ff
	ff		 fcomp	 DWORD PTR _fY$93816[ebp]
  013c6	df e0		 fnstsw	 ax
  013c8	f6 c4 41	 test	 ah, 65			; 00000041H
  013cb	0f 85 3e 02 00
	00		 jne	 $L93829

; 323  : 					{
; 324  : 						fSX = g_PI * ( fX - fIndent ) / ( 1.0f - fIndent * 2.0f );

  013d1	d9 85 88 fa ff
	ff		 fld	 DWORD PTR _fX$93815[ebp]
  013d7	d8 a5 ac fa ff
	ff		 fsub	 DWORD PTR _fIndent$[ebp]
  013dd	d8 0d 00 00 00
	00		 fmul	 DWORD PTR _g_PI
  013e3	d9 85 ac fa ff
	ff		 fld	 DWORD PTR _fIndent$[ebp]
  013e9	dc c0		 fadd	 ST(0), ST(0)
  013eb	d8 2d 00 00 00
	00		 fsubr	 DWORD PTR __real@3f800000
  013f1	de f9		 fdivp	 ST(1), ST(0)
  013f3	d9 9d 70 fa ff
	ff		 fstp	 DWORD PTR _fSX$93817[ebp]

; 325  : 						fSY = g_PI * ( fY - fIndent ) / ( 1.0f - fIndent * 2.0f );

  013f9	d9 85 7c fa ff
	ff		 fld	 DWORD PTR _fY$93816[ebp]
  013ff	d8 a5 ac fa ff
	ff		 fsub	 DWORD PTR _fIndent$[ebp]
  01405	d8 0d 00 00 00
	00		 fmul	 DWORD PTR _g_PI
  0140b	d9 85 ac fa ff
	ff		 fld	 DWORD PTR _fIndent$[ebp]
  01411	dc c0		 fadd	 ST(0), ST(0)
  01413	d8 2d 00 00 00
	00		 fsubr	 DWORD PTR __real@3f800000
  01419	de f9		 fdivp	 ST(1), ST(0)
  0141b	d9 9d 64 fa ff
	ff		 fstp	 DWORD PTR _fSY$93818[ebp]

; 326  : 
; 327  : 						if( fMountainFactor > 0 )

  01421	d9 45 2c	 fld	 DWORD PTR _fMountainFactor$[ebp]
  01424	d8 1d 00 00 00
	00		 fcomp	 DWORD PTR __real@00000000
  0142a	df e0		 fnstsw	 ax
  0142c	f6 c4 41	 test	 ah, 65			; 00000041H
  0142f	0f 85 ae 00 00
	00		 jne	 $L93830

; 328  : 						{
; 329  : 							fE1 = sinf(fSX * 3.0f) * 0.7f * (fRnd[0] / 0.5f) ;

  01435	80 bd 9f f6 ff
	ff 00		 cmp	 BYTE PTR $T94742[ebp], 0
  0143c	75 0d		 jne	 SHORT $L94743
  0143e	68 00 00 00 00	 push	 OFFSET FLAT:$L94744
  01443	e8 00 00 00 00	 call	 __RTC_UninitUse
  01448	83 c4 04	 add	 esp, 4
$L94743:
  0144b	d9 85 70 fa ff
	ff		 fld	 DWORD PTR _fSX$93817[ebp]
  01451	d8 0d 00 00 00
	00		 fmul	 DWORD PTR __real@40400000
  01457	51		 push	 ecx
  01458	d9 1c 24	 fstp	 DWORD PTR [esp]
  0145b	e8 00 00 00 00	 call	 _sinf
  01460	83 c4 04	 add	 esp, 4
  01463	d8 0d 00 00 00
	00		 fmul	 DWORD PTR __real@3f333333
  01469	d9 85 a8 fb ff
	ff		 fld	 DWORD PTR _fRnd$[ebp]
  0146f	d8 35 00 00 00
	00		 fdiv	 DWORD PTR __real@3f000000
  01475	de c9		 fmulp	 ST(1), ST(0)
  01477	d9 9d 58 fa ff
	ff		 fstp	 DWORD PTR _fE1$93819[ebp]

; 330  : 							fE2 = sinf(fSY * 3.0f) * 0.7f * (fRnd[0] / 0.5f) ;

  0147d	80 bd 9f f6 ff
	ff 00		 cmp	 BYTE PTR $T94742[ebp], 0
  01484	75 0d		 jne	 SHORT $L94746
  01486	68 00 00 00 00	 push	 OFFSET FLAT:$L94744
  0148b	e8 00 00 00 00	 call	 __RTC_UninitUse
  01490	83 c4 04	 add	 esp, 4
$L94746:
  01493	d9 85 64 fa ff
	ff		 fld	 DWORD PTR _fSY$93818[ebp]
  01499	d8 0d 00 00 00
	00		 fmul	 DWORD PTR __real@40400000
  0149f	51		 push	 ecx
  014a0	d9 1c 24	 fstp	 DWORD PTR [esp]
  014a3	e8 00 00 00 00	 call	 _sinf
  014a8	83 c4 04	 add	 esp, 4
  014ab	d8 0d 00 00 00
	00		 fmul	 DWORD PTR __real@3f333333
  014b1	d9 85 a8 fb ff
	ff		 fld	 DWORD PTR _fRnd$[ebp]
  014b7	d8 35 00 00 00
	00		 fdiv	 DWORD PTR __real@3f000000
  014bd	de c9		 fmulp	 ST(1), ST(0)
  014bf	d9 9d 4c fa ff
	ff		 fstp	 DWORD PTR _fE2$93820[ebp]

; 331  : 							fEA += (fE1 + fE2) / 2.0f ;

  014c5	d9 85 58 fa ff
	ff		 fld	 DWORD PTR _fE1$93819[ebp]
  014cb	d8 85 4c fa ff
	ff		 fadd	 DWORD PTR _fE2$93820[ebp]
  014d1	d8 35 00 00 00
	00		 fdiv	 DWORD PTR __real@40000000
  014d7	d8 85 40 fa ff
	ff		 fadd	 DWORD PTR _fEA$93821[ebp]
  014dd	d9 9d 40 fa ff
	ff		 fstp	 DWORD PTR _fEA$93821[ebp]
$L93830:

; 332  : 						}
; 333  : 
; 334  : 						// this style OVERWRITES fEA from the main bump,
; 335  : 						// pulling it DOWN; this has the effect of making no HM points
; 336  : 						// == to fMaxY, this in turn causes no spawn positions to
; 337  : 						// be generated, which in turn causes the fighter to spawn under
; 338  : 						// the terrain. ouch. it *does* blend the smaller bumps
; 339  : 						// smoothly though.
; 340  : 						//if (fE1 < fE2) fEA = fE1 ; else fEA = fE2 ;
; 341  : 					
; 342  : 						if( fMountainFactor > 0.2f )

  014e3	d9 45 2c	 fld	 DWORD PTR _fMountainFactor$[ebp]
  014e6	d8 1d 00 00 00
	00		 fcomp	 DWORD PTR __real@3e4ccccd
  014ec	df e0		 fnstsw	 ax
  014ee	f6 c4 41	 test	 ah, 65			; 00000041H
  014f1	0f 85 82 00 00
	00		 jne	 $L93831

; 343  : 						{
; 344  : 							fE1 = sinf(fSX * 1.0f) * 0.5f * (fRnd[1] / 0.5f) ;

  014f7	d9 85 70 fa ff
	ff		 fld	 DWORD PTR _fSX$93817[ebp]
  014fd	d8 0d 00 00 00
	00		 fmul	 DWORD PTR __real@3f800000
  01503	51		 push	 ecx
  01504	d9 1c 24	 fstp	 DWORD PTR [esp]
  01507	e8 00 00 00 00	 call	 _sinf
  0150c	83 c4 04	 add	 esp, 4
  0150f	d8 0d 00 00 00
	00		 fmul	 DWORD PTR __real@3f000000
  01515	d9 85 ac fb ff
	ff		 fld	 DWORD PTR _fRnd$[ebp+4]
  0151b	d8 35 00 00 00
	00		 fdiv	 DWORD PTR __real@3f000000
  01521	de c9		 fmulp	 ST(1), ST(0)
  01523	d9 9d 58 fa ff
	ff		 fstp	 DWORD PTR _fE1$93819[ebp]

; 345  : 							fE2 = sinf(fSY * 1.0f) * 0.5f * (fRnd[1] / 0.5f) ;

  01529	d9 85 64 fa ff
	ff		 fld	 DWORD PTR _fSY$93818[ebp]
  0152f	d8 0d 00 00 00
	00		 fmul	 DWORD PTR __real@3f800000
  01535	51		 push	 ecx
  01536	d9 1c 24	 fstp	 DWORD PTR [esp]
  01539	e8 00 00 00 00	 call	 _sinf
  0153e	83 c4 04	 add	 esp, 4
  01541	d8 0d 00 00 00
	00		 fmul	 DWORD PTR __real@3f000000
  01547	d9 85 ac fb ff
	ff		 fld	 DWORD PTR _fRnd$[ebp+4]
  0154d	d8 35 00 00 00
	00		 fdiv	 DWORD PTR __real@3f000000
  01553	de c9		 fmulp	 ST(1), ST(0)
  01555	d9 9d 4c fa ff
	ff		 fstp	 DWORD PTR _fE2$93820[ebp]

; 346  : 							fEA += (fE1 + fE2) / 2.0f ;

  0155b	d9 85 58 fa ff
	ff		 fld	 DWORD PTR _fE1$93819[ebp]
  01561	d8 85 4c fa ff
	ff		 fadd	 DWORD PTR _fE2$93820[ebp]
  01567	d8 35 00 00 00
	00		 fdiv	 DWORD PTR __real@40000000
  0156d	d8 85 40 fa ff
	ff		 fadd	 DWORD PTR _fEA$93821[ebp]
  01573	d9 9d 40 fa ff
	ff		 fstp	 DWORD PTR _fEA$93821[ebp]
$L93831:

; 347  : 						}
; 348  : 
; 349  : 						if( fMountainFactor > 0.6f )

  01579	d9 45 2c	 fld	 DWORD PTR _fMountainFactor$[ebp]
  0157c	d8 1d 00 00 00
	00		 fcomp	 DWORD PTR __real@3f19999a
  01582	df e0		 fnstsw	 ax
  01584	f6 c4 41	 test	 ah, 65			; 00000041H
  01587	0f 85 82 00 00
	00		 jne	 $L93829

; 350  : 						{
; 351  : 							fE1 = sinf(fSX * 3.0f) * 0.4f * (fRnd[2] / 0.5f) ;

  0158d	d9 85 70 fa ff
	ff		 fld	 DWORD PTR _fSX$93817[ebp]
  01593	d8 0d 00 00 00
	00		 fmul	 DWORD PTR __real@40400000
  01599	51		 push	 ecx
  0159a	d9 1c 24	 fstp	 DWORD PTR [esp]
  0159d	e8 00 00 00 00	 call	 _sinf
  015a2	83 c4 04	 add	 esp, 4
  015a5	d8 0d 00 00 00
	00		 fmul	 DWORD PTR __real@3ecccccd
  015ab	d9 85 b0 fb ff
	ff		 fld	 DWORD PTR _fRnd$[ebp+8]
  015b1	d8 35 00 00 00
	00		 fdiv	 DWORD PTR __real@3f000000
  015b7	de c9		 fmulp	 ST(1), ST(0)
  015b9	d9 9d 58 fa ff
	ff		 fstp	 DWORD PTR _fE1$93819[ebp]

; 352  : 							fE2 = sinf(fSY * 3.0f) * 0.4f * (fRnd[2] / 0.5f) ;

  015bf	d9 85 64 fa ff
	ff		 fld	 DWORD PTR _fSY$93818[ebp]
  015c5	d8 0d 00 00 00
	00		 fmul	 DWORD PTR __real@40400000
  015cb	51		 push	 ecx
  015cc	d9 1c 24	 fstp	 DWORD PTR [esp]
  015cf	e8 00 00 00 00	 call	 _sinf
  015d4	83 c4 04	 add	 esp, 4
  015d7	d8 0d 00 00 00
	00		 fmul	 DWORD PTR __real@3ecccccd
  015dd	d9 85 b0 fb ff
	ff		 fld	 DWORD PTR _fRnd$[ebp+8]
  015e3	d8 35 00 00 00
	00		 fdiv	 DWORD PTR __real@3f000000
  015e9	de c9		 fmulp	 ST(1), ST(0)
  015eb	d9 9d 4c fa ff
	ff		 fstp	 DWORD PTR _fE2$93820[ebp]

; 353  : 							fEA += (fE1 + fE2) / 2.0f ;

  015f1	d9 85 58 fa ff
	ff		 fld	 DWORD PTR _fE1$93819[ebp]
  015f7	d8 85 4c fa ff
	ff		 fadd	 DWORD PTR _fE2$93820[ebp]
  015fd	d8 35 00 00 00
	00		 fdiv	 DWORD PTR __real@40000000
  01603	d8 85 40 fa ff
	ff		 fadd	 DWORD PTR _fEA$93821[ebp]
  01609	d9 9d 40 fa ff
	ff		 fstp	 DWORD PTR _fEA$93821[ebp]
$L93829:

; 354  : 						}
; 355  : 
; 356  : 						/*if( fMountainFactor > 0.8f )
; 357  : 						{
; 358  : 							fE1 = sinf(fSX * 32.0f) * 0.3f * (fRnd[3] / 0.5f) ;
; 359  : 							fE2 = sinf(fSY * 32.0f) * 0.3f * (fRnd[3] / 0.5f) ;
; 360  : 							fEA += (fE1 + fE2) / 2.0f ;
; 361  : 						}*/
; 362  : 					}
; 363  : 
; 364  : 				// low amp. waves
; 365  : 					if( fMountainFactor > 0.6f )

  0160f	d9 45 2c	 fld	 DWORD PTR _fMountainFactor$[ebp]
  01612	d8 1d 00 00 00
	00		 fcomp	 DWORD PTR __real@3f19999a
  01618	df e0		 fnstsw	 ax
  0161a	f6 c4 41	 test	 ah, 65			; 00000041H
  0161d	75 66		 jne	 SHORT $L93833

; 366  : 					{
; 367  : 						fE1 = sinf(fSX * 64.0f) * 0.03f ;

  0161f	d9 85 70 fa ff
	ff		 fld	 DWORD PTR _fSX$93817[ebp]
  01625	d8 0d 00 00 00
	00		 fmul	 DWORD PTR __real@42800000
  0162b	51		 push	 ecx
  0162c	d9 1c 24	 fstp	 DWORD PTR [esp]
  0162f	e8 00 00 00 00	 call	 _sinf
  01634	83 c4 04	 add	 esp, 4
  01637	d8 0d 00 00 00
	00		 fmul	 DWORD PTR __real@3cf5c28f
  0163d	d9 9d 58 fa ff
	ff		 fstp	 DWORD PTR _fE1$93819[ebp]

; 368  : 						fE2 = sinf(fSY * 64.0f) * 0.03f ;

  01643	d9 85 64 fa ff
	ff		 fld	 DWORD PTR _fSY$93818[ebp]
  01649	d8 0d 00 00 00
	00		 fmul	 DWORD PTR __real@42800000
  0164f	51		 push	 ecx
  01650	d9 1c 24	 fstp	 DWORD PTR [esp]
  01653	e8 00 00 00 00	 call	 _sinf
  01658	83 c4 04	 add	 esp, 4
  0165b	d8 0d 00 00 00
	00		 fmul	 DWORD PTR __real@3cf5c28f
  01661	d9 9d 4c fa ff
	ff		 fstp	 DWORD PTR _fE2$93820[ebp]

; 369  : 						fEA += (fE1 + fE2) / 2.0f ;

  01667	d9 85 58 fa ff
	ff		 fld	 DWORD PTR _fE1$93819[ebp]
  0166d	d8 85 4c fa ff
	ff		 fadd	 DWORD PTR _fE2$93820[ebp]
  01673	d8 35 00 00 00
	00		 fdiv	 DWORD PTR __real@40000000
  01679	d8 85 40 fa ff
	ff		 fadd	 DWORD PTR _fEA$93821[ebp]
  0167f	d9 9d 40 fa ff
	ff		 fstp	 DWORD PTR _fEA$93821[ebp]
$L93833:

; 370  : 					}
; 371  : 
; 372  : 					if( fMountainFactor > 0.7f )

  01685	d9 45 2c	 fld	 DWORD PTR _fMountainFactor$[ebp]
  01688	d8 1d 00 00 00
	00		 fcomp	 DWORD PTR __real@3f333333
  0168e	df e0		 fnstsw	 ax
  01690	f6 c4 41	 test	 ah, 65			; 00000041H
  01693	75 66		 jne	 SHORT $L93834

; 373  : 					{
; 374  : 						fE1 = sinf(fSX * 128.0f) * 0.02f ;

  01695	d9 85 70 fa ff
	ff		 fld	 DWORD PTR _fSX$93817[ebp]
  0169b	d8 0d 00 00 00
	00		 fmul	 DWORD PTR __real@43000000
  016a1	51		 push	 ecx
  016a2	d9 1c 24	 fstp	 DWORD PTR [esp]
  016a5	e8 00 00 00 00	 call	 _sinf
  016aa	83 c4 04	 add	 esp, 4
  016ad	d8 0d 00 00 00
	00		 fmul	 DWORD PTR __real@3ca3d70a
  016b3	d9 9d 58 fa ff
	ff		 fstp	 DWORD PTR _fE1$93819[ebp]

; 375  : 						fE2 = sinf(fSY * 128.0f) * 0.02f ;

  016b9	d9 85 64 fa ff
	ff		 fld	 DWORD PTR _fSY$93818[ebp]
  016bf	d8 0d 00 00 00
	00		 fmul	 DWORD PTR __real@43000000
  016c5	51		 push	 ecx
  016c6	d9 1c 24	 fstp	 DWORD PTR [esp]
  016c9	e8 00 00 00 00	 call	 _sinf
  016ce	83 c4 04	 add	 esp, 4
  016d1	d8 0d 00 00 00
	00		 fmul	 DWORD PTR __real@3ca3d70a
  016d7	d9 9d 4c fa ff
	ff		 fstp	 DWORD PTR _fE2$93820[ebp]

; 376  : 						fEA += (fE1 + fE2) / 2.0f ;

  016dd	d9 85 58 fa ff
	ff		 fld	 DWORD PTR _fE1$93819[ebp]
  016e3	d8 85 4c fa ff
	ff		 fadd	 DWORD PTR _fE2$93820[ebp]
  016e9	d8 35 00 00 00
	00		 fdiv	 DWORD PTR __real@40000000
  016ef	d8 85 40 fa ff
	ff		 fadd	 DWORD PTR _fEA$93821[ebp]
  016f5	d9 9d 40 fa ff
	ff		 fstp	 DWORD PTR _fEA$93821[ebp]
$L93834:

; 377  : 					}
; 378  : 
; 379  : 					if( fMountainFactor > 0.8f )

  016fb	d9 45 2c	 fld	 DWORD PTR _fMountainFactor$[ebp]
  016fe	d8 1d 00 00 00
	00		 fcomp	 DWORD PTR __real@3f4ccccd
  01704	df e0		 fnstsw	 ax
  01706	f6 c4 41	 test	 ah, 65			; 00000041H
  01709	75 66		 jne	 SHORT $L93826

; 380  : 					{
; 381  : 						fE1 = sinf(fSX * 256.0f) * 0.01f ;

  0170b	d9 85 70 fa ff
	ff		 fld	 DWORD PTR _fSX$93817[ebp]
  01711	d8 0d 00 00 00
	00		 fmul	 DWORD PTR __real@43800000
  01717	51		 push	 ecx
  01718	d9 1c 24	 fstp	 DWORD PTR [esp]
  0171b	e8 00 00 00 00	 call	 _sinf
  01720	83 c4 04	 add	 esp, 4
  01723	d8 0d 00 00 00
	00		 fmul	 DWORD PTR __real@3c23d70a
  01729	d9 9d 58 fa ff
	ff		 fstp	 DWORD PTR _fE1$93819[ebp]

; 382  : 						fE2 = sinf(fSY * 256.0f) * 0.01f ;

  0172f	d9 85 64 fa ff
	ff		 fld	 DWORD PTR _fSY$93818[ebp]
  01735	d8 0d 00 00 00
	00		 fmul	 DWORD PTR __real@43800000
  0173b	51		 push	 ecx
  0173c	d9 1c 24	 fstp	 DWORD PTR [esp]
  0173f	e8 00 00 00 00	 call	 _sinf
  01744	83 c4 04	 add	 esp, 4
  01747	d8 0d 00 00 00
	00		 fmul	 DWORD PTR __real@3c23d70a
  0174d	d9 9d 4c fa ff
	ff		 fstp	 DWORD PTR _fE2$93820[ebp]

; 383  : 						fEA += (fE1 + fE2) / 2.0f ;

  01753	d9 85 58 fa ff
	ff		 fld	 DWORD PTR _fE1$93819[ebp]
  01759	d8 85 4c fa ff
	ff		 fadd	 DWORD PTR _fE2$93820[ebp]
  0175f	d8 35 00 00 00
	00		 fdiv	 DWORD PTR __real@40000000
  01765	d8 85 40 fa ff
	ff		 fadd	 DWORD PTR _fEA$93821[ebp]
  0176b	d9 9d 40 fa ff
	ff		 fstp	 DWORD PTR _fEA$93821[ebp]
$L93826:

; 384  : 					}
; 385  : 				}
; 386  : 
; 387  : 			// clamp
; 388  : 				if (fEA > 1.0f)	fEA = 1.0f ;

  01771	d9 85 40 fa ff
	ff		 fld	 DWORD PTR _fEA$93821[ebp]
  01777	d8 1d 00 00 00
	00		 fcomp	 DWORD PTR __real@3f800000
  0177d	df e0		 fnstsw	 ax
  0177f	f6 c4 41	 test	 ah, 65			; 00000041H
  01782	75 0a		 jne	 SHORT $L93836
  01784	c7 85 40 fa ff
	ff 00 00 80 3f	 mov	 DWORD PTR _fEA$93821[ebp], 1065353216 ; 3f800000H
$L93836:

; 389  : 				if (fEA < 0.0f)	fEA = 0.0f ;

  0178e	d9 85 40 fa ff
	ff		 fld	 DWORD PTR _fEA$93821[ebp]
  01794	d8 1d 00 00 00
	00		 fcomp	 DWORD PTR __real@00000000
  0179a	df e0		 fnstsw	 ax
  0179c	f6 c4 05	 test	 ah, 5
  0179f	7a 0a		 jp	 SHORT $L93837
  017a1	c7 85 40 fa ff
	ff 00 00 00 00	 mov	 DWORD PTR _fEA$93821[ebp], 0
$L93837:

; 390  : 
; 391  : 			// randomize a little
; 392  : 				fEA += rnd() * 0.01f * (rnd() > 0.5f ? +1.0f : -1.0f) ;

  017ab	e8 00 00 00 00	 call	 ?rnd@@YAMXZ		; rnd
  017b0	d8 1d 00 00 00
	00		 fcomp	 DWORD PTR __real@3f000000
  017b6	df e0		 fnstsw	 ax
  017b8	f6 c4 41	 test	 ah, 65			; 00000041H
  017bb	75 0c		 jne	 SHORT $L94715
  017bd	c7 85 94 f6 ff
	ff 00 00 80 3f	 mov	 DWORD PTR tv1062[ebp], 1065353216 ; 3f800000H
  017c7	eb 0a		 jmp	 SHORT $L94716
$L94715:
  017c9	c7 85 94 f6 ff
	ff 00 00 80 bf	 mov	 DWORD PTR tv1062[ebp], -1082130432 ; bf800000H
$L94716:
  017d3	e8 00 00 00 00	 call	 ?rnd@@YAMXZ		; rnd
  017d8	d8 0d 00 00 00
	00		 fmul	 DWORD PTR __real@3c23d70a
  017de	d8 8d 94 f6 ff
	ff		 fmul	 DWORD PTR tv1062[ebp]
  017e4	d8 85 40 fa ff
	ff		 fadd	 DWORD PTR _fEA$93821[ebp]
  017ea	d9 9d 40 fa ff
	ff		 fstp	 DWORD PTR _fEA$93821[ebp]

; 393  : 
; 394  : 			// clamp
; 395  : 				if (fEA > 1.0f)	fEA = 1.0f ;

  017f0	d9 85 40 fa ff
	ff		 fld	 DWORD PTR _fEA$93821[ebp]
  017f6	d8 1d 00 00 00
	00		 fcomp	 DWORD PTR __real@3f800000
  017fc	df e0		 fnstsw	 ax
  017fe	f6 c4 41	 test	 ah, 65			; 00000041H
  01801	75 0a		 jne	 SHORT $L93838
  01803	c7 85 40 fa ff
	ff 00 00 80 3f	 mov	 DWORD PTR _fEA$93821[ebp], 1065353216 ; 3f800000H
$L93838:

; 396  : 				if (fEA < 0.0f)	fEA = 0.0f ;

  0180d	d9 85 40 fa ff
	ff		 fld	 DWORD PTR _fEA$93821[ebp]
  01813	d8 1d 00 00 00
	00		 fcomp	 DWORD PTR __real@00000000
  01819	df e0		 fnstsw	 ax
  0181b	f6 c4 05	 test	 ah, 5
  0181e	7a 0a		 jp	 SHORT $L93839
  01820	c7 85 40 fa ff
	ff 00 00 00 00	 mov	 DWORD PTR _fEA$93821[ebp], 0
$L93839:

; 397  : 
; 398  : 			// assign to heightmap
; 399  : 				m_pfHeightmap[i] = m_fMinY + fEA * (m_fMaxY - m_fMinY) ;

  0182a	8b 45 f8	 mov	 eax, DWORD PTR _this$[ebp]
  0182d	8b 4d f8	 mov	 ecx, DWORD PTR _this$[ebp]
  01830	d9 40 20	 fld	 DWORD PTR [eax+32]
  01833	d8 61 1c	 fsub	 DWORD PTR [ecx+28]
  01836	d8 8d 40 fa ff
	ff		 fmul	 DWORD PTR _fEA$93821[ebp]
  0183c	8b 55 f8	 mov	 edx, DWORD PTR _this$[ebp]
  0183f	d8 42 1c	 fadd	 DWORD PTR [edx+28]
  01842	8b 45 f8	 mov	 eax, DWORD PTR _this$[ebp]
  01845	8b 88 5c 04 00
	00		 mov	 ecx, DWORD PTR [eax+1116]
  0184b	8b 55 b0	 mov	 edx, DWORD PTR _i$[ebp]
  0184e	d9 1c 91	 fstp	 DWORD PTR [ecx+edx*4]

; 400  : 				m_pfHeightmap[i] = fDebug++ ;

  01851	8b 45 f8	 mov	 eax, DWORD PTR _this$[ebp]
  01854	8b 88 5c 04 00
	00		 mov	 ecx, DWORD PTR [eax+1116]
  0185a	8b 55 b0	 mov	 edx, DWORD PTR _i$[ebp]
  0185d	8b 85 b8 fa ff
	ff		 mov	 eax, DWORD PTR _fDebug$[ebp]
  01863	89 04 91	 mov	 DWORD PTR [ecx+edx*4], eax
  01866	d9 85 b8 fa ff
	ff		 fld	 DWORD PTR _fDebug$[ebp]
  0186c	d8 05 00 00 00
	00		 fadd	 DWORD PTR __real@3f800000
  01872	d9 9d b8 fa ff
	ff		 fstp	 DWORD PTR _fDebug$[ebp]

; 401  : 				
; 402  : 				if( bBuildFlat )

  01878	83 bd d0 fa ff
	ff 00		 cmp	 DWORD PTR _bBuildFlat$[ebp], 0
  0187f	74 15		 je	 SHORT $L93840

; 403  : 					m_pfHeightmap[i] = 0 ;

  01881	8b 45 f8	 mov	 eax, DWORD PTR _this$[ebp]
  01884	8b 88 5c 04 00
	00		 mov	 ecx, DWORD PTR [eax+1116]
  0188a	8b 55 b0	 mov	 edx, DWORD PTR _i$[ebp]
  0188d	c7 04 91 00 00
	00 00		 mov	 DWORD PTR [ecx+edx*4], 0

; 404  : 				else

  01894	eb 27		 jmp	 SHORT $L93841
$L93840:

; 405  : 					m_pfHeightmap[i] = m_fMinY + fEA * (m_fMaxY - m_fMinY) ;

  01896	8b 45 f8	 mov	 eax, DWORD PTR _this$[ebp]
  01899	8b 4d f8	 mov	 ecx, DWORD PTR _this$[ebp]
  0189c	d9 40 20	 fld	 DWORD PTR [eax+32]
  0189f	d8 61 1c	 fsub	 DWORD PTR [ecx+28]
  018a2	d8 8d 40 fa ff
	ff		 fmul	 DWORD PTR _fEA$93821[ebp]
  018a8	8b 55 f8	 mov	 edx, DWORD PTR _this$[ebp]
  018ab	d8 42 1c	 fadd	 DWORD PTR [edx+28]
  018ae	8b 45 f8	 mov	 eax, DWORD PTR _this$[ebp]
  018b1	8b 88 5c 04 00
	00		 mov	 ecx, DWORD PTR [eax+1116]
  018b7	8b 55 b0	 mov	 edx, DWORD PTR _i$[ebp]
  018ba	d9 1c 91	 fstp	 DWORD PTR [ecx+edx*4]
$L93841:

; 406  : 
; 407  : 				//flat sloping plane.
; 408  : 				/*m_pfHeightmap[i] = (((float)row / (float)(m_nHeightmapSQ - 1)) * -fSizeSQ/2) ;
; 409  : 				m_fMinY = -fSizeSQ/2 ;
; 410  : 				m_fMaxY = 0.0f ;*/
; 411  : 
; 412  : 			// Next...!
; 413  : 				i++ ;

  018bd	8b 45 b0	 mov	 eax, DWORD PTR _i$[ebp]
  018c0	83 c0 01	 add	 eax, 1
  018c3	89 45 b0	 mov	 DWORD PTR _i$[ebp], eax

; 414  : 			}

  018c6	e9 b5 f8 ff ff	 jmp	 $L93812
$L93813:

; 415  : 		}

  018cb	e9 80 f8 ff ff	 jmp	 $L93808
$L93809:

; 416  : 	
; 417  : 	//
; 418  : 	// Blend in spline-based trench. Note that this further lowers m_fMinY.
; 419  : 	//
; 420  : 		sprintf(m_pX7->m_szLoadingGameInfo2, "BlendSplineTrench()", i, m_nHeightmapSQ * m_nHeightmapSQ) ;

  018d0	8b 45 f8	 mov	 eax, DWORD PTR _this$[ebp]
  018d3	8b 4d f8	 mov	 ecx, DWORD PTR _this$[ebp]
  018d6	8b 90 60 04 00
	00		 mov	 edx, DWORD PTR [eax+1120]
  018dc	0f af 91 60 04
	00 00		 imul	 edx, DWORD PTR [ecx+1120]
  018e3	52		 push	 edx
  018e4	8b 45 b0	 mov	 eax, DWORD PTR _i$[ebp]
  018e7	50		 push	 eax
  018e8	68 00 00 00 00	 push	 OFFSET FLAT:??_C@_0BE@EBCPFEJJ@BlendSplineTrench?$CI?$CJ?$AA@
  018ed	8b 4d f8	 mov	 ecx, DWORD PTR _this$[ebp]
  018f0	8b 51 04	 mov	 edx, DWORD PTR [ecx+4]
  018f3	81 c2 81 a8 02
	00		 add	 edx, 174209		; 0002a881H
  018f9	52		 push	 edx
  018fa	e8 00 00 00 00	 call	 _sprintf
  018ff	83 c4 10	 add	 esp, 16			; 00000010H

; 421  : 		BlendSplineTrench() ;

  01902	8b 4d f8	 mov	 ecx, DWORD PTR _this$[ebp]
  01905	e8 00 00 00 00	 call	 ?BlendSplineTrench@CTerrain@@QAEHXZ ; CTerrain::BlendSplineTrench

; 422  : 
; 423  : 	//
; 424  : 	// Compute primary color gradient:
; 425  : 	//
; 426  : 		float fFullRange = m_fMaxY - m_fMinY ;

  0190a	8b 45 f8	 mov	 eax, DWORD PTR _this$[ebp]
  0190d	8b 4d f8	 mov	 ecx, DWORD PTR _this$[ebp]
  01910	d9 40 20	 fld	 DWORD PTR [eax+32]
  01913	d8 61 1c	 fsub	 DWORD PTR [ecx+28]
  01916	d9 9d 34 fa ff
	ff		 fstp	 DWORD PTR _fFullRange$[ebp]

; 427  : 		float fHalfRange = fFullRange / 2.0f ;

  0191c	d9 85 34 fa ff
	ff		 fld	 DWORD PTR _fFullRange$[ebp]
  01922	d8 35 00 00 00
	00		 fdiv	 DWORD PTR __real@40000000
  01928	d9 9d 28 fa ff
	ff		 fstp	 DWORD PTR _fHalfRange$[ebp]

; 428  : 		for (i = 0 ; i < m_nHeightmapSQ * m_nHeightmapSQ ; i ++)

  0192e	c7 45 b0 00 00
	00 00		 mov	 DWORD PTR _i$[ebp], 0
  01935	eb 09		 jmp	 SHORT $L93845
$L93846:
  01937	8b 45 b0	 mov	 eax, DWORD PTR _i$[ebp]
  0193a	83 c0 01	 add	 eax, 1
  0193d	89 45 b0	 mov	 DWORD PTR _i$[ebp], eax
$L93845:
  01940	8b 45 f8	 mov	 eax, DWORD PTR _this$[ebp]
  01943	8b 4d f8	 mov	 ecx, DWORD PTR _this$[ebp]
  01946	8b 90 60 04 00
	00		 mov	 edx, DWORD PTR [eax+1120]
  0194c	0f af 91 60 04
	00 00		 imul	 edx, DWORD PTR [ecx+1120]
  01953	39 55 b0	 cmp	 DWORD PTR _i$[ebp], edx
  01956	0f 83 d9 02 00
	00		 jae	 $L93847

; 429  : 		{
; 430  : 		// three different types of gradient; user-specified for each colour:
; 431  : 		// note that ColorFactor2 and ColorFactor3 are IGNORED!
; 432  : 
; 433  : 			if( ColorFactor1 == 1 )

  0195c	83 7d 40 01	 cmp	 DWORD PTR _ColorFactor1$[ebp], 1
  01960	0f 85 8c 00 00
	00		 jne	 $L93848

; 434  : 			{
; 435  : 				m_pColormap[i].r = (fabsf(fMidY - m_pfHeightmap[i]) / fHalfRange) ;		// 1 - 0 - 1

  01966	8b 45 f8	 mov	 eax, DWORD PTR _this$[ebp]
  01969	8b 88 5c 04 00
	00		 mov	 ecx, DWORD PTR [eax+1116]
  0196f	8b 55 b0	 mov	 edx, DWORD PTR _i$[ebp]
  01972	d9 85 c4 fa ff
	ff		 fld	 DWORD PTR _fMidY$[ebp]
  01978	d8 24 91	 fsub	 DWORD PTR [ecx+edx*4]
  0197b	51		 push	 ecx
  0197c	d9 1c 24	 fstp	 DWORD PTR [esp]
  0197f	e8 00 00 00 00	 call	 _fabsf
  01984	83 c4 04	 add	 esp, 4
  01987	d8 b5 28 fa ff
	ff		 fdiv	 DWORD PTR _fHalfRange$[ebp]
  0198d	8b 45 b0	 mov	 eax, DWORD PTR _i$[ebp]
  01990	c1 e0 04	 shl	 eax, 4
  01993	8b 4d f8	 mov	 ecx, DWORD PTR _this$[ebp]
  01996	8b 91 68 04 00
	00		 mov	 edx, DWORD PTR [ecx+1128]
  0199c	d9 1c 10	 fstp	 DWORD PTR [eax+edx]

; 436  : 				m_pColormap[i].g = 1 ;													

  0199f	8b 45 b0	 mov	 eax, DWORD PTR _i$[ebp]
  019a2	c1 e0 04	 shl	 eax, 4
  019a5	8b 4d f8	 mov	 ecx, DWORD PTR _this$[ebp]
  019a8	8b 91 68 04 00
	00		 mov	 edx, DWORD PTR [ecx+1128]
  019ae	c7 44 02 04 00
	00 80 3f	 mov	 DWORD PTR [edx+eax+4], 1065353216 ; 3f800000H

; 437  : 				m_pColormap[i].b = (m_pfHeightmap[i] + fabsf(m_fMinY)) / fFullRange ;

  019b6	8b 45 f8	 mov	 eax, DWORD PTR _this$[ebp]
  019b9	8b b0 5c 04 00
	00		 mov	 esi, DWORD PTR [eax+1116]
  019bf	8b 4d f8	 mov	 ecx, DWORD PTR _this$[ebp]
  019c2	8b 51 1c	 mov	 edx, DWORD PTR [ecx+28]
  019c5	52		 push	 edx
  019c6	e8 00 00 00 00	 call	 _fabsf
  019cb	83 c4 04	 add	 esp, 4
  019ce	8b 45 b0	 mov	 eax, DWORD PTR _i$[ebp]
  019d1	d8 04 86	 fadd	 DWORD PTR [esi+eax*4]
  019d4	d8 b5 34 fa ff
	ff		 fdiv	 DWORD PTR _fFullRange$[ebp]
  019da	8b 4d b0	 mov	 ecx, DWORD PTR _i$[ebp]
  019dd	c1 e1 04	 shl	 ecx, 4
  019e0	8b 55 f8	 mov	 edx, DWORD PTR _this$[ebp]
  019e3	8b 82 68 04 00
	00		 mov	 eax, DWORD PTR [edx+1128]
  019e9	d9 5c 08 08	 fstp	 DWORD PTR [eax+ecx+8]

; 438  : 			}
; 439  : 			else if( ColorFactor1 == 2 )

  019ed	e9 27 01 00 00	 jmp	 $L93849
$L93848:
  019f2	83 7d 40 02	 cmp	 DWORD PTR _ColorFactor1$[ebp], 2
  019f6	0f 85 8c 00 00
	00		 jne	 $L93850

; 440  : 			{
; 441  : 				m_pColormap[i].r = 1 ;

  019fc	8b 45 b0	 mov	 eax, DWORD PTR _i$[ebp]
  019ff	c1 e0 04	 shl	 eax, 4
  01a02	8b 4d f8	 mov	 ecx, DWORD PTR _this$[ebp]
  01a05	8b 91 68 04 00
	00		 mov	 edx, DWORD PTR [ecx+1128]
  01a0b	c7 04 10 00 00
	80 3f		 mov	 DWORD PTR [eax+edx], 1065353216 ; 3f800000H

; 442  : 				m_pColormap[i].g = (fabsf(fMidY - m_pfHeightmap[i]) / fHalfRange) ;		// 1 - 0 - 1													

  01a12	8b 45 f8	 mov	 eax, DWORD PTR _this$[ebp]
  01a15	8b 88 5c 04 00
	00		 mov	 ecx, DWORD PTR [eax+1116]
  01a1b	8b 55 b0	 mov	 edx, DWORD PTR _i$[ebp]
  01a1e	d9 85 c4 fa ff
	ff		 fld	 DWORD PTR _fMidY$[ebp]
  01a24	d8 24 91	 fsub	 DWORD PTR [ecx+edx*4]
  01a27	51		 push	 ecx
  01a28	d9 1c 24	 fstp	 DWORD PTR [esp]
  01a2b	e8 00 00 00 00	 call	 _fabsf
  01a30	83 c4 04	 add	 esp, 4
  01a33	d8 b5 28 fa ff
	ff		 fdiv	 DWORD PTR _fHalfRange$[ebp]
  01a39	8b 45 b0	 mov	 eax, DWORD PTR _i$[ebp]
  01a3c	c1 e0 04	 shl	 eax, 4
  01a3f	8b 4d f8	 mov	 ecx, DWORD PTR _this$[ebp]
  01a42	8b 91 68 04 00
	00		 mov	 edx, DWORD PTR [ecx+1128]
  01a48	d9 5c 02 04	 fstp	 DWORD PTR [edx+eax+4]

; 443  : 				m_pColormap[i].b = (m_pfHeightmap[i] + fabsf(m_fMinY)) / fFullRange ;

  01a4c	8b 45 f8	 mov	 eax, DWORD PTR _this$[ebp]
  01a4f	8b b0 5c 04 00
	00		 mov	 esi, DWORD PTR [eax+1116]
  01a55	8b 4d f8	 mov	 ecx, DWORD PTR _this$[ebp]
  01a58	8b 51 1c	 mov	 edx, DWORD PTR [ecx+28]
  01a5b	52		 push	 edx
  01a5c	e8 00 00 00 00	 call	 _fabsf
  01a61	83 c4 04	 add	 esp, 4
  01a64	8b 45 b0	 mov	 eax, DWORD PTR _i$[ebp]
  01a67	d8 04 86	 fadd	 DWORD PTR [esi+eax*4]
  01a6a	d8 b5 34 fa ff
	ff		 fdiv	 DWORD PTR _fFullRange$[ebp]
  01a70	8b 4d b0	 mov	 ecx, DWORD PTR _i$[ebp]
  01a73	c1 e1 04	 shl	 ecx, 4
  01a76	8b 55 f8	 mov	 edx, DWORD PTR _this$[ebp]
  01a79	8b 82 68 04 00
	00		 mov	 eax, DWORD PTR [edx+1128]
  01a7f	d9 5c 08 08	 fstp	 DWORD PTR [eax+ecx+8]

; 444  : 			}
; 445  : 			else if( ColorFactor1 == 3 )

  01a83	e9 91 00 00 00	 jmp	 $L93849
$L93850:
  01a88	83 7d 40 03	 cmp	 DWORD PTR _ColorFactor1$[ebp], 3
  01a8c	0f 85 87 00 00
	00		 jne	 $L93849

; 446  : 			{
; 447  : 				m_pColormap[i].r = (m_pfHeightmap[i] + fabsf(m_fMinY)) / fFullRange ;

  01a92	8b 45 f8	 mov	 eax, DWORD PTR _this$[ebp]
  01a95	8b b0 5c 04 00
	00		 mov	 esi, DWORD PTR [eax+1116]
  01a9b	8b 4d f8	 mov	 ecx, DWORD PTR _this$[ebp]
  01a9e	8b 51 1c	 mov	 edx, DWORD PTR [ecx+28]
  01aa1	52		 push	 edx
  01aa2	e8 00 00 00 00	 call	 _fabsf
  01aa7	83 c4 04	 add	 esp, 4
  01aaa	8b 45 b0	 mov	 eax, DWORD PTR _i$[ebp]
  01aad	d8 04 86	 fadd	 DWORD PTR [esi+eax*4]
  01ab0	d8 b5 34 fa ff
	ff		 fdiv	 DWORD PTR _fFullRange$[ebp]
  01ab6	8b 4d b0	 mov	 ecx, DWORD PTR _i$[ebp]
  01ab9	c1 e1 04	 shl	 ecx, 4
  01abc	8b 55 f8	 mov	 edx, DWORD PTR _this$[ebp]
  01abf	8b 82 68 04 00
	00		 mov	 eax, DWORD PTR [edx+1128]
  01ac5	d9 1c 01	 fstp	 DWORD PTR [ecx+eax]

; 448  : 				m_pColormap[i].g = (fabsf(fMidY - m_pfHeightmap[i]) / fHalfRange) ;		// 1 - 0 - 1													

  01ac8	8b 45 f8	 mov	 eax, DWORD PTR _this$[ebp]
  01acb	8b 88 5c 04 00
	00		 mov	 ecx, DWORD PTR [eax+1116]
  01ad1	8b 55 b0	 mov	 edx, DWORD PTR _i$[ebp]
  01ad4	d9 85 c4 fa ff
	ff		 fld	 DWORD PTR _fMidY$[ebp]
  01ada	d8 24 91	 fsub	 DWORD PTR [ecx+edx*4]
  01add	51		 push	 ecx
  01ade	d9 1c 24	 fstp	 DWORD PTR [esp]
  01ae1	e8 00 00 00 00	 call	 _fabsf
  01ae6	83 c4 04	 add	 esp, 4
  01ae9	d8 b5 28 fa ff
	ff		 fdiv	 DWORD PTR _fHalfRange$[ebp]
  01aef	8b 45 b0	 mov	 eax, DWORD PTR _i$[ebp]
  01af2	c1 e0 04	 shl	 eax, 4
  01af5	8b 4d f8	 mov	 ecx, DWORD PTR _this$[ebp]
  01af8	8b 91 68 04 00
	00		 mov	 edx, DWORD PTR [ecx+1128]
  01afe	d9 5c 02 04	 fstp	 DWORD PTR [edx+eax+4]

; 449  : 				m_pColormap[i].b = 1 ;

  01b02	8b 45 b0	 mov	 eax, DWORD PTR _i$[ebp]
  01b05	c1 e0 04	 shl	 eax, 4
  01b08	8b 4d f8	 mov	 ecx, DWORD PTR _this$[ebp]
  01b0b	8b 91 68 04 00
	00		 mov	 edx, DWORD PTR [ecx+1128]
  01b11	c7 44 02 08 00
	00 80 3f	 mov	 DWORD PTR [edx+eax+8], 1065353216 ; 3f800000H
$L93849:

; 450  : 			}
; 451  : 
; 452  : 		// note; vertex-alpha is re-assigned from this basic height-based blend,
; 453  : 		// in CTerrainPatch::AddVertex() to a face normal-based blend.
; 454  : 			m_pColormap[i].a = (m_pfHeightmap[i] + fabsf(m_fMinY)) / fFullRange ;	// 0 - 1

  01b19	8b 45 f8	 mov	 eax, DWORD PTR _this$[ebp]
  01b1c	8b b0 5c 04 00
	00		 mov	 esi, DWORD PTR [eax+1116]
  01b22	8b 4d f8	 mov	 ecx, DWORD PTR _this$[ebp]
  01b25	8b 51 1c	 mov	 edx, DWORD PTR [ecx+28]
  01b28	52		 push	 edx
  01b29	e8 00 00 00 00	 call	 _fabsf
  01b2e	83 c4 04	 add	 esp, 4
  01b31	8b 45 b0	 mov	 eax, DWORD PTR _i$[ebp]
  01b34	d8 04 86	 fadd	 DWORD PTR [esi+eax*4]
  01b37	d8 b5 34 fa ff
	ff		 fdiv	 DWORD PTR _fFullRange$[ebp]
  01b3d	8b 4d b0	 mov	 ecx, DWORD PTR _i$[ebp]
  01b40	c1 e1 04	 shl	 ecx, 4
  01b43	8b 55 f8	 mov	 edx, DWORD PTR _this$[ebp]
  01b46	8b 82 68 04 00
	00		 mov	 eax, DWORD PTR [edx+1128]
  01b4c	d9 5c 08 0c	 fstp	 DWORD PTR [eax+ecx+12]

; 455  : 			
; 456  : 			m_pColormap[i].r *= 255.0f ;

  01b50	8b 45 b0	 mov	 eax, DWORD PTR _i$[ebp]
  01b53	c1 e0 04	 shl	 eax, 4
  01b56	8b 4d f8	 mov	 ecx, DWORD PTR _this$[ebp]
  01b59	8b 91 68 04 00
	00		 mov	 edx, DWORD PTR [ecx+1128]
  01b5f	d9 04 02	 fld	 DWORD PTR [edx+eax]
  01b62	d8 0d 00 00 00
	00		 fmul	 DWORD PTR __real@437f0000
  01b68	8b 45 b0	 mov	 eax, DWORD PTR _i$[ebp]
  01b6b	c1 e0 04	 shl	 eax, 4
  01b6e	8b 4d f8	 mov	 ecx, DWORD PTR _this$[ebp]
  01b71	8b 91 68 04 00
	00		 mov	 edx, DWORD PTR [ecx+1128]
  01b77	d9 1c 10	 fstp	 DWORD PTR [eax+edx]

; 457  : 			m_pColormap[i].g *= 255.0f ;

  01b7a	8b 45 b0	 mov	 eax, DWORD PTR _i$[ebp]
  01b7d	c1 e0 04	 shl	 eax, 4
  01b80	8b 4d f8	 mov	 ecx, DWORD PTR _this$[ebp]
  01b83	8b 91 68 04 00
	00		 mov	 edx, DWORD PTR [ecx+1128]
  01b89	d9 44 02 04	 fld	 DWORD PTR [edx+eax+4]
  01b8d	d8 0d 00 00 00
	00		 fmul	 DWORD PTR __real@437f0000
  01b93	8b 45 b0	 mov	 eax, DWORD PTR _i$[ebp]
  01b96	c1 e0 04	 shl	 eax, 4
  01b99	8b 4d f8	 mov	 ecx, DWORD PTR _this$[ebp]
  01b9c	8b 91 68 04 00
	00		 mov	 edx, DWORD PTR [ecx+1128]
  01ba2	d9 5c 02 04	 fstp	 DWORD PTR [edx+eax+4]

; 458  : 			m_pColormap[i].b *= 255.0f ;

  01ba6	8b 45 b0	 mov	 eax, DWORD PTR _i$[ebp]
  01ba9	c1 e0 04	 shl	 eax, 4
  01bac	8b 4d f8	 mov	 ecx, DWORD PTR _this$[ebp]
  01baf	8b 91 68 04 00
	00		 mov	 edx, DWORD PTR [ecx+1128]
  01bb5	d9 44 02 08	 fld	 DWORD PTR [edx+eax+8]
  01bb9	d8 0d 00 00 00
	00		 fmul	 DWORD PTR __real@437f0000
  01bbf	8b 45 b0	 mov	 eax, DWORD PTR _i$[ebp]
  01bc2	c1 e0 04	 shl	 eax, 4
  01bc5	8b 4d f8	 mov	 ecx, DWORD PTR _this$[ebp]
  01bc8	8b 91 68 04 00
	00		 mov	 edx, DWORD PTR [ecx+1128]
  01bce	d9 5c 02 08	 fstp	 DWORD PTR [edx+eax+8]

; 459  : 			m_pColormap[i].a *= 255.0f ;

  01bd2	8b 45 b0	 mov	 eax, DWORD PTR _i$[ebp]
  01bd5	c1 e0 04	 shl	 eax, 4
  01bd8	8b 4d f8	 mov	 ecx, DWORD PTR _this$[ebp]
  01bdb	8b 91 68 04 00
	00		 mov	 edx, DWORD PTR [ecx+1128]
  01be1	d9 44 02 0c	 fld	 DWORD PTR [edx+eax+12]
  01be5	d8 0d 00 00 00
	00		 fmul	 DWORD PTR __real@437f0000
  01beb	8b 45 b0	 mov	 eax, DWORD PTR _i$[ebp]
  01bee	c1 e0 04	 shl	 eax, 4
  01bf1	8b 4d f8	 mov	 ecx, DWORD PTR _this$[ebp]
  01bf4	8b 91 68 04 00
	00		 mov	 edx, DWORD PTR [ecx+1128]
  01bfa	d9 5c 02 0c	 fstp	 DWORD PTR [edx+eax+12]

; 460  : 
; 461  : 			sprintf(m_pX7->m_szLoadingGameInfo2, "m_pColormap %lu [of %lu]", i, m_nHeightmapSQ * m_nHeightmapSQ) ;

  01bfe	8b 45 f8	 mov	 eax, DWORD PTR _this$[ebp]
  01c01	8b 4d f8	 mov	 ecx, DWORD PTR _this$[ebp]
  01c04	8b 90 60 04 00
	00		 mov	 edx, DWORD PTR [eax+1120]
  01c0a	0f af 91 60 04
	00 00		 imul	 edx, DWORD PTR [ecx+1120]
  01c11	52		 push	 edx
  01c12	8b 45 b0	 mov	 eax, DWORD PTR _i$[ebp]
  01c15	50		 push	 eax
  01c16	68 00 00 00 00	 push	 OFFSET FLAT:??_C@_0BJ@FKPFDJLF@m_pColormap?5?$CFlu?5?$FLof?5?$CFlu?$FN?$AA@
  01c1b	8b 4d f8	 mov	 ecx, DWORD PTR _this$[ebp]
  01c1e	8b 51 04	 mov	 edx, DWORD PTR [ecx+4]
  01c21	81 c2 81 a8 02
	00		 add	 edx, 174209		; 0002a881H
  01c27	52		 push	 edx
  01c28	e8 00 00 00 00	 call	 _sprintf
  01c2d	83 c4 10	 add	 esp, 16			; 00000010H

; 462  : 		}

  01c30	e9 02 fd ff ff	 jmp	 $L93846
$L93847:

; 463  : 
; 464  : 	//
; 465  : 	// Add random circular noise patches to the base colormap:
; 466  : 	//
; 467  : 		for (i = 0 ; i < nNoisePatches1 ; i ++)

  01c35	c7 45 b0 00 00
	00 00		 mov	 DWORD PTR _i$[ebp], 0
  01c3c	eb 09		 jmp	 SHORT $L93854
$L93855:
  01c3e	8b 45 b0	 mov	 eax, DWORD PTR _i$[ebp]
  01c41	83 c0 01	 add	 eax, 1
  01c44	89 45 b0	 mov	 DWORD PTR _i$[ebp], eax
$L93854:
  01c47	8b 45 b0	 mov	 eax, DWORD PTR _i$[ebp]
  01c4a	3b 45 38	 cmp	 eax, DWORD PTR _nNoisePatches1$[ebp]
  01c4d	0f 83 c9 00 00
	00		 jae	 $L93856

; 468  : 		{
; 469  : 			BlendColorSpot(
; 470  : 						   (int)(rnd() * (float)m_nHeightmapSQ),
; 471  : 						   (int)(rnd() * (float)m_nHeightmapSQ),
; 472  : 						   (int)(rnd() * (float)m_nHeightmapSQ / 8.0f),
; 473  : 						   &D3DXCOLOR(0.0f, 0.0f, 0.0f, 0.0f)
; 474  : 						  ) ;

  01c53	6a 00		 push	 0
  01c55	6a 00		 push	 0
  01c57	6a 00		 push	 0
  01c59	6a 00		 push	 0
  01c5b	8d 8d 34 f7 ff
	ff		 lea	 ecx, DWORD PTR $T94717[ebp]
  01c61	e8 00 00 00 00	 call	 ??0D3DXCOLOR@@QAE@MMMM@Z ; D3DXCOLOR::D3DXCOLOR
  01c66	50		 push	 eax
  01c67	e8 00 00 00 00	 call	 ?rnd@@YAMXZ		; rnd
  01c6c	8b 45 f8	 mov	 eax, DWORD PTR _this$[ebp]
  01c6f	8b 88 60 04 00
	00		 mov	 ecx, DWORD PTR [eax+1120]
  01c75	89 8d 90 f6 ff
	ff		 mov	 DWORD PTR tv2881[ebp], ecx
  01c7b	c7 85 94 f6 ff
	ff 00 00 00 00	 mov	 DWORD PTR tv2881[ebp+4], 0
  01c85	df ad 90 f6 ff
	ff		 fild	 QWORD PTR tv2881[ebp]
  01c8b	de c9		 fmulp	 ST(1), ST(0)
  01c8d	d8 35 00 00 00
	00		 fdiv	 DWORD PTR __real@41000000
  01c93	e8 00 00 00 00	 call	 __ftol2
  01c98	50		 push	 eax
  01c99	e8 00 00 00 00	 call	 ?rnd@@YAMXZ		; rnd
  01c9e	8b 55 f8	 mov	 edx, DWORD PTR _this$[ebp]
  01ca1	8b 82 60 04 00
	00		 mov	 eax, DWORD PTR [edx+1120]
  01ca7	89 85 88 f6 ff
	ff		 mov	 DWORD PTR tv2888[ebp], eax
  01cad	c7 85 8c f6 ff
	ff 00 00 00 00	 mov	 DWORD PTR tv2888[ebp+4], 0
  01cb7	df ad 88 f6 ff
	ff		 fild	 QWORD PTR tv2888[ebp]
  01cbd	de c9		 fmulp	 ST(1), ST(0)
  01cbf	e8 00 00 00 00	 call	 __ftol2
  01cc4	50		 push	 eax
  01cc5	e8 00 00 00 00	 call	 ?rnd@@YAMXZ		; rnd
  01cca	8b 4d f8	 mov	 ecx, DWORD PTR _this$[ebp]
  01ccd	8b 91 60 04 00
	00		 mov	 edx, DWORD PTR [ecx+1120]
  01cd3	89 95 80 f6 ff
	ff		 mov	 DWORD PTR tv2895[ebp], edx
  01cd9	c7 85 84 f6 ff
	ff 00 00 00 00	 mov	 DWORD PTR tv2895[ebp+4], 0
  01ce3	df ad 80 f6 ff
	ff		 fild	 QWORD PTR tv2895[ebp]
  01ce9	de c9		 fmulp	 ST(1), ST(0)
  01ceb	e8 00 00 00 00	 call	 __ftol2
  01cf0	50		 push	 eax
  01cf1	8b 4d f8	 mov	 ecx, DWORD PTR _this$[ebp]
  01cf4	e8 00 00 00 00	 call	 ?BlendColorSpot@CTerrain@@QAEHIIHPAUD3DXCOLOR@@@Z ; CTerrain::BlendColorSpot

; 475  : 			sprintf( m_pX7->m_szLoadingGameInfo2, "BlendColorSpot %lu [of 800]", i );

  01cf9	8b 45 b0	 mov	 eax, DWORD PTR _i$[ebp]
  01cfc	50		 push	 eax
  01cfd	68 00 00 00 00	 push	 OFFSET FLAT:??_C@_0BM@MCDMADMC@BlendColorSpot?5?$CFlu?5?$FLof?5800?$FN?$AA@
  01d02	8b 4d f8	 mov	 ecx, DWORD PTR _this$[ebp]
  01d05	8b 51 04	 mov	 edx, DWORD PTR [ecx+4]
  01d08	81 c2 81 a8 02
	00		 add	 edx, 174209		; 0002a881H
  01d0e	52		 push	 edx
  01d0f	e8 00 00 00 00	 call	 _sprintf
  01d14	83 c4 0c	 add	 esp, 12			; 0000000cH

; 476  : 		}

  01d17	e9 22 ff ff ff	 jmp	 $L93855
$L93856:

; 477  : 
; 478  : 		for (i = 0 ; i < nNoisePatches2 ; i ++)

  01d1c	c7 45 b0 00 00
	00 00		 mov	 DWORD PTR _i$[ebp], 0
  01d23	eb 09		 jmp	 SHORT $L93865
$L93866:
  01d25	8b 45 b0	 mov	 eax, DWORD PTR _i$[ebp]
  01d28	83 c0 01	 add	 eax, 1
  01d2b	89 45 b0	 mov	 DWORD PTR _i$[ebp], eax
$L93865:
  01d2e	8b 45 b0	 mov	 eax, DWORD PTR _i$[ebp]
  01d31	3b 45 3c	 cmp	 eax, DWORD PTR _nNoisePatches2$[ebp]
  01d34	0f 83 f0 00 00
	00		 jae	 $L93867

; 479  : 		{
; 480  : 			BlendColorSpot(
; 481  : 						   (int)(rnd() * (float)m_nHeightmapSQ),
; 482  : 						   (int)(rnd() * (float)m_nHeightmapSQ),
; 483  : 						   (int)(rnd() * (float)m_nHeightmapSQ / 8.0f),
; 484  : 						   &D3DXCOLOR(rnd() * 255.0f, rnd() * 255.0f, rnd() * 255.0f, 0.0f)
; 485  : 						  ) ;

  01d3a	6a 00		 push	 0
  01d3c	e8 00 00 00 00	 call	 ?rnd@@YAMXZ		; rnd
  01d41	d8 0d 00 00 00
	00		 fmul	 DWORD PTR __real@437f0000
  01d47	51		 push	 ecx
  01d48	d9 1c 24	 fstp	 DWORD PTR [esp]
  01d4b	e8 00 00 00 00	 call	 ?rnd@@YAMXZ		; rnd
  01d50	d8 0d 00 00 00
	00		 fmul	 DWORD PTR __real@437f0000
  01d56	51		 push	 ecx
  01d57	d9 1c 24	 fstp	 DWORD PTR [esp]
  01d5a	e8 00 00 00 00	 call	 ?rnd@@YAMXZ		; rnd
  01d5f	d8 0d 00 00 00
	00		 fmul	 DWORD PTR __real@437f0000
  01d65	51		 push	 ecx
  01d66	d9 1c 24	 fstp	 DWORD PTR [esp]
  01d69	8d 8d 1c f7 ff
	ff		 lea	 ecx, DWORD PTR $T94718[ebp]
  01d6f	e8 00 00 00 00	 call	 ??0D3DXCOLOR@@QAE@MMMM@Z ; D3DXCOLOR::D3DXCOLOR
  01d74	50		 push	 eax
  01d75	e8 00 00 00 00	 call	 ?rnd@@YAMXZ		; rnd
  01d7a	8b 45 f8	 mov	 eax, DWORD PTR _this$[ebp]
  01d7d	8b 88 60 04 00
	00		 mov	 ecx, DWORD PTR [eax+1120]
  01d83	89 8d 90 f6 ff
	ff		 mov	 DWORD PTR tv2911[ebp], ecx
  01d89	c7 85 94 f6 ff
	ff 00 00 00 00	 mov	 DWORD PTR tv2911[ebp+4], 0
  01d93	df ad 90 f6 ff
	ff		 fild	 QWORD PTR tv2911[ebp]
  01d99	de c9		 fmulp	 ST(1), ST(0)
  01d9b	d8 35 00 00 00
	00		 fdiv	 DWORD PTR __real@41000000
  01da1	e8 00 00 00 00	 call	 __ftol2
  01da6	50		 push	 eax
  01da7	e8 00 00 00 00	 call	 ?rnd@@YAMXZ		; rnd
  01dac	8b 55 f8	 mov	 edx, DWORD PTR _this$[ebp]
  01daf	8b 82 60 04 00
	00		 mov	 eax, DWORD PTR [edx+1120]
  01db5	89 85 88 f6 ff
	ff		 mov	 DWORD PTR tv2918[ebp], eax
  01dbb	c7 85 8c f6 ff
	ff 00 00 00 00	 mov	 DWORD PTR tv2918[ebp+4], 0
  01dc5	df ad 88 f6 ff
	ff		 fild	 QWORD PTR tv2918[ebp]
  01dcb	de c9		 fmulp	 ST(1), ST(0)
  01dcd	e8 00 00 00 00	 call	 __ftol2
  01dd2	50		 push	 eax
  01dd3	e8 00 00 00 00	 call	 ?rnd@@YAMXZ		; rnd
  01dd8	8b 4d f8	 mov	 ecx, DWORD PTR _this$[ebp]
  01ddb	8b 91 60 04 00
	00		 mov	 edx, DWORD PTR [ecx+1120]
  01de1	89 95 80 f6 ff
	ff		 mov	 DWORD PTR tv2925[ebp], edx
  01de7	c7 85 84 f6 ff
	ff 00 00 00 00	 mov	 DWORD PTR tv2925[ebp+4], 0
  01df1	df ad 80 f6 ff
	ff		 fild	 QWORD PTR tv2925[ebp]
  01df7	de c9		 fmulp	 ST(1), ST(0)
  01df9	e8 00 00 00 00	 call	 __ftol2
  01dfe	50		 push	 eax
  01dff	8b 4d f8	 mov	 ecx, DWORD PTR _this$[ebp]
  01e02	e8 00 00 00 00	 call	 ?BlendColorSpot@CTerrain@@QAEHIIHPAUD3DXCOLOR@@@Z ; CTerrain::BlendColorSpot

; 486  : 			sprintf( m_pX7->m_szLoadingGameInfo2, "BlendColorSpot %lu [of 3200]", i );

  01e07	8b 45 b0	 mov	 eax, DWORD PTR _i$[ebp]
  01e0a	50		 push	 eax
  01e0b	68 00 00 00 00	 push	 OFFSET FLAT:??_C@_0BN@CKLFEHFG@BlendColorSpot?5?$CFlu?5?$FLof?53200?$FN?$AA@
  01e10	8b 4d f8	 mov	 ecx, DWORD PTR _this$[ebp]
  01e13	8b 51 04	 mov	 edx, DWORD PTR [ecx+4]
  01e16	81 c2 81 a8 02
	00		 add	 edx, 174209		; 0002a881H
  01e1c	52		 push	 edx
  01e1d	e8 00 00 00 00	 call	 _sprintf
  01e22	83 c4 0c	 add	 esp, 12			; 0000000cH

; 487  : 		}

  01e25	e9 fb fe ff ff	 jmp	 $L93866
$L93867:

; 488  : 
; 489  : 	//
; 490  : 	// Build patches:
; 491  : 	//
; 492  : 		ulNextRowHeightmapDelta = (m_nPatchesSQ - 1) * m_nPatchMaxLODSQ ;

  01e2a	8b 45 f8	 mov	 eax, DWORD PTR _this$[ebp]
  01e2d	8b 48 08	 mov	 ecx, DWORD PTR [eax+8]
  01e30	83 e9 01	 sub	 ecx, 1
  01e33	8b 55 f8	 mov	 edx, DWORD PTR _this$[ebp]
  01e36	0f af 4a 10	 imul	 ecx, DWORD PTR [edx+16]
  01e3a	89 8d dc fa ff
	ff		 mov	 DWORD PTR _ulNextRowHeightmapDelta$[ebp], ecx

; 493  : 		float fPatchSizeSQ = fSizeSQ / (float)m_nPatchesSQ ;

  01e40	8b 45 f8	 mov	 eax, DWORD PTR _this$[ebp]
  01e43	db 40 08	 fild	 DWORD PTR [eax+8]
  01e46	d8 7d 08	 fdivr	 DWORD PTR _fSizeSQ$[ebp]
  01e49	d9 9d 1c fa ff
	ff		 fstp	 DWORD PTR _fPatchSizeSQ$[ebp]

; 494  : 
; 495  : 		int nPatchesDone = 0 ;

  01e4f	c7 85 10 fa ff
	ff 00 00 00 00	 mov	 DWORD PTR _nPatchesDone$[ebp], 0

; 496  : 		for (int y = 0 ; y < m_nPatchesSQ ; y ++)

  01e59	c7 85 04 fa ff
	ff 00 00 00 00	 mov	 DWORD PTR _y$93879[ebp], 0
  01e63	eb 0f		 jmp	 SHORT $L93880
$L93881:
  01e65	8b 85 04 fa ff
	ff		 mov	 eax, DWORD PTR _y$93879[ebp]
  01e6b	83 c0 01	 add	 eax, 1
  01e6e	89 85 04 fa ff
	ff		 mov	 DWORD PTR _y$93879[ebp], eax
$L93880:
  01e74	8b 45 f8	 mov	 eax, DWORD PTR _this$[ebp]
  01e77	8b 8d 04 fa ff
	ff		 mov	 ecx, DWORD PTR _y$93879[ebp]
  01e7d	3b 48 08	 cmp	 ecx, DWORD PTR [eax+8]
  01e80	0f 8d 6f 06 00
	00		 jge	 $L93882

; 497  : 			for (int x = 0 ; x < m_nPatchesSQ ; x ++)

  01e86	c7 85 f8 f9 ff
	ff 00 00 00 00	 mov	 DWORD PTR _x$93883[ebp], 0
  01e90	eb 0f		 jmp	 SHORT $L93884
$L93885:
  01e92	8b 85 f8 f9 ff
	ff		 mov	 eax, DWORD PTR _x$93883[ebp]
  01e98	83 c0 01	 add	 eax, 1
  01e9b	89 85 f8 f9 ff
	ff		 mov	 DWORD PTR _x$93883[ebp], eax
$L93884:
  01ea1	8b 45 f8	 mov	 eax, DWORD PTR _this$[ebp]
  01ea4	8b 8d f8 f9 ff
	ff		 mov	 ecx, DWORD PTR _x$93883[ebp]
  01eaa	3b 48 08	 cmp	 ecx, DWORD PTR [eax+8]
  01ead	0f 8d 3d 06 00
	00		 jge	 $L93886

; 498  : 			{
; 499  : 				sprintf(m_pX7->m_szLoadingGameInfo2, "Patch %dx%d [of %dx%d]", y+1, x+1, m_nPatchesSQ, m_nPatchesSQ) ;

  01eb3	8b 45 f8	 mov	 eax, DWORD PTR _this$[ebp]
  01eb6	8b 48 08	 mov	 ecx, DWORD PTR [eax+8]
  01eb9	51		 push	 ecx
  01eba	8b 55 f8	 mov	 edx, DWORD PTR _this$[ebp]
  01ebd	8b 42 08	 mov	 eax, DWORD PTR [edx+8]
  01ec0	50		 push	 eax
  01ec1	8b 8d f8 f9 ff
	ff		 mov	 ecx, DWORD PTR _x$93883[ebp]
  01ec7	83 c1 01	 add	 ecx, 1
  01eca	51		 push	 ecx
  01ecb	8b 95 04 fa ff
	ff		 mov	 edx, DWORD PTR _y$93879[ebp]
  01ed1	83 c2 01	 add	 edx, 1
  01ed4	52		 push	 edx
  01ed5	68 00 00 00 00	 push	 OFFSET FLAT:??_C@_0BH@IFOBGJIO@Patch?5?$CFdx?$CFd?5?$FLof?5?$CFdx?$CFd?$FN?$AA@
  01eda	8b 45 f8	 mov	 eax, DWORD PTR _this$[ebp]
  01edd	8b 48 04	 mov	 ecx, DWORD PTR [eax+4]
  01ee0	81 c1 81 a8 02
	00		 add	 ecx, 174209		; 0002a881H
  01ee6	51		 push	 ecx
  01ee7	e8 00 00 00 00	 call	 _sprintf
  01eec	83 c4 18	 add	 esp, 24			; 00000018H

; 500  : 
; 501  : 			// determine how many items to ask for, so as we don't go over the specified limits:
; 502  : 				float fCherries2Ask4, fShieldPwrUps2Ask4, fEnginePwrUps2Ask4, fWeaponPwrUps2Ask4, fHealthPwrUps2Ask4 ;
; 503  : 
; 504  : 				fReqCherriesPerPatch = (float)m_nCherriesReq / ((float)(nPatchesSQ * nPatchesSQ)-nPatchesDone) ;

  01eef	8b 45 f8	 mov	 eax, DWORD PTR _this$[ebp]
  01ef2	db 40 6c	 fild	 DWORD PTR [eax+108]
  01ef5	8b 4d 10	 mov	 ecx, DWORD PTR _nPatchesSQ$[ebp]
  01ef8	0f af 4d 10	 imul	 ecx, DWORD PTR _nPatchesSQ$[ebp]
  01efc	89 8d 94 f6 ff
	ff		 mov	 DWORD PTR tv2950[ebp], ecx
  01f02	db 85 94 f6 ff
	ff		 fild	 DWORD PTR tv2950[ebp]
  01f08	da a5 10 fa ff
	ff		 fisub	 DWORD PTR _nPatchesDone$[ebp]
  01f0e	de f9		 fdivp	 ST(1), ST(0)
  01f10	d9 5d ec	 fstp	 DWORD PTR _fReqCherriesPerPatch$[ebp]

; 505  : 				fReqShieldPwrUpsPerPatch = (float)m_nShieldPwrUpsReq / ((float)(nPatchesSQ * nPatchesSQ)-nPatchesDone) ;

  01f13	8b 45 f8	 mov	 eax, DWORD PTR _this$[ebp]
  01f16	db 40 74	 fild	 DWORD PTR [eax+116]
  01f19	8b 4d 10	 mov	 ecx, DWORD PTR _nPatchesSQ$[ebp]
  01f1c	0f af 4d 10	 imul	 ecx, DWORD PTR _nPatchesSQ$[ebp]
  01f20	89 8d 94 f6 ff
	ff		 mov	 DWORD PTR tv2953[ebp], ecx
  01f26	db 85 94 f6 ff
	ff		 fild	 DWORD PTR tv2953[ebp]
  01f2c	da a5 10 fa ff
	ff		 fisub	 DWORD PTR _nPatchesDone$[ebp]
  01f32	de f9		 fdivp	 ST(1), ST(0)
  01f34	d9 5d e0	 fstp	 DWORD PTR _fReqShieldPwrUpsPerPatch$[ebp]

; 506  : 				fReqEnginePwrUpsPerPatch = (float)m_nEnginePwrUpsReq / ((float)(nPatchesSQ * nPatchesSQ)-nPatchesDone) ;

  01f37	8b 45 f8	 mov	 eax, DWORD PTR _this$[ebp]
  01f3a	db 40 7c	 fild	 DWORD PTR [eax+124]
  01f3d	8b 4d 10	 mov	 ecx, DWORD PTR _nPatchesSQ$[ebp]
  01f40	0f af 4d 10	 imul	 ecx, DWORD PTR _nPatchesSQ$[ebp]
  01f44	89 8d 94 f6 ff
	ff		 mov	 DWORD PTR tv2956[ebp], ecx
  01f4a	db 85 94 f6 ff
	ff		 fild	 DWORD PTR tv2956[ebp]
  01f50	da a5 10 fa ff
	ff		 fisub	 DWORD PTR _nPatchesDone$[ebp]
  01f56	de f9		 fdivp	 ST(1), ST(0)
  01f58	d9 5d d4	 fstp	 DWORD PTR _fReqEnginePwrUpsPerPatch$[ebp]

; 507  : 				fReqWeaponPwrUpsPerPatch = (float)m_nWeaponPwrUpsReq / ((float)(nPatchesSQ * nPatchesSQ)-nPatchesDone) ;

  01f5b	8b 45 f8	 mov	 eax, DWORD PTR _this$[ebp]
  01f5e	db 80 84 00 00
	00		 fild	 DWORD PTR [eax+132]
  01f64	8b 4d 10	 mov	 ecx, DWORD PTR _nPatchesSQ$[ebp]
  01f67	0f af 4d 10	 imul	 ecx, DWORD PTR _nPatchesSQ$[ebp]
  01f6b	89 8d 94 f6 ff
	ff		 mov	 DWORD PTR tv2959[ebp], ecx
  01f71	db 85 94 f6 ff
	ff		 fild	 DWORD PTR tv2959[ebp]
  01f77	da a5 10 fa ff
	ff		 fisub	 DWORD PTR _nPatchesDone$[ebp]
  01f7d	de f9		 fdivp	 ST(1), ST(0)
  01f7f	d9 5d c8	 fstp	 DWORD PTR _fReqWeaponPwrUpsPerPatch$[ebp]

; 508  : 				fReqHealthPwrUpsPerPatch = (float)m_nHealthPwrUpsReq / ((float)(nPatchesSQ * nPatchesSQ)-nPatchesDone) ;

  01f82	8b 45 f8	 mov	 eax, DWORD PTR _this$[ebp]
  01f85	db 80 8c 00 00
	00		 fild	 DWORD PTR [eax+140]
  01f8b	8b 4d 10	 mov	 ecx, DWORD PTR _nPatchesSQ$[ebp]
  01f8e	0f af 4d 10	 imul	 ecx, DWORD PTR _nPatchesSQ$[ebp]
  01f92	89 8d 94 f6 ff
	ff		 mov	 DWORD PTR tv2962[ebp], ecx
  01f98	db 85 94 f6 ff
	ff		 fild	 DWORD PTR tv2962[ebp]
  01f9e	da a5 10 fa ff
	ff		 fisub	 DWORD PTR _nPatchesDone$[ebp]
  01fa4	de f9		 fdivp	 ST(1), ST(0)
  01fa6	d9 5d bc	 fstp	 DWORD PTR _fReqHealthPwrUpsPerPatch$[ebp]

; 509  : 
; 510  : 				if( m_nCherries >= m_nCherriesReq ) fCherries2Ask4 = 0.0f ; 

  01fa9	8b 45 f8	 mov	 eax, DWORD PTR _this$[ebp]
  01fac	8b 4d f8	 mov	 ecx, DWORD PTR _this$[ebp]
  01faf	8b 50 70	 mov	 edx, DWORD PTR [eax+112]
  01fb2	3b 51 6c	 cmp	 edx, DWORD PTR [ecx+108]
  01fb5	7c 0c		 jl	 SHORT $L93903
  01fb7	c7 85 ec f9 ff
	ff 00 00 00 00	 mov	 DWORD PTR _fCherries2Ask4$93888[ebp], 0

; 511  : 				else if( m_nCherries < m_nCherriesReq-fReqCherriesPerPatch ) fCherries2Ask4 = fReqCherriesPerPatch ;

  01fc1	eb 35		 jmp	 SHORT $L93904
$L93903:
  01fc3	8b 45 f8	 mov	 eax, DWORD PTR _this$[ebp]
  01fc6	db 40 70	 fild	 DWORD PTR [eax+112]
  01fc9	8b 4d f8	 mov	 ecx, DWORD PTR _this$[ebp]
  01fcc	db 41 6c	 fild	 DWORD PTR [ecx+108]
  01fcf	d8 65 ec	 fsub	 DWORD PTR _fReqCherriesPerPatch$[ebp]
  01fd2	de d9		 fcompp
  01fd4	df e0		 fnstsw	 ax
  01fd6	f6 c4 41	 test	 ah, 65			; 00000041H
  01fd9	75 0b		 jne	 SHORT $L93905
  01fdb	8b 45 ec	 mov	 eax, DWORD PTR _fReqCherriesPerPatch$[ebp]
  01fde	89 85 ec f9 ff
	ff		 mov	 DWORD PTR _fCherries2Ask4$93888[ebp], eax

; 512  : 				else fCherries2Ask4 = (float)m_nCherriesReq-m_nCherries ;

  01fe4	eb 12		 jmp	 SHORT $L93904
$L93905:
  01fe6	8b 45 f8	 mov	 eax, DWORD PTR _this$[ebp]
  01fe9	db 40 6c	 fild	 DWORD PTR [eax+108]
  01fec	8b 4d f8	 mov	 ecx, DWORD PTR _this$[ebp]
  01fef	da 61 70	 fisub	 DWORD PTR [ecx+112]
  01ff2	d9 9d ec f9 ff
	ff		 fstp	 DWORD PTR _fCherries2Ask4$93888[ebp]
$L93904:

; 513  : 				
; 514  : 				if( m_nShieldPwrUps >= m_nShieldPwrUpsReq ) fShieldPwrUps2Ask4 = 0.0f ; 

  01ff8	8b 45 f8	 mov	 eax, DWORD PTR _this$[ebp]
  01ffb	8b 4d f8	 mov	 ecx, DWORD PTR _this$[ebp]
  01ffe	8b 50 78	 mov	 edx, DWORD PTR [eax+120]
  02001	3b 51 74	 cmp	 edx, DWORD PTR [ecx+116]
  02004	7c 0c		 jl	 SHORT $L93908
  02006	c7 85 e0 f9 ff
	ff 00 00 00 00	 mov	 DWORD PTR _fShieldPwrUps2Ask4$93889[ebp], 0

; 515  : 				else if( m_nShieldPwrUps < m_nShieldPwrUpsReq-fReqShieldPwrUpsPerPatch ) fShieldPwrUps2Ask4 = fReqShieldPwrUpsPerPatch ;

  02010	eb 35		 jmp	 SHORT $L93909
$L93908:
  02012	8b 45 f8	 mov	 eax, DWORD PTR _this$[ebp]
  02015	db 40 78	 fild	 DWORD PTR [eax+120]
  02018	8b 4d f8	 mov	 ecx, DWORD PTR _this$[ebp]
  0201b	db 41 74	 fild	 DWORD PTR [ecx+116]
  0201e	d8 65 e0	 fsub	 DWORD PTR _fReqShieldPwrUpsPerPatch$[ebp]
  02021	de d9		 fcompp
  02023	df e0		 fnstsw	 ax
  02025	f6 c4 41	 test	 ah, 65			; 00000041H
  02028	75 0b		 jne	 SHORT $L93910
  0202a	8b 45 e0	 mov	 eax, DWORD PTR _fReqShieldPwrUpsPerPatch$[ebp]
  0202d	89 85 e0 f9 ff
	ff		 mov	 DWORD PTR _fShieldPwrUps2Ask4$93889[ebp], eax

; 516  : 				else fShieldPwrUps2Ask4 = (float)m_nShieldPwrUpsReq-m_nShieldPwrUps ;

  02033	eb 12		 jmp	 SHORT $L93909
$L93910:
  02035	8b 45 f8	 mov	 eax, DWORD PTR _this$[ebp]
  02038	db 40 74	 fild	 DWORD PTR [eax+116]
  0203b	8b 4d f8	 mov	 ecx, DWORD PTR _this$[ebp]
  0203e	da 61 78	 fisub	 DWORD PTR [ecx+120]
  02041	d9 9d e0 f9 ff
	ff		 fstp	 DWORD PTR _fShieldPwrUps2Ask4$93889[ebp]
$L93909:

; 517  : 				
; 518  : 				if( m_nEnginePwrUps >= m_nEnginePwrUpsReq ) fEnginePwrUps2Ask4 = 0.0f ; 

  02047	8b 45 f8	 mov	 eax, DWORD PTR _this$[ebp]
  0204a	8b 4d f8	 mov	 ecx, DWORD PTR _this$[ebp]
  0204d	8b 90 80 00 00
	00		 mov	 edx, DWORD PTR [eax+128]
  02053	3b 51 7c	 cmp	 edx, DWORD PTR [ecx+124]
  02056	7c 0c		 jl	 SHORT $L93913
  02058	c7 85 d4 f9 ff
	ff 00 00 00 00	 mov	 DWORD PTR _fEnginePwrUps2Ask4$93890[ebp], 0

; 519  : 				else if( m_nEnginePwrUps < m_nEnginePwrUpsReq-fReqEnginePwrUpsPerPatch ) fEnginePwrUps2Ask4 = fReqEnginePwrUpsPerPatch ;

  02062	eb 3b		 jmp	 SHORT $L93914
$L93913:
  02064	8b 45 f8	 mov	 eax, DWORD PTR _this$[ebp]
  02067	db 80 80 00 00
	00		 fild	 DWORD PTR [eax+128]
  0206d	8b 4d f8	 mov	 ecx, DWORD PTR _this$[ebp]
  02070	db 41 7c	 fild	 DWORD PTR [ecx+124]
  02073	d8 65 d4	 fsub	 DWORD PTR _fReqEnginePwrUpsPerPatch$[ebp]
  02076	de d9		 fcompp
  02078	df e0		 fnstsw	 ax
  0207a	f6 c4 41	 test	 ah, 65			; 00000041H
  0207d	75 0b		 jne	 SHORT $L93915
  0207f	8b 45 d4	 mov	 eax, DWORD PTR _fReqEnginePwrUpsPerPatch$[ebp]
  02082	89 85 d4 f9 ff
	ff		 mov	 DWORD PTR _fEnginePwrUps2Ask4$93890[ebp], eax

; 520  : 				else fEnginePwrUps2Ask4 = (float)m_nEnginePwrUpsReq-m_nEnginePwrUps ;

  02088	eb 15		 jmp	 SHORT $L93914
$L93915:
  0208a	8b 45 f8	 mov	 eax, DWORD PTR _this$[ebp]
  0208d	db 40 7c	 fild	 DWORD PTR [eax+124]
  02090	8b 4d f8	 mov	 ecx, DWORD PTR _this$[ebp]
  02093	da a1 80 00 00
	00		 fisub	 DWORD PTR [ecx+128]
  02099	d9 9d d4 f9 ff
	ff		 fstp	 DWORD PTR _fEnginePwrUps2Ask4$93890[ebp]
$L93914:

; 521  : 
; 522  : 				if( m_nWeaponPwrUps >= m_nWeaponPwrUpsReq ) fWeaponPwrUps2Ask4 = 0.0f ; 

  0209f	8b 45 f8	 mov	 eax, DWORD PTR _this$[ebp]
  020a2	8b 4d f8	 mov	 ecx, DWORD PTR _this$[ebp]
  020a5	8b 90 88 00 00
	00		 mov	 edx, DWORD PTR [eax+136]
  020ab	3b 91 84 00 00
	00		 cmp	 edx, DWORD PTR [ecx+132]
  020b1	7c 0c		 jl	 SHORT $L93918
  020b3	c7 85 c8 f9 ff
	ff 00 00 00 00	 mov	 DWORD PTR _fWeaponPwrUps2Ask4$93891[ebp], 0

; 523  : 				else if( m_nWeaponPwrUps < m_nWeaponPwrUpsReq-fReqWeaponPwrUpsPerPatch ) fWeaponPwrUps2Ask4 = fReqWeaponPwrUpsPerPatch ;

  020bd	eb 41		 jmp	 SHORT $L93919
$L93918:
  020bf	8b 45 f8	 mov	 eax, DWORD PTR _this$[ebp]
  020c2	db 80 88 00 00
	00		 fild	 DWORD PTR [eax+136]
  020c8	8b 4d f8	 mov	 ecx, DWORD PTR _this$[ebp]
  020cb	db 81 84 00 00
	00		 fild	 DWORD PTR [ecx+132]
  020d1	d8 65 c8	 fsub	 DWORD PTR _fReqWeaponPwrUpsPerPatch$[ebp]
  020d4	de d9		 fcompp
  020d6	df e0		 fnstsw	 ax
  020d8	f6 c4 41	 test	 ah, 65			; 00000041H
  020db	75 0b		 jne	 SHORT $L93920
  020dd	8b 45 c8	 mov	 eax, DWORD PTR _fReqWeaponPwrUpsPerPatch$[ebp]
  020e0	89 85 c8 f9 ff
	ff		 mov	 DWORD PTR _fWeaponPwrUps2Ask4$93891[ebp], eax

; 524  : 				else fWeaponPwrUps2Ask4 = (float)m_nWeaponPwrUpsReq-m_nWeaponPwrUps ;

  020e6	eb 18		 jmp	 SHORT $L93919
$L93920:
  020e8	8b 45 f8	 mov	 eax, DWORD PTR _this$[ebp]
  020eb	db 80 84 00 00
	00		 fild	 DWORD PTR [eax+132]
  020f1	8b 4d f8	 mov	 ecx, DWORD PTR _this$[ebp]
  020f4	da a1 88 00 00
	00		 fisub	 DWORD PTR [ecx+136]
  020fa	d9 9d c8 f9 ff
	ff		 fstp	 DWORD PTR _fWeaponPwrUps2Ask4$93891[ebp]
$L93919:

; 525  : 
; 526  : 				if( m_nHealthPwrUps >= m_nHealthPwrUpsReq ) fHealthPwrUps2Ask4 = 0.0f ; 

  02100	8b 45 f8	 mov	 eax, DWORD PTR _this$[ebp]
  02103	8b 4d f8	 mov	 ecx, DWORD PTR _this$[ebp]
  02106	8b 90 90 00 00
	00		 mov	 edx, DWORD PTR [eax+144]
  0210c	3b 91 8c 00 00
	00		 cmp	 edx, DWORD PTR [ecx+140]
  02112	7c 0c		 jl	 SHORT $L93923
  02114	c7 85 bc f9 ff
	ff 00 00 00 00	 mov	 DWORD PTR _fHealthPwrUps2Ask4$93892[ebp], 0

; 527  : 				else if( m_nHealthPwrUps < m_nHealthPwrUpsReq-fReqHealthPwrUpsPerPatch ) fHealthPwrUps2Ask4 = fReqHealthPwrUpsPerPatch ;

  0211e	eb 41		 jmp	 SHORT $L93924
$L93923:
  02120	8b 45 f8	 mov	 eax, DWORD PTR _this$[ebp]
  02123	db 80 90 00 00
	00		 fild	 DWORD PTR [eax+144]
  02129	8b 4d f8	 mov	 ecx, DWORD PTR _this$[ebp]
  0212c	db 81 8c 00 00
	00		 fild	 DWORD PTR [ecx+140]
  02132	d8 65 bc	 fsub	 DWORD PTR _fReqHealthPwrUpsPerPatch$[ebp]
  02135	de d9		 fcompp
  02137	df e0		 fnstsw	 ax
  02139	f6 c4 41	 test	 ah, 65			; 00000041H
  0213c	75 0b		 jne	 SHORT $L93925
  0213e	8b 45 bc	 mov	 eax, DWORD PTR _fReqHealthPwrUpsPerPatch$[ebp]
  02141	89 85 bc f9 ff
	ff		 mov	 DWORD PTR _fHealthPwrUps2Ask4$93892[ebp], eax

; 528  : 				else fHealthPwrUps2Ask4 = (float)m_nHealthPwrUpsReq-m_nHealthPwrUps ;

  02147	eb 18		 jmp	 SHORT $L93924
$L93925:
  02149	8b 45 f8	 mov	 eax, DWORD PTR _this$[ebp]
  0214c	db 80 8c 00 00
	00		 fild	 DWORD PTR [eax+140]
  02152	8b 4d f8	 mov	 ecx, DWORD PTR _this$[ebp]
  02155	da a1 90 00 00
	00		 fisub	 DWORD PTR [ecx+144]
  0215b	d9 9d bc f9 ff
	ff		 fstp	 DWORD PTR _fHealthPwrUps2Ask4$93892[ebp]
$L93924:

; 529  : 
; 530  : 			// create the patch:
; 531  : 				xVec3 vTL ;

  02161	8d 8d a8 f9 ff
	ff		 lea	 ecx, DWORD PTR _vTL$93928[ebp]
  02167	e8 00 00 00 00	 call	 ??0D3DXVECTOR3@@QAE@XZ	; D3DXVECTOR3::D3DXVECTOR3

; 532  : 				vTL = xVec3(-(fSizeSQ / 2.0f) + x * fPatchSizeSQ, 0, -(fSizeSQ / 2.0f) + y * fPatchSizeSQ) ;

  0216c	d9 45 08	 fld	 DWORD PTR _fSizeSQ$[ebp]
  0216f	d8 35 00 00 00
	00		 fdiv	 DWORD PTR __real@40000000
  02175	d9 e0		 fchs
  02177	db 85 04 fa ff
	ff		 fild	 DWORD PTR _y$93879[ebp]
  0217d	d8 8d 1c fa ff
	ff		 fmul	 DWORD PTR _fPatchSizeSQ$[ebp]
  02183	de c1		 faddp	 ST(1), ST(0)
  02185	51		 push	 ecx
  02186	d9 1c 24	 fstp	 DWORD PTR [esp]
  02189	6a 00		 push	 0
  0218b	d9 45 08	 fld	 DWORD PTR _fSizeSQ$[ebp]
  0218e	d8 35 00 00 00
	00		 fdiv	 DWORD PTR __real@40000000
  02194	d9 e0		 fchs
  02196	db 85 f8 f9 ff
	ff		 fild	 DWORD PTR _x$93883[ebp]
  0219c	d8 8d 1c fa ff
	ff		 fmul	 DWORD PTR _fPatchSizeSQ$[ebp]
  021a2	de c1		 faddp	 ST(1), ST(0)
  021a4	51		 push	 ecx
  021a5	d9 1c 24	 fstp	 DWORD PTR [esp]
  021a8	8d 8d 08 f7 ff
	ff		 lea	 ecx, DWORD PTR $T94719[ebp]
  021ae	e8 00 00 00 00	 call	 ??0D3DXVECTOR3@@QAE@MMM@Z ; D3DXVECTOR3::D3DXVECTOR3
  021b3	8b 08		 mov	 ecx, DWORD PTR [eax]
  021b5	89 8d a8 f9 ff
	ff		 mov	 DWORD PTR _vTL$93928[ebp], ecx
  021bb	8b 50 04	 mov	 edx, DWORD PTR [eax+4]
  021be	89 95 ac f9 ff
	ff		 mov	 DWORD PTR _vTL$93928[ebp+4], edx
  021c4	8b 40 08	 mov	 eax, DWORD PTR [eax+8]
  021c7	89 85 b0 f9 ff
	ff		 mov	 DWORD PTR _vTL$93928[ebp+8], eax

; 533  : 				m_pPatches[TER_RC2ABS(x,y)] = NULL ;

  021cd	8b 45 f8	 mov	 eax, DWORD PTR _this$[ebp]
  021d0	8b 8d f8 f9 ff
	ff		 mov	 ecx, DWORD PTR _x$93883[ebp]
  021d6	0f af 48 08	 imul	 ecx, DWORD PTR [eax+8]
  021da	03 8d 04 fa ff
	ff		 add	 ecx, DWORD PTR _y$93879[ebp]
  021e0	8b 55 f8	 mov	 edx, DWORD PTR _this$[ebp]
  021e3	8b 82 fc 04 00
	00		 mov	 eax, DWORD PTR [edx+1276]
  021e9	c7 04 88 00 00
	00 00		 mov	 DWORD PTR [eax+ecx*4], 0

; 534  : 
; 535  : 				m_pPatches[TER_RC2ABS(x,y)] = new CTerrainPatch
; 536  : 						(
; 537  : 						 m_nPatchMaxLODSQ,
; 538  : 						 &vTL,
; 539  : 						 fPatchSizeSQ,
; 540  : 						 fPatchSizeSQ,
; 541  : 						 &m_pfHeightmap[y * m_nHeightmapSQ * m_nPatchMaxLODSQ + x * m_nPatchMaxLODSQ],
; 542  : 						 &m_pColormap[y * m_nHeightmapSQ * m_nPatchMaxLODSQ + x * m_nPatchMaxLODSQ],
; 543  : 						 ulNextRowHeightmapDelta,
; 544  : 						 m_nHeightmapSQ,
; 545  : 						 m_fMinY,
; 546  : 						 m_fMaxY,
; 547  : 						 (m_nSpawnPos < MAX_SPAWN_POS - 1) ? &m_vSpawnPos[ m_nSpawnPos ] : NULL,
; 548  : 						 m_fLenSQ,
; 549  : 						 fCherries2Ask4,
; 550  : 						 fShieldPwrUps2Ask4,
; 551  : 						 fEnginePwrUps2Ask4,
; 552  : 						 fWeaponPwrUps2Ask4,
; 553  : 						 fHealthPwrUps2Ask4,
; 554  : 						 nTex1, nTex2
; 555  : 						);

  021f0	6a 68		 push	 104			; 00000068H
  021f2	e8 00 00 00 00	 call	 ??2@YAPAXI@Z		; operator new
  021f7	83 c4 04	 add	 esp, 4
  021fa	89 85 fc f6 ff
	ff		 mov	 DWORD PTR $T94720[ebp], eax
  02200	83 bd fc f6 ff
	ff 00		 cmp	 DWORD PTR $T94720[ebp], 0
  02207	0f 84 21 01 00
	00		 je	 $L94723
  0220d	8b 45 f8	 mov	 eax, DWORD PTR _this$[ebp]
  02210	83 b8 f8 04 00
	00 08		 cmp	 DWORD PTR [eax+1272], 8
  02217	7d 1e		 jge	 SHORT $L94721
  02219	8b 4d f8	 mov	 ecx, DWORD PTR _this$[ebp]
  0221c	8b 91 f8 04 00
	00		 mov	 edx, DWORD PTR [ecx+1272]
  02222	6b d2 0c	 imul	 edx, 12			; 0000000cH
  02225	8b 45 f8	 mov	 eax, DWORD PTR _this$[ebp]
  02228	8d 8c 10 8c 04
	00 00		 lea	 ecx, DWORD PTR [eax+edx+1164]
  0222f	89 8d 94 f6 ff
	ff		 mov	 DWORD PTR tv1524[ebp], ecx
  02235	eb 0a		 jmp	 SHORT $L94722
$L94721:
  02237	c7 85 94 f6 ff
	ff 00 00 00 00	 mov	 DWORD PTR tv1524[ebp], 0
$L94722:
  02241	8b 55 34	 mov	 edx, DWORD PTR _nTex2$[ebp]
  02244	52		 push	 edx
  02245	8b 45 30	 mov	 eax, DWORD PTR _nTex1$[ebp]
  02248	50		 push	 eax
  02249	8b 8d bc f9 ff
	ff		 mov	 ecx, DWORD PTR _fHealthPwrUps2Ask4$93892[ebp]
  0224f	51		 push	 ecx
  02250	8b 95 c8 f9 ff
	ff		 mov	 edx, DWORD PTR _fWeaponPwrUps2Ask4$93891[ebp]
  02256	52		 push	 edx
  02257	8b 85 d4 f9 ff
	ff		 mov	 eax, DWORD PTR _fEnginePwrUps2Ask4$93890[ebp]
  0225d	50		 push	 eax
  0225e	8b 8d e0 f9 ff
	ff		 mov	 ecx, DWORD PTR _fShieldPwrUps2Ask4$93889[ebp]
  02264	51		 push	 ecx
  02265	8b 95 ec f9 ff
	ff		 mov	 edx, DWORD PTR _fCherries2Ask4$93888[ebp]
  0226b	52		 push	 edx
  0226c	8b 45 f8	 mov	 eax, DWORD PTR _this$[ebp]
  0226f	8b 48 18	 mov	 ecx, DWORD PTR [eax+24]
  02272	51		 push	 ecx
  02273	8b 95 94 f6 ff
	ff		 mov	 edx, DWORD PTR tv1524[ebp]
  02279	52		 push	 edx
  0227a	8b 45 f8	 mov	 eax, DWORD PTR _this$[ebp]
  0227d	8b 48 20	 mov	 ecx, DWORD PTR [eax+32]
  02280	51		 push	 ecx
  02281	8b 55 f8	 mov	 edx, DWORD PTR _this$[ebp]
  02284	8b 42 1c	 mov	 eax, DWORD PTR [edx+28]
  02287	50		 push	 eax
  02288	8b 4d f8	 mov	 ecx, DWORD PTR _this$[ebp]
  0228b	8b 91 60 04 00
	00		 mov	 edx, DWORD PTR [ecx+1120]
  02291	52		 push	 edx
  02292	8b 85 dc fa ff
	ff		 mov	 eax, DWORD PTR _ulNextRowHeightmapDelta$[ebp]
  02298	50		 push	 eax
  02299	8b 4d f8	 mov	 ecx, DWORD PTR _this$[ebp]
  0229c	8b 95 04 fa ff
	ff		 mov	 edx, DWORD PTR _y$93879[ebp]
  022a2	0f af 91 60 04
	00 00		 imul	 edx, DWORD PTR [ecx+1120]
  022a9	8b 45 f8	 mov	 eax, DWORD PTR _this$[ebp]
  022ac	0f af 50 10	 imul	 edx, DWORD PTR [eax+16]
  022b0	8b 4d f8	 mov	 ecx, DWORD PTR _this$[ebp]
  022b3	8b 85 f8 f9 ff
	ff		 mov	 eax, DWORD PTR _x$93883[ebp]
  022b9	0f af 41 10	 imul	 eax, DWORD PTR [ecx+16]
  022bd	03 d0		 add	 edx, eax
  022bf	c1 e2 04	 shl	 edx, 4
  022c2	8b 4d f8	 mov	 ecx, DWORD PTR _this$[ebp]
  022c5	03 91 68 04 00
	00		 add	 edx, DWORD PTR [ecx+1128]
  022cb	52		 push	 edx
  022cc	8b 55 f8	 mov	 edx, DWORD PTR _this$[ebp]
  022cf	8b 85 04 fa ff
	ff		 mov	 eax, DWORD PTR _y$93879[ebp]
  022d5	0f af 82 60 04
	00 00		 imul	 eax, DWORD PTR [edx+1120]
  022dc	8b 4d f8	 mov	 ecx, DWORD PTR _this$[ebp]
  022df	0f af 41 10	 imul	 eax, DWORD PTR [ecx+16]
  022e3	8b 55 f8	 mov	 edx, DWORD PTR _this$[ebp]
  022e6	8b 8d f8 f9 ff
	ff		 mov	 ecx, DWORD PTR _x$93883[ebp]
  022ec	0f af 4a 10	 imul	 ecx, DWORD PTR [edx+16]
  022f0	03 c1		 add	 eax, ecx
  022f2	8b 55 f8	 mov	 edx, DWORD PTR _this$[ebp]
  022f5	8b 8a 5c 04 00
	00		 mov	 ecx, DWORD PTR [edx+1116]
  022fb	8d 14 81	 lea	 edx, DWORD PTR [ecx+eax*4]
  022fe	52		 push	 edx
  022ff	8b 85 1c fa ff
	ff		 mov	 eax, DWORD PTR _fPatchSizeSQ$[ebp]
  02305	50		 push	 eax
  02306	8b 8d 1c fa ff
	ff		 mov	 ecx, DWORD PTR _fPatchSizeSQ$[ebp]
  0230c	51		 push	 ecx
  0230d	8d 95 a8 f9 ff
	ff		 lea	 edx, DWORD PTR _vTL$93928[ebp]
  02313	52		 push	 edx
  02314	8b 45 f8	 mov	 eax, DWORD PTR _this$[ebp]
  02317	8b 48 10	 mov	 ecx, DWORD PTR [eax+16]
  0231a	51		 push	 ecx
  0231b	8b 8d fc f6 ff
	ff		 mov	 ecx, DWORD PTR $T94720[ebp]
  02321	e8 00 00 00 00	 call	 ??0CTerrainPatch@@QAE@HPAUD3DXVECTOR3@@MMPAMPAUD3DXCOLOR@@KKMM0MMMMMMHH@Z ; CTerrainPatch::CTerrainPatch
  02326	89 85 90 f6 ff
	ff		 mov	 DWORD PTR tv1560[ebp], eax
  0232c	eb 0a		 jmp	 SHORT $L94724
$L94723:
  0232e	c7 85 90 f6 ff
	ff 00 00 00 00	 mov	 DWORD PTR tv1560[ebp], 0
$L94724:
  02338	8b 55 f8	 mov	 edx, DWORD PTR _this$[ebp]
  0233b	8b 85 f8 f9 ff
	ff		 mov	 eax, DWORD PTR _x$93883[ebp]
  02341	0f af 42 08	 imul	 eax, DWORD PTR [edx+8]
  02345	03 85 04 fa ff
	ff		 add	 eax, DWORD PTR _y$93879[ebp]
  0234b	8b 4d f8	 mov	 ecx, DWORD PTR _this$[ebp]
  0234e	8b 91 fc 04 00
	00		 mov	 edx, DWORD PTR [ecx+1276]
  02354	8b 8d 90 f6 ff
	ff		 mov	 ecx, DWORD PTR tv1560[ebp]
  0235a	89 0c 82	 mov	 DWORD PTR [edx+eax*4], ecx

; 556  : 
; 557  : 				m_nCherries += m_pPatches[TER_RC2ABS(x,y)]->m_nCherries ;

  0235d	8b 45 f8	 mov	 eax, DWORD PTR _this$[ebp]
  02360	8b 8d f8 f9 ff
	ff		 mov	 ecx, DWORD PTR _x$93883[ebp]
  02366	0f af 48 08	 imul	 ecx, DWORD PTR [eax+8]
  0236a	03 8d 04 fa ff
	ff		 add	 ecx, DWORD PTR _y$93879[ebp]
  02370	8b 55 f8	 mov	 edx, DWORD PTR _this$[ebp]
  02373	8b 82 fc 04 00
	00		 mov	 eax, DWORD PTR [edx+1276]
  02379	8b 0c 88	 mov	 ecx, DWORD PTR [eax+ecx*4]
  0237c	8b 55 f8	 mov	 edx, DWORD PTR _this$[ebp]
  0237f	8b 42 70	 mov	 eax, DWORD PTR [edx+112]
  02382	03 41 1c	 add	 eax, DWORD PTR [ecx+28]
  02385	8b 4d f8	 mov	 ecx, DWORD PTR _this$[ebp]
  02388	89 41 70	 mov	 DWORD PTR [ecx+112], eax

; 558  : 				m_nShieldPwrUps += m_pPatches[TER_RC2ABS(x,y)]->m_nShieldPwrUps ;

  0238b	8b 45 f8	 mov	 eax, DWORD PTR _this$[ebp]
  0238e	8b 8d f8 f9 ff
	ff		 mov	 ecx, DWORD PTR _x$93883[ebp]
  02394	0f af 48 08	 imul	 ecx, DWORD PTR [eax+8]
  02398	03 8d 04 fa ff
	ff		 add	 ecx, DWORD PTR _y$93879[ebp]
  0239e	8b 55 f8	 mov	 edx, DWORD PTR _this$[ebp]
  023a1	8b 82 fc 04 00
	00		 mov	 eax, DWORD PTR [edx+1276]
  023a7	8b 0c 88	 mov	 ecx, DWORD PTR [eax+ecx*4]
  023aa	8b 55 f8	 mov	 edx, DWORD PTR _this$[ebp]
  023ad	8b 42 78	 mov	 eax, DWORD PTR [edx+120]
  023b0	03 41 28	 add	 eax, DWORD PTR [ecx+40]
  023b3	8b 4d f8	 mov	 ecx, DWORD PTR _this$[ebp]
  023b6	89 41 78	 mov	 DWORD PTR [ecx+120], eax

; 559  : 				m_nEnginePwrUps += m_pPatches[TER_RC2ABS(x,y)]->m_nEnginePwrUps ;

  023b9	8b 45 f8	 mov	 eax, DWORD PTR _this$[ebp]
  023bc	8b 8d f8 f9 ff
	ff		 mov	 ecx, DWORD PTR _x$93883[ebp]
  023c2	0f af 48 08	 imul	 ecx, DWORD PTR [eax+8]
  023c6	03 8d 04 fa ff
	ff		 add	 ecx, DWORD PTR _y$93879[ebp]
  023cc	8b 55 f8	 mov	 edx, DWORD PTR _this$[ebp]
  023cf	8b 82 fc 04 00
	00		 mov	 eax, DWORD PTR [edx+1276]
  023d5	8b 0c 88	 mov	 ecx, DWORD PTR [eax+ecx*4]
  023d8	8b 55 f8	 mov	 edx, DWORD PTR _this$[ebp]
  023db	8b 82 80 00 00
	00		 mov	 eax, DWORD PTR [edx+128]
  023e1	03 41 34	 add	 eax, DWORD PTR [ecx+52]
  023e4	8b 4d f8	 mov	 ecx, DWORD PTR _this$[ebp]
  023e7	89 81 80 00 00
	00		 mov	 DWORD PTR [ecx+128], eax

; 560  : 				m_nWeaponPwrUps += m_pPatches[TER_RC2ABS(x,y)]->m_nWeaponPwrUps ;

  023ed	8b 45 f8	 mov	 eax, DWORD PTR _this$[ebp]
  023f0	8b 8d f8 f9 ff
	ff		 mov	 ecx, DWORD PTR _x$93883[ebp]
  023f6	0f af 48 08	 imul	 ecx, DWORD PTR [eax+8]
  023fa	03 8d 04 fa ff
	ff		 add	 ecx, DWORD PTR _y$93879[ebp]
  02400	8b 55 f8	 mov	 edx, DWORD PTR _this$[ebp]
  02403	8b 82 fc 04 00
	00		 mov	 eax, DWORD PTR [edx+1276]
  02409	8b 0c 88	 mov	 ecx, DWORD PTR [eax+ecx*4]
  0240c	8b 55 f8	 mov	 edx, DWORD PTR _this$[ebp]
  0240f	8b 82 88 00 00
	00		 mov	 eax, DWORD PTR [edx+136]
  02415	03 41 40	 add	 eax, DWORD PTR [ecx+64]
  02418	8b 4d f8	 mov	 ecx, DWORD PTR _this$[ebp]
  0241b	89 81 88 00 00
	00		 mov	 DWORD PTR [ecx+136], eax

; 561  : 				
; 562  : 				//ods( "Patch %dx%d; required %0.4f, got %d cherries.\n", x, y, fReqCherriesPerPatch, m_pPatches[TER_RC2ABS(x,y)]->m_nCherries );
; 563  : 				
; 564  : 				if( m_vSpawnPos[ m_nSpawnPos ] != xVec3( 0.0f, 0.0f, 0.0f ) )

  02421	6a 00		 push	 0
  02423	6a 00		 push	 0
  02425	6a 00		 push	 0
  02427	8d 8d e8 f6 ff
	ff		 lea	 ecx, DWORD PTR $T94725[ebp]
  0242d	e8 00 00 00 00	 call	 ??0D3DXVECTOR3@@QAE@MMM@Z ; D3DXVECTOR3::D3DXVECTOR3
  02432	50		 push	 eax
  02433	8b 45 f8	 mov	 eax, DWORD PTR _this$[ebp]
  02436	8b 88 f8 04 00
	00		 mov	 ecx, DWORD PTR [eax+1272]
  0243c	6b c9 0c	 imul	 ecx, 12			; 0000000cH
  0243f	8b 55 f8	 mov	 edx, DWORD PTR _this$[ebp]
  02442	8d 8c 0a 8c 04
	00 00		 lea	 ecx, DWORD PTR [edx+ecx+1164]
  02449	e8 00 00 00 00	 call	 ??9D3DXVECTOR3@@QBEHABU0@@Z ; D3DXVECTOR3::operator!=
  0244e	85 c0		 test	 eax, eax
  02450	74 15		 je	 SHORT $L93933

; 565  : 					m_nSpawnPos++ ;

  02452	8b 45 f8	 mov	 eax, DWORD PTR _this$[ebp]
  02455	8b 88 f8 04 00
	00		 mov	 ecx, DWORD PTR [eax+1272]
  0245b	83 c1 01	 add	 ecx, 1
  0245e	8b 55 f8	 mov	 edx, DWORD PTR _this$[ebp]
  02461	89 8a f8 04 00
	00		 mov	 DWORD PTR [edx+1272], ecx
$L93933:

; 566  : 				
; 567  : 				assert( m_pPatches[TER_RC2ABS(x,y)] );

  02467	8b 45 f8	 mov	 eax, DWORD PTR _this$[ebp]
  0246a	8b 8d f8 f9 ff
	ff		 mov	 ecx, DWORD PTR _x$93883[ebp]
  02470	0f af 48 08	 imul	 ecx, DWORD PTR [eax+8]
  02474	03 8d 04 fa ff
	ff		 add	 ecx, DWORD PTR _y$93879[ebp]
  0247a	8b 55 f8	 mov	 edx, DWORD PTR _this$[ebp]
  0247d	8b 82 fc 04 00
	00		 mov	 eax, DWORD PTR [edx+1276]
  02483	83 3c 88 00	 cmp	 DWORD PTR [eax+ecx*4], 0
  02487	75 1f		 jne	 SHORT $L94726
  02489	8b 0d 00 00 00
	00		 mov	 ecx, DWORD PTR ?__LINE__Var@?1???0CTerrain@@QAE@MPAVCx7@@HHHHHHHMHHIIHHH@Z@4JA
  0248f	81 c1 18 02 00
	00		 add	 ecx, 536		; 00000218H
  02495	51		 push	 ecx
  02496	68 00 00 00 00	 push	 OFFSET FLAT:??_C@_0EK@KKPMANGB@c?3?2documents?5and?5settings?2dom?2my@
  0249b	68 00 00 00 00	 push	 OFFSET FLAT:??_C@_0BM@BLFKKMME@m_pPatches?$FLTER_RC2ABS?$CIx?0y?$CJ?$FN?$AA@
  024a0	e8 00 00 00 00	 call	 __assert
  024a5	83 c4 0c	 add	 esp, 12			; 0000000cH
$L94726:

; 568  : 				
; 569  : 			// maintain memory monitor:
; 570  : 				m_dwMem += m_pPatches[TER_RC2ABS(x,y)]->m_dwMem ;

  024a8	8b 45 f8	 mov	 eax, DWORD PTR _this$[ebp]
  024ab	8b 8d f8 f9 ff
	ff		 mov	 ecx, DWORD PTR _x$93883[ebp]
  024b1	0f af 48 08	 imul	 ecx, DWORD PTR [eax+8]
  024b5	03 8d 04 fa ff
	ff		 add	 ecx, DWORD PTR _y$93879[ebp]
  024bb	8b 55 f8	 mov	 edx, DWORD PTR _this$[ebp]
  024be	8b 82 fc 04 00
	00		 mov	 eax, DWORD PTR [edx+1276]
  024c4	8b 0c 88	 mov	 ecx, DWORD PTR [eax+ecx*4]
  024c7	8b 55 f8	 mov	 edx, DWORD PTR _this$[ebp]
  024ca	8b 82 58 04 00
	00		 mov	 eax, DWORD PTR [edx+1112]
  024d0	03 41 5c	 add	 eax, DWORD PTR [ecx+92]
  024d3	8b 4d f8	 mov	 ecx, DWORD PTR _this$[ebp]
  024d6	89 81 58 04 00
	00		 mov	 DWORD PTR [ecx+1112], eax

; 571  : 				
; 572  : 				nPatchesDone++ ;

  024dc	8b 85 10 fa ff
	ff		 mov	 eax, DWORD PTR _nPatchesDone$[ebp]
  024e2	83 c0 01	 add	 eax, 1
  024e5	89 85 10 fa ff
	ff		 mov	 DWORD PTR _nPatchesDone$[ebp], eax

; 573  : 			}

  024eb	e9 a2 f9 ff ff	 jmp	 $L93885
$L93886:
  024f0	e9 70 f9 ff ff	 jmp	 $L93881
$L93882:

; 574  : 
; 575  : 		ods( "total CHERRIES; required %d, got %d.\n", m_nCherriesReq, m_nCherries );

  024f5	8b 45 f8	 mov	 eax, DWORD PTR _this$[ebp]
  024f8	8b 48 70	 mov	 ecx, DWORD PTR [eax+112]
  024fb	51		 push	 ecx
  024fc	8b 55 f8	 mov	 edx, DWORD PTR _this$[ebp]
  024ff	8b 42 6c	 mov	 eax, DWORD PTR [edx+108]
  02502	50		 push	 eax
  02503	68 00 00 00 00	 push	 OFFSET FLAT:??_C@_0CG@NLOMHOHK@total?5CHERRIES?$DL?5required?5?$CFd?0?5got@
  02508	e8 00 00 00 00	 call	 ?ods@@YAXPADZZ		; ods
  0250d	83 c4 0c	 add	 esp, 12			; 0000000cH

; 576  : 		ods( "total SHIELD; required %d, got %d.\n", m_nShieldPwrUpsReq, m_nShieldPwrUps );

  02510	8b 45 f8	 mov	 eax, DWORD PTR _this$[ebp]
  02513	8b 48 78	 mov	 ecx, DWORD PTR [eax+120]
  02516	51		 push	 ecx
  02517	8b 55 f8	 mov	 edx, DWORD PTR _this$[ebp]
  0251a	8b 42 74	 mov	 eax, DWORD PTR [edx+116]
  0251d	50		 push	 eax
  0251e	68 00 00 00 00	 push	 OFFSET FLAT:??_C@_0CE@BCEJGOPN@total?5SHIELD?$DL?5required?5?$CFd?0?5got?5?$CF@
  02523	e8 00 00 00 00	 call	 ?ods@@YAXPADZZ		; ods
  02528	83 c4 0c	 add	 esp, 12			; 0000000cH

; 577  : 		ods( "total ENGINE; required %d, got %d.\n", m_nEnginePwrUpsReq, m_nEnginePwrUps );

  0252b	8b 45 f8	 mov	 eax, DWORD PTR _this$[ebp]
  0252e	8b 88 80 00 00
	00		 mov	 ecx, DWORD PTR [eax+128]
  02534	51		 push	 ecx
  02535	8b 55 f8	 mov	 edx, DWORD PTR _this$[ebp]
  02538	8b 42 7c	 mov	 eax, DWORD PTR [edx+124]
  0253b	50		 push	 eax
  0253c	68 00 00 00 00	 push	 OFFSET FLAT:??_C@_0CE@GBJHEIFO@total?5ENGINE?$DL?5required?5?$CFd?0?5got?5?$CF@
  02541	e8 00 00 00 00	 call	 ?ods@@YAXPADZZ		; ods
  02546	83 c4 0c	 add	 esp, 12			; 0000000cH

; 578  : 		ods( "total WEAPON; required %d, got %d.\n", m_nWeaponPwrUpsReq, m_nWeaponPwrUps );

  02549	8b 45 f8	 mov	 eax, DWORD PTR _this$[ebp]
  0254c	8b 88 88 00 00
	00		 mov	 ecx, DWORD PTR [eax+136]
  02552	51		 push	 ecx
  02553	8b 55 f8	 mov	 edx, DWORD PTR _this$[ebp]
  02556	8b 82 84 00 00
	00		 mov	 eax, DWORD PTR [edx+132]
  0255c	50		 push	 eax
  0255d	68 00 00 00 00	 push	 OFFSET FLAT:??_C@_0CE@GLFDPHCB@total?5WEAPON?$DL?5required?5?$CFd?0?5got?5?$CF@
  02562	e8 00 00 00 00	 call	 ?ods@@YAXPADZZ		; ods
  02567	83 c4 0c	 add	 esp, 12			; 0000000cH

; 579  : 		ods( "MAX_SPAWN_POS=%d, we got %d.\n", MAX_SPAWN_POS, m_nSpawnPos );

  0256a	8b 45 f8	 mov	 eax, DWORD PTR _this$[ebp]
  0256d	8b 88 f8 04 00
	00		 mov	 ecx, DWORD PTR [eax+1272]
  02573	51		 push	 ecx
  02574	6a 09		 push	 9
  02576	68 00 00 00 00	 push	 OFFSET FLAT:??_C@_0BO@NCHGCELJ@MAX_SPAWN_POS?$DN?$CFd?0?5we?5got?5?$CFd?4?6?$AA@
  0257b	e8 00 00 00 00	 call	 ?ods@@YAXPADZZ		; ods
  02580	83 c4 0c	 add	 esp, 12			; 0000000cH

; 580  : 		assert( m_nSpawnPos > 0 );

  02583	8b 45 f8	 mov	 eax, DWORD PTR _this$[ebp]
  02586	83 b8 f8 04 00
	00 00		 cmp	 DWORD PTR [eax+1272], 0
  0258d	7f 1f		 jg	 SHORT $L94727
  0258f	8b 0d 00 00 00
	00		 mov	 ecx, DWORD PTR ?__LINE__Var@?1???0CTerrain@@QAE@MPAVCx7@@HHHHHHHMHHIIHHH@Z@4JA
  02595	81 c1 25 02 00
	00		 add	 ecx, 549		; 00000225H
  0259b	51		 push	 ecx
  0259c	68 00 00 00 00	 push	 OFFSET FLAT:??_C@_0EK@KKPMANGB@c?3?2documents?5and?5settings?2dom?2my@
  025a1	68 00 00 00 00	 push	 OFFSET FLAT:??_C@_0BA@KMCMLBDG@m_nSpawnPos?5?$DO?50?$AA@
  025a6	e8 00 00 00 00	 call	 __assert
  025ab	83 c4 0c	 add	 esp, 12			; 0000000cH
$L94727:

; 581  : 
; 582  : 	//
; 583  : 	// Define bounding volume data:
; 584  : 	//
; 585  : 		m_vMin = xVec3( -m_fLenSQ / 2.0f, m_fMinY, -m_fLenSQ / 2.0f );

  025ae	8b 45 f8	 mov	 eax, DWORD PTR _this$[ebp]
  025b1	d9 40 18	 fld	 DWORD PTR [eax+24]
  025b4	d9 e0		 fchs
  025b6	d8 35 00 00 00
	00		 fdiv	 DWORD PTR __real@40000000
  025bc	51		 push	 ecx
  025bd	d9 1c 24	 fstp	 DWORD PTR [esp]
  025c0	8b 4d f8	 mov	 ecx, DWORD PTR _this$[ebp]
  025c3	8b 51 1c	 mov	 edx, DWORD PTR [ecx+28]
  025c6	52		 push	 edx
  025c7	8b 45 f8	 mov	 eax, DWORD PTR _this$[ebp]
  025ca	d9 40 18	 fld	 DWORD PTR [eax+24]
  025cd	d9 e0		 fchs
  025cf	d8 35 00 00 00
	00		 fdiv	 DWORD PTR __real@40000000
  025d5	51		 push	 ecx
  025d6	d9 1c 24	 fstp	 DWORD PTR [esp]
  025d9	8d 8d d4 f6 ff
	ff		 lea	 ecx, DWORD PTR $T94728[ebp]
  025df	e8 00 00 00 00	 call	 ??0D3DXVECTOR3@@QAE@MMM@Z ; D3DXVECTOR3::D3DXVECTOR3
  025e4	8b 4d f8	 mov	 ecx, DWORD PTR _this$[ebp]
  025e7	81 c1 6c 04 00
	00		 add	 ecx, 1132		; 0000046cH
  025ed	8b 10		 mov	 edx, DWORD PTR [eax]
  025ef	89 11		 mov	 DWORD PTR [ecx], edx
  025f1	8b 50 04	 mov	 edx, DWORD PTR [eax+4]
  025f4	89 51 04	 mov	 DWORD PTR [ecx+4], edx
  025f7	8b 40 08	 mov	 eax, DWORD PTR [eax+8]
  025fa	89 41 08	 mov	 DWORD PTR [ecx+8], eax

; 586  : 		m_vMax = xVec3( +m_fLenSQ / 2.0f, m_fMaxY, +m_fLenSQ / 2.0f );

  025fd	8b 45 f8	 mov	 eax, DWORD PTR _this$[ebp]
  02600	d9 40 18	 fld	 DWORD PTR [eax+24]
  02603	d8 35 00 00 00
	00		 fdiv	 DWORD PTR __real@40000000
  02609	51		 push	 ecx
  0260a	d9 1c 24	 fstp	 DWORD PTR [esp]
  0260d	8b 4d f8	 mov	 ecx, DWORD PTR _this$[ebp]
  02610	8b 51 20	 mov	 edx, DWORD PTR [ecx+32]
  02613	52		 push	 edx
  02614	8b 45 f8	 mov	 eax, DWORD PTR _this$[ebp]
  02617	d9 40 18	 fld	 DWORD PTR [eax+24]
  0261a	d8 35 00 00 00
	00		 fdiv	 DWORD PTR __real@40000000
  02620	51		 push	 ecx
  02621	d9 1c 24	 fstp	 DWORD PTR [esp]
  02624	8d 8d c0 f6 ff
	ff		 lea	 ecx, DWORD PTR $T94729[ebp]
  0262a	e8 00 00 00 00	 call	 ??0D3DXVECTOR3@@QAE@MMM@Z ; D3DXVECTOR3::D3DXVECTOR3
  0262f	8b 4d f8	 mov	 ecx, DWORD PTR _this$[ebp]
  02632	81 c1 78 04 00
	00		 add	 ecx, 1144		; 00000478H
  02638	8b 10		 mov	 edx, DWORD PTR [eax]
  0263a	89 11		 mov	 DWORD PTR [ecx], edx
  0263c	8b 50 04	 mov	 edx, DWORD PTR [eax+4]
  0263f	89 51 04	 mov	 DWORD PTR [ecx+4], edx
  02642	8b 40 08	 mov	 eax, DWORD PTR [eax+8]
  02645	89 41 08	 mov	 DWORD PTR [ecx+8], eax

; 587  : 
; 588  : 	//
; 589  : 	// Build a Quadtree of the terrain patches, and map patches to terminal nodes:
; 590  : 	//
; 591  : 		m_pQT = new CQuadtree(&m_vMin, &m_vMax, m_nPatchesReqQuadTDepth) ;

  02648	68 88 81 00 00	 push	 33160			; 00008188H
  0264d	e8 00 00 00 00	 call	 ??2@YAPAXI@Z		; operator new
  02652	83 c4 04	 add	 esp, 4
  02655	89 85 b4 f6 ff
	ff		 mov	 DWORD PTR $T94730[ebp], eax
  0265b	83 bd b4 f6 ff
	ff 00		 cmp	 DWORD PTR $T94730[ebp], 0
  02662	74 2d		 je	 SHORT $L94731
  02664	8b 45 f8	 mov	 eax, DWORD PTR _this$[ebp]
  02667	8b 48 0c	 mov	 ecx, DWORD PTR [eax+12]
  0266a	51		 push	 ecx
  0266b	8b 55 f8	 mov	 edx, DWORD PTR _this$[ebp]
  0266e	81 c2 78 04 00
	00		 add	 edx, 1144		; 00000478H
  02674	52		 push	 edx
  02675	8b 45 f8	 mov	 eax, DWORD PTR _this$[ebp]
  02678	05 6c 04 00 00	 add	 eax, 1132		; 0000046cH
  0267d	50		 push	 eax
  0267e	8b 8d b4 f6 ff
	ff		 mov	 ecx, DWORD PTR $T94730[ebp]
  02684	e8 00 00 00 00	 call	 ??0CQuadtree@@QAE@PAUD3DXVECTOR3@@0H@Z ; CQuadtree::CQuadtree
  02689	89 85 94 f6 ff
	ff		 mov	 DWORD PTR tv1710[ebp], eax
  0268f	eb 0a		 jmp	 SHORT $L94732
$L94731:
  02691	c7 85 94 f6 ff
	ff 00 00 00 00	 mov	 DWORD PTR tv1710[ebp], 0
$L94732:
  0269b	8b 4d f8	 mov	 ecx, DWORD PTR _this$[ebp]
  0269e	8b 95 94 f6 ff
	ff		 mov	 edx, DWORD PTR tv1710[ebp]
  026a4	89 91 84 04 00
	00		 mov	 DWORD PTR [ecx+1156], edx

; 592  : 		int nFoundPatches = 0 ;

  026aa	c7 85 9c f9 ff
	ff 00 00 00 00	 mov	 DWORD PTR _nFoundPatches$[ebp], 0

; 593  : 		for (i = 0 ; i < (unsigned)m_pQT->m_nQTNodes ; i ++)

  026b4	c7 45 b0 00 00
	00 00		 mov	 DWORD PTR _i$[ebp], 0
  026bb	eb 09		 jmp	 SHORT $L93949
$L93950:
  026bd	8b 45 b0	 mov	 eax, DWORD PTR _i$[ebp]
  026c0	83 c0 01	 add	 eax, 1
  026c3	89 45 b0	 mov	 DWORD PTR _i$[ebp], eax
$L93949:
  026c6	8b 45 f8	 mov	 eax, DWORD PTR _this$[ebp]
  026c9	8b 88 84 04 00
	00		 mov	 ecx, DWORD PTR [eax+1156]
  026cf	8b 55 b0	 mov	 edx, DWORD PTR _i$[ebp]
  026d2	3b 91 08 80 00
	00		 cmp	 edx, DWORD PTR [ecx+32776]
  026d8	0f 83 5e 02 00
	00		 jae	 $L93951

; 594  : 		{
; 595  : 			if (m_pQT->m_pQTNodes[i]->pKids[0] == NULL)

  026de	8b 45 f8	 mov	 eax, DWORD PTR _this$[ebp]
  026e1	8b 88 84 04 00
	00		 mov	 ecx, DWORD PTR [eax+1156]
  026e7	8b 55 b0	 mov	 edx, DWORD PTR _i$[ebp]
  026ea	8b 44 91 08	 mov	 eax, DWORD PTR [ecx+edx*4+8]
  026ee	83 78 0c 00	 cmp	 DWORD PTR [eax+12], 0
  026f2	0f 85 3f 02 00
	00		 jne	 $L93952

; 596  : 			{
; 597  : 			// terminal node found, so find corresponding patch;
; 598  : 				for (int y = 0 ; y < m_nPatchesSQ ; y ++)

  026f8	c7 85 90 f9 ff
	ff 00 00 00 00	 mov	 DWORD PTR _y$93953[ebp], 0
  02702	eb 0f		 jmp	 SHORT $L93954
$L93955:
  02704	8b 85 90 f9 ff
	ff		 mov	 eax, DWORD PTR _y$93953[ebp]
  0270a	83 c0 01	 add	 eax, 1
  0270d	89 85 90 f9 ff
	ff		 mov	 DWORD PTR _y$93953[ebp], eax
$L93954:
  02713	8b 45 f8	 mov	 eax, DWORD PTR _this$[ebp]
  02716	8b 8d 90 f9 ff
	ff		 mov	 ecx, DWORD PTR _y$93953[ebp]
  0271c	3b 48 08	 cmp	 ecx, DWORD PTR [eax+8]
  0271f	0f 8d 12 02 00
	00		 jge	 $L93952

; 599  : 					for (int x = 0 ; x < m_nPatchesSQ ; x ++)

  02725	c7 85 84 f9 ff
	ff 00 00 00 00	 mov	 DWORD PTR _x$93957[ebp], 0
  0272f	eb 0f		 jmp	 SHORT $L93958
$L93959:
  02731	8b 85 84 f9 ff
	ff		 mov	 eax, DWORD PTR _x$93957[ebp]
  02737	83 c0 01	 add	 eax, 1
  0273a	89 85 84 f9 ff
	ff		 mov	 DWORD PTR _x$93957[ebp], eax
$L93958:
  02740	8b 45 f8	 mov	 eax, DWORD PTR _this$[ebp]
  02743	8b 8d 84 f9 ff
	ff		 mov	 ecx, DWORD PTR _x$93957[ebp]
  02749	3b 48 08	 cmp	 ecx, DWORD PTR [eax+8]
  0274c	0f 8d e0 01 00
	00		 jge	 $L93960

; 600  : 					{
; 601  : 						if (m_pPatches[TER_RC2ABS(x,y)]->m_pPatchLOD[0]->m_vMin.x == m_pQT->m_pQTNodes[i]->vMin.x && 
; 602  : 							m_pPatches[TER_RC2ABS(x,y)]->m_pPatchLOD[0]->m_vMax.x == m_pQT->m_pQTNodes[i]->vMax.x && 
; 603  : 							m_pPatches[TER_RC2ABS(x,y)]->m_pPatchLOD[0]->m_vMin.z == m_pQT->m_pQTNodes[i]->vMin.z && 
; 604  : 							m_pPatches[TER_RC2ABS(x,y)]->m_pPatchLOD[0]->m_vMax.z == m_pQT->m_pQTNodes[i]->vMax.z)

  02752	8b 45 f8	 mov	 eax, DWORD PTR _this$[ebp]
  02755	8b 8d 84 f9 ff
	ff		 mov	 ecx, DWORD PTR _x$93957[ebp]
  0275b	0f af 48 08	 imul	 ecx, DWORD PTR [eax+8]
  0275f	03 8d 90 f9 ff
	ff		 add	 ecx, DWORD PTR _y$93953[ebp]
  02765	8b 55 f8	 mov	 edx, DWORD PTR _this$[ebp]
  02768	8b 82 fc 04 00
	00		 mov	 eax, DWORD PTR [edx+1276]
  0276e	8b 0c 88	 mov	 ecx, DWORD PTR [eax+ecx*4]
  02771	8b 51 58	 mov	 edx, DWORD PTR [ecx+88]
  02774	8b 02		 mov	 eax, DWORD PTR [edx]
  02776	8b 4d f8	 mov	 ecx, DWORD PTR _this$[ebp]
  02779	8b 91 84 04 00
	00		 mov	 edx, DWORD PTR [ecx+1156]
  0277f	8b 4d b0	 mov	 ecx, DWORD PTR _i$[ebp]
  02782	8b 54 8a 08	 mov	 edx, DWORD PTR [edx+ecx*4+8]
  02786	d9 80 58 0a 00
	00		 fld	 DWORD PTR [eax+2648]
  0278c	d8 5a 1c	 fcomp	 DWORD PTR [edx+28]
  0278f	df e0		 fnstsw	 ax
  02791	f6 c4 44	 test	 ah, 68			; 00000044H
  02794	0f 8a 93 01 00
	00		 jp	 $L93961
  0279a	8b 45 f8	 mov	 eax, DWORD PTR _this$[ebp]
  0279d	8b 8d 84 f9 ff
	ff		 mov	 ecx, DWORD PTR _x$93957[ebp]
  027a3	0f af 48 08	 imul	 ecx, DWORD PTR [eax+8]
  027a7	03 8d 90 f9 ff
	ff		 add	 ecx, DWORD PTR _y$93953[ebp]
  027ad	8b 55 f8	 mov	 edx, DWORD PTR _this$[ebp]
  027b0	8b 82 fc 04 00
	00		 mov	 eax, DWORD PTR [edx+1276]
  027b6	8b 0c 88	 mov	 ecx, DWORD PTR [eax+ecx*4]
  027b9	8b 51 58	 mov	 edx, DWORD PTR [ecx+88]
  027bc	8b 02		 mov	 eax, DWORD PTR [edx]
  027be	8b 4d f8	 mov	 ecx, DWORD PTR _this$[ebp]
  027c1	8b 91 84 04 00
	00		 mov	 edx, DWORD PTR [ecx+1156]
  027c7	8b 4d b0	 mov	 ecx, DWORD PTR _i$[ebp]
  027ca	8b 54 8a 08	 mov	 edx, DWORD PTR [edx+ecx*4+8]
  027ce	d9 80 64 0a 00
	00		 fld	 DWORD PTR [eax+2660]
  027d4	d8 5a 28	 fcomp	 DWORD PTR [edx+40]
  027d7	df e0		 fnstsw	 ax
  027d9	f6 c4 44	 test	 ah, 68			; 00000044H
  027dc	0f 8a 4b 01 00
	00		 jp	 $L93961
  027e2	8b 45 f8	 mov	 eax, DWORD PTR _this$[ebp]
  027e5	8b 8d 84 f9 ff
	ff		 mov	 ecx, DWORD PTR _x$93957[ebp]
  027eb	0f af 48 08	 imul	 ecx, DWORD PTR [eax+8]
  027ef	03 8d 90 f9 ff
	ff		 add	 ecx, DWORD PTR _y$93953[ebp]
  027f5	8b 55 f8	 mov	 edx, DWORD PTR _this$[ebp]
  027f8	8b 82 fc 04 00
	00		 mov	 eax, DWORD PTR [edx+1276]
  027fe	8b 0c 88	 mov	 ecx, DWORD PTR [eax+ecx*4]
  02801	8b 51 58	 mov	 edx, DWORD PTR [ecx+88]
  02804	8b 02		 mov	 eax, DWORD PTR [edx]
  02806	8b 4d f8	 mov	 ecx, DWORD PTR _this$[ebp]
  02809	8b 91 84 04 00
	00		 mov	 edx, DWORD PTR [ecx+1156]
  0280f	8b 4d b0	 mov	 ecx, DWORD PTR _i$[ebp]
  02812	8b 54 8a 08	 mov	 edx, DWORD PTR [edx+ecx*4+8]
  02816	d9 80 60 0a 00
	00		 fld	 DWORD PTR [eax+2656]
  0281c	d8 5a 24	 fcomp	 DWORD PTR [edx+36]
  0281f	df e0		 fnstsw	 ax
  02821	f6 c4 44	 test	 ah, 68			; 00000044H
  02824	0f 8a 03 01 00
	00		 jp	 $L93961
  0282a	8b 45 f8	 mov	 eax, DWORD PTR _this$[ebp]
  0282d	8b 8d 84 f9 ff
	ff		 mov	 ecx, DWORD PTR _x$93957[ebp]
  02833	0f af 48 08	 imul	 ecx, DWORD PTR [eax+8]
  02837	03 8d 90 f9 ff
	ff		 add	 ecx, DWORD PTR _y$93953[ebp]
  0283d	8b 55 f8	 mov	 edx, DWORD PTR _this$[ebp]
  02840	8b 82 fc 04 00
	00		 mov	 eax, DWORD PTR [edx+1276]
  02846	8b 0c 88	 mov	 ecx, DWORD PTR [eax+ecx*4]
  02849	8b 51 58	 mov	 edx, DWORD PTR [ecx+88]
  0284c	8b 02		 mov	 eax, DWORD PTR [edx]
  0284e	8b 4d f8	 mov	 ecx, DWORD PTR _this$[ebp]
  02851	8b 91 84 04 00
	00		 mov	 edx, DWORD PTR [ecx+1156]
  02857	8b 4d b0	 mov	 ecx, DWORD PTR _i$[ebp]
  0285a	8b 54 8a 08	 mov	 edx, DWORD PTR [edx+ecx*4+8]
  0285e	d9 80 6c 0a 00
	00		 fld	 DWORD PTR [eax+2668]
  02864	d8 5a 30	 fcomp	 DWORD PTR [edx+48]
  02867	df e0		 fnstsw	 ax
  02869	f6 c4 44	 test	 ah, 68			; 00000044H
  0286c	0f 8a bb 00 00
	00		 jp	 $L93961

; 605  : 						{
; 606  : 							nFoundPatches++ ;

  02872	8b 85 9c f9 ff
	ff		 mov	 eax, DWORD PTR _nFoundPatches$[ebp]
  02878	83 c0 01	 add	 eax, 1
  0287b	89 85 9c f9 ff
	ff		 mov	 DWORD PTR _nFoundPatches$[ebp], eax

; 607  : 							m_pQT->m_pQTNodes[i]->nX = x ;

  02881	8b 45 f8	 mov	 eax, DWORD PTR _this$[ebp]
  02884	8b 88 84 04 00
	00		 mov	 ecx, DWORD PTR [eax+1156]
  0288a	8b 55 b0	 mov	 edx, DWORD PTR _i$[ebp]
  0288d	8b 44 91 08	 mov	 eax, DWORD PTR [ecx+edx*4+8]
  02891	8b 8d 84 f9 ff
	ff		 mov	 ecx, DWORD PTR _x$93957[ebp]
  02897	89 48 04	 mov	 DWORD PTR [eax+4], ecx

; 608  : 							m_pQT->m_pQTNodes[i]->nY = y ;

  0289a	8b 45 f8	 mov	 eax, DWORD PTR _this$[ebp]
  0289d	8b 88 84 04 00
	00		 mov	 ecx, DWORD PTR [eax+1156]
  028a3	8b 55 b0	 mov	 edx, DWORD PTR _i$[ebp]
  028a6	8b 44 91 08	 mov	 eax, DWORD PTR [ecx+edx*4+8]
  028aa	8b 8d 90 f9 ff
	ff		 mov	 ecx, DWORD PTR _y$93953[ebp]
  028b0	89 48 08	 mov	 DWORD PTR [eax+8], ecx

; 609  : 							
; 610  : 						// neat; i like - refines terminal qtree node volumes v. cheaply
; 611  : 							m_pQT->m_pQTNodes[i]->vMax.y = m_pPatches[TER_RC2ABS(x,y)]->m_pPatchLOD[0]->m_vMax.y ;

  028b3	8b 45 f8	 mov	 eax, DWORD PTR _this$[ebp]
  028b6	8b 8d 84 f9 ff
	ff		 mov	 ecx, DWORD PTR _x$93957[ebp]
  028bc	0f af 48 08	 imul	 ecx, DWORD PTR [eax+8]
  028c0	03 8d 90 f9 ff
	ff		 add	 ecx, DWORD PTR _y$93953[ebp]
  028c6	8b 55 f8	 mov	 edx, DWORD PTR _this$[ebp]
  028c9	8b 82 fc 04 00
	00		 mov	 eax, DWORD PTR [edx+1276]
  028cf	8b 0c 88	 mov	 ecx, DWORD PTR [eax+ecx*4]
  028d2	8b 51 58	 mov	 edx, DWORD PTR [ecx+88]
  028d5	8b 02		 mov	 eax, DWORD PTR [edx]
  028d7	8b 4d f8	 mov	 ecx, DWORD PTR _this$[ebp]
  028da	8b 91 84 04 00
	00		 mov	 edx, DWORD PTR [ecx+1156]
  028e0	8b 4d b0	 mov	 ecx, DWORD PTR _i$[ebp]
  028e3	8b 54 8a 08	 mov	 edx, DWORD PTR [edx+ecx*4+8]
  028e7	8b 80 68 0a 00
	00		 mov	 eax, DWORD PTR [eax+2664]
  028ed	89 42 2c	 mov	 DWORD PTR [edx+44], eax

; 612  : 							m_pQT->m_pQTNodes[i]->vMin.y = m_pPatches[TER_RC2ABS(x,y)]->m_pPatchLOD[0]->m_vMin.y ;

  028f0	8b 45 f8	 mov	 eax, DWORD PTR _this$[ebp]
  028f3	8b 8d 84 f9 ff
	ff		 mov	 ecx, DWORD PTR _x$93957[ebp]
  028f9	0f af 48 08	 imul	 ecx, DWORD PTR [eax+8]
  028fd	03 8d 90 f9 ff
	ff		 add	 ecx, DWORD PTR _y$93953[ebp]
  02903	8b 55 f8	 mov	 edx, DWORD PTR _this$[ebp]
  02906	8b 82 fc 04 00
	00		 mov	 eax, DWORD PTR [edx+1276]
  0290c	8b 0c 88	 mov	 ecx, DWORD PTR [eax+ecx*4]
  0290f	8b 51 58	 mov	 edx, DWORD PTR [ecx+88]
  02912	8b 02		 mov	 eax, DWORD PTR [edx]
  02914	8b 4d f8	 mov	 ecx, DWORD PTR _this$[ebp]
  02917	8b 91 84 04 00
	00		 mov	 edx, DWORD PTR [ecx+1156]
  0291d	8b 4d b0	 mov	 ecx, DWORD PTR _i$[ebp]
  02920	8b 54 8a 08	 mov	 edx, DWORD PTR [edx+ecx*4+8]
  02924	8b 80 5c 0a 00
	00		 mov	 eax, DWORD PTR [eax+2652]
  0292a	89 42 20	 mov	 DWORD PTR [edx+32], eax
$L93961:

; 613  : 						}
; 614  : 					}

  0292d	e9 ff fd ff ff	 jmp	 $L93959
$L93960:
  02932	e9 cd fd ff ff	 jmp	 $L93955
$L93952:

; 615  : 			}
; 616  : 		}

  02937	e9 81 fd ff ff	 jmp	 $L93950
$L93951:

; 617  : 		assert( nFoundPatches == m_nPatchesSQ * m_nPatchesSQ );

  0293c	8b 45 f8	 mov	 eax, DWORD PTR _this$[ebp]
  0293f	8b 4d f8	 mov	 ecx, DWORD PTR _this$[ebp]
  02942	8b 50 08	 mov	 edx, DWORD PTR [eax+8]
  02945	0f af 51 08	 imul	 edx, DWORD PTR [ecx+8]
  02949	39 95 9c f9 ff
	ff		 cmp	 DWORD PTR _nFoundPatches$[ebp], edx
  0294f	74 1d		 je	 SHORT $L94733
  02951	a1 00 00 00 00	 mov	 eax, DWORD PTR ?__LINE__Var@?1???0CTerrain@@QAE@MPAVCx7@@HHHHHHHMHHIIHHH@Z@4JA
  02956	05 4a 02 00 00	 add	 eax, 586		; 0000024aH
  0295b	50		 push	 eax
  0295c	68 00 00 00 00	 push	 OFFSET FLAT:??_C@_0EK@KKPMANGB@c?3?2documents?5and?5settings?2dom?2my@
  02961	68 00 00 00 00	 push	 OFFSET FLAT:??_C@_0CN@GGJJMBAJ@nFoundPatches?5?$DN?$DN?5m_nPatchesSQ?5?$CK?5@
  02966	e8 00 00 00 00	 call	 __assert
  0296b	83 c4 0c	 add	 esp, 12			; 0000000cH
$L94733:

; 618  : 
; 619  : 	//
; 620  : 	// Build LERP helper:
; 621  : 	//
; 622  : 		m_pfLERPHelper = NULL ;

  0296e	8b 45 f8	 mov	 eax, DWORD PTR _this$[ebp]
  02971	c7 80 88 04 00
	00 00 00 00 00	 mov	 DWORD PTR [eax+1160], 0

; 623  : 		m_pfLERPHelper = new float[m_nHeightmapSQ - 1] ;

  0297b	8b 45 f8	 mov	 eax, DWORD PTR _this$[ebp]
  0297e	8b 88 60 04 00
	00		 mov	 ecx, DWORD PTR [eax+1120]
  02984	8d 14 8d fc ff
	ff ff		 lea	 edx, DWORD PTR [ecx*4-4]
  0298b	52		 push	 edx
  0298c	e8 00 00 00 00	 call	 ??2@YAPAXI@Z		; operator new
  02991	83 c4 04	 add	 esp, 4
  02994	89 85 a8 f6 ff
	ff		 mov	 DWORD PTR $T94734[ebp], eax
  0299a	8b 45 f8	 mov	 eax, DWORD PTR _this$[ebp]
  0299d	8b 8d a8 f6 ff
	ff		 mov	 ecx, DWORD PTR $T94734[ebp]
  029a3	89 88 88 04 00
	00		 mov	 DWORD PTR [eax+1160], ecx

; 624  : 		assert( m_pfLERPHelper );

  029a9	8b 45 f8	 mov	 eax, DWORD PTR _this$[ebp]
  029ac	83 b8 88 04 00
	00 00		 cmp	 DWORD PTR [eax+1160], 0
  029b3	75 1f		 jne	 SHORT $L94735
  029b5	8b 0d 00 00 00
	00		 mov	 ecx, DWORD PTR ?__LINE__Var@?1???0CTerrain@@QAE@MPAVCx7@@HHHHHHHMHHIIHHH@Z@4JA
  029bb	81 c1 51 02 00
	00		 add	 ecx, 593		; 00000251H
  029c1	51		 push	 ecx
  029c2	68 00 00 00 00	 push	 OFFSET FLAT:??_C@_0EK@KKPMANGB@c?3?2documents?5and?5settings?2dom?2my@
  029c7	68 00 00 00 00	 push	 OFFSET FLAT:??_C@_0P@HMGOFBJC@m_pfLERPHelper?$AA@
  029cc	e8 00 00 00 00	 call	 __assert
  029d1	83 c4 0c	 add	 esp, 12			; 0000000cH
$L94735:

; 625  : 		for (i = 0 ; i < m_nHeightmapSQ - 1 ; i ++)

  029d4	c7 45 b0 00 00
	00 00		 mov	 DWORD PTR _i$[ebp], 0
  029db	eb 09		 jmp	 SHORT $L93968
$L93969:
  029dd	8b 45 b0	 mov	 eax, DWORD PTR _i$[ebp]
  029e0	83 c0 01	 add	 eax, 1
  029e3	89 45 b0	 mov	 DWORD PTR _i$[ebp], eax
$L93968:
  029e6	8b 45 f8	 mov	 eax, DWORD PTR _this$[ebp]
  029e9	8b 88 60 04 00
	00		 mov	 ecx, DWORD PTR [eax+1120]
  029ef	83 e9 01	 sub	 ecx, 1
  029f2	39 4d b0	 cmp	 DWORD PTR _i$[ebp], ecx
  029f5	73 3c		 jae	 SHORT $L93970

; 626  : 			m_pfLERPHelper[i] = m_vMin.x + (float)i * m_fUnitSize ;

  029f7	8b 45 b0	 mov	 eax, DWORD PTR _i$[ebp]
  029fa	89 85 90 f6 ff
	ff		 mov	 DWORD PTR tv3315[ebp], eax
  02a00	c7 85 94 f6 ff
	ff 00 00 00 00	 mov	 DWORD PTR tv3315[ebp+4], 0
  02a0a	df ad 90 f6 ff
	ff		 fild	 QWORD PTR tv3315[ebp]
  02a10	8b 4d f8	 mov	 ecx, DWORD PTR _this$[ebp]
  02a13	d8 89 64 04 00
	00		 fmul	 DWORD PTR [ecx+1124]
  02a19	8b 55 f8	 mov	 edx, DWORD PTR _this$[ebp]
  02a1c	d8 82 6c 04 00
	00		 fadd	 DWORD PTR [edx+1132]
  02a22	8b 45 f8	 mov	 eax, DWORD PTR _this$[ebp]
  02a25	8b 88 88 04 00
	00		 mov	 ecx, DWORD PTR [eax+1160]
  02a2b	8b 55 b0	 mov	 edx, DWORD PTR _i$[ebp]
  02a2e	d9 1c 91	 fstp	 DWORD PTR [ecx+edx*4]
  02a31	eb aa		 jmp	 SHORT $L93969
$L93970:

; 627  : 		m_dwMem += sizeof(float) * (m_nHeightmapSQ - 1) ;

  02a33	8b 45 f8	 mov	 eax, DWORD PTR _this$[ebp]
  02a36	8b 88 60 04 00
	00		 mov	 ecx, DWORD PTR [eax+1120]
  02a3c	8b 55 f8	 mov	 edx, DWORD PTR _this$[ebp]
  02a3f	8b 82 58 04 00
	00		 mov	 eax, DWORD PTR [edx+1112]
  02a45	8d 4c 88 fc	 lea	 ecx, DWORD PTR [eax+ecx*4-4]
  02a49	8b 55 f8	 mov	 edx, DWORD PTR _this$[ebp]
  02a4c	89 8a 58 04 00
	00		 mov	 DWORD PTR [edx+1112], ecx

; 628  : 
; 629  : 	//
; 630  : 	// Distance-sorted array of gameitem pointers;
; 631  : 	//
; 632  : 		m_pisAllItemsDistanceSorted = NULL ;

  02a52	8b 45 f8	 mov	 eax, DWORD PTR _this$[ebp]
  02a55	c7 80 94 00 00
	00 00 00 00 00	 mov	 DWORD PTR [eax+148], 0

; 633  : 	}

  02a5f	8b 45 f8	 mov	 eax, DWORD PTR _this$[ebp]
  02a62	52		 push	 edx
  02a63	8b cd		 mov	 ecx, ebp
  02a65	50		 push	 eax
  02a66	8d 15 00 00 00
	00		 lea	 edx, DWORD PTR $L94797
  02a6c	e8 00 00 00 00	 call	 @_RTC_CheckStackVars@8
  02a71	58		 pop	 eax
  02a72	5a		 pop	 edx
  02a73	5f		 pop	 edi
  02a74	5e		 pop	 esi
  02a75	5b		 pop	 ebx
  02a76	81 c4 80 09 00
	00		 add	 esp, 2432		; 00000980H
  02a7c	3b ec		 cmp	 ebp, esp
  02a7e	e8 00 00 00 00	 call	 __RTC_CheckEsp
  02a83	8b e5		 mov	 esp, ebp
  02a85	5d		 pop	 ebp
  02a86	c2 44 00	 ret	 68			; 00000044H
$L94797:
  02a89	07 00 00 00	 DD	 7
  02a8d	00 00 00 00	 DD	 $L94796
$L94796:
  02a91	a8 fb ff ff	 DD	 -1112			; fffffba8H
  02a95	00 04 00 00	 DD	 1024			; 00000400H
  02a99	00 00 00 00	 DD	 $L94744
  02a9d	48 fb ff ff	 DD	 -1208			; fffffb48H
  02aa1	10 00 00 00	 DD	 16			; 00000010H
  02aa5	00 00 00 00	 DD	 $L94790
  02aa9	30 fb ff ff	 DD	 -1232			; fffffb30H
  02aad	10 00 00 00	 DD	 16			; 00000010H
  02ab1	00 00 00 00	 DD	 $L94791
  02ab5	18 fb ff ff	 DD	 -1256			; fffffb18H
  02ab9	10 00 00 00	 DD	 16			; 00000010H
  02abd	00 00 00 00	 DD	 $L94792
  02ac1	00 fb ff ff	 DD	 -1280			; fffffb00H
  02ac5	10 00 00 00	 DD	 16			; 00000010H
  02ac9	00 00 00 00	 DD	 $L94793
  02acd	e8 fa ff ff	 DD	 -1304			; fffffae8H
  02ad1	10 00 00 00	 DD	 16			; 00000010H
  02ad5	00 00 00 00	 DD	 $L94794
  02ad9	a8 f9 ff ff	 DD	 -1624			; fffff9a8H
  02add	0c 00 00 00	 DD	 12			; 0000000cH
  02ae1	00 00 00 00	 DD	 $L94795
$L94795:
  02ae5	76		 DB	 118			; 00000076H
  02ae6	54		 DB	 84			; 00000054H
  02ae7	4c		 DB	 76			; 0000004cH
  02ae8	00		 DB	 0
$L94794:
  02ae9	6d		 DB	 109			; 0000006dH
  02aea	5f		 DB	 95			; 0000005fH
  02aeb	63		 DB	 99			; 00000063H
  02aec	6f		 DB	 111			; 0000006fH
  02aed	6c		 DB	 108			; 0000006cH
  02aee	48		 DB	 72			; 00000048H
  02aef	65		 DB	 101			; 00000065H
  02af0	61		 DB	 97			; 00000061H
  02af1	6c		 DB	 108			; 0000006cH
  02af2	74		 DB	 116			; 00000074H
  02af3	68		 DB	 104			; 00000068H
  02af4	00		 DB	 0
$L94793:
  02af5	6d		 DB	 109			; 0000006dH
  02af6	5f		 DB	 95			; 0000005fH
  02af7	63		 DB	 99			; 00000063H
  02af8	6f		 DB	 111			; 0000006fH
  02af9	6c		 DB	 108			; 0000006cH
  02afa	57		 DB	 87			; 00000057H
  02afb	65		 DB	 101			; 00000065H
  02afc	61		 DB	 97			; 00000061H
  02afd	70		 DB	 112			; 00000070H
  02afe	6f		 DB	 111			; 0000006fH
  02aff	6e		 DB	 110			; 0000006eH
  02b00	00		 DB	 0
$L94792:
  02b01	6d		 DB	 109			; 0000006dH
  02b02	5f		 DB	 95			; 0000005fH
  02b03	63		 DB	 99			; 00000063H
  02b04	6f		 DB	 111			; 0000006fH
  02b05	6c		 DB	 108			; 0000006cH
  02b06	45		 DB	 69			; 00000045H
  02b07	6e		 DB	 110			; 0000006eH
  02b08	67		 DB	 103			; 00000067H
  02b09	69		 DB	 105			; 00000069H
  02b0a	6e		 DB	 110			; 0000006eH
  02b0b	65		 DB	 101			; 00000065H
  02b0c	00		 DB	 0
$L94791:
  02b0d	6d		 DB	 109			; 0000006dH
  02b0e	5f		 DB	 95			; 0000005fH
  02b0f	63		 DB	 99			; 00000063H
  02b10	6f		 DB	 111			; 0000006fH
  02b11	6c		 DB	 108			; 0000006cH
  02b12	53		 DB	 83			; 00000053H
  02b13	68		 DB	 104			; 00000068H
  02b14	69		 DB	 105			; 00000069H
  02b15	65		 DB	 101			; 00000065H
  02b16	6c		 DB	 108			; 0000006cH
  02b17	64		 DB	 100			; 00000064H
  02b18	00		 DB	 0
$L94790:
  02b19	6d		 DB	 109			; 0000006dH
  02b1a	5f		 DB	 95			; 0000005fH
  02b1b	63		 DB	 99			; 00000063H
  02b1c	6f		 DB	 111			; 0000006fH
  02b1d	6c		 DB	 108			; 0000006cH
  02b1e	43		 DB	 67			; 00000043H
  02b1f	68		 DB	 104			; 00000068H
  02b20	65		 DB	 101			; 00000065H
  02b21	72		 DB	 114			; 00000072H
  02b22	72		 DB	 114			; 00000072H
  02b23	79		 DB	 121			; 00000079H
  02b24	00		 DB	 0
$L94744:
  02b25	66		 DB	 102			; 00000066H
  02b26	52		 DB	 82			; 00000052H
  02b27	6e		 DB	 110			; 0000006eH
  02b28	64		 DB	 100			; 00000064H
  02b29	00		 DB	 0
??0CTerrain@@QAE@MPAVCx7@@HHHHHHHMHHIIHHH@Z ENDP	; CTerrain::CTerrain
_TEXT	ENDS
EXTRN	_fabs:NEAR
; Function compile flags: /Odt /RTCsu /ZI
; File c:\program files\microsoft visual studio .net\vc7\include\math.h
;	COMDAT _fabsf
_TEXT	SEGMENT
tv70 = -196
__X$ = 8
_fabsf	PROC NEAR					; COMDAT

; 450  :         {return ((float)fabs((double)_X)); }

  00000	55		 push	 ebp
  00001	8b ec		 mov	 ebp, esp
  00003	81 ec c4 00 00
	00		 sub	 esp, 196		; 000000c4H
  00009	53		 push	 ebx
  0000a	56		 push	 esi
  0000b	57		 push	 edi
  0000c	8d bd 3c ff ff
	ff		 lea	 edi, DWORD PTR [ebp-196]
  00012	b9 31 00 00 00	 mov	 ecx, 49			; 00000031H
  00017	b8 cc cc cc cc	 mov	 eax, -858993460		; ccccccccH
  0001c	f3 ab		 rep stosd
  0001e	d9 45 08	 fld	 DWORD PTR __X$[ebp]
  00021	83 ec 08	 sub	 esp, 8
  00024	dd 1c 24	 fstp	 QWORD PTR [esp]
  00027	e8 00 00 00 00	 call	 _fabs
  0002c	83 c4 08	 add	 esp, 8
  0002f	d9 95 3c ff ff
	ff		 fst	 DWORD PTR tv70[ebp]
  00035	5f		 pop	 edi
  00036	5e		 pop	 esi
  00037	5b		 pop	 ebx
  00038	81 c4 c4 00 00
	00		 add	 esp, 196		; 000000c4H
  0003e	3b ec		 cmp	 ebp, esp
  00040	e8 00 00 00 00	 call	 __RTC_CheckEsp
  00045	8b e5		 mov	 esp, ebp
  00047	5d		 pop	 ebp
  00048	c3		 ret	 0
_fabsf	ENDP
_TEXT	ENDS
EXTRN	_sin:NEAR
; Function compile flags: /Odt /RTCsu /ZI
;	COMDAT _sinf
_TEXT	SEGMENT
tv70 = -196
__X$ = 8
_sinf	PROC NEAR					; COMDAT

; 466  :         {return ((float)sin((double)_X)); }

  00000	55		 push	 ebp
  00001	8b ec		 mov	 ebp, esp
  00003	81 ec c4 00 00
	00		 sub	 esp, 196		; 000000c4H
  00009	53		 push	 ebx
  0000a	56		 push	 esi
  0000b	57		 push	 edi
  0000c	8d bd 3c ff ff
	ff		 lea	 edi, DWORD PTR [ebp-196]
  00012	b9 31 00 00 00	 mov	 ecx, 49			; 00000031H
  00017	b8 cc cc cc cc	 mov	 eax, -858993460		; ccccccccH
  0001c	f3 ab		 rep stosd
  0001e	d9 45 08	 fld	 DWORD PTR __X$[ebp]
  00021	83 ec 08	 sub	 esp, 8
  00024	dd 1c 24	 fstp	 QWORD PTR [esp]
  00027	e8 00 00 00 00	 call	 _sin
  0002c	83 c4 08	 add	 esp, 8
  0002f	d9 95 3c ff ff
	ff		 fst	 DWORD PTR tv70[ebp]
  00035	5f		 pop	 edi
  00036	5e		 pop	 esi
  00037	5b		 pop	 ebx
  00038	81 c4 c4 00 00
	00		 add	 esp, 196		; 000000c4H
  0003e	3b ec		 cmp	 ebp, esp
  00040	e8 00 00 00 00	 call	 __RTC_CheckEsp
  00045	8b e5		 mov	 esp, ebp
  00047	5d		 pop	 ebp
  00048	c3		 ret	 0
_sinf	ENDP
; Function compile flags: /Odt /RTCsu /ZI
; File c:\dxsdk\include\d3dx8math.h
_TEXT	ENDS
;	COMDAT ??0D3DXVECTOR3@@QAE@XZ
_TEXT	SEGMENT
_this$ = -8
??0D3DXVECTOR3@@QAE@XZ PROC NEAR			; D3DXVECTOR3::D3DXVECTOR3, COMDAT
; _this$ = ecx

; 89   :     D3DXVECTOR3() {};

  00000	55		 push	 ebp
  00001	8b ec		 mov	 ebp, esp
  00003	81 ec cc 00 00
	00		 sub	 esp, 204		; 000000ccH
  00009	53		 push	 ebx
  0000a	56		 push	 esi
  0000b	57		 push	 edi
  0000c	51		 push	 ecx
  0000d	8d bd 34 ff ff
	ff		 lea	 edi, DWORD PTR [ebp-204]
  00013	b9 33 00 00 00	 mov	 ecx, 51			; 00000033H
  00018	b8 cc cc cc cc	 mov	 eax, -858993460		; ccccccccH
  0001d	f3 ab		 rep stosd
  0001f	59		 pop	 ecx
  00020	89 4d f8	 mov	 DWORD PTR _this$[ebp], ecx
  00023	8b 45 f8	 mov	 eax, DWORD PTR _this$[ebp]
  00026	5f		 pop	 edi
  00027	5e		 pop	 esi
  00028	5b		 pop	 ebx
  00029	8b e5		 mov	 esp, ebp
  0002b	5d		 pop	 ebp
  0002c	c3		 ret	 0
??0D3DXVECTOR3@@QAE@XZ ENDP				; D3DXVECTOR3::D3DXVECTOR3
; Function compile flags: /Odt /RTCsu /ZI
_TEXT	ENDS
;	COMDAT ??0D3DXCOLOR@@QAE@XZ
_TEXT	SEGMENT
_this$ = -8
??0D3DXCOLOR@@QAE@XZ PROC NEAR				; D3DXCOLOR::D3DXCOLOR, COMDAT
; _this$ = ecx

; 409  :     D3DXCOLOR() {}

  00000	55		 push	 ebp
  00001	8b ec		 mov	 ebp, esp
  00003	81 ec cc 00 00
	00		 sub	 esp, 204		; 000000ccH
  00009	53		 push	 ebx
  0000a	56		 push	 esi
  0000b	57		 push	 edi
  0000c	51		 push	 ecx
  0000d	8d bd 34 ff ff
	ff		 lea	 edi, DWORD PTR [ebp-204]
  00013	b9 33 00 00 00	 mov	 ecx, 51			; 00000033H
  00018	b8 cc cc cc cc	 mov	 eax, -858993460		; ccccccccH
  0001d	f3 ab		 rep stosd
  0001f	59		 pop	 ecx
  00020	89 4d f8	 mov	 DWORD PTR _this$[ebp], ecx
  00023	8b 45 f8	 mov	 eax, DWORD PTR _this$[ebp]
  00026	5f		 pop	 edi
  00027	5e		 pop	 esi
  00028	5b		 pop	 ebx
  00029	8b e5		 mov	 esp, ebp
  0002b	5d		 pop	 ebp
  0002c	c3		 ret	 0
??0D3DXCOLOR@@QAE@XZ ENDP				; D3DXCOLOR::D3DXCOLOR
; Function compile flags: /Odt /RTCsu /ZI
; File c:\dxsdk\include\d3dx8math.inl
_TEXT	ENDS
;	COMDAT ??0D3DXVECTOR3@@QAE@MMM@Z
_TEXT	SEGMENT
_this$ = -8
_fx$ = 8
_fy$ = 12
_fz$ = 16
??0D3DXVECTOR3@@QAE@MMM@Z PROC NEAR			; D3DXVECTOR3::D3DXVECTOR3, COMDAT
; _this$ = ecx

; 179  : {

  00000	55		 push	 ebp
  00001	8b ec		 mov	 ebp, esp
  00003	81 ec cc 00 00
	00		 sub	 esp, 204		; 000000ccH
  00009	53		 push	 ebx
  0000a	56		 push	 esi
  0000b	57		 push	 edi
  0000c	51		 push	 ecx
  0000d	8d bd 34 ff ff
	ff		 lea	 edi, DWORD PTR [ebp-204]
  00013	b9 33 00 00 00	 mov	 ecx, 51			; 00000033H
  00018	b8 cc cc cc cc	 mov	 eax, -858993460		; ccccccccH
  0001d	f3 ab		 rep stosd
  0001f	59		 pop	 ecx
  00020	89 4d f8	 mov	 DWORD PTR _this$[ebp], ecx

; 180  :     x = fx;

  00023	8b 45 f8	 mov	 eax, DWORD PTR _this$[ebp]
  00026	8b 4d 08	 mov	 ecx, DWORD PTR _fx$[ebp]
  00029	89 08		 mov	 DWORD PTR [eax], ecx

; 181  :     y = fy;

  0002b	8b 45 f8	 mov	 eax, DWORD PTR _this$[ebp]
  0002e	8b 4d 0c	 mov	 ecx, DWORD PTR _fy$[ebp]
  00031	89 48 04	 mov	 DWORD PTR [eax+4], ecx

; 182  :     z = fz;

  00034	8b 45 f8	 mov	 eax, DWORD PTR _this$[ebp]
  00037	8b 4d 10	 mov	 ecx, DWORD PTR _fz$[ebp]
  0003a	89 48 08	 mov	 DWORD PTR [eax+8], ecx

; 183  : }

  0003d	8b 45 f8	 mov	 eax, DWORD PTR _this$[ebp]
  00040	5f		 pop	 edi
  00041	5e		 pop	 esi
  00042	5b		 pop	 ebx
  00043	8b e5		 mov	 esp, ebp
  00045	5d		 pop	 ebp
  00046	c2 0c 00	 ret	 12			; 0000000cH
??0D3DXVECTOR3@@QAE@MMM@Z ENDP				; D3DXVECTOR3::D3DXVECTOR3
; Function compile flags: /Odt /RTCsu /ZI
_TEXT	ENDS
;	COMDAT ??9D3DXVECTOR3@@QBEHABU0@@Z
_TEXT	SEGMENT
tv71 = -208
_this$ = -8
_v$ = 8
??9D3DXVECTOR3@@QBEHABU0@@Z PROC NEAR			; D3DXVECTOR3::operator!=, COMDAT
; _this$ = ecx

; 295  : {

  00000	55		 push	 ebp
  00001	8b ec		 mov	 ebp, esp
  00003	81 ec d0 00 00
	00		 sub	 esp, 208		; 000000d0H
  00009	53		 push	 ebx
  0000a	56		 push	 esi
  0000b	57		 push	 edi
  0000c	51		 push	 ecx
  0000d	8d bd 30 ff ff
	ff		 lea	 edi, DWORD PTR [ebp-208]
  00013	b9 34 00 00 00	 mov	 ecx, 52			; 00000034H
  00018	b8 cc cc cc cc	 mov	 eax, -858993460		; ccccccccH
  0001d	f3 ab		 rep stosd
  0001f	59		 pop	 ecx
  00020	89 4d f8	 mov	 DWORD PTR _this$[ebp], ecx

; 296  :     return x != v.x || y != v.y || z != v.z;

  00023	8b 45 f8	 mov	 eax, DWORD PTR _this$[ebp]
  00026	8b 4d 08	 mov	 ecx, DWORD PTR _v$[ebp]
  00029	d9 00		 fld	 DWORD PTR [eax]
  0002b	d8 19		 fcomp	 DWORD PTR [ecx]
  0002d	df e0		 fnstsw	 ax
  0002f	f6 c4 44	 test	 ah, 68			; 00000044H
  00032	7a 32		 jp	 SHORT $L94815
  00034	8b 55 f8	 mov	 edx, DWORD PTR _this$[ebp]
  00037	8b 45 08	 mov	 eax, DWORD PTR _v$[ebp]
  0003a	d9 42 04	 fld	 DWORD PTR [edx+4]
  0003d	d8 58 04	 fcomp	 DWORD PTR [eax+4]
  00040	df e0		 fnstsw	 ax
  00042	f6 c4 44	 test	 ah, 68			; 00000044H
  00045	7a 1f		 jp	 SHORT $L94815
  00047	8b 4d f8	 mov	 ecx, DWORD PTR _this$[ebp]
  0004a	8b 55 08	 mov	 edx, DWORD PTR _v$[ebp]
  0004d	d9 41 08	 fld	 DWORD PTR [ecx+8]
  00050	d8 5a 08	 fcomp	 DWORD PTR [edx+8]
  00053	df e0		 fnstsw	 ax
  00055	f6 c4 44	 test	 ah, 68			; 00000044H
  00058	7a 0c		 jp	 SHORT $L94815
  0005a	c7 85 30 ff ff
	ff 00 00 00 00	 mov	 DWORD PTR tv71[ebp], 0
  00064	eb 0a		 jmp	 SHORT $L94816
$L94815:
  00066	c7 85 30 ff ff
	ff 01 00 00 00	 mov	 DWORD PTR tv71[ebp], 1
$L94816:
  00070	8b 85 30 ff ff
	ff		 mov	 eax, DWORD PTR tv71[ebp]

; 297  : }

  00076	5f		 pop	 edi
  00077	5e		 pop	 esi
  00078	5b		 pop	 ebx
  00079	8b e5		 mov	 esp, ebp
  0007b	5d		 pop	 ebp
  0007c	c2 04 00	 ret	 4
??9D3DXVECTOR3@@QBEHABU0@@Z ENDP			; D3DXVECTOR3::operator!=
; Function compile flags: /Odt /RTCsu /ZI
_TEXT	ENDS
;	COMDAT ??_H@YGXPAXIHP6EPAX0@Z@Z
_TEXT	SEGMENT
___t$ = 8
___s$ = 12
___n$ = 16
___f$ = 20
??_H@YGXPAXIHP6EPAX0@Z@Z PROC NEAR			; `vector constructor iterator', COMDAT
  00000	55		 push	 ebp
  00001	8b ec		 mov	 ebp, esp
  00003	81 ec c0 00 00
	00		 sub	 esp, 192		; 000000c0H
  00009	53		 push	 ebx
  0000a	56		 push	 esi
  0000b	57		 push	 edi
  0000c	8d bd 40 ff ff
	ff		 lea	 edi, DWORD PTR [ebp-192]
  00012	b9 30 00 00 00	 mov	 ecx, 48			; 00000030H
  00017	b8 cc cc cc cc	 mov	 eax, -858993460		; ccccccccH
  0001c	f3 ab		 rep stosd
$L93981:
  0001e	8b 45 10	 mov	 eax, DWORD PTR ___n$[ebp]
  00021	83 e8 01	 sub	 eax, 1
  00024	89 45 10	 mov	 DWORD PTR ___n$[ebp], eax
  00027	83 7d 10 00	 cmp	 DWORD PTR ___n$[ebp], 0
  0002b	7c 1a		 jl	 SHORT $L93979
  0002d	8b f4		 mov	 esi, esp
  0002f	8b 4d 08	 mov	 ecx, DWORD PTR ___t$[ebp]
  00032	ff 55 14	 call	 DWORD PTR ___f$[ebp]
  00035	3b f4		 cmp	 esi, esp
  00037	e8 00 00 00 00	 call	 __RTC_CheckEsp
  0003c	8b 45 08	 mov	 eax, DWORD PTR ___t$[ebp]
  0003f	03 45 0c	 add	 eax, DWORD PTR ___s$[ebp]
  00042	89 45 08	 mov	 DWORD PTR ___t$[ebp], eax
  00045	eb d7		 jmp	 SHORT $L93981
$L93979:
  00047	5f		 pop	 edi
  00048	5e		 pop	 esi
  00049	5b		 pop	 ebx
  0004a	81 c4 c0 00 00
	00		 add	 esp, 192		; 000000c0H
  00050	3b ec		 cmp	 ebp, esp
  00052	e8 00 00 00 00	 call	 __RTC_CheckEsp
  00057	8b e5		 mov	 esp, ebp
  00059	5d		 pop	 ebp
  0005a	c2 10 00	 ret	 16			; 00000010H
??_H@YGXPAXIHP6EPAX0@Z@Z ENDP				; `vector constructor iterator'
_TEXT	ENDS
PUBLIC	??_GCFileRenderObject@@QAEPAXI@Z		; CFileRenderObject::`scalar deleting destructor'
PUBLIC	??1CTerrain@@QAE@XZ				; CTerrain::~CTerrain
PUBLIC	??_GCTerrainPatch@@QAEPAXI@Z			; CTerrainPatch::`scalar deleting destructor'
PUBLIC	??_GCQuadtree@@QAEPAXI@Z			; CQuadtree::`scalar deleting destructor'
EXTRN	??3@YAXPAX@Z:NEAR				; operator delete
; Function compile flags: /Odt /RTCsu /ZI
; File c:\documents and settings\dom\my documents\_dev\ae\xlr8a\x7g\cterrain.cpp
;	COMDAT ??1CTerrain@@QAE@XZ
_TEXT	SEGMENT
tv215 = -484
tv206 = -484
tv197 = -484
tv148 = -484
tv87 = -484
$T94849 = -476
$T94848 = -464
$T94845 = -452
$T94844 = -440
$T94841 = -428
$T94840 = -416
$T94839 = -404
$T94838 = -392
$T94837 = -380
$T94836 = -368
$T94835 = -356
$T94834 = -344
$T94833 = -332
$T94832 = -320
$T94829 = -308
$T94828 = -296
$T94827 = -284
$T94826 = -272
$T94825 = -260
$T94822 = -248
$T94821 = -236
_y$93991 = -32
_x$93987 = -20
_this$ = -8
??1CTerrain@@QAE@XZ PROC NEAR				; CTerrain::~CTerrain, COMDAT
; _this$ = ecx

; 635  : 	{

  00000	55		 push	 ebp
  00001	8b ec		 mov	 ebp, esp
  00003	81 ec e4 01 00
	00		 sub	 esp, 484		; 000001e4H
  00009	53		 push	 ebx
  0000a	56		 push	 esi
  0000b	57		 push	 edi
  0000c	51		 push	 ecx
  0000d	8d bd 1c fe ff
	ff		 lea	 edi, DWORD PTR [ebp-484]
  00013	b9 79 00 00 00	 mov	 ecx, 121		; 00000079H
  00018	b8 cc cc cc cc	 mov	 eax, -858993460		; ccccccccH
  0001d	f3 ab		 rep stosd
  0001f	59		 pop	 ecx
  00020	89 4d f8	 mov	 DWORD PTR _this$[ebp], ecx

; 636  : 		for (int x = 0 ; x < m_nPatchesSQ ; x ++)

  00023	c7 45 ec 00 00
	00 00		 mov	 DWORD PTR _x$93987[ebp], 0
  0002a	eb 09		 jmp	 SHORT $L93988
$L93989:
  0002c	8b 45 ec	 mov	 eax, DWORD PTR _x$93987[ebp]
  0002f	83 c0 01	 add	 eax, 1
  00032	89 45 ec	 mov	 DWORD PTR _x$93987[ebp], eax
$L93988:
  00035	8b 45 f8	 mov	 eax, DWORD PTR _this$[ebp]
  00038	8b 4d ec	 mov	 ecx, DWORD PTR _x$93987[ebp]
  0003b	3b 48 08	 cmp	 ecx, DWORD PTR [eax+8]
  0003e	0f 8d b7 00 00
	00		 jge	 $L93990

; 637  : 			for (int y = 0 ; y < m_nPatchesSQ ; y ++)

  00044	c7 45 e0 00 00
	00 00		 mov	 DWORD PTR _y$93991[ebp], 0
  0004b	eb 09		 jmp	 SHORT $L93992
$L93993:
  0004d	8b 45 e0	 mov	 eax, DWORD PTR _y$93991[ebp]
  00050	83 c0 01	 add	 eax, 1
  00053	89 45 e0	 mov	 DWORD PTR _y$93991[ebp], eax
$L93992:
  00056	8b 45 f8	 mov	 eax, DWORD PTR _this$[ebp]
  00059	8b 4d e0	 mov	 ecx, DWORD PTR _y$93991[ebp]
  0005c	3b 48 08	 cmp	 ecx, DWORD PTR [eax+8]
  0005f	0f 8d 91 00 00
	00		 jge	 $L93994

; 638  : 				SAFE_DELETE( m_pPatches[TER_RC2ABS(x,y)] )

  00065	8b 45 f8	 mov	 eax, DWORD PTR _this$[ebp]
  00068	8b 4d ec	 mov	 ecx, DWORD PTR _x$93987[ebp]
  0006b	0f af 48 08	 imul	 ecx, DWORD PTR [eax+8]
  0006f	03 4d e0	 add	 ecx, DWORD PTR _y$93991[ebp]
  00072	8b 55 f8	 mov	 edx, DWORD PTR _this$[ebp]
  00075	8b 82 fc 04 00
	00		 mov	 eax, DWORD PTR [edx+1276]
  0007b	83 3c 88 00	 cmp	 DWORD PTR [eax+ecx*4], 0
  0007f	74 70		 je	 SHORT $L93995
  00081	8b 45 f8	 mov	 eax, DWORD PTR _this$[ebp]
  00084	8b 4d ec	 mov	 ecx, DWORD PTR _x$93987[ebp]
  00087	0f af 48 08	 imul	 ecx, DWORD PTR [eax+8]
  0008b	03 4d e0	 add	 ecx, DWORD PTR _y$93991[ebp]
  0008e	8b 55 f8	 mov	 edx, DWORD PTR _this$[ebp]
  00091	8b 82 fc 04 00
	00		 mov	 eax, DWORD PTR [edx+1276]
  00097	8b 0c 88	 mov	 ecx, DWORD PTR [eax+ecx*4]
  0009a	89 8d 08 ff ff
	ff		 mov	 DWORD PTR $T94822[ebp], ecx
  000a0	8b 95 08 ff ff
	ff		 mov	 edx, DWORD PTR $T94822[ebp]
  000a6	89 95 14 ff ff
	ff		 mov	 DWORD PTR $T94821[ebp], edx
  000ac	83 bd 14 ff ff
	ff 00		 cmp	 DWORD PTR $T94821[ebp], 0
  000b3	74 15		 je	 SHORT $L94823
  000b5	6a 01		 push	 1
  000b7	8b 8d 14 ff ff
	ff		 mov	 ecx, DWORD PTR $T94821[ebp]
  000bd	e8 00 00 00 00	 call	 ??_GCTerrainPatch@@QAEPAXI@Z
  000c2	89 85 1c fe ff
	ff		 mov	 DWORD PTR tv87[ebp], eax
  000c8	eb 0a		 jmp	 SHORT $L94824
$L94823:
  000ca	c7 85 1c fe ff
	ff 00 00 00 00	 mov	 DWORD PTR tv87[ebp], 0
$L94824:
  000d4	8b 45 f8	 mov	 eax, DWORD PTR _this$[ebp]
  000d7	8b 4d ec	 mov	 ecx, DWORD PTR _x$93987[ebp]
  000da	0f af 48 08	 imul	 ecx, DWORD PTR [eax+8]
  000de	03 4d e0	 add	 ecx, DWORD PTR _y$93991[ebp]
  000e1	8b 55 f8	 mov	 edx, DWORD PTR _this$[ebp]
  000e4	8b 82 fc 04 00
	00		 mov	 eax, DWORD PTR [edx+1276]
  000ea	c7 04 88 00 00
	00 00		 mov	 DWORD PTR [eax+ecx*4], 0
$L93995:
  000f1	e9 57 ff ff ff	 jmp	 $L93993
$L93994:
  000f6	e9 31 ff ff ff	 jmp	 $L93989
$L93990:

; 639  : 		
; 640  : 		SAFE_DELETE( m_pfHeightmap )

  000fb	8b 45 f8	 mov	 eax, DWORD PTR _this$[ebp]
  000fe	83 b8 5c 04 00
	00 00		 cmp	 DWORD PTR [eax+1116], 0
  00105	74 2b		 je	 SHORT $L93998
  00107	8b 45 f8	 mov	 eax, DWORD PTR _this$[ebp]
  0010a	8b 88 5c 04 00
	00		 mov	 ecx, DWORD PTR [eax+1116]
  00110	89 8d fc fe ff
	ff		 mov	 DWORD PTR $T94825[ebp], ecx
  00116	8b 95 fc fe ff
	ff		 mov	 edx, DWORD PTR $T94825[ebp]
  0011c	52		 push	 edx
  0011d	e8 00 00 00 00	 call	 ??3@YAXPAX@Z		; operator delete
  00122	83 c4 04	 add	 esp, 4
  00125	8b 45 f8	 mov	 eax, DWORD PTR _this$[ebp]
  00128	c7 80 5c 04 00
	00 00 00 00 00	 mov	 DWORD PTR [eax+1116], 0
$L93998:

; 641  : 		SAFE_DELETE( m_pColormap )

  00132	8b 45 f8	 mov	 eax, DWORD PTR _this$[ebp]
  00135	83 b8 68 04 00
	00 00		 cmp	 DWORD PTR [eax+1128], 0
  0013c	74 2b		 je	 SHORT $L94000
  0013e	8b 45 f8	 mov	 eax, DWORD PTR _this$[ebp]
  00141	8b 88 68 04 00
	00		 mov	 ecx, DWORD PTR [eax+1128]
  00147	89 8d f0 fe ff
	ff		 mov	 DWORD PTR $T94826[ebp], ecx
  0014d	8b 95 f0 fe ff
	ff		 mov	 edx, DWORD PTR $T94826[ebp]
  00153	52		 push	 edx
  00154	e8 00 00 00 00	 call	 ??3@YAXPAX@Z		; operator delete
  00159	83 c4 04	 add	 esp, 4
  0015c	8b 45 f8	 mov	 eax, DWORD PTR _this$[ebp]
  0015f	c7 80 68 04 00
	00 00 00 00 00	 mov	 DWORD PTR [eax+1128], 0
$L94000:

; 642  : 		SAFE_DELETE_ARRAY( m_pfLERPHelper )

  00169	8b 45 f8	 mov	 eax, DWORD PTR _this$[ebp]
  0016c	83 b8 88 04 00
	00 00		 cmp	 DWORD PTR [eax+1160], 0
  00173	74 2b		 je	 SHORT $L94002
  00175	8b 45 f8	 mov	 eax, DWORD PTR _this$[ebp]
  00178	8b 88 88 04 00
	00		 mov	 ecx, DWORD PTR [eax+1160]
  0017e	89 8d e4 fe ff
	ff		 mov	 DWORD PTR $T94827[ebp], ecx
  00184	8b 95 e4 fe ff
	ff		 mov	 edx, DWORD PTR $T94827[ebp]
  0018a	52		 push	 edx
  0018b	e8 00 00 00 00	 call	 ??3@YAXPAX@Z		; operator delete
  00190	83 c4 04	 add	 esp, 4
  00193	8b 45 f8	 mov	 eax, DWORD PTR _this$[ebp]
  00196	c7 80 88 04 00
	00 00 00 00 00	 mov	 DWORD PTR [eax+1160], 0
$L94002:

; 643  : 		SAFE_DELETE( m_pQT )

  001a0	8b 45 f8	 mov	 eax, DWORD PTR _this$[ebp]
  001a3	83 b8 84 04 00
	00 00		 cmp	 DWORD PTR [eax+1156], 0
  001aa	74 50		 je	 SHORT $L94004
  001ac	8b 45 f8	 mov	 eax, DWORD PTR _this$[ebp]
  001af	8b 88 84 04 00
	00		 mov	 ecx, DWORD PTR [eax+1156]
  001b5	89 8d cc fe ff
	ff		 mov	 DWORD PTR $T94829[ebp], ecx
  001bb	8b 95 cc fe ff
	ff		 mov	 edx, DWORD PTR $T94829[ebp]
  001c1	89 95 d8 fe ff
	ff		 mov	 DWORD PTR $T94828[ebp], edx
  001c7	83 bd d8 fe ff
	ff 00		 cmp	 DWORD PTR $T94828[ebp], 0
  001ce	74 15		 je	 SHORT $L94830
  001d0	6a 01		 push	 1
  001d2	8b 8d d8 fe ff
	ff		 mov	 ecx, DWORD PTR $T94828[ebp]
  001d8	e8 00 00 00 00	 call	 ??_GCQuadtree@@QAEPAXI@Z
  001dd	89 85 1c fe ff
	ff		 mov	 DWORD PTR tv148[ebp], eax
  001e3	eb 0a		 jmp	 SHORT $L94831
$L94830:
  001e5	c7 85 1c fe ff
	ff 00 00 00 00	 mov	 DWORD PTR tv148[ebp], 0
$L94831:
  001ef	8b 45 f8	 mov	 eax, DWORD PTR _this$[ebp]
  001f2	c7 80 84 04 00
	00 00 00 00 00	 mov	 DWORD PTR [eax+1156], 0
$L94004:

; 644  : 
; 645  : 		SAFE_DELETE( m_bPatchesPicked )

  001fc	8b 45 f8	 mov	 eax, DWORD PTR _this$[ebp]
  001ff	83 b8 1c 05 00
	00 00		 cmp	 DWORD PTR [eax+1308], 0
  00206	74 2b		 je	 SHORT $L94007
  00208	8b 45 f8	 mov	 eax, DWORD PTR _this$[ebp]
  0020b	8b 88 1c 05 00
	00		 mov	 ecx, DWORD PTR [eax+1308]
  00211	89 8d c0 fe ff
	ff		 mov	 DWORD PTR $T94832[ebp], ecx
  00217	8b 95 c0 fe ff
	ff		 mov	 edx, DWORD PTR $T94832[ebp]
  0021d	52		 push	 edx
  0021e	e8 00 00 00 00	 call	 ??3@YAXPAX@Z		; operator delete
  00223	83 c4 04	 add	 esp, 4
  00226	8b 45 f8	 mov	 eax, DWORD PTR _this$[ebp]
  00229	c7 80 1c 05 00
	00 00 00 00 00	 mov	 DWORD PTR [eax+1308], 0
$L94007:

; 646  : 		SAFE_DELETE( m_pPatches )

  00233	8b 45 f8	 mov	 eax, DWORD PTR _this$[ebp]
  00236	83 b8 fc 04 00
	00 00		 cmp	 DWORD PTR [eax+1276], 0
  0023d	74 2b		 je	 SHORT $L94009
  0023f	8b 45 f8	 mov	 eax, DWORD PTR _this$[ebp]
  00242	8b 88 fc 04 00
	00		 mov	 ecx, DWORD PTR [eax+1276]
  00248	89 8d b4 fe ff
	ff		 mov	 DWORD PTR $T94833[ebp], ecx
  0024e	8b 95 b4 fe ff
	ff		 mov	 edx, DWORD PTR $T94833[ebp]
  00254	52		 push	 edx
  00255	e8 00 00 00 00	 call	 ??3@YAXPAX@Z		; operator delete
  0025a	83 c4 04	 add	 esp, 4
  0025d	8b 45 f8	 mov	 eax, DWORD PTR _this$[ebp]
  00260	c7 80 fc 04 00
	00 00 00 00 00	 mov	 DWORD PTR [eax+1276], 0
$L94009:

; 647  : 		SAFE_DELETE( m_nPatchesRequiredLOD )

  0026a	8b 45 f8	 mov	 eax, DWORD PTR _this$[ebp]
  0026d	83 b8 00 05 00
	00 00		 cmp	 DWORD PTR [eax+1280], 0
  00274	74 2b		 je	 SHORT $L94011
  00276	8b 45 f8	 mov	 eax, DWORD PTR _this$[ebp]
  00279	8b 88 00 05 00
	00		 mov	 ecx, DWORD PTR [eax+1280]
  0027f	89 8d a8 fe ff
	ff		 mov	 DWORD PTR $T94834[ebp], ecx
  00285	8b 95 a8 fe ff
	ff		 mov	 edx, DWORD PTR $T94834[ebp]
  0028b	52		 push	 edx
  0028c	e8 00 00 00 00	 call	 ??3@YAXPAX@Z		; operator delete
  00291	83 c4 04	 add	 esp, 4
  00294	8b 45 f8	 mov	 eax, DWORD PTR _this$[ebp]
  00297	c7 80 00 05 00
	00 00 00 00 00	 mov	 DWORD PTR [eax+1280], 0
$L94011:

; 648  : 		SAFE_DELETE( m_dsPatchesRequiredTopEdge )

  002a1	8b 45 f8	 mov	 eax, DWORD PTR _this$[ebp]
  002a4	83 b8 04 05 00
	00 00		 cmp	 DWORD PTR [eax+1284], 0
  002ab	74 2b		 je	 SHORT $L94013
  002ad	8b 45 f8	 mov	 eax, DWORD PTR _this$[ebp]
  002b0	8b 88 04 05 00
	00		 mov	 ecx, DWORD PTR [eax+1284]
  002b6	89 8d 9c fe ff
	ff		 mov	 DWORD PTR $T94835[ebp], ecx
  002bc	8b 95 9c fe ff
	ff		 mov	 edx, DWORD PTR $T94835[ebp]
  002c2	52		 push	 edx
  002c3	e8 00 00 00 00	 call	 ??3@YAXPAX@Z		; operator delete
  002c8	83 c4 04	 add	 esp, 4
  002cb	8b 45 f8	 mov	 eax, DWORD PTR _this$[ebp]
  002ce	c7 80 04 05 00
	00 00 00 00 00	 mov	 DWORD PTR [eax+1284], 0
$L94013:

; 649  : 		SAFE_DELETE( m_dsPatchesRequiredLeftEdge )

  002d8	8b 45 f8	 mov	 eax, DWORD PTR _this$[ebp]
  002db	83 b8 08 05 00
	00 00		 cmp	 DWORD PTR [eax+1288], 0
  002e2	74 2b		 je	 SHORT $L94015
  002e4	8b 45 f8	 mov	 eax, DWORD PTR _this$[ebp]
  002e7	8b 88 08 05 00
	00		 mov	 ecx, DWORD PTR [eax+1288]
  002ed	89 8d 90 fe ff
	ff		 mov	 DWORD PTR $T94836[ebp], ecx
  002f3	8b 95 90 fe ff
	ff		 mov	 edx, DWORD PTR $T94836[ebp]
  002f9	52		 push	 edx
  002fa	e8 00 00 00 00	 call	 ??3@YAXPAX@Z		; operator delete
  002ff	83 c4 04	 add	 esp, 4
  00302	8b 45 f8	 mov	 eax, DWORD PTR _this$[ebp]
  00305	c7 80 08 05 00
	00 00 00 00 00	 mov	 DWORD PTR [eax+1288], 0
$L94015:

; 650  : 		SAFE_DELETE( m_dsPatchesRequiredBottomEdge )

  0030f	8b 45 f8	 mov	 eax, DWORD PTR _this$[ebp]
  00312	83 b8 0c 05 00
	00 00		 cmp	 DWORD PTR [eax+1292], 0
  00319	74 2b		 je	 SHORT $L94017
  0031b	8b 45 f8	 mov	 eax, DWORD PTR _this$[ebp]
  0031e	8b 88 0c 05 00
	00		 mov	 ecx, DWORD PTR [eax+1292]
  00324	89 8d 84 fe ff
	ff		 mov	 DWORD PTR $T94837[ebp], ecx
  0032a	8b 95 84 fe ff
	ff		 mov	 edx, DWORD PTR $T94837[ebp]
  00330	52		 push	 edx
  00331	e8 00 00 00 00	 call	 ??3@YAXPAX@Z		; operator delete
  00336	83 c4 04	 add	 esp, 4
  00339	8b 45 f8	 mov	 eax, DWORD PTR _this$[ebp]
  0033c	c7 80 0c 05 00
	00 00 00 00 00	 mov	 DWORD PTR [eax+1292], 0
$L94017:

; 651  : 		SAFE_DELETE( m_dsPatchesRequiredRightEdge )

  00346	8b 45 f8	 mov	 eax, DWORD PTR _this$[ebp]
  00349	83 b8 10 05 00
	00 00		 cmp	 DWORD PTR [eax+1296], 0
  00350	74 2b		 je	 SHORT $L94019
  00352	8b 45 f8	 mov	 eax, DWORD PTR _this$[ebp]
  00355	8b 88 10 05 00
	00		 mov	 ecx, DWORD PTR [eax+1296]
  0035b	89 8d 78 fe ff
	ff		 mov	 DWORD PTR $T94838[ebp], ecx
  00361	8b 95 78 fe ff
	ff		 mov	 edx, DWORD PTR $T94838[ebp]
  00367	52		 push	 edx
  00368	e8 00 00 00 00	 call	 ??3@YAXPAX@Z		; operator delete
  0036d	83 c4 04	 add	 esp, 4
  00370	8b 45 f8	 mov	 eax, DWORD PTR _this$[ebp]
  00373	c7 80 10 05 00
	00 00 00 00 00	 mov	 DWORD PTR [eax+1296], 0
$L94019:

; 652  : 		SAFE_DELETE( m_psPatches )

  0037d	8b 45 f8	 mov	 eax, DWORD PTR _this$[ebp]
  00380	83 b8 14 05 00
	00 00		 cmp	 DWORD PTR [eax+1300], 0
  00387	74 2b		 je	 SHORT $L94021
  00389	8b 45 f8	 mov	 eax, DWORD PTR _this$[ebp]
  0038c	8b 88 14 05 00
	00		 mov	 ecx, DWORD PTR [eax+1300]
  00392	89 8d 6c fe ff
	ff		 mov	 DWORD PTR $T94839[ebp], ecx
  00398	8b 95 6c fe ff
	ff		 mov	 edx, DWORD PTR $T94839[ebp]
  0039e	52		 push	 edx
  0039f	e8 00 00 00 00	 call	 ??3@YAXPAX@Z		; operator delete
  003a4	83 c4 04	 add	 esp, 4
  003a7	8b 45 f8	 mov	 eax, DWORD PTR _this$[ebp]
  003aa	c7 80 14 05 00
	00 00 00 00 00	 mov	 DWORD PTR [eax+1300], 0
$L94021:

; 653  : 
; 654  : 		SAFE_DELETE( m_pCherry )

  003b4	8b 45 f8	 mov	 eax, DWORD PTR _this$[ebp]
  003b7	83 b8 9c 00 00
	00 00		 cmp	 DWORD PTR [eax+156], 0
  003be	74 50		 je	 SHORT $L94023
  003c0	8b 45 f8	 mov	 eax, DWORD PTR _this$[ebp]
  003c3	8b 88 9c 00 00
	00		 mov	 ecx, DWORD PTR [eax+156]
  003c9	89 8d 54 fe ff
	ff		 mov	 DWORD PTR $T94841[ebp], ecx
  003cf	8b 95 54 fe ff
	ff		 mov	 edx, DWORD PTR $T94841[ebp]
  003d5	89 95 60 fe ff
	ff		 mov	 DWORD PTR $T94840[ebp], edx
  003db	83 bd 60 fe ff
	ff 00		 cmp	 DWORD PTR $T94840[ebp], 0
  003e2	74 15		 je	 SHORT $L94842
  003e4	6a 01		 push	 1
  003e6	8b 8d 60 fe ff
	ff		 mov	 ecx, DWORD PTR $T94840[ebp]
  003ec	e8 00 00 00 00	 call	 ??_GCFileRenderObject@@QAEPAXI@Z
  003f1	89 85 1c fe ff
	ff		 mov	 DWORD PTR tv197[ebp], eax
  003f7	eb 0a		 jmp	 SHORT $L94843
$L94842:
  003f9	c7 85 1c fe ff
	ff 00 00 00 00	 mov	 DWORD PTR tv197[ebp], 0
$L94843:
  00403	8b 45 f8	 mov	 eax, DWORD PTR _this$[ebp]
  00406	c7 80 9c 00 00
	00 00 00 00 00	 mov	 DWORD PTR [eax+156], 0
$L94023:

; 655  : 		SAFE_DELETE( m_pShield )

  00410	8b 45 f8	 mov	 eax, DWORD PTR _this$[ebp]
  00413	83 b8 5c 01 00
	00 00		 cmp	 DWORD PTR [eax+348], 0
  0041a	74 50		 je	 SHORT $L94026
  0041c	8b 45 f8	 mov	 eax, DWORD PTR _this$[ebp]
  0041f	8b 88 5c 01 00
	00		 mov	 ecx, DWORD PTR [eax+348]
  00425	89 8d 3c fe ff
	ff		 mov	 DWORD PTR $T94845[ebp], ecx
  0042b	8b 95 3c fe ff
	ff		 mov	 edx, DWORD PTR $T94845[ebp]
  00431	89 95 48 fe ff
	ff		 mov	 DWORD PTR $T94844[ebp], edx
  00437	83 bd 48 fe ff
	ff 00		 cmp	 DWORD PTR $T94844[ebp], 0
  0043e	74 15		 je	 SHORT $L94846
  00440	6a 01		 push	 1
  00442	8b 8d 48 fe ff
	ff		 mov	 ecx, DWORD PTR $T94844[ebp]
  00448	e8 00 00 00 00	 call	 ??_GCFileRenderObject@@QAEPAXI@Z
  0044d	89 85 1c fe ff
	ff		 mov	 DWORD PTR tv206[ebp], eax
  00453	eb 0a		 jmp	 SHORT $L94847
$L94846:
  00455	c7 85 1c fe ff
	ff 00 00 00 00	 mov	 DWORD PTR tv206[ebp], 0
$L94847:
  0045f	8b 45 f8	 mov	 eax, DWORD PTR _this$[ebp]
  00462	c7 80 5c 01 00
	00 00 00 00 00	 mov	 DWORD PTR [eax+348], 0
$L94026:

; 656  : 		SAFE_DELETE( m_pWeapon )

  0046c	8b 45 f8	 mov	 eax, DWORD PTR _this$[ebp]
  0046f	83 b8 d8 02 00
	00 00		 cmp	 DWORD PTR [eax+728], 0
  00476	74 50		 je	 SHORT $L94029
  00478	8b 45 f8	 mov	 eax, DWORD PTR _this$[ebp]
  0047b	8b 88 d8 02 00
	00		 mov	 ecx, DWORD PTR [eax+728]
  00481	89 8d 24 fe ff
	ff		 mov	 DWORD PTR $T94849[ebp], ecx
  00487	8b 95 24 fe ff
	ff		 mov	 edx, DWORD PTR $T94849[ebp]
  0048d	89 95 30 fe ff
	ff		 mov	 DWORD PTR $T94848[ebp], edx
  00493	83 bd 30 fe ff
	ff 00		 cmp	 DWORD PTR $T94848[ebp], 0
  0049a	74 15		 je	 SHORT $L94850
  0049c	6a 01		 push	 1
  0049e	8b 8d 30 fe ff
	ff		 mov	 ecx, DWORD PTR $T94848[ebp]
  004a4	e8 00 00 00 00	 call	 ??_GCFileRenderObject@@QAEPAXI@Z
  004a9	89 85 1c fe ff
	ff		 mov	 DWORD PTR tv215[ebp], eax
  004af	eb 0a		 jmp	 SHORT $L94851
$L94850:
  004b1	c7 85 1c fe ff
	ff 00 00 00 00	 mov	 DWORD PTR tv215[ebp], 0
$L94851:
  004bb	8b 45 f8	 mov	 eax, DWORD PTR _this$[ebp]
  004be	c7 80 d8 02 00
	00 00 00 00 00	 mov	 DWORD PTR [eax+728], 0
$L94029:

; 657  : 
; 658  : 	// just to be extra safe; maybe we exited in between FrameMove() and Render().
; 659  : 		if( m_pisAllItemsDistanceSorted )

  004c8	8b 45 f8	 mov	 eax, DWORD PTR _this$[ebp]
  004cb	83 b8 94 00 00
	00 00		 cmp	 DWORD PTR [eax+148], 0
  004d2	74 0d		 je	 SHORT $L93986

; 660  : 			m_pisAllItemsDistanceSorted = NULL ;

  004d4	8b 45 f8	 mov	 eax, DWORD PTR _this$[ebp]
  004d7	c7 80 94 00 00
	00 00 00 00 00	 mov	 DWORD PTR [eax+148], 0
$L93986:

; 661  : 	}

  004e1	5f		 pop	 edi
  004e2	5e		 pop	 esi
  004e3	5b		 pop	 ebx
  004e4	81 c4 e4 01 00
	00		 add	 esp, 484		; 000001e4H
  004ea	3b ec		 cmp	 ebp, esp
  004ec	e8 00 00 00 00	 call	 __RTC_CheckEsp
  004f1	8b e5		 mov	 esp, ebp
  004f3	5d		 pop	 ebp
  004f4	c3		 ret	 0
??1CTerrain@@QAE@XZ ENDP				; CTerrain::~CTerrain
_TEXT	ENDS
EXTRN	??1CTerrainPatch@@QAE@XZ:NEAR			; CTerrainPatch::~CTerrainPatch
; Function compile flags: /Odt /RTCsu /ZI
;	COMDAT ??_GCTerrainPatch@@QAEPAXI@Z
_TEXT	SEGMENT
_this$ = -8
___flags$ = 8
??_GCTerrainPatch@@QAEPAXI@Z PROC NEAR			; CTerrainPatch::`scalar deleting destructor', COMDAT
; _this$ = ecx
  00000	55		 push	 ebp
  00001	8b ec		 mov	 ebp, esp
  00003	81 ec cc 00 00
	00		 sub	 esp, 204		; 000000ccH
  00009	53		 push	 ebx
  0000a	56		 push	 esi
  0000b	57		 push	 edi
  0000c	51		 push	 ecx
  0000d	8d bd 34 ff ff
	ff		 lea	 edi, DWORD PTR [ebp-204]
  00013	b9 33 00 00 00	 mov	 ecx, 51			; 00000033H
  00018	b8 cc cc cc cc	 mov	 eax, -858993460		; ccccccccH
  0001d	f3 ab		 rep stosd
  0001f	59		 pop	 ecx
  00020	89 4d f8	 mov	 DWORD PTR _this$[ebp], ecx
  00023	8b 4d f8	 mov	 ecx, DWORD PTR _this$[ebp]
  00026	e8 00 00 00 00	 call	 ??1CTerrainPatch@@QAE@XZ ; CTerrainPatch::~CTerrainPatch
  0002b	8b 45 08	 mov	 eax, DWORD PTR ___flags$[ebp]
  0002e	83 e0 01	 and	 eax, 1
  00031	85 c0		 test	 eax, eax
  00033	74 0c		 je	 SHORT $L94038
  00035	8b 45 f8	 mov	 eax, DWORD PTR _this$[ebp]
  00038	50		 push	 eax
  00039	e8 00 00 00 00	 call	 ??3@YAXPAX@Z		; operator delete
  0003e	83 c4 04	 add	 esp, 4
$L94038:
  00041	8b 45 f8	 mov	 eax, DWORD PTR _this$[ebp]
  00044	5f		 pop	 edi
  00045	5e		 pop	 esi
  00046	5b		 pop	 ebx
  00047	81 c4 cc 00 00
	00		 add	 esp, 204		; 000000ccH
  0004d	3b ec		 cmp	 ebp, esp
  0004f	e8 00 00 00 00	 call	 __RTC_CheckEsp
  00054	8b e5		 mov	 esp, ebp
  00056	5d		 pop	 ebp
  00057	c2 04 00	 ret	 4
??_GCTerrainPatch@@QAEPAXI@Z ENDP			; CTerrainPatch::`scalar deleting destructor'
_TEXT	ENDS
EXTRN	??1CQuadtree@@QAE@XZ:NEAR			; CQuadtree::~CQuadtree
; Function compile flags: /Odt /RTCsu /ZI
;	COMDAT ??_GCQuadtree@@QAEPAXI@Z
_TEXT	SEGMENT
_this$ = -8
___flags$ = 8
??_GCQuadtree@@QAEPAXI@Z PROC NEAR			; CQuadtree::`scalar deleting destructor', COMDAT
; _this$ = ecx
  00000	55		 push	 ebp
  00001	8b ec		 mov	 ebp, esp
  00003	81 ec cc 00 00
	00		 sub	 esp, 204		; 000000ccH
  00009	53		 push	 ebx
  0000a	56		 push	 esi
  0000b	57		 push	 edi
  0000c	51		 push	 ecx
  0000d	8d bd 34 ff ff
	ff		 lea	 edi, DWORD PTR [ebp-204]
  00013	b9 33 00 00 00	 mov	 ecx, 51			; 00000033H
  00018	b8 cc cc cc cc	 mov	 eax, -858993460		; ccccccccH
  0001d	f3 ab		 rep stosd
  0001f	59		 pop	 ecx
  00020	89 4d f8	 mov	 DWORD PTR _this$[ebp], ecx
  00023	8b 4d f8	 mov	 ecx, DWORD PTR _this$[ebp]
  00026	e8 00 00 00 00	 call	 ??1CQuadtree@@QAE@XZ	; CQuadtree::~CQuadtree
  0002b	8b 45 08	 mov	 eax, DWORD PTR ___flags$[ebp]
  0002e	83 e0 01	 and	 eax, 1
  00031	85 c0		 test	 eax, eax
  00033	74 0c		 je	 SHORT $L94041
  00035	8b 45 f8	 mov	 eax, DWORD PTR _this$[ebp]
  00038	50		 push	 eax
  00039	e8 00 00 00 00	 call	 ??3@YAXPAX@Z		; operator delete
  0003e	83 c4 04	 add	 esp, 4
$L94041:
  00041	8b 45 f8	 mov	 eax, DWORD PTR _this$[ebp]
  00044	5f		 pop	 edi
  00045	5e		 pop	 esi
  00046	5b		 pop	 ebx
  00047	81 c4 cc 00 00
	00		 add	 esp, 204		; 000000ccH
  0004d	3b ec		 cmp	 ebp, esp
  0004f	e8 00 00 00 00	 call	 __RTC_CheckEsp
  00054	8b e5		 mov	 esp, ebp
  00056	5d		 pop	 ebp
  00057	c2 04 00	 ret	 4
??_GCQuadtree@@QAEPAXI@Z ENDP				; CQuadtree::`scalar deleting destructor'
_TEXT	ENDS
EXTRN	??1CFileRenderObject@@QAE@XZ:NEAR		; CFileRenderObject::~CFileRenderObject
; Function compile flags: /Odt /RTCsu /ZI
;	COMDAT ??_GCFileRenderObject@@QAEPAXI@Z
_TEXT	SEGMENT
_this$ = -8
___flags$ = 8
??_GCFileRenderObject@@QAEPAXI@Z PROC NEAR		; CFileRenderObject::`scalar deleting destructor', COMDAT
; _this$ = ecx
  00000	55		 push	 ebp
  00001	8b ec		 mov	 ebp, esp
  00003	81 ec cc 00 00
	00		 sub	 esp, 204		; 000000ccH
  00009	53		 push	 ebx
  0000a	56		 push	 esi
  0000b	57		 push	 edi
  0000c	51		 push	 ecx
  0000d	8d bd 34 ff ff
	ff		 lea	 edi, DWORD PTR [ebp-204]
  00013	b9 33 00 00 00	 mov	 ecx, 51			; 00000033H
  00018	b8 cc cc cc cc	 mov	 eax, -858993460		; ccccccccH
  0001d	f3 ab		 rep stosd
  0001f	59		 pop	 ecx
  00020	89 4d f8	 mov	 DWORD PTR _this$[ebp], ecx
  00023	8b 4d f8	 mov	 ecx, DWORD PTR _this$[ebp]
  00026	e8 00 00 00 00	 call	 ??1CFileRenderObject@@QAE@XZ ; CFileRenderObject::~CFileRenderObject
  0002b	8b 45 08	 mov	 eax, DWORD PTR ___flags$[ebp]
  0002e	83 e0 01	 and	 eax, 1
  00031	85 c0		 test	 eax, eax
  00033	74 0c		 je	 SHORT $L94044
  00035	8b 45 f8	 mov	 eax, DWORD PTR _this$[ebp]
  00038	50		 push	 eax
  00039	e8 00 00 00 00	 call	 ??3@YAXPAX@Z		; operator delete
  0003e	83 c4 04	 add	 esp, 4
$L94044:
  00041	8b 45 f8	 mov	 eax, DWORD PTR _this$[ebp]
  00044	5f		 pop	 edi
  00045	5e		 pop	 esi
  00046	5b		 pop	 ebx
  00047	81 c4 cc 00 00
	00		 add	 esp, 204		; 000000ccH
  0004d	3b ec		 cmp	 ebp, esp
  0004f	e8 00 00 00 00	 call	 __RTC_CheckEsp
  00054	8b e5		 mov	 esp, ebp
  00056	5d		 pop	 ebp
  00057	c2 04 00	 ret	 4
??_GCFileRenderObject@@QAEPAXI@Z ENDP			; CFileRenderObject::`scalar deleting destructor'
_TEXT	ENDS
PUBLIC	?QueryMemUsage@CTerrain@@QAEKXZ			; CTerrain::QueryMemUsage
EXTRN	?QueryMemUsage@CTerrainPatch@@QAEKXZ:NEAR	; CTerrainPatch::QueryMemUsage
; Function compile flags: /Odt /RTCsu /ZI
;	COMDAT ?QueryMemUsage@CTerrain@@QAEKXZ
_TEXT	SEGMENT
_y$94053 = -44
_x$94049 = -32
_dwMem$ = -20
_this$ = -8
?QueryMemUsage@CTerrain@@QAEKXZ PROC NEAR		; CTerrain::QueryMemUsage, COMDAT
; _this$ = ecx

; 663  : 	{

  00000	55		 push	 ebp
  00001	8b ec		 mov	 ebp, esp
  00003	81 ec f0 00 00
	00		 sub	 esp, 240		; 000000f0H
  00009	53		 push	 ebx
  0000a	56		 push	 esi
  0000b	57		 push	 edi
  0000c	51		 push	 ecx
  0000d	8d bd 10 ff ff
	ff		 lea	 edi, DWORD PTR [ebp-240]
  00013	b9 3c 00 00 00	 mov	 ecx, 60			; 0000003cH
  00018	b8 cc cc cc cc	 mov	 eax, -858993460		; ccccccccH
  0001d	f3 ab		 rep stosd
  0001f	59		 pop	 ecx
  00020	89 4d f8	 mov	 DWORD PTR _this$[ebp], ecx

; 664  : 		DWORD dwMem = m_dwMem ;

  00023	8b 45 f8	 mov	 eax, DWORD PTR _this$[ebp]
  00026	8b 88 58 04 00
	00		 mov	 ecx, DWORD PTR [eax+1112]
  0002c	89 4d ec	 mov	 DWORD PTR _dwMem$[ebp], ecx

; 665  : 
; 666  : 		for (int x = 0 ; x < m_nPatchesSQ ; x ++)

  0002f	c7 45 e0 00 00
	00 00		 mov	 DWORD PTR _x$94049[ebp], 0
  00036	eb 09		 jmp	 SHORT $L94050
$L94051:
  00038	8b 45 e0	 mov	 eax, DWORD PTR _x$94049[ebp]
  0003b	83 c0 01	 add	 eax, 1
  0003e	89 45 e0	 mov	 DWORD PTR _x$94049[ebp], eax
$L94050:
  00041	8b 45 f8	 mov	 eax, DWORD PTR _this$[ebp]
  00044	8b 4d e0	 mov	 ecx, DWORD PTR _x$94049[ebp]
  00047	3b 48 08	 cmp	 ecx, DWORD PTR [eax+8]
  0004a	7d 63		 jge	 SHORT $L94052

; 667  : 			for (int y = 0 ; y < m_nPatchesSQ ; y ++)

  0004c	c7 45 d4 00 00
	00 00		 mov	 DWORD PTR _y$94053[ebp], 0
  00053	eb 09		 jmp	 SHORT $L94054
$L94055:
  00055	8b 45 d4	 mov	 eax, DWORD PTR _y$94053[ebp]
  00058	83 c0 01	 add	 eax, 1
  0005b	89 45 d4	 mov	 DWORD PTR _y$94053[ebp], eax
$L94054:
  0005e	8b 45 f8	 mov	 eax, DWORD PTR _this$[ebp]
  00061	8b 4d d4	 mov	 ecx, DWORD PTR _y$94053[ebp]
  00064	3b 48 08	 cmp	 ecx, DWORD PTR [eax+8]
  00067	7d 44		 jge	 SHORT $L94056

; 668  : 				if (m_pPatches[TER_RC2ABS(x,y)])

  00069	8b 45 f8	 mov	 eax, DWORD PTR _this$[ebp]
  0006c	8b 4d e0	 mov	 ecx, DWORD PTR _x$94049[ebp]
  0006f	0f af 48 08	 imul	 ecx, DWORD PTR [eax+8]
  00073	03 4d d4	 add	 ecx, DWORD PTR _y$94053[ebp]
  00076	8b 55 f8	 mov	 edx, DWORD PTR _this$[ebp]
  00079	8b 82 fc 04 00
	00		 mov	 eax, DWORD PTR [edx+1276]
  0007f	83 3c 88 00	 cmp	 DWORD PTR [eax+ecx*4], 0
  00083	74 26		 je	 SHORT $L94057

; 669  : 					dwMem += m_pPatches[TER_RC2ABS(x,y)]->QueryMemUsage() ;

  00085	8b 45 f8	 mov	 eax, DWORD PTR _this$[ebp]
  00088	8b 4d e0	 mov	 ecx, DWORD PTR _x$94049[ebp]
  0008b	0f af 48 08	 imul	 ecx, DWORD PTR [eax+8]
  0008f	03 4d d4	 add	 ecx, DWORD PTR _y$94053[ebp]
  00092	8b 55 f8	 mov	 edx, DWORD PTR _this$[ebp]
  00095	8b 82 fc 04 00
	00		 mov	 eax, DWORD PTR [edx+1276]
  0009b	8b 0c 88	 mov	 ecx, DWORD PTR [eax+ecx*4]
  0009e	e8 00 00 00 00	 call	 ?QueryMemUsage@CTerrainPatch@@QAEKXZ ; CTerrainPatch::QueryMemUsage
  000a3	8b 4d ec	 mov	 ecx, DWORD PTR _dwMem$[ebp]
  000a6	03 c8		 add	 ecx, eax
  000a8	89 4d ec	 mov	 DWORD PTR _dwMem$[ebp], ecx
$L94057:

; 670  : 
; 671  : 		return dwMem ;

  000ab	eb a8		 jmp	 SHORT $L94055
$L94056:
  000ad	eb 89		 jmp	 SHORT $L94051
$L94052:
  000af	8b 45 ec	 mov	 eax, DWORD PTR _dwMem$[ebp]

; 672  : 	}

  000b2	5f		 pop	 edi
  000b3	5e		 pop	 esi
  000b4	5b		 pop	 ebx
  000b5	81 c4 f0 00 00
	00		 add	 esp, 240		; 000000f0H
  000bb	3b ec		 cmp	 ebp, esp
  000bd	e8 00 00 00 00	 call	 __RTC_CheckEsp
  000c2	8b e5		 mov	 esp, ebp
  000c4	5d		 pop	 ebp
  000c5	c3		 ret	 0
?QueryMemUsage@CTerrain@@QAEKXZ ENDP			; CTerrain::QueryMemUsage
_TEXT	ENDS
EXTRN	_abs:NEAR
; Function compile flags: /Odt /RTCsu /ZI
;	COMDAT ?BlendColorSpot@CTerrain@@QAEHIIHPAUD3DXCOLOR@@@Z
_TEXT	SEGMENT
tv246 = -268
tv228 = -268
_y$94076 = -68
_x$94069 = -56
_i$ = -44
_iy$ = -32
_ix$ = -20
_this$ = -8
_Row$ = 8
_Col$ = 12
_Radius$ = 16
_pColor$ = 20
?BlendColorSpot@CTerrain@@QAEHIIHPAUD3DXCOLOR@@@Z PROC NEAR ; CTerrain::BlendColorSpot, COMDAT
; _this$ = ecx

; 685  : 	{

  00000	55		 push	 ebp
  00001	8b ec		 mov	 ebp, esp
  00003	81 ec 0c 01 00
	00		 sub	 esp, 268		; 0000010cH
  00009	53		 push	 ebx
  0000a	56		 push	 esi
  0000b	57		 push	 edi
  0000c	51		 push	 ecx
  0000d	8d bd f4 fe ff
	ff		 lea	 edi, DWORD PTR [ebp-268]
  00013	b9 43 00 00 00	 mov	 ecx, 67			; 00000043H
  00018	b8 cc cc cc cc	 mov	 eax, -858993460		; ccccccccH
  0001d	f3 ab		 rep stosd
  0001f	59		 pop	 ecx
  00020	89 4d f8	 mov	 DWORD PTR _this$[ebp], ecx

; 686  : 		float ix, iy, i ;
; 687  : 		for (int x = (int)Row - Radius / 2 ; x < (int)Row + Radius / 2 ; x ++)

  00023	8b 45 10	 mov	 eax, DWORD PTR _Radius$[ebp]
  00026	99		 cdq
  00027	2b c2		 sub	 eax, edx
  00029	d1 f8		 sar	 eax, 1
  0002b	8b 4d 08	 mov	 ecx, DWORD PTR _Row$[ebp]
  0002e	2b c8		 sub	 ecx, eax
  00030	89 4d c8	 mov	 DWORD PTR _x$94069[ebp], ecx
  00033	eb 09		 jmp	 SHORT $L94072
$L94073:
  00035	8b 45 c8	 mov	 eax, DWORD PTR _x$94069[ebp]
  00038	83 c0 01	 add	 eax, 1
  0003b	89 45 c8	 mov	 DWORD PTR _x$94069[ebp], eax
$L94072:
  0003e	8b 45 10	 mov	 eax, DWORD PTR _Radius$[ebp]
  00041	99		 cdq
  00042	2b c2		 sub	 eax, edx
  00044	d1 f8		 sar	 eax, 1
  00046	8b 4d 08	 mov	 ecx, DWORD PTR _Row$[ebp]
  00049	03 c8		 add	 ecx, eax
  0004b	39 4d c8	 cmp	 DWORD PTR _x$94069[ebp], ecx
  0004e	0f 8d 15 02 00
	00		 jge	 $L94065

; 688  : 		{
; 689  : 			ix = 1.0f - (float)abs(Row - x) / (Radius / 2.0f) ;

  00054	8b 45 08	 mov	 eax, DWORD PTR _Row$[ebp]
  00057	2b 45 c8	 sub	 eax, DWORD PTR _x$94069[ebp]
  0005a	50		 push	 eax
  0005b	e8 00 00 00 00	 call	 _abs
  00060	83 c4 04	 add	 esp, 4
  00063	89 85 f4 fe ff
	ff		 mov	 DWORD PTR tv228[ebp], eax
  00069	db 85 f4 fe ff
	ff		 fild	 DWORD PTR tv228[ebp]
  0006f	db 45 10	 fild	 DWORD PTR _Radius$[ebp]
  00072	d8 35 00 00 00
	00		 fdiv	 DWORD PTR __real@40000000
  00078	de f9		 fdivp	 ST(1), ST(0)
  0007a	d8 2d 00 00 00
	00		 fsubr	 DWORD PTR __real@3f800000
  00080	d9 5d ec	 fstp	 DWORD PTR _ix$[ebp]

; 690  : 			for (int y = (int)Col - Radius / 2 ; y < (int)Col + Radius / 2 ; y ++)

  00083	8b 45 10	 mov	 eax, DWORD PTR _Radius$[ebp]
  00086	99		 cdq
  00087	2b c2		 sub	 eax, edx
  00089	d1 f8		 sar	 eax, 1
  0008b	8b 4d 0c	 mov	 ecx, DWORD PTR _Col$[ebp]
  0008e	2b c8		 sub	 ecx, eax
  00090	89 4d bc	 mov	 DWORD PTR _y$94076[ebp], ecx
  00093	eb 09		 jmp	 SHORT $L94079
$L94080:
  00095	8b 45 bc	 mov	 eax, DWORD PTR _y$94076[ebp]
  00098	83 c0 01	 add	 eax, 1
  0009b	89 45 bc	 mov	 DWORD PTR _y$94076[ebp], eax
$L94079:
  0009e	8b 45 10	 mov	 eax, DWORD PTR _Radius$[ebp]
  000a1	99		 cdq
  000a2	2b c2		 sub	 eax, edx
  000a4	d1 f8		 sar	 eax, 1
  000a6	8b 4d 0c	 mov	 ecx, DWORD PTR _Col$[ebp]
  000a9	03 c8		 add	 ecx, eax
  000ab	39 4d bc	 cmp	 DWORD PTR _y$94076[ebp], ecx
  000ae	0f 8d b0 01 00
	00		 jge	 $L94081

; 691  : 			{
; 692  : 				if (y > (int)m_nHeightmapSQ - 1 || x > (int)m_nHeightmapSQ - 1 ||
; 693  : 					x < 0 || y < 0)

  000b4	8b 45 f8	 mov	 eax, DWORD PTR _this$[ebp]
  000b7	8b 88 60 04 00
	00		 mov	 ecx, DWORD PTR [eax+1120]
  000bd	83 e9 01	 sub	 ecx, 1
  000c0	39 4d bc	 cmp	 DWORD PTR _y$94076[ebp], ecx
  000c3	7f 1d		 jg	 SHORT $L94085
  000c5	8b 45 f8	 mov	 eax, DWORD PTR _this$[ebp]
  000c8	8b 88 60 04 00
	00		 mov	 ecx, DWORD PTR [eax+1120]
  000ce	83 e9 01	 sub	 ecx, 1
  000d1	39 4d c8	 cmp	 DWORD PTR _x$94069[ebp], ecx
  000d4	7f 0c		 jg	 SHORT $L94085
  000d6	83 7d c8 00	 cmp	 DWORD PTR _x$94069[ebp], 0
  000da	7c 06		 jl	 SHORT $L94085
  000dc	83 7d bc 00	 cmp	 DWORD PTR _y$94076[ebp], 0
  000e0	7d 02		 jge	 SHORT $L94084
$L94085:

; 694  : 					continue ;

  000e2	eb b1		 jmp	 SHORT $L94080
$L94084:

; 695  : 
; 696  : 				iy = 1.0f - (float)abs(Col - y) / (Radius / 2.0f) ;

  000e4	8b 45 0c	 mov	 eax, DWORD PTR _Col$[ebp]
  000e7	2b 45 bc	 sub	 eax, DWORD PTR _y$94076[ebp]
  000ea	50		 push	 eax
  000eb	e8 00 00 00 00	 call	 _abs
  000f0	83 c4 04	 add	 esp, 4
  000f3	89 85 f4 fe ff
	ff		 mov	 DWORD PTR tv246[ebp], eax
  000f9	db 85 f4 fe ff
	ff		 fild	 DWORD PTR tv246[ebp]
  000ff	db 45 10	 fild	 DWORD PTR _Radius$[ebp]
  00102	d8 35 00 00 00
	00		 fdiv	 DWORD PTR __real@40000000
  00108	de f9		 fdivp	 ST(1), ST(0)
  0010a	d8 2d 00 00 00
	00		 fsubr	 DWORD PTR __real@3f800000
  00110	d9 5d e0	 fstp	 DWORD PTR _iy$[ebp]

; 697  : 				i = ix * iy ;

  00113	d9 45 ec	 fld	 DWORD PTR _ix$[ebp]
  00116	d8 4d e0	 fmul	 DWORD PTR _iy$[ebp]
  00119	d9 5d d4	 fstp	 DWORD PTR _i$[ebp]

; 698  : 
; 699  : 				if (rnd() < ix && rnd() < iy)

  0011c	e8 00 00 00 00	 call	 ?rnd@@YAMXZ		; rnd
  00121	d8 5d ec	 fcomp	 DWORD PTR _ix$[ebp]
  00124	df e0		 fnstsw	 ax
  00126	f6 c4 05	 test	 ah, 5
  00129	0f 8a 30 01 00
	00		 jp	 $L94087
  0012f	e8 00 00 00 00	 call	 ?rnd@@YAMXZ		; rnd
  00134	d8 5d e0	 fcomp	 DWORD PTR _iy$[ebp]
  00137	df e0		 fnstsw	 ax
  00139	f6 c4 05	 test	 ah, 5
  0013c	0f 8a 1d 01 00
	00		 jp	 $L94087

; 700  : 				{
; 701  : 					m_pColormap[NDX(x, y)].r =
; 702  : 						(m_pColormap[NDX(x,y)].r * (1 - i + 1) + pColor->r * i) / 2.0f ;

  00142	8b 45 f8	 mov	 eax, DWORD PTR _this$[ebp]
  00145	8b 4d c8	 mov	 ecx, DWORD PTR _x$94069[ebp]
  00148	0f af 88 60 04
	00 00		 imul	 ecx, DWORD PTR [eax+1120]
  0014f	03 4d bc	 add	 ecx, DWORD PTR _y$94076[ebp]
  00152	c1 e1 04	 shl	 ecx, 4
  00155	8b 55 f8	 mov	 edx, DWORD PTR _this$[ebp]
  00158	8b 82 68 04 00
	00		 mov	 eax, DWORD PTR [edx+1128]
  0015e	d9 05 00 00 00
	00		 fld	 DWORD PTR __real@3f800000
  00164	d8 65 d4	 fsub	 DWORD PTR _i$[ebp]
  00167	d8 05 00 00 00
	00		 fadd	 DWORD PTR __real@3f800000
  0016d	d8 0c 08	 fmul	 DWORD PTR [eax+ecx]
  00170	8b 4d 14	 mov	 ecx, DWORD PTR _pColor$[ebp]
  00173	d9 45 d4	 fld	 DWORD PTR _i$[ebp]
  00176	d8 09		 fmul	 DWORD PTR [ecx]
  00178	de c1		 faddp	 ST(1), ST(0)
  0017a	d8 35 00 00 00
	00		 fdiv	 DWORD PTR __real@40000000
  00180	8b 55 f8	 mov	 edx, DWORD PTR _this$[ebp]
  00183	8b 45 c8	 mov	 eax, DWORD PTR _x$94069[ebp]
  00186	0f af 82 60 04
	00 00		 imul	 eax, DWORD PTR [edx+1120]
  0018d	03 45 bc	 add	 eax, DWORD PTR _y$94076[ebp]
  00190	c1 e0 04	 shl	 eax, 4
  00193	8b 4d f8	 mov	 ecx, DWORD PTR _this$[ebp]
  00196	8b 91 68 04 00
	00		 mov	 edx, DWORD PTR [ecx+1128]
  0019c	d9 1c 10	 fstp	 DWORD PTR [eax+edx]

; 703  : 
; 704  : 					m_pColormap[NDX(x, y)].g =
; 705  : 						(m_pColormap[NDX(x,y)].g * (1 - i + 1) + pColor->g * i) / 2.0f ;

  0019f	8b 45 f8	 mov	 eax, DWORD PTR _this$[ebp]
  001a2	8b 4d c8	 mov	 ecx, DWORD PTR _x$94069[ebp]
  001a5	0f af 88 60 04
	00 00		 imul	 ecx, DWORD PTR [eax+1120]
  001ac	03 4d bc	 add	 ecx, DWORD PTR _y$94076[ebp]
  001af	c1 e1 04	 shl	 ecx, 4
  001b2	8b 55 f8	 mov	 edx, DWORD PTR _this$[ebp]
  001b5	8b 82 68 04 00
	00		 mov	 eax, DWORD PTR [edx+1128]
  001bb	d9 05 00 00 00
	00		 fld	 DWORD PTR __real@3f800000
  001c1	d8 65 d4	 fsub	 DWORD PTR _i$[ebp]
  001c4	d8 05 00 00 00
	00		 fadd	 DWORD PTR __real@3f800000
  001ca	d8 4c 08 04	 fmul	 DWORD PTR [eax+ecx+4]
  001ce	8b 4d 14	 mov	 ecx, DWORD PTR _pColor$[ebp]
  001d1	d9 45 d4	 fld	 DWORD PTR _i$[ebp]
  001d4	d8 49 04	 fmul	 DWORD PTR [ecx+4]
  001d7	de c1		 faddp	 ST(1), ST(0)
  001d9	d8 35 00 00 00
	00		 fdiv	 DWORD PTR __real@40000000
  001df	8b 55 f8	 mov	 edx, DWORD PTR _this$[ebp]
  001e2	8b 45 c8	 mov	 eax, DWORD PTR _x$94069[ebp]
  001e5	0f af 82 60 04
	00 00		 imul	 eax, DWORD PTR [edx+1120]
  001ec	03 45 bc	 add	 eax, DWORD PTR _y$94076[ebp]
  001ef	c1 e0 04	 shl	 eax, 4
  001f2	8b 4d f8	 mov	 ecx, DWORD PTR _this$[ebp]
  001f5	8b 91 68 04 00
	00		 mov	 edx, DWORD PTR [ecx+1128]
  001fb	d9 5c 02 04	 fstp	 DWORD PTR [edx+eax+4]

; 706  : 
; 707  : 					m_pColormap[NDX(x, y)].b =
; 708  : 						(m_pColormap[NDX(x,y)].b * (1 - i + 1) + pColor->b * i) / 2.0f ;

  001ff	8b 45 f8	 mov	 eax, DWORD PTR _this$[ebp]
  00202	8b 4d c8	 mov	 ecx, DWORD PTR _x$94069[ebp]
  00205	0f af 88 60 04
	00 00		 imul	 ecx, DWORD PTR [eax+1120]
  0020c	03 4d bc	 add	 ecx, DWORD PTR _y$94076[ebp]
  0020f	c1 e1 04	 shl	 ecx, 4
  00212	8b 55 f8	 mov	 edx, DWORD PTR _this$[ebp]
  00215	8b 82 68 04 00
	00		 mov	 eax, DWORD PTR [edx+1128]
  0021b	d9 05 00 00 00
	00		 fld	 DWORD PTR __real@3f800000
  00221	d8 65 d4	 fsub	 DWORD PTR _i$[ebp]
  00224	d8 05 00 00 00
	00		 fadd	 DWORD PTR __real@3f800000
  0022a	d8 4c 08 08	 fmul	 DWORD PTR [eax+ecx+8]
  0022e	8b 4d 14	 mov	 ecx, DWORD PTR _pColor$[ebp]
  00231	d9 45 d4	 fld	 DWORD PTR _i$[ebp]
  00234	d8 49 08	 fmul	 DWORD PTR [ecx+8]
  00237	de c1		 faddp	 ST(1), ST(0)
  00239	d8 35 00 00 00
	00		 fdiv	 DWORD PTR __real@40000000
  0023f	8b 55 f8	 mov	 edx, DWORD PTR _this$[ebp]
  00242	8b 45 c8	 mov	 eax, DWORD PTR _x$94069[ebp]
  00245	0f af 82 60 04
	00 00		 imul	 eax, DWORD PTR [edx+1120]
  0024c	03 45 bc	 add	 eax, DWORD PTR _y$94076[ebp]
  0024f	c1 e0 04	 shl	 eax, 4
  00252	8b 4d f8	 mov	 ecx, DWORD PTR _this$[ebp]
  00255	8b 91 68 04 00
	00		 mov	 edx, DWORD PTR [ecx+1128]
  0025b	d9 5c 02 08	 fstp	 DWORD PTR [edx+eax+8]
$L94087:

; 709  : 				}
; 710  : 			}

  0025f	e9 31 fe ff ff	 jmp	 $L94080
$L94081:

; 711  : 		}

  00264	e9 cc fd ff ff	 jmp	 $L94073
$L94065:

; 712  : 	}

  00269	5f		 pop	 edi
  0026a	5e		 pop	 esi
  0026b	5b		 pop	 ebx
  0026c	81 c4 0c 01 00
	00		 add	 esp, 268		; 0000010cH
  00272	3b ec		 cmp	 ebp, esp
  00274	e8 00 00 00 00	 call	 __RTC_CheckEsp
  00279	8b e5		 mov	 esp, ebp
  0027b	5d		 pop	 ebp
  0027c	c2 10 00	 ret	 16			; 00000010H
?BlendColorSpot@CTerrain@@QAEHIIHPAUD3DXCOLOR@@@Z ENDP	; CTerrain::BlendColorSpot
_TEXT	ENDS
PUBLIC	??0D3DXMATRIX@@QAE@XZ				; D3DXMATRIX::D3DXMATRIX
PUBLIC	?D3DXVec2Length@@YAMPBUD3DXVECTOR2@@@Z		; D3DXVec2Length
PUBLIC	__real@41800000
PUBLIC	__real@44bb8000
PUBLIC	??0D3DXVECTOR2@@QAE@XZ				; D3DXVECTOR2::D3DXVECTOR2
PUBLIC	??0D3DXVECTOR2@@QAE@MM@Z			; D3DXVECTOR2::D3DXVECTOR2
PUBLIC	??GD3DXVECTOR2@@QBE?AU0@ABU0@@Z			; D3DXVECTOR2::operator-
EXTRN	_D3DXVec2Hermite@24:NEAR
EXTRN	_D3DXVec2TransformCoord@12:NEAR
EXTRN	_D3DXMatrixMultiply@12:NEAR
EXTRN	_D3DXMatrixTranslation@16:NEAR
EXTRN	_D3DXMatrixRotationZ@8:NEAR
;	COMDAT __real@41800000
CONST	SEGMENT
__real@41800000 DD 041800000r			; 16
CONST	ENDS
;	COMDAT __real@44bb8000
CONST	SEGMENT
__real@44bb8000 DD 044bb8000r			; 1500
; Function compile flags: /Odt /RTCsu /ZI
CONST	ENDS
;	COMDAT ?BlendSplineTrench@CTerrain@@QAEHXZ
_TEXT	SEGMENT
tv455 = -1316
tv438 = -1316
tv425 = -1316
tv413 = -1316
tv450 = -1308
tv433 = -1308
tv420 = -1308
tv408 = -1308
tv403 = -1308
tv606 = -1304
tv586 = -1304
tv548 = -1304
$T94867 = -1296
$T94866 = -1280
$T94865 = -1264
$T94864 = -1248
_iy$94162 = -1040
__y$94158 = -1028
_ix$94155 = -1016
__x$94151 = -1004
_nScatter$94149 = -992
_nStepsRequired$94139 = -980
_vCenter$ = -968
_vStart$ = -952
_m2$ = -936
_m1$ = -864
_m0$ = -792
_matRot$ = -720
_T$ = -644
_vRes$ = -632
_tB$ = -616
_tA$ = -480
_vB$ = -344
_vA$ = -208
_s$ = -68
_y$ = -56
_x$ = -44
_j$ = -32
_i$ = -20
_this$ = -8
?BlendSplineTrench@CTerrain@@QAEHXZ PROC NEAR		; CTerrain::BlendSplineTrench, COMDAT
; _this$ = ecx

; 732  : 	{

  00000	55		 push	 ebp
  00001	8b ec		 mov	 ebp, esp
  00003	81 ec 24 05 00
	00		 sub	 esp, 1316		; 00000524H
  00009	53		 push	 ebx
  0000a	56		 push	 esi
  0000b	57		 push	 edi
  0000c	51		 push	 ecx
  0000d	8d bd dc fa ff
	ff		 lea	 edi, DWORD PTR [ebp-1316]
  00013	b9 49 01 00 00	 mov	 ecx, 329		; 00000149H
  00018	b8 cc cc cc cc	 mov	 eax, -858993460		; ccccccccH
  0001d	f3 ab		 rep stosd
  0001f	59		 pop	 ecx
  00020	89 4d f8	 mov	 DWORD PTR _this$[ebp], ecx

; 733  : 		int i, j, x, y ;
; 734  : 		float s ;
; 735  : 		xVec2 vA[SPLINE_POINTS],

  00023	68 00 00 00 00	 push	 OFFSET FLAT:??0D3DXVECTOR2@@QAE@XZ ; D3DXVECTOR2::D3DXVECTOR2
  00028	6a 10		 push	 16			; 00000010H
  0002a	6a 08		 push	 8
  0002c	8d 85 30 ff ff
	ff		 lea	 eax, DWORD PTR _vA$[ebp]
  00032	50		 push	 eax
  00033	e8 00 00 00 00	 call	 ??_H@YGXPAXIHP6EPAX0@Z@Z

; 736  : 					vB[SPLINE_POINTS],

  00038	68 00 00 00 00	 push	 OFFSET FLAT:??0D3DXVECTOR2@@QAE@XZ ; D3DXVECTOR2::D3DXVECTOR2
  0003d	6a 10		 push	 16			; 00000010H
  0003f	6a 08		 push	 8
  00041	8d 85 a8 fe ff
	ff		 lea	 eax, DWORD PTR _vB$[ebp]
  00047	50		 push	 eax
  00048	e8 00 00 00 00	 call	 ??_H@YGXPAXIHP6EPAX0@Z@Z

; 737  : 					tA[SPLINE_POINTS],

  0004d	68 00 00 00 00	 push	 OFFSET FLAT:??0D3DXVECTOR2@@QAE@XZ ; D3DXVECTOR2::D3DXVECTOR2
  00052	6a 10		 push	 16			; 00000010H
  00054	6a 08		 push	 8
  00056	8d 85 20 fe ff
	ff		 lea	 eax, DWORD PTR _tA$[ebp]
  0005c	50		 push	 eax
  0005d	e8 00 00 00 00	 call	 ??_H@YGXPAXIHP6EPAX0@Z@Z

; 738  : 					tB[SPLINE_POINTS], vRes ;

  00062	68 00 00 00 00	 push	 OFFSET FLAT:??0D3DXVECTOR2@@QAE@XZ ; D3DXVECTOR2::D3DXVECTOR2
  00067	6a 10		 push	 16			; 00000010H
  00069	6a 08		 push	 8
  0006b	8d 85 98 fd ff
	ff		 lea	 eax, DWORD PTR _tB$[ebp]
  00071	50		 push	 eax
  00072	e8 00 00 00 00	 call	 ??_H@YGXPAXIHP6EPAX0@Z@Z
  00077	8d 8d 88 fd ff
	ff		 lea	 ecx, DWORD PTR _vRes$[ebp]
  0007d	e8 00 00 00 00	 call	 ??0D3DXVECTOR2@@QAE@XZ	; D3DXVECTOR2::D3DXVECTOR2

; 739  : 
; 740  : 	//
; 741  : 	// Define spline guide points:
; 742  : 	//
; 743  : 	// applies a rotation around the heightmap center (row,col) to produce
; 744  : 	// spline guide points lying on a circle.
; 745  : 	//
; 746  : 		float T = (float)m_nHeightmapSQ / 2.0f ;

  00082	8b 45 f8	 mov	 eax, DWORD PTR _this$[ebp]
  00085	8b 88 60 04 00
	00		 mov	 ecx, DWORD PTR [eax+1120]
  0008b	89 8d e4 fa ff
	ff		 mov	 DWORD PTR tv403[ebp], ecx
  00091	c7 85 e8 fa ff
	ff 00 00 00 00	 mov	 DWORD PTR tv403[ebp+4], 0
  0009b	df ad e4 fa ff
	ff		 fild	 QWORD PTR tv403[ebp]
  000a1	d8 35 00 00 00
	00		 fdiv	 DWORD PTR __real@40000000
  000a7	d9 9d 7c fd ff
	ff		 fstp	 DWORD PTR _T$[ebp]

; 747  : 		xMat matRot, m0, m1, m2 ;

  000ad	8d 8d 30 fd ff
	ff		 lea	 ecx, DWORD PTR _matRot$[ebp]
  000b3	e8 00 00 00 00	 call	 ??0D3DXMATRIX@@QAE@XZ	; D3DXMATRIX::D3DXMATRIX
  000b8	8d 8d e8 fc ff
	ff		 lea	 ecx, DWORD PTR _m0$[ebp]
  000be	e8 00 00 00 00	 call	 ??0D3DXMATRIX@@QAE@XZ	; D3DXMATRIX::D3DXMATRIX
  000c3	8d 8d a0 fc ff
	ff		 lea	 ecx, DWORD PTR _m1$[ebp]
  000c9	e8 00 00 00 00	 call	 ??0D3DXMATRIX@@QAE@XZ	; D3DXMATRIX::D3DXMATRIX
  000ce	8d 8d 58 fc ff
	ff		 lea	 ecx, DWORD PTR _m2$[ebp]
  000d4	e8 00 00 00 00	 call	 ??0D3DXMATRIX@@QAE@XZ	; D3DXMATRIX::D3DXMATRIX

; 748  : 		xVec2 vStart = xVec2((float)(m_nHeightmapSQ/2), (float)(m_nHeightmapSQ/8)) ;

  000d9	8b 45 f8	 mov	 eax, DWORD PTR _this$[ebp]
  000dc	8b 88 60 04 00
	00		 mov	 ecx, DWORD PTR [eax+1120]
  000e2	c1 e9 03	 shr	 ecx, 3
  000e5	89 8d e4 fa ff
	ff		 mov	 DWORD PTR tv408[ebp], ecx
  000eb	c7 85 e8 fa ff
	ff 00 00 00 00	 mov	 DWORD PTR tv408[ebp+4], 0
  000f5	df ad e4 fa ff
	ff		 fild	 QWORD PTR tv408[ebp]
  000fb	51		 push	 ecx
  000fc	d9 1c 24	 fstp	 DWORD PTR [esp]
  000ff	8b 55 f8	 mov	 edx, DWORD PTR _this$[ebp]
  00102	8b 82 60 04 00
	00		 mov	 eax, DWORD PTR [edx+1120]
  00108	d1 e8		 shr	 eax, 1
  0010a	89 85 dc fa ff
	ff		 mov	 DWORD PTR tv413[ebp], eax
  00110	c7 85 e0 fa ff
	ff 00 00 00 00	 mov	 DWORD PTR tv413[ebp+4], 0
  0011a	df ad dc fa ff
	ff		 fild	 QWORD PTR tv413[ebp]
  00120	51		 push	 ecx
  00121	d9 1c 24	 fstp	 DWORD PTR [esp]
  00124	8d 8d 48 fc ff
	ff		 lea	 ecx, DWORD PTR _vStart$[ebp]
  0012a	e8 00 00 00 00	 call	 ??0D3DXVECTOR2@@QAE@MM@Z ; D3DXVECTOR2::D3DXVECTOR2

; 749  : 		xVec2 vCenter = xVec2((float)(m_nHeightmapSQ/2), (float)(m_nHeightmapSQ/2)) ;

  0012f	8b 45 f8	 mov	 eax, DWORD PTR _this$[ebp]
  00132	8b 88 60 04 00
	00		 mov	 ecx, DWORD PTR [eax+1120]
  00138	d1 e9		 shr	 ecx, 1
  0013a	89 8d e4 fa ff
	ff		 mov	 DWORD PTR tv420[ebp], ecx
  00140	c7 85 e8 fa ff
	ff 00 00 00 00	 mov	 DWORD PTR tv420[ebp+4], 0
  0014a	df ad e4 fa ff
	ff		 fild	 QWORD PTR tv420[ebp]
  00150	51		 push	 ecx
  00151	d9 1c 24	 fstp	 DWORD PTR [esp]
  00154	8b 55 f8	 mov	 edx, DWORD PTR _this$[ebp]
  00157	8b 82 60 04 00
	00		 mov	 eax, DWORD PTR [edx+1120]
  0015d	d1 e8		 shr	 eax, 1
  0015f	89 85 dc fa ff
	ff		 mov	 DWORD PTR tv425[ebp], eax
  00165	c7 85 e0 fa ff
	ff 00 00 00 00	 mov	 DWORD PTR tv425[ebp+4], 0
  0016f	df ad dc fa ff
	ff		 fild	 QWORD PTR tv425[ebp]
  00175	51		 push	 ecx
  00176	d9 1c 24	 fstp	 DWORD PTR [esp]
  00179	8d 8d 38 fc ff
	ff		 lea	 ecx, DWORD PTR _vCenter$[ebp]
  0017f	e8 00 00 00 00	 call	 ??0D3DXVECTOR2@@QAE@MM@Z ; D3DXVECTOR2::D3DXVECTOR2

; 750  : 
; 751  : 		D3DXMatrixTranslation(&m0, -(float)(m_nHeightmapSQ/2), -(float)(m_nHeightmapSQ/2), 0.0f) ;

  00184	6a 00		 push	 0
  00186	8b 45 f8	 mov	 eax, DWORD PTR _this$[ebp]
  00189	8b 88 60 04 00
	00		 mov	 ecx, DWORD PTR [eax+1120]
  0018f	d1 e9		 shr	 ecx, 1
  00191	89 8d e4 fa ff
	ff		 mov	 DWORD PTR tv433[ebp], ecx
  00197	c7 85 e8 fa ff
	ff 00 00 00 00	 mov	 DWORD PTR tv433[ebp+4], 0
  001a1	df ad e4 fa ff
	ff		 fild	 QWORD PTR tv433[ebp]
  001a7	d9 e0		 fchs
  001a9	51		 push	 ecx
  001aa	d9 1c 24	 fstp	 DWORD PTR [esp]
  001ad	8b 55 f8	 mov	 edx, DWORD PTR _this$[ebp]
  001b0	8b 82 60 04 00
	00		 mov	 eax, DWORD PTR [edx+1120]
  001b6	d1 e8		 shr	 eax, 1
  001b8	89 85 dc fa ff
	ff		 mov	 DWORD PTR tv438[ebp], eax
  001be	c7 85 e0 fa ff
	ff 00 00 00 00	 mov	 DWORD PTR tv438[ebp+4], 0
  001c8	df ad dc fa ff
	ff		 fild	 QWORD PTR tv438[ebp]
  001ce	d9 e0		 fchs
  001d0	51		 push	 ecx
  001d1	d9 1c 24	 fstp	 DWORD PTR [esp]
  001d4	8d 8d e8 fc ff
	ff		 lea	 ecx, DWORD PTR _m0$[ebp]
  001da	51		 push	 ecx
  001db	e8 00 00 00 00	 call	 _D3DXMatrixTranslation@16

; 752  : 		D3DXMatrixRotationZ(&m1, g_PI * 2.0f / (float)SPLINE_POINTS) ;

  001e0	d9 05 00 00 00
	00		 fld	 DWORD PTR _g_PI
  001e6	dc c0		 fadd	 ST(0), ST(0)
  001e8	d8 35 00 00 00
	00		 fdiv	 DWORD PTR __real@41800000
  001ee	51		 push	 ecx
  001ef	d9 1c 24	 fstp	 DWORD PTR [esp]
  001f2	8d 85 a0 fc ff
	ff		 lea	 eax, DWORD PTR _m1$[ebp]
  001f8	50		 push	 eax
  001f9	e8 00 00 00 00	 call	 _D3DXMatrixRotationZ@8

; 753  : 		D3DXMatrixTranslation(&m2, +(float)(m_nHeightmapSQ/2), +(float)(m_nHeightmapSQ/2), 0.0f) ;

  001fe	6a 00		 push	 0
  00200	8b 45 f8	 mov	 eax, DWORD PTR _this$[ebp]
  00203	8b 88 60 04 00
	00		 mov	 ecx, DWORD PTR [eax+1120]
  00209	d1 e9		 shr	 ecx, 1
  0020b	89 8d e4 fa ff
	ff		 mov	 DWORD PTR tv450[ebp], ecx
  00211	c7 85 e8 fa ff
	ff 00 00 00 00	 mov	 DWORD PTR tv450[ebp+4], 0
  0021b	df ad e4 fa ff
	ff		 fild	 QWORD PTR tv450[ebp]
  00221	51		 push	 ecx
  00222	d9 1c 24	 fstp	 DWORD PTR [esp]
  00225	8b 55 f8	 mov	 edx, DWORD PTR _this$[ebp]
  00228	8b 82 60 04 00
	00		 mov	 eax, DWORD PTR [edx+1120]
  0022e	d1 e8		 shr	 eax, 1
  00230	89 85 dc fa ff
	ff		 mov	 DWORD PTR tv455[ebp], eax
  00236	c7 85 e0 fa ff
	ff 00 00 00 00	 mov	 DWORD PTR tv455[ebp+4], 0
  00240	df ad dc fa ff
	ff		 fild	 QWORD PTR tv455[ebp]
  00246	51		 push	 ecx
  00247	d9 1c 24	 fstp	 DWORD PTR [esp]
  0024a	8d 8d 58 fc ff
	ff		 lea	 ecx, DWORD PTR _m2$[ebp]
  00250	51		 push	 ecx
  00251	e8 00 00 00 00	 call	 _D3DXMatrixTranslation@16

; 754  : 		D3DXMatrixMultiply(&matRot, &m0, &m1) ;

  00256	8d 85 a0 fc ff
	ff		 lea	 eax, DWORD PTR _m1$[ebp]
  0025c	50		 push	 eax
  0025d	8d 8d e8 fc ff
	ff		 lea	 ecx, DWORD PTR _m0$[ebp]
  00263	51		 push	 ecx
  00264	8d 95 30 fd ff
	ff		 lea	 edx, DWORD PTR _matRot$[ebp]
  0026a	52		 push	 edx
  0026b	e8 00 00 00 00	 call	 _D3DXMatrixMultiply@12

; 755  : 		D3DXMatrixMultiply(&matRot, &matRot, &m2) ;

  00270	8d 85 58 fc ff
	ff		 lea	 eax, DWORD PTR _m2$[ebp]
  00276	50		 push	 eax
  00277	8d 8d 30 fd ff
	ff		 lea	 ecx, DWORD PTR _matRot$[ebp]
  0027d	51		 push	 ecx
  0027e	8d 95 30 fd ff
	ff		 lea	 edx, DWORD PTR _matRot$[ebp]
  00284	52		 push	 edx
  00285	e8 00 00 00 00	 call	 _D3DXMatrixMultiply@12

; 756  : 
; 757  : 		for (i = 0 ; i < SPLINE_POINTS ; i ++)

  0028a	c7 45 ec 00 00
	00 00		 mov	 DWORD PTR _i$[ebp], 0
  00291	eb 09		 jmp	 SHORT $L94126
$L94127:
  00293	8b 45 ec	 mov	 eax, DWORD PTR _i$[ebp]
  00296	83 c0 01	 add	 eax, 1
  00299	89 45 ec	 mov	 DWORD PTR _i$[ebp], eax
$L94126:
  0029c	83 7d ec 10	 cmp	 DWORD PTR _i$[ebp], 16	; 00000010H
  002a0	0f 8d 33 02 00
	00		 jge	 $L94128

; 758  : 		{
; 759  : 			if (i == 0)

  002a6	83 7d ec 00	 cmp	 DWORD PTR _i$[ebp], 0
  002aa	0f 85 dd 00 00
	00		 jne	 $L94129

; 760  : 			{
; 761  : 				D3DXVec2TransformCoord(&vStart, &vStart, &matRot) ;

  002b0	8d 85 30 fd ff
	ff		 lea	 eax, DWORD PTR _matRot$[ebp]
  002b6	50		 push	 eax
  002b7	8d 8d 48 fc ff
	ff		 lea	 ecx, DWORD PTR _vStart$[ebp]
  002bd	51		 push	 ecx
  002be	8d 95 48 fc ff
	ff		 lea	 edx, DWORD PTR _vStart$[ebp]
  002c4	52		 push	 edx
  002c5	e8 00 00 00 00	 call	 _D3DXVec2TransformCoord@12

; 762  : 				vA[0] = vStart ;

  002ca	8b 85 48 fc ff
	ff		 mov	 eax, DWORD PTR _vStart$[ebp]
  002d0	89 85 30 ff ff
	ff		 mov	 DWORD PTR _vA$[ebp], eax
  002d6	8b 8d 4c fc ff
	ff		 mov	 ecx, DWORD PTR _vStart$[ebp+4]
  002dc	89 8d 34 ff ff
	ff		 mov	 DWORD PTR _vA$[ebp+4], ecx

; 763  : 				D3DXVec2TransformCoord(&vStart, &vStart, &matRot) ;

  002e2	8d 85 30 fd ff
	ff		 lea	 eax, DWORD PTR _matRot$[ebp]
  002e8	50		 push	 eax
  002e9	8d 8d 48 fc ff
	ff		 lea	 ecx, DWORD PTR _vStart$[ebp]
  002ef	51		 push	 ecx
  002f0	8d 95 48 fc ff
	ff		 lea	 edx, DWORD PTR _vStart$[ebp]
  002f6	52		 push	 edx
  002f7	e8 00 00 00 00	 call	 _D3DXVec2TransformCoord@12

; 764  : 				vB[0] = vStart ;

  002fc	8b 85 48 fc ff
	ff		 mov	 eax, DWORD PTR _vStart$[ebp]
  00302	89 85 a8 fe ff
	ff		 mov	 DWORD PTR _vB$[ebp], eax
  00308	8b 8d 4c fc ff
	ff		 mov	 ecx, DWORD PTR _vStart$[ebp+4]
  0030e	89 8d ac fe ff
	ff		 mov	 DWORD PTR _vB$[ebp+4], ecx

; 765  : 
; 766  : 				tA[0] = xVec2(rnd() * T, rnd() * T) ;

  00314	e8 00 00 00 00	 call	 ?rnd@@YAMXZ		; rnd
  00319	d8 8d 7c fd ff
	ff		 fmul	 DWORD PTR _T$[ebp]
  0031f	51		 push	 ecx
  00320	d9 1c 24	 fstp	 DWORD PTR [esp]
  00323	e8 00 00 00 00	 call	 ?rnd@@YAMXZ		; rnd
  00328	d8 8d 7c fd ff
	ff		 fmul	 DWORD PTR _T$[ebp]
  0032e	51		 push	 ecx
  0032f	d9 1c 24	 fstp	 DWORD PTR [esp]
  00332	8d 8d 20 fb ff
	ff		 lea	 ecx, DWORD PTR $T94864[ebp]
  00338	e8 00 00 00 00	 call	 ??0D3DXVECTOR2@@QAE@MM@Z ; D3DXVECTOR2::D3DXVECTOR2
  0033d	8b 08		 mov	 ecx, DWORD PTR [eax]
  0033f	8b 50 04	 mov	 edx, DWORD PTR [eax+4]
  00342	89 8d 20 fe ff
	ff		 mov	 DWORD PTR _tA$[ebp], ecx
  00348	89 95 24 fe ff
	ff		 mov	 DWORD PTR _tA$[ebp+4], edx

; 767  : 				tB[0] = xVec2(rnd() * T, rnd() * T) ;

  0034e	e8 00 00 00 00	 call	 ?rnd@@YAMXZ		; rnd
  00353	d8 8d 7c fd ff
	ff		 fmul	 DWORD PTR _T$[ebp]
  00359	51		 push	 ecx
  0035a	d9 1c 24	 fstp	 DWORD PTR [esp]
  0035d	e8 00 00 00 00	 call	 ?rnd@@YAMXZ		; rnd
  00362	d8 8d 7c fd ff
	ff		 fmul	 DWORD PTR _T$[ebp]
  00368	51		 push	 ecx
