; Listing generated by Microsoft (R) Optimizing Compiler Version 13.00.9466 

	TITLE	CTerrainPatch.cpp
	.386P
include listing.inc
if @Version gt 510
.model FLAT
else
_TEXT	SEGMENT PARA USE32 PUBLIC 'CODE'
_TEXT	ENDS
_DATA	SEGMENT DWORD USE32 PUBLIC 'DATA'
_DATA	ENDS
CONST	SEGMENT DWORD USE32 PUBLIC 'CONST'
CONST	ENDS
_BSS	SEGMENT DWORD USE32 PUBLIC 'BSS'
_BSS	ENDS
$$SYMBOLS	SEGMENT BYTE USE32 'DEBSYM'
$$SYMBOLS	ENDS
$$TYPES	SEGMENT BYTE USE32 'DEBTYP'
$$TYPES	ENDS
_TLS	SEGMENT DWORD USE32 PUBLIC 'TLS'
_TLS	ENDS
;	COMDAT ??_C@_0EP@CNFCBLDK@c?3?2documents?5and?5settings?2dom?2my@
CONST	SEGMENT DWORD USE32 PUBLIC 'CONST'
CONST	ENDS
;	COMDAT ??_C@_08LIFENEDP@m_pItems?$AA@
CONST	SEGMENT DWORD USE32 PUBLIC 'CONST'
CONST	ENDS
;	COMDAT ??_C@_0M@EANPALGG@m_pPatchLOD?$AA@
CONST	SEGMENT DWORD USE32 PUBLIC 'CONST'
CONST	ENDS
;	COMDAT ??_C@_0P@ONNNPKEJ@m_pPatchLOD?$FLi?$FN?$AA@
CONST	SEGMENT DWORD USE32 PUBLIC 'CONST'
CONST	ENDS
;	COMDAT ??_C@_0BN@DFJOEAFC@pRO?9?$DOm_ntvRS?$FL0?$FN?4pLitVertices?$AA@
CONST	SEGMENT DWORD USE32 PUBLIC 'CONST'
CONST	ENDS
;	COMDAT ??_C@_0BP@PJMNMBMP@pRO?9?$DOm_ntvRS?$FL0?$FN?4pUnlitVertices?$AA@
CONST	SEGMENT DWORD USE32 PUBLIC 'CONST'
CONST	ENDS
;	COMDAT ??_C@_0CI@KKJFMBGC@pRO?9?$DOm_ntvRS?$FL0?$FN?4pLitVerticesWith@
CONST	SEGMENT DWORD USE32 PUBLIC 'CONST'
CONST	ENDS
;	COMDAT ??_C@_0CM@NADHOHA@pRO?9?$DOm_ntvRS?$FL0?$FN?4pLitVerticesWith@
CONST	SEGMENT DWORD USE32 PUBLIC 'CONST'
CONST	ENDS
;	COMDAT ??_C@_0BJ@DOHKAGPM@pRO?9?$DOm_ntvRS?$FL0?$FN?4pIndices?$AA@
CONST	SEGMENT DWORD USE32 PUBLIC 'CONST'
CONST	ENDS
;	COMDAT ??_C@_0CG@KJICNLAP@m_nItems?5?$DM?$DN?5m_nItemsActuallyAllo@
CONST	SEGMENT DWORD USE32 PUBLIC 'CONST'
CONST	ENDS
;	COMDAT ??_C@_0DI@LCNKMPO@FATAL?3?5Using?5bad?5FVF?5in?5CTerrain@
CONST	SEGMENT DWORD USE32 PUBLIC 'CONST'
CONST	ENDS
;	COMDAT ??_C@_0CL@EHDAJMHF@dropped?5a?5SPAWNPOS?5?$EA?$CI?$CF0?41f?0?5?$CF0?41@
CONST	SEGMENT DWORD USE32 PUBLIC 'CONST'
CONST	ENDS
;	COMDAT _IsEqualGUID
_TEXT	SEGMENT PARA USE32 PUBLIC 'CODE'
_TEXT	ENDS
;	COMDAT _==
_TEXT	SEGMENT PARA USE32 PUBLIC 'CODE'
_TEXT	ENDS
;	COMDAT _fabsf
_TEXT	SEGMENT PARA USE32 PUBLIC 'CODE'
_TEXT	ENDS
;	COMDAT _sqrtf
_TEXT	SEGMENT PARA USE32 PUBLIC 'CODE'
_TEXT	ENDS
;	COMDAT ??0D3DXVECTOR3@@QAE@XZ
_TEXT	SEGMENT PARA USE32 PUBLIC 'CODE'
_TEXT	ENDS
;	COMDAT ??0D3DXMATRIX@@QAE@XZ
_TEXT	SEGMENT PARA USE32 PUBLIC 'CODE'
_TEXT	ENDS
;	COMDAT ??0D3DXQUATERNION@@QAE@XZ
_TEXT	SEGMENT PARA USE32 PUBLIC 'CODE'
_TEXT	ENDS
;	COMDAT ??0D3DXVECTOR2@@QAE@MM@Z
_TEXT	SEGMENT PARA USE32 PUBLIC 'CODE'
_TEXT	ENDS
;	COMDAT ??0D3DXVECTOR3@@QAE@MMM@Z
_TEXT	SEGMENT PARA USE32 PUBLIC 'CODE'
_TEXT	ENDS
;	COMDAT ??0D3DXVECTOR4@@QAE@MMMM@Z
_TEXT	SEGMENT PARA USE32 PUBLIC 'CODE'
_TEXT	ENDS
;	COMDAT ??0D3DXMATRIX@@QAE@PBM@Z
_TEXT	SEGMENT PARA USE32 PUBLIC 'CODE'
_TEXT	ENDS
;	COMDAT ??0D3DXMATRIX@@QAE@ABU_D3DMATRIX@@@Z
_TEXT	SEGMENT PARA USE32 PUBLIC 'CODE'
_TEXT	ENDS
;	COMDAT ??0D3DXMATRIX@@QAE@MMMMMMMMMMMMMMMM@Z
_TEXT	SEGMENT PARA USE32 PUBLIC 'CODE'
_TEXT	ENDS
;	COMDAT ??0D3DXQUATERNION@@QAE@MMMM@Z
_TEXT	SEGMENT PARA USE32 PUBLIC 'CODE'
_TEXT	ENDS
;	COMDAT ??0D3DXPLANE@@QAE@MMMM@Z
_TEXT	SEGMENT PARA USE32 PUBLIC 'CODE'
_TEXT	ENDS
;	COMDAT ??0D3DXCOLOR@@QAE@MMMM@Z
_TEXT	SEGMENT PARA USE32 PUBLIC 'CODE'
_TEXT	ENDS
;	COMDAT ?D3DXVec3Cross@@YAPAUD3DXVECTOR3@@PAU1@PBU1@1@Z
_TEXT	SEGMENT PARA USE32 PUBLIC 'CODE'
_TEXT	ENDS
;	COMDAT ?D3DXVec3Subtract@@YAPAUD3DXVECTOR3@@PAU1@PBU1@1@Z
_TEXT	SEGMENT PARA USE32 PUBLIC 'CODE'
_TEXT	ENDS
;	COMDAT ??0COLOREDVERTEXWITHNORMAL2TEX@@QAE@XZ
_TEXT	SEGMENT PARA USE32 PUBLIC 'CODE'
_TEXT	ENDS
;	COMDAT ??0COLOREDVERTEXWITHNORMAL@@QAE@XZ
_TEXT	SEGMENT PARA USE32 PUBLIC 'CODE'
_TEXT	ENDS
;	COMDAT ??0UNCOLOREDVERTEX@@QAE@XZ
_TEXT	SEGMENT PARA USE32 PUBLIC 'CODE'
_TEXT	ENDS
;	COMDAT ??0COLOREDVERTEX@@QAE@XZ
_TEXT	SEGMENT PARA USE32 PUBLIC 'CODE'
_TEXT	ENDS
;	COMDAT ??0CTerrainPatch@@QAE@HPAUD3DXVECTOR3@@MMPAMPAUD3DXCOLOR@@KKMM0MMMMMMHH@Z
_TEXT	SEGMENT PARA USE32 PUBLIC 'CODE'
_TEXT	ENDS
;	COMDAT ??0GAMEITEM@@QAE@XZ
_TEXT	SEGMENT PARA USE32 PUBLIC 'CODE'
_TEXT	ENDS
;	COMDAT ??_H@YGXPAXIHP6EPAX0@Z@Z
_TEXT	SEGMENT PARA USE32 PUBLIC 'CODE'
_TEXT	ENDS
;	COMDAT ??1CTerrainPatch@@QAE@XZ
_TEXT	SEGMENT PARA USE32 PUBLIC 'CODE'
_TEXT	ENDS
;	COMDAT ??_GCProceduralRenderObject@@QAEPAXI@Z
_TEXT	SEGMENT PARA USE32 PUBLIC 'CODE'
_TEXT	ENDS
;	COMDAT ?QueryMemUsage@CTerrainPatch@@QAEKXZ
_TEXT	SEGMENT PARA USE32 PUBLIC 'CODE'
_TEXT	ENDS
;	COMDAT ?CreateFastPatch@CTerrainPatch@@QAEJHPAUD3DXVECTOR3@@MMPAVCProceduralRenderObject@@PAMPAUD3DXCOLOR@@KKMMH0HH@Z
_TEXT	SEGMENT PARA USE32 PUBLIC 'CODE'
_TEXT	ENDS
;	COMDAT ?AddVertex@CTerrainPatch@@QAEXPAVCProceduralRenderObject@@HMMMMMMMMM@Z
_TEXT	SEGMENT PARA USE32 PUBLIC 'CODE'
_TEXT	ENDS
;	COMDAT ?AddFaceNormalData@CTerrainPatch@@QAEXPAVCProceduralRenderObject@@HHH@Z
_TEXT	SEGMENT PARA USE32 PUBLIC 'CODE'
_TEXT	ENDS
;	COMDAT ?RestoreDeviceObjects@CTerrainPatch@@QAEJPAUIDirect3D8@@PAUIDirect3DDevice8@@@Z
_TEXT	SEGMENT PARA USE32 PUBLIC 'CODE'
_TEXT	ENDS
;	COMDAT ?InvalidateDeviceObjects@CTerrainPatch@@QAEJXZ
_TEXT	SEGMENT PARA USE32 PUBLIC 'CODE'
_TEXT	ENDS
;	COMDAT ?Render@CTerrainPatch@@QAEJPAUIDirect3DDevice8@@PAVCTextures@@PAKHHHHHPAUD3DXMATRIX@@@Z
_TEXT	SEGMENT PARA USE32 PUBLIC 'CODE'
_TEXT	ENDS
;	COMDAT ?FrameMove@CTerrainPatch@@QAEJPAUIDirect3DDevice8@@PAVCUserInput@@M@Z
_TEXT	SEGMENT PARA USE32 PUBLIC 'CODE'
_TEXT	ENDS
;	COMDAT ?__LINE__Var@?1??CreateFastPatch@CTerrainPatch@@QAEJHPAUD3DXVECTOR3@@MMPAVCProceduralRenderObject@@PAMPAUD3DXCOLOR@@KKMMH0HH@Z@4JA
_DATA	SEGMENT DWORD USE32 PUBLIC 'DATA'
_DATA	ENDS
;	COMDAT ?__LINE__Var@?1???0CTerrainPatch@@QAE@HPAUD3DXVECTOR3@@MMPAMPAUD3DXCOLOR@@KKMM0MMMMMMHH@Z@4JA
_DATA	SEGMENT DWORD USE32 PUBLIC 'DATA'
_DATA	ENDS
FLAT	GROUP _DATA, CONST, _BSS
	ASSUME	CS: FLAT, DS: FLAT, SS: FLAT
endif

INCLUDELIB LIBCMTD
INCLUDELIB OLDNAMES

PUBLIC	??_H@YGXPAXIHP6EPAX0@Z@Z			; `vector constructor iterator'
PUBLIC	??0GAMEITEM@@QAE@XZ				; GAMEITEM::GAMEITEM
PUBLIC	??0CTerrainPatch@@QAE@HPAUD3DXVECTOR3@@MMPAMPAUD3DXCOLOR@@KKMM0MMMMMMHH@Z ; CTerrainPatch::CTerrainPatch
PUBLIC	?CreateFastPatch@CTerrainPatch@@QAEJHPAUD3DXVECTOR3@@MMPAVCProceduralRenderObject@@PAMPAUD3DXCOLOR@@KKMMH0HH@Z ; CTerrainPatch::CreateFastPatch
PUBLIC	?__LINE__Var@?1???0CTerrainPatch@@QAE@HPAUD3DXVECTOR3@@MMPAMPAUD3DXCOLOR@@KKMM0MMMMMMHH@Z@4JA ; `CTerrainPatch::CTerrainPatch'::`2'::__LINE__Var
PUBLIC	??_C@_0EP@CNFCBLDK@c?3?2documents?5and?5settings?2dom?2my@ ; `string'
PUBLIC	??_C@_08LIFENEDP@m_pItems?$AA@			; `string'
PUBLIC	??_C@_0M@EANPALGG@m_pPatchLOD?$AA@		; `string'
PUBLIC	??_C@_0P@ONNNPKEJ@m_pPatchLOD?$FLi?$FN?$AA@	; `string'
EXTRN	??2@YAPAXI@Z:NEAR				; operator new
EXTRN	__assert:NEAR
EXTRN	__RTC_InitBase:NEAR
EXTRN	__RTC_Shutdown:NEAR
EXTRN	__ftol2:NEAR
EXTRN	__RTC_CheckEsp:NEAR
EXTRN	__fltused:NEAR
EXTRN	??0CProceduralRenderObject@@QAE@XZ:NEAR		; CProceduralRenderObject::CProceduralRenderObject
EXTRN	?Pow2@@YAHH@Z:NEAR				; Pow2
EXTRN	_ceil:NEAR
;	COMDAT rtc$IMZ
; File c:\documents and settings\dom\my documents\_dev\ae\xlr8a\x7g\cterrainpatch.cpp
rtc$IMZ	SEGMENT
__RTC_InitBase.rtc$IMZ DD FLAT:__RTC_InitBase
rtc$IMZ	ENDS
;	COMDAT rtc$TMZ
rtc$TMZ	SEGMENT
__RTC_Shutdown.rtc$TMZ DD FLAT:__RTC_Shutdown
rtc$TMZ	ENDS
;	COMDAT ?__LINE__Var@?1???0CTerrainPatch@@QAE@HPAUD3DXVECTOR3@@MMPAMPAUD3DXCOLOR@@KKMM0MMMMMMHH@Z@4JA
_DATA	SEGMENT
?__LINE__Var@?1???0CTerrainPatch@@QAE@HPAUD3DXVECTOR3@@MMPAMPAUD3DXCOLOR@@KKMM0MMMMMMHH@Z@4JA DD 045H ; `CTerrainPatch::CTerrainPatch'::`2'::__LINE__Var
_DATA	ENDS
;	COMDAT ??_C@_0EP@CNFCBLDK@c?3?2documents?5and?5settings?2dom?2my@
CONST	SEGMENT
??_C@_0EP@CNFCBLDK@c?3?2documents?5and?5settings?2dom?2my@ DB 'c:\documen'
	DB	'ts and settings\dom\my documents\_dev\ae\xlr8a\x7g\cterrainpa'
	DB	'tch.cpp', 00H				; `string'
CONST	ENDS
;	COMDAT ??_C@_08LIFENEDP@m_pItems?$AA@
CONST	SEGMENT
??_C@_08LIFENEDP@m_pItems?$AA@ DB 'm_pItems', 00H	; `string'
CONST	ENDS
;	COMDAT ??_C@_0M@EANPALGG@m_pPatchLOD?$AA@
CONST	SEGMENT
??_C@_0M@EANPALGG@m_pPatchLOD?$AA@ DB 'm_pPatchLOD', 00H ; `string'
CONST	ENDS
;	COMDAT ??_C@_0P@ONNNPKEJ@m_pPatchLOD?$FLi?$FN?$AA@
CONST	SEGMENT
??_C@_0P@ONNNPKEJ@m_pPatchLOD?$FLi?$FN?$AA@ DB 'm_pPatchLOD[i]', 00H ; `string'
; Function compile flags: /Odt /RTCsu /ZI
CONST	ENDS
;	COMDAT ??0CTerrainPatch@@QAE@HPAUD3DXVECTOR3@@MMPAMPAUD3DXCOLOR@@KKMM0MMMMMMHH@Z
_TEXT	SEGMENT
tv336 = -280
tv328 = -280
tv320 = -280
tv312 = -280
tv304 = -280
tv212 = -280
tv178 = -280
$T86345 = -272
$T86343 = -260
$T86339 = -248
$T86338 = -236
_i$85662 = -32
_nCurLODPatchSQ$ = -20
_this$ = -8
_nPatchMaxLODSQ$ = 8
_pvTL$ = 12
_fWidth$ = 16
_fDepth$ = 20
_pfHeightmap$ = 24
_pColormap$ = 28
_ulNextRowHeightmapDelta$ = 32
_ulMaxExtent$ = 36
_fMinY$ = 40
_fMaxY$ = 44
_pvSpawnPos$ = 48
_fTerrainLenSQ$ = 52
_fCherriesReq$ = 56
_fShieldPwrUpsReq$ = 60
_fEnginePwrUpsReq$ = 64
_fWeaponPwrUpsReq$ = 68
_fHealthPwrUpsReq$ = 72
_nTex1$ = 76
_nTex2$ = 80
??0CTerrainPatch@@QAE@HPAUD3DXVECTOR3@@MMPAMPAUD3DXCOLOR@@KKMM0MMMMMMHH@Z PROC NEAR ; CTerrainPatch::CTerrainPatch, COMDAT
; _this$ = ecx

; 69   : 	{

  00000	55		 push	 ebp
  00001	8b ec		 mov	 ebp, esp
  00003	81 ec 18 01 00
	00		 sub	 esp, 280		; 00000118H
  00009	53		 push	 ebx
  0000a	56		 push	 esi
  0000b	57		 push	 edi
  0000c	51		 push	 ecx
  0000d	8d bd e8 fe ff
	ff		 lea	 edi, DWORD PTR [ebp-280]
  00013	b9 46 00 00 00	 mov	 ecx, 70			; 00000046H
  00018	b8 cc cc cc cc	 mov	 eax, -858993460		; ccccccccH
  0001d	f3 ab		 rep stosd
  0001f	59		 pop	 ecx
  00020	89 4d f8	 mov	 DWORD PTR _this$[ebp], ecx

; 70   : 		int nCurLODPatchSQ ;
; 71   : 
; 72   : 	//
; 73   : 	// Memory Usage Monitor:
; 74   : 	//
; 75   : 		m_dwMem = sizeof(CTerrainPatch) ;

  00023	8b 45 f8	 mov	 eax, DWORD PTR _this$[ebp]
  00026	c7 40 5c 68 00
	00 00		 mov	 DWORD PTR [eax+92], 104	; 00000068H

; 76   : 		m_dwTotalNumVertices = 0 ;

  0002d	8b 45 f8	 mov	 eax, DWORD PTR _this$[ebp]
  00030	c7 40 60 00 00
	00 00		 mov	 DWORD PTR [eax+96], 0

; 77   : 		m_dwTotalNumIndices = 0 ;

  00037	8b 45 f8	 mov	 eax, DWORD PTR _this$[ebp]
  0003a	c7 40 64 00 00
	00 00		 mov	 DWORD PTR [eax+100], 0

; 78   : 
; 79   : 	//
; 80   : 	// Basic Parameters:
; 81   : 	//
; 82   : 		m_nPatchMaxLODSQ = nPatchMaxLODSQ ;

  00041	8b 45 f8	 mov	 eax, DWORD PTR _this$[ebp]
  00044	8b 4d 08	 mov	 ecx, DWORD PTR _nPatchMaxLODSQ$[ebp]
  00047	89 08		 mov	 DWORD PTR [eax], ecx

; 83   : 		m_nPatchMaxLODLevels = Pow2( m_nPatchMaxLODSQ ) - 1 ;

  00049	8b 45 f8	 mov	 eax, DWORD PTR _this$[ebp]
  0004c	8b 08		 mov	 ecx, DWORD PTR [eax]
  0004e	51		 push	 ecx
  0004f	e8 00 00 00 00	 call	 ?Pow2@@YAHH@Z		; Pow2
  00054	83 c4 04	 add	 esp, 4
  00057	83 e8 01	 sub	 eax, 1
  0005a	8b 55 f8	 mov	 edx, DWORD PTR _this$[ebp]
  0005d	89 42 04	 mov	 DWORD PTR [edx+4], eax

; 84   : 		nCurLODPatchSQ = m_nPatchMaxLODSQ ;

  00060	8b 45 f8	 mov	 eax, DWORD PTR _this$[ebp]
  00063	8b 08		 mov	 ecx, DWORD PTR [eax]
  00065	89 4d ec	 mov	 DWORD PTR _nCurLODPatchSQ$[ebp], ecx

; 85   : 		m_fTerrainLenSQ = fTerrainLenSQ ;

  00068	8b 45 f8	 mov	 eax, DWORD PTR _this$[ebp]
  0006b	8b 4d 34	 mov	 ecx, DWORD PTR _fTerrainLenSQ$[ebp]
  0006e	89 48 08	 mov	 DWORD PTR [eax+8], ecx

; 86   : 
; 87   : 	//
; 88   : 	// Items:
; 89   : 	//
; 90   : 		m_pItems = NULL ;

  00071	8b 45 f8	 mov	 eax, DWORD PTR _this$[ebp]
  00074	c7 40 0c 00 00
	00 00		 mov	 DWORD PTR [eax+12], 0

; 91   : 		m_nItems = 0 ;

  0007b	8b 45 f8	 mov	 eax, DWORD PTR _this$[ebp]
  0007e	c7 40 10 00 00
	00 00		 mov	 DWORD PTR [eax+16], 0

; 92   : 
; 93   : 		m_nCherries = 0 ;

  00085	8b 45 f8	 mov	 eax, DWORD PTR _this$[ebp]
  00088	c7 40 1c 00 00
	00 00		 mov	 DWORD PTR [eax+28], 0

; 94   : 		m_fCherriesReq = fCherriesReq ;

  0008f	8b 45 f8	 mov	 eax, DWORD PTR _this$[ebp]
  00092	8b 4d 38	 mov	 ecx, DWORD PTR _fCherriesReq$[ebp]
  00095	89 48 20	 mov	 DWORD PTR [eax+32], ecx

; 95   : 		m_fCherryProb = m_fCherriesReq / (float)((m_nPatchMaxLODSQ-2) * (m_nPatchMaxLODSQ-2)) ;

  00098	8b 45 f8	 mov	 eax, DWORD PTR _this$[ebp]
  0009b	8b 08		 mov	 ecx, DWORD PTR [eax]
  0009d	83 e9 02	 sub	 ecx, 2
  000a0	8b 55 f8	 mov	 edx, DWORD PTR _this$[ebp]
  000a3	8b 02		 mov	 eax, DWORD PTR [edx]
  000a5	83 e8 02	 sub	 eax, 2
  000a8	0f af c8	 imul	 ecx, eax
  000ab	89 8d e8 fe ff
	ff		 mov	 DWORD PTR tv304[ebp], ecx
  000b1	db 85 e8 fe ff
	ff		 fild	 DWORD PTR tv304[ebp]
  000b7	8b 4d f8	 mov	 ecx, DWORD PTR _this$[ebp]
  000ba	d8 79 20	 fdivr	 DWORD PTR [ecx+32]
  000bd	8b 55 f8	 mov	 edx, DWORD PTR _this$[ebp]
  000c0	d9 5a 24	 fstp	 DWORD PTR [edx+36]

; 96   : 		
; 97   : 		m_nShieldPwrUps = 0 ;

  000c3	8b 45 f8	 mov	 eax, DWORD PTR _this$[ebp]
  000c6	c7 40 28 00 00
	00 00		 mov	 DWORD PTR [eax+40], 0

; 98   : 		m_fShieldPwrUpsReq = fShieldPwrUpsReq ;

  000cd	8b 45 f8	 mov	 eax, DWORD PTR _this$[ebp]
  000d0	8b 4d 3c	 mov	 ecx, DWORD PTR _fShieldPwrUpsReq$[ebp]
  000d3	89 48 2c	 mov	 DWORD PTR [eax+44], ecx

; 99   : 		m_fShieldPwrUpProb = m_fShieldPwrUpsReq / (float)((m_nPatchMaxLODSQ-2) * (m_nPatchMaxLODSQ-2)) ;

  000d6	8b 45 f8	 mov	 eax, DWORD PTR _this$[ebp]
  000d9	8b 08		 mov	 ecx, DWORD PTR [eax]
  000db	83 e9 02	 sub	 ecx, 2
  000de	8b 55 f8	 mov	 edx, DWORD PTR _this$[ebp]
  000e1	8b 02		 mov	 eax, DWORD PTR [edx]
  000e3	83 e8 02	 sub	 eax, 2
  000e6	0f af c8	 imul	 ecx, eax
  000e9	89 8d e8 fe ff
	ff		 mov	 DWORD PTR tv312[ebp], ecx
  000ef	db 85 e8 fe ff
	ff		 fild	 DWORD PTR tv312[ebp]
  000f5	8b 4d f8	 mov	 ecx, DWORD PTR _this$[ebp]
  000f8	d8 79 2c	 fdivr	 DWORD PTR [ecx+44]
  000fb	8b 55 f8	 mov	 edx, DWORD PTR _this$[ebp]
  000fe	d9 5a 30	 fstp	 DWORD PTR [edx+48]

; 100  : 
; 101  : 		m_nEnginePwrUps = 0 ;

  00101	8b 45 f8	 mov	 eax, DWORD PTR _this$[ebp]
  00104	c7 40 34 00 00
	00 00		 mov	 DWORD PTR [eax+52], 0

; 102  : 		m_fEnginePwrUpsReq = fEnginePwrUpsReq ;

  0010b	8b 45 f8	 mov	 eax, DWORD PTR _this$[ebp]
  0010e	8b 4d 40	 mov	 ecx, DWORD PTR _fEnginePwrUpsReq$[ebp]
  00111	89 48 38	 mov	 DWORD PTR [eax+56], ecx

; 103  : 		m_fEnginePwrUpProb = m_fEnginePwrUpsReq / (float)((m_nPatchMaxLODSQ-2) * (m_nPatchMaxLODSQ-2)) ;

  00114	8b 45 f8	 mov	 eax, DWORD PTR _this$[ebp]
  00117	8b 08		 mov	 ecx, DWORD PTR [eax]
  00119	83 e9 02	 sub	 ecx, 2
  0011c	8b 55 f8	 mov	 edx, DWORD PTR _this$[ebp]
  0011f	8b 02		 mov	 eax, DWORD PTR [edx]
  00121	83 e8 02	 sub	 eax, 2
  00124	0f af c8	 imul	 ecx, eax
  00127	89 8d e8 fe ff
	ff		 mov	 DWORD PTR tv320[ebp], ecx
  0012d	db 85 e8 fe ff
	ff		 fild	 DWORD PTR tv320[ebp]
  00133	8b 4d f8	 mov	 ecx, DWORD PTR _this$[ebp]
  00136	d8 79 38	 fdivr	 DWORD PTR [ecx+56]
  00139	8b 55 f8	 mov	 edx, DWORD PTR _this$[ebp]
  0013c	d9 5a 3c	 fstp	 DWORD PTR [edx+60]

; 104  : 
; 105  : 		m_nWeaponPwrUps = 0 ;

  0013f	8b 45 f8	 mov	 eax, DWORD PTR _this$[ebp]
  00142	c7 40 40 00 00
	00 00		 mov	 DWORD PTR [eax+64], 0

; 106  : 		m_fWeaponPwrUpsReq = fWeaponPwrUpsReq ;

  00149	8b 45 f8	 mov	 eax, DWORD PTR _this$[ebp]
  0014c	8b 4d 44	 mov	 ecx, DWORD PTR _fWeaponPwrUpsReq$[ebp]
  0014f	89 48 44	 mov	 DWORD PTR [eax+68], ecx

; 107  : 		m_fWeaponPwrUpProb = m_fWeaponPwrUpsReq / (float)((m_nPatchMaxLODSQ-2) * (m_nPatchMaxLODSQ-2)) ;

  00152	8b 45 f8	 mov	 eax, DWORD PTR _this$[ebp]
  00155	8b 08		 mov	 ecx, DWORD PTR [eax]
  00157	83 e9 02	 sub	 ecx, 2
  0015a	8b 55 f8	 mov	 edx, DWORD PTR _this$[ebp]
  0015d	8b 02		 mov	 eax, DWORD PTR [edx]
  0015f	83 e8 02	 sub	 eax, 2
  00162	0f af c8	 imul	 ecx, eax
  00165	89 8d e8 fe ff
	ff		 mov	 DWORD PTR tv328[ebp], ecx
  0016b	db 85 e8 fe ff
	ff		 fild	 DWORD PTR tv328[ebp]
  00171	8b 4d f8	 mov	 ecx, DWORD PTR _this$[ebp]
  00174	d8 79 44	 fdivr	 DWORD PTR [ecx+68]
  00177	8b 55 f8	 mov	 edx, DWORD PTR _this$[ebp]
  0017a	d9 5a 48	 fstp	 DWORD PTR [edx+72]

; 108  : 
; 109  : 		m_nHealthPwrUps = 0 ;

  0017d	8b 45 f8	 mov	 eax, DWORD PTR _this$[ebp]
  00180	c7 40 4c 00 00
	00 00		 mov	 DWORD PTR [eax+76], 0

; 110  : 		m_fHealthPwrUpsReq = fHealthPwrUpsReq ;

  00187	8b 45 f8	 mov	 eax, DWORD PTR _this$[ebp]
  0018a	8b 4d 48	 mov	 ecx, DWORD PTR _fHealthPwrUpsReq$[ebp]
  0018d	89 48 50	 mov	 DWORD PTR [eax+80], ecx

; 111  : 		m_fHealthPwrUpProb = m_fHealthPwrUpsReq / (float)((m_nPatchMaxLODSQ-2) * (m_nPatchMaxLODSQ-2)) ;

  00190	8b 45 f8	 mov	 eax, DWORD PTR _this$[ebp]
  00193	8b 08		 mov	 ecx, DWORD PTR [eax]
  00195	83 e9 02	 sub	 ecx, 2
  00198	8b 55 f8	 mov	 edx, DWORD PTR _this$[ebp]
  0019b	8b 02		 mov	 eax, DWORD PTR [edx]
  0019d	83 e8 02	 sub	 eax, 2
  001a0	0f af c8	 imul	 ecx, eax
  001a3	89 8d e8 fe ff
	ff		 mov	 DWORD PTR tv336[ebp], ecx
  001a9	db 85 e8 fe ff
	ff		 fild	 DWORD PTR tv336[ebp]
  001af	8b 4d f8	 mov	 ecx, DWORD PTR _this$[ebp]
  001b2	d8 79 50	 fdivr	 DWORD PTR [ecx+80]
  001b5	8b 55 f8	 mov	 edx, DWORD PTR _this$[ebp]
  001b8	d9 5a 54	 fstp	 DWORD PTR [edx+84]

; 112  : 
; 113  : 		m_fItemsReq = m_fCherriesReq +
; 114  : 					  m_fShieldPwrUpsReq + 
; 115  : 					  m_fEnginePwrUpsReq + 
; 116  : 					  m_fWeaponPwrUpsReq +
; 117  : 					  m_fHealthPwrUpsReq ;

  001bb	8b 45 f8	 mov	 eax, DWORD PTR _this$[ebp]
  001be	8b 4d f8	 mov	 ecx, DWORD PTR _this$[ebp]
  001c1	d9 40 20	 fld	 DWORD PTR [eax+32]
  001c4	d8 41 2c	 fadd	 DWORD PTR [ecx+44]
  001c7	8b 55 f8	 mov	 edx, DWORD PTR _this$[ebp]
  001ca	d8 42 38	 fadd	 DWORD PTR [edx+56]
  001cd	8b 45 f8	 mov	 eax, DWORD PTR _this$[ebp]
  001d0	d8 40 44	 fadd	 DWORD PTR [eax+68]
  001d3	8b 4d f8	 mov	 ecx, DWORD PTR _this$[ebp]
  001d6	d8 41 50	 fadd	 DWORD PTR [ecx+80]
  001d9	8b 55 f8	 mov	 edx, DWORD PTR _this$[ebp]
  001dc	d9 5a 14	 fstp	 DWORD PTR [edx+20]

; 118  : 
; 119  : 		m_nItemsActuallyAllocated = (int)ceil( m_fItemsReq ) + 10 ;	//KLUDGE: +10

  001df	8b 45 f8	 mov	 eax, DWORD PTR _this$[ebp]
  001e2	d9 40 14	 fld	 DWORD PTR [eax+20]
  001e5	83 ec 08	 sub	 esp, 8
  001e8	dd 1c 24	 fstp	 QWORD PTR [esp]
  001eb	e8 00 00 00 00	 call	 _ceil
  001f0	83 c4 08	 add	 esp, 8
  001f3	e8 00 00 00 00	 call	 __ftol2
  001f8	83 c0 0a	 add	 eax, 10			; 0000000aH
  001fb	8b 4d f8	 mov	 ecx, DWORD PTR _this$[ebp]
  001fe	89 41 18	 mov	 DWORD PTR [ecx+24], eax

; 120  : 		m_pItems = new GAMEITEM[ m_nItemsActuallyAllocated ];

  00201	8b 45 f8	 mov	 eax, DWORD PTR _this$[ebp]
  00204	8b 48 18	 mov	 ecx, DWORD PTR [eax+24]
  00207	89 8d 14 ff ff
	ff		 mov	 DWORD PTR $T86338[ebp], ecx
  0020d	8b 95 14 ff ff
	ff		 mov	 edx, DWORD PTR $T86338[ebp]
  00213	6b d2 2c	 imul	 edx, 44			; 0000002cH
  00216	52		 push	 edx
  00217	e8 00 00 00 00	 call	 ??2@YAPAXI@Z		; operator new
  0021c	83 c4 04	 add	 esp, 4
  0021f	89 85 08 ff ff
	ff		 mov	 DWORD PTR $T86339[ebp], eax
  00225	83 bd 08 ff ff
	ff 00		 cmp	 DWORD PTR $T86339[ebp], 0
  0022c	74 28		 je	 SHORT $L86340
  0022e	68 00 00 00 00	 push	 OFFSET FLAT:??0GAMEITEM@@QAE@XZ
  00233	8b 85 14 ff ff
	ff		 mov	 eax, DWORD PTR $T86338[ebp]
  00239	50		 push	 eax
  0023a	6a 2c		 push	 44			; 0000002cH
  0023c	8b 8d 08 ff ff
	ff		 mov	 ecx, DWORD PTR $T86339[ebp]
  00242	51		 push	 ecx
  00243	e8 00 00 00 00	 call	 ??_H@YGXPAXIHP6EPAX0@Z@Z
  00248	8b 95 08 ff ff
	ff		 mov	 edx, DWORD PTR $T86339[ebp]
  0024e	89 95 e8 fe ff
	ff		 mov	 DWORD PTR tv178[ebp], edx
  00254	eb 0a		 jmp	 SHORT $L86341
$L86340:
  00256	c7 85 e8 fe ff
	ff 00 00 00 00	 mov	 DWORD PTR tv178[ebp], 0
$L86341:
  00260	8b 45 f8	 mov	 eax, DWORD PTR _this$[ebp]
  00263	8b 8d e8 fe ff
	ff		 mov	 ecx, DWORD PTR tv178[ebp]
  00269	89 48 0c	 mov	 DWORD PTR [eax+12], ecx

; 121  : 		assert( m_pItems );

  0026c	8b 45 f8	 mov	 eax, DWORD PTR _this$[ebp]
  0026f	83 78 0c 00	 cmp	 DWORD PTR [eax+12], 0
  00273	75 1c		 jne	 SHORT $L86342
  00275	8b 0d 00 00 00
	00		 mov	 ecx, DWORD PTR ?__LINE__Var@?1???0CTerrainPatch@@QAE@HPAUD3DXVECTOR3@@MMPAMPAUD3DXCOLOR@@KKMM0MMMMMMHH@Z@4JA
  0027b	83 c1 34	 add	 ecx, 52			; 00000034H
  0027e	51		 push	 ecx
  0027f	68 00 00 00 00	 push	 OFFSET FLAT:??_C@_0EP@CNFCBLDK@c?3?2documents?5and?5settings?2dom?2my@
  00284	68 00 00 00 00	 push	 OFFSET FLAT:??_C@_08LIFENEDP@m_pItems?$AA@
  00289	e8 00 00 00 00	 call	 __assert
  0028e	83 c4 0c	 add	 esp, 12			; 0000000cH
$L86342:

; 122  : 	
; 123  : 	//
; 124  : 	// Allocate dynamic memory array:
; 125  : 	// 
; 126  : 		m_pPatchLOD = new CProceduralRenderObject*[ m_nPatchMaxLODLevels ];

  00291	8b 45 f8	 mov	 eax, DWORD PTR _this$[ebp]
  00294	8b 48 04	 mov	 ecx, DWORD PTR [eax+4]
  00297	c1 e1 02	 shl	 ecx, 2
  0029a	51		 push	 ecx
  0029b	e8 00 00 00 00	 call	 ??2@YAPAXI@Z		; operator new
  002a0	83 c4 04	 add	 esp, 4
  002a3	89 85 fc fe ff
	ff		 mov	 DWORD PTR $T86343[ebp], eax
  002a9	8b 55 f8	 mov	 edx, DWORD PTR _this$[ebp]
  002ac	8b 85 fc fe ff
	ff		 mov	 eax, DWORD PTR $T86343[ebp]
  002b2	89 42 58	 mov	 DWORD PTR [edx+88], eax

; 127  : 		assert( m_pPatchLOD );

  002b5	8b 45 f8	 mov	 eax, DWORD PTR _this$[ebp]
  002b8	83 78 58 00	 cmp	 DWORD PTR [eax+88], 0
  002bc	75 1c		 jne	 SHORT $L86344
  002be	8b 0d 00 00 00
	00		 mov	 ecx, DWORD PTR ?__LINE__Var@?1???0CTerrainPatch@@QAE@HPAUD3DXVECTOR3@@MMPAMPAUD3DXCOLOR@@KKMM0MMMMMMHH@Z@4JA
  002c4	83 c1 3a	 add	 ecx, 58			; 0000003aH
  002c7	51		 push	 ecx
  002c8	68 00 00 00 00	 push	 OFFSET FLAT:??_C@_0EP@CNFCBLDK@c?3?2documents?5and?5settings?2dom?2my@
  002cd	68 00 00 00 00	 push	 OFFSET FLAT:??_C@_0M@EANPALGG@m_pPatchLOD?$AA@
  002d2	e8 00 00 00 00	 call	 __assert
  002d7	83 c4 0c	 add	 esp, 12			; 0000000cH
$L86344:

; 128  : 
; 129  : 	//
; 130  : 	// Create all LODs for this patch:
; 131  : 	//
; 132  : 		for (int i = 0 ; i < m_nPatchMaxLODLevels ; i ++)

  002da	c7 45 e0 00 00
	00 00		 mov	 DWORD PTR _i$85662[ebp], 0
  002e1	eb 09		 jmp	 SHORT $L85663
$L85664:
  002e3	8b 45 e0	 mov	 eax, DWORD PTR _i$85662[ebp]
  002e6	83 c0 01	 add	 eax, 1
  002e9	89 45 e0	 mov	 DWORD PTR _i$85662[ebp], eax
$L85663:
  002ec	8b 45 f8	 mov	 eax, DWORD PTR _this$[ebp]
  002ef	8b 4d e0	 mov	 ecx, DWORD PTR _i$85662[ebp]
  002f2	3b 48 04	 cmp	 ecx, DWORD PTR [eax+4]
  002f5	0f 8d 40 01 00
	00		 jge	 $L85641

; 133  : 		{
; 134  : 		// create a new render object:
; 135  : 			m_pPatchLOD[i] = NULL ;

  002fb	8b 45 f8	 mov	 eax, DWORD PTR _this$[ebp]
  002fe	8b 48 58	 mov	 ecx, DWORD PTR [eax+88]
  00301	8b 55 e0	 mov	 edx, DWORD PTR _i$85662[ebp]
  00304	c7 04 91 00 00
	00 00		 mov	 DWORD PTR [ecx+edx*4], 0

; 136  : 			m_pPatchLOD[i] = new CProceduralRenderObject ;

  0030b	68 b8 0a 00 00	 push	 2744			; 00000ab8H
  00310	e8 00 00 00 00	 call	 ??2@YAPAXI@Z		; operator new
  00315	83 c4 04	 add	 esp, 4
  00318	89 85 f0 fe ff
	ff		 mov	 DWORD PTR $T86345[ebp], eax
  0031e	83 bd f0 fe ff
	ff 00		 cmp	 DWORD PTR $T86345[ebp], 0
  00325	74 13		 je	 SHORT $L86346
  00327	8b 8d f0 fe ff
	ff		 mov	 ecx, DWORD PTR $T86345[ebp]
  0032d	e8 00 00 00 00	 call	 ??0CProceduralRenderObject@@QAE@XZ ; CProceduralRenderObject::CProceduralRenderObject
  00332	89 85 e8 fe ff
	ff		 mov	 DWORD PTR tv212[ebp], eax
  00338	eb 0a		 jmp	 SHORT $L86347
$L86346:
  0033a	c7 85 e8 fe ff
	ff 00 00 00 00	 mov	 DWORD PTR tv212[ebp], 0
$L86347:
  00344	8b 45 f8	 mov	 eax, DWORD PTR _this$[ebp]
  00347	8b 48 58	 mov	 ecx, DWORD PTR [eax+88]
  0034a	8b 55 e0	 mov	 edx, DWORD PTR _i$85662[ebp]
  0034d	8b 85 e8 fe ff
	ff		 mov	 eax, DWORD PTR tv212[ebp]
  00353	89 04 91	 mov	 DWORD PTR [ecx+edx*4], eax

; 137  : 			assert( m_pPatchLOD[i] );

  00356	8b 45 f8	 mov	 eax, DWORD PTR _this$[ebp]
  00359	8b 48 58	 mov	 ecx, DWORD PTR [eax+88]
  0035c	8b 55 e0	 mov	 edx, DWORD PTR _i$85662[ebp]
  0035f	83 3c 91 00	 cmp	 DWORD PTR [ecx+edx*4], 0
  00363	75 1b		 jne	 SHORT $L86348
  00365	a1 00 00 00 00	 mov	 eax, DWORD PTR ?__LINE__Var@?1???0CTerrainPatch@@QAE@HPAUD3DXVECTOR3@@MMPAMPAUD3DXCOLOR@@KKMM0MMMMMMHH@Z@4JA
  0036a	83 c0 44	 add	 eax, 68			; 00000044H
  0036d	50		 push	 eax
  0036e	68 00 00 00 00	 push	 OFFSET FLAT:??_C@_0EP@CNFCBLDK@c?3?2documents?5and?5settings?2dom?2my@
  00373	68 00 00 00 00	 push	 OFFSET FLAT:??_C@_0P@ONNNPKEJ@m_pPatchLOD?$FLi?$FN?$AA@
  00378	e8 00 00 00 00	 call	 __assert
  0037d	83 c4 0c	 add	 esp, 12			; 0000000cH
$L86348:

; 138  : 			m_pPatchLOD[i]->m_dwFVF = MYFVF_COLOREDVERTEXWITHNORMAL/*2TEX*/ ;

  00380	8b 45 f8	 mov	 eax, DWORD PTR _this$[ebp]
  00383	8b 48 58	 mov	 ecx, DWORD PTR [eax+88]
  00386	8b 55 e0	 mov	 edx, DWORD PTR _i$85662[ebp]
  00389	8b 04 91	 mov	 eax, DWORD PTR [ecx+edx*4]
  0038c	c7 00 d2 01 00
	00		 mov	 DWORD PTR [eax], 466	; 000001d2H

; 139  : 			m_pPatchLOD[i]->m_nRSs = 1 ;

  00392	8b 45 f8	 mov	 eax, DWORD PTR _this$[ebp]
  00395	8b 48 58	 mov	 ecx, DWORD PTR [eax+88]
  00398	8b 55 e0	 mov	 edx, DWORD PTR _i$85662[ebp]
  0039b	8b 04 91	 mov	 eax, DWORD PTR [ecx+edx*4]
  0039e	c7 80 48 0a 00
	00 01 00 00 00	 mov	 DWORD PTR [eax+2632], 1

; 140  : 			m_pPatchLOD[i]->m_bUseD3DXMesh = FALSE ;

  003a8	8b 45 f8	 mov	 eax, DWORD PTR _this$[ebp]
  003ab	8b 48 58	 mov	 ecx, DWORD PTR [eax+88]
  003ae	8b 55 e0	 mov	 edx, DWORD PTR _i$85662[ebp]
  003b1	8b 04 91	 mov	 eax, DWORD PTR [ecx+edx*4]
  003b4	c7 80 54 0a 00
	00 00 00 00 00	 mov	 DWORD PTR [eax+2644], 0

; 141  : 			m_pPatchLOD[i]->m_bUse32bitIndexesIfAvailable = true ;

  003be	8b 45 f8	 mov	 eax, DWORD PTR _this$[ebp]
  003c1	8b 48 58	 mov	 ecx, DWORD PTR [eax+88]
  003c4	8b 55 e0	 mov	 edx, DWORD PTR _i$85662[ebp]
  003c7	8b 04 91	 mov	 eax, DWORD PTR [ecx+edx*4]
  003ca	c6 40 04 01	 mov	 BYTE PTR [eax+4], 1

; 142  : 
; 143  : 		// make patch without using X7LTs layer:
; 144  : 			CreateFastPatch(
; 145  : 							nCurLODPatchSQ,
; 146  : 							pvTL,
; 147  : 							fWidth,
; 148  : 							fDepth,
; 149  : 							m_pPatchLOD[i],
; 150  : 							pfHeightmap,
; 151  : 							pColormap,
; 152  : 							ulNextRowHeightmapDelta,
; 153  : 							ulMaxExtent,
; 154  : 							fMinY,
; 155  : 							fMaxY,
; 156  : 							i > 0,
; 157  : 							(i==0) ? pvSpawnPos : NULL,
; 158  : 							nTex1, nTex2
; 159  : 						   ) ;

  003ce	8b 45 50	 mov	 eax, DWORD PTR _nTex2$[ebp]
  003d1	50		 push	 eax
  003d2	8b 4d 4c	 mov	 ecx, DWORD PTR _nTex1$[ebp]
  003d5	51		 push	 ecx
  003d6	33 d2		 xor	 edx, edx
  003d8	83 7d e0 00	 cmp	 DWORD PTR _i$85662[ebp], 0
  003dc	0f 95 c2	 setne	 dl
  003df	4a		 dec	 edx
  003e0	23 55 30	 and	 edx, DWORD PTR _pvSpawnPos$[ebp]
  003e3	52		 push	 edx
  003e4	33 c0		 xor	 eax, eax
  003e6	83 7d e0 00	 cmp	 DWORD PTR _i$85662[ebp], 0
  003ea	0f 9f c0	 setg	 al
  003ed	50		 push	 eax
  003ee	8b 4d 2c	 mov	 ecx, DWORD PTR _fMaxY$[ebp]
  003f1	51		 push	 ecx
  003f2	8b 55 28	 mov	 edx, DWORD PTR _fMinY$[ebp]
  003f5	52		 push	 edx
  003f6	8b 45 24	 mov	 eax, DWORD PTR _ulMaxExtent$[ebp]
  003f9	50		 push	 eax
  003fa	8b 4d 20	 mov	 ecx, DWORD PTR _ulNextRowHeightmapDelta$[ebp]
  003fd	51		 push	 ecx
  003fe	8b 55 1c	 mov	 edx, DWORD PTR _pColormap$[ebp]
  00401	52		 push	 edx
  00402	8b 45 18	 mov	 eax, DWORD PTR _pfHeightmap$[ebp]
  00405	50		 push	 eax
  00406	8b 4d f8	 mov	 ecx, DWORD PTR _this$[ebp]
  00409	8b 51 58	 mov	 edx, DWORD PTR [ecx+88]
  0040c	8b 45 e0	 mov	 eax, DWORD PTR _i$85662[ebp]
  0040f	8b 0c 82	 mov	 ecx, DWORD PTR [edx+eax*4]
  00412	51		 push	 ecx
  00413	8b 55 14	 mov	 edx, DWORD PTR _fDepth$[ebp]
  00416	52		 push	 edx
  00417	8b 45 10	 mov	 eax, DWORD PTR _fWidth$[ebp]
  0041a	50		 push	 eax
  0041b	8b 4d 0c	 mov	 ecx, DWORD PTR _pvTL$[ebp]
  0041e	51		 push	 ecx
  0041f	8b 55 ec	 mov	 edx, DWORD PTR _nCurLODPatchSQ$[ebp]
  00422	52		 push	 edx
  00423	8b 4d f8	 mov	 ecx, DWORD PTR _this$[ebp]
  00426	e8 00 00 00 00	 call	 ?CreateFastPatch@CTerrainPatch@@QAEJHPAUD3DXVECTOR3@@MMPAVCProceduralRenderObject@@PAMPAUD3DXCOLOR@@KKMMH0HH@Z ; CTerrainPatch::CreateFastPatch

; 160  : 			
; 161  : 			nCurLODPatchSQ /= 2 ;

  0042b	8b 45 ec	 mov	 eax, DWORD PTR _nCurLODPatchSQ$[ebp]
  0042e	99		 cdq
  0042f	2b c2		 sub	 eax, edx
  00431	d1 f8		 sar	 eax, 1
  00433	89 45 ec	 mov	 DWORD PTR _nCurLODPatchSQ$[ebp], eax

; 162  : 		}

  00436	e9 a8 fe ff ff	 jmp	 $L85664
$L85641:

; 163  : 	}

  0043b	8b 45 f8	 mov	 eax, DWORD PTR _this$[ebp]
  0043e	5f		 pop	 edi
  0043f	5e		 pop	 esi
  00440	5b		 pop	 ebx
  00441	81 c4 18 01 00
	00		 add	 esp, 280		; 00000118H
  00447	3b ec		 cmp	 ebp, esp
  00449	e8 00 00 00 00	 call	 __RTC_CheckEsp
  0044e	8b e5		 mov	 esp, ebp
  00450	5d		 pop	 ebp
  00451	c2 4c 00	 ret	 76			; 0000004cH
??0CTerrainPatch@@QAE@HPAUD3DXVECTOR3@@MMPAMPAUD3DXCOLOR@@KKMM0MMMMMMHH@Z ENDP ; CTerrainPatch::CTerrainPatch
_TEXT	ENDS
PUBLIC	??0D3DXVECTOR3@@QAE@XZ				; D3DXVECTOR3::D3DXVECTOR3
; Function compile flags: /Odt /RTCsu /ZI
;	COMDAT ??0GAMEITEM@@QAE@XZ
_TEXT	SEGMENT
_this$ = -8
??0GAMEITEM@@QAE@XZ PROC NEAR				; GAMEITEM::GAMEITEM, COMDAT
; _this$ = ecx
  00000	55		 push	 ebp
  00001	8b ec		 mov	 ebp, esp
  00003	81 ec cc 00 00
	00		 sub	 esp, 204		; 000000ccH
  00009	53		 push	 ebx
  0000a	56		 push	 esi
  0000b	57		 push	 edi
  0000c	51		 push	 ecx
  0000d	8d bd 34 ff ff
	ff		 lea	 edi, DWORD PTR [ebp-204]
  00013	b9 33 00 00 00	 mov	 ecx, 51			; 00000033H
  00018	b8 cc cc cc cc	 mov	 eax, -858993460		; ccccccccH
  0001d	f3 ab		 rep stosd
  0001f	59		 pop	 ecx
  00020	89 4d f8	 mov	 DWORD PTR _this$[ebp], ecx
  00023	8b 4d f8	 mov	 ecx, DWORD PTR _this$[ebp]
  00026	83 c1 04	 add	 ecx, 4
  00029	e8 00 00 00 00	 call	 ??0D3DXVECTOR3@@QAE@XZ	; D3DXVECTOR3::D3DXVECTOR3
  0002e	8b 45 f8	 mov	 eax, DWORD PTR _this$[ebp]
  00031	5f		 pop	 edi
  00032	5e		 pop	 esi
  00033	5b		 pop	 ebx
  00034	81 c4 cc 00 00
	00		 add	 esp, 204		; 000000ccH
  0003a	3b ec		 cmp	 ebp, esp
  0003c	e8 00 00 00 00	 call	 __RTC_CheckEsp
  00041	8b e5		 mov	 esp, ebp
  00043	5d		 pop	 ebp
  00044	c3		 ret	 0
??0GAMEITEM@@QAE@XZ ENDP				; GAMEITEM::GAMEITEM
; Function compile flags: /Odt /RTCsu /ZI
_TEXT	ENDS
;	COMDAT ??_H@YGXPAXIHP6EPAX0@Z@Z
_TEXT	SEGMENT
___t$ = 8
___s$ = 12
___n$ = 16
___f$ = 20
??_H@YGXPAXIHP6EPAX0@Z@Z PROC NEAR			; `vector constructor iterator', COMDAT
  00000	55		 push	 ebp
  00001	8b ec		 mov	 ebp, esp
  00003	81 ec c0 00 00
	00		 sub	 esp, 192		; 000000c0H
  00009	53		 push	 ebx
  0000a	56		 push	 esi
  0000b	57		 push	 edi
  0000c	8d bd 40 ff ff
	ff		 lea	 edi, DWORD PTR [ebp-192]
  00012	b9 30 00 00 00	 mov	 ecx, 48			; 00000030H
  00017	b8 cc cc cc cc	 mov	 eax, -858993460		; ccccccccH
  0001c	f3 ab		 rep stosd
$L85680:
  0001e	8b 45 10	 mov	 eax, DWORD PTR ___n$[ebp]
  00021	83 e8 01	 sub	 eax, 1
  00024	89 45 10	 mov	 DWORD PTR ___n$[ebp], eax
  00027	83 7d 10 00	 cmp	 DWORD PTR ___n$[ebp], 0
  0002b	7c 1a		 jl	 SHORT $L85678
  0002d	8b f4		 mov	 esi, esp
  0002f	8b 4d 08	 mov	 ecx, DWORD PTR ___t$[ebp]
  00032	ff 55 14	 call	 DWORD PTR ___f$[ebp]
  00035	3b f4		 cmp	 esi, esp
  00037	e8 00 00 00 00	 call	 __RTC_CheckEsp
  0003c	8b 45 08	 mov	 eax, DWORD PTR ___t$[ebp]
  0003f	03 45 0c	 add	 eax, DWORD PTR ___s$[ebp]
  00042	89 45 08	 mov	 DWORD PTR ___t$[ebp], eax
  00045	eb d7		 jmp	 SHORT $L85680
$L85678:
  00047	5f		 pop	 edi
  00048	5e		 pop	 esi
  00049	5b		 pop	 ebx
  0004a	81 c4 c0 00 00
	00		 add	 esp, 192		; 000000c0H
  00050	3b ec		 cmp	 ebp, esp
  00052	e8 00 00 00 00	 call	 __RTC_CheckEsp
  00057	8b e5		 mov	 esp, ebp
  00059	5d		 pop	 ebp
  0005a	c2 10 00	 ret	 16			; 00000010H
??_H@YGXPAXIHP6EPAX0@Z@Z ENDP				; `vector constructor iterator'
_TEXT	ENDS
PUBLIC	??_GCProceduralRenderObject@@QAEPAXI@Z		; CProceduralRenderObject::`scalar deleting destructor'
PUBLIC	??1CTerrainPatch@@QAE@XZ			; CTerrainPatch::~CTerrainPatch
EXTRN	??3@YAXPAX@Z:NEAR				; operator delete
; Function compile flags: /Odt /RTCsu /ZI
;	COMDAT ??1CTerrainPatch@@QAE@XZ
_TEXT	SEGMENT
tv78 = -268
$T86371 = -260
$T86370 = -248
$T86367 = -236
$T86366 = -224
_i$85686 = -20
_this$ = -8
??1CTerrainPatch@@QAE@XZ PROC NEAR			; CTerrainPatch::~CTerrainPatch, COMDAT
; _this$ = ecx

; 165  : 	{

  00000	55		 push	 ebp
  00001	8b ec		 mov	 ebp, esp
  00003	81 ec 0c 01 00
	00		 sub	 esp, 268		; 0000010cH
  00009	53		 push	 ebx
  0000a	56		 push	 esi
  0000b	57		 push	 edi
  0000c	51		 push	 ecx
  0000d	8d bd f4 fe ff
	ff		 lea	 edi, DWORD PTR [ebp-268]
  00013	b9 43 00 00 00	 mov	 ecx, 67			; 00000043H
  00018	b8 cc cc cc cc	 mov	 eax, -858993460		; ccccccccH
  0001d	f3 ab		 rep stosd
  0001f	59		 pop	 ecx
  00020	89 4d f8	 mov	 DWORD PTR _this$[ebp], ecx

; 166  : 		for (int i = 0 ; i < m_nPatchMaxLODLevels ; i ++)

  00023	c7 45 ec 00 00
	00 00		 mov	 DWORD PTR _i$85686[ebp], 0
  0002a	eb 09		 jmp	 SHORT $L85687
$L85688:
  0002c	8b 45 ec	 mov	 eax, DWORD PTR _i$85686[ebp]
  0002f	83 c0 01	 add	 eax, 1
  00032	89 45 ec	 mov	 DWORD PTR _i$85686[ebp], eax
$L85687:
  00035	8b 45 f8	 mov	 eax, DWORD PTR _this$[ebp]
  00038	8b 4d ec	 mov	 ecx, DWORD PTR _i$85686[ebp]
  0003b	3b 48 04	 cmp	 ecx, DWORD PTR [eax+4]
  0003e	7d 67		 jge	 SHORT $L85689

; 167  : 			SAFE_DELETE( m_pPatchLOD[i] ) 

  00040	8b 45 f8	 mov	 eax, DWORD PTR _this$[ebp]
  00043	8b 48 58	 mov	 ecx, DWORD PTR [eax+88]
  00046	8b 55 ec	 mov	 edx, DWORD PTR _i$85686[ebp]
  00049	83 3c 91 00	 cmp	 DWORD PTR [ecx+edx*4], 0
  0004d	74 56		 je	 SHORT $L85690
  0004f	8b 45 f8	 mov	 eax, DWORD PTR _this$[ebp]
  00052	8b 48 58	 mov	 ecx, DWORD PTR [eax+88]
  00055	8b 55 ec	 mov	 edx, DWORD PTR _i$85686[ebp]
  00058	8b 04 91	 mov	 eax, DWORD PTR [ecx+edx*4]
  0005b	89 85 14 ff ff
	ff		 mov	 DWORD PTR $T86367[ebp], eax
  00061	8b 8d 14 ff ff
	ff		 mov	 ecx, DWORD PTR $T86367[ebp]
  00067	89 8d 20 ff ff
	ff		 mov	 DWORD PTR $T86366[ebp], ecx
  0006d	83 bd 20 ff ff
	ff 00		 cmp	 DWORD PTR $T86366[ebp], 0
  00074	74 15		 je	 SHORT $L86368
  00076	6a 01		 push	 1
  00078	8b 8d 20 ff ff
	ff		 mov	 ecx, DWORD PTR $T86366[ebp]
  0007e	e8 00 00 00 00	 call	 ??_GCProceduralRenderObject@@QAEPAXI@Z
  00083	89 85 f4 fe ff
	ff		 mov	 DWORD PTR tv78[ebp], eax
  00089	eb 0a		 jmp	 SHORT $L86369
$L86368:
  0008b	c7 85 f4 fe ff
	ff 00 00 00 00	 mov	 DWORD PTR tv78[ebp], 0
$L86369:
  00095	8b 45 f8	 mov	 eax, DWORD PTR _this$[ebp]
  00098	8b 48 58	 mov	 ecx, DWORD PTR [eax+88]
  0009b	8b 55 ec	 mov	 edx, DWORD PTR _i$85686[ebp]
  0009e	c7 04 91 00 00
	00 00		 mov	 DWORD PTR [ecx+edx*4], 0
$L85690:
  000a5	eb 85		 jmp	 SHORT $L85688
$L85689:

; 168  : 
; 169  : 		SAFE_DELETE_ARRAY( m_pPatchLOD )

  000a7	8b 45 f8	 mov	 eax, DWORD PTR _this$[ebp]
  000aa	83 78 58 00	 cmp	 DWORD PTR [eax+88], 0
  000ae	74 25		 je	 SHORT $L85693
  000b0	8b 45 f8	 mov	 eax, DWORD PTR _this$[ebp]
  000b3	8b 48 58	 mov	 ecx, DWORD PTR [eax+88]
  000b6	89 8d 08 ff ff
	ff		 mov	 DWORD PTR $T86370[ebp], ecx
  000bc	8b 95 08 ff ff
	ff		 mov	 edx, DWORD PTR $T86370[ebp]
  000c2	52		 push	 edx
  000c3	e8 00 00 00 00	 call	 ??3@YAXPAX@Z		; operator delete
  000c8	83 c4 04	 add	 esp, 4
  000cb	8b 45 f8	 mov	 eax, DWORD PTR _this$[ebp]
  000ce	c7 40 58 00 00
	00 00		 mov	 DWORD PTR [eax+88], 0
$L85693:

; 170  : 		SAFE_DELETE_ARRAY( m_pItems )

  000d5	8b 45 f8	 mov	 eax, DWORD PTR _this$[ebp]
  000d8	83 78 0c 00	 cmp	 DWORD PTR [eax+12], 0
  000dc	74 25		 je	 SHORT $L85685
  000de	8b 45 f8	 mov	 eax, DWORD PTR _this$[ebp]
  000e1	8b 48 0c	 mov	 ecx, DWORD PTR [eax+12]
  000e4	89 8d fc fe ff
	ff		 mov	 DWORD PTR $T86371[ebp], ecx
  000ea	8b 95 fc fe ff
	ff		 mov	 edx, DWORD PTR $T86371[ebp]
  000f0	52		 push	 edx
  000f1	e8 00 00 00 00	 call	 ??3@YAXPAX@Z		; operator delete
  000f6	83 c4 04	 add	 esp, 4
  000f9	8b 45 f8	 mov	 eax, DWORD PTR _this$[ebp]
  000fc	c7 40 0c 00 00
	00 00		 mov	 DWORD PTR [eax+12], 0
$L85685:

; 171  : 	}

  00103	5f		 pop	 edi
  00104	5e		 pop	 esi
  00105	5b		 pop	 ebx
  00106	81 c4 0c 01 00
	00		 add	 esp, 268		; 0000010cH
  0010c	3b ec		 cmp	 ebp, esp
  0010e	e8 00 00 00 00	 call	 __RTC_CheckEsp
  00113	8b e5		 mov	 esp, ebp
  00115	5d		 pop	 ebp
  00116	c3		 ret	 0
??1CTerrainPatch@@QAE@XZ ENDP				; CTerrainPatch::~CTerrainPatch
_TEXT	ENDS
EXTRN	??1CProceduralRenderObject@@QAE@XZ:NEAR		; CProceduralRenderObject::~CProceduralRenderObject
; Function compile flags: /Odt /RTCsu /ZI
;	COMDAT ??_GCProceduralRenderObject@@QAEPAXI@Z
_TEXT	SEGMENT
_this$ = -8
___flags$ = 8
??_GCProceduralRenderObject@@QAEPAXI@Z PROC NEAR	; CProceduralRenderObject::`scalar deleting destructor', COMDAT
; _this$ = ecx
  00000	55		 push	 ebp
  00001	8b ec		 mov	 ebp, esp
  00003	81 ec cc 00 00
	00		 sub	 esp, 204		; 000000ccH
  00009	53		 push	 ebx
  0000a	56		 push	 esi
  0000b	57		 push	 edi
  0000c	51		 push	 ecx
  0000d	8d bd 34 ff ff
	ff		 lea	 edi, DWORD PTR [ebp-204]
  00013	b9 33 00 00 00	 mov	 ecx, 51			; 00000033H
  00018	b8 cc cc cc cc	 mov	 eax, -858993460		; ccccccccH
  0001d	f3 ab		 rep stosd
  0001f	59		 pop	 ecx
  00020	89 4d f8	 mov	 DWORD PTR _this$[ebp], ecx
  00023	8b 4d f8	 mov	 ecx, DWORD PTR _this$[ebp]
  00026	e8 00 00 00 00	 call	 ??1CProceduralRenderObject@@QAE@XZ ; CProceduralRenderObject::~CProceduralRenderObject
  0002b	8b 45 08	 mov	 eax, DWORD PTR ___flags$[ebp]
  0002e	83 e0 01	 and	 eax, 1
  00031	85 c0		 test	 eax, eax
  00033	74 0c		 je	 SHORT $L85700
  00035	8b 45 f8	 mov	 eax, DWORD PTR _this$[ebp]
  00038	50		 push	 eax
  00039	e8 00 00 00 00	 call	 ??3@YAXPAX@Z		; operator delete
  0003e	83 c4 04	 add	 esp, 4
$L85700:
  00041	8b 45 f8	 mov	 eax, DWORD PTR _this$[ebp]
  00044	5f		 pop	 edi
  00045	5e		 pop	 esi
  00046	5b		 pop	 ebx
  00047	81 c4 cc 00 00
	00		 add	 esp, 204		; 000000ccH
  0004d	3b ec		 cmp	 ebp, esp
  0004f	e8 00 00 00 00	 call	 __RTC_CheckEsp
  00054	8b e5		 mov	 esp, ebp
  00056	5d		 pop	 ebp
  00057	c2 04 00	 ret	 4
??_GCProceduralRenderObject@@QAEPAXI@Z ENDP		; CProceduralRenderObject::`scalar deleting destructor'
_TEXT	ENDS
PUBLIC	?QueryMemUsage@CTerrainPatch@@QAEKXZ		; CTerrainPatch::QueryMemUsage
; Function compile flags: /Odt /RTCsu /ZI
;	COMDAT ?QueryMemUsage@CTerrainPatch@@QAEKXZ
_TEXT	SEGMENT
_i$85705 = -32
_dwMem$ = -20
_this$ = -8
?QueryMemUsage@CTerrainPatch@@QAEKXZ PROC NEAR		; CTerrainPatch::QueryMemUsage, COMDAT
; _this$ = ecx

; 173  : 	{

  00000	55		 push	 ebp
  00001	8b ec		 mov	 ebp, esp
  00003	81 ec e4 00 00
	00		 sub	 esp, 228		; 000000e4H
  00009	53		 push	 ebx
  0000a	56		 push	 esi
  0000b	57		 push	 edi
  0000c	51		 push	 ecx
  0000d	8d bd 1c ff ff
	ff		 lea	 edi, DWORD PTR [ebp-228]
  00013	b9 39 00 00 00	 mov	 ecx, 57			; 00000039H
  00018	b8 cc cc cc cc	 mov	 eax, -858993460		; ccccccccH
  0001d	f3 ab		 rep stosd
  0001f	59		 pop	 ecx
  00020	89 4d f8	 mov	 DWORD PTR _this$[ebp], ecx

; 174  : 		DWORD dwMem = m_dwMem ;

  00023	8b 45 f8	 mov	 eax, DWORD PTR _this$[ebp]
  00026	8b 48 5c	 mov	 ecx, DWORD PTR [eax+92]
  00029	89 4d ec	 mov	 DWORD PTR _dwMem$[ebp], ecx

; 175  : 		
; 176  : 		for (int i = 0 ; i < m_nPatchMaxLODLevels ; i ++)

  0002c	c7 45 e0 00 00
	00 00		 mov	 DWORD PTR _i$85705[ebp], 0
  00033	eb 09		 jmp	 SHORT $L85706
$L85707:
  00035	8b 45 e0	 mov	 eax, DWORD PTR _i$85705[ebp]
  00038	83 c0 01	 add	 eax, 1
  0003b	89 45 e0	 mov	 DWORD PTR _i$85705[ebp], eax
$L85706:
  0003e	8b 45 f8	 mov	 eax, DWORD PTR _this$[ebp]
  00041	8b 4d e0	 mov	 ecx, DWORD PTR _i$85705[ebp]
  00044	3b 48 04	 cmp	 ecx, DWORD PTR [eax+4]
  00047	7d 55		 jge	 SHORT $L85708

; 177  : 			dwMem += (m_pPatchLOD[i]->m_dwMem_IndexedVerts + 
; 178  : 					  m_pPatchLOD[i]->m_dwMem_RenderData + 
; 179  : 					  m_pPatchLOD[i]->m_dwMem_X7LTs + 
; 180  : 					  m_pPatchLOD[i]->m_dwMem + 
; 181  : 					  m_pPatchLOD[i]->m_dwMem_BBox) ;

  00049	8b 45 f8	 mov	 eax, DWORD PTR _this$[ebp]
  0004c	8b 48 58	 mov	 ecx, DWORD PTR [eax+88]
  0004f	8b 55 e0	 mov	 edx, DWORD PTR _i$85705[ebp]
  00052	8b 04 91	 mov	 eax, DWORD PTR [ecx+edx*4]
  00055	8b 4d f8	 mov	 ecx, DWORD PTR _this$[ebp]
  00058	8b 51 58	 mov	 edx, DWORD PTR [ecx+88]
  0005b	8b 4d e0	 mov	 ecx, DWORD PTR _i$85705[ebp]
  0005e	8b 14 8a	 mov	 edx, DWORD PTR [edx+ecx*4]
  00061	8b 40 1c	 mov	 eax, DWORD PTR [eax+28]
  00064	03 42 20	 add	 eax, DWORD PTR [edx+32]
  00067	8b 4d f8	 mov	 ecx, DWORD PTR _this$[ebp]
  0006a	8b 51 58	 mov	 edx, DWORD PTR [ecx+88]
  0006d	8b 4d e0	 mov	 ecx, DWORD PTR _i$85705[ebp]
  00070	8b 14 8a	 mov	 edx, DWORD PTR [edx+ecx*4]
  00073	03 42 18	 add	 eax, DWORD PTR [edx+24]
  00076	8b 4d f8	 mov	 ecx, DWORD PTR _this$[ebp]
  00079	8b 51 58	 mov	 edx, DWORD PTR [ecx+88]
  0007c	8b 4d e0	 mov	 ecx, DWORD PTR _i$85705[ebp]
  0007f	8b 14 8a	 mov	 edx, DWORD PTR [edx+ecx*4]
  00082	03 42 14	 add	 eax, DWORD PTR [edx+20]
  00085	8b 4d f8	 mov	 ecx, DWORD PTR _this$[ebp]
  00088	8b 51 58	 mov	 edx, DWORD PTR [ecx+88]
  0008b	8b 4d e0	 mov	 ecx, DWORD PTR _i$85705[ebp]
  0008e	8b 14 8a	 mov	 edx, DWORD PTR [edx+ecx*4]
  00091	03 42 24	 add	 eax, DWORD PTR [edx+36]
  00094	8b 4d ec	 mov	 ecx, DWORD PTR _dwMem$[ebp]
  00097	03 c8		 add	 ecx, eax
  00099	89 4d ec	 mov	 DWORD PTR _dwMem$[ebp], ecx
  0009c	eb 97		 jmp	 SHORT $L85707
$L85708:

; 182  : 		
; 183  : 		return dwMem ;

  0009e	8b 45 ec	 mov	 eax, DWORD PTR _dwMem$[ebp]

; 184  : 	}

  000a1	5f		 pop	 edi
  000a2	5e		 pop	 esi
  000a3	5b		 pop	 ebx
  000a4	8b e5		 mov	 esp, ebp
  000a6	5d		 pop	 ebp
  000a7	c3		 ret	 0
?QueryMemUsage@CTerrainPatch@@QAEKXZ ENDP		; CTerrainPatch::QueryMemUsage
_TEXT	ENDS
PUBLIC	??0COLOREDVERTEXWITHNORMAL2TEX@@QAE@XZ		; COLOREDVERTEXWITHNORMAL2TEX::COLOREDVERTEXWITHNORMAL2TEX
PUBLIC	__real@3f800000
PUBLIC	__real@3e19999a
PUBLIC	__real@3f000000
PUBLIC	??0COLOREDVERTEXWITHNORMAL@@QAE@XZ		; COLOREDVERTEXWITHNORMAL::COLOREDVERTEXWITHNORMAL
PUBLIC	??0UNCOLOREDVERTEX@@QAE@XZ			; UNCOLOREDVERTEX::UNCOLOREDVERTEX
PUBLIC	??0COLOREDVERTEX@@QAE@XZ			; COLOREDVERTEX::COLOREDVERTEX
PUBLIC	?AddVertex@CTerrainPatch@@QAEXPAVCProceduralRenderObject@@HMMMMMMMMM@Z ; CTerrainPatch::AddVertex
PUBLIC	?AddFaceNormalData@CTerrainPatch@@QAEXPAVCProceduralRenderObject@@HHH@Z ; CTerrainPatch::AddFaceNormalData
PUBLIC	?__LINE__Var@?1??CreateFastPatch@CTerrainPatch@@QAEJHPAUD3DXVECTOR3@@MMPAVCProceduralRenderObject@@PAMPAUD3DXCOLOR@@KKMMH0HH@Z@4JA ; `CTerrainPatch::CreateFastPatch'::`2'::__LINE__Var
PUBLIC	??_C@_0BN@DFJOEAFC@pRO?9?$DOm_ntvRS?$FL0?$FN?4pLitVertices?$AA@ ; `string'
PUBLIC	??_C@_0BP@PJMNMBMP@pRO?9?$DOm_ntvRS?$FL0?$FN?4pUnlitVertices?$AA@ ; `string'
PUBLIC	??_C@_0CI@KKJFMBGC@pRO?9?$DOm_ntvRS?$FL0?$FN?4pLitVerticesWith@ ; `string'
PUBLIC	??_C@_0CM@NADHOHA@pRO?9?$DOm_ntvRS?$FL0?$FN?4pLitVerticesWith@ ; `string'
PUBLIC	??_C@_0BJ@DOHKAGPM@pRO?9?$DOm_ntvRS?$FL0?$FN?4pIndices?$AA@ ; `string'
PUBLIC	??_C@_0CG@KJICNLAP@m_nItems?5?$DM?$DN?5m_nItemsActuallyAllo@ ; `string'
PUBLIC	??0D3DXVECTOR3@@QAE@MMM@Z			; D3DXVECTOR3::D3DXVECTOR3
PUBLIC	??_C@_0DI@LCNKMPO@FATAL?3?5Using?5bad?5FVF?5in?5CTerrain@ ; `string'
PUBLIC	??_C@_0CL@EHDAJMHF@dropped?5a?5SPAWNPOS?5?$EA?$CI?$CF0?41f?0?5?$CF0?41@ ; `string'
EXTRN	__RTC_UninitUse:NEAR
EXTRN	@_RTC_CheckStackVars@8:NEAR
EXTRN	?Msg@@YAXPAD@Z:NEAR				; Msg
EXTRN	?ods@@YAXPADZZ:NEAR				; ods
EXTRN	?rnd@@YAMXZ:NEAR				; rnd
;	COMDAT ?__LINE__Var@?1??CreateFastPatch@CTerrainPatch@@QAEJHPAUD3DXVECTOR3@@MMPAVCProceduralRenderObject@@PAMPAUD3DXCOLOR@@KKMMH0HH@Z@4JA
_DATA	SEGMENT
?__LINE__Var@?1??CreateFastPatch@CTerrainPatch@@QAEJHPAUD3DXVECTOR3@@MMPAVCProceduralRenderObject@@PAMPAUD3DXCOLOR@@KKMMH0HH@Z@4JA DD 0c0H ; `CTerrainPatch::CreateFastPatch'::`2'::__LINE__Var
_DATA	ENDS
;	COMDAT ??_C@_0BN@DFJOEAFC@pRO?9?$DOm_ntvRS?$FL0?$FN?4pLitVertices?$AA@
CONST	SEGMENT
??_C@_0BN@DFJOEAFC@pRO?9?$DOm_ntvRS?$FL0?$FN?4pLitVertices?$AA@ DB 'pRO->'
	DB	'm_ntvRS[0].pLitVertices', 00H		; `string'
CONST	ENDS
;	COMDAT ??_C@_0BP@PJMNMBMP@pRO?9?$DOm_ntvRS?$FL0?$FN?4pUnlitVertices?$AA@
CONST	SEGMENT
??_C@_0BP@PJMNMBMP@pRO?9?$DOm_ntvRS?$FL0?$FN?4pUnlitVertices?$AA@ DB 'pRO'
	DB	'->m_ntvRS[0].pUnlitVertices', 00H		; `string'
CONST	ENDS
;	COMDAT ??_C@_0CI@KKJFMBGC@pRO?9?$DOm_ntvRS?$FL0?$FN?4pLitVerticesWith@
CONST	SEGMENT
??_C@_0CI@KKJFMBGC@pRO?9?$DOm_ntvRS?$FL0?$FN?4pLitVerticesWith@ DB 'pRO->'
	DB	'm_ntvRS[0].pLitVerticesWithNormals', 00H	; `string'
CONST	ENDS
;	COMDAT ??_C@_0CM@NADHOHA@pRO?9?$DOm_ntvRS?$FL0?$FN?4pLitVerticesWith@
CONST	SEGMENT
??_C@_0CM@NADHOHA@pRO?9?$DOm_ntvRS?$FL0?$FN?4pLitVerticesWith@ DB 'pRO->m'
	DB	'_ntvRS[0].pLitVerticesWithNormals2Tex', 00H	; `string'
CONST	ENDS
;	COMDAT ??_C@_0BJ@DOHKAGPM@pRO?9?$DOm_ntvRS?$FL0?$FN?4pIndices?$AA@
CONST	SEGMENT
??_C@_0BJ@DOHKAGPM@pRO?9?$DOm_ntvRS?$FL0?$FN?4pIndices?$AA@ DB 'pRO->m_nt'
	DB	'vRS[0].pIndices', 00H			; `string'
CONST	ENDS
;	COMDAT ??_C@_0CG@KJICNLAP@m_nItems?5?$DM?$DN?5m_nItemsActuallyAllo@
CONST	SEGMENT
??_C@_0CG@KJICNLAP@m_nItems?5?$DM?$DN?5m_nItemsActuallyAllo@ DB 'm_nItems'
	DB	' <= m_nItemsActuallyAllocated', 00H		; `string'
CONST	ENDS
;	COMDAT __real@3f800000
CONST	SEGMENT
__real@3f800000 DD 03f800000r			; 1
CONST	ENDS
;	COMDAT ??_C@_0DI@LCNKMPO@FATAL?3?5Using?5bad?5FVF?5in?5CTerrain@
CONST	SEGMENT
??_C@_0DI@LCNKMPO@FATAL?3?5Using?5bad?5FVF?5in?5CTerrain@ DB 'FATAL: Usin'
	DB	'g bad FVF in CTerrainPatch; no normal data! ', 00H ; `string'
CONST	ENDS
;	COMDAT __real@3e19999a
CONST	SEGMENT
__real@3e19999a DD 03e19999ar			; 0.15
CONST	ENDS
;	COMDAT __real@3f000000
CONST	SEGMENT
__real@3f000000 DD 03f000000r			; 0.5
CONST	ENDS
;	COMDAT ??_C@_0CL@EHDAJMHF@dropped?5a?5SPAWNPOS?5?$EA?$CI?$CF0?41f?0?5?$CF0?41@
CONST	SEGMENT
??_C@_0CL@EHDAJMHF@dropped?5a?5SPAWNPOS?5?$EA?$CI?$CF0?41f?0?5?$CF0?41@ DB 'd'
	DB	'ropped a SPAWNPOS @(%0.1f, %0.1f, %0.1f)', 0aH, 00H ; `string'
; Function compile flags: /Odt /RTCsu /ZI
CONST	ENDS
;	COMDAT ?CreateFastPatch@CTerrainPatch@@QAEJHPAUD3DXVECTOR3@@MMPAVCProceduralRenderObject@@PAMPAUD3DXCOLOR@@KKMMH0HH@Z
_TEXT	SEGMENT
tv5123 = -1868
tv5062 = -1868
tv5002 = -1868
tv4944 = -1868
tv1196 = -1868
tv1169 = -1868
tv1106 = -1868
tv1059 = -1868
tv1010 = -1868
tv967 = -1868
tv281 = -1868
tv249 = -1868
tv217 = -1868
tv185 = -1868
$T86414 = -1857
$T86413 = -1845
$T86412 = -1833
$T86411 = -1824
$T86409 = -1804
$T86407 = -1784
$T86405 = -1764
$T86403 = -1744
$T86401 = -1724
$T86400 = -1704
$T86398 = -1684
$T86394 = -1672
$T86393 = -1660
$T86389 = -1648
$T86388 = -1636
$T86384 = -1624
$T86383 = -1612
$T86379 = -1600
$T86378 = -1588
_ndxE$86146 = -1384
_ndxD$86145 = -1372
_ndxC$86144 = -1360
_ndxB$86143 = -1348
_ndxA$86142 = -1336
_ndxD$86133 = -1324
_ndxC$86132 = -1312
_ndxB$86131 = -1300
_ndxA$86130 = -1288
_ndxD$86120 = -1276
_ndxC$86119 = -1264
_ndxB$86118 = -1252
_ndxA$86117 = -1240
_ndxE$86102 = -1228
_ndxD$86101 = -1216
_ndxC$86100 = -1204
_ndxB$86099 = -1192
_ndxA$86098 = -1180
_ndxD$86089 = -1168
_ndxC$86088 = -1156
_ndxB$86087 = -1144
_ndxA$86086 = -1132
_ndxD$86076 = -1120
_ndxC$86075 = -1108
_ndxB$86074 = -1096
_ndxA$86073 = -1084
_ndxE$86058 = -1072
_ndxD$86057 = -1060
_ndxC$86056 = -1048
_ndxB$86055 = -1036
_ndxA$86054 = -1024
_ndxD$86045 = -1012
_ndxC$86044 = -1000
_ndxB$86043 = -988
_ndxA$86042 = -976
_ndxD$86032 = -964
_ndxC$86031 = -952
_ndxB$86030 = -940
_ndxA$86029 = -928
_ndxE$86014 = -916
_ndxD$86013 = -904
_ndxC$86012 = -892
_ndxB$86011 = -880
_ndxA$86010 = -868
_ndxD$86001 = -856
_ndxC$86000 = -844
_ndxB$85999 = -832
_ndxA$85998 = -820
_ndxD$85988 = -808
_ndxC$85987 = -796
_ndxB$85986 = -784
_ndxA$85985 = -772
_nCol$85980 = -760
_nRow$85979 = -748
_v$85968 = -736
_vN$85967 = -716
_fVertexZ$85966 = -696
_fVertexY$85965 = -684
_fVertexX$85964 = -672
_bPointIsInDSForDownBuild$85913 = -660
_bPointIsInDSForUpBuild$85912 = -648
_ndxC$85911 = -636
_ndxB$85910 = -624
_ndxA$85909 = -612
_ndx3$85908 = -600
_ndx2$85907 = -588
_ndx1$85906 = -576
_nCol$85902 = -564
_nRow$85898 = -552
_nDS$85888 = -540
_nMaxVert$ = -528
_nCurIndex$ = -516
_pCM$85860 = -504
_fVertexZ$85859 = -492
_fVertexY$85858 = -480
_fVertexX$85857 = -468
_a$85856 = -456
_b$85855 = -444
_g$85854 = -432
_r$85853 = -420
_fY$85852 = -408
_fX$85851 = -396
_pfHM$85850 = -384
_i$85849 = -372
_nHMDelta$85848 = -360
_fVertexZ$85802 = -348
_fVertexY$85801 = -336
_fVertexX$85800 = -324
_nHeightmapDelta$85792 = -312
_a$85791 = -300
_b$85790 = -288
_g$85789 = -276
_r$85788 = -264
_nVert$85784 = -252
_fY$ = -240
_fX$ = -228
_nY$ = -216
_nX$ = -204
_vMax$ = -192
_vMin$ = -172
_nTotalIndices$ = -152
_nTotalVerts$ = -140
_nEdgeConnectorIndices$ = -128
_nEdgeConnectorVerts$ = -116
_nIndices$ = -104
_nVerts$ = -92
_nQuads$ = -80
_pCMStart$ = -68
_pfHMStart$ = -56
_bSpawnPosDone$ = -44
_bSpawnPosRequired$ = -32
_fItemMaxY$ = -20
_this$ = -8
_nPatchSQ$ = 8
_pvTL$ = 12
_fWidth$ = 16
_fDepth$ = 20
_pRO$ = 24
_pfHeightmap$ = 28
_pColormap$ = 32
_ulNextRowHeightmapDelta$ = 36
_ulMaxExtent$ = 40
_fMinY$ = 44
_fMaxY$ = 48
_bBuildEdgeConnectors$ = 52
_pvSpawnPos$ = 56
_nTex1$ = 60
_nTex2$ = 64
?CreateFastPatch@CTerrainPatch@@QAEJHPAUD3DXVECTOR3@@MMPAVCProceduralRenderObject@@PAMPAUD3DXCOLOR@@KKMMH0HH@Z PROC NEAR ; CTerrainPatch::CreateFastPatch, COMDAT
; _this$ = ecx

; 192  : 	{

  00000	55		 push	 ebp
  00001	8b ec		 mov	 ebp, esp
  00003	81 ec 4c 07 00
	00		 sub	 esp, 1868		; 0000074cH
  00009	53		 push	 ebx
  0000a	56		 push	 esi
  0000b	57		 push	 edi
  0000c	51		 push	 ecx
  0000d	8d bd b4 f8 ff
	ff		 lea	 edi, DWORD PTR [ebp-1868]
  00013	b9 d3 01 00 00	 mov	 ecx, 467		; 000001d3H
  00018	b8 cc cc cc cc	 mov	 eax, -858993460		; ccccccccH
  0001d	f3 ab		 rep stosd
  0001f	59		 pop	 ecx
  00020	89 4d f8	 mov	 DWORD PTR _this$[ebp], ecx

; 193  : 	// items can effectively increase the patch's bounding vol. max. Y;
; 194  : 		float fItemMaxY = 0.0f ;

  00023	c7 45 ec 00 00
	00 00		 mov	 DWORD PTR _fItemMaxY$[ebp], 0

; 195  : 
; 196  : 	// save whether spawn pos generation is required
; 197  : 		BOOL bSpawnPosRequired = ( pvSpawnPos != NULL );

  0002a	33 c0		 xor	 eax, eax
  0002c	83 7d 38 00	 cmp	 DWORD PTR _pvSpawnPos$[ebp], 0
  00030	0f 95 c0	 setne	 al
  00033	89 45 e0	 mov	 DWORD PTR _bSpawnPosRequired$[ebp], eax

; 198  : 		BOOL bSpawnPosDone = FALSE ;

  00036	c7 45 d4 00 00
	00 00		 mov	 DWORD PTR _bSpawnPosDone$[ebp], 0

; 199  : 
; 200  : 	// save start point in height & color map
; 201  : 		float *pfHMStart = pfHeightmap ;

  0003d	8b 45 1c	 mov	 eax, DWORD PTR _pfHeightmap$[ebp]
  00040	89 45 c8	 mov	 DWORD PTR _pfHMStart$[ebp], eax

; 202  : 		D3DXCOLOR *pCMStart = pColormap ;

  00043	8b 45 20	 mov	 eax, DWORD PTR _pColormap$[ebp]
  00046	89 45 bc	 mov	 DWORD PTR _pCMStart$[ebp], eax

; 203  : 
; 204  : 	// for main evenly spaced subset including edges at LOD
; 205  : 		unsigned nQuads = nPatchSQ * nPatchSQ ;

  00049	8b 45 08	 mov	 eax, DWORD PTR _nPatchSQ$[ebp]
  0004c	0f af 45 08	 imul	 eax, DWORD PTR _nPatchSQ$[ebp]
  00050	89 45 b0	 mov	 DWORD PTR _nQuads$[ebp], eax

; 206  : 		unsigned nVerts = (nPatchSQ + 1) * (nPatchSQ + 1) ;

  00053	8b 45 08	 mov	 eax, DWORD PTR _nPatchSQ$[ebp]
  00056	83 c0 01	 add	 eax, 1
  00059	8b 4d 08	 mov	 ecx, DWORD PTR _nPatchSQ$[ebp]
  0005c	83 c1 01	 add	 ecx, 1
  0005f	0f af c1	 imul	 eax, ecx
  00062	89 45 a4	 mov	 DWORD PTR _nVerts$[ebp], eax

; 207  : 		unsigned nIndices = nQuads * 2 * 3 ;

  00065	8b 45 b0	 mov	 eax, DWORD PTR _nQuads$[ebp]
  00068	d1 e0		 shl	 eax, 1
  0006a	6b c0 03	 imul	 eax, 3
  0006d	89 45 98	 mov	 DWORD PTR _nIndices$[ebp], eax

; 208  : 	
; 209  : 	// 4 sides of patch at LOD+1
; 210  : 		unsigned nEdgeConnectorVerts = nPatchSQ * 4 ;

  00070	8b 45 08	 mov	 eax, DWORD PTR _nPatchSQ$[ebp]
  00073	c1 e0 02	 shl	 eax, 2
  00076	89 45 8c	 mov	 DWORD PTR _nEdgeConnectorVerts$[ebp], eax

; 211  : 	// two tris in each corner = 12 indices
; 212  : 	// for the rest, each quad is drawn as three tris = 9 indices
; 213  : 		unsigned nEdgeConnectorIndices = (12 + (nPatchSQ - 2) * 9) * 4 ;

  00079	8b 45 08	 mov	 eax, DWORD PTR _nPatchSQ$[ebp]
  0007c	83 e8 02	 sub	 eax, 2
  0007f	6b c0 09	 imul	 eax, 9
  00082	8d 0c 85 30 00
	00 00		 lea	 ecx, DWORD PTR [eax*4+48]
  00089	89 4d 80	 mov	 DWORD PTR _nEdgeConnectorIndices$[ebp], ecx

; 214  : 		
; 215  : 	// true total no. of verts & indices
; 216  : 		unsigned nTotalVerts, nTotalIndices ;
; 217  : 
; 218  : 	// bounding volume
; 219  : 		xVec3 vMin, vMax ;

  0008c	8d 8d 54 ff ff
	ff		 lea	 ecx, DWORD PTR _vMin$[ebp]
  00092	e8 00 00 00 00	 call	 ??0D3DXVECTOR3@@QAE@XZ	; D3DXVECTOR3::D3DXVECTOR3
  00097	8d 8d 40 ff ff
	ff		 lea	 ecx, DWORD PTR _vMax$[ebp]
  0009d	e8 00 00 00 00	 call	 ??0D3DXVECTOR3@@QAE@XZ	; D3DXVECTOR3::D3DXVECTOR3

; 220  : 
; 221  : 	// default to a patch with no edge connectors at LOD+1
; 222  : 		nTotalVerts = nVerts ;

  000a2	8b 45 a4	 mov	 eax, DWORD PTR _nVerts$[ebp]
  000a5	89 85 74 ff ff
	ff		 mov	 DWORD PTR _nTotalVerts$[ebp], eax

; 223  : 		nTotalIndices = nIndices ;

  000ab	8b 45 98	 mov	 eax, DWORD PTR _nIndices$[ebp]
  000ae	89 85 68 ff ff
	ff		 mov	 DWORD PTR _nTotalIndices$[ebp], eax

; 224  : 
; 225  : 	//
; 226  : 	// Allocate extra room for edge connectors:
; 227  : 	//
; 228  : 		if (bBuildEdgeConnectors)

  000b4	83 7d 34 00	 cmp	 DWORD PTR _bBuildEdgeConnectors$[ebp], 0
  000b8	74 1e		 je	 SHORT $L85741

; 229  : 		{
; 230  : 			nTotalVerts += nEdgeConnectorVerts ;

  000ba	8b 85 74 ff ff
	ff		 mov	 eax, DWORD PTR _nTotalVerts$[ebp]
  000c0	03 45 8c	 add	 eax, DWORD PTR _nEdgeConnectorVerts$[ebp]
  000c3	89 85 74 ff ff
	ff		 mov	 DWORD PTR _nTotalVerts$[ebp], eax

; 231  : 			nTotalIndices += nEdgeConnectorIndices ;

  000c9	8b 85 68 ff ff
	ff		 mov	 eax, DWORD PTR _nTotalIndices$[ebp]
  000cf	03 45 80	 add	 eax, DWORD PTR _nEdgeConnectorIndices$[ebp]
  000d2	89 85 68 ff ff
	ff		 mov	 DWORD PTR _nTotalIndices$[ebp], eax
$L85741:

; 232  : 		}
; 233  : 		
; 234  : 	//
; 235  : 	// Allocate memory for vertices and indices:
; 236  : 	//
; 237  : 		pRO->m_ntvRS[0].ndxTex = nTex1 ;

  000d8	8b 45 18	 mov	 eax, DWORD PTR _pRO$[ebp]
  000db	8b 4d 3c	 mov	 ecx, DWORD PTR _nTex1$[ebp]
  000de	89 48 28	 mov	 DWORD PTR [eax+40], ecx

; 238  : 		pRO->m_ntvRS[0].ndxTex2 = nTex2 ;

  000e1	8b 45 18	 mov	 eax, DWORD PTR _pRO$[ebp]
  000e4	8b 4d 40	 mov	 ecx, DWORD PTR _nTex2$[ebp]
  000e7	89 48 2c	 mov	 DWORD PTR [eax+44], ecx

; 239  : 
; 240  : 		pRO->m_ntvRS[0].dwNumVertices = nTotalVerts ;

  000ea	8b 45 18	 mov	 eax, DWORD PTR _pRO$[ebp]
  000ed	8b 8d 74 ff ff
	ff		 mov	 ecx, DWORD PTR _nTotalVerts$[ebp]
  000f3	89 48 48	 mov	 DWORD PTR [eax+72], ecx

; 241  : 		pRO->m_ntvRS[0].dwNumIndices = nTotalIndices ;

  000f6	8b 45 18	 mov	 eax, DWORD PTR _pRO$[ebp]
  000f9	8b 8d 68 ff ff
	ff		 mov	 ecx, DWORD PTR _nTotalIndices$[ebp]
  000ff	89 48 4c	 mov	 DWORD PTR [eax+76], ecx

; 242  : 
; 243  : 	//
; 244  : 	// Memory Usage Monitor:
; 245  : 	//
; 246  : 		m_dwTotalNumVertices += pRO->m_ntvRS[0].dwNumVertices ;

  00102	8b 45 f8	 mov	 eax, DWORD PTR _this$[ebp]
  00105	8b 48 60	 mov	 ecx, DWORD PTR [eax+96]
  00108	8b 55 18	 mov	 edx, DWORD PTR _pRO$[ebp]
  0010b	03 4a 48	 add	 ecx, DWORD PTR [edx+72]
  0010e	8b 45 f8	 mov	 eax, DWORD PTR _this$[ebp]
  00111	89 48 60	 mov	 DWORD PTR [eax+96], ecx

; 247  : 		m_dwTotalNumIndices += pRO->m_ntvRS[0].dwNumIndices ;

  00114	8b 45 f8	 mov	 eax, DWORD PTR _this$[ebp]
  00117	8b 48 64	 mov	 ecx, DWORD PTR [eax+100]
  0011a	8b 55 18	 mov	 edx, DWORD PTR _pRO$[ebp]
  0011d	03 4a 4c	 add	 ecx, DWORD PTR [edx+76]
  00120	8b 45 f8	 mov	 eax, DWORD PTR _this$[ebp]
  00123	89 48 64	 mov	 DWORD PTR [eax+100], ecx

; 248  : 
; 249  : 		if (pRO->m_dwFVF == MYFVF_COLOREDVERTEX)

  00126	8b 45 18	 mov	 eax, DWORD PTR _pRO$[ebp]
  00129	81 38 c2 01 00
	00		 cmp	 DWORD PTR [eax], 450	; 000001c2H
  0012f	0f 85 a5 00 00
	00		 jne	 $L85742

; 250  : 		{
; 251  : 			pRO->m_ntvRS[0].pLitVertices = new COLOREDVERTEX[pRO->m_ntvRS[0].dwNumVertices] ;

  00135	8b 45 18	 mov	 eax, DWORD PTR _pRO$[ebp]
  00138	8b 48 48	 mov	 ecx, DWORD PTR [eax+72]
  0013b	89 8d cc f9 ff
	ff		 mov	 DWORD PTR $T86378[ebp], ecx
  00141	8b 95 cc f9 ff
	ff		 mov	 edx, DWORD PTR $T86378[ebp]
  00147	6b d2 1c	 imul	 edx, 28			; 0000001cH
  0014a	52		 push	 edx
  0014b	e8 00 00 00 00	 call	 ??2@YAPAXI@Z		; operator new
  00150	83 c4 04	 add	 esp, 4
  00153	89 85 c0 f9 ff
	ff		 mov	 DWORD PTR $T86379[ebp], eax
  00159	83 bd c0 f9 ff
	ff 00		 cmp	 DWORD PTR $T86379[ebp], 0
  00160	74 28		 je	 SHORT $L86380
  00162	68 00 00 00 00	 push	 OFFSET FLAT:??0COLOREDVERTEX@@QAE@XZ ; COLOREDVERTEX::COLOREDVERTEX
  00167	8b 85 cc f9 ff
	ff		 mov	 eax, DWORD PTR $T86378[ebp]
  0016d	50		 push	 eax
  0016e	6a 1c		 push	 28			; 0000001cH
  00170	8b 8d c0 f9 ff
	ff		 mov	 ecx, DWORD PTR $T86379[ebp]
  00176	51		 push	 ecx
  00177	e8 00 00 00 00	 call	 ??_H@YGXPAXIHP6EPAX0@Z@Z
  0017c	8b 95 c0 f9 ff
	ff		 mov	 edx, DWORD PTR $T86379[ebp]
  00182	89 95 b4 f8 ff
	ff		 mov	 DWORD PTR tv185[ebp], edx
  00188	eb 0a		 jmp	 SHORT $L86381
$L86380:
  0018a	c7 85 b4 f8 ff
	ff 00 00 00 00	 mov	 DWORD PTR tv185[ebp], 0
$L86381:
  00194	8b 45 18	 mov	 eax, DWORD PTR _pRO$[ebp]
  00197	8b 8d b4 f8 ff
	ff		 mov	 ecx, DWORD PTR tv185[ebp]
  0019d	89 48 34	 mov	 DWORD PTR [eax+52], ecx

; 252  : 			pRO->m_dwMem_IndexedVerts += sizeof(COLOREDVERTEX) * pRO->m_ntvRS[0].dwNumVertices ;

  001a0	8b 45 18	 mov	 eax, DWORD PTR _pRO$[ebp]
  001a3	8b 48 48	 mov	 ecx, DWORD PTR [eax+72]
  001a6	6b c9 1c	 imul	 ecx, 28			; 0000001cH
  001a9	8b 55 18	 mov	 edx, DWORD PTR _pRO$[ebp]
  001ac	03 4a 1c	 add	 ecx, DWORD PTR [edx+28]
  001af	8b 45 18	 mov	 eax, DWORD PTR _pRO$[ebp]
  001b2	89 48 1c	 mov	 DWORD PTR [eax+28], ecx

; 253  : 			assert( pRO->m_ntvRS[0].pLitVertices );

  001b5	8b 45 18	 mov	 eax, DWORD PTR _pRO$[ebp]
  001b8	83 78 34 00	 cmp	 DWORD PTR [eax+52], 0
  001bc	75 1c		 jne	 SHORT $L85742
  001be	8b 0d 00 00 00
	00		 mov	 ecx, DWORD PTR ?__LINE__Var@?1??CreateFastPatch@CTerrainPatch@@QAEJHPAUD3DXVECTOR3@@MMPAVCProceduralRenderObject@@PAMPAUD3DXCOLOR@@KKMMH0HH@Z@4JA
  001c4	83 c1 3d	 add	 ecx, 61			; 0000003dH
  001c7	51		 push	 ecx
  001c8	68 00 00 00 00	 push	 OFFSET FLAT:??_C@_0EP@CNFCBLDK@c?3?2documents?5and?5settings?2dom?2my@
  001cd	68 00 00 00 00	 push	 OFFSET FLAT:??_C@_0BN@DFJOEAFC@pRO?9?$DOm_ntvRS?$FL0?$FN?4pLitVertices?$AA@
  001d2	e8 00 00 00 00	 call	 __assert
  001d7	83 c4 0c	 add	 esp, 12			; 0000000cH
$L85742:

; 254  : 		}
; 255  : 		if (pRO->m_dwFVF == MYFVF_UNCOLOREDVERTEX)

  001da	8b 45 18	 mov	 eax, DWORD PTR _pRO$[ebp]
  001dd	81 38 12 01 00
	00		 cmp	 DWORD PTR [eax], 274	; 00000112H
  001e3	0f 85 a5 00 00
	00		 jne	 $L85751

; 256  : 		{
; 257  : 			pRO->m_ntvRS[0].pUnlitVertices = new UNCOLOREDVERTEX[pRO->m_ntvRS[0].dwNumVertices] ;

  001e9	8b 45 18	 mov	 eax, DWORD PTR _pRO$[ebp]
  001ec	8b 48 48	 mov	 ecx, DWORD PTR [eax+72]
  001ef	89 8d b4 f9 ff
	ff		 mov	 DWORD PTR $T86383[ebp], ecx
  001f5	8b 95 b4 f9 ff
	ff		 mov	 edx, DWORD PTR $T86383[ebp]
  001fb	c1 e2 05	 shl	 edx, 5
  001fe	52		 push	 edx
  001ff	e8 00 00 00 00	 call	 ??2@YAPAXI@Z		; operator new
  00204	83 c4 04	 add	 esp, 4
  00207	89 85 a8 f9 ff
	ff		 mov	 DWORD PTR $T86384[ebp], eax
  0020d	83 bd a8 f9 ff
	ff 00		 cmp	 DWORD PTR $T86384[ebp], 0
  00214	74 28		 je	 SHORT $L86385
  00216	68 00 00 00 00	 push	 OFFSET FLAT:??0UNCOLOREDVERTEX@@QAE@XZ ; UNCOLOREDVERTEX::UNCOLOREDVERTEX
  0021b	8b 85 b4 f9 ff
	ff		 mov	 eax, DWORD PTR $T86383[ebp]
  00221	50		 push	 eax
  00222	6a 20		 push	 32			; 00000020H
  00224	8b 8d a8 f9 ff
	ff		 mov	 ecx, DWORD PTR $T86384[ebp]
  0022a	51		 push	 ecx
  0022b	e8 00 00 00 00	 call	 ??_H@YGXPAXIHP6EPAX0@Z@Z
  00230	8b 95 a8 f9 ff
	ff		 mov	 edx, DWORD PTR $T86384[ebp]
  00236	89 95 b4 f8 ff
	ff		 mov	 DWORD PTR tv217[ebp], edx
  0023c	eb 0a		 jmp	 SHORT $L86386
$L86385:
  0023e	c7 85 b4 f8 ff
	ff 00 00 00 00	 mov	 DWORD PTR tv217[ebp], 0
$L86386:
  00248	8b 45 18	 mov	 eax, DWORD PTR _pRO$[ebp]
  0024b	8b 8d b4 f8 ff
	ff		 mov	 ecx, DWORD PTR tv217[ebp]
  00251	89 48 30	 mov	 DWORD PTR [eax+48], ecx

; 258  : 			pRO->m_dwMem_IndexedVerts += sizeof(UNCOLOREDVERTEX) * pRO->m_ntvRS[0].dwNumVertices ;

  00254	8b 45 18	 mov	 eax, DWORD PTR _pRO$[ebp]
  00257	8b 48 48	 mov	 ecx, DWORD PTR [eax+72]
  0025a	c1 e1 05	 shl	 ecx, 5
  0025d	8b 55 18	 mov	 edx, DWORD PTR _pRO$[ebp]
  00260	03 4a 1c	 add	 ecx, DWORD PTR [edx+28]
  00263	8b 45 18	 mov	 eax, DWORD PTR _pRO$[ebp]
  00266	89 48 1c	 mov	 DWORD PTR [eax+28], ecx

; 259  : 			assert( pRO->m_ntvRS[0].pUnlitVertices );

  00269	8b 45 18	 mov	 eax, DWORD PTR _pRO$[ebp]
  0026c	83 78 30 00	 cmp	 DWORD PTR [eax+48], 0
  00270	75 1c		 jne	 SHORT $L85751
  00272	8b 0d 00 00 00
	00		 mov	 ecx, DWORD PTR ?__LINE__Var@?1??CreateFastPatch@CTerrainPatch@@QAEJHPAUD3DXVECTOR3@@MMPAVCProceduralRenderObject@@PAMPAUD3DXCOLOR@@KKMMH0HH@Z@4JA
  00278	83 c1 43	 add	 ecx, 67			; 00000043H
  0027b	51		 push	 ecx
  0027c	68 00 00 00 00	 push	 OFFSET FLAT:??_C@_0EP@CNFCBLDK@c?3?2documents?5and?5settings?2dom?2my@
  00281	68 00 00 00 00	 push	 OFFSET FLAT:??_C@_0BP@PJMNMBMP@pRO?9?$DOm_ntvRS?$FL0?$FN?4pUnlitVertices?$AA@
  00286	e8 00 00 00 00	 call	 __assert
  0028b	83 c4 0c	 add	 esp, 12			; 0000000cH
$L85751:

; 260  : 		}
; 261  : 		if (pRO->m_dwFVF == MYFVF_COLOREDVERTEXWITHNORMAL)

  0028e	8b 45 18	 mov	 eax, DWORD PTR _pRO$[ebp]
  00291	81 38 d2 01 00
	00		 cmp	 DWORD PTR [eax], 466	; 000001d2H
  00297	0f 85 a5 00 00
	00		 jne	 $L85759

; 262  : 		{
; 263  : 			pRO->m_ntvRS[0].pLitVerticesWithNormals = new COLOREDVERTEXWITHNORMAL[pRO->m_ntvRS[0].dwNumVertices] ;

  0029d	8b 45 18	 mov	 eax, DWORD PTR _pRO$[ebp]
  002a0	8b 48 48	 mov	 ecx, DWORD PTR [eax+72]
  002a3	89 8d 9c f9 ff
	ff		 mov	 DWORD PTR $T86388[ebp], ecx
  002a9	8b 95 9c f9 ff
	ff		 mov	 edx, DWORD PTR $T86388[ebp]
  002af	6b d2 28	 imul	 edx, 40			; 00000028H
  002b2	52		 push	 edx
  002b3	e8 00 00 00 00	 call	 ??2@YAPAXI@Z		; operator new
  002b8	83 c4 04	 add	 esp, 4
  002bb	89 85 90 f9 ff
	ff		 mov	 DWORD PTR $T86389[ebp], eax
  002c1	83 bd 90 f9 ff
	ff 00		 cmp	 DWORD PTR $T86389[ebp], 0
  002c8	74 28		 je	 SHORT $L86390
  002ca	68 00 00 00 00	 push	 OFFSET FLAT:??0COLOREDVERTEXWITHNORMAL@@QAE@XZ ; COLOREDVERTEXWITHNORMAL::COLOREDVERTEXWITHNORMAL
  002cf	8b 85 9c f9 ff
	ff		 mov	 eax, DWORD PTR $T86388[ebp]
  002d5	50		 push	 eax
  002d6	6a 28		 push	 40			; 00000028H
  002d8	8b 8d 90 f9 ff
	ff		 mov	 ecx, DWORD PTR $T86389[ebp]
  002de	51		 push	 ecx
  002df	e8 00 00 00 00	 call	 ??_H@YGXPAXIHP6EPAX0@Z@Z
  002e4	8b 95 90 f9 ff
	ff		 mov	 edx, DWORD PTR $T86389[ebp]
  002ea	89 95 b4 f8 ff
	ff		 mov	 DWORD PTR tv249[ebp], edx
  002f0	eb 0a		 jmp	 SHORT $L86391
$L86390:
  002f2	c7 85 b4 f8 ff
	ff 00 00 00 00	 mov	 DWORD PTR tv249[ebp], 0
$L86391:
  002fc	8b 45 18	 mov	 eax, DWORD PTR _pRO$[ebp]
  002ff	8b 8d b4 f8 ff
	ff		 mov	 ecx, DWORD PTR tv249[ebp]
  00305	89 48 3c	 mov	 DWORD PTR [eax+60], ecx

; 264  : 			pRO->m_dwMem_IndexedVerts += sizeof(COLOREDVERTEXWITHNORMAL) * pRO->m_ntvRS[0].dwNumVertices ;

  00308	8b 45 18	 mov	 eax, DWORD PTR _pRO$[ebp]
  0030b	8b 48 48	 mov	 ecx, DWORD PTR [eax+72]
  0030e	6b c9 28	 imul	 ecx, 40			; 00000028H
  00311	8b 55 18	 mov	 edx, DWORD PTR _pRO$[ebp]
  00314	03 4a 1c	 add	 ecx, DWORD PTR [edx+28]
  00317	8b 45 18	 mov	 eax, DWORD PTR _pRO$[ebp]
  0031a	89 48 1c	 mov	 DWORD PTR [eax+28], ecx

; 265  : 			assert( pRO->m_ntvRS[0].pLitVerticesWithNormals );

  0031d	8b 45 18	 mov	 eax, DWORD PTR _pRO$[ebp]
  00320	83 78 3c 00	 cmp	 DWORD PTR [eax+60], 0
  00324	75 1c		 jne	 SHORT $L85759
  00326	8b 0d 00 00 00
	00		 mov	 ecx, DWORD PTR ?__LINE__Var@?1??CreateFastPatch@CTerrainPatch@@QAEJHPAUD3DXVECTOR3@@MMPAVCProceduralRenderObject@@PAMPAUD3DXCOLOR@@KKMMH0HH@Z@4JA
  0032c	83 c1 49	 add	 ecx, 73			; 00000049H
  0032f	51		 push	 ecx
  00330	68 00 00 00 00	 push	 OFFSET FLAT:??_C@_0EP@CNFCBLDK@c?3?2documents?5and?5settings?2dom?2my@
  00335	68 00 00 00 00	 push	 OFFSET FLAT:??_C@_0CI@KKJFMBGC@pRO?9?$DOm_ntvRS?$FL0?$FN?4pLitVerticesWith@
  0033a	e8 00 00 00 00	 call	 __assert
  0033f	83 c4 0c	 add	 esp, 12			; 0000000cH
$L85759:

; 266  : 		}
; 267  : 		if (pRO->m_dwFVF == MYFVF_COLOREDVERTEXWITHNORMAL2TEX)

  00342	8b 45 18	 mov	 eax, DWORD PTR _pRO$[ebp]
  00345	81 38 d2 02 00
	00		 cmp	 DWORD PTR [eax], 722	; 000002d2H
  0034b	0f 85 a5 00 00
	00		 jne	 $L85767

; 268  : 		{
; 269  : 			pRO->m_ntvRS[0].pLitVerticesWithNormals2Tex = new COLOREDVERTEXWITHNORMAL2TEX[pRO->m_ntvRS[0].dwNumVertices] ;

  00351	8b 45 18	 mov	 eax, DWORD PTR _pRO$[ebp]
  00354	8b 48 48	 mov	 ecx, DWORD PTR [eax+72]
  00357	89 8d 84 f9 ff
	ff		 mov	 DWORD PTR $T86393[ebp], ecx
  0035d	8b 95 84 f9 ff
	ff		 mov	 edx, DWORD PTR $T86393[ebp]
  00363	6b d2 30	 imul	 edx, 48			; 00000030H
  00366	52		 push	 edx
  00367	e8 00 00 00 00	 call	 ??2@YAPAXI@Z		; operator new
  0036c	83 c4 04	 add	 esp, 4
  0036f	89 85 78 f9 ff
	ff		 mov	 DWORD PTR $T86394[ebp], eax
  00375	83 bd 78 f9 ff
	ff 00		 cmp	 DWORD PTR $T86394[ebp], 0
  0037c	74 28		 je	 SHORT $L86395
  0037e	68 00 00 00 00	 push	 OFFSET FLAT:??0COLOREDVERTEXWITHNORMAL2TEX@@QAE@XZ ; COLOREDVERTEXWITHNORMAL2TEX::COLOREDVERTEXWITHNORMAL2TEX
  00383	8b 85 84 f9 ff
	ff		 mov	 eax, DWORD PTR $T86393[ebp]
  00389	50		 push	 eax
  0038a	6a 30		 push	 48			; 00000030H
  0038c	8b 8d 78 f9 ff
	ff		 mov	 ecx, DWORD PTR $T86394[ebp]
  00392	51		 push	 ecx
  00393	e8 00 00 00 00	 call	 ??_H@YGXPAXIHP6EPAX0@Z@Z
  00398	8b 95 78 f9 ff
	ff		 mov	 edx, DWORD PTR $T86394[ebp]
  0039e	89 95 b4 f8 ff
	ff		 mov	 DWORD PTR tv281[ebp], edx
  003a4	eb 0a		 jmp	 SHORT $L86396
$L86395:
  003a6	c7 85 b4 f8 ff
	ff 00 00 00 00	 mov	 DWORD PTR tv281[ebp], 0
$L86396:
  003b0	8b 45 18	 mov	 eax, DWORD PTR _pRO$[ebp]
  003b3	8b 8d b4 f8 ff
	ff		 mov	 ecx, DWORD PTR tv281[ebp]
  003b9	89 48 40	 mov	 DWORD PTR [eax+64], ecx

; 270  : 			pRO->m_dwMem_IndexedVerts += sizeof(COLOREDVERTEXWITHNORMAL2TEX) * pRO->m_ntvRS[0].dwNumVertices ;

  003bc	8b 45 18	 mov	 eax, DWORD PTR _pRO$[ebp]
  003bf	8b 48 48	 mov	 ecx, DWORD PTR [eax+72]
  003c2	6b c9 30	 imul	 ecx, 48			; 00000030H
  003c5	8b 55 18	 mov	 edx, DWORD PTR _pRO$[ebp]
  003c8	03 4a 1c	 add	 ecx, DWORD PTR [edx+28]
  003cb	8b 45 18	 mov	 eax, DWORD PTR _pRO$[ebp]
  003ce	89 48 1c	 mov	 DWORD PTR [eax+28], ecx

; 271  : 			assert( pRO->m_ntvRS[0].pLitVerticesWithNormals2Tex );

  003d1	8b 45 18	 mov	 eax, DWORD PTR _pRO$[ebp]
  003d4	83 78 40 00	 cmp	 DWORD PTR [eax+64], 0
  003d8	75 1c		 jne	 SHORT $L85767
  003da	8b 0d 00 00 00
	00		 mov	 ecx, DWORD PTR ?__LINE__Var@?1??CreateFastPatch@CTerrainPatch@@QAEJHPAUD3DXVECTOR3@@MMPAVCProceduralRenderObject@@PAMPAUD3DXCOLOR@@KKMMH0HH@Z@4JA
  003e0	83 c1 4f	 add	 ecx, 79			; 0000004fH
  003e3	51		 push	 ecx
  003e4	68 00 00 00 00	 push	 OFFSET FLAT:??_C@_0EP@CNFCBLDK@c?3?2documents?5and?5settings?2dom?2my@
  003e9	68 00 00 00 00	 push	 OFFSET FLAT:??_C@_0CM@NADHOHA@pRO?9?$DOm_ntvRS?$FL0?$FN?4pLitVerticesWith@
  003ee	e8 00 00 00 00	 call	 __assert
  003f3	83 c4 0c	 add	 esp, 12			; 0000000cH
$L85767:

; 272  : 		}
; 273  : 
; 274  : 		pRO->m_ntvRS[0].pIndices = new WORD[pRO->m_ntvRS[0].dwNumIndices] ;

  003f6	8b 45 18	 mov	 eax, DWORD PTR _pRO$[ebp]
  003f9	8b 48 4c	 mov	 ecx, DWORD PTR [eax+76]
  003fc	d1 e1		 shl	 ecx, 1
  003fe	51		 push	 ecx
  003ff	e8 00 00 00 00	 call	 ??2@YAPAXI@Z		; operator new
  00404	83 c4 04	 add	 esp, 4
  00407	89 85 6c f9 ff
	ff		 mov	 DWORD PTR $T86398[ebp], eax
  0040d	8b 55 18	 mov	 edx, DWORD PTR _pRO$[ebp]
  00410	8b 85 6c f9 ff
	ff		 mov	 eax, DWORD PTR $T86398[ebp]
  00416	89 42 44	 mov	 DWORD PTR [edx+68], eax

; 275  : 		pRO->m_dwMem_IndexedVerts += sizeof(WORD) * pRO->m_ntvRS[0].dwNumIndices ;

  00419	8b 45 18	 mov	 eax, DWORD PTR _pRO$[ebp]
  0041c	8b 48 4c	 mov	 ecx, DWORD PTR [eax+76]
  0041f	8b 55 18	 mov	 edx, DWORD PTR _pRO$[ebp]
  00422	8b 42 1c	 mov	 eax, DWORD PTR [edx+28]
  00425	8d 0c 48	 lea	 ecx, DWORD PTR [eax+ecx*2]
  00428	8b 55 18	 mov	 edx, DWORD PTR _pRO$[ebp]
  0042b	89 4a 1c	 mov	 DWORD PTR [edx+28], ecx

; 276  : 		assert( pRO->m_ntvRS[0].pIndices );

  0042e	8b 45 18	 mov	 eax, DWORD PTR _pRO$[ebp]
  00431	83 78 44 00	 cmp	 DWORD PTR [eax+68], 0
  00435	75 1c		 jne	 SHORT $L86399
  00437	8b 0d 00 00 00
	00		 mov	 ecx, DWORD PTR ?__LINE__Var@?1??CreateFastPatch@CTerrainPatch@@QAEJHPAUD3DXVECTOR3@@MMPAVCProceduralRenderObject@@PAMPAUD3DXCOLOR@@KKMMH0HH@Z@4JA
  0043d	83 c1 54	 add	 ecx, 84			; 00000054H
  00440	51		 push	 ecx
  00441	68 00 00 00 00	 push	 OFFSET FLAT:??_C@_0EP@CNFCBLDK@c?3?2documents?5and?5settings?2dom?2my@
  00446	68 00 00 00 00	 push	 OFFSET FLAT:??_C@_0BJ@DOHKAGPM@pRO?9?$DOm_ntvRS?$FL0?$FN?4pIndices?$AA@
  0044b	e8 00 00 00 00	 call	 __assert
  00450	83 c4 0c	 add	 esp, 12			; 0000000cH
$L86399:

; 277  : 
; 278  : 	//
; 279  : 	// Build list of distinct vertices (uniform spaced grid):
; 280  : 	//
; 281  : 		int   nX = 0, nY = 0 ;

  00453	c7 85 34 ff ff
	ff 00 00 00 00	 mov	 DWORD PTR _nX$[ebp], 0
  0045d	c7 85 28 ff ff
	ff 00 00 00 00	 mov	 DWORD PTR _nY$[ebp], 0

; 282  : 		float fX, fY ;
; 283  : 		for (unsigned nVert = 0 ; nVert < nVerts ; nVert ++)

  00467	c7 85 04 ff ff
	ff 00 00 00 00	 mov	 DWORD PTR _nVert$85784[ebp], 0
  00471	eb 0f		 jmp	 SHORT $L85785
$L85786:
  00473	8b 85 04 ff ff
	ff		 mov	 eax, DWORD PTR _nVert$85784[ebp]
  00479	83 c0 01	 add	 eax, 1
  0047c	89 85 04 ff ff
	ff		 mov	 DWORD PTR _nVert$85784[ebp], eax
$L85785:
  00482	8b 85 04 ff ff
	ff		 mov	 eax, DWORD PTR _nVert$85784[ebp]
  00488	3b 45 a4	 cmp	 eax, DWORD PTR _nVerts$[ebp]
  0048b	0f 83 50 0c 00
	00		 jae	 $L85787

; 284  : 		{
; 285  : 			float r, g, b, a ;
; 286  : 
; 287  : 			int nHeightmapDelta = m_nPatchMaxLODSQ / nPatchSQ ;

  00491	8b 45 f8	 mov	 eax, DWORD PTR _this$[ebp]
  00494	8b 00		 mov	 eax, DWORD PTR [eax]
  00496	99		 cdq
  00497	f7 7d 08	 idiv	 DWORD PTR _nPatchSQ$[ebp]
  0049a	89 85 c8 fe ff
	ff		 mov	 DWORD PTR _nHeightmapDelta$85792[ebp], eax

; 288  : 
; 289  : 			if (nVert % (nPatchSQ + 1) == 0)

  004a0	8b 4d 08	 mov	 ecx, DWORD PTR _nPatchSQ$[ebp]
  004a3	83 c1 01	 add	 ecx, 1
  004a6	8b 85 04 ff ff
	ff		 mov	 eax, DWORD PTR _nVert$85784[ebp]
  004ac	33 d2		 xor	 edx, edx
  004ae	f7 f1		 div	 ecx
  004b0	85 d2		 test	 edx, edx
  004b2	75 60		 jne	 SHORT $L85793

; 290  : 			{
; 291  : 				nX = 0 ;

  004b4	c7 85 34 ff ff
	ff 00 00 00 00	 mov	 DWORD PTR _nX$[ebp], 0

; 292  : 				if (nVert > 0)

  004be	83 bd 04 ff ff
	ff 00		 cmp	 DWORD PTR _nVert$85784[ebp], 0
  004c5	76 4b		 jbe	 SHORT $L85794

; 293  : 				{
; 294  : 					nY++ ;

  004c7	8b 85 28 ff ff
	ff		 mov	 eax, DWORD PTR _nY$[ebp]
  004cd	83 c0 01	 add	 eax, 1
  004d0	89 85 28 ff ff
	ff		 mov	 DWORD PTR _nY$[ebp], eax

; 295  : 					// drop down one row in the heightmap:
; 296  : 					pfHeightmap += (ulNextRowHeightmapDelta + (ulMaxExtent * (nHeightmapDelta-1)) ) ;

  004d6	8b 85 c8 fe ff
	ff		 mov	 eax, DWORD PTR _nHeightmapDelta$85792[ebp]
  004dc	83 e8 01	 sub	 eax, 1
  004df	8b 4d 28	 mov	 ecx, DWORD PTR _ulMaxExtent$[ebp]
  004e2	0f af c8	 imul	 ecx, eax
  004e5	8b 55 24	 mov	 edx, DWORD PTR _ulNextRowHeightmapDelta$[ebp]
  004e8	03 d1		 add	 edx, ecx
  004ea	8b 45 1c	 mov	 eax, DWORD PTR _pfHeightmap$[ebp]
  004ed	8d 0c 90	 lea	 ecx, DWORD PTR [eax+edx*4]
  004f0	89 4d 1c	 mov	 DWORD PTR _pfHeightmap$[ebp], ecx

; 297  : 					pColormap += (ulNextRowHeightmapDelta + (ulMaxExtent * (nHeightmapDelta-1)) ) ;

  004f3	8b 85 c8 fe ff
	ff		 mov	 eax, DWORD PTR _nHeightmapDelta$85792[ebp]
  004f9	83 e8 01	 sub	 eax, 1
  004fc	8b 4d 28	 mov	 ecx, DWORD PTR _ulMaxExtent$[ebp]
  004ff	0f af c8	 imul	 ecx, eax
  00502	8b 55 24	 mov	 edx, DWORD PTR _ulNextRowHeightmapDelta$[ebp]
  00505	03 d1		 add	 edx, ecx
  00507	c1 e2 04	 shl	 edx, 4
  0050a	8b 45 20	 mov	 eax, DWORD PTR _pColormap$[ebp]
  0050d	03 c2		 add	 eax, edx
  0050f	89 45 20	 mov	 DWORD PTR _pColormap$[ebp], eax
$L85794:

; 298  : 				}
; 299  : 			}
; 300  : 			else

  00512	eb 0f		 jmp	 SHORT $L85795
$L85793:

; 301  : 				nX++ ;

  00514	8b 85 34 ff ff
	ff		 mov	 eax, DWORD PTR _nX$[ebp]
  0051a	83 c0 01	 add	 eax, 1
  0051d	89 85 34 ff ff
	ff		 mov	 DWORD PTR _nX$[ebp], eax
$L85795:

; 302  : 
; 303  : 			fX = (float)nX / (float)nPatchSQ ;

  00523	db 85 34 ff ff
	ff		 fild	 DWORD PTR _nX$[ebp]
  00529	da 75 08	 fidiv	 DWORD PTR _nPatchSQ$[ebp]
  0052c	d9 9d 1c ff ff
	ff		 fstp	 DWORD PTR _fX$[ebp]

; 304  : 			fY = (float)nY / (float)nPatchSQ ;

  00532	db 85 28 ff ff
	ff		 fild	 DWORD PTR _nY$[ebp]
  00538	da 75 08	 fidiv	 DWORD PTR _nPatchSQ$[ebp]
  0053b	d9 9d 10 ff ff
	ff		 fstp	 DWORD PTR _fY$[ebp]

; 305  : 
; 306  : 		// assign colours
; 307  : 			r = pColormap->r ; g = pColormap->g ; b = pColormap->b ; a = pColormap->a ;

  00541	8b 45 20	 mov	 eax, DWORD PTR _pColormap$[ebp]
  00544	8b 08		 mov	 ecx, DWORD PTR [eax]
  00546	89 8d f8 fe ff
	ff		 mov	 DWORD PTR _r$85788[ebp], ecx
  0054c	8b 45 20	 mov	 eax, DWORD PTR _pColormap$[ebp]
  0054f	8b 48 04	 mov	 ecx, DWORD PTR [eax+4]
  00552	89 8d ec fe ff
	ff		 mov	 DWORD PTR _g$85789[ebp], ecx
  00558	8b 45 20	 mov	 eax, DWORD PTR _pColormap$[ebp]
  0055b	8b 48 08	 mov	 ecx, DWORD PTR [eax+8]
  0055e	89 8d e0 fe ff
	ff		 mov	 DWORD PTR _b$85790[ebp], ecx
  00564	8b 45 20	 mov	 eax, DWORD PTR _pColormap$[ebp]
  00567	8b 48 0c	 mov	 ecx, DWORD PTR [eax+12]
  0056a	89 8d d4 fe ff
	ff		 mov	 DWORD PTR _a$85791[ebp], ecx

; 308  : 			//TerrainVertexColours(&r, &g, &b, &a, *pfHeightmap, fMaxY, fMinY) ;
; 309  : 
; 310  : 			float fVertexX = pvTL->x + fX * fWidth,

  00570	d9 85 1c ff ff
	ff		 fld	 DWORD PTR _fX$[ebp]
  00576	d8 4d 10	 fmul	 DWORD PTR _fWidth$[ebp]
  00579	8b 45 0c	 mov	 eax, DWORD PTR _pvTL$[ebp]
  0057c	d8 00		 fadd	 DWORD PTR [eax]
  0057e	d9 9d bc fe ff
	ff		 fstp	 DWORD PTR _fVertexX$85800[ebp]

; 311  : 				  fVertexY = *pfHeightmap,

  00584	8b 45 1c	 mov	 eax, DWORD PTR _pfHeightmap$[ebp]
  00587	8b 08		 mov	 ecx, DWORD PTR [eax]
  00589	89 8d b0 fe ff
	ff		 mov	 DWORD PTR _fVertexY$85801[ebp], ecx

; 312  : 				  fVertexZ = pvTL->z + fY * fDepth ;

  0058f	d9 85 10 ff ff
	ff		 fld	 DWORD PTR _fY$[ebp]
  00595	d8 4d 14	 fmul	 DWORD PTR _fDepth$[ebp]
  00598	8b 45 0c	 mov	 eax, DWORD PTR _pvTL$[ebp]
  0059b	d8 40 08	 fadd	 DWORD PTR [eax+8]
  0059e	d9 9d a4 fe ff
	ff		 fstp	 DWORD PTR _fVertexZ$85802[ebp]

; 313  : 
; 314  : 		// we must supply bounding box data manually for non-D3DXMesh Render Objects:
; 315  : 			if (nVert == 0)

  005a4	83 bd 04 ff ff
	ff 00		 cmp	 DWORD PTR _nVert$85784[ebp], 0
  005ab	75 5e		 jne	 SHORT $L85803

; 316  : 				vMin = vMax = xVec3(fVertexX, fVertexY, fVertexZ) ;

  005ad	8b 85 a4 fe ff
	ff		 mov	 eax, DWORD PTR _fVertexZ$85802[ebp]
  005b3	50		 push	 eax
  005b4	8b 8d b0 fe ff
	ff		 mov	 ecx, DWORD PTR _fVertexY$85801[ebp]
  005ba	51		 push	 ecx
  005bb	8b 95 bc fe ff
	ff		 mov	 edx, DWORD PTR _fVertexX$85800[ebp]
  005c1	52		 push	 edx
  005c2	8d 8d 58 f9 ff
	ff		 lea	 ecx, DWORD PTR $T86400[ebp]
  005c8	e8 00 00 00 00	 call	 ??0D3DXVECTOR3@@QAE@MMM@Z ; D3DXVECTOR3::D3DXVECTOR3
  005cd	8b 08		 mov	 ecx, DWORD PTR [eax]
  005cf	89 8d 40 ff ff
	ff		 mov	 DWORD PTR _vMax$[ebp], ecx
  005d5	8b 50 04	 mov	 edx, DWORD PTR [eax+4]
  005d8	89 95 44 ff ff
	ff		 mov	 DWORD PTR _vMax$[ebp+4], edx
  005de	8b 40 08	 mov	 eax, DWORD PTR [eax+8]
  005e1	89 85 48 ff ff
	ff		 mov	 DWORD PTR _vMax$[ebp+8], eax
  005e7	8b 8d 40 ff ff
	ff		 mov	 ecx, DWORD PTR _vMax$[ebp]
  005ed	89 8d 54 ff ff
	ff		 mov	 DWORD PTR _vMin$[ebp], ecx
  005f3	8b 95 44 ff ff
	ff		 mov	 edx, DWORD PTR _vMax$[ebp+4]
  005f9	89 95 58 ff ff
	ff		 mov	 DWORD PTR _vMin$[ebp+4], edx
  005ff	8b 85 48 ff ff
	ff		 mov	 eax, DWORD PTR _vMax$[ebp+8]
  00605	89 85 5c ff ff
	ff		 mov	 DWORD PTR _vMin$[ebp+8], eax
$L85803:

; 317  : 			if (fVertexX > vMax.x) vMax.x = fVertexX ;

  0060b	d9 85 bc fe ff
	ff		 fld	 DWORD PTR _fVertexX$85800[ebp]
  00611	d8 9d 40 ff ff
	ff		 fcomp	 DWORD PTR _vMax$[ebp]
  00617	df e0		 fnstsw	 ax
  00619	f6 c4 41	 test	 ah, 65			; 00000041H
  0061c	75 0c		 jne	 SHORT $L85805
  0061e	8b 85 bc fe ff
	ff		 mov	 eax, DWORD PTR _fVertexX$85800[ebp]
  00624	89 85 40 ff ff
	ff		 mov	 DWORD PTR _vMax$[ebp], eax
$L85805:

; 318  : 			if (fVertexY > vMax.y) vMax.y = fVertexY ;

  0062a	d9 85 b0 fe ff
	ff		 fld	 DWORD PTR _fVertexY$85801[ebp]
  00630	d8 9d 44 ff ff
	ff		 fcomp	 DWORD PTR _vMax$[ebp+4]
  00636	df e0		 fnstsw	 ax
  00638	f6 c4 41	 test	 ah, 65			; 00000041H
  0063b	75 0c		 jne	 SHORT $L85806
  0063d	8b 85 b0 fe ff
	ff		 mov	 eax, DWORD PTR _fVertexY$85801[ebp]
  00643	89 85 44 ff ff
	ff		 mov	 DWORD PTR _vMax$[ebp+4], eax
$L85806:

; 319  : 			if (fVertexZ > vMax.z) vMax.z = fVertexZ ;

  00649	d9 85 a4 fe ff
	ff		 fld	 DWORD PTR _fVertexZ$85802[ebp]
  0064f	d8 9d 48 ff ff
	ff		 fcomp	 DWORD PTR _vMax$[ebp+8]
  00655	df e0		 fnstsw	 ax
  00657	f6 c4 41	 test	 ah, 65			; 00000041H
  0065a	75 0c		 jne	 SHORT $L85807
  0065c	8b 85 a4 fe ff
	ff		 mov	 eax, DWORD PTR _fVertexZ$85802[ebp]
  00662	89 85 48 ff ff
	ff		 mov	 DWORD PTR _vMax$[ebp+8], eax
$L85807:

; 320  : 
; 321  : 			if (fVertexX < vMin.x) vMin.x = fVertexX ;

  00668	d9 85 bc fe ff
	ff		 fld	 DWORD PTR _fVertexX$85800[ebp]
  0066e	d8 9d 54 ff ff
	ff		 fcomp	 DWORD PTR _vMin$[ebp]
  00674	df e0		 fnstsw	 ax
  00676	f6 c4 05	 test	 ah, 5
  00679	7a 0c		 jp	 SHORT $L85808
  0067b	8b 85 bc fe ff
	ff		 mov	 eax, DWORD PTR _fVertexX$85800[ebp]
  00681	89 85 54 ff ff
	ff		 mov	 DWORD PTR _vMin$[ebp], eax
$L85808:

; 322  : 			if (fVertexY < vMin.y) vMin.y = fVertexY ;

  00687	d9 85 b0 fe ff
	ff		 fld	 DWORD PTR _fVertexY$85801[ebp]
  0068d	d8 9d 58 ff ff
	ff		 fcomp	 DWORD PTR _vMin$[ebp+4]
  00693	df e0		 fnstsw	 ax
  00695	f6 c4 05	 test	 ah, 5
  00698	7a 0c		 jp	 SHORT $L85809
  0069a	8b 85 b0 fe ff
	ff		 mov	 eax, DWORD PTR _fVertexY$85801[ebp]
  006a0	89 85 58 ff ff
	ff		 mov	 DWORD PTR _vMin$[ebp+4], eax
$L85809:

; 323  : 			if (fVertexZ < vMin.z) vMin.z = fVertexZ ;

  006a6	d9 85 a4 fe ff
	ff		 fld	 DWORD PTR _fVertexZ$85802[ebp]
  006ac	d8 9d 5c ff ff
	ff		 fcomp	 DWORD PTR _vMin$[ebp+8]
  006b2	df e0		 fnstsw	 ax
  006b4	f6 c4 05	 test	 ah, 5
  006b7	7a 0c		 jp	 SHORT $L85810
  006b9	8b 85 a4 fe ff
	ff		 mov	 eax, DWORD PTR _fVertexZ$85802[ebp]
  006bf	89 85 5c ff ff
	ff		 mov	 DWORD PTR _vMin$[ebp+8], eax
$L85810:

; 324  : 			
; 325  : 		// add the vertex to the render object
; 326  : 			AddVertex(pRO, nVert, fVertexX, fVertexY, fVertexZ, fX, fY, a, r, g, b) ;

  006c5	8b 85 e0 fe ff
	ff		 mov	 eax, DWORD PTR _b$85790[ebp]
  006cb	50		 push	 eax
  006cc	8b 8d ec fe ff
	ff		 mov	 ecx, DWORD PTR _g$85789[ebp]
  006d2	51		 push	 ecx
  006d3	8b 95 f8 fe ff
	ff		 mov	 edx, DWORD PTR _r$85788[ebp]
  006d9	52		 push	 edx
  006da	8b 85 d4 fe ff
	ff		 mov	 eax, DWORD PTR _a$85791[ebp]
  006e0	50		 push	 eax
  006e1	8b 8d 10 ff ff
	ff		 mov	 ecx, DWORD PTR _fY$[ebp]
  006e7	51		 push	 ecx
  006e8	8b 95 1c ff ff
	ff		 mov	 edx, DWORD PTR _fX$[ebp]
  006ee	52		 push	 edx
  006ef	8b 85 a4 fe ff
	ff		 mov	 eax, DWORD PTR _fVertexZ$85802[ebp]
  006f5	50		 push	 eax
  006f6	8b 8d b0 fe ff
	ff		 mov	 ecx, DWORD PTR _fVertexY$85801[ebp]
  006fc	51		 push	 ecx
  006fd	8b 95 bc fe ff
	ff		 mov	 edx, DWORD PTR _fVertexX$85800[ebp]
  00703	52		 push	 edx
  00704	8b 85 04 ff ff
	ff		 mov	 eax, DWORD PTR _nVert$85784[ebp]
  0070a	50		 push	 eax
  0070b	8b 4d 18	 mov	 ecx, DWORD PTR _pRO$[ebp]
  0070e	51		 push	 ecx
  0070f	8b 4d f8	 mov	 ecx, DWORD PTR _this$[ebp]
  00712	e8 00 00 00 00	 call	 ?AddVertex@CTerrainPatch@@QAEXPAVCProceduralRenderObject@@HMMMMMMMMM@Z ; CTerrainPatch::AddVertex

; 327  : 
; 328  : 		//
; 329  : 		// Items:
; 330  : 		//
; 331  : 			if( m_nPatchMaxLODSQ == nPatchSQ && 
; 332  : 				nX > 0 && nX < nPatchSQ-1 && nY > 0 && nY < nPatchSQ-1 )

  00717	8b 45 f8	 mov	 eax, DWORD PTR _this$[ebp]
  0071a	8b 08		 mov	 ecx, DWORD PTR [eax]
  0071c	3b 4d 08	 cmp	 ecx, DWORD PTR _nPatchSQ$[ebp]
  0071f	0f 85 41 09 00
	00		 jne	 $L85811
  00725	83 bd 34 ff ff
	ff 00		 cmp	 DWORD PTR _nX$[ebp], 0
  0072c	0f 8e 34 09 00
	00		 jle	 $L85811
  00732	8b 45 08	 mov	 eax, DWORD PTR _nPatchSQ$[ebp]
  00735	83 e8 01	 sub	 eax, 1
  00738	39 85 34 ff ff
	ff		 cmp	 DWORD PTR _nX$[ebp], eax
  0073e	0f 8d 22 09 00
	00		 jge	 $L85811
  00744	83 bd 28 ff ff
	ff 00		 cmp	 DWORD PTR _nY$[ebp], 0
  0074b	0f 8e 15 09 00
	00		 jle	 $L85811
  00751	8b 45 08	 mov	 eax, DWORD PTR _nPatchSQ$[ebp]
  00754	83 e8 01	 sub	 eax, 1
  00757	39 85 28 ff ff
	ff		 cmp	 DWORD PTR _nY$[ebp], eax
  0075d	0f 8d 03 09 00
	00		 jge	 $L85811

; 333  : 			{
; 334  : 			// cherries
; 335  : 				if( rnd() < m_fCherryProb )

  00763	e8 00 00 00 00	 call	 ?rnd@@YAMXZ		; rnd
  00768	8b 45 f8	 mov	 eax, DWORD PTR _this$[ebp]
  0076b	d8 58 24	 fcomp	 DWORD PTR [eax+36]
  0076e	df e0		 fnstsw	 ax
  00770	f6 c4 05	 test	 ah, 5
  00773	0f 8a c9 01 00
	00		 jp	 $L85812

; 336  : 					if( (float)m_nCherries < m_fCherriesReq )

  00779	8b 45 f8	 mov	 eax, DWORD PTR _this$[ebp]
  0077c	db 40 1c	 fild	 DWORD PTR [eax+28]
  0077f	8b 4d f8	 mov	 ecx, DWORD PTR _this$[ebp]
  00782	d8 59 20	 fcomp	 DWORD PTR [ecx+32]
  00785	df e0		 fnstsw	 ax
  00787	f6 c4 05	 test	 ah, 5
  0078a	0f 8a b2 01 00
	00		 jp	 $L85812

; 337  : 					{
; 338  : 						m_pItems[ m_nItems ].nType = IT_CHERRY ;

  00790	8b 45 f8	 mov	 eax, DWORD PTR _this$[ebp]
  00793	8b 48 10	 mov	 ecx, DWORD PTR [eax+16]
  00796	6b c9 2c	 imul	 ecx, 44			; 0000002cH
  00799	8b 55 f8	 mov	 edx, DWORD PTR _this$[ebp]
  0079c	8b 42 0c	 mov	 eax, DWORD PTR [edx+12]
  0079f	c7 04 01 00 00
	00 00		 mov	 DWORD PTR [ecx+eax], 0

; 339  : 						m_pItems[ m_nItems ].fRadius = 1.0f ;

  007a6	8b 45 f8	 mov	 eax, DWORD PTR _this$[ebp]
  007a9	8b 48 10	 mov	 ecx, DWORD PTR [eax+16]
  007ac	6b c9 2c	 imul	 ecx, 44			; 0000002cH
  007af	8b 55 f8	 mov	 edx, DWORD PTR _this$[ebp]
  007b2	8b 42 0c	 mov	 eax, DWORD PTR [edx+12]
  007b5	c7 44 08 10 00
	00 80 3f	 mov	 DWORD PTR [eax+ecx+16], 1065353216 ; 3f800000H

; 340  : 						m_pItems[ m_nItems ].vPos = xVec3( fVertexX, fVertexY + m_pItems[ m_nItems ].fRadius, fVertexZ );

  007bd	8b 85 a4 fe ff
	ff		 mov	 eax, DWORD PTR _fVertexZ$85802[ebp]
  007c3	50		 push	 eax
  007c4	8b 4d f8	 mov	 ecx, DWORD PTR _this$[ebp]
  007c7	8b 51 10	 mov	 edx, DWORD PTR [ecx+16]
  007ca	6b d2 2c	 imul	 edx, 44			; 0000002cH
  007cd	8b 45 f8	 mov	 eax, DWORD PTR _this$[ebp]
  007d0	8b 48 0c	 mov	 ecx, DWORD PTR [eax+12]
  007d3	d9 85 b0 fe ff
	ff		 fld	 DWORD PTR _fVertexY$85801[ebp]
  007d9	d8 44 11 10	 fadd	 DWORD PTR [ecx+edx+16]
  007dd	51		 push	 ecx
  007de	d9 1c 24	 fstp	 DWORD PTR [esp]
  007e1	8b 95 bc fe ff
	ff		 mov	 edx, DWORD PTR _fVertexX$85800[ebp]
  007e7	52		 push	 edx
  007e8	8d 8d 44 f9 ff
	ff		 lea	 ecx, DWORD PTR $T86401[ebp]
  007ee	e8 00 00 00 00	 call	 ??0D3DXVECTOR3@@QAE@MMM@Z ; D3DXVECTOR3::D3DXVECTOR3
  007f3	8b 4d f8	 mov	 ecx, DWORD PTR _this$[ebp]
  007f6	8b 51 10	 mov	 edx, DWORD PTR [ecx+16]
  007f9	6b d2 2c	 imul	 edx, 44			; 0000002cH
  007fc	8b 4d f8	 mov	 ecx, DWORD PTR _this$[ebp]
  007ff	8b 49 0c	 mov	 ecx, DWORD PTR [ecx+12]
  00802	8d 54 11 04	 lea	 edx, DWORD PTR [ecx+edx+4]
  00806	8b 08		 mov	 ecx, DWORD PTR [eax]
  00808	89 0a		 mov	 DWORD PTR [edx], ecx
  0080a	8b 48 04	 mov	 ecx, DWORD PTR [eax+4]
  0080d	89 4a 04	 mov	 DWORD PTR [edx+4], ecx
  00810	8b 40 08	 mov	 eax, DWORD PTR [eax+8]
  00813	89 42 08	 mov	 DWORD PTR [edx+8], eax

; 341  : //ods( "dropped a cherry @(%0.1f, %0.1f, %0.1f)\n", m_pItems[ m_nItems ].vPos.x, m_pItems[ m_nItems ].vPos.y, m_pItems[ m_nItems ].vPos.z );
; 342  : 						m_pItems[ m_nItems ].fRot = 0 ;

  00816	8b 45 f8	 mov	 eax, DWORD PTR _this$[ebp]
  00819	8b 48 10	 mov	 ecx, DWORD PTR [eax+16]
  0081c	6b c9 2c	 imul	 ecx, 44			; 0000002cH
  0081f	8b 55 f8	 mov	 edx, DWORD PTR _this$[ebp]
  00822	8b 42 0c	 mov	 eax, DWORD PTR [edx+12]
  00825	c7 44 08 14 00
	00 00 00	 mov	 DWORD PTR [eax+ecx+20], 0

; 343  : 						m_pItems[ m_nItems ].fShine = 0 ;

  0082d	8b 45 f8	 mov	 eax, DWORD PTR _this$[ebp]
  00830	8b 48 10	 mov	 ecx, DWORD PTR [eax+16]
  00833	6b c9 2c	 imul	 ecx, 44			; 0000002cH
  00836	8b 55 f8	 mov	 edx, DWORD PTR _this$[ebp]
  00839	8b 42 0c	 mov	 eax, DWORD PTR [edx+12]
  0083c	c7 44 08 18 00
	00 00 00	 mov	 DWORD PTR [eax+ecx+24], 0

; 344  : 						m_pItems[ m_nItems ].fShineModSpeed = 0.75f ;

  00844	8b 45 f8	 mov	 eax, DWORD PTR _this$[ebp]
  00847	8b 48 10	 mov	 ecx, DWORD PTR [eax+16]
  0084a	6b c9 2c	 imul	 ecx, 44			; 0000002cH
  0084d	8b 55 f8	 mov	 edx, DWORD PTR _this$[ebp]
  00850	8b 42 0c	 mov	 eax, DWORD PTR [edx+12]
  00853	c7 44 08 1c 00
	00 40 3f	 mov	 DWORD PTR [eax+ecx+28], 1061158912 ; 3f400000H

; 345  : 						m_pItems[ m_nItems ].fX1 = 0 ;

  0085b	8b 45 f8	 mov	 eax, DWORD PTR _this$[ebp]
  0085e	8b 48 10	 mov	 ecx, DWORD PTR [eax+16]
  00861	6b c9 2c	 imul	 ecx, 44			; 0000002cH
  00864	8b 55 f8	 mov	 edx, DWORD PTR _this$[ebp]
  00867	8b 42 0c	 mov	 eax, DWORD PTR [edx+12]
  0086a	c7 44 08 20 00
	00 00 00	 mov	 DWORD PTR [eax+ecx+32], 0

; 346  : 						m_pItems[ m_nItems ].fY1 = 0 ;

  00872	8b 45 f8	 mov	 eax, DWORD PTR _this$[ebp]
  00875	8b 48 10	 mov	 ecx, DWORD PTR [eax+16]
  00878	6b c9 2c	 imul	 ecx, 44			; 0000002cH
  0087b	8b 55 f8	 mov	 edx, DWORD PTR _this$[ebp]
  0087e	8b 42 0c	 mov	 eax, DWORD PTR [edx+12]
  00881	c7 44 08 24 00
	00 00 00	 mov	 DWORD PTR [eax+ecx+36], 0

; 347  : 						m_pItems[ m_nItems ].fZ1 = 0 ;

  00889	8b 45 f8	 mov	 eax, DWORD PTR _this$[ebp]
  0088c	8b 48 10	 mov	 ecx, DWORD PTR [eax+16]
  0088f	6b c9 2c	 imul	 ecx, 44			; 0000002cH
  00892	8b 55 f8	 mov	 edx, DWORD PTR _this$[ebp]
  00895	8b 42 0c	 mov	 eax, DWORD PTR [edx+12]
  00898	c7 44 08 28 00
	00 00 00	 mov	 DWORD PTR [eax+ecx+40], 0

; 348  : 						if( m_pItems[ m_nItems ].vPos.y + m_pItems[ m_nItems ].fRadius > fItemMaxY )

  008a0	8b 45 f8	 mov	 eax, DWORD PTR _this$[ebp]
  008a3	8b 48 10	 mov	 ecx, DWORD PTR [eax+16]
  008a6	6b c9 2c	 imul	 ecx, 44			; 0000002cH
  008a9	8b 55 f8	 mov	 edx, DWORD PTR _this$[ebp]
  008ac	8b 42 0c	 mov	 eax, DWORD PTR [edx+12]
  008af	8b 55 f8	 mov	 edx, DWORD PTR _this$[ebp]
  008b2	8b 52 10	 mov	 edx, DWORD PTR [edx+16]
  008b5	6b d2 2c	 imul	 edx, 44			; 0000002cH
  008b8	8b 75 f8	 mov	 esi, DWORD PTR _this$[ebp]
  008bb	8b 76 0c	 mov	 esi, DWORD PTR [esi+12]
  008be	d9 44 08 08	 fld	 DWORD PTR [eax+ecx+8]
  008c2	d8 44 16 10	 fadd	 DWORD PTR [esi+edx+16]
  008c6	d8 5d ec	 fcomp	 DWORD PTR _fItemMaxY$[ebp]
  008c9	df e0		 fnstsw	 ax
  008cb	f6 c4 41	 test	 ah, 65			; 00000041H
  008ce	75 29		 jne	 SHORT $L85816

; 349  : 							fItemMaxY = m_pItems[ m_nItems ].vPos.y + m_pItems[ m_nItems ].fRadius ;

  008d0	8b 45 f8	 mov	 eax, DWORD PTR _this$[ebp]
  008d3	8b 48 10	 mov	 ecx, DWORD PTR [eax+16]
  008d6	6b c9 2c	 imul	 ecx, 44			; 0000002cH
  008d9	8b 55 f8	 mov	 edx, DWORD PTR _this$[ebp]
  008dc	8b 42 0c	 mov	 eax, DWORD PTR [edx+12]
  008df	8b 55 f8	 mov	 edx, DWORD PTR _this$[ebp]
  008e2	8b 52 10	 mov	 edx, DWORD PTR [edx+16]
  008e5	6b d2 2c	 imul	 edx, 44			; 0000002cH
  008e8	8b 75 f8	 mov	 esi, DWORD PTR _this$[ebp]
  008eb	8b 76 0c	 mov	 esi, DWORD PTR [esi+12]
  008ee	d9 44 08 08	 fld	 DWORD PTR [eax+ecx+8]
  008f2	d8 44 16 10	 fadd	 DWORD PTR [esi+edx+16]
  008f6	d9 5d ec	 fstp	 DWORD PTR _fItemMaxY$[ebp]
$L85816:

; 350  : 						m_nCherries++ ;

  008f9	8b 45 f8	 mov	 eax, DWORD PTR _this$[ebp]
  008fc	8b 48 1c	 mov	 ecx, DWORD PTR [eax+28]
  008ff	83 c1 01	 add	 ecx, 1
  00902	8b 55 f8	 mov	 edx, DWORD PTR _this$[ebp]
  00905	89 4a 1c	 mov	 DWORD PTR [edx+28], ecx

; 351  : 						m_nItems++ ;

  00908	8b 45 f8	 mov	 eax, DWORD PTR _this$[ebp]
  0090b	8b 48 10	 mov	 ecx, DWORD PTR [eax+16]
  0090e	83 c1 01	 add	 ecx, 1
  00911	8b 55 f8	 mov	 edx, DWORD PTR _this$[ebp]
  00914	89 4a 10	 mov	 DWORD PTR [edx+16], ecx

; 352  : 						assert( m_nItems <= m_nItemsActuallyAllocated );

  00917	8b 45 f8	 mov	 eax, DWORD PTR _this$[ebp]
  0091a	8b 4d f8	 mov	 ecx, DWORD PTR _this$[ebp]
  0091d	8b 50 10	 mov	 edx, DWORD PTR [eax+16]
  00920	3b 51 18	 cmp	 edx, DWORD PTR [ecx+24]
  00923	7e 1d		 jle	 SHORT $L85812
  00925	a1 00 00 00 00	 mov	 eax, DWORD PTR ?__LINE__Var@?1??CreateFastPatch@CTerrainPatch@@QAEJHPAUD3DXVECTOR3@@MMPAVCProceduralRenderObject@@PAMPAUD3DXCOLOR@@KKMMH0HH@Z@4JA
  0092a	05 a0 00 00 00	 add	 eax, 160		; 000000a0H
  0092f	50		 push	 eax
  00930	68 00 00 00 00	 push	 OFFSET FLAT:??_C@_0EP@CNFCBLDK@c?3?2documents?5and?5settings?2dom?2my@
  00935	68 00 00 00 00	 push	 OFFSET FLAT:??_C@_0CG@KJICNLAP@m_nItems?5?$DM?$DN?5m_nItemsActuallyAllo@
  0093a	e8 00 00 00 00	 call	 __assert
  0093f	83 c4 0c	 add	 esp, 12			; 0000000cH
$L85812:

; 353  : 					}
; 354  : 
; 355  : 			// shield pwr ups
; 356  : 				if( rnd() < m_fShieldPwrUpProb )

  00942	e8 00 00 00 00	 call	 ?rnd@@YAMXZ		; rnd
  00947	8b 45 f8	 mov	 eax, DWORD PTR _this$[ebp]
  0094a	d8 58 30	 fcomp	 DWORD PTR [eax+48]
  0094d	df e0		 fnstsw	 ax
  0094f	f6 c4 05	 test	 ah, 5
  00952	0f 8a b3 01 00
	00		 jp	 $L85819

; 357  : 					if( (float)m_nShieldPwrUps < m_fShieldPwrUpsReq )

  00958	8b 45 f8	 mov	 eax, DWORD PTR _this$[ebp]
  0095b	db 40 28	 fild	 DWORD PTR [eax+40]
  0095e	8b 4d f8	 mov	 ecx, DWORD PTR _this$[ebp]
  00961	d8 59 2c	 fcomp	 DWORD PTR [ecx+44]
  00964	df e0		 fnstsw	 ax
  00966	f6 c4 05	 test	 ah, 5
  00969	0f 8a 9c 01 00
	00		 jp	 $L85819

; 358  : 					{
; 359  : 						m_pItems[ m_nItems ].nType = IT_SHIELD ;

  0096f	8b 45 f8	 mov	 eax, DWORD PTR _this$[ebp]
  00972	8b 48 10	 mov	 ecx, DWORD PTR [eax+16]
  00975	6b c9 2c	 imul	 ecx, 44			; 0000002cH
  00978	8b 55 f8	 mov	 edx, DWORD PTR _this$[ebp]
  0097b	8b 42 0c	 mov	 eax, DWORD PTR [edx+12]
  0097e	c7 04 01 01 00
	00 00		 mov	 DWORD PTR [ecx+eax], 1

; 360  : 						m_pItems[ m_nItems ].fRadius = 1.0f ; //rnd() * 4.0f ;

  00985	8b 45 f8	 mov	 eax, DWORD PTR _this$[ebp]
  00988	8b 48 10	 mov	 ecx, DWORD PTR [eax+16]
  0098b	6b c9 2c	 imul	 ecx, 44			; 0000002cH
  0098e	8b 55 f8	 mov	 edx, DWORD PTR _this$[ebp]
  00991	8b 42 0c	 mov	 eax, DWORD PTR [edx+12]
  00994	c7 44 08 10 00
	00 80 3f	 mov	 DWORD PTR [eax+ecx+16], 1065353216 ; 3f800000H

; 361  : 						m_pItems[ m_nItems ].vPos = xVec3( fVertexX, fVertexY, fVertexZ );

  0099c	8b 85 a4 fe ff
	ff		 mov	 eax, DWORD PTR _fVertexZ$85802[ebp]
  009a2	50		 push	 eax
  009a3	8b 8d b0 fe ff
	ff		 mov	 ecx, DWORD PTR _fVertexY$85801[ebp]
  009a9	51		 push	 ecx
  009aa	8b 95 bc fe ff
	ff		 mov	 edx, DWORD PTR _fVertexX$85800[ebp]
  009b0	52		 push	 edx
  009b1	8d 8d 30 f9 ff
	ff		 lea	 ecx, DWORD PTR $T86403[ebp]
  009b7	e8 00 00 00 00	 call	 ??0D3DXVECTOR3@@QAE@MMM@Z ; D3DXVECTOR3::D3DXVECTOR3
  009bc	8b 4d f8	 mov	 ecx, DWORD PTR _this$[ebp]
  009bf	8b 51 10	 mov	 edx, DWORD PTR [ecx+16]
  009c2	6b d2 2c	 imul	 edx, 44			; 0000002cH
  009c5	8b 4d f8	 mov	 ecx, DWORD PTR _this$[ebp]
  009c8	8b 49 0c	 mov	 ecx, DWORD PTR [ecx+12]
  009cb	8d 54 11 04	 lea	 edx, DWORD PTR [ecx+edx+4]
  009cf	8b 08		 mov	 ecx, DWORD PTR [eax]
  009d1	89 0a		 mov	 DWORD PTR [edx], ecx
  009d3	8b 48 04	 mov	 ecx, DWORD PTR [eax+4]
  009d6	89 4a 04	 mov	 DWORD PTR [edx+4], ecx
  009d9	8b 40 08	 mov	 eax, DWORD PTR [eax+8]
  009dc	89 42 08	 mov	 DWORD PTR [edx+8], eax

; 362  : 						m_pItems[ m_nItems ].fRot = 0 ;

  009df	8b 45 f8	 mov	 eax, DWORD PTR _this$[ebp]
  009e2	8b 48 10	 mov	 ecx, DWORD PTR [eax+16]
  009e5	6b c9 2c	 imul	 ecx, 44			; 0000002cH
  009e8	8b 55 f8	 mov	 edx, DWORD PTR _this$[ebp]
  009eb	8b 42 0c	 mov	 eax, DWORD PTR [edx+12]
  009ee	c7 44 08 14 00
	00 00 00	 mov	 DWORD PTR [eax+ecx+20], 0

; 363  : 						m_pItems[ m_nItems ].fShine = 1 ;

  009f6	8b 45 f8	 mov	 eax, DWORD PTR _this$[ebp]
  009f9	8b 48 10	 mov	 ecx, DWORD PTR [eax+16]
  009fc	6b c9 2c	 imul	 ecx, 44			; 0000002cH
  009ff	8b 55 f8	 mov	 edx, DWORD PTR _this$[ebp]
  00a02	8b 42 0c	 mov	 eax, DWORD PTR [edx+12]
  00a05	c7 44 08 18 00
	00 80 3f	 mov	 DWORD PTR [eax+ecx+24], 1065353216 ; 3f800000H

; 364  : 						m_pItems[ m_nItems ].fShineModSpeed = 0 ;

  00a0d	8b 45 f8	 mov	 eax, DWORD PTR _this$[ebp]
  00a10	8b 48 10	 mov	 ecx, DWORD PTR [eax+16]
  00a13	6b c9 2c	 imul	 ecx, 44			; 0000002cH
  00a16	8b 55 f8	 mov	 edx, DWORD PTR _this$[ebp]
  00a19	8b 42 0c	 mov	 eax, DWORD PTR [edx+12]
  00a1c	c7 44 08 1c 00
	00 00 00	 mov	 DWORD PTR [eax+ecx+28], 0

; 365  : 						m_pItems[ m_nItems ].fX1 = 0 ;

  00a24	8b 45 f8	 mov	 eax, DWORD PTR _this$[ebp]
  00a27	8b 48 10	 mov	 ecx, DWORD PTR [eax+16]
  00a2a	6b c9 2c	 imul	 ecx, 44			; 0000002cH
  00a2d	8b 55 f8	 mov	 edx, DWORD PTR _this$[ebp]
  00a30	8b 42 0c	 mov	 eax, DWORD PTR [edx+12]
  00a33	c7 44 08 20 00
	00 00 00	 mov	 DWORD PTR [eax+ecx+32], 0

; 366  : 						m_pItems[ m_nItems ].fY1 = 0 ;

  00a3b	8b 45 f8	 mov	 eax, DWORD PTR _this$[ebp]
  00a3e	8b 48 10	 mov	 ecx, DWORD PTR [eax+16]
  00a41	6b c9 2c	 imul	 ecx, 44			; 0000002cH
  00a44	8b 55 f8	 mov	 edx, DWORD PTR _this$[ebp]
  00a47	8b 42 0c	 mov	 eax, DWORD PTR [edx+12]
  00a4a	c7 44 08 24 00
	00 00 00	 mov	 DWORD PTR [eax+ecx+36], 0

; 367  : 						m_pItems[ m_nItems ].fZ1 = 0 ;

  00a52	8b 45 f8	 mov	 eax, DWORD PTR _this$[ebp]
  00a55	8b 48 10	 mov	 ecx, DWORD PTR [eax+16]
  00a58	6b c9 2c	 imul	 ecx, 44			; 0000002cH
  00a5b	8b 55 f8	 mov	 edx, DWORD PTR _this$[ebp]
  00a5e	8b 42 0c	 mov	 eax, DWORD PTR [edx+12]
  00a61	c7 44 08 28 00
	00 00 00	 mov	 DWORD PTR [eax+ecx+40], 0

; 368  : 						if( m_pItems[ m_nItems ].vPos.y + m_pItems[ m_nItems ].fRadius > fItemMaxY )

  00a69	8b 45 f8	 mov	 eax, DWORD PTR _this$[ebp]
  00a6c	8b 48 10	 mov	 ecx, DWORD PTR [eax+16]
  00a6f	6b c9 2c	 imul	 ecx, 44			; 0000002cH
  00a72	8b 55 f8	 mov	 edx, DWORD PTR _this$[ebp]
  00a75	8b 42 0c	 mov	 eax, DWORD PTR [edx+12]
  00a78	8b 55 f8	 mov	 edx, DWORD PTR _this$[ebp]
  00a7b	8b 52 10	 mov	 edx, DWORD PTR [edx+16]
  00a7e	6b d2 2c	 imul	 edx, 44			; 0000002cH
  00a81	8b 75 f8	 mov	 esi, DWORD PTR _this$[ebp]
  00a84	8b 76 0c	 mov	 esi, DWORD PTR [esi+12]
  00a87	d9 44 08 08	 fld	 DWORD PTR [eax+ecx+8]
  00a8b	d8 44 16 10	 fadd	 DWORD PTR [esi+edx+16]
  00a8f	d8 5d ec	 fcomp	 DWORD PTR _fItemMaxY$[ebp]
  00a92	df e0		 fnstsw	 ax
  00a94	f6 c4 41	 test	 ah, 65			; 00000041H
  00a97	75 29		 jne	 SHORT $L85823

; 369  : 							fItemMaxY = m_pItems[ m_nItems ].vPos.y + m_pItems[ m_nItems ].fRadius ;

  00a99	8b 45 f8	 mov	 eax, DWORD PTR _this$[ebp]
  00a9c	8b 48 10	 mov	 ecx, DWORD PTR [eax+16]
  00a9f	6b c9 2c	 imul	 ecx, 44			; 0000002cH
  00aa2	8b 55 f8	 mov	 edx, DWORD PTR _this$[ebp]
  00aa5	8b 42 0c	 mov	 eax, DWORD PTR [edx+12]
  00aa8	8b 55 f8	 mov	 edx, DWORD PTR _this$[ebp]
  00aab	8b 52 10	 mov	 edx, DWORD PTR [edx+16]
  00aae	6b d2 2c	 imul	 edx, 44			; 0000002cH
  00ab1	8b 75 f8	 mov	 esi, DWORD PTR _this$[ebp]
  00ab4	8b 76 0c	 mov	 esi, DWORD PTR [esi+12]
  00ab7	d9 44 08 08	 fld	 DWORD PTR [eax+ecx+8]
  00abb	d8 44 16 10	 fadd	 DWORD PTR [esi+edx+16]
  00abf	d9 5d ec	 fstp	 DWORD PTR _fItemMaxY$[ebp]
$L85823:

; 370  : 						m_nShieldPwrUps++ ;

  00ac2	8b 45 f8	 mov	 eax, DWORD PTR _this$[ebp]
  00ac5	8b 48 28	 mov	 ecx, DWORD PTR [eax+40]
  00ac8	83 c1 01	 add	 ecx, 1
  00acb	8b 55 f8	 mov	 edx, DWORD PTR _this$[ebp]
  00ace	89 4a 28	 mov	 DWORD PTR [edx+40], ecx

; 371  : 						m_nItems++ ;

  00ad1	8b 45 f8	 mov	 eax, DWORD PTR _this$[ebp]
  00ad4	8b 48 10	 mov	 ecx, DWORD PTR [eax+16]
  00ad7	83 c1 01	 add	 ecx, 1
  00ada	8b 55 f8	 mov	 edx, DWORD PTR _this$[ebp]
  00add	89 4a 10	 mov	 DWORD PTR [edx+16], ecx

; 372  : 						assert( m_nItems <= m_nItemsActuallyAllocated );

  00ae0	8b 45 f8	 mov	 eax, DWORD PTR _this$[ebp]
  00ae3	8b 4d f8	 mov	 ecx, DWORD PTR _this$[ebp]
  00ae6	8b 50 10	 mov	 edx, DWORD PTR [eax+16]
  00ae9	3b 51 18	 cmp	 edx, DWORD PTR [ecx+24]
  00aec	7e 1d		 jle	 SHORT $L85819
  00aee	a1 00 00 00 00	 mov	 eax, DWORD PTR ?__LINE__Var@?1??CreateFastPatch@CTerrainPatch@@QAEJHPAUD3DXVECTOR3@@MMPAVCProceduralRenderObject@@PAMPAUD3DXCOLOR@@KKMMH0HH@Z@4JA
  00af3	05 b4 00 00 00	 add	 eax, 180		; 000000b4H
  00af8	50		 push	 eax
  00af9	68 00 00 00 00	 push	 OFFSET FLAT:??_C@_0EP@CNFCBLDK@c?3?2documents?5and?5settings?2dom?2my@
  00afe	68 00 00 00 00	 push	 OFFSET FLAT:??_C@_0CG@KJICNLAP@m_nItems?5?$DM?$DN?5m_nItemsActuallyAllo@
  00b03	e8 00 00 00 00	 call	 __assert
  00b08	83 c4 0c	 add	 esp, 12			; 0000000cH
$L85819:

; 373  : 					}
; 374  : 
; 375  : 			// engine pwr ups
; 376  : 				if( rnd() < m_fEnginePwrUpProb )

  00b0b	e8 00 00 00 00	 call	 ?rnd@@YAMXZ		; rnd
  00b10	8b 45 f8	 mov	 eax, DWORD PTR _this$[ebp]
  00b13	d8 58 3c	 fcomp	 DWORD PTR [eax+60]
  00b16	df e0		 fnstsw	 ax
  00b18	f6 c4 05	 test	 ah, 5
  00b1b	0f 8a b3 01 00
	00		 jp	 $L85825

; 377  : 					if( (float)m_nEnginePwrUps < m_fEnginePwrUpsReq )

  00b21	8b 45 f8	 mov	 eax, DWORD PTR _this$[ebp]
  00b24	db 40 34	 fild	 DWORD PTR [eax+52]
  00b27	8b 4d f8	 mov	 ecx, DWORD PTR _this$[ebp]
  00b2a	d8 59 38	 fcomp	 DWORD PTR [ecx+56]
  00b2d	df e0		 fnstsw	 ax
  00b2f	f6 c4 05	 test	 ah, 5
  00b32	0f 8a 9c 01 00
	00		 jp	 $L85825

; 378  : 					{
; 379  : 						m_pItems[ m_nItems ].nType = IT_ENGINE ;

  00b38	8b 45 f8	 mov	 eax, DWORD PTR _this$[ebp]
  00b3b	8b 48 10	 mov	 ecx, DWORD PTR [eax+16]
  00b3e	6b c9 2c	 imul	 ecx, 44			; 0000002cH
  00b41	8b 55 f8	 mov	 edx, DWORD PTR _this$[ebp]
  00b44	8b 42 0c	 mov	 eax, DWORD PTR [edx+12]
  00b47	c7 04 01 02 00
	00 00		 mov	 DWORD PTR [ecx+eax], 2

; 380  : 						m_pItems[ m_nItems ].fRadius = 1.0f ; //rnd() * 4.0f ;

  00b4e	8b 45 f8	 mov	 eax, DWORD PTR _this$[ebp]
  00b51	8b 48 10	 mov	 ecx, DWORD PTR [eax+16]
  00b54	6b c9 2c	 imul	 ecx, 44			; 0000002cH
  00b57	8b 55 f8	 mov	 edx, DWORD PTR _this$[ebp]
  00b5a	8b 42 0c	 mov	 eax, DWORD PTR [edx+12]
  00b5d	c7 44 08 10 00
	00 80 3f	 mov	 DWORD PTR [eax+ecx+16], 1065353216 ; 3f800000H

; 381  : 						m_pItems[ m_nItems ].vPos = xVec3( fVertexX, fVertexY, fVertexZ );

  00b65	8b 85 a4 fe ff
	ff		 mov	 eax, DWORD PTR _fVertexZ$85802[ebp]
  00b6b	50		 push	 eax
  00b6c	8b 8d b0 fe ff
	ff		 mov	 ecx, DWORD PTR _fVertexY$85801[ebp]
  00b72	51		 push	 ecx
  00b73	8b 95 bc fe ff
	ff		 mov	 edx, DWORD PTR _fVertexX$85800[ebp]
  00b79	52		 push	 edx
  00b7a	8d 8d 1c f9 ff
	ff		 lea	 ecx, DWORD PTR $T86405[ebp]
  00b80	e8 00 00 00 00	 call	 ??0D3DXVECTOR3@@QAE@MMM@Z ; D3DXVECTOR3::D3DXVECTOR3
  00b85	8b 4d f8	 mov	 ecx, DWORD PTR _this$[ebp]
  00b88	8b 51 10	 mov	 edx, DWORD PTR [ecx+16]
  00b8b	6b d2 2c	 imul	 edx, 44			; 0000002cH
  00b8e	8b 4d f8	 mov	 ecx, DWORD PTR _this$[ebp]
  00b91	8b 49 0c	 mov	 ecx, DWORD PTR [ecx+12]
  00b94	8d 54 11 04	 lea	 edx, DWORD PTR [ecx+edx+4]
  00b98	8b 08		 mov	 ecx, DWORD PTR [eax]
  00b9a	89 0a		 mov	 DWORD PTR [edx], ecx
  00b9c	8b 48 04	 mov	 ecx, DWORD PTR [eax+4]
  00b9f	89 4a 04	 mov	 DWORD PTR [edx+4], ecx
  00ba2	8b 40 08	 mov	 eax, DWORD PTR [eax+8]
  00ba5	89 42 08	 mov	 DWORD PTR [edx+8], eax

; 382  : 						m_pItems[ m_nItems ].fRot = 0 ;

  00ba8	8b 45 f8	 mov	 eax, DWORD PTR _this$[ebp]
  00bab	8b 48 10	 mov	 ecx, DWORD PTR [eax+16]
  00bae	6b c9 2c	 imul	 ecx, 44			; 0000002cH
  00bb1	8b 55 f8	 mov	 edx, DWORD PTR _this$[ebp]
  00bb4	8b 42 0c	 mov	 eax, DWORD PTR [edx+12]
  00bb7	c7 44 08 14 00
	00 00 00	 mov	 DWORD PTR [eax+ecx+20], 0

; 383  : 						m_pItems[ m_nItems ].fShine = 0 ;

  00bbf	8b 45 f8	 mov	 eax, DWORD PTR _this$[ebp]
  00bc2	8b 48 10	 mov	 ecx, DWORD PTR [eax+16]
  00bc5	6b c9 2c	 imul	 ecx, 44			; 0000002cH
  00bc8	8b 55 f8	 mov	 edx, DWORD PTR _this$[ebp]
  00bcb	8b 42 0c	 mov	 eax, DWORD PTR [edx+12]
  00bce	c7 44 08 18 00
	00 00 00	 mov	 DWORD PTR [eax+ecx+24], 0

; 384  : 						m_pItems[ m_nItems ].fShineModSpeed = 0.25f ;

  00bd6	8b 45 f8	 mov	 eax, DWORD PTR _this$[ebp]
  00bd9	8b 48 10	 mov	 ecx, DWORD PTR [eax+16]
  00bdc	6b c9 2c	 imul	 ecx, 44			; 0000002cH
  00bdf	8b 55 f8	 mov	 edx, DWORD PTR _this$[ebp]
  00be2	8b 42 0c	 mov	 eax, DWORD PTR [edx+12]
  00be5	c7 44 08 1c 00
	00 80 3e	 mov	 DWORD PTR [eax+ecx+28], 1048576000 ; 3e800000H

; 385  : 						m_pItems[ m_nItems ].fX1 = 0 ;

  00bed	8b 45 f8	 mov	 eax, DWORD PTR _this$[ebp]
  00bf0	8b 48 10	 mov	 ecx, DWORD PTR [eax+16]
  00bf3	6b c9 2c	 imul	 ecx, 44			; 0000002cH
  00bf6	8b 55 f8	 mov	 edx, DWORD PTR _this$[ebp]
  00bf9	8b 42 0c	 mov	 eax, DWORD PTR [edx+12]
  00bfc	c7 44 08 20 00
	00 00 00	 mov	 DWORD PTR [eax+ecx+32], 0

; 386  : 						m_pItems[ m_nItems ].fY1 = 0 ;

  00c04	8b 45 f8	 mov	 eax, DWORD PTR _this$[ebp]
  00c07	8b 48 10	 mov	 ecx, DWORD PTR [eax+16]
  00c0a	6b c9 2c	 imul	 ecx, 44			; 0000002cH
  00c0d	8b 55 f8	 mov	 edx, DWORD PTR _this$[ebp]
  00c10	8b 42 0c	 mov	 eax, DWORD PTR [edx+12]
  00c13	c7 44 08 24 00
	00 00 00	 mov	 DWORD PTR [eax+ecx+36], 0

; 387  : 						m_pItems[ m_nItems ].fZ1 = 0 ;

  00c1b	8b 45 f8	 mov	 eax, DWORD PTR _this$[ebp]
  00c1e	8b 48 10	 mov	 ecx, DWORD PTR [eax+16]
  00c21	6b c9 2c	 imul	 ecx, 44			; 0000002cH
  00c24	8b 55 f8	 mov	 edx, DWORD PTR _this$[ebp]
  00c27	8b 42 0c	 mov	 eax, DWORD PTR [edx+12]
  00c2a	c7 44 08 28 00
	00 00 00	 mov	 DWORD PTR [eax+ecx+40], 0

; 388  : 						if( m_pItems[ m_nItems ].vPos.y + m_pItems[ m_nItems ].fRadius > fItemMaxY )

  00c32	8b 45 f8	 mov	 eax, DWORD PTR _this$[ebp]
  00c35	8b 48 10	 mov	 ecx, DWORD PTR [eax+16]
  00c38	6b c9 2c	 imul	 ecx, 44			; 0000002cH
  00c3b	8b 55 f8	 mov	 edx, DWORD PTR _this$[ebp]
  00c3e	8b 42 0c	 mov	 eax, DWORD PTR [edx+12]
  00c41	8b 55 f8	 mov	 edx, DWORD PTR _this$[ebp]
  00c44	8b 52 10	 mov	 edx, DWORD PTR [edx+16]
  00c47	6b d2 2c	 imul	 edx, 44			; 0000002cH
  00c4a	8b 75 f8	 mov	 esi, DWORD PTR _this$[ebp]
  00c4d	8b 76 0c	 mov	 esi, DWORD PTR [esi+12]
  00c50	d9 44 08 08	 fld	 DWORD PTR [eax+ecx+8]
  00c54	d8 44 16 10	 fadd	 DWORD PTR [esi+edx+16]
  00c58	d8 5d ec	 fcomp	 DWORD PTR _fItemMaxY$[ebp]
  00c5b	df e0		 fnstsw	 ax
  00c5d	f6 c4 41	 test	 ah, 65			; 00000041H
  00c60	75 29		 jne	 SHORT $L85829

; 389  : 							fItemMaxY = m_pItems[ m_nItems ].vPos.y + m_pItems[ m_nItems ].fRadius ;

  00c62	8b 45 f8	 mov	 eax, DWORD PTR _this$[ebp]
  00c65	8b 48 10	 mov	 ecx, DWORD PTR [eax+16]
  00c68	6b c9 2c	 imul	 ecx, 44			; 0000002cH
  00c6b	8b 55 f8	 mov	 edx, DWORD PTR _this$[ebp]
  00c6e	8b 42 0c	 mov	 eax, DWORD PTR [edx+12]
  00c71	8b 55 f8	 mov	 edx, DWORD PTR _this$[ebp]
  00c74	8b 52 10	 mov	 edx, DWORD PTR [edx+16]
  00c77	6b d2 2c	 imul	 edx, 44			; 0000002cH
  00c7a	8b 75 f8	 mov	 esi, DWORD PTR _this$[ebp]
  00c7d	8b 76 0c	 mov	 esi, DWORD PTR [esi+12]
  00c80	d9 44 08 08	 fld	 DWORD PTR [eax+ecx+8]
  00c84	d8 44 16 10	 fadd	 DWORD PTR [esi+edx+16]
  00c88	d9 5d ec	 fstp	 DWORD PTR _fItemMaxY$[ebp]
$L85829:

; 390  : 						m_nEnginePwrUps++ ;

  00c8b	8b 45 f8	 mov	 eax, DWORD PTR _this$[ebp]
  00c8e	8b 48 34	 mov	 ecx, DWORD PTR [eax+52]
  00c91	83 c1 01	 add	 ecx, 1
  00c94	8b 55 f8	 mov	 edx, DWORD PTR _this$[ebp]
  00c97	89 4a 34	 mov	 DWORD PTR [edx+52], ecx

; 391  : 						m_nItems++ ;

  00c9a	8b 45 f8	 mov	 eax, DWORD PTR _this$[ebp]
  00c9d	8b 48 10	 mov	 ecx, DWORD PTR [eax+16]
  00ca0	83 c1 01	 add	 ecx, 1
  00ca3	8b 55 f8	 mov	 edx, DWORD PTR _this$[ebp]
  00ca6	89 4a 10	 mov	 DWORD PTR [edx+16], ecx

; 392  : 						assert( m_nItems <= m_nItemsActuallyAllocated );

  00ca9	8b 45 f8	 mov	 eax, DWORD PTR _this$[ebp]
  00cac	8b 4d f8	 mov	 ecx, DWORD PTR _this$[ebp]
  00caf	8b 50 10	 mov	 edx, DWORD PTR [eax+16]
  00cb2	3b 51 18	 cmp	 edx, DWORD PTR [ecx+24]
  00cb5	7e 1d		 jle	 SHORT $L85825
  00cb7	a1 00 00 00 00	 mov	 eax, DWORD PTR ?__LINE__Var@?1??CreateFastPatch@CTerrainPatch@@QAEJHPAUD3DXVECTOR3@@MMPAVCProceduralRenderObject@@PAMPAUD3DXCOLOR@@KKMMH0HH@Z@4JA
  00cbc	05 c8 00 00 00	 add	 eax, 200		; 000000c8H
  00cc1	50		 push	 eax
  00cc2	68 00 00 00 00	 push	 OFFSET FLAT:??_C@_0EP@CNFCBLDK@c?3?2documents?5and?5settings?2dom?2my@
  00cc7	68 00 00 00 00	 push	 OFFSET FLAT:??_C@_0CG@KJICNLAP@m_nItems?5?$DM?$DN?5m_nItemsActuallyAllo@
  00ccc	e8 00 00 00 00	 call	 __assert
  00cd1	83 c4 0c	 add	 esp, 12			; 0000000cH
$L85825:

; 393  : 					}
; 394  : 
; 395  : 			// weapon pwr ups
; 396  : 				if( rnd() < m_fWeaponPwrUpProb )

  00cd4	e8 00 00 00 00	 call	 ?rnd@@YAMXZ		; rnd
  00cd9	8b 45 f8	 mov	 eax, DWORD PTR _this$[ebp]
  00cdc	d8 58 48	 fcomp	 DWORD PTR [eax+72]
  00cdf	df e0		 fnstsw	 ax
  00ce1	f6 c4 05	 test	 ah, 5
  00ce4	0f 8a b3 01 00
	00		 jp	 $L85831

; 397  : 					if( (float)m_nWeaponPwrUps < m_fWeaponPwrUpsReq )

  00cea	8b 45 f8	 mov	 eax, DWORD PTR _this$[ebp]
  00ced	db 40 40	 fild	 DWORD PTR [eax+64]
  00cf0	8b 4d f8	 mov	 ecx, DWORD PTR _this$[ebp]
  00cf3	d8 59 44	 fcomp	 DWORD PTR [ecx+68]
  00cf6	df e0		 fnstsw	 ax
  00cf8	f6 c4 05	 test	 ah, 5
  00cfb	0f 8a 9c 01 00
	00		 jp	 $L85831

; 398  : 					{
; 399  : 						m_pItems[ m_nItems ].nType = IT_WEAPON ;

  00d01	8b 45 f8	 mov	 eax, DWORD PTR _this$[ebp]
  00d04	8b 48 10	 mov	 ecx, DWORD PTR [eax+16]
  00d07	6b c9 2c	 imul	 ecx, 44			; 0000002cH
  00d0a	8b 55 f8	 mov	 edx, DWORD PTR _this$[ebp]
  00d0d	8b 42 0c	 mov	 eax, DWORD PTR [edx+12]
  00d10	c7 04 01 03 00
	00 00		 mov	 DWORD PTR [ecx+eax], 3

; 400  : 						m_pItems[ m_nItems ].fRadius = 1.0f ; //rnd() * 4.0f ;

  00d17	8b 45 f8	 mov	 eax, DWORD PTR _this$[ebp]
  00d1a	8b 48 10	 mov	 ecx, DWORD PTR [eax+16]
  00d1d	6b c9 2c	 imul	 ecx, 44			; 0000002cH
  00d20	8b 55 f8	 mov	 edx, DWORD PTR _this$[ebp]
  00d23	8b 42 0c	 mov	 eax, DWORD PTR [edx+12]
  00d26	c7 44 08 10 00
	00 80 3f	 mov	 DWORD PTR [eax+ecx+16], 1065353216 ; 3f800000H

; 401  : 						m_pItems[ m_nItems ].vPos = xVec3( fVertexX, fVertexY, fVertexZ );

  00d2e	8b 85 a4 fe ff
	ff		 mov	 eax, DWORD PTR _fVertexZ$85802[ebp]
  00d34	50		 push	 eax
  00d35	8b 8d b0 fe ff
	ff		 mov	 ecx, DWORD PTR _fVertexY$85801[ebp]
  00d3b	51		 push	 ecx
  00d3c	8b 95 bc fe ff
	ff		 mov	 edx, DWORD PTR _fVertexX$85800[ebp]
  00d42	52		 push	 edx
  00d43	8d 8d 08 f9 ff
	ff		 lea	 ecx, DWORD PTR $T86407[ebp]
  00d49	e8 00 00 00 00	 call	 ??0D3DXVECTOR3@@QAE@MMM@Z ; D3DXVECTOR3::D3DXVECTOR3
  00d4e	8b 4d f8	 mov	 ecx, DWORD PTR _this$[ebp]
  00d51	8b 51 10	 mov	 edx, DWORD PTR [ecx+16]
  00d54	6b d2 2c	 imul	 edx, 44			; 0000002cH
  00d57	8b 4d f8	 mov	 ecx, DWORD PTR _this$[ebp]
  00d5a	8b 49 0c	 mov	 ecx, DWORD PTR [ecx+12]
  00d5d	8d 54 11 04	 lea	 edx, DWORD PTR [ecx+edx+4]
  00d61	8b 08		 mov	 ecx, DWORD PTR [eax]
  00d63	89 0a		 mov	 DWORD PTR [edx], ecx
  00d65	8b 48 04	 mov	 ecx, DWORD PTR [eax+4]
  00d68	89 4a 04	 mov	 DWORD PTR [edx+4], ecx
  00d6b	8b 40 08	 mov	 eax, DWORD PTR [eax+8]
  00d6e	89 42 08	 mov	 DWORD PTR [edx+8], eax

; 402  : 						m_pItems[ m_nItems ].fRot = 0 ;

  00d71	8b 45 f8	 mov	 eax, DWORD PTR _this$[ebp]
  00d74	8b 48 10	 mov	 ecx, DWORD PTR [eax+16]
  00d77	6b c9 2c	 imul	 ecx, 44			; 0000002cH
  00d7a	8b 55 f8	 mov	 edx, DWORD PTR _this$[ebp]
  00d7d	8b 42 0c	 mov	 eax, DWORD PTR [edx+12]
  00d80	c7 44 08 14 00
	00 00 00	 mov	 DWORD PTR [eax+ecx+20], 0

; 403  : 						m_pItems[ m_nItems ].fShine = 0 ;

  00d88	8b 45 f8	 mov	 eax, DWORD PTR _this$[ebp]
  00d8b	8b 48 10	 mov	 ecx, DWORD PTR [eax+16]
  00d8e	6b c9 2c	 imul	 ecx, 44			; 0000002cH
  00d91	8b 55 f8	 mov	 edx, DWORD PTR _this$[ebp]
  00d94	8b 42 0c	 mov	 eax, DWORD PTR [edx+12]
  00d97	c7 44 08 18 00
	00 00 00	 mov	 DWORD PTR [eax+ecx+24], 0

; 404  : 						m_pItems[ m_nItems ].fShineModSpeed = 0.25f ;

  00d9f	8b 45 f8	 mov	 eax, DWORD PTR _this$[ebp]
  00da2	8b 48 10	 mov	 ecx, DWORD PTR [eax+16]
  00da5	6b c9 2c	 imul	 ecx, 44			; 0000002cH
  00da8	8b 55 f8	 mov	 edx, DWORD PTR _this$[ebp]
  00dab	8b 42 0c	 mov	 eax, DWORD PTR [edx+12]
  00dae	c7 44 08 1c 00
	00 80 3e	 mov	 DWORD PTR [eax+ecx+28], 1048576000 ; 3e800000H

; 405  : 						m_pItems[ m_nItems ].fX1 = 0 ;

  00db6	8b 45 f8	 mov	 eax, DWORD PTR _this$[ebp]
  00db9	8b 48 10	 mov	 ecx, DWORD PTR [eax+16]
  00dbc	6b c9 2c	 imul	 ecx, 44			; 0000002cH
  00dbf	8b 55 f8	 mov	 edx, DWORD PTR _this$[ebp]
  00dc2	8b 42 0c	 mov	 eax, DWORD PTR [edx+12]
  00dc5	c7 44 08 20 00
	00 00 00	 mov	 DWORD PTR [eax+ecx+32], 0

; 406  : 						m_pItems[ m_nItems ].fY1 = 0 ;

  00dcd	8b 45 f8	 mov	 eax, DWORD PTR _this$[ebp]
  00dd0	8b 48 10	 mov	 ecx, DWORD PTR [eax+16]
  00dd3	6b c9 2c	 imul	 ecx, 44			; 0000002cH
  00dd6	8b 55 f8	 mov	 edx, DWORD PTR _this$[ebp]
  00dd9	8b 42 0c	 mov	 eax, DWORD PTR [edx+12]
  00ddc	c7 44 08 24 00
	00 00 00	 mov	 DWORD PTR [eax+ecx+36], 0

; 407  : 						m_pItems[ m_nItems ].fZ1 = 0 ;

  00de4	8b 45 f8	 mov	 eax, DWORD PTR _this$[ebp]
  00de7	8b 48 10	 mov	 ecx, DWORD PTR [eax+16]
  00dea	6b c9 2c	 imul	 ecx, 44			; 0000002cH
  00ded	8b 55 f8	 mov	 edx, DWORD PTR _this$[ebp]
  00df0	8b 42 0c	 mov	 eax, DWORD PTR [edx+12]
  00df3	c7 44 08 28 00
	00 00 00	 mov	 DWORD PTR [eax+ecx+40], 0

; 408  : 						if( m_pItems[ m_nItems ].vPos.y + m_pItems[ m_nItems ].fRadius > fItemMaxY )

  00dfb	8b 45 f8	 mov	 eax, DWORD PTR _this$[ebp]
  00dfe	8b 48 10	 mov	 ecx, DWORD PTR [eax+16]
  00e01	6b c9 2c	 imul	 ecx, 44			; 0000002cH
  00e04	8b 55 f8	 mov	 edx, DWORD PTR _this$[ebp]
  00e07	8b 42 0c	 mov	 eax, DWORD PTR [edx+12]
  00e0a	8b 55 f8	 mov	 edx, DWORD PTR _this$[ebp]
  00e0d	8b 52 10	 mov	 edx, DWORD PTR [edx+16]
  00e10	6b d2 2c	 imul	 edx, 44			; 0000002cH
  00e13	8b 75 f8	 mov	 esi, DWORD PTR _this$[ebp]
  00e16	8b 76 0c	 mov	 esi, DWORD PTR [esi+12]
  00e19	d9 44 08 08	 fld	 DWORD PTR [eax+ecx+8]
  00e1d	d8 44 16 10	 fadd	 DWORD PTR [esi+edx+16]
  00e21	d8 5d ec	 fcomp	 DWORD PTR _fItemMaxY$[ebp]
  00e24	df e0		 fnstsw	 ax
  00e26	f6 c4 41	 test	 ah, 65			; 00000041H
  00e29	75 29		 jne	 SHORT $L85835

; 409  : 							fItemMaxY = m_pItems[ m_nItems ].vPos.y + m_pItems[ m_nItems ].fRadius ;

  00e2b	8b 45 f8	 mov	 eax, DWORD PTR _this$[ebp]
  00e2e	8b 48 10	 mov	 ecx, DWORD PTR [eax+16]
  00e31	6b c9 2c	 imul	 ecx, 44			; 0000002cH
  00e34	8b 55 f8	 mov	 edx, DWORD PTR _this$[ebp]
  00e37	8b 42 0c	 mov	 eax, DWORD PTR [edx+12]
  00e3a	8b 55 f8	 mov	 edx, DWORD PTR _this$[ebp]
  00e3d	8b 52 10	 mov	 edx, DWORD PTR [edx+16]
  00e40	6b d2 2c	 imul	 edx, 44			; 0000002cH
  00e43	8b 75 f8	 mov	 esi, DWORD PTR _this$[ebp]
  00e46	8b 76 0c	 mov	 esi, DWORD PTR [esi+12]
  00e49	d9 44 08 08	 fld	 DWORD PTR [eax+ecx+8]
  00e4d	d8 44 16 10	 fadd	 DWORD PTR [esi+edx+16]
  00e51	d9 5d ec	 fstp	 DWORD PTR _fItemMaxY$[ebp]
$L85835:

; 410  : 						m_nWeaponPwrUps++ ;

  00e54	8b 45 f8	 mov	 eax, DWORD PTR _this$[ebp]
  00e57	8b 48 40	 mov	 ecx, DWORD PTR [eax+64]
  00e5a	83 c1 01	 add	 ecx, 1
  00e5d	8b 55 f8	 mov	 edx, DWORD PTR _this$[ebp]
  00e60	89 4a 40	 mov	 DWORD PTR [edx+64], ecx

; 411  : 						m_nItems++ ;

  00e63	8b 45 f8	 mov	 eax, DWORD PTR _this$[ebp]
  00e66	8b 48 10	 mov	 ecx, DWORD PTR [eax+16]
  00e69	83 c1 01	 add	 ecx, 1
  00e6c	8b 55 f8	 mov	 edx, DWORD PTR _this$[ebp]
  00e6f	89 4a 10	 mov	 DWORD PTR [edx+16], ecx

; 412  : 						assert( m_nItems <= m_nItemsActuallyAllocated );

  00e72	8b 45 f8	 mov	 eax, DWORD PTR _this$[ebp]
  00e75	8b 4d f8	 mov	 ecx, DWORD PTR _this$[ebp]
  00e78	8b 50 10	 mov	 edx, DWORD PTR [eax+16]
  00e7b	3b 51 18	 cmp	 edx, DWORD PTR [ecx+24]
  00e7e	7e 1d		 jle	 SHORT $L85831
  00e80	a1 00 00 00 00	 mov	 eax, DWORD PTR ?__LINE__Var@?1??CreateFastPatch@CTerrainPatch@@QAEJHPAUD3DXVECTOR3@@MMPAVCProceduralRenderObject@@PAMPAUD3DXCOLOR@@KKMMH0HH@Z@4JA
  00e85	05 dc 00 00 00	 add	 eax, 220		; 000000dcH
  00e8a	50		 push	 eax
  00e8b	68 00 00 00 00	 push	 OFFSET FLAT:??_C@_0EP@CNFCBLDK@c?3?2documents?5and?5settings?2dom?2my@
  00e90	68 00 00 00 00	 push	 OFFSET FLAT:??_C@_0CG@KJICNLAP@m_nItems?5?$DM?$DN?5m_nItemsActuallyAllo@
  00e95	e8 00 00 00 00	 call	 __assert
  00e9a	83 c4 0c	 add	 esp, 12			; 0000000cH
$L85831:

; 413  : 					}
; 414  : 
; 415  : 			// health pwr ups
; 416  : 				if( rnd() < m_fHealthPwrUpProb )

  00e9d	e8 00 00 00 00	 call	 ?rnd@@YAMXZ		; rnd
  00ea2	8b 45 f8	 mov	 eax, DWORD PTR _this$[ebp]
  00ea5	d8 58 54	 fcomp	 DWORD PTR [eax+84]
  00ea8	df e0		 fnstsw	 ax
  00eaa	f6 c4 05	 test	 ah, 5
  00ead	0f 8a b3 01 00
	00		 jp	 $L85811

; 417  : 					if( (float)m_nHealthPwrUps < m_fHealthPwrUpsReq )

  00eb3	8b 45 f8	 mov	 eax, DWORD PTR _this$[ebp]
  00eb6	db 40 4c	 fild	 DWORD PTR [eax+76]
  00eb9	8b 4d f8	 mov	 ecx, DWORD PTR _this$[ebp]
  00ebc	d8 59 50	 fcomp	 DWORD PTR [ecx+80]
  00ebf	df e0		 fnstsw	 ax
  00ec1	f6 c4 05	 test	 ah, 5
  00ec4	0f 8a 9c 01 00
	00		 jp	 $L85811

; 418  : 					{
; 419  : 						m_pItems[ m_nItems ].nType = IT_HEALTH ;

  00eca	8b 45 f8	 mov	 eax, DWORD PTR _this$[ebp]
  00ecd	8b 48 10	 mov	 ecx, DWORD PTR [eax+16]
  00ed0	6b c9 2c	 imul	 ecx, 44			; 0000002cH
  00ed3	8b 55 f8	 mov	 edx, DWORD PTR _this$[ebp]
  00ed6	8b 42 0c	 mov	 eax, DWORD PTR [edx+12]
  00ed9	c7 04 01 04 00
	00 00		 mov	 DWORD PTR [ecx+eax], 4

; 420  : 						m_pItems[ m_nItems ].fRadius = 1.0f ; //rnd() * 4.0f ;

  00ee0	8b 45 f8	 mov	 eax, DWORD PTR _this$[ebp]
  00ee3	8b 48 10	 mov	 ecx, DWORD PTR [eax+16]
  00ee6	6b c9 2c	 imul	 ecx, 44			; 0000002cH
  00ee9	8b 55 f8	 mov	 edx, DWORD PTR _this$[ebp]
  00eec	8b 42 0c	 mov	 eax, DWORD PTR [edx+12]
  00eef	c7 44 08 10 00
	00 80 3f	 mov	 DWORD PTR [eax+ecx+16], 1065353216 ; 3f800000H

; 421  : 						m_pItems[ m_nItems ].vPos = xVec3( fVertexX, fVertexY, fVertexZ );

  00ef7	8b 85 a4 fe ff
	ff		 mov	 eax, DWORD PTR _fVertexZ$85802[ebp]
  00efd	50		 push	 eax
  00efe	8b 8d b0 fe ff
	ff		 mov	 ecx, DWORD PTR _fVertexY$85801[ebp]
  00f04	51		 push	 ecx
  00f05	8b 95 bc fe ff
	ff		 mov	 edx, DWORD PTR _fVertexX$85800[ebp]
  00f0b	52		 push	 edx
  00f0c	8d 8d f4 f8 ff
	ff		 lea	 ecx, DWORD PTR $T86409[ebp]
  00f12	e8 00 00 00 00	 call	 ??0D3DXVECTOR3@@QAE@MMM@Z ; D3DXVECTOR3::D3DXVECTOR3
  00f17	8b 4d f8	 mov	 ecx, DWORD PTR _this$[ebp]
  00f1a	8b 51 10	 mov	 edx, DWORD PTR [ecx+16]
  00f1d	6b d2 2c	 imul	 edx, 44			; 0000002cH
  00f20	8b 4d f8	 mov	 ecx, DWORD PTR _this$[ebp]
  00f23	8b 49 0c	 mov	 ecx, DWORD PTR [ecx+12]
  00f26	8d 54 11 04	 lea	 edx, DWORD PTR [ecx+edx+4]
  00f2a	8b 08		 mov	 ecx, DWORD PTR [eax]
  00f2c	89 0a		 mov	 DWORD PTR [edx], ecx
  00f2e	8b 48 04	 mov	 ecx, DWORD PTR [eax+4]
  00f31	89 4a 04	 mov	 DWORD PTR [edx+4], ecx
  00f34	8b 40 08	 mov	 eax, DWORD PTR [eax+8]
  00f37	89 42 08	 mov	 DWORD PTR [edx+8], eax

; 422  : 						m_pItems[ m_nItems ].fRot = 0 ;

  00f3a	8b 45 f8	 mov	 eax, DWORD PTR _this$[ebp]
  00f3d	8b 48 10	 mov	 ecx, DWORD PTR [eax+16]
  00f40	6b c9 2c	 imul	 ecx, 44			; 0000002cH
  00f43	8b 55 f8	 mov	 edx, DWORD PTR _this$[ebp]
  00f46	8b 42 0c	 mov	 eax, DWORD PTR [edx+12]
  00f49	c7 44 08 14 00
	00 00 00	 mov	 DWORD PTR [eax+ecx+20], 0

; 423  : 						m_pItems[ m_nItems ].fShine = 1 ;

  00f51	8b 45 f8	 mov	 eax, DWORD PTR _this$[ebp]
  00f54	8b 48 10	 mov	 ecx, DWORD PTR [eax+16]
  00f57	6b c9 2c	 imul	 ecx, 44			; 0000002cH
  00f5a	8b 55 f8	 mov	 edx, DWORD PTR _this$[ebp]
  00f5d	8b 42 0c	 mov	 eax, DWORD PTR [edx+12]
  00f60	c7 44 08 18 00
	00 80 3f	 mov	 DWORD PTR [eax+ecx+24], 1065353216 ; 3f800000H

; 424  : 						m_pItems[ m_nItems ].fShineModSpeed = 0.5f ;

  00f68	8b 45 f8	 mov	 eax, DWORD PTR _this$[ebp]
  00f6b	8b 48 10	 mov	 ecx, DWORD PTR [eax+16]
  00f6e	6b c9 2c	 imul	 ecx, 44			; 0000002cH
  00f71	8b 55 f8	 mov	 edx, DWORD PTR _this$[ebp]
  00f74	8b 42 0c	 mov	 eax, DWORD PTR [edx+12]
  00f77	c7 44 08 1c 00
	00 00 3f	 mov	 DWORD PTR [eax+ecx+28], 1056964608 ; 3f000000H

; 425  : 						m_pItems[ m_nItems ].fX1 = 0 ;

  00f7f	8b 45 f8	 mov	 eax, DWORD PTR _this$[ebp]
  00f82	8b 48 10	 mov	 ecx, DWORD PTR [eax+16]
  00f85	6b c9 2c	 imul	 ecx, 44			; 0000002cH
  00f88	8b 55 f8	 mov	 edx, DWORD PTR _this$[ebp]
  00f8b	8b 42 0c	 mov	 eax, DWORD PTR [edx+12]
  00f8e	c7 44 08 20 00
	00 00 00	 mov	 DWORD PTR [eax+ecx+32], 0

; 426  : 						m_pItems[ m_nItems ].fY1 = 0 ;

  00f96	8b 45 f8	 mov	 eax, DWORD PTR _this$[ebp]
  00f99	8b 48 10	 mov	 ecx, DWORD PTR [eax+16]
  00f9c	6b c9 2c	 imul	 ecx, 44			; 0000002cH
  00f9f	8b 55 f8	 mov	 edx, DWORD PTR _this$[ebp]
  00fa2	8b 42 0c	 mov	 eax, DWORD PTR [edx+12]
  00fa5	c7 44 08 24 00
	00 00 00	 mov	 DWORD PTR [eax+ecx+36], 0

; 427  : 						m_pItems[ m_nItems ].fZ1 = 0 ;

  00fad	8b 45 f8	 mov	 eax, DWORD PTR _this$[ebp]
  00fb0	8b 48 10	 mov	 ecx, DWORD PTR [eax+16]
  00fb3	6b c9 2c	 imul	 ecx, 44			; 0000002cH
  00fb6	8b 55 f8	 mov	 edx, DWORD PTR _this$[ebp]
  00fb9	8b 42 0c	 mov	 eax, DWORD PTR [edx+12]
  00fbc	c7 44 08 28 00
	00 00 00	 mov	 DWORD PTR [eax+ecx+40], 0

; 428  : 						if( m_pItems[ m_nItems ].vPos.y + m_pItems[ m_nItems ].fRadius > fItemMaxY )

  00fc4	8b 45 f8	 mov	 eax, DWORD PTR _this$[ebp]
  00fc7	8b 48 10	 mov	 ecx, DWORD PTR [eax+16]
  00fca	6b c9 2c	 imul	 ecx, 44			; 0000002cH
  00fcd	8b 55 f8	 mov	 edx, DWORD PTR _this$[ebp]
  00fd0	8b 42 0c	 mov	 eax, DWORD PTR [edx+12]
  00fd3	8b 55 f8	 mov	 edx, DWORD PTR _this$[ebp]
  00fd6	8b 52 10	 mov	 edx, DWORD PTR [edx+16]
  00fd9	6b d2 2c	 imul	 edx, 44			; 0000002cH
  00fdc	8b 75 f8	 mov	 esi, DWORD PTR _this$[ebp]
  00fdf	8b 76 0c	 mov	 esi, DWORD PTR [esi+12]
  00fe2	d9 44 08 08	 fld	 DWORD PTR [eax+ecx+8]
  00fe6	d8 44 16 10	 fadd	 DWORD PTR [esi+edx+16]
  00fea	d8 5d ec	 fcomp	 DWORD PTR _fItemMaxY$[ebp]
  00fed	df e0		 fnstsw	 ax
  00fef	f6 c4 41	 test	 ah, 65			; 00000041H
  00ff2	75 29		 jne	 SHORT $L85841

; 429  : 							fItemMaxY = m_pItems[ m_nItems ].vPos.y + m_pItems[ m_nItems ].fRadius ;

  00ff4	8b 45 f8	 mov	 eax, DWORD PTR _this$[ebp]
  00ff7	8b 48 10	 mov	 ecx, DWORD PTR [eax+16]
  00ffa	6b c9 2c	 imul	 ecx, 44			; 0000002cH
  00ffd	8b 55 f8	 mov	 edx, DWORD PTR _this$[ebp]
  01000	8b 42 0c	 mov	 eax, DWORD PTR [edx+12]
  01003	8b 55 f8	 mov	 edx, DWORD PTR _this$[ebp]
  01006	8b 52 10	 mov	 edx, DWORD PTR [edx+16]
  01009	6b d2 2c	 imul	 edx, 44			; 0000002cH
  0100c	8b 75 f8	 mov	 esi, DWORD PTR _this$[ebp]
  0100f	8b 76 0c	 mov	 esi, DWORD PTR [esi+12]
  01012	d9 44 08 08	 fld	 DWORD PTR [eax+ecx+8]
  01016	d8 44 16 10	 fadd	 DWORD PTR [esi+edx+16]
  0101a	d9 5d ec	 fstp	 DWORD PTR _fItemMaxY$[ebp]
$L85841:

; 430  : 						m_nHealthPwrUps++ ;

  0101d	8b 45 f8	 mov	 eax, DWORD PTR _this$[ebp]
  01020	8b 48 4c	 mov	 ecx, DWORD PTR [eax+76]
  01023	83 c1 01	 add	 ecx, 1
  01026	8b 55 f8	 mov	 edx, DWORD PTR _this$[ebp]
  01029	89 4a 4c	 mov	 DWORD PTR [edx+76], ecx

; 431  : 						m_nItems++ ;

  0102c	8b 45 f8	 mov	 eax, DWORD PTR _this$[ebp]
  0102f	8b 48 10	 mov	 ecx, DWORD PTR [eax+16]
  01032	83 c1 01	 add	 ecx, 1
  01035	8b 55 f8	 mov	 edx, DWORD PTR _this$[ebp]
  01038	89 4a 10	 mov	 DWORD PTR [edx+16], ecx

; 432  : 						assert( m_nItems <= m_nItemsActuallyAllocated );

  0103b	8b 45 f8	 mov	 eax, DWORD PTR _this$[ebp]
  0103e	8b 4d f8	 mov	 ecx, DWORD PTR _this$[ebp]
  01041	8b 50 10	 mov	 edx, DWORD PTR [eax+16]
  01044	3b 51 18	 cmp	 edx, DWORD PTR [ecx+24]
  01047	7e 1d		 jle	 SHORT $L85811
  01049	a1 00 00 00 00	 mov	 eax, DWORD PTR ?__LINE__Var@?1??CreateFastPatch@CTerrainPatch@@QAEJHPAUD3DXVECTOR3@@MMPAVCProceduralRenderObject@@PAMPAUD3DXCOLOR@@KKMMH0HH@Z@4JA
  0104e	05 f0 00 00 00	 add	 eax, 240		; 000000f0H
  01053	50		 push	 eax
  01054	68 00 00 00 00	 push	 OFFSET FLAT:??_C@_0EP@CNFCBLDK@c?3?2documents?5and?5settings?2dom?2my@
  01059	68 00 00 00 00	 push	 OFFSET FLAT:??_C@_0CG@KJICNLAP@m_nItems?5?$DM?$DN?5m_nItemsActuallyAllo@
  0105e	e8 00 00 00 00	 call	 __assert
  01063	83 c4 0c	 add	 esp, 12			; 0000000cH
$L85811:

; 433  : 					}
; 434  : 			}
; 435  : 
; 436  : 			if (nHeightmapDelta > 1)

  01066	83 bd c8 fe ff
	ff 01		 cmp	 DWORD PTR _nHeightmapDelta$85792[ebp], 1
  0106d	7e 4d		 jle	 SHORT $L85843

; 437  : 			{
; 438  : 				// we need to be +*one* over the vertex in the code above, in order
; 439  : 				// to drop one full row correctly. this ensures that we are exactly
; 440  : 				// one over, when we're striding > 1:
; 441  : 				if ((nVert+1) % (nPatchSQ+1) == 0)

  0106f	8b 85 04 ff ff
	ff		 mov	 eax, DWORD PTR _nVert$85784[ebp]
  01075	83 c0 01	 add	 eax, 1
  01078	8b 4d 08	 mov	 ecx, DWORD PTR _nPatchSQ$[ebp]
  0107b	83 c1 01	 add	 ecx, 1
  0107e	33 d2		 xor	 edx, edx
  01080	f7 f1		 div	 ecx
  01082	85 d2		 test	 edx, edx
  01084	75 14		 jne	 SHORT $L85844

; 442  : 				{
; 443  : 					pfHeightmap ++ ;

  01086	8b 45 1c	 mov	 eax, DWORD PTR _pfHeightmap$[ebp]
  01089	83 c0 04	 add	 eax, 4
  0108c	89 45 1c	 mov	 DWORD PTR _pfHeightmap$[ebp], eax

; 444  : 					pColormap ++ ;

  0108f	8b 45 20	 mov	 eax, DWORD PTR _pColormap$[ebp]
  01092	83 c0 10	 add	 eax, 16			; 00000010H
  01095	89 45 20	 mov	 DWORD PTR _pColormap$[ebp], eax

; 445  : 				}
; 446  : 				else

  01098	eb 20		 jmp	 SHORT $L85845
$L85844:

; 447  : 				{
; 448  : 					pfHeightmap += nHeightmapDelta ;

  0109a	8b 85 c8 fe ff
	ff		 mov	 eax, DWORD PTR _nHeightmapDelta$85792[ebp]
  010a0	8b 4d 1c	 mov	 ecx, DWORD PTR _pfHeightmap$[ebp]
  010a3	8d 14 81	 lea	 edx, DWORD PTR [ecx+eax*4]
  010a6	89 55 1c	 mov	 DWORD PTR _pfHeightmap$[ebp], edx

; 449  : 					pColormap += nHeightmapDelta ;

  010a9	8b 85 c8 fe ff
	ff		 mov	 eax, DWORD PTR _nHeightmapDelta$85792[ebp]
  010af	c1 e0 04	 shl	 eax, 4
  010b2	8b 4d 20	 mov	 ecx, DWORD PTR _pColormap$[ebp]
  010b5	03 c8		 add	 ecx, eax
  010b7	89 4d 20	 mov	 DWORD PTR _pColormap$[ebp], ecx
$L85845:

; 450  : 				}
; 451  : 			}
; 452  : 			else

  010ba	eb 20		 jmp	 SHORT $L85846
$L85843:

; 453  : 			{
; 454  : 				pfHeightmap += nHeightmapDelta ;

  010bc	8b 85 c8 fe ff
	ff		 mov	 eax, DWORD PTR _nHeightmapDelta$85792[ebp]
  010c2	8b 4d 1c	 mov	 ecx, DWORD PTR _pfHeightmap$[ebp]
  010c5	8d 14 81	 lea	 edx, DWORD PTR [ecx+eax*4]
  010c8	89 55 1c	 mov	 DWORD PTR _pfHeightmap$[ebp], edx

; 455  : 				pColormap += nHeightmapDelta ;

  010cb	8b 85 c8 fe ff
	ff		 mov	 eax, DWORD PTR _nHeightmapDelta$85792[ebp]
  010d1	c1 e0 04	 shl	 eax, 4
  010d4	8b 4d 20	 mov	 ecx, DWORD PTR _pColormap$[ebp]
  010d7	03 c8		 add	 ecx, eax
  010d9	89 4d 20	 mov	 DWORD PTR _pColormap$[ebp], ecx
$L85846:

; 456  : 			}
; 457  : 		}

  010dc	e9 92 f3 ff ff	 jmp	 $L85786
$L85787:

; 458  : 
; 459  : 	//
; 460  : 	// Build list of additional LOD+1 edge vertices (tagged onto the end
; 461  : 	// of the main list of vertices) - edge connectors:
; 462  : 	//
; 463  : 		if (bBuildEdgeConnectors)

  010e1	83 7d 34 00	 cmp	 DWORD PTR _bBuildEdgeConnectors$[ebp], 0
  010e5	0f 84 d3 06 00
	00		 je	 $L85847

; 464  : 		{
; 465  : 			//char sz[256] ;
; 466  : 			//sprintf(sz, "Building edge connectors, on patch sq. %d", nPatchSQ) ;
; 467  : 			//Msg(sz) ;
; 468  : 
; 469  : 			int nHMDelta = m_nPatchMaxLODSQ / nPatchSQ, i ;

  010eb	8b 45 f8	 mov	 eax, DWORD PTR _this$[ebp]
  010ee	8b 00		 mov	 eax, DWORD PTR [eax]
  010f0	99		 cdq
  010f1	f7 7d 08	 idiv	 DWORD PTR _nPatchSQ$[ebp]
  010f4	89 85 98 fe ff
	ff		 mov	 DWORD PTR _nHMDelta$85848[ebp], eax

; 470  : 			float* pfHM, fX, fY, r, g, b, a, fVertexX, fVertexY, fVertexZ ;
; 471  : 			D3DXCOLOR* pCM ;
; 472  : 
; 473  : 		// top edge
; 474  : 			pfHM = pfHMStart + nHMDelta / 2 ;

  010fa	8b 85 98 fe ff
	ff		 mov	 eax, DWORD PTR _nHMDelta$85848[ebp]
  01100	99		 cdq
  01101	2b c2		 sub	 eax, edx
  01103	d1 f8		 sar	 eax, 1
  01105	8b 4d c8	 mov	 ecx, DWORD PTR _pfHMStart$[ebp]
  01108	8d 14 81	 lea	 edx, DWORD PTR [ecx+eax*4]
  0110b	89 95 80 fe ff
	ff		 mov	 DWORD PTR _pfHM$85850[ebp], edx

; 475  : 			pCM = pCMStart + nHMDelta / 2 ;

  01111	8b 85 98 fe ff
	ff		 mov	 eax, DWORD PTR _nHMDelta$85848[ebp]
  01117	99		 cdq
  01118	2b c2		 sub	 eax, edx
  0111a	d1 f8		 sar	 eax, 1
  0111c	c1 e0 04	 shl	 eax, 4
  0111f	8b 4d bc	 mov	 ecx, DWORD PTR _pCMStart$[ebp]
  01122	03 c8		 add	 ecx, eax
  01124	89 8d 08 fe ff
	ff		 mov	 DWORD PTR _pCM$85860[ebp], ecx

; 476  : 			for (i = 0 ; i < nPatchSQ ; i ++)

  0112a	c7 85 8c fe ff
	ff 00 00 00 00	 mov	 DWORD PTR _i$85849[ebp], 0
  01134	eb 0f		 jmp	 SHORT $L85861
$L85862:
  01136	8b 85 8c fe ff
	ff		 mov	 eax, DWORD PTR _i$85849[ebp]
  0113c	83 c0 01	 add	 eax, 1
  0113f	89 85 8c fe ff
	ff		 mov	 DWORD PTR _i$85849[ebp], eax
$L85861:
  01145	8b 85 8c fe ff
	ff		 mov	 eax, DWORD PTR _i$85849[ebp]
  0114b	3b 45 08	 cmp	 eax, DWORD PTR _nPatchSQ$[ebp]
  0114e	0f 8d 42 01 00
	00		 jge	 $L85863

; 477  : 			{
; 478  : 				fX = (float)i / (float)nPatchSQ + 1.0f / (float)(nPatchSQ * 2) ;

  01154	db 85 8c fe ff
	ff		 fild	 DWORD PTR _i$85849[ebp]
  0115a	da 75 08	 fidiv	 DWORD PTR _nPatchSQ$[ebp]
  0115d	8b 45 08	 mov	 eax, DWORD PTR _nPatchSQ$[ebp]
  01160	d1 e0		 shl	 eax, 1
  01162	89 85 b4 f8 ff
	ff		 mov	 DWORD PTR tv4944[ebp], eax
  01168	db 85 b4 f8 ff
	ff		 fild	 DWORD PTR tv4944[ebp]
  0116e	d8 3d 00 00 00
	00		 fdivr	 DWORD PTR __real@3f800000
  01174	de c1		 faddp	 ST(1), ST(0)
  01176	d9 9d 74 fe ff
	ff		 fstp	 DWORD PTR _fX$85851[ebp]

; 479  : 				fY = 0.0f ;

  0117c	c7 85 68 fe ff
	ff 00 00 00 00	 mov	 DWORD PTR _fY$85852[ebp], 0

; 480  : 				fVertexX = pvTL->x + fX * fWidth ;

  01186	d9 85 74 fe ff
	ff		 fld	 DWORD PTR _fX$85851[ebp]
  0118c	d8 4d 10	 fmul	 DWORD PTR _fWidth$[ebp]
  0118f	8b 45 0c	 mov	 eax, DWORD PTR _pvTL$[ebp]
  01192	d8 00		 fadd	 DWORD PTR [eax]
  01194	d9 9d 2c fe ff
	ff		 fstp	 DWORD PTR _fVertexX$85857[ebp]

; 481  : 				fVertexY = *pfHM ;

  0119a	8b 85 80 fe ff
	ff		 mov	 eax, DWORD PTR _pfHM$85850[ebp]
  011a0	8b 08		 mov	 ecx, DWORD PTR [eax]
  011a2	89 8d 20 fe ff
	ff		 mov	 DWORD PTR _fVertexY$85858[ebp], ecx

; 482  : 				fVertexZ = pvTL->z + fY * fDepth ;

  011a8	d9 85 68 fe ff
	ff		 fld	 DWORD PTR _fY$85852[ebp]
  011ae	d8 4d 14	 fmul	 DWORD PTR _fDepth$[ebp]
  011b1	8b 45 0c	 mov	 eax, DWORD PTR _pvTL$[ebp]
  011b4	d8 40 08	 fadd	 DWORD PTR [eax+8]
  011b7	d9 9d 14 fe ff
	ff		 fstp	 DWORD PTR _fVertexZ$85859[ebp]

; 483  : 				r = pCM->r ; g = pCM->g ; b = pCM->b ; a = pCM->a ;

  011bd	8b 85 08 fe ff
	ff		 mov	 eax, DWORD PTR _pCM$85860[ebp]
  011c3	8b 08		 mov	 ecx, DWORD PTR [eax]
  011c5	89 8d 5c fe ff
	ff		 mov	 DWORD PTR _r$85853[ebp], ecx
  011cb	8b 85 08 fe ff
	ff		 mov	 eax, DWORD PTR _pCM$85860[ebp]
  011d1	8b 48 04	 mov	 ecx, DWORD PTR [eax+4]
  011d4	89 8d 50 fe ff
	ff		 mov	 DWORD PTR _g$85854[ebp], ecx
  011da	8b 85 08 fe ff
	ff		 mov	 eax, DWORD PTR _pCM$85860[ebp]
  011e0	8b 48 08	 mov	 ecx, DWORD PTR [eax+8]
  011e3	89 8d 44 fe ff
	ff		 mov	 DWORD PTR _b$85855[ebp], ecx
  011e9	8b 85 08 fe ff
	ff		 mov	 eax, DWORD PTR _pCM$85860[ebp]
  011ef	8b 48 0c	 mov	 ecx, DWORD PTR [eax+12]
  011f2	89 8d 38 fe ff
	ff		 mov	 DWORD PTR _a$85856[ebp], ecx

; 484  : 				//TerrainVertexColours(&r, &g, &b, &a, *pfHM, fMaxY, fMinY) ;
; 485  : 				AddVertex(pRO, nVert++, fVertexX, fVertexY, fVertexZ, fX, fY, a, r, g, b) ;

  011f8	8b 85 04 ff ff
	ff		 mov	 eax, DWORD PTR _nVert$85784[ebp]
  011fe	89 85 b4 f8 ff
	ff		 mov	 DWORD PTR tv967[ebp], eax
  01204	8b 8d 04 ff ff
	ff		 mov	 ecx, DWORD PTR _nVert$85784[ebp]
  0120a	83 c1 01	 add	 ecx, 1
  0120d	89 8d 04 ff ff
	ff		 mov	 DWORD PTR _nVert$85784[ebp], ecx
  01213	8b 95 44 fe ff
	ff		 mov	 edx, DWORD PTR _b$85855[ebp]
  01219	52		 push	 edx
  0121a	8b 85 50 fe ff
	ff		 mov	 eax, DWORD PTR _g$85854[ebp]
  01220	50		 push	 eax
  01221	8b 8d 5c fe ff
	ff		 mov	 ecx, DWORD PTR _r$85853[ebp]
  01227	51		 push	 ecx
  01228	8b 95 38 fe ff
	ff		 mov	 edx, DWORD PTR _a$85856[ebp]
  0122e	52		 push	 edx
  0122f	8b 85 68 fe ff
	ff		 mov	 eax, DWORD PTR _fY$85852[ebp]
  01235	50		 push	 eax
  01236	8b 8d 74 fe ff
	ff		 mov	 ecx, DWORD PTR _fX$85851[ebp]
  0123c	51		 push	 ecx
  0123d	8b 95 14 fe ff
	ff		 mov	 edx, DWORD PTR _fVertexZ$85859[ebp]
  01243	52		 push	 edx
  01244	8b 85 20 fe ff
	ff		 mov	 eax, DWORD PTR _fVertexY$85858[ebp]
  0124a	50		 push	 eax
  0124b	8b 8d 2c fe ff
	ff		 mov	 ecx, DWORD PTR _fVertexX$85857[ebp]
  01251	51		 push	 ecx
  01252	8b 95 b4 f8 ff
	ff		 mov	 edx, DWORD PTR tv967[ebp]
  01258	52		 push	 edx
  01259	8b 45 18	 mov	 eax, DWORD PTR _pRO$[ebp]
  0125c	50		 push	 eax
  0125d	8b 4d f8	 mov	 ecx, DWORD PTR _this$[ebp]
  01260	e8 00 00 00 00	 call	 ?AddVertex@CTerrainPatch@@QAEXPAVCProceduralRenderObject@@HMMMMMMMMM@Z ; CTerrainPatch::AddVertex

; 486  : 				pfHM += nHMDelta ;

  01265	8b 85 98 fe ff
	ff		 mov	 eax, DWORD PTR _nHMDelta$85848[ebp]
  0126b	8b 8d 80 fe ff
	ff		 mov	 ecx, DWORD PTR _pfHM$85850[ebp]
  01271	8d 14 81	 lea	 edx, DWORD PTR [ecx+eax*4]
  01274	89 95 80 fe ff
	ff		 mov	 DWORD PTR _pfHM$85850[ebp], edx

; 487  : 				pCM += nHMDelta ;

  0127a	8b 85 98 fe ff
	ff		 mov	 eax, DWORD PTR _nHMDelta$85848[ebp]
  01280	c1 e0 04	 shl	 eax, 4
  01283	8b 8d 08 fe ff
	ff		 mov	 ecx, DWORD PTR _pCM$85860[ebp]
  01289	03 c8		 add	 ecx, eax
  0128b	89 8d 08 fe ff
	ff		 mov	 DWORD PTR _pCM$85860[ebp], ecx

; 488  : 			}

  01291	e9 a0 fe ff ff	 jmp	 $L85862
$L85863:

; 489  : 		// left edge
; 490  : 			pfHM = pfHMStart + (ulMaxExtent * (nHMDelta / 2)) ;

  01296	8b 85 98 fe ff
	ff		 mov	 eax, DWORD PTR _nHMDelta$85848[ebp]
  0129c	99		 cdq
  0129d	2b c2		 sub	 eax, edx
  0129f	d1 f8		 sar	 eax, 1
  012a1	8b 4d 28	 mov	 ecx, DWORD PTR _ulMaxExtent$[ebp]
  012a4	0f af c8	 imul	 ecx, eax
  012a7	8b 55 c8	 mov	 edx, DWORD PTR _pfHMStart$[ebp]
  012aa	8d 04 8a	 lea	 eax, DWORD PTR [edx+ecx*4]
  012ad	89 85 80 fe ff
	ff		 mov	 DWORD PTR _pfHM$85850[ebp], eax

; 491  : 			pCM = pCMStart + (ulMaxExtent * (nHMDelta / 2)) ;

  012b3	8b 85 98 fe ff
	ff		 mov	 eax, DWORD PTR _nHMDelta$85848[ebp]
  012b9	99		 cdq
  012ba	2b c2		 sub	 eax, edx
  012bc	d1 f8		 sar	 eax, 1
  012be	8b 4d 28	 mov	 ecx, DWORD PTR _ulMaxExtent$[ebp]
  012c1	0f af c8	 imul	 ecx, eax
  012c4	c1 e1 04	 shl	 ecx, 4
  012c7	8b 55 bc	 mov	 edx, DWORD PTR _pCMStart$[ebp]
  012ca	03 d1		 add	 edx, ecx
  012cc	89 95 08 fe ff
	ff		 mov	 DWORD PTR _pCM$85860[ebp], edx

; 492  : 			for (i = 0 ; i < nPatchSQ ; i ++)

  012d2	c7 85 8c fe ff
	ff 00 00 00 00	 mov	 DWORD PTR _i$85849[ebp], 0
  012dc	eb 0f		 jmp	 SHORT $L85867
$L85868:
  012de	8b 85 8c fe ff
	ff		 mov	 eax, DWORD PTR _i$85849[ebp]
  012e4	83 c0 01	 add	 eax, 1
  012e7	89 85 8c fe ff
	ff		 mov	 DWORD PTR _i$85849[ebp], eax
$L85867:
  012ed	8b 85 8c fe ff
	ff		 mov	 eax, DWORD PTR _i$85849[ebp]
  012f3	3b 45 08	 cmp	 eax, DWORD PTR _nPatchSQ$[ebp]
  012f6	0f 8d 4a 01 00
	00		 jge	 $L85869

; 493  : 			{
; 494  : 				fX = 0.0f ;

  012fc	c7 85 74 fe ff
	ff 00 00 00 00	 mov	 DWORD PTR _fX$85851[ebp], 0

; 495  : 				fY = (float)i / (float)nPatchSQ + 1.0f / (float)(nPatchSQ * 2) ;

  01306	db 85 8c fe ff
	ff		 fild	 DWORD PTR _i$85849[ebp]
  0130c	da 75 08	 fidiv	 DWORD PTR _nPatchSQ$[ebp]
  0130f	8b 45 08	 mov	 eax, DWORD PTR _nPatchSQ$[ebp]
  01312	d1 e0		 shl	 eax, 1
  01314	89 85 b4 f8 ff
	ff		 mov	 DWORD PTR tv5002[ebp], eax
  0131a	db 85 b4 f8 ff
	ff		 fild	 DWORD PTR tv5002[ebp]
  01320	d8 3d 00 00 00
	00		 fdivr	 DWORD PTR __real@3f800000
  01326	de c1		 faddp	 ST(1), ST(0)
  01328	d9 9d 68 fe ff
	ff		 fstp	 DWORD PTR _fY$85852[ebp]

; 496  : 				fVertexX = pvTL->x + fX * fWidth ;

  0132e	d9 85 74 fe ff
	ff		 fld	 DWORD PTR _fX$85851[ebp]
  01334	d8 4d 10	 fmul	 DWORD PTR _fWidth$[ebp]
  01337	8b 45 0c	 mov	 eax, DWORD PTR _pvTL$[ebp]
  0133a	d8 00		 fadd	 DWORD PTR [eax]
  0133c	d9 9d 2c fe ff
	ff		 fstp	 DWORD PTR _fVertexX$85857[ebp]

; 497  : 				fVertexY = *pfHM ;

  01342	8b 85 80 fe ff
	ff		 mov	 eax, DWORD PTR _pfHM$85850[ebp]
  01348	8b 08		 mov	 ecx, DWORD PTR [eax]
  0134a	89 8d 20 fe ff
	ff		 mov	 DWORD PTR _fVertexY$85858[ebp], ecx

; 498  : 				fVertexZ = pvTL->z + fY * fDepth ;

  01350	d9 85 68 fe ff
	ff		 fld	 DWORD PTR _fY$85852[ebp]
  01356	d8 4d 14	 fmul	 DWORD PTR _fDepth$[ebp]
  01359	8b 45 0c	 mov	 eax, DWORD PTR _pvTL$[ebp]
  0135c	d8 40 08	 fadd	 DWORD PTR [eax+8]
  0135f	d9 9d 14 fe ff
	ff		 fstp	 DWORD PTR _fVertexZ$85859[ebp]

; 499  : 				r = pCM->r ; g = pCM->g ; b = pCM->b ; a = pCM->a ;

  01365	8b 85 08 fe ff
	ff		 mov	 eax, DWORD PTR _pCM$85860[ebp]
  0136b	8b 08		 mov	 ecx, DWORD PTR [eax]
  0136d	89 8d 5c fe ff
	ff		 mov	 DWORD PTR _r$85853[ebp], ecx
  01373	8b 85 08 fe ff
	ff		 mov	 eax, DWORD PTR _pCM$85860[ebp]
  01379	8b 48 04	 mov	 ecx, DWORD PTR [eax+4]
  0137c	89 8d 50 fe ff
	ff		 mov	 DWORD PTR _g$85854[ebp], ecx
  01382	8b 85 08 fe ff
	ff		 mov	 eax, DWORD PTR _pCM$85860[ebp]
  01388	8b 48 08	 mov	 ecx, DWORD PTR [eax+8]
  0138b	89 8d 44 fe ff
	ff		 mov	 DWORD PTR _b$85855[ebp], ecx
  01391	8b 85 08 fe ff
	ff		 mov	 eax, DWORD PTR _pCM$85860[ebp]
  01397	8b 48 0c	 mov	 ecx, DWORD PTR [eax+12]
  0139a	89 8d 38 fe ff
	ff		 mov	 DWORD PTR _a$85856[ebp], ecx

; 500  : 				//TerrainVertexColours(&r, &g, &b, &a, *pfHM, fMaxY, fMinY) ;
; 501  : 				AddVertex(pRO, nVert++, fVertexX, fVertexY, fVertexZ, fX, fY, a, r, g, b) ;

  013a0	8b 85 04 ff ff
	ff		 mov	 eax, DWORD PTR _nVert$85784[ebp]
  013a6	89 85 b4 f8 ff
	ff		 mov	 DWORD PTR tv1010[ebp], eax
  013ac	8b 8d 04 ff ff
	ff		 mov	 ecx, DWORD PTR _nVert$85784[ebp]
  013b2	83 c1 01	 add	 ecx, 1
  013b5	89 8d 04 ff ff
	ff		 mov	 DWORD PTR _nVert$85784[ebp], ecx
  013bb	8b 95 44 fe ff
	ff		 mov	 edx, DWORD PTR _b$85855[ebp]
  013c1	52		 push	 edx
  013c2	8b 85 50 fe ff
	ff		 mov	 eax, DWORD PTR _g$85854[ebp]
  013c8	50		 push	 eax
  013c9	8b 8d 5c fe ff
	ff		 mov	 ecx, DWORD PTR _r$85853[ebp]
  013cf	51		 push	 ecx
  013d0	8b 95 38 fe ff
	ff		 mov	 edx, DWORD PTR _a$85856[ebp]
  013d6	52		 push	 edx
  013d7	8b 85 68 fe ff
	ff		 mov	 eax, DWORD PTR _fY$85852[ebp]
  013dd	50		 push	 eax
  013de	8b 8d 74 fe ff
	ff		 mov	 ecx, DWORD PTR _fX$85851[ebp]
  013e4	51		 push	 ecx
  013e5	8b 95 14 fe ff
	ff		 mov	 edx, DWORD PTR _fVertexZ$85859[ebp]
  013eb	52		 push	 edx
  013ec	8b 85 20 fe ff
	ff		 mov	 eax, DWORD PTR _fVertexY$85858[ebp]
  013f2	50		 push	 eax
  013f3	8b 8d 2c fe ff
	ff		 mov	 ecx, DWORD PTR _fVertexX$85857[ebp]
  013f9	51		 push	 ecx
  013fa	8b 95 b4 f8 ff
	ff		 mov	 edx, DWORD PTR tv1010[ebp]
  01400	52		 push	 edx
  01401	8b 45 18	 mov	 eax, DWORD PTR _pRO$[ebp]
  01404	50		 push	 eax
  01405	8b 4d f8	 mov	 ecx, DWORD PTR _this$[ebp]
  01408	e8 00 00 00 00	 call	 ?AddVertex@CTerrainPatch@@QAEXPAVCProceduralRenderObject@@HMMMMMMMMM@Z ; CTerrainPatch::AddVertex

; 502  : 				pfHM += (ulMaxExtent * nHMDelta) ;

  0140d	8b 45 28	 mov	 eax, DWORD PTR _ulMaxExtent$[ebp]
  01410	0f af 85 98 fe
	ff ff		 imul	 eax, DWORD PTR _nHMDelta$85848[ebp]
  01417	8b 8d 80 fe ff
	ff		 mov	 ecx, DWORD PTR _pfHM$85850[ebp]
  0141d	8d 14 81	 lea	 edx, DWORD PTR [ecx+eax*4]
  01420	89 95 80 fe ff
	ff		 mov	 DWORD PTR _pfHM$85850[ebp], edx

; 503  : 				pCM += (ulMaxExtent * nHMDelta) ;

  01426	8b 45 28	 mov	 eax, DWORD PTR _ulMaxExtent$[ebp]
  01429	0f af 85 98 fe
	ff ff		 imul	 eax, DWORD PTR _nHMDelta$85848[ebp]
  01430	c1 e0 04	 shl	 eax, 4
  01433	8b 8d 08 fe ff
	ff		 mov	 ecx, DWORD PTR _pCM$85860[ebp]
  01439	03 c8		 add	 ecx, eax
  0143b	89 8d 08 fe ff
	ff		 mov	 DWORD PTR _pCM$85860[ebp], ecx

; 504  : 			}

  01441	e9 98 fe ff ff	 jmp	 $L85868
$L85869:

; 505  : 		// bottom edge
; 506  : 			pfHM = pfHMStart + (ulMaxExtent * m_nPatchMaxLODSQ) + nHMDelta / 2 ;

  01446	8b 45 f8	 mov	 eax, DWORD PTR _this$[ebp]
  01449	8b 4d 28	 mov	 ecx, DWORD PTR _ulMaxExtent$[ebp]
  0144c	0f af 08	 imul	 ecx, DWORD PTR [eax]
  0144f	8b 55 c8	 mov	 edx, DWORD PTR _pfHMStart$[ebp]
  01452	8d 0c 8a	 lea	 ecx, DWORD PTR [edx+ecx*4]
  01455	8b 85 98 fe ff
	ff		 mov	 eax, DWORD PTR _nHMDelta$85848[ebp]
  0145b	99		 cdq
  0145c	2b c2		 sub	 eax, edx
  0145e	d1 f8		 sar	 eax, 1
  01460	8d 14 81	 lea	 edx, DWORD PTR [ecx+eax*4]
  01463	89 95 80 fe ff
	ff		 mov	 DWORD PTR _pfHM$85850[ebp], edx

; 507  : 			pCM = pCMStart + (ulMaxExtent * m_nPatchMaxLODSQ) + nHMDelta / 2 ;

  01469	8b 45 f8	 mov	 eax, DWORD PTR _this$[ebp]
  0146c	8b 4d 28	 mov	 ecx, DWORD PTR _ulMaxExtent$[ebp]
  0146f	0f af 08	 imul	 ecx, DWORD PTR [eax]
  01472	c1 e1 04	 shl	 ecx, 4
  01475	8b 75 bc	 mov	 esi, DWORD PTR _pCMStart$[ebp]
  01478	03 f1		 add	 esi, ecx
  0147a	8b 85 98 fe ff
	ff		 mov	 eax, DWORD PTR _nHMDelta$85848[ebp]
  01480	99		 cdq
  01481	2b c2		 sub	 eax, edx
  01483	d1 f8		 sar	 eax, 1
  01485	c1 e0 04	 shl	 eax, 4
  01488	03 f0		 add	 esi, eax
  0148a	89 b5 08 fe ff
	ff		 mov	 DWORD PTR _pCM$85860[ebp], esi

; 508  : 			for (i = 0 ; i < nPatchSQ ; i ++)

  01490	c7 85 8c fe ff
	ff 00 00 00 00	 mov	 DWORD PTR _i$85849[ebp], 0
  0149a	eb 0f		 jmp	 SHORT $L85873
$L85874:
  0149c	8b 85 8c fe ff
	ff		 mov	 eax, DWORD PTR _i$85849[ebp]
  014a2	83 c0 01	 add	 eax, 1
  014a5	89 85 8c fe ff
	ff		 mov	 DWORD PTR _i$85849[ebp], eax
$L85873:
  014ab	8b 85 8c fe ff
	ff		 mov	 eax, DWORD PTR _i$85849[ebp]
  014b1	3b 45 08	 cmp	 eax, DWORD PTR _nPatchSQ$[ebp]
  014b4	0f 8d 42 01 00
	00		 jge	 $L85875

; 509  : 			{
; 510  : 				fX = (float)i / (float)nPatchSQ + 1.0f / (float)(nPatchSQ * 2) ;

  014ba	db 85 8c fe ff
	ff		 fild	 DWORD PTR _i$85849[ebp]
  014c0	da 75 08	 fidiv	 DWORD PTR _nPatchSQ$[ebp]
  014c3	8b 45 08	 mov	 eax, DWORD PTR _nPatchSQ$[ebp]
  014c6	d1 e0		 shl	 eax, 1
  014c8	89 85 b4 f8 ff
	ff		 mov	 DWORD PTR tv5062[ebp], eax
  014ce	db 85 b4 f8 ff
	ff		 fild	 DWORD PTR tv5062[ebp]
  014d4	d8 3d 00 00 00
	00		 fdivr	 DWORD PTR __real@3f800000
  014da	de c1		 faddp	 ST(1), ST(0)
  014dc	d9 9d 74 fe ff
	ff		 fstp	 DWORD PTR _fX$85851[ebp]

; 511  : 				fY = 1.0f ;

  014e2	c7 85 68 fe ff
	ff 00 00 80 3f	 mov	 DWORD PTR _fY$85852[ebp], 1065353216 ; 3f800000H

; 512  : 				fVertexX = pvTL->x + fX * fWidth ;

  014ec	d9 85 74 fe ff
	ff		 fld	 DWORD PTR _fX$85851[ebp]
  014f2	d8 4d 10	 fmul	 DWORD PTR _fWidth$[ebp]
  014f5	8b 45 0c	 mov	 eax, DWORD PTR _pvTL$[ebp]
  014f8	d8 00		 fadd	 DWORD PTR [eax]
  014fa	d9 9d 2c fe ff
	ff		 fstp	 DWORD PTR _fVertexX$85857[ebp]

; 513  : 				fVertexY = *pfHM ;

  01500	8b 85 80 fe ff
	ff		 mov	 eax, DWORD PTR _pfHM$85850[ebp]
  01506	8b 08		 mov	 ecx, DWORD PTR [eax]
  01508	89 8d 20 fe ff
	ff		 mov	 DWORD PTR _fVertexY$85858[ebp], ecx

; 514  : 				fVertexZ = pvTL->z + fY * fDepth ;

  0150e	d9 85 68 fe ff
	ff		 fld	 DWORD PTR _fY$85852[ebp]
  01514	d8 4d 14	 fmul	 DWORD PTR _fDepth$[ebp]
  01517	8b 45 0c	 mov	 eax, DWORD PTR _pvTL$[ebp]
  0151a	d8 40 08	 fadd	 DWORD PTR [eax+8]
  0151d	d9 9d 14 fe ff
	ff		 fstp	 DWORD PTR _fVertexZ$85859[ebp]

; 515  : 				r = pCM->r ; g = pCM->g ; b = pCM->b ; a = pCM->a ;

  01523	8b 85 08 fe ff
	ff		 mov	 eax, DWORD PTR _pCM$85860[ebp]
  01529	8b 08		 mov	 ecx, DWORD PTR [eax]
  0152b	89 8d 5c fe ff
	ff		 mov	 DWORD PTR _r$85853[ebp], ecx
  01531	8b 85 08 fe ff
	ff		 mov	 eax, DWORD PTR _pCM$85860[ebp]
  01537	8b 48 04	 mov	 ecx, DWORD PTR [eax+4]
  0153a	89 8d 50 fe ff
	ff		 mov	 DWORD PTR _g$85854[ebp], ecx
  01540	8b 85 08 fe ff
	ff		 mov	 eax, DWORD PTR _pCM$85860[ebp]
  01546	8b 48 08	 mov	 ecx, DWORD PTR [eax+8]
  01549	89 8d 44 fe ff
	ff		 mov	 DWORD PTR _b$85855[ebp], ecx
  0154f	8b 85 08 fe ff
	ff		 mov	 eax, DWORD PTR _pCM$85860[ebp]
  01555	8b 48 0c	 mov	 ecx, DWORD PTR [eax+12]
  01558	89 8d 38 fe ff
	ff		 mov	 DWORD PTR _a$85856[ebp], ecx

; 516  : 				//TerrainVertexColours(&r, &g, &b, &a, *pfHM, fMaxY, fMinY) ;
; 517  : 				AddVertex(pRO, nVert++, fVertexX, fVertexY, fVertexZ, fX, fY, a, r, g, b) ;

  0155e	8b 85 04 ff ff
	ff		 mov	 eax, DWORD PTR _nVert$85784[ebp]
  01564	89 85 b4 f8 ff
	ff		 mov	 DWORD PTR tv1059[ebp], eax
  0156a	8b 8d 04 ff ff
	ff		 mov	 ecx, DWORD PTR _nVert$85784[ebp]
  01570	83 c1 01	 add	 ecx, 1
  01573	89 8d 04 ff ff
	ff		 mov	 DWORD PTR _nVert$85784[ebp], ecx
  01579	8b 95 44 fe ff
	ff		 mov	 edx, DWORD PTR _b$85855[ebp]
  0157f	52		 push	 edx
  01580	8b 85 50 fe ff
	ff		 mov	 eax, DWORD PTR _g$85854[ebp]
  01586	50		 push	 eax
  01587	8b 8d 5c fe ff
	ff		 mov	 ecx, DWORD PTR _r$85853[ebp]
  0158d	51		 push	 ecx
  0158e	8b 95 38 fe ff
	ff		 mov	 edx, DWORD PTR _a$85856[ebp]
  01594	52		 push	 edx
  01595	8b 85 68 fe ff
	ff		 mov	 eax, DWORD PTR _fY$85852[ebp]
  0159b	50		 push	 eax
  0159c	8b 8d 74 fe ff
	ff		 mov	 ecx, DWORD PTR _fX$85851[ebp]
  015a2	51		 push	 ecx
  015a3	8b 95 14 fe ff
	ff		 mov	 edx, DWORD PTR _fVertexZ$85859[ebp]
  015a9	52		 push	 edx
  015aa	8b 85 20 fe ff
	ff		 mov	 eax, DWORD PTR _fVertexY$85858[ebp]
  015b0	50		 push	 eax
  015b1	8b 8d 2c fe ff
	ff		 mov	 ecx, DWORD PTR _fVertexX$85857[ebp]
  015b7	51		 push	 ecx
  015b8	8b 95 b4 f8 ff
	ff		 mov	 edx, DWORD PTR tv1059[ebp]
  015be	52		 push	 edx
  015bf	8b 45 18	 mov	 eax, DWORD PTR _pRO$[ebp]
  015c2	50		 push	 eax
  015c3	8b 4d f8	 mov	 ecx, DWORD PTR _this$[ebp]
  015c6	e8 00 00 00 00	 call	 ?AddVertex@CTerrainPatch@@QAEXPAVCProceduralRenderObject@@HMMMMMMMMM@Z ; CTerrainPatch::AddVertex

; 518  : 				pfHM += nHMDelta ;

  015cb	8b 85 98 fe ff
	ff		 mov	 eax, DWORD PTR _nHMDelta$85848[ebp]
  015d1	8b 8d 80 fe ff
	ff		 mov	 ecx, DWORD PTR _pfHM$85850[ebp]
  015d7	8d 14 81	 lea	 edx, DWORD PTR [ecx+eax*4]
  015da	89 95 80 fe ff
	ff		 mov	 DWORD PTR _pfHM$85850[ebp], edx

; 519  : 				pCM += nHMDelta ;

  015e0	8b 85 98 fe ff
	ff		 mov	 eax, DWORD PTR _nHMDelta$85848[ebp]
  015e6	c1 e0 04	 shl	 eax, 4
  015e9	8b 8d 08 fe ff
	ff		 mov	 ecx, DWORD PTR _pCM$85860[ebp]
  015ef	03 c8		 add	 ecx, eax
  015f1	89 8d 08 fe ff
	ff		 mov	 DWORD PTR _pCM$85860[ebp], ecx

; 520  : 			}

  015f7	e9 a0 fe ff ff	 jmp	 $L85874
$L85875:

; 521  : 		// right edge
; 522  : 			pfHM = pfHMStart + (ulMaxExtent * (nHMDelta / 2)) + m_nPatchMaxLODSQ ;

  015fc	8b 85 98 fe ff
	ff		 mov	 eax, DWORD PTR _nHMDelta$85848[ebp]
  01602	99		 cdq
  01603	2b c2		 sub	 eax, edx
  01605	d1 f8		 sar	 eax, 1
  01607	8b 4d 28	 mov	 ecx, DWORD PTR _ulMaxExtent$[ebp]
  0160a	0f af c8	 imul	 ecx, eax
  0160d	8b 55 c8	 mov	 edx, DWORD PTR _pfHMStart$[ebp]
  01610	8d 04 8a	 lea	 eax, DWORD PTR [edx+ecx*4]
  01613	8b 4d f8	 mov	 ecx, DWORD PTR _this$[ebp]
  01616	8b 11		 mov	 edx, DWORD PTR [ecx]
  01618	8d 04 90	 lea	 eax, DWORD PTR [eax+edx*4]
  0161b	89 85 80 fe ff
	ff		 mov	 DWORD PTR _pfHM$85850[ebp], eax

; 523  : 			pCM = pCMStart + (ulMaxExtent * (nHMDelta / 2)) + m_nPatchMaxLODSQ ;

  01621	8b 85 98 fe ff
	ff		 mov	 eax, DWORD PTR _nHMDelta$85848[ebp]
  01627	99		 cdq
  01628	2b c2		 sub	 eax, edx
  0162a	d1 f8		 sar	 eax, 1
  0162c	8b 4d 28	 mov	 ecx, DWORD PTR _ulMaxExtent$[ebp]
  0162f	0f af c8	 imul	 ecx, eax
  01632	c1 e1 04	 shl	 ecx, 4
  01635	8b 55 bc	 mov	 edx, DWORD PTR _pCMStart$[ebp]
  01638	03 d1		 add	 edx, ecx
  0163a	8b 45 f8	 mov	 eax, DWORD PTR _this$[ebp]
  0163d	8b 08		 mov	 ecx, DWORD PTR [eax]
  0163f	c1 e1 04	 shl	 ecx, 4
  01642	03 d1		 add	 edx, ecx
  01644	89 95 08 fe ff
	ff		 mov	 DWORD PTR _pCM$85860[ebp], edx

; 524  : 			for (i = 0 ; i < nPatchSQ ; i ++)

  0164a	c7 85 8c fe ff
	ff 00 00 00 00	 mov	 DWORD PTR _i$85849[ebp], 0
  01654	eb 0f		 jmp	 SHORT $L85879
$L85880:
  01656	8b 85 8c fe ff
	ff		 mov	 eax, DWORD PTR _i$85849[ebp]
  0165c	83 c0 01	 add	 eax, 1
  0165f	89 85 8c fe ff
	ff		 mov	 DWORD PTR _i$85849[ebp], eax
$L85879:
  01665	8b 85 8c fe ff
	ff		 mov	 eax, DWORD PTR _i$85849[ebp]
  0166b	3b 45 08	 cmp	 eax, DWORD PTR _nPatchSQ$[ebp]
  0166e	0f 8d 4a 01 00
	00		 jge	 $L85847

; 525  : 			{
; 526  : 				fX = 1.0f ;

  01674	c7 85 74 fe ff
	ff 00 00 80 3f	 mov	 DWORD PTR _fX$85851[ebp], 1065353216 ; 3f800000H

; 527  : 				fY = (float)i / (float)nPatchSQ + 1.0f / (float)(nPatchSQ * 2) ;

  0167e	db 85 8c fe ff
	ff		 fild	 DWORD PTR _i$85849[ebp]
  01684	da 75 08	 fidiv	 DWORD PTR _nPatchSQ$[ebp]
  01687	8b 45 08	 mov	 eax, DWORD PTR _nPatchSQ$[ebp]
  0168a	d1 e0		 shl	 eax, 1
  0168c	89 85 b4 f8 ff
	ff		 mov	 DWORD PTR tv5123[ebp], eax
  01692	db 85 b4 f8 ff
	ff		 fild	 DWORD PTR tv5123[ebp]
  01698	d8 3d 00 00 00
	00		 fdivr	 DWORD PTR __real@3f800000
  0169e	de c1		 faddp	 ST(1), ST(0)
  016a0	d9 9d 68 fe ff
	ff		 fstp	 DWORD PTR _fY$85852[ebp]

; 528  : 				fVertexX = pvTL->x + fX * fWidth ;

  016a6	d9 85 74 fe ff
	ff		 fld	 DWORD PTR _fX$85851[ebp]
  016ac	d8 4d 10	 fmul	 DWORD PTR _fWidth$[ebp]
  016af	8b 45 0c	 mov	 eax, DWORD PTR _pvTL$[ebp]
  016b2	d8 00		 fadd	 DWORD PTR [eax]
  016b4	d9 9d 2c fe ff
	ff		 fstp	 DWORD PTR _fVertexX$85857[ebp]

; 529  : 				fVertexY = *pfHM ;

  016ba	8b 85 80 fe ff
	ff		 mov	 eax, DWORD PTR _pfHM$85850[ebp]
  016c0	8b 08		 mov	 ecx, DWORD PTR [eax]
  016c2	89 8d 20 fe ff
	ff		 mov	 DWORD PTR _fVertexY$85858[ebp], ecx

; 530  : 				fVertexZ = pvTL->z + fY * fDepth ;

  016c8	d9 85 68 fe ff
	ff		 fld	 DWORD PTR _fY$85852[ebp]
  016ce	d8 4d 14	 fmul	 DWORD PTR _fDepth$[ebp]
  016d1	8b 45 0c	 mov	 eax, DWORD PTR _pvTL$[ebp]
  016d4	d8 40 08	 fadd	 DWORD PTR [eax+8]
  016d7	d9 9d 14 fe ff
	ff		 fstp	 DWORD PTR _fVertexZ$85859[ebp]

; 531  : 				r = pCM->r ; g = pCM->g ; b = pCM->b ; a = pCM->a ;

  016dd	8b 85 08 fe ff
	ff		 mov	 eax, DWORD PTR _pCM$85860[ebp]
  016e3	8b 08		 mov	 ecx, DWORD PTR [eax]
  016e5	89 8d 5c fe ff
	ff		 mov	 DWORD PTR _r$85853[ebp], ecx
  016eb	8b 85 08 fe ff
	ff		 mov	 eax, DWORD PTR _pCM$85860[ebp]
  016f1	8b 48 04	 mov	 ecx, DWORD PTR [eax+4]
  016f4	89 8d 50 fe ff
	ff		 mov	 DWORD PTR _g$85854[ebp], ecx
  016fa	8b 85 08 fe ff
	ff		 mov	 eax, DWORD PTR _pCM$85860[ebp]
  01700	8b 48 08	 mov	 ecx, DWORD PTR [eax+8]
  01703	89 8d 44 fe ff
	ff		 mov	 DWORD PTR _b$85855[ebp], ecx
  01709	8b 85 08 fe ff
	ff		 mov	 eax, DWORD PTR _pCM$85860[ebp]
  0170f	8b 48 0c	 mov	 ecx, DWORD PTR [eax+12]
  01712	89 8d 38 fe ff
	ff		 mov	 DWORD PTR _a$85856[ebp], ecx

; 532  : 				//TerrainVertexColours(&r, &g, &b, &a, *pfHM, fMaxY, fMinY) ;
; 533  : 				AddVertex(pRO, nVert++, fVertexX, fVertexY, fVertexZ, fX, fY, a, r, g, b) ;

  01718	8b 85 04 ff ff
	ff		 mov	 eax, DWORD PTR _nVert$85784[ebp]
  0171e	89 85 b4 f8 ff
	ff		 mov	 DWORD PTR tv1106[ebp], eax
  01724	8b 8d 04 ff ff
	ff		 mov	 ecx, DWORD PTR _nVert$85784[ebp]
  0172a	83 c1 01	 add	 ecx, 1
  0172d	89 8d 04 ff ff
	ff		 mov	 DWORD PTR _nVert$85784[ebp], ecx
  01733	8b 95 44 fe ff
	ff		 mov	 edx, DWORD PTR _b$85855[ebp]
  01739	52		 push	 edx
  0173a	8b 85 50 fe ff
	ff		 mov	 eax, DWORD PTR _g$85854[ebp]
  01740	50		 push	 eax
  01741	8b 8d 5c fe ff
	ff		 mov	 ecx, DWORD PTR _r$85853[ebp]
  01747	51		 push	 ecx
  01748	8b 95 38 fe ff
	ff		 mov	 edx, DWORD PTR _a$85856[ebp]
  0174e	52		 push	 edx
  0174f	8b 85 68 fe ff
	ff		 mov	 eax, DWORD PTR _fY$85852[ebp]
  01755	50		 push	 eax
  01756	8b 8d 74 fe ff
	ff		 mov	 ecx, DWORD PTR _fX$85851[ebp]
  0175c	51		 push	 ecx
  0175d	8b 95 14 fe ff
	ff		 mov	 edx, DWORD PTR _fVertexZ$85859[ebp]
  01763	52		 push	 edx
  01764	8b 85 20 fe ff
	ff		 mov	 eax, DWORD PTR _fVertexY$85858[ebp]
  0176a	50		 push	 eax
  0176b	8b 8d 2c fe ff
	ff		 mov	 ecx, DWORD PTR _fVertexX$85857[ebp]
  01771	51		 push	 ecx
  01772	8b 95 b4 f8 ff
	ff		 mov	 edx, DWORD PTR tv1106[ebp]
  01778	52		 push	 edx
  01779	8b 45 18	 mov	 eax, DWORD PTR _pRO$[ebp]
  0177c	50		 push	 eax
  0177d	8b 4d f8	 mov	 ecx, DWORD PTR _this$[ebp]
  01780	e8 00 00 00 00	 call	 ?AddVertex@CTerrainPatch@@QAEXPAVCProceduralRenderObject@@HMMMMMMMMM@Z ; CTerrainPatch::AddVertex

; 534  : 				pfHM += (ulMaxExtent * nHMDelta) ;

  01785	8b 45 28	 mov	 eax, DWORD PTR _ulMaxExtent$[ebp]
  01788	0f af 85 98 fe
	ff ff		 imul	 eax, DWORD PTR _nHMDelta$85848[ebp]
  0178f	8b 8d 80 fe ff
	ff		 mov	 ecx, DWORD PTR _pfHM$85850[ebp]
  01795	8d 14 81	 lea	 edx, DWORD PTR [ecx+eax*4]
  01798	89 95 80 fe ff
	ff		 mov	 DWORD PTR _pfHM$85850[ebp], edx

; 535  : 				pCM += (ulMaxExtent * nHMDelta) ;

  0179e	8b 45 28	 mov	 eax, DWORD PTR _ulMaxExtent$[ebp]
  017a1	0f af 85 98 fe
	ff ff		 imul	 eax, DWORD PTR _nHMDelta$85848[ebp]
  017a8	c1 e0 04	 shl	 eax, 4
  017ab	8b 8d 08 fe ff
	ff		 mov	 ecx, DWORD PTR _pCM$85860[ebp]
  017b1	03 c8		 add	 ecx, eax
  017b3	89 8d 08 fe ff
	ff		 mov	 DWORD PTR _pCM$85860[ebp], ecx

; 536  : 			}			

  017b9	e9 98 fe ff ff	 jmp	 $L85880
$L85847:

; 537  : 		}
; 538  : 
; 539  : 	//
; 540  : 	// Supply bounding volume data to render object (necessary for ROs that don't use D3DXMesh):
; 541  : 	//
; 542  : 		pRO->m_vMin = vMin ;

  017be	8b 45 18	 mov	 eax, DWORD PTR _pRO$[ebp]
  017c1	05 58 0a 00 00	 add	 eax, 2648		; 00000a58H
  017c6	8b 8d 54 ff ff
	ff		 mov	 ecx, DWORD PTR _vMin$[ebp]
  017cc	89 08		 mov	 DWORD PTR [eax], ecx
  017ce	8b 95 58 ff ff
	ff		 mov	 edx, DWORD PTR _vMin$[ebp+4]
  017d4	89 50 04	 mov	 DWORD PTR [eax+4], edx
  017d7	8b 8d 5c ff ff
	ff		 mov	 ecx, DWORD PTR _vMin$[ebp+8]
  017dd	89 48 08	 mov	 DWORD PTR [eax+8], ecx

; 543  : 		pRO->m_vMax = vMax ;

  017e0	8b 45 18	 mov	 eax, DWORD PTR _pRO$[ebp]
  017e3	05 64 0a 00 00	 add	 eax, 2660		; 00000a64H
  017e8	8b 8d 40 ff ff
	ff		 mov	 ecx, DWORD PTR _vMax$[ebp]
  017ee	89 08		 mov	 DWORD PTR [eax], ecx
  017f0	8b 95 44 ff ff
	ff		 mov	 edx, DWORD PTR _vMax$[ebp+4]
  017f6	89 50 04	 mov	 DWORD PTR [eax+4], edx
  017f9	8b 8d 48 ff ff
	ff		 mov	 ecx, DWORD PTR _vMax$[ebp+8]
  017ff	89 48 08	 mov	 DWORD PTR [eax+8], ecx

; 544  : 	//
; 545  : 	// gameitems effectively increase the max. vector; affects frustrum culling.
; 546  : 	// this effectively rebounds the patche's bbox to include the items!
; 547  : 	//
; 548  : 		if( fItemMaxY > pRO->m_vMax.y )

  01802	8b 45 18	 mov	 eax, DWORD PTR _pRO$[ebp]
  01805	d9 45 ec	 fld	 DWORD PTR _fItemMaxY$[ebp]
  01808	d8 98 68 0a 00
	00		 fcomp	 DWORD PTR [eax+2664]
  0180e	df e0		 fnstsw	 ax
  01810	f6 c4 41	 test	 ah, 65			; 00000041H
  01813	75 0c		 jne	 SHORT $L85885

; 549  : 			pRO->m_vMax.y = fItemMaxY ;

  01815	8b 45 18	 mov	 eax, DWORD PTR _pRO$[ebp]
  01818	8b 4d ec	 mov	 ecx, DWORD PTR _fItemMaxY$[ebp]
  0181b	89 88 68 0a 00
	00		 mov	 DWORD PTR [eax+2664], ecx
$L85885:

; 550  : 
; 551  : 	//
; 552  : 	// Set the no. of drawing subsets:
; 553  : 	//
; 554  : 		pRO->m_ntvRS[0].nDSs = 6 ;

  01821	8b 45 18	 mov	 eax, DWORD PTR _pRO$[ebp]
  01824	c7 80 a0 00 00
	00 06 00 00 00	 mov	 DWORD PTR [eax+160], 6

; 555  : 
; 556  : 	//
; 557  : 	// Special DS, all in one go!
; 558  : 	//
; 559  : 		pRO->m_ntvRS[0].dwSS_StartIndex[DS_ALL] = 0 ;

  0182e	8b 45 18	 mov	 eax, DWORD PTR _pRO$[ebp]
  01831	c7 80 30 01 00
	00 00 00 00 00	 mov	 DWORD PTR [eax+304], 0

; 560  : 		pRO->m_ntvRS[0].dwSS_MinIndex[DS_ALL] = 0 ;

  0183b	8b 45 18	 mov	 eax, DWORD PTR _pRO$[ebp]
  0183e	c7 80 b8 00 00
	00 00 00 00 00	 mov	 DWORD PTR [eax+184], 0

; 561  : 		pRO->m_ntvRS[0].dwSS_MaxIndex[DS_ALL] = nVerts - 1 ;

  01848	8b 45 a4	 mov	 eax, DWORD PTR _nVerts$[ebp]
  0184b	83 e8 01	 sub	 eax, 1
  0184e	8b 4d 18	 mov	 ecx, DWORD PTR _pRO$[ebp]
  01851	89 81 e0 00 00
	00		 mov	 DWORD PTR [ecx+224], eax

; 562  : 		pRO->m_ntvRS[0].dwSS_PrimCount[DS_ALL] = nQuads * 2 ;

  01857	8b 45 b0	 mov	 eax, DWORD PTR _nQuads$[ebp]
  0185a	d1 e0		 shl	 eax, 1
  0185c	8b 4d 18	 mov	 ecx, DWORD PTR _pRO$[ebp]
  0185f	89 81 58 01 00
	00		 mov	 DWORD PTR [ecx+344], eax

; 563  : 		pRO->m_ntvRS[0].dwSS_NumVerts[DS_ALL] = nVerts	;

  01865	8b 45 18	 mov	 eax, DWORD PTR _pRO$[ebp]
  01868	8b 4d a4	 mov	 ecx, DWORD PTR _nVerts$[ebp]
  0186b	89 88 08 01 00
	00		 mov	 DWORD PTR [eax+264], ecx

; 564  : 		
; 565  : 	//
; 566  : 	// Assemble tri. lists of indices for main uniform grid:
; 567  : 	//
; 568  : 		DWORD nCurIndex = 0 ;

  01871	c7 85 fc fd ff
	ff 00 00 00 00	 mov	 DWORD PTR _nCurIndex$[ebp], 0

; 569  : 		DWORD nMaxVert = nVert ;

  0187b	8b 85 04 ff ff
	ff		 mov	 eax, DWORD PTR _nVert$85784[ebp]
  01881	89 85 f0 fd ff
	ff		 mov	 DWORD PTR _nMaxVert$[ebp], eax

; 570  : 		for (int nDS = DS_CENTER ; nDS <= DS_RIGHT_EDGE ; nDS ++)

  01887	c7 85 e4 fd ff
	ff 00 00 00 00	 mov	 DWORD PTR _nDS$85888[ebp], 0
  01891	eb 0f		 jmp	 SHORT $L85889
$L85890:
  01893	8b 85 e4 fd ff
	ff		 mov	 eax, DWORD PTR _nDS$85888[ebp]
  01899	83 c0 01	 add	 eax, 1
  0189c	89 85 e4 fd ff
	ff		 mov	 DWORD PTR _nDS$85888[ebp], eax
$L85889:
  018a2	83 bd e4 fd ff
	ff 04		 cmp	 DWORD PTR _nDS$85888[ebp], 4
  018a9	0f 8f 69 0d 00
	00		 jg	 $L85891

; 571  : 		{
; 572  : 		// maintain Drawing Subset data:
; 573  : 			pRO->m_ntvRS[0].dwSS_StartIndex[nDS] = nCurIndex ;

  018af	8b 85 e4 fd ff
	ff		 mov	 eax, DWORD PTR _nDS$85888[ebp]
  018b5	8b 4d 18	 mov	 ecx, DWORD PTR _pRO$[ebp]
  018b8	8b 95 fc fd ff
	ff		 mov	 edx, DWORD PTR _nCurIndex$[ebp]
  018be	89 94 81 1c 01
	00 00		 mov	 DWORD PTR [ecx+eax*4+284], edx

; 574  : 			pRO->m_ntvRS[0].dwSS_MinIndex[nDS] = nMaxVert ;

  018c5	8b 85 e4 fd ff
	ff		 mov	 eax, DWORD PTR _nDS$85888[ebp]
  018cb	8b 4d 18	 mov	 ecx, DWORD PTR _pRO$[ebp]
  018ce	8b 95 f0 fd ff
	ff		 mov	 edx, DWORD PTR _nMaxVert$[ebp]
  018d4	89 94 81 a4 00
	00 00		 mov	 DWORD PTR [ecx+eax*4+164], edx

; 575  : 			pRO->m_ntvRS[0].dwSS_MaxIndex[nDS] = 0 ;

  018db	8b 85 e4 fd ff
	ff		 mov	 eax, DWORD PTR _nDS$85888[ebp]
  018e1	8b 4d 18	 mov	 ecx, DWORD PTR _pRO$[ebp]
  018e4	c7 84 81 cc 00
	00 00 00 00 00
	00		 mov	 DWORD PTR [ecx+eax*4+204], 0

; 576  : 			pRO->m_ntvRS[0].dwSS_PrimCount[nDS] = 0 ;

  018ef	8b 85 e4 fd ff
	ff		 mov	 eax, DWORD PTR _nDS$85888[ebp]
  018f5	8b 4d 18	 mov	 ecx, DWORD PTR _pRO$[ebp]
  018f8	c7 84 81 44 01
	00 00 00 00 00
	00		 mov	 DWORD PTR [ecx+eax*4+324], 0

; 577  : 			switch (nDS)
; 578  : 			{

  01903	8b 85 e4 fd ff
	ff		 mov	 eax, DWORD PTR _nDS$85888[ebp]
  01909	89 85 b4 f8 ff
	ff		 mov	 DWORD PTR tv1169[ebp], eax
  0190f	83 bd b4 f8 ff
	ff 00		 cmp	 DWORD PTR tv1169[ebp], 0
  01916	74 14		 je	 SHORT $L85896
  01918	83 bd b4 f8 ff
	ff 00		 cmp	 DWORD PTR tv1169[ebp], 0
  0191f	7e 42		 jle	 SHORT $L85893
  01921	83 bd b4 f8 ff
	ff 04		 cmp	 DWORD PTR tv1169[ebp], 4
  01928	7e 23		 jle	 SHORT $L85897
  0192a	eb 37		 jmp	 SHORT $L85893
$L85896:

; 579  : 				case DS_CENTER:		pRO->m_ntvRS[0].dwSS_NumVerts[nDS] = (nPatchSQ - 1) * (nPatchSQ - 1) ; break ;

  0192c	8b 45 08	 mov	 eax, DWORD PTR _nPatchSQ$[ebp]
  0192f	83 e8 01	 sub	 eax, 1
  01932	8b 4d 08	 mov	 ecx, DWORD PTR _nPatchSQ$[ebp]
  01935	83 e9 01	 sub	 ecx, 1
  01938	0f af c1	 imul	 eax, ecx
  0193b	8b 95 e4 fd ff
	ff		 mov	 edx, DWORD PTR _nDS$85888[ebp]
  01941	8b 4d 18	 mov	 ecx, DWORD PTR _pRO$[ebp]
  01944	89 84 91 f4 00
	00 00		 mov	 DWORD PTR [ecx+edx*4+244], eax
  0194b	eb 16		 jmp	 SHORT $L85893
$L85897:

; 580  : 				case DS_TOP_EDGE:	
; 581  : 				case DS_LEFT_EDGE:
; 582  : 				case DS_BOTTOM_EDGE:
; 583  : 				case DS_RIGHT_EDGE: pRO->m_ntvRS[0].dwSS_NumVerts[nDS] = (nPatchSQ + 1) + (nPatchSQ - 2) + 1 ;

  0194d	8b 45 08	 mov	 eax, DWORD PTR _nPatchSQ$[ebp]
  01950	03 45 08	 add	 eax, DWORD PTR _nPatchSQ$[ebp]
  01953	8b 8d e4 fd ff
	ff		 mov	 ecx, DWORD PTR _nDS$85888[ebp]
  01959	8b 55 18	 mov	 edx, DWORD PTR _pRO$[ebp]
  0195c	89 84 8a f4 00
	00 00		 mov	 DWORD PTR [edx+ecx*4+244], eax
$L85893:

; 584  : 			}
; 585  : 			
; 586  : 			for (int nRow = 0 ; nRow <= nPatchSQ ; nRow ++)

  01963	c7 85 d8 fd ff
	ff 00 00 00 00	 mov	 DWORD PTR _nRow$85898[ebp], 0
  0196d	eb 0f		 jmp	 SHORT $L85899
$L85900:
  0196f	8b 85 d8 fd ff
	ff		 mov	 eax, DWORD PTR _nRow$85898[ebp]
  01975	83 c0 01	 add	 eax, 1
  01978	89 85 d8 fd ff
	ff		 mov	 DWORD PTR _nRow$85898[ebp], eax
$L85899:
  0197e	8b 85 d8 fd ff
	ff		 mov	 eax, DWORD PTR _nRow$85898[ebp]
  01984	3b 45 08	 cmp	 eax, DWORD PTR _nPatchSQ$[ebp]
  01987	0f 8f 86 0c 00
	00		 jg	 $L85901

; 587  : 			{
; 588  : 				nVert = nRow * (nPatchSQ + 1) ;

  0198d	8b 45 08	 mov	 eax, DWORD PTR _nPatchSQ$[ebp]
  01990	83 c0 01	 add	 eax, 1
  01993	8b 8d d8 fd ff
	ff		 mov	 ecx, DWORD PTR _nRow$85898[ebp]
  01999	0f af c8	 imul	 ecx, eax
  0199c	89 8d 04 ff ff
	ff		 mov	 DWORD PTR _nVert$85784[ebp], ecx

; 589  : 
; 590  : 				for (int nCol = 0 ; nCol < nPatchSQ ; nCol ++)

  019a2	c7 85 cc fd ff
	ff 00 00 00 00	 mov	 DWORD PTR _nCol$85902[ebp], 0
  019ac	eb 0f		 jmp	 SHORT $L85903
$L85904:
  019ae	8b 85 cc fd ff
	ff		 mov	 eax, DWORD PTR _nCol$85902[ebp]
  019b4	83 c0 01	 add	 eax, 1
  019b7	89 85 cc fd ff
	ff		 mov	 DWORD PTR _nCol$85902[ebp], eax
$L85903:
  019bd	8b 85 cc fd ff
	ff		 mov	 eax, DWORD PTR _nCol$85902[ebp]
  019c3	3b 45 08	 cmp	 eax, DWORD PTR _nPatchSQ$[ebp]
  019c6	0f 8d 42 0c 00
	00		 jge	 $L85905
  019cc	c6 85 bf f8 ff
	ff 00		 mov	 BYTE PTR $T86414[ebp], 0
  019d3	c6 85 cb f8 ff
	ff 00		 mov	 BYTE PTR $T86413[ebp], 0
  019da	c6 85 d7 f8 ff
	ff 00		 mov	 BYTE PTR $T86412[ebp], 0

; 591  : 				{
; 592  : 					WORD ndx1, ndx2, ndx3, ndxA, ndxB, ndxC ;
; 593  : 					
; 594  : 				// determine if this point is in the current subset
; 595  : 					BOOL bPointIsInDSForUpBuild = 1, bPointIsInDSForDownBuild = 1 ;

  019e1	c7 85 78 fd ff
	ff 01 00 00 00	 mov	 DWORD PTR _bPointIsInDSForUpBuild$85912[ebp], 1
  019eb	c7 85 6c fd ff
	ff 01 00 00 00	 mov	 DWORD PTR _bPointIsInDSForDownBuild$85913[ebp], 1

; 596  : 					
; 597  : 					switch (nDS)
; 598  : 					{

  019f5	8b 85 e4 fd ff
	ff		 mov	 eax, DWORD PTR _nDS$85888[ebp]
  019fb	89 85 b4 f8 ff
	ff		 mov	 DWORD PTR tv1196[ebp], eax
  01a01	83 bd b4 f8 ff
	ff 04		 cmp	 DWORD PTR tv1196[ebp], 4
  01a08	0f 87 a7 02 00
	00		 ja	 $L85915
  01a0e	8b 8d b4 f8 ff
	ff		 mov	 ecx, DWORD PTR tv1196[ebp]
  01a14	ff 24 8d 00 00
	00 00		 jmp	 DWORD PTR $L86437[ecx*4]
$L85918:

; 599  : 						case DS_CENTER:
; 600  : 							bPointIsInDSForUpBuild = bPointIsInDSForDownBuild = FALSE ;

  01a1b	c7 85 6c fd ff
	ff 00 00 00 00	 mov	 DWORD PTR _bPointIsInDSForDownBuild$85913[ebp], 0
  01a25	8b 85 6c fd ff
	ff		 mov	 eax, DWORD PTR _bPointIsInDSForDownBuild$85913[ebp]
  01a2b	89 85 78 fd ff
	ff		 mov	 DWORD PTR _bPointIsInDSForUpBuild$85912[ebp], eax

; 601  : 							if (nRow == 0 || nCol == 0 || nRow == nPatchSQ)	break ;			// trivially reject all extreme edge points

  01a31	83 bd d8 fd ff
	ff 00		 cmp	 DWORD PTR _nRow$85898[ebp], 0
  01a38	74 14		 je	 SHORT $L85920
  01a3a	83 bd cc fd ff
	ff 00		 cmp	 DWORD PTR _nCol$85902[ebp], 0
  01a41	74 0b		 je	 SHORT $L85920
  01a43	8b 85 d8 fd ff
	ff		 mov	 eax, DWORD PTR _nRow$85898[ebp]
  01a49	3b 45 08	 cmp	 eax, DWORD PTR _nPatchSQ$[ebp]
  01a4c	75 05		 jne	 SHORT $L85919
$L85920:
  01a4e	e9 62 02 00 00	 jmp	 $L85915
$L85919:

; 602  : 								
; 603  : 							bPointIsInDSForUpBuild = bPointIsInDSForDownBuild = TRUE ;

  01a53	c7 85 6c fd ff
	ff 01 00 00 00	 mov	 DWORD PTR _bPointIsInDSForDownBuild$85913[ebp], 1
  01a5d	8b 85 6c fd ff
	ff		 mov	 eax, DWORD PTR _bPointIsInDSForDownBuild$85913[ebp]
  01a63	89 85 78 fd ff
	ff		 mov	 DWORD PTR _bPointIsInDSForUpBuild$85912[ebp], eax

; 604  : 							if (nRow == 1) bPointIsInDSForUpBuild = FALSE ;					// reject top points for upbuilds

  01a69	83 bd d8 fd ff
	ff 01		 cmp	 DWORD PTR _nRow$85898[ebp], 1
  01a70	75 0a		 jne	 SHORT $L85921
  01a72	c7 85 78 fd ff
	ff 00 00 00 00	 mov	 DWORD PTR _bPointIsInDSForUpBuild$85912[ebp], 0
$L85921:

; 605  : 							if (nRow == nPatchSQ - 1) bPointIsInDSForDownBuild = FALSE ;	// reject bottom points of downbuilds

  01a7c	8b 45 08	 mov	 eax, DWORD PTR _nPatchSQ$[ebp]
  01a7f	83 e8 01	 sub	 eax, 1
  01a82	39 85 d8 fd ff
	ff		 cmp	 DWORD PTR _nRow$85898[ebp], eax
  01a88	75 0a		 jne	 SHORT $L85922
  01a8a	c7 85 6c fd ff
	ff 00 00 00 00	 mov	 DWORD PTR _bPointIsInDSForDownBuild$85913[ebp], 0
$L85922:

; 606  : 							if (nCol == nPatchSQ - 1) bPointIsInDSForDownBuild = bPointIsInDSForUpBuild = FALSE ;// reject right points for upbuilds and downbuilds

  01a94	8b 45 08	 mov	 eax, DWORD PTR _nPatchSQ$[ebp]
  01a97	83 e8 01	 sub	 eax, 1
  01a9a	39 85 cc fd ff
	ff		 cmp	 DWORD PTR _nCol$85902[ebp], eax
  01aa0	75 16		 jne	 SHORT $L85923
  01aa2	c7 85 78 fd ff
	ff 00 00 00 00	 mov	 DWORD PTR _bPointIsInDSForUpBuild$85912[ebp], 0
  01aac	8b 85 78 fd ff
	ff		 mov	 eax, DWORD PTR _bPointIsInDSForUpBuild$85912[ebp]
  01ab2	89 85 6c fd ff
	ff		 mov	 DWORD PTR _bPointIsInDSForDownBuild$85913[ebp], eax
$L85923:

; 607  : 							break ;

  01ab8	e9 f8 01 00 00	 jmp	 $L85915
$L85924:

; 608  : 						
; 609  : 						case DS_TOP_EDGE:
; 610  : 							bPointIsInDSForUpBuild = bPointIsInDSForDownBuild = FALSE ;

  01abd	c7 85 6c fd ff
	ff 00 00 00 00	 mov	 DWORD PTR _bPointIsInDSForDownBuild$85913[ebp], 0
  01ac7	8b 85 6c fd ff
	ff		 mov	 eax, DWORD PTR _bPointIsInDSForDownBuild$85913[ebp]
  01acd	89 85 78 fd ff
	ff		 mov	 DWORD PTR _bPointIsInDSForUpBuild$85912[ebp], eax

; 611  : 							if (nRow > 1) break ;											// trivially reject all points below second row

  01ad3	83 bd d8 fd ff
	ff 01		 cmp	 DWORD PTR _nRow$85898[ebp], 1
  01ada	7e 05		 jle	 SHORT $L85925
  01adc	e9 d4 01 00 00	 jmp	 $L85915
$L85925:

; 612  : 							if (nRow == 1 && nCol == 0) break ;

  01ae1	83 bd d8 fd ff
	ff 01		 cmp	 DWORD PTR _nRow$85898[ebp], 1
  01ae8	75 0e		 jne	 SHORT $L85926
  01aea	83 bd cc fd ff
	ff 00		 cmp	 DWORD PTR _nCol$85902[ebp], 0
  01af1	75 05		 jne	 SHORT $L85926
  01af3	e9 bd 01 00 00	 jmp	 $L85915
$L85926:

; 613  : 							
; 614  : 							bPointIsInDSForUpBuild = bPointIsInDSForDownBuild = TRUE ;

  01af8	c7 85 6c fd ff
	ff 01 00 00 00	 mov	 DWORD PTR _bPointIsInDSForDownBuild$85913[ebp], 1
  01b02	8b 85 6c fd ff
	ff		 mov	 eax, DWORD PTR _bPointIsInDSForDownBuild$85913[ebp]
  01b08	89 85 78 fd ff
	ff		 mov	 DWORD PTR _bPointIsInDSForUpBuild$85912[ebp], eax

; 615  : 							if (nRow == 1) bPointIsInDSForDownBuild = FALSE ;

  01b0e	83 bd d8 fd ff
	ff 01		 cmp	 DWORD PTR _nRow$85898[ebp], 1
  01b15	75 0a		 jne	 SHORT $L85927
  01b17	c7 85 6c fd ff
	ff 00 00 00 00	 mov	 DWORD PTR _bPointIsInDSForDownBuild$85913[ebp], 0
$L85927:

; 616  : 							if (nRow == 1 && nCol == nPatchSQ - 1) bPointIsInDSForUpBuild = FALSE ;

  01b21	83 bd d8 fd ff
	ff 01		 cmp	 DWORD PTR _nRow$85898[ebp], 1
  01b28	75 18		 jne	 SHORT $L85928
  01b2a	8b 45 08	 mov	 eax, DWORD PTR _nPatchSQ$[ebp]
  01b2d	83 e8 01	 sub	 eax, 1
  01b30	39 85 cc fd ff
	ff		 cmp	 DWORD PTR _nCol$85902[ebp], eax
  01b36	75 0a		 jne	 SHORT $L85928
  01b38	c7 85 78 fd ff
	ff 00 00 00 00	 mov	 DWORD PTR _bPointIsInDSForUpBuild$85912[ebp], 0
$L85928:

; 617  : 							break ;

  01b42	e9 6e 01 00 00	 jmp	 $L85915
$L85929:

; 618  : 
; 619  : 						case DS_LEFT_EDGE:
; 620  : 							bPointIsInDSForUpBuild = bPointIsInDSForDownBuild = FALSE ;

  01b47	c7 85 6c fd ff
	ff 00 00 00 00	 mov	 DWORD PTR _bPointIsInDSForDownBuild$85913[ebp], 0
  01b51	8b 85 6c fd ff
	ff		 mov	 eax, DWORD PTR _bPointIsInDSForDownBuild$85913[ebp]
  01b57	89 85 78 fd ff
	ff		 mov	 DWORD PTR _bPointIsInDSForUpBuild$85912[ebp], eax

; 621  : 							if (nCol > 0) break ;											// trivially reject all points to the right of the first col

  01b5d	83 bd cc fd ff
	ff 00		 cmp	 DWORD PTR _nCol$85902[ebp], 0
  01b64	7e 05		 jle	 SHORT $L85930
  01b66	e9 4a 01 00 00	 jmp	 $L85915
$L85930:

; 622  : 							if (nCol == 0 && nRow == 0) break ;

  01b6b	83 bd cc fd ff
	ff 00		 cmp	 DWORD PTR _nCol$85902[ebp], 0
  01b72	75 0e		 jne	 SHORT $L85931
  01b74	83 bd d8 fd ff
	ff 00		 cmp	 DWORD PTR _nRow$85898[ebp], 0
  01b7b	75 05		 jne	 SHORT $L85931
  01b7d	e9 33 01 00 00	 jmp	 $L85915
$L85931:

; 623  : 							if (nCol == 0 && nRow == nPatchSQ) break ;

  01b82	83 bd cc fd ff
	ff 00		 cmp	 DWORD PTR _nCol$85902[ebp], 0
  01b89	75 10		 jne	 SHORT $L85932
  01b8b	8b 85 d8 fd ff
	ff		 mov	 eax, DWORD PTR _nRow$85898[ebp]
  01b91	3b 45 08	 cmp	 eax, DWORD PTR _nPatchSQ$[ebp]
  01b94	75 05		 jne	 SHORT $L85932
  01b96	e9 1a 01 00 00	 jmp	 $L85915
$L85932:

; 624  : 
; 625  : 							bPointIsInDSForUpBuild = bPointIsInDSForDownBuild = TRUE ;

  01b9b	c7 85 6c fd ff
	ff 01 00 00 00	 mov	 DWORD PTR _bPointIsInDSForDownBuild$85913[ebp], 1
  01ba5	8b 85 6c fd ff
	ff		 mov	 eax, DWORD PTR _bPointIsInDSForDownBuild$85913[ebp]
  01bab	89 85 78 fd ff
	ff		 mov	 DWORD PTR _bPointIsInDSForUpBuild$85912[ebp], eax

; 626  : 							break ;

  01bb1	e9 ff 00 00 00	 jmp	 $L85915
$L85933:

; 627  : 
; 628  : 						case DS_BOTTOM_EDGE:
; 629  : 							bPointIsInDSForUpBuild = bPointIsInDSForDownBuild = FALSE ;

  01bb6	c7 85 6c fd ff
	ff 00 00 00 00	 mov	 DWORD PTR _bPointIsInDSForDownBuild$85913[ebp], 0
  01bc0	8b 85 6c fd ff
	ff		 mov	 eax, DWORD PTR _bPointIsInDSForDownBuild$85913[ebp]
  01bc6	89 85 78 fd ff
	ff		 mov	 DWORD PTR _bPointIsInDSForUpBuild$85912[ebp], eax

; 630  : 							if (nRow < nPatchSQ - 1) break ;

  01bcc	8b 45 08	 mov	 eax, DWORD PTR _nPatchSQ$[ebp]
  01bcf	83 e8 01	 sub	 eax, 1
  01bd2	39 85 d8 fd ff
	ff		 cmp	 DWORD PTR _nRow$85898[ebp], eax
  01bd8	7d 05		 jge	 SHORT $L85934
  01bda	e9 d6 00 00 00	 jmp	 $L85915
$L85934:

; 631  : 							if (nRow == nPatchSQ - 1 && (nCol == 0)) break ;

  01bdf	8b 45 08	 mov	 eax, DWORD PTR _nPatchSQ$[ebp]
  01be2	83 e8 01	 sub	 eax, 1
  01be5	39 85 d8 fd ff
	ff		 cmp	 DWORD PTR _nRow$85898[ebp], eax
  01beb	75 0e		 jne	 SHORT $L85935
  01bed	83 bd cc fd ff
	ff 00		 cmp	 DWORD PTR _nCol$85902[ebp], 0
  01bf4	75 05		 jne	 SHORT $L85935
  01bf6	e9 ba 00 00 00	 jmp	 $L85915
$L85935:

; 632  : 							
; 633  : 							bPointIsInDSForUpBuild = bPointIsInDSForDownBuild = TRUE ;

  01bfb	c7 85 6c fd ff
	ff 01 00 00 00	 mov	 DWORD PTR _bPointIsInDSForDownBuild$85913[ebp], 1
  01c05	8b 85 6c fd ff
	ff		 mov	 eax, DWORD PTR _bPointIsInDSForDownBuild$85913[ebp]
  01c0b	89 85 78 fd ff
	ff		 mov	 DWORD PTR _bPointIsInDSForUpBuild$85912[ebp], eax

; 634  : 							if (nRow == nPatchSQ - 1) bPointIsInDSForUpBuild = FALSE ;

  01c11	8b 45 08	 mov	 eax, DWORD PTR _nPatchSQ$[ebp]
  01c14	83 e8 01	 sub	 eax, 1
  01c17	39 85 d8 fd ff
	ff		 cmp	 DWORD PTR _nRow$85898[ebp], eax
  01c1d	75 0a		 jne	 SHORT $L85936
  01c1f	c7 85 78 fd ff
	ff 00 00 00 00	 mov	 DWORD PTR _bPointIsInDSForUpBuild$85912[ebp], 0
$L85936:

; 635  : 							if (nRow == nPatchSQ - 1 && nCol == nPatchSQ - 1) bPointIsInDSForDownBuild = FALSE ;

  01c29	8b 45 08	 mov	 eax, DWORD PTR _nPatchSQ$[ebp]
  01c2c	83 e8 01	 sub	 eax, 1
  01c2f	39 85 d8 fd ff
	ff		 cmp	 DWORD PTR _nRow$85898[ebp], eax
  01c35	75 18		 jne	 SHORT $L85937
  01c37	8b 45 08	 mov	 eax, DWORD PTR _nPatchSQ$[ebp]
  01c3a	83 e8 01	 sub	 eax, 1
  01c3d	39 85 cc fd ff
	ff		 cmp	 DWORD PTR _nCol$85902[ebp], eax
  01c43	75 0a		 jne	 SHORT $L85937
  01c45	c7 85 6c fd ff
	ff 00 00 00 00	 mov	 DWORD PTR _bPointIsInDSForDownBuild$85913[ebp], 0
$L85937:

; 636  : 							break ;

  01c4f	eb 64		 jmp	 SHORT $L85915
$L85938:

; 637  : 
; 638  : 						case DS_RIGHT_EDGE:
; 639  : 							bPointIsInDSForUpBuild = bPointIsInDSForDownBuild = FALSE ;

  01c51	c7 85 6c fd ff
	ff 00 00 00 00	 mov	 DWORD PTR _bPointIsInDSForDownBuild$85913[ebp], 0
  01c5b	8b 85 6c fd ff
	ff		 mov	 eax, DWORD PTR _bPointIsInDSForDownBuild$85913[ebp]
  01c61	89 85 78 fd ff
	ff		 mov	 DWORD PTR _bPointIsInDSForUpBuild$85912[ebp], eax

; 640  : 							if (nCol < nPatchSQ - 1) break ;

  01c67	8b 45 08	 mov	 eax, DWORD PTR _nPatchSQ$[ebp]
  01c6a	83 e8 01	 sub	 eax, 1
  01c6d	39 85 cc fd ff
	ff		 cmp	 DWORD PTR _nCol$85902[ebp], eax
  01c73	7d 02		 jge	 SHORT $L85939
  01c75	eb 3e		 jmp	 SHORT $L85915
$L85939:

; 641  : 							
; 642  : 							bPointIsInDSForUpBuild = bPointIsInDSForDownBuild = TRUE ;							

  01c77	c7 85 6c fd ff
	ff 01 00 00 00	 mov	 DWORD PTR _bPointIsInDSForDownBuild$85913[ebp], 1
  01c81	8b 85 6c fd ff
	ff		 mov	 eax, DWORD PTR _bPointIsInDSForDownBuild$85913[ebp]
  01c87	89 85 78 fd ff
	ff		 mov	 DWORD PTR _bPointIsInDSForUpBuild$85912[ebp], eax

; 643  : 							if (nRow == 0) bPointIsInDSForDownBuild = FALSE ;

  01c8d	83 bd d8 fd ff
	ff 00		 cmp	 DWORD PTR _nRow$85898[ebp], 0
  01c94	75 0a		 jne	 SHORT $L85940
  01c96	c7 85 6c fd ff
	ff 00 00 00 00	 mov	 DWORD PTR _bPointIsInDSForDownBuild$85913[ebp], 0
$L85940:

; 644  : 							if (nRow == nPatchSQ) bPointIsInDSForUpBuild = FALSE ;

  01ca0	8b 85 d8 fd ff
	ff		 mov	 eax, DWORD PTR _nRow$85898[ebp]
  01ca6	3b 45 08	 cmp	 eax, DWORD PTR _nPatchSQ$[ebp]
  01ca9	75 0a		 jne	 SHORT $L85915
  01cab	c7 85 78 fd ff
	ff 00 00 00 00	 mov	 DWORD PTR _bPointIsInDSForUpBuild$85912[ebp], 0
$L85915:

; 645  : 					}
; 646  : 					
; 647  : 				// if it is, then insert indices for one primitive
; 648  : 					if (nRow != nPatchSQ && bPointIsInDSForDownBuild)

  01cb5	8b 85 d8 fd ff
	ff		 mov	 eax, DWORD PTR _nRow$85898[ebp]
  01cbb	3b 45 08	 cmp	 eax, DWORD PTR _nPatchSQ$[ebp]
  01cbe	0f 84 a4 02 00
	00		 je	 $L85942
  01cc4	83 bd 6c fd ff
	ff 00		 cmp	 DWORD PTR _bPointIsInDSForDownBuild$85913[ebp], 0
  01ccb	0f 84 97 02 00
	00		 je	 $L85942

; 649  : 					{	//
; 650  : 						// downbuild	A B 
; 651  : 						//				C
; 652  : 						//
; 653  : 
; 654  : 						if ((nRow == 0 && nCol == 0) || (nRow == nPatchSQ - 1 && nCol == nPatchSQ - 1))

  01cd1	83 bd d8 fd ff
	ff 00		 cmp	 DWORD PTR _nRow$85898[ebp], 0
  01cd8	75 09		 jne	 SHORT $L85945
  01cda	83 bd cc fd ff
	ff 00		 cmp	 DWORD PTR _nCol$85902[ebp], 0
  01ce1	74 1c		 je	 SHORT $L85944
$L85945:
  01ce3	8b 45 08	 mov	 eax, DWORD PTR _nPatchSQ$[ebp]
  01ce6	83 e8 01	 sub	 eax, 1
  01ce9	39 85 d8 fd ff
	ff		 cmp	 DWORD PTR _nRow$85898[ebp], eax
  01cef	75 42		 jne	 SHORT $L85943
  01cf1	8b 45 08	 mov	 eax, DWORD PTR _nPatchSQ$[ebp]
  01cf4	83 e8 01	 sub	 eax, 1
  01cf7	39 85 cc fd ff
	ff		 cmp	 DWORD PTR _nCol$85902[ebp], eax
  01cfd	75 34		 jne	 SHORT $L85943
$L85944:

; 655  : 						{	// special case on corners
; 656  : 							ndx1 = nVert ;

  01cff	66 8b 85 04 ff
	ff ff		 mov	 ax, WORD PTR _nVert$85784[ebp]
  01d06	66 89 85 c0 fd
	ff ff		 mov	 WORD PTR _ndx1$85906[ebp], ax

; 657  : 							ndx2 = nVert + 1 ;

  01d0d	8b 85 04 ff ff
	ff		 mov	 eax, DWORD PTR _nVert$85784[ebp]
  01d13	83 c0 01	 add	 eax, 1
  01d16	66 89 85 b4 fd
	ff ff		 mov	 WORD PTR _ndx2$85907[ebp], ax

; 658  : 							ndx3 = nVert + nPatchSQ + 2 ;

  01d1d	8b 45 08	 mov	 eax, DWORD PTR _nPatchSQ$[ebp]
  01d20	8b 8d 04 ff ff
	ff		 mov	 ecx, DWORD PTR _nVert$85784[ebp]
  01d26	8d 54 01 02	 lea	 edx, DWORD PTR [ecx+eax+2]
  01d2a	66 89 95 a8 fd
	ff ff		 mov	 WORD PTR _ndx3$85908[ebp], dx

; 659  : 						}
; 660  : 						else

  01d31	eb 32		 jmp	 SHORT $L85946
$L85943:

; 661  : 						{
; 662  : 							ndx1 = nVert ;

  01d33	66 8b 85 04 ff
	ff ff		 mov	 ax, WORD PTR _nVert$85784[ebp]
  01d3a	66 89 85 c0 fd
	ff ff		 mov	 WORD PTR _ndx1$85906[ebp], ax

; 663  : 							ndx2 = nVert + 1 ;

  01d41	8b 85 04 ff ff
	ff		 mov	 eax, DWORD PTR _nVert$85784[ebp]
  01d47	83 c0 01	 add	 eax, 1
  01d4a	66 89 85 b4 fd
	ff ff		 mov	 WORD PTR _ndx2$85907[ebp], ax

; 664  : 							ndx3 = nVert + nPatchSQ + 1 ;

  01d51	8b 45 08	 mov	 eax, DWORD PTR _nPatchSQ$[ebp]
  01d54	8b 8d 04 ff ff
	ff		 mov	 ecx, DWORD PTR _nVert$85784[ebp]
  01d5a	8d 54 01 01	 lea	 edx, DWORD PTR [ecx+eax+1]
  01d5e	66 89 95 a8 fd
	ff ff		 mov	 WORD PTR _ndx3$85908[ebp], dx
$L85946:

; 665  : 						}
; 666  : 						ndxA = ndx1 ; ndxB = ndx2 ; ndxC = ndx3 ;

  01d65	66 8b 85 c0 fd
	ff ff		 mov	 ax, WORD PTR _ndx1$85906[ebp]
  01d6c	66 89 85 9c fd
	ff ff		 mov	 WORD PTR _ndxA$85909[ebp], ax
  01d73	66 8b 85 b4 fd
	ff ff		 mov	 ax, WORD PTR _ndx2$85907[ebp]
  01d7a	66 89 85 90 fd
	ff ff		 mov	 WORD PTR _ndxB$85910[ebp], ax
  01d81	66 8b 85 a8 fd
	ff ff		 mov	 ax, WORD PTR _ndx3$85908[ebp]
  01d88	66 89 85 84 fd
	ff ff		 mov	 WORD PTR _ndxC$85911[ebp], ax

; 667  : 						_ADD_TRIANGLE( ndx1, ndx2, ndx3 )

  01d8f	8b 45 18	 mov	 eax, DWORD PTR _pRO$[ebp]
  01d92	8b 48 44	 mov	 ecx, DWORD PTR [eax+68]
  01d95	8b 95 fc fd ff
	ff		 mov	 edx, DWORD PTR _nCurIndex$[ebp]
  01d9b	66 8b 85 c0 fd
	ff ff		 mov	 ax, WORD PTR _ndx1$85906[ebp]
  01da2	66 89 04 51	 mov	 WORD PTR [ecx+edx*2], ax
  01da6	8b 8d fc fd ff
	ff		 mov	 ecx, DWORD PTR _nCurIndex$[ebp]
  01dac	83 c1 01	 add	 ecx, 1
  01daf	89 8d fc fd ff
	ff		 mov	 DWORD PTR _nCurIndex$[ebp], ecx
  01db5	8b 45 18	 mov	 eax, DWORD PTR _pRO$[ebp]
  01db8	8b 48 44	 mov	 ecx, DWORD PTR [eax+68]
  01dbb	8b 95 fc fd ff
	ff		 mov	 edx, DWORD PTR _nCurIndex$[ebp]
  01dc1	66 8b 85 b4 fd
	ff ff		 mov	 ax, WORD PTR _ndx2$85907[ebp]
  01dc8	66 89 04 51	 mov	 WORD PTR [ecx+edx*2], ax
  01dcc	8b 8d fc fd ff
	ff		 mov	 ecx, DWORD PTR _nCurIndex$[ebp]
  01dd2	83 c1 01	 add	 ecx, 1
  01dd5	89 8d fc fd ff
	ff		 mov	 DWORD PTR _nCurIndex$[ebp], ecx
  01ddb	8b 45 18	 mov	 eax, DWORD PTR _pRO$[ebp]
  01dde	8b 48 44	 mov	 ecx, DWORD PTR [eax+68]
  01de1	8b 95 fc fd ff
	ff		 mov	 edx, DWORD PTR _nCurIndex$[ebp]
  01de7	66 8b 85 a8 fd
	ff ff		 mov	 ax, WORD PTR _ndx3$85908[ebp]
  01dee	66 89 04 51	 mov	 WORD PTR [ecx+edx*2], ax
  01df2	8b 8d fc fd ff
	ff		 mov	 ecx, DWORD PTR _nCurIndex$[ebp]
  01df8	83 c1 01	 add	 ecx, 1
  01dfb	89 8d fc fd ff
	ff		 mov	 DWORD PTR _nCurIndex$[ebp], ecx
  01e01	0f b7 85 a8 fd
	ff ff		 movzx	 eax, WORD PTR _ndx3$85908[ebp]
  01e08	50		 push	 eax
  01e09	0f b7 8d b4 fd
	ff ff		 movzx	 ecx, WORD PTR _ndx2$85907[ebp]
  01e10	51		 push	 ecx
  01e11	0f b7 95 c0 fd
	ff ff		 movzx	 edx, WORD PTR _ndx1$85906[ebp]
  01e18	52		 push	 edx
  01e19	8b 45 18	 mov	 eax, DWORD PTR _pRO$[ebp]
  01e1c	50		 push	 eax
  01e1d	8b 4d f8	 mov	 ecx, DWORD PTR _this$[ebp]
  01e20	e8 00 00 00 00	 call	 ?AddFaceNormalData@CTerrainPatch@@QAEXPAVCProceduralRenderObject@@HHH@Z ; CTerrainPatch::AddFaceNormalData

; 668  : 
; 669  : 					// maintain Drawing Subset data:
; 670  : 						pRO->m_ntvRS[0].dwSS_PrimCount[nDS] += 1 ;

  01e25	8b 85 e4 fd ff
	ff		 mov	 eax, DWORD PTR _nDS$85888[ebp]
  01e2b	8b 4d 18	 mov	 ecx, DWORD PTR _pRO$[ebp]
  01e2e	8b 94 81 44 01
	00 00		 mov	 edx, DWORD PTR [ecx+eax*4+324]
  01e35	83 c2 01	 add	 edx, 1
  01e38	8b 85 e4 fd ff
	ff		 mov	 eax, DWORD PTR _nDS$85888[ebp]
  01e3e	8b 4d 18	 mov	 ecx, DWORD PTR _pRO$[ebp]
  01e41	89 94 81 44 01
	00 00		 mov	 DWORD PTR [ecx+eax*4+324], edx

; 671  : 						_MAINTAIN_MIN_MAX_INDEX_ATOC( ndx1, ndx2, ndx3, nDS )

  01e48	0f b7 85 c0 fd
	ff ff		 movzx	 eax, WORD PTR _ndx1$85906[ebp]
  01e4f	8b 8d e4 fd ff
	ff		 mov	 ecx, DWORD PTR _nDS$85888[ebp]
  01e55	8b 55 18	 mov	 edx, DWORD PTR _pRO$[ebp]
  01e58	3b 84 8a a4 00
	00 00		 cmp	 eax, DWORD PTR [edx+ecx*4+164]
  01e5f	73 17		 jae	 SHORT $L85947
  01e61	0f b7 85 c0 fd
	ff ff		 movzx	 eax, WORD PTR _ndx1$85906[ebp]
  01e68	8b 8d e4 fd ff
	ff		 mov	 ecx, DWORD PTR _nDS$85888[ebp]
  01e6e	8b 55 18	 mov	 edx, DWORD PTR _pRO$[ebp]
  01e71	89 84 8a a4 00
	00 00		 mov	 DWORD PTR [edx+ecx*4+164], eax
$L85947:
  01e78	0f b7 85 b4 fd
	ff ff		 movzx	 eax, WORD PTR _ndx2$85907[ebp]
  01e7f	8b 8d e4 fd ff
	ff		 mov	 ecx, DWORD PTR _nDS$85888[ebp]
  01e85	8b 55 18	 mov	 edx, DWORD PTR _pRO$[ebp]
  01e88	3b 84 8a a4 00
	00 00		 cmp	 eax, DWORD PTR [edx+ecx*4+164]
  01e8f	73 17		 jae	 SHORT $L85948
  01e91	0f b7 85 b4 fd
	ff ff		 movzx	 eax, WORD PTR _ndx2$85907[ebp]
  01e98	8b 8d e4 fd ff
	ff		 mov	 ecx, DWORD PTR _nDS$85888[ebp]
  01e9e	8b 55 18	 mov	 edx, DWORD PTR _pRO$[ebp]
  01ea1	89 84 8a a4 00
	00 00		 mov	 DWORD PTR [edx+ecx*4+164], eax
$L85948:
  01ea8	0f b7 85 a8 fd
	ff ff		 movzx	 eax, WORD PTR _ndx3$85908[ebp]
  01eaf	8b 8d e4 fd ff
	ff		 mov	 ecx, DWORD PTR _nDS$85888[ebp]
  01eb5	8b 55 18	 mov	 edx, DWORD PTR _pRO$[ebp]
  01eb8	3b 84 8a a4 00
	00 00		 cmp	 eax, DWORD PTR [edx+ecx*4+164]
  01ebf	73 17		 jae	 SHORT $L85949
  01ec1	0f b7 85 a8 fd
	ff ff		 movzx	 eax, WORD PTR _ndx3$85908[ebp]
  01ec8	8b 8d e4 fd ff
	ff		 mov	 ecx, DWORD PTR _nDS$85888[ebp]
  01ece	8b 55 18	 mov	 edx, DWORD PTR _pRO$[ebp]
  01ed1	89 84 8a a4 00
	00 00		 mov	 DWORD PTR [edx+ecx*4+164], eax
$L85949:
  01ed8	0f b7 85 c0 fd
	ff ff		 movzx	 eax, WORD PTR _ndx1$85906[ebp]
  01edf	8b 8d e4 fd ff
	ff		 mov	 ecx, DWORD PTR _nDS$85888[ebp]
  01ee5	8b 55 18	 mov	 edx, DWORD PTR _pRO$[ebp]
  01ee8	3b 84 8a cc 00
	00 00		 cmp	 eax, DWORD PTR [edx+ecx*4+204]
  01eef	76 17		 jbe	 SHORT $L85950
  01ef1	0f b7 85 c0 fd
	ff ff		 movzx	 eax, WORD PTR _ndx1$85906[ebp]
  01ef8	8b 8d e4 fd ff
	ff		 mov	 ecx, DWORD PTR _nDS$85888[ebp]
  01efe	8b 55 18	 mov	 edx, DWORD PTR _pRO$[ebp]
  01f01	89 84 8a cc 00
	00 00		 mov	 DWORD PTR [edx+ecx*4+204], eax
$L85950:
  01f08	0f b7 85 b4 fd
	ff ff		 movzx	 eax, WORD PTR _ndx2$85907[ebp]
  01f0f	8b 8d e4 fd ff
	ff		 mov	 ecx, DWORD PTR _nDS$85888[ebp]
  01f15	8b 55 18	 mov	 edx, DWORD PTR _pRO$[ebp]
  01f18	3b 84 8a cc 00
	00 00		 cmp	 eax, DWORD PTR [edx+ecx*4+204]
  01f1f	76 17		 jbe	 SHORT $L85951
  01f21	0f b7 85 b4 fd
	ff ff		 movzx	 eax, WORD PTR _ndx2$85907[ebp]
  01f28	8b 8d e4 fd ff
	ff		 mov	 ecx, DWORD PTR _nDS$85888[ebp]
  01f2e	8b 55 18	 mov	 edx, DWORD PTR _pRO$[ebp]
  01f31	89 84 8a cc 00
	00 00		 mov	 DWORD PTR [edx+ecx*4+204], eax
$L85951:
  01f38	0f b7 85 a8 fd
	ff ff		 movzx	 eax, WORD PTR _ndx3$85908[ebp]
  01f3f	8b 8d e4 fd ff
	ff		 mov	 ecx, DWORD PTR _nDS$85888[ebp]
  01f45	8b 55 18	 mov	 edx, DWORD PTR _pRO$[ebp]
  01f48	3b 84 8a cc 00
	00 00		 cmp	 eax, DWORD PTR [edx+ecx*4+204]
  01f4f	76 17		 jbe	 SHORT $L85942
  01f51	0f b7 85 a8 fd
	ff ff		 movzx	 eax, WORD PTR _ndx3$85908[ebp]
  01f58	8b 8d e4 fd ff
	ff		 mov	 ecx, DWORD PTR _nDS$85888[ebp]
  01f5e	8b 55 18	 mov	 edx, DWORD PTR _pRO$[ebp]
  01f61	89 84 8a cc 00
	00 00		 mov	 DWORD PTR [edx+ecx*4+204], eax
$L85942:

; 672  : 					}
; 673  : 
; 674  : 					if (nRow != 0 && bPointIsInDSForUpBuild)

  01f68	83 bd d8 fd ff
	ff 00		 cmp	 DWORD PTR _nRow$85898[ebp], 0
  01f6f	0f 84 9c 02 00
	00		 je	 $L85953
  01f75	83 bd 78 fd ff
	ff 00		 cmp	 DWORD PTR _bPointIsInDSForUpBuild$85912[ebp], 0
  01f7c	0f 84 8f 02 00
	00		 je	 $L85953

; 675  : 					{	//
; 676  : 						// upbuild		  C
; 677  : 						//				A B
; 678  : 						//
; 679  : 
; 680  : 						if ((nRow == 1 && nCol == 0) || (nRow == nPatchSQ && nCol == nPatchSQ - 1))

  01f82	83 bd d8 fd ff
	ff 01		 cmp	 DWORD PTR _nRow$85898[ebp], 1
  01f89	75 09		 jne	 SHORT $L85956
  01f8b	83 bd cc fd ff
	ff 00		 cmp	 DWORD PTR _nCol$85902[ebp], 0
  01f92	74 19		 je	 SHORT $L85955
$L85956:
  01f94	8b 85 d8 fd ff
	ff		 mov	 eax, DWORD PTR _nRow$85898[ebp]
  01f9a	3b 45 08	 cmp	 eax, DWORD PTR _nPatchSQ$[ebp]
  01f9d	75 41		 jne	 SHORT $L85954
  01f9f	8b 45 08	 mov	 eax, DWORD PTR _nPatchSQ$[ebp]
  01fa2	83 e8 01	 sub	 eax, 1
  01fa5	39 85 cc fd ff
	ff		 cmp	 DWORD PTR _nCol$85902[ebp], eax
  01fab	75 33		 jne	 SHORT $L85954
$L85955:

; 681  : 						{	// special case on corners
; 682  : 							ndx1 = nVert ;

  01fad	66 8b 85 04 ff
	ff ff		 mov	 ax, WORD PTR _nVert$85784[ebp]
  01fb4	66 89 85 c0 fd
	ff ff		 mov	 WORD PTR _ndx1$85906[ebp], ax

; 683  : 							ndx2 = nVert + 1 ;

  01fbb	8b 85 04 ff ff
	ff		 mov	 eax, DWORD PTR _nVert$85784[ebp]
  01fc1	83 c0 01	 add	 eax, 1
  01fc4	66 89 85 b4 fd
	ff ff		 mov	 WORD PTR _ndx2$85907[ebp], ax

; 684  : 							ndx3 = nVert - nPatchSQ - 1 ;

  01fcb	8b 85 04 ff ff
	ff		 mov	 eax, DWORD PTR _nVert$85784[ebp]
  01fd1	2b 45 08	 sub	 eax, DWORD PTR _nPatchSQ$[ebp]
  01fd4	83 e8 01	 sub	 eax, 1
  01fd7	66 89 85 a8 fd
	ff ff		 mov	 WORD PTR _ndx3$85908[ebp], ax

; 685  : 						}
; 686  : 						else

  01fde	eb 2e		 jmp	 SHORT $L85957
$L85954:

; 687  : 						{
; 688  : 							ndx1 = nVert ;

  01fe0	66 8b 85 04 ff
	ff ff		 mov	 ax, WORD PTR _nVert$85784[ebp]
  01fe7	66 89 85 c0 fd
	ff ff		 mov	 WORD PTR _ndx1$85906[ebp], ax

; 689  : 							ndx2 = nVert + 1 ;

  01fee	8b 85 04 ff ff
	ff		 mov	 eax, DWORD PTR _nVert$85784[ebp]
  01ff4	83 c0 01	 add	 eax, 1
  01ff7	66 89 85 b4 fd
	ff ff		 mov	 WORD PTR _ndx2$85907[ebp], ax

; 690  : 							ndx3 = nVert - nPatchSQ ;

  01ffe	8b 85 04 ff ff
	ff		 mov	 eax, DWORD PTR _nVert$85784[ebp]
  02004	2b 45 08	 sub	 eax, DWORD PTR _nPatchSQ$[ebp]
  02007	66 89 85 a8 fd
	ff ff		 mov	 WORD PTR _ndx3$85908[ebp], ax
$L85957:

; 691  : 						}
; 692  : 						ndxA = ndx3 ; ndxB = ndx2 ; ndxC = ndx1 ;

  0200e	66 8b 85 a8 fd
	ff ff		 mov	 ax, WORD PTR _ndx3$85908[ebp]
  02015	66 89 85 9c fd
	ff ff		 mov	 WORD PTR _ndxA$85909[ebp], ax
  0201c	66 8b 85 b4 fd
	ff ff		 mov	 ax, WORD PTR _ndx2$85907[ebp]
  02023	66 89 85 90 fd
	ff ff		 mov	 WORD PTR _ndxB$85910[ebp], ax
  0202a	66 8b 85 c0 fd
	ff ff		 mov	 ax, WORD PTR _ndx1$85906[ebp]
  02031	66 89 85 84 fd
	ff ff		 mov	 WORD PTR _ndxC$85911[ebp], ax

; 693  : 						_ADD_TRIANGLE( ndx3, ndx2, ndx1 )

  02038	8b 45 18	 mov	 eax, DWORD PTR _pRO$[ebp]
  0203b	8b 48 44	 mov	 ecx, DWORD PTR [eax+68]
  0203e	8b 95 fc fd ff
	ff		 mov	 edx, DWORD PTR _nCurIndex$[ebp]
  02044	66 8b 85 a8 fd
	ff ff		 mov	 ax, WORD PTR _ndx3$85908[ebp]
  0204b	66 89 04 51	 mov	 WORD PTR [ecx+edx*2], ax
  0204f	8b 8d fc fd ff
	ff		 mov	 ecx, DWORD PTR _nCurIndex$[ebp]
  02055	83 c1 01	 add	 ecx, 1
  02058	89 8d fc fd ff
	ff		 mov	 DWORD PTR _nCurIndex$[ebp], ecx
  0205e	8b 45 18	 mov	 eax, DWORD PTR _pRO$[ebp]
  02061	8b 48 44	 mov	 ecx, DWORD PTR [eax+68]
  02064	8b 95 fc fd ff
	ff		 mov	 edx, DWORD PTR _nCurIndex$[ebp]
  0206a	66 8b 85 b4 fd
	ff ff		 mov	 ax, WORD PTR _ndx2$85907[ebp]
  02071	66 89 04 51	 mov	 WORD PTR [ecx+edx*2], ax
  02075	8b 8d fc fd ff
	ff		 mov	 ecx, DWORD PTR _nCurIndex$[ebp]
  0207b	83 c1 01	 add	 ecx, 1
  0207e	89 8d fc fd ff
	ff		 mov	 DWORD PTR _nCurIndex$[ebp], ecx
  02084	8b 45 18	 mov	 eax, DWORD PTR _pRO$[ebp]
  02087	8b 48 44	 mov	 ecx, DWORD PTR [eax+68]
  0208a	8b 95 fc fd ff
	ff		 mov	 edx, DWORD PTR _nCurIndex$[ebp]
  02090	66 8b 85 c0 fd
	ff ff		 mov	 ax, WORD PTR _ndx1$85906[ebp]
  02097	66 89 04 51	 mov	 WORD PTR [ecx+edx*2], ax
  0209b	8b 8d fc fd ff
	ff		 mov	 ecx, DWORD PTR _nCurIndex$[ebp]
  020a1	83 c1 01	 add	 ecx, 1
  020a4	89 8d fc fd ff
	ff		 mov	 DWORD PTR _nCurIndex$[ebp], ecx
  020aa	0f b7 85 c0 fd
	ff ff		 movzx	 eax, WORD PTR _ndx1$85906[ebp]
  020b1	50		 push	 eax
  020b2	0f b7 8d b4 fd
	ff ff		 movzx	 ecx, WORD PTR _ndx2$85907[ebp]
  020b9	51		 push	 ecx
  020ba	0f b7 95 a8 fd
	ff ff		 movzx	 edx, WORD PTR _ndx3$85908[ebp]
  020c1	52		 push	 edx
  020c2	8b 45 18	 mov	 eax, DWORD PTR _pRO$[ebp]
  020c5	50		 push	 eax
  020c6	8b 4d f8	 mov	 ecx, DWORD PTR _this$[ebp]
  020c9	e8 00 00 00 00	 call	 ?AddFaceNormalData@CTerrainPatch@@QAEXPAVCProceduralRenderObject@@HHH@Z ; CTerrainPatch::AddFaceNormalData

; 694  : 
; 695  : 					// maintain Drawing Subset data:
; 696  : 						pRO->m_ntvRS[0].dwSS_PrimCount[nDS] += 1 ;

  020ce	8b 85 e4 fd ff
	ff		 mov	 eax, DWORD PTR _nDS$85888[ebp]
  020d4	8b 4d 18	 mov	 ecx, DWORD PTR _pRO$[ebp]
  020d7	8b 94 81 44 01
	00 00		 mov	 edx, DWORD PTR [ecx+eax*4+324]
  020de	83 c2 01	 add	 edx, 1
  020e1	8b 85 e4 fd ff
	ff		 mov	 eax, DWORD PTR _nDS$85888[ebp]
  020e7	8b 4d 18	 mov	 ecx, DWORD PTR _pRO$[ebp]
  020ea	89 94 81 44 01
	00 00		 mov	 DWORD PTR [ecx+eax*4+324], edx

; 697  : 						_MAINTAIN_MIN_MAX_INDEX_ATOC( ndx1, ndx2, ndx3, nDS )

  020f1	0f b7 85 c0 fd
	ff ff		 movzx	 eax, WORD PTR _ndx1$85906[ebp]
  020f8	8b 8d e4 fd ff
	ff		 mov	 ecx, DWORD PTR _nDS$85888[ebp]
  020fe	8b 55 18	 mov	 edx, DWORD PTR _pRO$[ebp]
  02101	3b 84 8a a4 00
	00 00		 cmp	 eax, DWORD PTR [edx+ecx*4+164]
  02108	73 17		 jae	 SHORT $L85958
  0210a	0f b7 85 c0 fd
	ff ff		 movzx	 eax, WORD PTR _ndx1$85906[ebp]
  02111	8b 8d e4 fd ff
	ff		 mov	 ecx, DWORD PTR _nDS$85888[ebp]
  02117	8b 55 18	 mov	 edx, DWORD PTR _pRO$[ebp]
  0211a	89 84 8a a4 00
	00 00		 mov	 DWORD PTR [edx+ecx*4+164], eax
$L85958:
  02121	0f b7 85 b4 fd
	ff ff		 movzx	 eax, WORD PTR _ndx2$85907[ebp]
  02128	8b 8d e4 fd ff
	ff		 mov	 ecx, DWORD PTR _nDS$85888[ebp]
  0212e	8b 55 18	 mov	 edx, DWORD PTR _pRO$[ebp]
  02131	3b 84 8a a4 00
	00 00		 cmp	 eax, DWORD PTR [edx+ecx*4+164]
  02138	73 17		 jae	 SHORT $L85959
  0213a	0f b7 85 b4 fd
	ff ff		 movzx	 eax, WORD PTR _ndx2$85907[ebp]
  02141	8b 8d e4 fd ff
	ff		 mov	 ecx, DWORD PTR _nDS$85888[ebp]
  02147	8b 55 18	 mov	 edx, DWORD PTR _pRO$[ebp]
  0214a	89 84 8a a4 00
	00 00		 mov	 DWORD PTR [edx+ecx*4+164], eax
$L85959:
  02151	0f b7 85 a8 fd
	ff ff		 movzx	 eax, WORD PTR _ndx3$85908[ebp]
  02158	8b 8d e4 fd ff
	ff		 mov	 ecx, DWORD PTR _nDS$85888[ebp]
  0215e	8b 55 18	 mov	 edx, DWORD PTR _pRO$[ebp]
  02161	3b 84 8a a4 00
	00 00		 cmp	 eax, DWORD PTR [edx+ecx*4+164]
  02168	73 17		 jae	 SHORT $L85960
  0216a	0f b7 85 a8 fd
	ff ff		 movzx	 eax, WORD PTR _ndx3$85908[ebp]
  02171	8b 8d e4 fd ff
	ff		 mov	 ecx, DWORD PTR _nDS$85888[ebp]
  02177	8b 55 18	 mov	 edx, DWORD PTR _pRO$[ebp]
  0217a	89 84 8a a4 00
	00 00		 mov	 DWORD PTR [edx+ecx*4+164], eax
$L85960:
  02181	0f b7 85 c0 fd
	ff ff		 movzx	 eax, WORD PTR _ndx1$85906[ebp]
  02188	8b 8d e4 fd ff
	ff		 mov	 ecx, DWORD PTR _nDS$85888[ebp]
  0218e	8b 55 18	 mov	 edx, DWORD PTR _pRO$[ebp]
  02191	3b 84 8a cc 00
	00 00		 cmp	 eax, DWORD PTR [edx+ecx*4+204]
  02198	76 17		 jbe	 SHORT $L85961
  0219a	0f b7 85 c0 fd
	ff ff		 movzx	 eax, WORD PTR _ndx1$85906[ebp]
  021a1	8b 8d e4 fd ff
	ff		 mov	 ecx, DWORD PTR _nDS$85888[ebp]
  021a7	8b 55 18	 mov	 edx, DWORD PTR _pRO$[ebp]
  021aa	89 84 8a cc 00
	00 00		 mov	 DWORD PTR [edx+ecx*4+204], eax
$L85961:
  021b1	0f b7 85 b4 fd
	ff ff		 movzx	 eax, WORD PTR _ndx2$85907[ebp]
  021b8	8b 8d e4 fd ff
	ff		 mov	 ecx, DWORD PTR _nDS$85888[ebp]
  021be	8b 55 18	 mov	 edx, DWORD PTR _pRO$[ebp]
  021c1	3b 84 8a cc 00
	00 00		 cmp	 eax, DWORD PTR [edx+ecx*4+204]
  021c8	76 17		 jbe	 SHORT $L85962
  021ca	0f b7 85 b4 fd
	ff ff		 movzx	 eax, WORD PTR _ndx2$85907[ebp]
  021d1	8b 8d e4 fd ff
	ff		 mov	 ecx, DWORD PTR _nDS$85888[ebp]
  021d7	8b 55 18	 mov	 edx, DWORD PTR _pRO$[ebp]
  021da	89 84 8a cc 00
	00 00		 mov	 DWORD PTR [edx+ecx*4+204], eax
$L85962:
  021e1	0f b7 85 a8 fd
	ff ff		 movzx	 eax, WORD PTR _ndx3$85908[ebp]
  021e8	8b 8d e4 fd ff
	ff		 mov	 ecx, DWORD PTR _nDS$85888[ebp]
  021ee	8b 55 18	 mov	 edx, DWORD PTR _pRO$[ebp]
  021f1	3b 84 8a cc 00
	00 00		 cmp	 eax, DWORD PTR [edx+ecx*4+204]
  021f8	76 17		 jbe	 SHORT $L85953
  021fa	0f b7 85 a8 fd
	ff ff		 movzx	 eax, WORD PTR _ndx3$85908[ebp]
  02201	8b 8d e4 fd ff
	ff		 mov	 ecx, DWORD PTR _nDS$85888[ebp]
  02207	8b 55 18	 mov	 edx, DWORD PTR _pRO$[ebp]
  0220a	89 84 8a cc 00
	00 00		 mov	 DWORD PTR [edx+ecx*4+204], eax
$L85953:

; 698  : 					}
; 699  : 
; 700  : 				//
; 701  : 				// Spawn Positions:
; 702  : 				//
; 703  : 					float fVertexX, fVertexY, fVertexZ ;
; 704  : 					xVec3 vN, v ;

  02211	8d 8d 34 fd ff
	ff		 lea	 ecx, DWORD PTR _vN$85967[ebp]
  02217	e8 00 00 00 00	 call	 ??0D3DXVECTOR3@@QAE@XZ	; D3DXVECTOR3::D3DXVECTOR3
  0221c	8d 8d 20 fd ff
	ff		 lea	 ecx, DWORD PTR _v$85968[ebp]
  02222	e8 00 00 00 00	 call	 ??0D3DXVECTOR3@@QAE@XZ	; D3DXVECTOR3::D3DXVECTOR3

; 705  : 					if (pRO->m_dwFVF == MYFVF_COLOREDVERTEX)

  02227	8b 45 18	 mov	 eax, DWORD PTR _pRO$[ebp]
  0222a	81 38 c2 01 00
	00		 cmp	 DWORD PTR [eax], 450	; 000001c2H
  02230	75 6c		 jne	 SHORT $L85969

; 706  : 					{
; 707  : 						fVertexX = pRO->m_ntvRS[0].pLitVertices[nVert].x ;

  02232	8b 85 04 ff ff
	ff		 mov	 eax, DWORD PTR _nVert$85784[ebp]
  02238	6b c0 1c	 imul	 eax, 28			; 0000001cH
  0223b	8b 4d 18	 mov	 ecx, DWORD PTR _pRO$[ebp]
  0223e	8b 51 34	 mov	 edx, DWORD PTR [ecx+52]
  02241	c6 85 d7 f8 ff
	ff 01		 mov	 BYTE PTR $T86412[ebp], 1
  02248	8b 04 10	 mov	 eax, DWORD PTR [eax+edx]
  0224b	89 85 60 fd ff
	ff		 mov	 DWORD PTR _fVertexX$85964[ebp], eax

; 708  : 						fVertexY = pRO->m_ntvRS[0].pLitVertices[nVert].y ;

  02251	8b 85 04 ff ff
	ff		 mov	 eax, DWORD PTR _nVert$85784[ebp]
  02257	6b c0 1c	 imul	 eax, 28			; 0000001cH
  0225a	8b 4d 18	 mov	 ecx, DWORD PTR _pRO$[ebp]
  0225d	8b 51 34	 mov	 edx, DWORD PTR [ecx+52]
  02260	c6 85 cb f8 ff
	ff 01		 mov	 BYTE PTR $T86413[ebp], 1
  02267	8b 44 02 04	 mov	 eax, DWORD PTR [edx+eax+4]
  0226b	89 85 54 fd ff
	ff		 mov	 DWORD PTR _fVertexY$85965[ebp], eax

; 709  : 						fVertexZ = pRO->m_ntvRS[0].pLitVertices[nVert].z ;

  02271	8b 85 04 ff ff
	ff		 mov	 eax, DWORD PTR _nVert$85784[ebp]
  02277	6b c0 1c	 imul	 eax, 28			; 0000001cH
  0227a	8b 4d 18	 mov	 ecx, DWORD PTR _pRO$[ebp]
  0227d	8b 51 34	 mov	 edx, DWORD PTR [ecx+52]
  02280	c6 85 bf f8 ff
	ff 01		 mov	 BYTE PTR $T86414[ebp], 1
  02287	8b 44 02 08	 mov	 eax, DWORD PTR [edx+eax+8]
  0228b	89 85 48 fd ff
	ff		 mov	 DWORD PTR _fVertexZ$85966[ebp], eax

; 710  : 						Msg( "FATAL: Using bad FVF in CTerrainPatch; no normal data! ");

  02291	68 00 00 00 00	 push	 OFFSET FLAT:??_C@_0DI@LCNKMPO@FATAL?3?5Using?5bad?5FVF?5in?5CTerrain@
  02296	e8 00 00 00 00	 call	 ?Msg@@YAXPAD@Z		; Msg
  0229b	83 c4 04	 add	 esp, 4
$L85969:

; 711  : 					}
; 712  : 					if (pRO->m_dwFVF == MYFVF_UNCOLOREDVERTEX)

  0229e	8b 45 18	 mov	 eax, DWORD PTR _pRO$[ebp]
  022a1	81 38 12 01 00
	00		 cmp	 DWORD PTR [eax], 274	; 00000112H
  022a7	0f 85 aa 00 00
	00		 jne	 $L85971

; 713  : 					{
; 714  : 						fVertexX = pRO->m_ntvRS[0].pUnlitVertices[nVert].x ;

  022ad	8b 85 04 ff ff
	ff		 mov	 eax, DWORD PTR _nVert$85784[ebp]
  022b3	c1 e0 05	 shl	 eax, 5
  022b6	8b 4d 18	 mov	 ecx, DWORD PTR _pRO$[ebp]
  022b9	8b 51 30	 mov	 edx, DWORD PTR [ecx+48]
  022bc	c6 85 d7 f8 ff
	ff 01		 mov	 BYTE PTR $T86412[ebp], 1
  022c3	8b 04 10	 mov	 eax, DWORD PTR [eax+edx]
  022c6	89 85 60 fd ff
	ff		 mov	 DWORD PTR _fVertexX$85964[ebp], eax

; 715  : 						fVertexY = pRO->m_ntvRS[0].pUnlitVertices[nVert].y ;

  022cc	8b 85 04 ff ff
	ff		 mov	 eax, DWORD PTR _nVert$85784[ebp]
  022d2	c1 e0 05	 shl	 eax, 5
  022d5	8b 4d 18	 mov	 ecx, DWORD PTR _pRO$[ebp]
  022d8	8b 51 30	 mov	 edx, DWORD PTR [ecx+48]
  022db	c6 85 cb f8 ff
	ff 01		 mov	 BYTE PTR $T86413[ebp], 1
  022e2	8b 44 02 04	 mov	 eax, DWORD PTR [edx+eax+4]
  022e6	89 85 54 fd ff
	ff		 mov	 DWORD PTR _fVertexY$85965[ebp], eax

; 716  : 						fVertexZ = pRO->m_ntvRS[0].pUnlitVertices[nVert].z ;

  022ec	8b 85 04 ff ff
	ff		 mov	 eax, DWORD PTR _nVert$85784[ebp]
  022f2	c1 e0 05	 shl	 eax, 5
  022f5	8b 4d 18	 mov	 ecx, DWORD PTR _pRO$[ebp]
  022f8	8b 51 30	 mov	 edx, DWORD PTR [ecx+48]
  022fb	c6 85 bf f8 ff
	ff 01		 mov	 BYTE PTR $T86414[ebp], 1
  02302	8b 44 02 08	 mov	 eax, DWORD PTR [edx+eax+8]
  02306	89 85 48 fd ff
	ff		 mov	 DWORD PTR _fVertexZ$85966[ebp], eax

; 717  : 						vN.x = pRO->m_ntvRS[0].pUnlitVertices[nVert].nx ;

  0230c	8b 85 04 ff ff
	ff		 mov	 eax, DWORD PTR _nVert$85784[ebp]
  02312	c1 e0 05	 shl	 eax, 5
  02315	8b 4d 18	 mov	 ecx, DWORD PTR _pRO$[ebp]
  02318	8b 51 30	 mov	 edx, DWORD PTR [ecx+48]
  0231b	8b 44 02 0c	 mov	 eax, DWORD PTR [edx+eax+12]
  0231f	89 85 34 fd ff
	ff		 mov	 DWORD PTR _vN$85967[ebp], eax

; 718  : 						vN.y = pRO->m_ntvRS[0].pUnlitVertices[nVert].ny ;

  02325	8b 85 04 ff ff
	ff		 mov	 eax, DWORD PTR _nVert$85784[ebp]
  0232b	c1 e0 05	 shl	 eax, 5
  0232e	8b 4d 18	 mov	 ecx, DWORD PTR _pRO$[ebp]
  02331	8b 51 30	 mov	 edx, DWORD PTR [ecx+48]
  02334	8b 44 02 10	 mov	 eax, DWORD PTR [edx+eax+16]
  02338	89 85 38 fd ff
	ff		 mov	 DWORD PTR _vN$85967[ebp+4], eax

; 719  : 						vN.z = pRO->m_ntvRS[0].pUnlitVertices[nVert].nz ;

  0233e	8b 85 04 ff ff
	ff		 mov	 eax, DWORD PTR _nVert$85784[ebp]
  02344	c1 e0 05	 shl	 eax, 5
  02347	8b 4d 18	 mov	 ecx, DWORD PTR _pRO$[ebp]
  0234a	8b 51 30	 mov	 edx, DWORD PTR [ecx+48]
  0234d	8b 44 02 14	 mov	 eax, DWORD PTR [edx+eax+20]
  02351	89 85 3c fd ff
	ff		 mov	 DWORD PTR _vN$85967[ebp+8], eax
$L85971:

; 720  : 					}
; 721  : 					if (pRO->m_dwFVF == MYFVF_COLOREDVERTEXWITHNORMAL)

  02357	8b 45 18	 mov	 eax, DWORD PTR _pRO$[ebp]
  0235a	81 38 d2 01 00
	00		 cmp	 DWORD PTR [eax], 466	; 000001d2H
  02360	0f 85 aa 00 00
	00		 jne	 $L85972

; 722  : 					{
; 723  : 						fVertexX = pRO->m_ntvRS[0].pLitVerticesWithNormals[nVert].x ;

  02366	8b 85 04 ff ff
	ff		 mov	 eax, DWORD PTR _nVert$85784[ebp]
  0236c	6b c0 28	 imul	 eax, 40			; 00000028H
  0236f	8b 4d 18	 mov	 ecx, DWORD PTR _pRO$[ebp]
  02372	8b 51 3c	 mov	 edx, DWORD PTR [ecx+60]
  02375	c6 85 d7 f8 ff
	ff 01		 mov	 BYTE PTR $T86412[ebp], 1
  0237c	8b 04 10	 mov	 eax, DWORD PTR [eax+edx]
  0237f	89 85 60 fd ff
	ff		 mov	 DWORD PTR _fVertexX$85964[ebp], eax

; 724  : 						fVertexY = pRO->m_ntvRS[0].pLitVerticesWithNormals[nVert].y ;

  02385	8b 85 04 ff ff
	ff		 mov	 eax, DWORD PTR _nVert$85784[ebp]
  0238b	6b c0 28	 imul	 eax, 40			; 00000028H
  0238e	8b 4d 18	 mov	 ecx, DWORD PTR _pRO$[ebp]
  02391	8b 51 3c	 mov	 edx, DWORD PTR [ecx+60]
  02394	c6 85 cb f8 ff
	ff 01		 mov	 BYTE PTR $T86413[ebp], 1
  0239b	8b 44 02 04	 mov	 eax, DWORD PTR [edx+eax+4]
  0239f	89 85 54 fd ff
	ff		 mov	 DWORD PTR _fVertexY$85965[ebp], eax

; 725  : 						fVertexZ = pRO->m_ntvRS[0].pLitVerticesWithNormals[nVert].z ;

  023a5	8b 85 04 ff ff
	ff		 mov	 eax, DWORD PTR _nVert$85784[ebp]
  023ab	6b c0 28	 imul	 eax, 40			; 00000028H
  023ae	8b 4d 18	 mov	 ecx, DWORD PTR _pRO$[ebp]
  023b1	8b 51 3c	 mov	 edx, DWORD PTR [ecx+60]
  023b4	c6 85 bf f8 ff
	ff 01		 mov	 BYTE PTR $T86414[ebp], 1
  023bb	8b 44 02 08	 mov	 eax, DWORD PTR [edx+eax+8]
  023bf	89 85 48 fd ff
	ff		 mov	 DWORD PTR _fVertexZ$85966[ebp], eax

; 726  : 						vN.x = pRO->m_ntvRS[0].pLitVerticesWithNormals[nVert].nx ;

  023c5	8b 85 04 ff ff
	ff		 mov	 eax, DWORD PTR _nVert$85784[ebp]
  023cb	6b c0 28	 imul	 eax, 40			; 00000028H
  023ce	8b 4d 18	 mov	 ecx, DWORD PTR _pRO$[ebp]
  023d1	8b 51 3c	 mov	 edx, DWORD PTR [ecx+60]
  023d4	8b 44 02 0c	 mov	 eax, DWORD PTR [edx+eax+12]
  023d8	89 85 34 fd ff
	ff		 mov	 DWORD PTR _vN$85967[ebp], eax

; 727  : 						vN.y = pRO->m_ntvRS[0].pLitVerticesWithNormals[nVert].ny ;

  023de	8b 85 04 ff ff
	ff		 mov	 eax, DWORD PTR _nVert$85784[ebp]
  023e4	6b c0 28	 imul	 eax, 40			; 00000028H
  023e7	8b 4d 18	 mov	 ecx, DWORD PTR _pRO$[ebp]
  023ea	8b 51 3c	 mov	 edx, DWORD PTR [ecx+60]
  023ed	8b 44 02 10	 mov	 eax, DWORD PTR [edx+eax+16]
  023f1	89 85 38 fd ff
	ff		 mov	 DWORD PTR _vN$85967[ebp+4], eax

; 728  : 						vN.z = pRO->m_ntvRS[0].pLitVerticesWithNormals[nVert].nz ;

  023f7	8b 85 04 ff ff
	ff		 mov	 eax, DWORD PTR _nVert$85784[ebp]
  023fd	6b c0 28	 imul	 eax, 40			; 00000028H
  02400	8b 4d 18	 mov	 ecx, DWORD PTR _pRO$[ebp]
  02403	8b 51 3c	 mov	 edx, DWORD PTR [ecx+60]
  02406	8b 44 02 14	 mov	 eax, DWORD PTR [edx+eax+20]
  0240a	89 85 3c fd ff
	ff		 mov	 DWORD PTR _vN$85967[ebp+8], eax
$L85972:

; 729  : 					}
; 730  : 					if (pRO->m_dwFVF == MYFVF_COLOREDVERTEXWITHNORMAL2TEX)

  02410	8b 45 18	 mov	 eax, DWORD PTR _pRO$[ebp]
  02413	81 38 d2 02 00
	00		 cmp	 DWORD PTR [eax], 722	; 000002d2H
  02419	0f 85 aa 00 00
	00		 jne	 $L85973

; 731  : 					{
; 732  : 						fVertexX = pRO->m_ntvRS[0].pLitVerticesWithNormals2Tex[nVert].x ;

  0241f	8b 85 04 ff ff
	ff		 mov	 eax, DWORD PTR _nVert$85784[ebp]
  02425	6b c0 30	 imul	 eax, 48			; 00000030H
  02428	8b 4d 18	 mov	 ecx, DWORD PTR _pRO$[ebp]
  0242b	8b 51 40	 mov	 edx, DWORD PTR [ecx+64]
  0242e	c6 85 d7 f8 ff
	ff 01		 mov	 BYTE PTR $T86412[ebp], 1
  02435	8b 04 10	 mov	 eax, DWORD PTR [eax+edx]
  02438	89 85 60 fd ff
	ff		 mov	 DWORD PTR _fVertexX$85964[ebp], eax

; 733  : 						fVertexY = pRO->m_ntvRS[0].pLitVerticesWithNormals2Tex[nVert].y ;

  0243e	8b 85 04 ff ff
	ff		 mov	 eax, DWORD PTR _nVert$85784[ebp]
  02444	6b c0 30	 imul	 eax, 48			; 00000030H
  02447	8b 4d 18	 mov	 ecx, DWORD PTR _pRO$[ebp]
  0244a	8b 51 40	 mov	 edx, DWORD PTR [ecx+64]
  0244d	c6 85 cb f8 ff
	ff 01		 mov	 BYTE PTR $T86413[ebp], 1
  02454	8b 44 02 04	 mov	 eax, DWORD PTR [edx+eax+4]
  02458	89 85 54 fd ff
	ff		 mov	 DWORD PTR _fVertexY$85965[ebp], eax

; 734  : 						fVertexZ = pRO->m_ntvRS[0].pLitVerticesWithNormals2Tex[nVert].z ;

  0245e	8b 85 04 ff ff
	ff		 mov	 eax, DWORD PTR _nVert$85784[ebp]
  02464	6b c0 30	 imul	 eax, 48			; 00000030H
  02467	8b 4d 18	 mov	 ecx, DWORD PTR _pRO$[ebp]
  0246a	8b 51 40	 mov	 edx, DWORD PTR [ecx+64]
  0246d	c6 85 bf f8 ff
	ff 01		 mov	 BYTE PTR $T86414[ebp], 1
  02474	8b 44 02 08	 mov	 eax, DWORD PTR [edx+eax+8]
  02478	89 85 48 fd ff
	ff		 mov	 DWORD PTR _fVertexZ$85966[ebp], eax

; 735  : 						vN.x = pRO->m_ntvRS[0].pLitVerticesWithNormals2Tex[nVert].nx ;

  0247e	8b 85 04 ff ff
	ff		 mov	 eax, DWORD PTR _nVert$85784[ebp]
  02484	6b c0 30	 imul	 eax, 48			; 00000030H
  02487	8b 4d 18	 mov	 ecx, DWORD PTR _pRO$[ebp]
  0248a	8b 51 40	 mov	 edx, DWORD PTR [ecx+64]
  0248d	8b 44 02 0c	 mov	 eax, DWORD PTR [edx+eax+12]
  02491	89 85 34 fd ff
	ff		 mov	 DWORD PTR _vN$85967[ebp], eax

; 736  : 						vN.y = pRO->m_ntvRS[0].pLitVerticesWithNormals2Tex[nVert].ny ;

  02497	8b 85 04 ff ff
	ff		 mov	 eax, DWORD PTR _nVert$85784[ebp]
  0249d	6b c0 30	 imul	 eax, 48			; 00000030H
  024a0	8b 4d 18	 mov	 ecx, DWORD PTR _pRO$[ebp]
  024a3	8b 51 40	 mov	 edx, DWORD PTR [ecx+64]
  024a6	8b 44 02 10	 mov	 eax, DWORD PTR [edx+eax+16]
  024aa	89 85 38 fd ff
	ff		 mov	 DWORD PTR _vN$85967[ebp+4], eax

; 737  : 						vN.z = pRO->m_ntvRS[0].pLitVerticesWithNormals2Tex[nVert].nz ;

  024b0	8b 85 04 ff ff
	ff		 mov	 eax, DWORD PTR _nVert$85784[ebp]
  024b6	6b c0 30	 imul	 eax, 48			; 00000030H
  024b9	8b 4d 18	 mov	 ecx, DWORD PTR _pRO$[ebp]
  024bc	8b 51 40	 mov	 edx, DWORD PTR [ecx+64]
  024bf	8b 44 02 14	 mov	 eax, DWORD PTR [edx+eax+20]
  024c3	89 85 3c fd ff
	ff		 mov	 DWORD PTR _vN$85967[ebp+8], eax
$L85973:

; 738  : 					}
; 739  : 
; 740  : 					if( bSpawnPosRequired && ! bSpawnPosDone )

  024c9	83 7d e0 00	 cmp	 DWORD PTR _bSpawnPosRequired$[ebp], 0
  024cd	0f 84 27 01 00
	00		 je	 $L85974
  024d3	83 7d d4 00	 cmp	 DWORD PTR _bSpawnPosDone$[ebp], 0
  024d7	0f 85 1d 01 00
	00		 jne	 $L85974

; 741  : 						if( fVertexY >= fMaxY * 0.15f && 
; 742  : 							fVertexY <= fMaxY && vN.y > 0.5f )

  024dd	80 bd cb f8 ff
	ff 00		 cmp	 BYTE PTR $T86413[ebp], 0
  024e4	75 0d		 jne	 SHORT $L86415
  024e6	68 00 00 00 00	 push	 OFFSET FLAT:$L86416
  024eb	e8 00 00 00 00	 call	 __RTC_UninitUse
  024f0	83 c4 04	 add	 esp, 4
$L86415:
  024f3	d9 45 30	 fld	 DWORD PTR _fMaxY$[ebp]
  024f6	d8 0d 00 00 00
	00		 fmul	 DWORD PTR __real@3e19999a
  024fc	d8 9d 54 fd ff
	ff		 fcomp	 DWORD PTR _fVertexY$85965[ebp]
  02502	df e0		 fnstsw	 ax
  02504	f6 c4 41	 test	 ah, 65			; 00000041H
  02507	0f 8a ed 00 00
	00		 jp	 $L85974
  0250d	80 bd cb f8 ff
	ff 00		 cmp	 BYTE PTR $T86413[ebp], 0
  02514	75 0d		 jne	 SHORT $L86418
  02516	68 00 00 00 00	 push	 OFFSET FLAT:$L86416
  0251b	e8 00 00 00 00	 call	 __RTC_UninitUse
  02520	83 c4 04	 add	 esp, 4
$L86418:
  02523	d9 85 54 fd ff
	ff		 fld	 DWORD PTR _fVertexY$85965[ebp]
  02529	d8 5d 30	 fcomp	 DWORD PTR _fMaxY$[ebp]
  0252c	df e0		 fnstsw	 ax
  0252e	f6 c4 41	 test	 ah, 65			; 00000041H
  02531	0f 8a c3 00 00
	00		 jp	 $L85974
  02537	d9 85 38 fd ff
	ff		 fld	 DWORD PTR _vN$85967[ebp+4]
  0253d	d8 1d 00 00 00
	00		 fcomp	 DWORD PTR __real@3f000000
  02543	df e0		 fnstsw	 ax
  02545	f6 c4 41	 test	 ah, 65			; 00000041H
  02548	0f 85 ac 00 00
	00		 jne	 $L85974

; 743  : 						{
; 744  : 							*pvSpawnPos = xVec3( fVertexX, fVertexY, fVertexZ );

  0254e	80 bd bf f8 ff
	ff 00		 cmp	 BYTE PTR $T86414[ebp], 0
  02555	75 0d		 jne	 SHORT $L86419
  02557	68 00 00 00 00	 push	 OFFSET FLAT:$L86420
  0255c	e8 00 00 00 00	 call	 __RTC_UninitUse
  02561	83 c4 04	 add	 esp, 4
$L86419:
  02564	80 bd cb f8 ff
	ff 00		 cmp	 BYTE PTR $T86413[ebp], 0
  0256b	75 0d		 jne	 SHORT $L86421
  0256d	68 00 00 00 00	 push	 OFFSET FLAT:$L86416
  02572	e8 00 00 00 00	 call	 __RTC_UninitUse
  02577	83 c4 04	 add	 esp, 4
$L86421:
  0257a	80 bd d7 f8 ff
	ff 00		 cmp	 BYTE PTR $T86412[ebp], 0
  02581	75 0d		 jne	 SHORT $L86422
  02583	68 00 00 00 00	 push	 OFFSET FLAT:$L86423
  02588	e8 00 00 00 00	 call	 __RTC_UninitUse
  0258d	83 c4 04	 add	 esp, 4
$L86422:
  02590	8b 85 48 fd ff
	ff		 mov	 eax, DWORD PTR _fVertexZ$85966[ebp]
  02596	50		 push	 eax
  02597	8b 8d 54 fd ff
	ff		 mov	 ecx, DWORD PTR _fVertexY$85965[ebp]
  0259d	51		 push	 ecx
  0259e	8b 95 60 fd ff
	ff		 mov	 edx, DWORD PTR _fVertexX$85964[ebp]
  025a4	52		 push	 edx
  025a5	8d 8d e0 f8 ff
	ff		 lea	 ecx, DWORD PTR $T86411[ebp]
  025ab	e8 00 00 00 00	 call	 ??0D3DXVECTOR3@@QAE@MMM@Z ; D3DXVECTOR3::D3DXVECTOR3
  025b0	8b 4d 38	 mov	 ecx, DWORD PTR _pvSpawnPos$[ebp]
  025b3	8b 10		 mov	 edx, DWORD PTR [eax]
  025b5	89 11		 mov	 DWORD PTR [ecx], edx
  025b7	8b 50 04	 mov	 edx, DWORD PTR [eax+4]
  025ba	89 51 04	 mov	 DWORD PTR [ecx+4], edx
  025bd	8b 40 08	 mov	 eax, DWORD PTR [eax+8]
  025c0	89 41 08	 mov	 DWORD PTR [ecx+8], eax

; 745  : 							bSpawnPosDone = TRUE ;

  025c3	c7 45 d4 01 00
	00 00		 mov	 DWORD PTR _bSpawnPosDone$[ebp], 1

; 746  : 							ods( "dropped a SPAWNPOS @(%0.1f, %0.1f, %0.1f)\n", pvSpawnPos->x, pvSpawnPos->y, pvSpawnPos->z );

  025ca	8b 45 38	 mov	 eax, DWORD PTR _pvSpawnPos$[ebp]
  025cd	d9 40 08	 fld	 DWORD PTR [eax+8]
  025d0	83 ec 08	 sub	 esp, 8
  025d3	dd 1c 24	 fstp	 QWORD PTR [esp]
  025d6	8b 4d 38	 mov	 ecx, DWORD PTR _pvSpawnPos$[ebp]
  025d9	d9 41 04	 fld	 DWORD PTR [ecx+4]
  025dc	83 ec 08	 sub	 esp, 8
  025df	dd 1c 24	 fstp	 QWORD PTR [esp]
  025e2	8b 55 38	 mov	 edx, DWORD PTR _pvSpawnPos$[ebp]
  025e5	d9 02		 fld	 DWORD PTR [edx]
  025e7	83 ec 08	 sub	 esp, 8
  025ea	dd 1c 24	 fstp	 QWORD PTR [esp]
  025ed	68 00 00 00 00	 push	 OFFSET FLAT:??_C@_0CL@EHDAJMHF@dropped?5a?5SPAWNPOS?5?$EA?$CI?$CF0?41f?0?5?$CF0?41@
  025f2	e8 00 00 00 00	 call	 ?ods@@YAXPADZZ		; ods
  025f7	83 c4 1c	 add	 esp, 28			; 0000001cH
$L85974:

; 747  : 						}
; 748  : 
; 749  : 					nVert++ ;

  025fa	8b 85 04 ff ff
	ff		 mov	 eax, DWORD PTR _nVert$85784[ebp]
  02600	83 c0 01	 add	 eax, 1
  02603	89 85 04 ff ff
	ff		 mov	 DWORD PTR _nVert$85784[ebp], eax

; 750  : 				}

  02609	e9 a0 f3 ff ff	 jmp	 $L85904
$L85905:

; 751  : 			}

  0260e	e9 5c f3 ff ff	 jmp	 $L85900
$L85901:

; 752  : 		}

  02613	e9 7b f2 ff ff	 jmp	 $L85890
$L85891:

; 753  : 		
; 754  : 	//
; 755  : 	// Assemble additional tri. lists for LOD+1 edge connectors.
; 756  : 	//
; 757  : 	// B is the additional LOD+1 vertex; corners have two tris, 
; 758  : 	// other 'quads' have three tris.
; 759  : 	//
; 760  : 	// A *B* C		A *B* C		 A *B* C
; 761  : 	//
; 762  : 	//  	 D		D	  E		 D
; 763  : 	//
; 764  : 		if (bBuildEdgeConnectors)

  02618	83 7d 34 00	 cmp	 DWORD PTR _bBuildEdgeConnectors$[ebp], 0
  0261c	0f 84 03 28 00
	00		 je	 $L85978

; 765  : 		{
; 766  : 			int nRow, nCol ;
; 767  : 		//
; 768  : 		// DS_TOP_EDGE_LODPLUS1
; 769  : 		//
; 770  : 			pRO->m_ntvRS[0].nDSs++ ;

  02622	8b 45 18	 mov	 eax, DWORD PTR _pRO$[ebp]
  02625	8b 88 a0 00 00
	00		 mov	 ecx, DWORD PTR [eax+160]
  0262b	83 c1 01	 add	 ecx, 1
  0262e	8b 55 18	 mov	 edx, DWORD PTR _pRO$[ebp]
  02631	89 8a a0 00 00
	00		 mov	 DWORD PTR [edx+160], ecx

; 771  : 			pRO->m_ntvRS[0].dwSS_StartIndex[DS_TOP_EDGE_LODPLUS1] = nCurIndex ;

  02637	8b 45 18	 mov	 eax, DWORD PTR _pRO$[ebp]
  0263a	8b 8d fc fd ff
	ff		 mov	 ecx, DWORD PTR _nCurIndex$[ebp]
  02640	89 88 34 01 00
	00		 mov	 DWORD PTR [eax+308], ecx

; 772  : 			pRO->m_ntvRS[0].dwSS_MinIndex[DS_TOP_EDGE_LODPLUS1] = 0 ;

  02646	8b 45 18	 mov	 eax, DWORD PTR _pRO$[ebp]
  02649	c7 80 bc 00 00
	00 00 00 00 00	 mov	 DWORD PTR [eax+188], 0

; 773  : 			pRO->m_ntvRS[0].dwSS_MaxIndex[DS_TOP_EDGE_LODPLUS1] = 0 ;

  02653	8b 45 18	 mov	 eax, DWORD PTR _pRO$[ebp]
  02656	c7 80 e4 00 00
	00 00 00 00 00	 mov	 DWORD PTR [eax+228], 0

; 774  : 			pRO->m_ntvRS[0].dwSS_PrimCount[DS_TOP_EDGE_LODPLUS1] = 0 ;

  02660	8b 45 18	 mov	 eax, DWORD PTR _pRO$[ebp]
  02663	c7 80 5c 01 00
	00 00 00 00 00	 mov	 DWORD PTR [eax+348], 0

; 775  : 			pRO->m_ntvRS[0].dwSS_NumVerts[DS_TOP_EDGE_LODPLUS1] = 6 * (nPatchSQ - 2) ;

  0266d	8b 45 08	 mov	 eax, DWORD PTR _nPatchSQ$[ebp]
  02670	83 e8 02	 sub	 eax, 2
  02673	6b c0 06	 imul	 eax, 6
  02676	8b 4d 18	 mov	 ecx, DWORD PTR _pRO$[ebp]
  02679	89 81 0c 01 00
	00		 mov	 DWORD PTR [ecx+268], eax

; 776  : 			for (nCol = 1, nRow = 1 ; nCol <= nPatchSQ - 1 ; nCol ++)

  0267f	c7 85 08 fd ff
	ff 01 00 00 00	 mov	 DWORD PTR _nCol$85980[ebp], 1
  02689	c7 85 14 fd ff
	ff 01 00 00 00	 mov	 DWORD PTR _nRow$85979[ebp], 1
  02693	eb 0f		 jmp	 SHORT $L85981
$L85982:
  02695	8b 85 08 fd ff
	ff		 mov	 eax, DWORD PTR _nCol$85980[ebp]
  0269b	83 c0 01	 add	 eax, 1
  0269e	89 85 08 fd ff
	ff		 mov	 DWORD PTR _nCol$85980[ebp], eax
$L85981:
  026a4	8b 45 08	 mov	 eax, DWORD PTR _nPatchSQ$[ebp]
  026a7	83 e8 01	 sub	 eax, 1
  026aa	39 85 08 fd ff
	ff		 cmp	 DWORD PTR _nCol$85980[ebp], eax
  026b0	0f 8f 64 09 00
	00		 jg	 $L85983

; 777  : 			{
; 778  : 				if (nCol == 1)

  026b6	83 bd 08 fd ff
	ff 01		 cmp	 DWORD PTR _nCol$85980[ebp], 1
  026bd	0f 85 c3 02 00
	00		 jne	 $L85984

; 779  : 				{ // left corner
; 780  : 					WORD ndxA, ndxB, ndxC, ndxD ;
; 781  : 					ndxA = _ROWCOLTOINDEX( nRow - 1, nCol - 1 )

  026c3	8b 85 14 fd ff
	ff		 mov	 eax, DWORD PTR _nRow$85979[ebp]
  026c9	83 e8 01	 sub	 eax, 1
  026cc	8b 4d 08	 mov	 ecx, DWORD PTR _nPatchSQ$[ebp]
  026cf	83 c1 01	 add	 ecx, 1
  026d2	0f af c1	 imul	 eax, ecx
  026d5	8b 95 08 fd ff
	ff		 mov	 edx, DWORD PTR _nCol$85980[ebp]
  026db	8d 44 10 ff	 lea	 eax, DWORD PTR [eax+edx-1]
  026df	66 89 85 fc fc
	ff ff		 mov	 WORD PTR _ndxA$85985[ebp], ax

; 782  : 					ndxB = nVerts + nCol - 1 ;

  026e6	8b 85 08 fd ff
	ff		 mov	 eax, DWORD PTR _nCol$85980[ebp]
  026ec	8b 4d a4	 mov	 ecx, DWORD PTR _nVerts$[ebp]
  026ef	8d 54 01 ff	 lea	 edx, DWORD PTR [ecx+eax-1]
  026f3	66 89 95 f0 fc
	ff ff		 mov	 WORD PTR _ndxB$85986[ebp], dx

; 783  : 					ndxC = _ROWCOLTOINDEX( nRow - 1, nCol	  )

  026fa	8b 85 14 fd ff
	ff		 mov	 eax, DWORD PTR _nRow$85979[ebp]
  02700	83 e8 01	 sub	 eax, 1
  02703	8b 4d 08	 mov	 ecx, DWORD PTR _nPatchSQ$[ebp]
  02706	83 c1 01	 add	 ecx, 1
  02709	0f af c1	 imul	 eax, ecx
  0270c	03 85 08 fd ff
	ff		 add	 eax, DWORD PTR _nCol$85980[ebp]
  02712	66 89 85 e4 fc
	ff ff		 mov	 WORD PTR _ndxC$85987[ebp], ax

; 784  : 					ndxD = _ROWCOLTOINDEX( nRow    , nCol	  )

  02719	8b 45 08	 mov	 eax, DWORD PTR _nPatchSQ$[ebp]
  0271c	83 c0 01	 add	 eax, 1
  0271f	8b 8d 14 fd ff
	ff		 mov	 ecx, DWORD PTR _nRow$85979[ebp]
  02725	0f af c8	 imul	 ecx, eax
  02728	03 8d 08 fd ff
	ff		 add	 ecx, DWORD PTR _nCol$85980[ebp]
  0272e	66 89 8d d8 fc
	ff ff		 mov	 WORD PTR _ndxD$85988[ebp], cx

; 785  : 					_ADD_TRIANGLE( ndxA, ndxB, ndxD )

  02735	8b 45 18	 mov	 eax, DWORD PTR _pRO$[ebp]
  02738	8b 48 44	 mov	 ecx, DWORD PTR [eax+68]
  0273b	8b 95 fc fd ff
	ff		 mov	 edx, DWORD PTR _nCurIndex$[ebp]
  02741	66 8b 85 fc fc
	ff ff		 mov	 ax, WORD PTR _ndxA$85985[ebp]
  02748	66 89 04 51	 mov	 WORD PTR [ecx+edx*2], ax
  0274c	8b 8d fc fd ff
	ff		 mov	 ecx, DWORD PTR _nCurIndex$[ebp]
  02752	83 c1 01	 add	 ecx, 1
  02755	89 8d fc fd ff
	ff		 mov	 DWORD PTR _nCurIndex$[ebp], ecx
  0275b	8b 45 18	 mov	 eax, DWORD PTR _pRO$[ebp]
  0275e	8b 48 44	 mov	 ecx, DWORD PTR [eax+68]
  02761	8b 95 fc fd ff
	ff		 mov	 edx, DWORD PTR _nCurIndex$[ebp]
  02767	66 8b 85 f0 fc
	ff ff		 mov	 ax, WORD PTR _ndxB$85986[ebp]
  0276e	66 89 04 51	 mov	 WORD PTR [ecx+edx*2], ax
  02772	8b 8d fc fd ff
	ff		 mov	 ecx, DWORD PTR _nCurIndex$[ebp]
  02778	83 c1 01	 add	 ecx, 1
  0277b	89 8d fc fd ff
	ff		 mov	 DWORD PTR _nCurIndex$[ebp], ecx
  02781	8b 45 18	 mov	 eax, DWORD PTR _pRO$[ebp]
  02784	8b 48 44	 mov	 ecx, DWORD PTR [eax+68]
  02787	8b 95 fc fd ff
	ff		 mov	 edx, DWORD PTR _nCurIndex$[ebp]
  0278d	66 8b 85 d8 fc
	ff ff		 mov	 ax, WORD PTR _ndxD$85988[ebp]
  02794	66 89 04 51	 mov	 WORD PTR [ecx+edx*2], ax
  02798	8b 8d fc fd ff
	ff		 mov	 ecx, DWORD PTR _nCurIndex$[ebp]
  0279e	83 c1 01	 add	 ecx, 1
  027a1	89 8d fc fd ff
	ff		 mov	 DWORD PTR _nCurIndex$[ebp], ecx
  027a7	0f b7 85 d8 fc
	ff ff		 movzx	 eax, WORD PTR _ndxD$85988[ebp]
  027ae	50		 push	 eax
  027af	0f b7 8d f0 fc
	ff ff		 movzx	 ecx, WORD PTR _ndxB$85986[ebp]
  027b6	51		 push	 ecx
  027b7	0f b7 95 fc fc
	ff ff		 movzx	 edx, WORD PTR _ndxA$85985[ebp]
  027be	52		 push	 edx
  027bf	8b 45 18	 mov	 eax, DWORD PTR _pRO$[ebp]
  027c2	50		 push	 eax
  027c3	8b 4d f8	 mov	 ecx, DWORD PTR _this$[ebp]
  027c6	e8 00 00 00 00	 call	 ?AddFaceNormalData@CTerrainPatch@@QAEXPAVCProceduralRenderObject@@HHH@Z ; CTerrainPatch::AddFaceNormalData

; 786  : 					_ADD_TRIANGLE( ndxB, ndxC, ndxD )

  027cb	8b 45 18	 mov	 eax, DWORD PTR _pRO$[ebp]
  027ce	8b 48 44	 mov	 ecx, DWORD PTR [eax+68]
  027d1	8b 95 fc fd ff
	ff		 mov	 edx, DWORD PTR _nCurIndex$[ebp]
  027d7	66 8b 85 f0 fc
	ff ff		 mov	 ax, WORD PTR _ndxB$85986[ebp]
  027de	66 89 04 51	 mov	 WORD PTR [ecx+edx*2], ax
  027e2	8b 8d fc fd ff
	ff		 mov	 ecx, DWORD PTR _nCurIndex$[ebp]
  027e8	83 c1 01	 add	 ecx, 1
  027eb	89 8d fc fd ff
	ff		 mov	 DWORD PTR _nCurIndex$[ebp], ecx
  027f1	8b 45 18	 mov	 eax, DWORD PTR _pRO$[ebp]
  027f4	8b 48 44	 mov	 ecx, DWORD PTR [eax+68]
  027f7	8b 95 fc fd ff
	ff		 mov	 edx, DWORD PTR _nCurIndex$[ebp]
  027fd	66 8b 85 e4 fc
	ff ff		 mov	 ax, WORD PTR _ndxC$85987[ebp]
  02804	66 89 04 51	 mov	 WORD PTR [ecx+edx*2], ax
  02808	8b 8d fc fd ff
	ff		 mov	 ecx, DWORD PTR _nCurIndex$[ebp]
  0280e	83 c1 01	 add	 ecx, 1
  02811	89 8d fc fd ff
	ff		 mov	 DWORD PTR _nCurIndex$[ebp], ecx
  02817	8b 45 18	 mov	 eax, DWORD PTR _pRO$[ebp]
  0281a	8b 48 44	 mov	 ecx, DWORD PTR [eax+68]
  0281d	8b 95 fc fd ff
	ff		 mov	 edx, DWORD PTR _nCurIndex$[ebp]
  02823	66 8b 85 d8 fc
	ff ff		 mov	 ax, WORD PTR _ndxD$85988[ebp]
  0282a	66 89 04 51	 mov	 WORD PTR [ecx+edx*2], ax
  0282e	8b 8d fc fd ff
	ff		 mov	 ecx, DWORD PTR _nCurIndex$[ebp]
  02834	83 c1 01	 add	 ecx, 1
  02837	89 8d fc fd ff
	ff		 mov	 DWORD PTR _nCurIndex$[ebp], ecx
  0283d	0f b7 85 d8 fc
	ff ff		 movzx	 eax, WORD PTR _ndxD$85988[ebp]
  02844	50		 push	 eax
  02845	0f b7 8d e4 fc
	ff ff		 movzx	 ecx, WORD PTR _ndxC$85987[ebp]
  0284c	51		 push	 ecx
  0284d	0f b7 95 f0 fc
	ff ff		 movzx	 edx, WORD PTR _ndxB$85986[ebp]
  02854	52		 push	 edx
  02855	8b 45 18	 mov	 eax, DWORD PTR _pRO$[ebp]
  02858	50		 push	 eax
  02859	8b 4d f8	 mov	 ecx, DWORD PTR _this$[ebp]
  0285c	e8 00 00 00 00	 call	 ?AddFaceNormalData@CTerrainPatch@@QAEXPAVCProceduralRenderObject@@HHH@Z ; CTerrainPatch::AddFaceNormalData

; 787  : 					pRO->m_ntvRS[0].dwSS_PrimCount[DS_TOP_EDGE_LODPLUS1] += 2 ;

  02861	8b 45 18	 mov	 eax, DWORD PTR _pRO$[ebp]
  02864	8b 88 5c 01 00
	00		 mov	 ecx, DWORD PTR [eax+348]
  0286a	83 c1 02	 add	 ecx, 2
  0286d	8b 55 18	 mov	 edx, DWORD PTR _pRO$[ebp]
  02870	89 8a 5c 01 00
	00		 mov	 DWORD PTR [edx+348], ecx

; 788  : 					_MAINTAIN_MIN_MAX_INDEX_ATOD(ndxA, ndxB, ndxC, ndxD, DS_TOP_EDGE_LODPLUS1)

  02876	0f b7 85 fc fc
	ff ff		 movzx	 eax, WORD PTR _ndxA$85985[ebp]
  0287d	8b 4d 18	 mov	 ecx, DWORD PTR _pRO$[ebp]
  02880	3b 81 bc 00 00
	00		 cmp	 eax, DWORD PTR [ecx+188]
  02886	73 10		 jae	 SHORT $L85989
  02888	0f b7 85 fc fc
	ff ff		 movzx	 eax, WORD PTR _ndxA$85985[ebp]
  0288f	8b 4d 18	 mov	 ecx, DWORD PTR _pRO$[ebp]
  02892	89 81 bc 00 00
	00		 mov	 DWORD PTR [ecx+188], eax
$L85989:
  02898	0f b7 85 f0 fc
	ff ff		 movzx	 eax, WORD PTR _ndxB$85986[ebp]
  0289f	8b 4d 18	 mov	 ecx, DWORD PTR _pRO$[ebp]
  028a2	3b 81 bc 00 00
	00		 cmp	 eax, DWORD PTR [ecx+188]
  028a8	73 10		 jae	 SHORT $L85990
  028aa	0f b7 85 f0 fc
	ff ff		 movzx	 eax, WORD PTR _ndxB$85986[ebp]
  028b1	8b 4d 18	 mov	 ecx, DWORD PTR _pRO$[ebp]
  028b4	89 81 bc 00 00
	00		 mov	 DWORD PTR [ecx+188], eax
$L85990:
  028ba	0f b7 85 e4 fc
	ff ff		 movzx	 eax, WORD PTR _ndxC$85987[ebp]
  028c1	8b 4d 18	 mov	 ecx, DWORD PTR _pRO$[ebp]
  028c4	3b 81 bc 00 00
	00		 cmp	 eax, DWORD PTR [ecx+188]
  028ca	73 10		 jae	 SHORT $L85991
  028cc	0f b7 85 e4 fc
	ff ff		 movzx	 eax, WORD PTR _ndxC$85987[ebp]
  028d3	8b 4d 18	 mov	 ecx, DWORD PTR _pRO$[ebp]
  028d6	89 81 bc 00 00
	00		 mov	 DWORD PTR [ecx+188], eax
$L85991:
  028dc	0f b7 85 d8 fc
	ff ff		 movzx	 eax, WORD PTR _ndxD$85988[ebp]
  028e3	8b 4d 18	 mov	 ecx, DWORD PTR _pRO$[ebp]
  028e6	3b 81 bc 00 00
	00		 cmp	 eax, DWORD PTR [ecx+188]
  028ec	73 10		 jae	 SHORT $L85992
  028ee	0f b7 85 d8 fc
	ff ff		 movzx	 eax, WORD PTR _ndxD$85988[ebp]
  028f5	8b 4d 18	 mov	 ecx, DWORD PTR _pRO$[ebp]
  028f8	89 81 bc 00 00
	00		 mov	 DWORD PTR [ecx+188], eax
$L85992:
  028fe	0f b7 85 fc fc
	ff ff		 movzx	 eax, WORD PTR _ndxA$85985[ebp]
  02905	8b 4d 18	 mov	 ecx, DWORD PTR _pRO$[ebp]
  02908	3b 81 e4 00 00
	00		 cmp	 eax, DWORD PTR [ecx+228]
  0290e	76 10		 jbe	 SHORT $L85993
  02910	0f b7 85 fc fc
	ff ff		 movzx	 eax, WORD PTR _ndxA$85985[ebp]
  02917	8b 4d 18	 mov	 ecx, DWORD PTR _pRO$[ebp]
  0291a	89 81 e4 00 00
	00		 mov	 DWORD PTR [ecx+228], eax
$L85993:
  02920	0f b7 85 f0 fc
	ff ff		 movzx	 eax, WORD PTR _ndxB$85986[ebp]
  02927	8b 4d 18	 mov	 ecx, DWORD PTR _pRO$[ebp]
  0292a	3b 81 e4 00 00
	00		 cmp	 eax, DWORD PTR [ecx+228]
  02930	76 10		 jbe	 SHORT $L85994
  02932	0f b7 85 f0 fc
	ff ff		 movzx	 eax, WORD PTR _ndxB$85986[ebp]
  02939	8b 4d 18	 mov	 ecx, DWORD PTR _pRO$[ebp]
  0293c	89 81 e4 00 00
	00		 mov	 DWORD PTR [ecx+228], eax
$L85994:
  02942	0f b7 85 e4 fc
	ff ff		 movzx	 eax, WORD PTR _ndxC$85987[ebp]
  02949	8b 4d 18	 mov	 ecx, DWORD PTR _pRO$[ebp]
  0294c	3b 81 e4 00 00
	00		 cmp	 eax, DWORD PTR [ecx+228]
  02952	76 10		 jbe	 SHORT $L85995
  02954	0f b7 85 e4 fc
	ff ff		 movzx	 eax, WORD PTR _ndxC$85987[ebp]
  0295b	8b 4d 18	 mov	 ecx, DWORD PTR _pRO$[ebp]
  0295e	89 81 e4 00 00
	00		 mov	 DWORD PTR [ecx+228], eax
$L85995:
  02964	0f b7 85 d8 fc
	ff ff		 movzx	 eax, WORD PTR _ndxD$85988[ebp]
  0296b	8b 4d 18	 mov	 ecx, DWORD PTR _pRO$[ebp]
  0296e	3b 81 e4 00 00
	00		 cmp	 eax, DWORD PTR [ecx+228]
  02974	76 10		 jbe	 SHORT $L85984
  02976	0f b7 85 d8 fc
	ff ff		 movzx	 eax, WORD PTR _ndxD$85988[ebp]
  0297d	8b 4d 18	 mov	 ecx, DWORD PTR _pRO$[ebp]
  02980	89 81 e4 00 00
	00		 mov	 DWORD PTR [ecx+228], eax
$L85984:

; 789  : 				}
; 790  : 				if (nCol == nPatchSQ - 1)

  02986	8b 45 08	 mov	 eax, DWORD PTR _nPatchSQ$[ebp]
  02989	83 e8 01	 sub	 eax, 1
  0298c	39 85 08 fd ff
	ff		 cmp	 DWORD PTR _nCol$85980[ebp], eax
  02992	0f 85 c4 02 00
	00		 jne	 $L85997

; 791  : 				{ // right corner
; 792  : 					WORD ndxA, ndxB, ndxC, ndxD ;
; 793  : 					ndxA = _ROWCOLTOINDEX( nRow - 1, nCol     )

  02998	8b 85 14 fd ff
	ff		 mov	 eax, DWORD PTR _nRow$85979[ebp]
  0299e	83 e8 01	 sub	 eax, 1
  029a1	8b 4d 08	 mov	 ecx, DWORD PTR _nPatchSQ$[ebp]
  029a4	83 c1 01	 add	 ecx, 1
  029a7	0f af c1	 imul	 eax, ecx
  029aa	03 85 08 fd ff
	ff		 add	 eax, DWORD PTR _nCol$85980[ebp]
  029b0	66 89 85 cc fc
	ff ff		 mov	 WORD PTR _ndxA$85998[ebp], ax

; 794  : 					ndxB = nVerts + nCol ;

  029b7	8b 45 a4	 mov	 eax, DWORD PTR _nVerts$[ebp]
  029ba	03 85 08 fd ff
	ff		 add	 eax, DWORD PTR _nCol$85980[ebp]
  029c0	66 89 85 c0 fc
	ff ff		 mov	 WORD PTR _ndxB$85999[ebp], ax

; 795  : 					ndxC = _ROWCOLTOINDEX( nRow - 1, nCol + 1 )

  029c7	8b 85 14 fd ff
	ff		 mov	 eax, DWORD PTR _nRow$85979[ebp]
  029cd	83 e8 01	 sub	 eax, 1
  029d0	8b 4d 08	 mov	 ecx, DWORD PTR _nPatchSQ$[ebp]
  029d3	83 c1 01	 add	 ecx, 1
  029d6	0f af c1	 imul	 eax, ecx
  029d9	8b 95 08 fd ff
	ff		 mov	 edx, DWORD PTR _nCol$85980[ebp]
  029df	8d 44 10 01	 lea	 eax, DWORD PTR [eax+edx+1]
  029e3	66 89 85 b4 fc
	ff ff		 mov	 WORD PTR _ndxC$86000[ebp], ax

; 796  : 					ndxD = _ROWCOLTOINDEX( nRow    , nCol	  )

  029ea	8b 45 08	 mov	 eax, DWORD PTR _nPatchSQ$[ebp]
  029ed	83 c0 01	 add	 eax, 1
  029f0	8b 8d 14 fd ff
	ff		 mov	 ecx, DWORD PTR _nRow$85979[ebp]
  029f6	0f af c8	 imul	 ecx, eax
  029f9	03 8d 08 fd ff
	ff		 add	 ecx, DWORD PTR _nCol$85980[ebp]
  029ff	66 89 8d a8 fc
	ff ff		 mov	 WORD PTR _ndxD$86001[ebp], cx

; 797  : 					_ADD_TRIANGLE( ndxA, ndxB, ndxD )

  02a06	8b 45 18	 mov	 eax, DWORD PTR _pRO$[ebp]
  02a09	8b 48 44	 mov	 ecx, DWORD PTR [eax+68]
  02a0c	8b 95 fc fd ff
	ff		 mov	 edx, DWORD PTR _nCurIndex$[ebp]
  02a12	66 8b 85 cc fc
	ff ff		 mov	 ax, WORD PTR _ndxA$85998[ebp]
  02a19	66 89 04 51	 mov	 WORD PTR [ecx+edx*2], ax
  02a1d	8b 8d fc fd ff
	ff		 mov	 ecx, DWORD PTR _nCurIndex$[ebp]
  02a23	83 c1 01	 add	 ecx, 1
  02a26	89 8d fc fd ff
	ff		 mov	 DWORD PTR _nCurIndex$[ebp], ecx
  02a2c	8b 45 18	 mov	 eax, DWORD PTR _pRO$[ebp]
  02a2f	8b 48 44	 mov	 ecx, DWORD PTR [eax+68]
  02a32	8b 95 fc fd ff
	ff		 mov	 edx, DWORD PTR _nCurIndex$[ebp]
  02a38	66 8b 85 c0 fc
	ff ff		 mov	 ax, WORD PTR _ndxB$85999[ebp]
  02a3f	66 89 04 51	 mov	 WORD PTR [ecx+edx*2], ax
  02a43	8b 8d fc fd ff
	ff		 mov	 ecx, DWORD PTR _nCurIndex$[ebp]
  02a49	83 c1 01	 add	 ecx, 1
  02a4c	89 8d fc fd ff
	ff		 mov	 DWORD PTR _nCurIndex$[ebp], ecx
  02a52	8b 45 18	 mov	 eax, DWORD PTR _pRO$[ebp]
  02a55	8b 48 44	 mov	 ecx, DWORD PTR [eax+68]
  02a58	8b 95 fc fd ff
	ff		 mov	 edx, DWORD PTR _nCurIndex$[ebp]
  02a5e	66 8b 85 a8 fc
	ff ff		 mov	 ax, WORD PTR _ndxD$86001[ebp]
  02a65	66 89 04 51	 mov	 WORD PTR [ecx+edx*2], ax
  02a69	8b 8d fc fd ff
	ff		 mov	 ecx, DWORD PTR _nCurIndex$[ebp]
  02a6f	83 c1 01	 add	 ecx, 1
  02a72	89 8d fc fd ff
	ff		 mov	 DWORD PTR _nCurIndex$[ebp], ecx
  02a78	0f b7 85 a8 fc
	ff ff		 movzx	 eax, WORD PTR _ndxD$86001[ebp]
  02a7f	50		 push	 eax
  02a80	0f b7 8d c0 fc
	ff ff		 movzx	 ecx, WORD PTR _ndxB$85999[ebp]
  02a87	51		 push	 ecx
  02a88	0f b7 95 cc fc
	ff ff		 movzx	 edx, WORD PTR _ndxA$85998[ebp]
  02a8f	52		 push	 edx
  02a90	8b 45 18	 mov	 eax, DWORD PTR _pRO$[ebp]
  02a93	50		 push	 eax
  02a94	8b 4d f8	 mov	 ecx, DWORD PTR _this$[ebp]
  02a97	e8 00 00 00 00	 call	 ?AddFaceNormalData@CTerrainPatch@@QAEXPAVCProceduralRenderObject@@HHH@Z ; CTerrainPatch::AddFaceNormalData

; 798  : 					_ADD_TRIANGLE( ndxB, ndxC, ndxD )

  02a9c	8b 45 18	 mov	 eax, DWORD PTR _pRO$[ebp]
  02a9f	8b 48 44	 mov	 ecx, DWORD PTR [eax+68]
  02aa2	8b 95 fc fd ff
	ff		 mov	 edx, DWORD PTR _nCurIndex$[ebp]
  02aa8	66 8b 85 c0 fc
	ff ff		 mov	 ax, WORD PTR _ndxB$85999[ebp]
  02aaf	66 89 04 51	 mov	 WORD PTR [ecx+edx*2], ax
  02ab3	8b 8d fc fd ff
	ff		 mov	 ecx, DWORD PTR _nCurIndex$[ebp]
  02ab9	83 c1 01	 add	 ecx, 1
  02abc	89 8d fc fd ff
	ff		 mov	 DWORD PTR _nCurIndex$[ebp], ecx
  02ac2	8b 45 18	 mov	 eax, DWORD PTR _pRO$[ebp]
  02ac5	8b 48 44	 mov	 ecx, DWORD PTR [eax+68]
  02ac8	8b 95 fc fd ff
	ff		 mov	 edx, DWORD PTR _nCurIndex$[ebp]
  02ace	66 8b 85 b4 fc
	ff ff		 mov	 ax, WORD PTR _ndxC$86000[ebp]
  02ad5	66 89 04 51	 mov	 WORD PTR [ecx+edx*2], ax
  02ad9	8b 8d fc fd ff
	ff		 mov	 ecx, DWORD PTR _nCurIndex$[ebp]
  02adf	83 c1 01	 add	 ecx, 1
  02ae2	89 8d fc fd ff
	ff		 mov	 DWORD PTR _nCurIndex$[ebp], ecx
  02ae8	8b 45 18	 mov	 eax, DWORD PTR _pRO$[ebp]
  02aeb	8b 48 44	 mov	 ecx, DWORD PTR [eax+68]
  02aee	8b 95 fc fd ff
	ff		 mov	 edx, DWORD PTR _nCurIndex$[ebp]
  02af4	66 8b 85 a8 fc
	ff ff		 mov	 ax, WORD PTR _ndxD$86001[ebp]
  02afb	66 89 04 51	 mov	 WORD PTR [ecx+edx*2], ax
  02aff	8b 8d fc fd ff
	ff		 mov	 ecx, DWORD PTR _nCurIndex$[ebp]
  02b05	83 c1 01	 add	 ecx, 1
  02b08	89 8d fc fd ff
	ff		 mov	 DWORD PTR _nCurIndex$[ebp], ecx
  02b0e	0f b7 85 a8 fc
	ff ff		 movzx	 eax, WORD PTR _ndxD$86001[ebp]
  02b15	50		 push	 eax
  02b16	0f b7 8d b4 fc
	ff ff		 movzx	 ecx, WORD PTR _ndxC$86000[ebp]
  02b1d	51		 push	 ecx
  02b1e	0f b7 95 c0 fc
	ff ff		 movzx	 edx, WORD PTR _ndxB$85999[ebp]
  02b25	52		 push	 edx
  02b26	8b 45 18	 mov	 eax, DWORD PTR _pRO$[ebp]
  02b29	50		 push	 eax
  02b2a	8b 4d f8	 mov	 ecx, DWORD PTR _this$[ebp]
  02b2d	e8 00 00 00 00	 call	 ?AddFaceNormalData@CTerrainPatch@@QAEXPAVCProceduralRenderObject@@HHH@Z ; CTerrainPatch::AddFaceNormalData

; 799  : 					pRO->m_ntvRS[0].dwSS_PrimCount[DS_TOP_EDGE_LODPLUS1] += 2 ;

  02b32	8b 45 18	 mov	 eax, DWORD PTR _pRO$[ebp]
  02b35	8b 88 5c 01 00
	00		 mov	 ecx, DWORD PTR [eax+348]
  02b3b	83 c1 02	 add	 ecx, 2
  02b3e	8b 55 18	 mov	 edx, DWORD PTR _pRO$[ebp]
  02b41	89 8a 5c 01 00
	00		 mov	 DWORD PTR [edx+348], ecx

; 800  : 					_MAINTAIN_MIN_MAX_INDEX_ATOD( ndxA, ndxB, ndxC, ndxD, DS_TOP_EDGE_LODPLUS1 )

  02b47	0f b7 85 cc fc
	ff ff		 movzx	 eax, WORD PTR _ndxA$85998[ebp]
  02b4e	8b 4d 18	 mov	 ecx, DWORD PTR _pRO$[ebp]
  02b51	3b 81 bc 00 00
	00		 cmp	 eax, DWORD PTR [ecx+188]
  02b57	73 10		 jae	 SHORT $L86002
  02b59	0f b7 85 cc fc
	ff ff		 movzx	 eax, WORD PTR _ndxA$85998[ebp]
  02b60	8b 4d 18	 mov	 ecx, DWORD PTR _pRO$[ebp]
  02b63	89 81 bc 00 00
	00		 mov	 DWORD PTR [ecx+188], eax
$L86002:
  02b69	0f b7 85 c0 fc
	ff ff		 movzx	 eax, WORD PTR _ndxB$85999[ebp]
  02b70	8b 4d 18	 mov	 ecx, DWORD PTR _pRO$[ebp]
  02b73	3b 81 bc 00 00
	00		 cmp	 eax, DWORD PTR [ecx+188]
  02b79	73 10		 jae	 SHORT $L86003
  02b7b	0f b7 85 c0 fc
	ff ff		 movzx	 eax, WORD PTR _ndxB$85999[ebp]
  02b82	8b 4d 18	 mov	 ecx, DWORD PTR _pRO$[ebp]
  02b85	89 81 bc 00 00
	00		 mov	 DWORD PTR [ecx+188], eax
$L86003:
  02b8b	0f b7 85 b4 fc
	ff ff		 movzx	 eax, WORD PTR _ndxC$86000[ebp]
  02b92	8b 4d 18	 mov	 ecx, DWORD PTR _pRO$[ebp]
  02b95	3b 81 bc 00 00
	00		 cmp	 eax, DWORD PTR [ecx+188]
  02b9b	73 10		 jae	 SHORT $L86004
  02b9d	0f b7 85 b4 fc
	ff ff		 movzx	 eax, WORD PTR _ndxC$86000[ebp]
  02ba4	8b 4d 18	 mov	 ecx, DWORD PTR _pRO$[ebp]
  02ba7	89 81 bc 00 00
	00		 mov	 DWORD PTR [ecx+188], eax
$L86004:
  02bad	0f b7 85 a8 fc
	ff ff		 movzx	 eax, WORD PTR _ndxD$86001[ebp]
  02bb4	8b 4d 18	 mov	 ecx, DWORD PTR _pRO$[ebp]
  02bb7	3b 81 bc 00 00
	00		 cmp	 eax, DWORD PTR [ecx+188]
  02bbd	73 10		 jae	 SHORT $L86005
  02bbf	0f b7 85 a8 fc
	ff ff		 movzx	 eax, WORD PTR _ndxD$86001[ebp]
  02bc6	8b 4d 18	 mov	 ecx, DWORD PTR _pRO$[ebp]
  02bc9	89 81 bc 00 00
	00		 mov	 DWORD PTR [ecx+188], eax
$L86005:
  02bcf	0f b7 85 cc fc
	ff ff		 movzx	 eax, WORD PTR _ndxA$85998[ebp]
  02bd6	8b 4d 18	 mov	 ecx, DWORD PTR _pRO$[ebp]
  02bd9	3b 81 e4 00 00
	00		 cmp	 eax, DWORD PTR [ecx+228]
  02bdf	76 10		 jbe	 SHORT $L86006
  02be1	0f b7 85 cc fc
	ff ff		 movzx	 eax, WORD PTR _ndxA$85998[ebp]
  02be8	8b 4d 18	 mov	 ecx, DWORD PTR _pRO$[ebp]
  02beb	89 81 e4 00 00
	00		 mov	 DWORD PTR [ecx+228], eax
$L86006:
  02bf1	0f b7 85 c0 fc
	ff ff		 movzx	 eax, WORD PTR _ndxB$85999[ebp]
  02bf8	8b 4d 18	 mov	 ecx, DWORD PTR _pRO$[ebp]
  02bfb	3b 81 e4 00 00
	00		 cmp	 eax, DWORD PTR [ecx+228]
  02c01	76 10		 jbe	 SHORT $L86007
  02c03	0f b7 85 c0 fc
	ff ff		 movzx	 eax, WORD PTR _ndxB$85999[ebp]
  02c0a	8b 4d 18	 mov	 ecx, DWORD PTR _pRO$[ebp]
  02c0d	89 81 e4 00 00
	00		 mov	 DWORD PTR [ecx+228], eax
$L86007:
  02c13	0f b7 85 b4 fc
	ff ff		 movzx	 eax, WORD PTR _ndxC$86000[ebp]
  02c1a	8b 4d 18	 mov	 ecx, DWORD PTR _pRO$[ebp]
  02c1d	3b 81 e4 00 00
	00		 cmp	 eax, DWORD PTR [ecx+228]
  02c23	76 10		 jbe	 SHORT $L86008
  02c25	0f b7 85 b4 fc
	ff ff		 movzx	 eax, WORD PTR _ndxC$86000[ebp]
  02c2c	8b 4d 18	 mov	 ecx, DWORD PTR _pRO$[ebp]
  02c2f	89 81 e4 00 00
	00		 mov	 DWORD PTR [ecx+228], eax
$L86008:
  02c35	0f b7 85 a8 fc
	ff ff		 movzx	 eax, WORD PTR _ndxD$86001[ebp]
  02c3c	8b 4d 18	 mov	 ecx, DWORD PTR _pRO$[ebp]
  02c3f	3b 81 e4 00 00
	00		 cmp	 eax, DWORD PTR [ecx+228]
  02c45	76 10		 jbe	 SHORT $L86009
  02c47	0f b7 85 a8 fc
	ff ff		 movzx	 eax, WORD PTR _ndxD$86001[ebp]
  02c4e	8b 4d 18	 mov	 ecx, DWORD PTR _pRO$[ebp]
  02c51	89 81 e4 00 00
	00		 mov	 DWORD PTR [ecx+228], eax
$L86009:

; 801  : 					continue ;

  02c57	e9 39 fa ff ff	 jmp	 $L85982
$L85997:

; 802  : 				}
; 803  : 				// normal 'quad'
; 804  : 					WORD ndxA, ndxB, ndxC, ndxD, ndxE ;
; 805  : 					ndxA = _ROWCOLTOINDEX( nRow - 1, nCol     )

  02c5c	8b 85 14 fd ff
	ff		 mov	 eax, DWORD PTR _nRow$85979[ebp]
  02c62	83 e8 01	 sub	 eax, 1
  02c65	8b 4d 08	 mov	 ecx, DWORD PTR _nPatchSQ$[ebp]
  02c68	83 c1 01	 add	 ecx, 1
  02c6b	0f af c1	 imul	 eax, ecx
  02c6e	03 85 08 fd ff
	ff		 add	 eax, DWORD PTR _nCol$85980[ebp]
  02c74	66 89 85 9c fc
	ff ff		 mov	 WORD PTR _ndxA$86010[ebp], ax

; 806  : 					ndxB = nVerts + nCol ;

  02c7b	8b 45 a4	 mov	 eax, DWORD PTR _nVerts$[ebp]
  02c7e	03 85 08 fd ff
	ff		 add	 eax, DWORD PTR _nCol$85980[ebp]
  02c84	66 89 85 90 fc
	ff ff		 mov	 WORD PTR _ndxB$86011[ebp], ax

; 807  : 					ndxC = _ROWCOLTOINDEX( nRow - 1, nCol + 1 )

  02c8b	8b 85 14 fd ff
	ff		 mov	 eax, DWORD PTR _nRow$85979[ebp]
  02c91	83 e8 01	 sub	 eax, 1
  02c94	8b 4d 08	 mov	 ecx, DWORD PTR _nPatchSQ$[ebp]
  02c97	83 c1 01	 add	 ecx, 1
  02c9a	0f af c1	 imul	 eax, ecx
  02c9d	8b 95 08 fd ff
	ff		 mov	 edx, DWORD PTR _nCol$85980[ebp]
  02ca3	8d 44 10 01	 lea	 eax, DWORD PTR [eax+edx+1]
  02ca7	66 89 85 84 fc
	ff ff		 mov	 WORD PTR _ndxC$86012[ebp], ax

; 808  : 					ndxD = _ROWCOLTOINDEX( nRow	   , nCol 	  )

  02cae	8b 45 08	 mov	 eax, DWORD PTR _nPatchSQ$[ebp]
  02cb1	83 c0 01	 add	 eax, 1
  02cb4	8b 8d 14 fd ff
	ff		 mov	 ecx, DWORD PTR _nRow$85979[ebp]
  02cba	0f af c8	 imul	 ecx, eax
  02cbd	03 8d 08 fd ff
	ff		 add	 ecx, DWORD PTR _nCol$85980[ebp]
  02cc3	66 89 8d 78 fc
	ff ff		 mov	 WORD PTR _ndxD$86013[ebp], cx

; 809  : 					ndxE = _ROWCOLTOINDEX( nRow	   , nCol + 1 )

  02cca	8b 45 08	 mov	 eax, DWORD PTR _nPatchSQ$[ebp]
  02ccd	83 c0 01	 add	 eax, 1
  02cd0	8b 8d 14 fd ff
	ff		 mov	 ecx, DWORD PTR _nRow$85979[ebp]
  02cd6	0f af c8	 imul	 ecx, eax
  02cd9	8b 95 08 fd ff
	ff		 mov	 edx, DWORD PTR _nCol$85980[ebp]
  02cdf	8d 44 11 01	 lea	 eax, DWORD PTR [ecx+edx+1]
  02ce3	66 89 85 6c fc
	ff ff		 mov	 WORD PTR _ndxE$86014[ebp], ax

; 810  : 					_ADD_TRIANGLE( ndxA, ndxB, ndxD )

  02cea	8b 45 18	 mov	 eax, DWORD PTR _pRO$[ebp]
  02ced	8b 48 44	 mov	 ecx, DWORD PTR [eax+68]
  02cf0	8b 95 fc fd ff
	ff		 mov	 edx, DWORD PTR _nCurIndex$[ebp]
  02cf6	66 8b 85 9c fc
	ff ff		 mov	 ax, WORD PTR _ndxA$86010[ebp]
  02cfd	66 89 04 51	 mov	 WORD PTR [ecx+edx*2], ax
  02d01	8b 8d fc fd ff
	ff		 mov	 ecx, DWORD PTR _nCurIndex$[ebp]
  02d07	83 c1 01	 add	 ecx, 1
  02d0a	89 8d fc fd ff
	ff		 mov	 DWORD PTR _nCurIndex$[ebp], ecx
  02d10	8b 45 18	 mov	 eax, DWORD PTR _pRO$[ebp]
  02d13	8b 48 44	 mov	 ecx, DWORD PTR [eax+68]
  02d16	8b 95 fc fd ff
	ff		 mov	 edx, DWORD PTR _nCurIndex$[ebp]
  02d1c	66 8b 85 90 fc
	ff ff		 mov	 ax, WORD PTR _ndxB$86011[ebp]
  02d23	66 89 04 51	 mov	 WORD PTR [ecx+edx*2], ax
  02d27	8b 8d fc fd ff
	ff		 mov	 ecx, DWORD PTR _nCurIndex$[ebp]
  02d2d	83 c1 01	 add	 ecx, 1
  02d30	89 8d fc fd ff
	ff		 mov	 DWORD PTR _nCurIndex$[ebp], ecx
  02d36	8b 45 18	 mov	 eax, DWORD PTR _pRO$[ebp]
  02d39	8b 48 44	 mov	 ecx, DWORD PTR [eax+68]
  02d3c	8b 95 fc fd ff
	ff		 mov	 edx, DWORD PTR _nCurIndex$[ebp]
  02d42	66 8b 85 78 fc
	ff ff		 mov	 ax, WORD PTR _ndxD$86013[ebp]
  02d49	66 89 04 51	 mov	 WORD PTR [ecx+edx*2], ax
  02d4d	8b 8d fc fd ff
	ff		 mov	 ecx, DWORD PTR _nCurIndex$[ebp]
  02d53	83 c1 01	 add	 ecx, 1
  02d56	89 8d fc fd ff
	ff		 mov	 DWORD PTR _nCurIndex$[ebp], ecx
  02d5c	0f b7 85 78 fc
	ff ff		 movzx	 eax, WORD PTR _ndxD$86013[ebp]
  02d63	50		 push	 eax
  02d64	0f b7 8d 90 fc
	ff ff		 movzx	 ecx, WORD PTR _ndxB$86011[ebp]
  02d6b	51		 push	 ecx
  02d6c	0f b7 95 9c fc
	ff ff		 movzx	 edx, WORD PTR _ndxA$86010[ebp]
  02d73	52		 push	 edx
  02d74	8b 45 18	 mov	 eax, DWORD PTR _pRO$[ebp]
  02d77	50		 push	 eax
  02d78	8b 4d f8	 mov	 ecx, DWORD PTR _this$[ebp]
  02d7b	e8 00 00 00 00	 call	 ?AddFaceNormalData@CTerrainPatch@@QAEXPAVCProceduralRenderObject@@HHH@Z ; CTerrainPatch::AddFaceNormalData

; 811  : 					_ADD_TRIANGLE( ndxD, ndxB, ndxE )

  02d80	8b 45 18	 mov	 eax, DWORD PTR _pRO$[ebp]
  02d83	8b 48 44	 mov	 ecx, DWORD PTR [eax+68]
  02d86	8b 95 fc fd ff
	ff		 mov	 edx, DWORD PTR _nCurIndex$[ebp]
  02d8c	66 8b 85 78 fc
	ff ff		 mov	 ax, WORD PTR _ndxD$86013[ebp]
  02d93	66 89 04 51	 mov	 WORD PTR [ecx+edx*2], ax
  02d97	8b 8d fc fd ff
	ff		 mov	 ecx, DWORD PTR _nCurIndex$[ebp]
  02d9d	83 c1 01	 add	 ecx, 1
  02da0	89 8d fc fd ff
	ff		 mov	 DWORD PTR _nCurIndex$[ebp], ecx
  02da6	8b 45 18	 mov	 eax, DWORD PTR _pRO$[ebp]
  02da9	8b 48 44	 mov	 ecx, DWORD PTR [eax+68]
  02dac	8b 95 fc fd ff
	ff		 mov	 edx, DWORD PTR _nCurIndex$[ebp]
  02db2	66 8b 85 90 fc
	ff ff		 mov	 ax, WORD PTR _ndxB$86011[ebp]
  02db9	66 89 04 51	 mov	 WORD PTR [ecx+edx*2], ax
  02dbd	8b 8d fc fd ff
	ff		 mov	 ecx, DWORD PTR _nCurIndex$[ebp]
  02dc3	83 c1 01	 add	 ecx, 1
  02dc6	89 8d fc fd ff
	ff		 mov	 DWORD PTR _nCurIndex$[ebp], ecx
  02dcc	8b 45 18	 mov	 eax, DWORD PTR _pRO$[ebp]
  02dcf	8b 48 44	 mov	 ecx, DWORD PTR [eax+68]
  02dd2	8b 95 fc fd ff
	ff		 mov	 edx, DWORD PTR _nCurIndex$[ebp]
  02dd8	66 8b 85 6c fc
	ff ff		 mov	 ax, WORD PTR _ndxE$86014[ebp]
  02ddf	66 89 04 51	 mov	 WORD PTR [ecx+edx*2], ax
  02de3	8b 8d fc fd ff
	ff		 mov	 ecx, DWORD PTR _nCurIndex$[ebp]
  02de9	83 c1 01	 add	 ecx, 1
  02dec	89 8d fc fd ff
	ff		 mov	 DWORD PTR _nCurIndex$[ebp], ecx
  02df2	0f b7 85 6c fc
	ff ff		 movzx	 eax, WORD PTR _ndxE$86014[ebp]
  02df9	50		 push	 eax
  02dfa	0f b7 8d 90 fc
	ff ff		 movzx	 ecx, WORD PTR _ndxB$86011[ebp]
  02e01	51		 push	 ecx
  02e02	0f b7 95 78 fc
	ff ff		 movzx	 edx, WORD PTR _ndxD$86013[ebp]
  02e09	52		 push	 edx
  02e0a	8b 45 18	 mov	 eax, DWORD PTR _pRO$[ebp]
  02e0d	50		 push	 eax
  02e0e	8b 4d f8	 mov	 ecx, DWORD PTR _this$[ebp]
  02e11	e8 00 00 00 00	 call	 ?AddFaceNormalData@CTerrainPatch@@QAEXPAVCProceduralRenderObject@@HHH@Z ; CTerrainPatch::AddFaceNormalData

; 812  : 					_ADD_TRIANGLE( ndxB, ndxC, ndxE )

  02e16	8b 45 18	 mov	 eax, DWORD PTR _pRO$[ebp]
  02e19	8b 48 44	 mov	 ecx, DWORD PTR [eax+68]
  02e1c	8b 95 fc fd ff
	ff		 mov	 edx, DWORD PTR _nCurIndex$[ebp]
  02e22	66 8b 85 90 fc
	ff ff		 mov	 ax, WORD PTR _ndxB$86011[ebp]
  02e29	66 89 04 51	 mov	 WORD PTR [ecx+edx*2], ax
  02e2d	8b 8d fc fd ff
	ff		 mov	 ecx, DWORD PTR _nCurIndex$[ebp]
  02e33	83 c1 01	 add	 ecx, 1
  02e36	89 8d fc fd ff
	ff		 mov	 DWORD PTR _nCurIndex$[ebp], ecx
  02e3c	8b 45 18	 mov	 eax, DWORD PTR _pRO$[ebp]
  02e3f	8b 48 44	 mov	 ecx, DWORD PTR [eax+68]
  02e42	8b 95 fc fd ff
	ff		 mov	 edx, DWORD PTR _nCurIndex$[ebp]
  02e48	66 8b 85 84 fc
	ff ff		 mov	 ax, WORD PTR _ndxC$86012[ebp]
  02e4f	66 89 04 51	 mov	 WORD PTR [ecx+edx*2], ax
  02e53	8b 8d fc fd ff
	ff		 mov	 ecx, DWORD PTR _nCurIndex$[ebp]
  02e59	83 c1 01	 add	 ecx, 1
  02e5c	89 8d fc fd ff
	ff		 mov	 DWORD PTR _nCurIndex$[ebp], ecx
  02e62	8b 45 18	 mov	 eax, DWORD PTR _pRO$[ebp]
  02e65	8b 48 44	 mov	 ecx, DWORD PTR [eax+68]
  02e68	8b 95 fc fd ff
	ff		 mov	 edx, DWORD PTR _nCurIndex$[ebp]
  02e6e	66 8b 85 6c fc
	ff ff		 mov	 ax, WORD PTR _ndxE$86014[ebp]
  02e75	66 89 04 51	 mov	 WORD PTR [ecx+edx*2], ax
  02e79	8b 8d fc fd ff
	ff		 mov	 ecx, DWORD PTR _nCurIndex$[ebp]
  02e7f	83 c1 01	 add	 ecx, 1
  02e82	89 8d fc fd ff
	ff		 mov	 DWORD PTR _nCurIndex$[ebp], ecx
  02e88	0f b7 85 6c fc
	ff ff		 movzx	 eax, WORD PTR _ndxE$86014[ebp]
  02e8f	50		 push	 eax
  02e90	0f b7 8d 84 fc
	ff ff		 movzx	 ecx, WORD PTR _ndxC$86012[ebp]
  02e97	51		 push	 ecx
  02e98	0f b7 95 90 fc
	ff ff		 movzx	 edx, WORD PTR _ndxB$86011[ebp]
  02e9f	52		 push	 edx
  02ea0	8b 45 18	 mov	 eax, DWORD PTR _pRO$[ebp]
  02ea3	50		 push	 eax
  02ea4	8b 4d f8	 mov	 ecx, DWORD PTR _this$[ebp]
  02ea7	e8 00 00 00 00	 call	 ?AddFaceNormalData@CTerrainPatch@@QAEXPAVCProceduralRenderObject@@HHH@Z ; CTerrainPatch::AddFaceNormalData

; 813  : 					_MAINTAIN_MIN_MAX_INDEX_ATOE(ndxA, ndxB, ndxC, ndxD, ndxE, DS_TOP_EDGE_LODPLUS1)

  02eac	0f b7 85 9c fc
	ff ff		 movzx	 eax, WORD PTR _ndxA$86010[ebp]
  02eb3	8b 4d 18	 mov	 ecx, DWORD PTR _pRO$[ebp]
  02eb6	3b 81 bc 00 00
	00		 cmp	 eax, DWORD PTR [ecx+188]
  02ebc	73 10		 jae	 SHORT $L86015
  02ebe	0f b7 85 9c fc
	ff ff		 movzx	 eax, WORD PTR _ndxA$86010[ebp]
  02ec5	8b 4d 18	 mov	 ecx, DWORD PTR _pRO$[ebp]
  02ec8	89 81 bc 00 00
	00		 mov	 DWORD PTR [ecx+188], eax
$L86015:
  02ece	0f b7 85 90 fc
	ff ff		 movzx	 eax, WORD PTR _ndxB$86011[ebp]
  02ed5	8b 4d 18	 mov	 ecx, DWORD PTR _pRO$[ebp]
  02ed8	3b 81 bc 00 00
	00		 cmp	 eax, DWORD PTR [ecx+188]
  02ede	73 10		 jae	 SHORT $L86016
  02ee0	0f b7 85 90 fc
	ff ff		 movzx	 eax, WORD PTR _ndxB$86011[ebp]
  02ee7	8b 4d 18	 mov	 ecx, DWORD PTR _pRO$[ebp]
  02eea	89 81 bc 00 00
	00		 mov	 DWORD PTR [ecx+188], eax
$L86016:
  02ef0	0f b7 85 84 fc
	ff ff		 movzx	 eax, WORD PTR _ndxC$86012[ebp]
  02ef7	8b 4d 18	 mov	 ecx, DWORD PTR _pRO$[ebp]
  02efa	3b 81 bc 00 00
	00		 cmp	 eax, DWORD PTR [ecx+188]
  02f00	73 10		 jae	 SHORT $L86017
  02f02	0f b7 85 84 fc
	ff ff		 movzx	 eax, WORD PTR _ndxC$86012[ebp]
  02f09	8b 4d 18	 mov	 ecx, DWORD PTR _pRO$[ebp]
  02f0c	89 81 bc 00 00
	00		 mov	 DWORD PTR [ecx+188], eax
$L86017:
  02f12	0f b7 85 78 fc
	ff ff		 movzx	 eax, WORD PTR _ndxD$86013[ebp]
  02f19	8b 4d 18	 mov	 ecx, DWORD PTR _pRO$[ebp]
  02f1c	3b 81 bc 00 00
	00		 cmp	 eax, DWORD PTR [ecx+188]
  02f22	73 10		 jae	 SHORT $L86018
  02f24	0f b7 85 78 fc
	ff ff		 movzx	 eax, WORD PTR _ndxD$86013[ebp]
  02f2b	8b 4d 18	 mov	 ecx, DWORD PTR _pRO$[ebp]
  02f2e	89 81 bc 00 00
	00		 mov	 DWORD PTR [ecx+188], eax
$L86018:
  02f34	0f b7 85 6c fc
	ff ff		 movzx	 eax, WORD PTR _ndxE$86014[ebp]
  02f3b	8b 4d 18	 mov	 ecx, DWORD PTR _pRO$[ebp]
  02f3e	3b 81 bc 00 00
	00		 cmp	 eax, DWORD PTR [ecx+188]
  02f44	73 10		 jae	 SHORT $L86019
  02f46	0f b7 85 6c fc
	ff ff		 movzx	 eax, WORD PTR _ndxE$86014[ebp]
  02f4d	8b 4d 18	 mov	 ecx, DWORD PTR _pRO$[ebp]
  02f50	89 81 bc 00 00
	00		 mov	 DWORD PTR [ecx+188], eax
$L86019:
  02f56	0f b7 85 9c fc
	ff ff		 movzx	 eax, WORD PTR _ndxA$86010[ebp]
  02f5d	8b 4d 18	 mov	 ecx, DWORD PTR _pRO$[ebp]
  02f60	3b 81 e4 00 00
	00		 cmp	 eax, DWORD PTR [ecx+228]
  02f66	76 10		 jbe	 SHORT $L86020
  02f68	0f b7 85 9c fc
	ff ff		 movzx	 eax, WORD PTR _ndxA$86010[ebp]
  02f6f	8b 4d 18	 mov	 ecx, DWORD PTR _pRO$[ebp]
  02f72	89 81 e4 00 00
	00		 mov	 DWORD PTR [ecx+228], eax
$L86020:
  02f78	0f b7 85 90 fc
	ff ff		 movzx	 eax, WORD PTR _ndxB$86011[ebp]
  02f7f	8b 4d 18	 mov	 ecx, DWORD PTR _pRO$[ebp]
  02f82	3b 81 e4 00 00
	00		 cmp	 eax, DWORD PTR [ecx+228]
  02f88	76 10		 jbe	 SHORT $L86021
  02f8a	0f b7 85 90 fc
	ff ff		 movzx	 eax, WORD PTR _ndxB$86011[ebp]
  02f91	8b 4d 18	 mov	 ecx, DWORD PTR _pRO$[ebp]
  02f94	89 81 e4 00 00
	00		 mov	 DWORD PTR [ecx+228], eax
$L86021:
  02f9a	0f b7 85 84 fc
	ff ff		 movzx	 eax, WORD PTR _ndxC$86012[ebp]
  02fa1	8b 4d 18	 mov	 ecx, DWORD PTR _pRO$[ebp]
  02fa4	3b 81 e4 00 00
	00		 cmp	 eax, DWORD PTR [ecx+228]
  02faa	76 10		 jbe	 SHORT $L86022
  02fac	0f b7 85 84 fc
	ff ff		 movzx	 eax, WORD PTR _ndxC$86012[ebp]
  02fb3	8b 4d 18	 mov	 ecx, DWORD PTR _pRO$[ebp]
  02fb6	89 81 e4 00 00
	00		 mov	 DWORD PTR [ecx+228], eax
$L86022:
  02fbc	0f b7 85 78 fc
	ff ff		 movzx	 eax, WORD PTR _ndxD$86013[ebp]
  02fc3	8b 4d 18	 mov	 ecx, DWORD PTR _pRO$[ebp]
  02fc6	3b 81 e4 00 00
	00		 cmp	 eax, DWORD PTR [ecx+228]
  02fcc	76 10		 jbe	 SHORT $L86023
  02fce	0f b7 85 78 fc
	ff ff		 movzx	 eax, WORD PTR _ndxD$86013[ebp]
  02fd5	8b 4d 18	 mov	 ecx, DWORD PTR _pRO$[ebp]
  02fd8	89 81 e4 00 00
	00		 mov	 DWORD PTR [ecx+228], eax
$L86023:
  02fde	0f b7 85 6c fc
	ff ff		 movzx	 eax, WORD PTR _ndxE$86014[ebp]
  02fe5	8b 4d 18	 mov	 ecx, DWORD PTR _pRO$[ebp]
  02fe8	3b 81 e4 00 00
	00		 cmp	 eax, DWORD PTR [ecx+228]
  02fee	76 10		 jbe	 SHORT $L86024
  02ff0	0f b7 85 6c fc
	ff ff		 movzx	 eax, WORD PTR _ndxE$86014[ebp]
  02ff7	8b 4d 18	 mov	 ecx, DWORD PTR _pRO$[ebp]
  02ffa	89 81 e4 00 00
	00		 mov	 DWORD PTR [ecx+228], eax
$L86024:

; 814  : 					pRO->m_ntvRS[0].dwSS_PrimCount[DS_TOP_EDGE_LODPLUS1] += 3 ;

  03000	8b 45 18	 mov	 eax, DWORD PTR _pRO$[ebp]
  03003	8b 88 5c 01 00
	00		 mov	 ecx, DWORD PTR [eax+348]
  03009	83 c1 03	 add	 ecx, 3
  0300c	8b 55 18	 mov	 edx, DWORD PTR _pRO$[ebp]
  0300f	89 8a 5c 01 00
	00		 mov	 DWORD PTR [edx+348], ecx

; 815  : 			}

  03015	e9 7b f6 ff ff	 jmp	 $L85982
$L85983:

; 816  : 
; 817  : 		//
; 818  : 		// DS_LEFT_EDGE_LODPLUS1
; 819  : 		//
; 820  : 			pRO->m_ntvRS[0].nDSs++ ;

  0301a	8b 45 18	 mov	 eax, DWORD PTR _pRO$[ebp]
  0301d	8b 88 a0 00 00
	00		 mov	 ecx, DWORD PTR [eax+160]
  03023	83 c1 01	 add	 ecx, 1
  03026	8b 55 18	 mov	 edx, DWORD PTR _pRO$[ebp]
  03029	89 8a a0 00 00
	00		 mov	 DWORD PTR [edx+160], ecx

; 821  : 			pRO->m_ntvRS[0].dwSS_StartIndex[DS_LEFT_EDGE_LODPLUS1] = nCurIndex ;

  0302f	8b 45 18	 mov	 eax, DWORD PTR _pRO$[ebp]
  03032	8b 8d fc fd ff
	ff		 mov	 ecx, DWORD PTR _nCurIndex$[ebp]
  03038	89 88 38 01 00
	00		 mov	 DWORD PTR [eax+312], ecx

; 822  : 			pRO->m_ntvRS[0].dwSS_MinIndex[DS_LEFT_EDGE_LODPLUS1] = 0 ;

  0303e	8b 45 18	 mov	 eax, DWORD PTR _pRO$[ebp]
  03041	c7 80 c0 00 00
	00 00 00 00 00	 mov	 DWORD PTR [eax+192], 0

; 823  : 			pRO->m_ntvRS[0].dwSS_MaxIndex[DS_LEFT_EDGE_LODPLUS1] = 0 ;

  0304b	8b 45 18	 mov	 eax, DWORD PTR _pRO$[ebp]
  0304e	c7 80 e8 00 00
	00 00 00 00 00	 mov	 DWORD PTR [eax+232], 0

; 824  : 			pRO->m_ntvRS[0].dwSS_PrimCount[DS_LEFT_EDGE_LODPLUS1] = 0 ;

  03058	8b 45 18	 mov	 eax, DWORD PTR _pRO$[ebp]
  0305b	c7 80 60 01 00
	00 00 00 00 00	 mov	 DWORD PTR [eax+352], 0

; 825  : 			pRO->m_ntvRS[0].dwSS_NumVerts[DS_LEFT_EDGE_LODPLUS1] = 6 * (nPatchSQ - 2) ;

  03065	8b 45 08	 mov	 eax, DWORD PTR _nPatchSQ$[ebp]
  03068	83 e8 02	 sub	 eax, 2
  0306b	6b c0 06	 imul	 eax, 6
  0306e	8b 4d 18	 mov	 ecx, DWORD PTR _pRO$[ebp]
  03071	89 81 10 01 00
	00		 mov	 DWORD PTR [ecx+272], eax

; 826  : 			for (nRow = 1, nCol = 1 ; nRow <= nPatchSQ - 1 ; nRow ++)

  03077	c7 85 14 fd ff
	ff 01 00 00 00	 mov	 DWORD PTR _nRow$85979[ebp], 1
  03081	c7 85 08 fd ff
	ff 01 00 00 00	 mov	 DWORD PTR _nCol$85980[ebp], 1
  0308b	eb 0f		 jmp	 SHORT $L86025
$L86026:
  0308d	8b 85 14 fd ff
	ff		 mov	 eax, DWORD PTR _nRow$85979[ebp]
  03093	83 c0 01	 add	 eax, 1
  03096	89 85 14 fd ff
	ff		 mov	 DWORD PTR _nRow$85979[ebp], eax
$L86025:
  0309c	8b 45 08	 mov	 eax, DWORD PTR _nPatchSQ$[ebp]
  0309f	83 e8 01	 sub	 eax, 1
  030a2	39 85 14 fd ff
	ff		 cmp	 DWORD PTR _nRow$85979[ebp], eax
  030a8	0f 8f 66 09 00
	00		 jg	 $L86027

; 827  : 			{
; 828  : 				if (nRow == 1)

  030ae	83 bd 14 fd ff
	ff 01		 cmp	 DWORD PTR _nRow$85979[ebp], 1
  030b5	0f 85 bd 02 00
	00		 jne	 $L86028

; 829  : 				{ // top corner
; 830  : 					WORD ndxA, ndxB, ndxC, ndxD ;
; 831  : 					ndxA = _ROWCOLTOINDEX( nRow    , nCol - 1 )

  030bb	8b 45 08	 mov	 eax, DWORD PTR _nPatchSQ$[ebp]
  030be	83 c0 01	 add	 eax, 1
  030c1	8b 8d 14 fd ff
	ff		 mov	 ecx, DWORD PTR _nRow$85979[ebp]
  030c7	0f af c8	 imul	 ecx, eax
  030ca	8b 95 08 fd ff
	ff		 mov	 edx, DWORD PTR _nCol$85980[ebp]
  030d0	8d 44 11 ff	 lea	 eax, DWORD PTR [ecx+edx-1]
  030d4	66 89 85 60 fc
	ff ff		 mov	 WORD PTR _ndxA$86029[ebp], ax

; 832  : 					ndxB = nVerts + nPatchSQ ;

  030db	8b 45 a4	 mov	 eax, DWORD PTR _nVerts$[ebp]
  030de	03 45 08	 add	 eax, DWORD PTR _nPatchSQ$[ebp]
  030e1	66 89 85 54 fc
	ff ff		 mov	 WORD PTR _ndxB$86030[ebp], ax

; 833  : 					ndxC = _ROWCOLTOINDEX( nRow - 1, nCol - 1 )

  030e8	8b 85 14 fd ff
	ff		 mov	 eax, DWORD PTR _nRow$85979[ebp]
  030ee	83 e8 01	 sub	 eax, 1
  030f1	8b 4d 08	 mov	 ecx, DWORD PTR _nPatchSQ$[ebp]
  030f4	83 c1 01	 add	 ecx, 1
  030f7	0f af c1	 imul	 eax, ecx
  030fa	8b 95 08 fd ff
	ff		 mov	 edx, DWORD PTR _nCol$85980[ebp]
  03100	8d 44 10 ff	 lea	 eax, DWORD PTR [eax+edx-1]
  03104	66 89 85 48 fc
	ff ff		 mov	 WORD PTR _ndxC$86031[ebp], ax

; 834  : 					ndxD = _ROWCOLTOINDEX( nRow    , nCol	  )

  0310b	8b 45 08	 mov	 eax, DWORD PTR _nPatchSQ$[ebp]
  0310e	83 c0 01	 add	 eax, 1
  03111	8b 8d 14 fd ff
	ff		 mov	 ecx, DWORD PTR _nRow$85979[ebp]
  03117	0f af c8	 imul	 ecx, eax
  0311a	03 8d 08 fd ff
	ff		 add	 ecx, DWORD PTR _nCol$85980[ebp]
  03120	66 89 8d 3c fc
	ff ff		 mov	 WORD PTR _ndxD$86032[ebp], cx

; 835  : 					_ADD_TRIANGLE( ndxA, ndxB, ndxD )

  03127	8b 45 18	 mov	 eax, DWORD PTR _pRO$[ebp]
  0312a	8b 48 44	 mov	 ecx, DWORD PTR [eax+68]
  0312d	8b 95 fc fd ff
	ff		 mov	 edx, DWORD PTR _nCurIndex$[ebp]
  03133	66 8b 85 60 fc
	ff ff		 mov	 ax, WORD PTR _ndxA$86029[ebp]
  0313a	66 89 04 51	 mov	 WORD PTR [ecx+edx*2], ax
  0313e	8b 8d fc fd ff
	ff		 mov	 ecx, DWORD PTR _nCurIndex$[ebp]
  03144	83 c1 01	 add	 ecx, 1
  03147	89 8d fc fd ff
	ff		 mov	 DWORD PTR _nCurIndex$[ebp], ecx
  0314d	8b 45 18	 mov	 eax, DWORD PTR _pRO$[ebp]
  03150	8b 48 44	 mov	 ecx, DWORD PTR [eax+68]
  03153	8b 95 fc fd ff
	ff		 mov	 edx, DWORD PTR _nCurIndex$[ebp]
  03159	66 8b 85 54 fc
	ff ff		 mov	 ax, WORD PTR _ndxB$86030[ebp]
  03160	66 89 04 51	 mov	 WORD PTR [ecx+edx*2], ax
  03164	8b 8d fc fd ff
	ff		 mov	 ecx, DWORD PTR _nCurIndex$[ebp]
  0316a	83 c1 01	 add	 ecx, 1
  0316d	89 8d fc fd ff
	ff		 mov	 DWORD PTR _nCurIndex$[ebp], ecx
  03173	8b 45 18	 mov	 eax, DWORD PTR _pRO$[ebp]
  03176	8b 48 44	 mov	 ecx, DWORD PTR [eax+68]
  03179	8b 95 fc fd ff
	ff		 mov	 edx, DWORD PTR _nCurIndex$[ebp]
  0317f	66 8b 85 3c fc
	ff ff		 mov	 ax, WORD PTR _ndxD$86032[ebp]
  03186	66 89 04 51	 mov	 WORD PTR [ecx+edx*2], ax
  0318a	8b 8d fc fd ff
	ff		 mov	 ecx, DWORD PTR _nCurIndex$[ebp]
  03190	83 c1 01	 add	 ecx, 1
  03193	89 8d fc fd ff
	ff		 mov	 DWORD PTR _nCurIndex$[ebp], ecx
  03199	0f b7 85 3c fc
	ff ff		 movzx	 eax, WORD PTR _ndxD$86032[ebp]
  031a0	50		 push	 eax
  031a1	0f b7 8d 54 fc
	ff ff		 movzx	 ecx, WORD PTR _ndxB$86030[ebp]
  031a8	51		 push	 ecx
  031a9	0f b7 95 60 fc
	ff ff		 movzx	 edx, WORD PTR _ndxA$86029[ebp]
  031b0	52		 push	 edx
  031b1	8b 45 18	 mov	 eax, DWORD PTR _pRO$[ebp]
  031b4	50		 push	 eax
  031b5	8b 4d f8	 mov	 ecx, DWORD PTR _this$[ebp]
  031b8	e8 00 00 00 00	 call	 ?AddFaceNormalData@CTerrainPatch@@QAEXPAVCProceduralRenderObject@@HHH@Z ; CTerrainPatch::AddFaceNormalData

; 836  : 					_ADD_TRIANGLE( ndxB, ndxC, ndxD )

  031bd	8b 45 18	 mov	 eax, DWORD PTR _pRO$[ebp]
  031c0	8b 48 44	 mov	 ecx, DWORD PTR [eax+68]
  031c3	8b 95 fc fd ff
	ff		 mov	 edx, DWORD PTR _nCurIndex$[ebp]
  031c9	66 8b 85 54 fc
	ff ff		 mov	 ax, WORD PTR _ndxB$86030[ebp]
  031d0	66 89 04 51	 mov	 WORD PTR [ecx+edx*2], ax
  031d4	8b 8d fc fd ff
	ff		 mov	 ecx, DWORD PTR _nCurIndex$[ebp]
  031da	83 c1 01	 add	 ecx, 1
  031dd	89 8d fc fd ff
	ff		 mov	 DWORD PTR _nCurIndex$[ebp], ecx
  031e3	8b 45 18	 mov	 eax, DWORD PTR _pRO$[ebp]
  031e6	8b 48 44	 mov	 ecx, DWORD PTR [eax+68]
  031e9	8b 95 fc fd ff
	ff		 mov	 edx, DWORD PTR _nCurIndex$[ebp]
  031ef	66 8b 85 48 fc
	ff ff		 mov	 ax, WORD PTR _ndxC$86031[ebp]
  031f6	66 89 04 51	 mov	 WORD PTR [ecx+edx*2], ax
  031fa	8b 8d fc fd ff
	ff		 mov	 ecx, DWORD PTR _nCurIndex$[ebp]
  03200	83 c1 01	 add	 ecx, 1
  03203	89 8d fc fd ff
	ff		 mov	 DWORD PTR _nCurIndex$[ebp], ecx
  03209	8b 45 18	 mov	 eax, DWORD PTR _pRO$[ebp]
  0320c	8b 48 44	 mov	 ecx, DWORD PTR [eax+68]
  0320f	8b 95 fc fd ff
	ff		 mov	 edx, DWORD PTR _nCurIndex$[ebp]
  03215	66 8b 85 3c fc
	ff ff		 mov	 ax, WORD PTR _ndxD$86032[ebp]
  0321c	66 89 04 51	 mov	 WORD PTR [ecx+edx*2], ax
  03220	8b 8d fc fd ff
	ff		 mov	 ecx, DWORD PTR _nCurIndex$[ebp]
  03226	83 c1 01	 add	 ecx, 1
  03229	89 8d fc fd ff
	ff		 mov	 DWORD PTR _nCurIndex$[ebp], ecx
  0322f	0f b7 85 3c fc
	ff ff		 movzx	 eax, WORD PTR _ndxD$86032[ebp]
  03236	50		 push	 eax
  03237	0f b7 8d 48 fc
	ff ff		 movzx	 ecx, WORD PTR _ndxC$86031[ebp]
  0323e	51		 push	 ecx
  0323f	0f b7 95 54 fc
	ff ff		 movzx	 edx, WORD PTR _ndxB$86030[ebp]
  03246	52		 push	 edx
  03247	8b 45 18	 mov	 eax, DWORD PTR _pRO$[ebp]
  0324a	50		 push	 eax
  0324b	8b 4d f8	 mov	 ecx, DWORD PTR _this$[ebp]
  0324e	e8 00 00 00 00	 call	 ?AddFaceNormalData@CTerrainPatch@@QAEXPAVCProceduralRenderObject@@HHH@Z ; CTerrainPatch::AddFaceNormalData

; 837  : 					pRO->m_ntvRS[0].dwSS_PrimCount[DS_LEFT_EDGE_LODPLUS1] += 2 ;

  03253	8b 45 18	 mov	 eax, DWORD PTR _pRO$[ebp]
  03256	8b 88 60 01 00
	00		 mov	 ecx, DWORD PTR [eax+352]
  0325c	83 c1 02	 add	 ecx, 2
  0325f	8b 55 18	 mov	 edx, DWORD PTR _pRO$[ebp]
  03262	89 8a 60 01 00
	00		 mov	 DWORD PTR [edx+352], ecx

; 838  : 					_MAINTAIN_MIN_MAX_INDEX_ATOD( ndxA, ndxB, ndxC, ndxD, DS_LEFT_EDGE_LODPLUS1 )

  03268	0f b7 85 60 fc
	ff ff		 movzx	 eax, WORD PTR _ndxA$86029[ebp]
  0326f	8b 4d 18	 mov	 ecx, DWORD PTR _pRO$[ebp]
  03272	3b 81 c0 00 00
	00		 cmp	 eax, DWORD PTR [ecx+192]
  03278	73 10		 jae	 SHORT $L86033
  0327a	0f b7 85 60 fc
	ff ff		 movzx	 eax, WORD PTR _ndxA$86029[ebp]
  03281	8b 4d 18	 mov	 ecx, DWORD PTR _pRO$[ebp]
  03284	89 81 c0 00 00
	00		 mov	 DWORD PTR [ecx+192], eax
$L86033:
  0328a	0f b7 85 54 fc
	ff ff		 movzx	 eax, WORD PTR _ndxB$86030[ebp]
  03291	8b 4d 18	 mov	 ecx, DWORD PTR _pRO$[ebp]
  03294	3b 81 c0 00 00
	00		 cmp	 eax, DWORD PTR [ecx+192]
  0329a	73 10		 jae	 SHORT $L86034
  0329c	0f b7 85 54 fc
	ff ff		 movzx	 eax, WORD PTR _ndxB$86030[ebp]
  032a3	8b 4d 18	 mov	 ecx, DWORD PTR _pRO$[ebp]
  032a6	89 81 c0 00 00
	00		 mov	 DWORD PTR [ecx+192], eax
$L86034:
  032ac	0f b7 85 48 fc
	ff ff		 movzx	 eax, WORD PTR _ndxC$86031[ebp]
  032b3	8b 4d 18	 mov	 ecx, DWORD PTR _pRO$[ebp]
  032b6	3b 81 c0 00 00
	00		 cmp	 eax, DWORD PTR [ecx+192]
  032bc	73 10		 jae	 SHORT $L86035
  032be	0f b7 85 48 fc
	ff ff		 movzx	 eax, WORD PTR _ndxC$86031[ebp]
  032c5	8b 4d 18	 mov	 ecx, DWORD PTR _pRO$[ebp]
  032c8	89 81 c0 00 00
	00		 mov	 DWORD PTR [ecx+192], eax
$L86035:
  032ce	0f b7 85 3c fc
	ff ff		 movzx	 eax, WORD PTR _ndxD$86032[ebp]
  032d5	8b 4d 18	 mov	 ecx, DWORD PTR _pRO$[ebp]
  032d8	3b 81 c0 00 00
	00		 cmp	 eax, DWORD PTR [ecx+192]
  032de	73 10		 jae	 SHORT $L86036
  032e0	0f b7 85 3c fc
	ff ff		 movzx	 eax, WORD PTR _ndxD$86032[ebp]
  032e7	8b 4d 18	 mov	 ecx, DWORD PTR _pRO$[ebp]
  032ea	89 81 c0 00 00
	00		 mov	 DWORD PTR [ecx+192], eax
$L86036:
  032f0	0f b7 85 60 fc
	ff ff		 movzx	 eax, WORD PTR _ndxA$86029[ebp]
  032f7	8b 4d 18	 mov	 ecx, DWORD PTR _pRO$[ebp]
  032fa	3b 81 e8 00 00
	00		 cmp	 eax, DWORD PTR [ecx+232]
  03300	76 10		 jbe	 SHORT $L86037
  03302	0f b7 85 60 fc
	ff ff		 movzx	 eax, WORD PTR _ndxA$86029[ebp]
  03309	8b 4d 18	 mov	 ecx, DWORD PTR _pRO$[ebp]
  0330c	89 81 e8 00 00
	00		 mov	 DWORD PTR [ecx+232], eax
$L86037:
  03312	0f b7 85 54 fc
	ff ff		 movzx	 eax, WORD PTR _ndxB$86030[ebp]
  03319	8b 4d 18	 mov	 ecx, DWORD PTR _pRO$[ebp]
  0331c	3b 81 e8 00 00
	00		 cmp	 eax, DWORD PTR [ecx+232]
  03322	76 10		 jbe	 SHORT $L86038
  03324	0f b7 85 54 fc
	ff ff		 movzx	 eax, WORD PTR _ndxB$86030[ebp]
  0332b	8b 4d 18	 mov	 ecx, DWORD PTR _pRO$[ebp]
  0332e	89 81 e8 00 00
	00		 mov	 DWORD PTR [ecx+232], eax
$L86038:
  03334	0f b7 85 48 fc
	ff ff		 movzx	 eax, WORD PTR _ndxC$86031[ebp]
  0333b	8b 4d 18	 mov	 ecx, DWORD PTR _pRO$[ebp]
  0333e	3b 81 e8 00 00
	00		 cmp	 eax, DWORD PTR [ecx+232]
  03344	76 10		 jbe	 SHORT $L86039
  03346	0f b7 85 48 fc
	ff ff		 movzx	 eax, WORD PTR _ndxC$86031[ebp]
  0334d	8b 4d 18	 mov	 ecx, DWORD PTR _pRO$[ebp]
  03350	89 81 e8 00 00
	00		 mov	 DWORD PTR [ecx+232], eax
$L86039:
  03356	0f b7 85 3c fc
	ff ff		 movzx	 eax, WORD PTR _ndxD$86032[ebp]
  0335d	8b 4d 18	 mov	 ecx, DWORD PTR _pRO$[ebp]
  03360	3b 81 e8 00 00
	00		 cmp	 eax, DWORD PTR [ecx+232]
  03366	76 10		 jbe	 SHORT $L86028
  03368	0f b7 85 3c fc
	ff ff		 movzx	 eax, WORD PTR _ndxD$86032[ebp]
  0336f	8b 4d 18	 mov	 ecx, DWORD PTR _pRO$[ebp]
  03372	89 81 e8 00 00
	00		 mov	 DWORD PTR [ecx+232], eax
$L86028:

; 839  : 				}
; 840  : 				if (nRow == nPatchSQ - 1)

  03378	8b 45 08	 mov	 eax, DWORD PTR _nPatchSQ$[ebp]
  0337b	83 e8 01	 sub	 eax, 1
  0337e	39 85 14 fd ff
	ff		 cmp	 DWORD PTR _nRow$85979[ebp], eax
  03384	0f 85 c9 02 00
	00		 jne	 $L86041

; 841  : 				{ // bottom corner
; 842  : 					WORD ndxA, ndxB, ndxC, ndxD ;
; 843  : 					ndxA = _ROWCOLTOINDEX( nRow + 1, nCol - 1 )

  0338a	8b 85 14 fd ff
	ff		 mov	 eax, DWORD PTR _nRow$85979[ebp]
  03390	83 c0 01	 add	 eax, 1
  03393	8b 4d 08	 mov	 ecx, DWORD PTR _nPatchSQ$[ebp]
  03396	83 c1 01	 add	 ecx, 1
  03399	0f af c1	 imul	 eax, ecx
  0339c	8b 95 08 fd ff
	ff		 mov	 edx, DWORD PTR _nCol$85980[ebp]
  033a2	8d 44 10 ff	 lea	 eax, DWORD PTR [eax+edx-1]
  033a6	66 89 85 30 fc
	ff ff		 mov	 WORD PTR _ndxA$86042[ebp], ax

; 844  : 					ndxB = nVerts + nPatchSQ + nPatchSQ - 1 ;

  033ad	8b 45 a4	 mov	 eax, DWORD PTR _nVerts$[ebp]
  033b0	03 45 08	 add	 eax, DWORD PTR _nPatchSQ$[ebp]
  033b3	8b 4d 08	 mov	 ecx, DWORD PTR _nPatchSQ$[ebp]
  033b6	8d 54 08 ff	 lea	 edx, DWORD PTR [eax+ecx-1]
  033ba	66 89 95 24 fc
	ff ff		 mov	 WORD PTR _ndxB$86043[ebp], dx

; 845  : 					ndxC = _ROWCOLTOINDEX( nRow    , nCol - 1 )

  033c1	8b 45 08	 mov	 eax, DWORD PTR _nPatchSQ$[ebp]
  033c4	83 c0 01	 add	 eax, 1
  033c7	8b 8d 14 fd ff
	ff		 mov	 ecx, DWORD PTR _nRow$85979[ebp]
  033cd	0f af c8	 imul	 ecx, eax
  033d0	8b 95 08 fd ff
	ff		 mov	 edx, DWORD PTR _nCol$85980[ebp]
  033d6	8d 44 11 ff	 lea	 eax, DWORD PTR [ecx+edx-1]
  033da	66 89 85 18 fc
	ff ff		 mov	 WORD PTR _ndxC$86044[ebp], ax

; 846  : 					ndxD = _ROWCOLTOINDEX( nRow    , nCol	  )

  033e1	8b 45 08	 mov	 eax, DWORD PTR _nPatchSQ$[ebp]
  033e4	83 c0 01	 add	 eax, 1
  033e7	8b 8d 14 fd ff
	ff		 mov	 ecx, DWORD PTR _nRow$85979[ebp]
  033ed	0f af c8	 imul	 ecx, eax
  033f0	03 8d 08 fd ff
	ff		 add	 ecx, DWORD PTR _nCol$85980[ebp]
  033f6	66 89 8d 0c fc
	ff ff		 mov	 WORD PTR _ndxD$86045[ebp], cx

; 847  : 					_ADD_TRIANGLE( ndxA, ndxB, ndxD )

  033fd	8b 45 18	 mov	 eax, DWORD PTR _pRO$[ebp]
  03400	8b 48 44	 mov	 ecx, DWORD PTR [eax+68]
  03403	8b 95 fc fd ff
	ff		 mov	 edx, DWORD PTR _nCurIndex$[ebp]
  03409	66 8b 85 30 fc
	ff ff		 mov	 ax, WORD PTR _ndxA$86042[ebp]
  03410	66 89 04 51	 mov	 WORD PTR [ecx+edx*2], ax
  03414	8b 8d fc fd ff
	ff		 mov	 ecx, DWORD PTR _nCurIndex$[ebp]
  0341a	83 c1 01	 add	 ecx, 1
  0341d	89 8d fc fd ff
	ff		 mov	 DWORD PTR _nCurIndex$[ebp], ecx
  03423	8b 45 18	 mov	 eax, DWORD PTR _pRO$[ebp]
  03426	8b 48 44	 mov	 ecx, DWORD PTR [eax+68]
  03429	8b 95 fc fd ff
	ff		 mov	 edx, DWORD PTR _nCurIndex$[ebp]
  0342f	66 8b 85 24 fc
	ff ff		 mov	 ax, WORD PTR _ndxB$86043[ebp]
  03436	66 89 04 51	 mov	 WORD PTR [ecx+edx*2], ax
  0343a	8b 8d fc fd ff
	ff		 mov	 ecx, DWORD PTR _nCurIndex$[ebp]
  03440	83 c1 01	 add	 ecx, 1
  03443	89 8d fc fd ff
	ff		 mov	 DWORD PTR _nCurIndex$[ebp], ecx
  03449	8b 45 18	 mov	 eax, DWORD PTR _pRO$[ebp]
  0344c	8b 48 44	 mov	 ecx, DWORD PTR [eax+68]
  0344f	8b 95 fc fd ff
	ff		 mov	 edx, DWORD PTR _nCurIndex$[ebp]
  03455	66 8b 85 0c fc
	ff ff		 mov	 ax, WORD PTR _ndxD$86045[ebp]
  0345c	66 89 04 51	 mov	 WORD PTR [ecx+edx*2], ax
  03460	8b 8d fc fd ff
	ff		 mov	 ecx, DWORD PTR _nCurIndex$[ebp]
  03466	83 c1 01	 add	 ecx, 1
  03469	89 8d fc fd ff
	ff		 mov	 DWORD PTR _nCurIndex$[ebp], ecx
  0346f	0f b7 85 0c fc
	ff ff		 movzx	 eax, WORD PTR _ndxD$86045[ebp]
  03476	50		 push	 eax
  03477	0f b7 8d 24 fc
	ff ff		 movzx	 ecx, WORD PTR _ndxB$86043[ebp]
  0347e	51		 push	 ecx
  0347f	0f b7 95 30 fc
	ff ff		 movzx	 edx, WORD PTR _ndxA$86042[ebp]
  03486	52		 push	 edx
  03487	8b 45 18	 mov	 eax, DWORD PTR _pRO$[ebp]
  0348a	50		 push	 eax
  0348b	8b 4d f8	 mov	 ecx, DWORD PTR _this$[ebp]
  0348e	e8 00 00 00 00	 call	 ?AddFaceNormalData@CTerrainPatch@@QAEXPAVCProceduralRenderObject@@HHH@Z ; CTerrainPatch::AddFaceNormalData

; 848  : 					_ADD_TRIANGLE( ndxB, ndxC, ndxD )

  03493	8b 45 18	 mov	 eax, DWORD PTR _pRO$[ebp]
  03496	8b 48 44	 mov	 ecx, DWORD PTR [eax+68]
  03499	8b 95 fc fd ff
	ff		 mov	 edx, DWORD PTR _nCurIndex$[ebp]
  0349f	66 8b 85 24 fc
	ff ff		 mov	 ax, WORD PTR _ndxB$86043[ebp]
  034a6	66 89 04 51	 mov	 WORD PTR [ecx+edx*2], ax
  034aa	8b 8d fc fd ff
	ff		 mov	 ecx, DWORD PTR _nCurIndex$[ebp]
  034b0	83 c1 01	 add	 ecx, 1
  034b3	89 8d fc fd ff
	ff		 mov	 DWORD PTR _nCurIndex$[ebp], ecx
  034b9	8b 45 18	 mov	 eax, DWORD PTR _pRO$[ebp]
  034bc	8b 48 44	 mov	 ecx, DWORD PTR [eax+68]
  034bf	8b 95 fc fd ff
	ff		 mov	 edx, DWORD PTR _nCurIndex$[ebp]
  034c5	66 8b 85 18 fc
	ff ff		 mov	 ax, WORD PTR _ndxC$86044[ebp]
  034cc	66 89 04 51	 mov	 WORD PTR [ecx+edx*2], ax
  034d0	8b 8d fc fd ff
	ff		 mov	 ecx, DWORD PTR _nCurIndex$[ebp]
  034d6	83 c1 01	 add	 ecx, 1
  034d9	89 8d fc fd ff
	ff		 mov	 DWORD PTR _nCurIndex$[ebp], ecx
  034df	8b 45 18	 mov	 eax, DWORD PTR _pRO$[ebp]
  034e2	8b 48 44	 mov	 ecx, DWORD PTR [eax+68]
  034e5	8b 95 fc fd ff
	ff		 mov	 edx, DWORD PTR _nCurIndex$[ebp]
  034eb	66 8b 85 0c fc
	ff ff		 mov	 ax, WORD PTR _ndxD$86045[ebp]
  034f2	66 89 04 51	 mov	 WORD PTR [ecx+edx*2], ax
  034f6	8b 8d fc fd ff
	ff		 mov	 ecx, DWORD PTR _nCurIndex$[ebp]
  034fc	83 c1 01	 add	 ecx, 1
  034ff	89 8d fc fd ff
	ff		 mov	 DWORD PTR _nCurIndex$[ebp], ecx
  03505	0f b7 85 0c fc
	ff ff		 movzx	 eax, WORD PTR _ndxD$86045[ebp]
  0350c	50		 push	 eax
  0350d	0f b7 8d 18 fc
	ff ff		 movzx	 ecx, WORD PTR _ndxC$86044[ebp]
  03514	51		 push	 ecx
  03515	0f b7 95 24 fc
	ff ff		 movzx	 edx, WORD PTR _ndxB$86043[ebp]
  0351c	52		 push	 edx
  0351d	8b 45 18	 mov	 eax, DWORD PTR _pRO$[ebp]
  03520	50		 push	 eax
  03521	8b 4d f8	 mov	 ecx, DWORD PTR _this$[ebp]
  03524	e8 00 00 00 00	 call	 ?AddFaceNormalData@CTerrainPatch@@QAEXPAVCProceduralRenderObject@@HHH@Z ; CTerrainPatch::AddFaceNormalData

; 849  : 					pRO->m_ntvRS[0].dwSS_PrimCount[DS_LEFT_EDGE_LODPLUS1] += 2 ;

  03529	8b 45 18	 mov	 eax, DWORD PTR _pRO$[ebp]
  0352c	8b 88 60 01 00
	00		 mov	 ecx, DWORD PTR [eax+352]
  03532	83 c1 02	 add	 ecx, 2
  03535	8b 55 18	 mov	 edx, DWORD PTR _pRO$[ebp]
  03538	89 8a 60 01 00
	00		 mov	 DWORD PTR [edx+352], ecx

; 850  : 					_MAINTAIN_MIN_MAX_INDEX_ATOD( ndxA, ndxB, ndxC, ndxD, DS_LEFT_EDGE_LODPLUS1 )

  0353e	0f b7 85 30 fc
	ff ff		 movzx	 eax, WORD PTR _ndxA$86042[ebp]
  03545	8b 4d 18	 mov	 ecx, DWORD PTR _pRO$[ebp]
  03548	3b 81 c0 00 00
	00		 cmp	 eax, DWORD PTR [ecx+192]
  0354e	73 10		 jae	 SHORT $L86046
  03550	0f b7 85 30 fc
	ff ff		 movzx	 eax, WORD PTR _ndxA$86042[ebp]
  03557	8b 4d 18	 mov	 ecx, DWORD PTR _pRO$[ebp]
  0355a	89 81 c0 00 00
	00		 mov	 DWORD PTR [ecx+192], eax
$L86046:
  03560	0f b7 85 24 fc
	ff ff		 movzx	 eax, WORD PTR _ndxB$86043[ebp]
  03567	8b 4d 18	 mov	 ecx, DWORD PTR _pRO$[ebp]
  0356a	3b 81 c0 00 00
	00		 cmp	 eax, DWORD PTR [ecx+192]
