; Listing generated by Microsoft (R) Optimizing Compiler Version 13.00.9466 

	TITLE	CTextures.cpp
	.386P
include listing.inc
if @Version gt 510
.model FLAT
else
_TEXT	SEGMENT PARA USE32 PUBLIC 'CODE'
_TEXT	ENDS
_DATA	SEGMENT DWORD USE32 PUBLIC 'DATA'
_DATA	ENDS
CONST	SEGMENT DWORD USE32 PUBLIC 'CONST'
CONST	ENDS
_BSS	SEGMENT DWORD USE32 PUBLIC 'BSS'
_BSS	ENDS
$$SYMBOLS	SEGMENT BYTE USE32 'DEBSYM'
$$SYMBOLS	ENDS
$$TYPES	SEGMENT BYTE USE32 'DEBTYP'
$$TYPES	ENDS
_TLS	SEGMENT DWORD USE32 PUBLIC 'TLS'
_TLS	ENDS
;	COMDAT ??_C@_0BI@JLFJGFBF@Misc?4?5Texture?5?$CFd?5?$FLof?55?$FN?$AA@
CONST	SEGMENT DWORD USE32 PUBLIC 'CONST'
CONST	ENDS
;	COMDAT ??_C@_0BO@FJFNHDAK@?4?4?2Resource?2tex?2misc?2?$CF03d?4DDS?$AA@
CONST	SEGMENT DWORD USE32 PUBLIC 'CONST'
CONST	ENDS
;	COMDAT ??_C@_0CD@DADLDDK@Potential?5User?9Error?3?6?6FAIL?3?5tex@
CONST	SEGMENT DWORD USE32 PUBLIC 'CONST'
CONST	ENDS
;	COMDAT ??_C@_03NNBHCDBP@day?$AA@
CONST	SEGMENT DWORD USE32 PUBLIC 'CONST'
CONST	ENDS
;	COMDAT ??_C@_04NJDAONKE@dusk?$AA@
CONST	SEGMENT DWORD USE32 PUBLIC 'CONST'
CONST	ENDS
;	COMDAT ??_C@_05EDIHMMJK@night?$AA@
CONST	SEGMENT DWORD USE32 PUBLIC 'CONST'
CONST	ENDS
;	COMDAT ??_C@_0BG@ILPHBHLA@Sky?5Texture?5?$CFd?5?$FLof?56?$FN?$AA@
CONST	SEGMENT DWORD USE32 PUBLIC 'CONST'
CONST	ENDS
;	COMDAT ??_C@_0CJ@FBDKGMDL@?4?4?2Resource?2tex?2sky?2?$CFs?2?$CF03d?2?$CF03d@
CONST	SEGMENT DWORD USE32 PUBLIC 'CONST'
CONST	ENDS
;	COMDAT ??_C@_0CD@CICOOAPJ@Potential?5User?9Error?3?6?6FAIL?3?5tex@
CONST	SEGMENT DWORD USE32 PUBLIC 'CONST'
CONST	ENDS
;	COMDAT ??_C@_0BK@OFPNPPNC@Terrain?5Texture?5?$CFd?5?$FLof?52?$FN?$AA@
CONST	SEGMENT DWORD USE32 PUBLIC 'CONST'
CONST	ENDS
;	COMDAT ??_C@_0CB@INEOILMH@?4?4?2Resource?2tex?2terrain?2?$CF03d?4DDS@
CONST	SEGMENT DWORD USE32 PUBLIC 'CONST'
CONST	ENDS
;	COMDAT ??_C@_0CD@DBDFNBLI@Potential?5User?9Error?3?6?6FAIL?3?5tex@
CONST	SEGMENT DWORD USE32 PUBLIC 'CONST'
CONST	ENDS
;	COMDAT ??_C@_0BG@OCDHMENI@HUD?5Texture?5?$CFd?5?$FLof?54?$FN?$AA@
CONST	SEGMENT DWORD USE32 PUBLIC 'CONST'
CONST	ENDS
;	COMDAT ??_C@_0BN@DAJEKCHB@?4?4?2Resource?2tex?2HUD?2?$CF03d?4DDS?$AA@
CONST	SEGMENT DWORD USE32 PUBLIC 'CONST'
CONST	ENDS
;	COMDAT ??_C@_0CD@GHGPHGDO@Potential?5User?9Error?3?6?6FAIL?3?5tex@
CONST	SEGMENT DWORD USE32 PUBLIC 'CONST'
CONST	ENDS
;	COMDAT ??_C@_0BN@JDJJKADN@Explosion?5Texture?5?$CFd?5?$FLof?518?$FN?$AA@
CONST	SEGMENT DWORD USE32 PUBLIC 'CONST'
CONST	ENDS
;	COMDAT ??_C@_0CA@BEDMNCGE@?4?4?2Resource?2tex?2exp?2exp?$CF02d?4DDS?$AA@
CONST	SEGMENT DWORD USE32 PUBLIC 'CONST'
CONST	ENDS
;	COMDAT ??_C@_0CD@EMECCFPN@Potential?5User?9Error?3?6?6FAIL?3?5tex@
CONST	SEGMENT DWORD USE32 PUBLIC 'CONST'
CONST	ENDS
;	COMDAT ??_C@_0CA@GDPKJFAK@Explosion?$CI2?$CJ?5Texture?5?$CFd?5?$FLof?535?$FN?$AA@
CONST	SEGMENT DWORD USE32 PUBLIC 'CONST'
CONST	ENDS
;	COMDAT ??_C@_0CG@EPKPHDKO@?4?4?2Resource?2tex?2exp2?2expl?$CF03d?4bm@
CONST	SEGMENT DWORD USE32 PUBLIC 'CONST'
CONST	ENDS
;	COMDAT ??_C@_0CD@FFFJBELM@Potential?5User?9Error?3?6?6FAIL?3?5tex@
CONST	SEGMENT DWORD USE32 PUBLIC 'CONST'
CONST	ENDS
;	COMDAT ??_C@_0BL@EHNGCHLM@Caustic?5Texture?5?$CFd?5?$FLof?532?$FN?$AA@
CONST	SEGMENT DWORD USE32 PUBLIC 'CONST'
CONST	ENDS
;	COMDAT ??_C@_0CG@FDJAMMPN@?4?4?2Resource?2tex?2caustic?2caust?$CF02@
CONST	SEGMENT DWORD USE32 PUBLIC 'CONST'
CONST	ENDS
;	COMDAT ??_C@_0CD@NCMBAIHD@Potential?5User?9Error?3?6?6FAIL?3?5tex@
CONST	SEGMENT DWORD USE32 PUBLIC 'CONST'
CONST	ENDS
;	COMDAT ??_C@_0BO@CCOHJCCO@Caustic?$CI2?$CJ?5Texture?5?$CFd?5?$FLof?532?$FN?$AA@
CONST	SEGMENT DWORD USE32 PUBLIC 'CONST'
CONST	ENDS
;	COMDAT ??_C@_0CK@ODLLHFCI@?4?4?2Resource?2tex?2caustic2?2caus?$CF02@
CONST	SEGMENT DWORD USE32 PUBLIC 'CONST'
CONST	ENDS
;	COMDAT ??_C@_0CD@MLNKDJDC@Potential?5User?9Error?3?6?6FAIL?3?5tex@
CONST	SEGMENT DWORD USE32 PUBLIC 'CONST'
CONST	ENDS
;	COMDAT ??_C@_0BM@BAJPFFIL@Spherical?5Texture?5?$CFd?5?$FLof?51?$FN?$AA@
CONST	SEGMENT DWORD USE32 PUBLIC 'CONST'
CONST	ENDS
;	COMDAT ??_C@_0CA@FIALCECN@?4?4?2Resource?2tex?2sphere?2?$CF03d?4dds?$AA@
CONST	SEGMENT DWORD USE32 PUBLIC 'CONST'
CONST	ENDS
;	COMDAT ??_C@_0CE@BJEJOMPC@Potential?5User?9Error?3?6?6FAIL?3?5tex@
CONST	SEGMENT DWORD USE32 PUBLIC 'CONST'
CONST	ENDS
;	COMDAT ??_C@_0BL@IFCFACLI@Particle?5Texture?5?$CFd?5?$FLof?53?$FN?$AA@
CONST	SEGMENT DWORD USE32 PUBLIC 'CONST'
CONST	ENDS
;	COMDAT ??_C@_0CC@JFHOOHPL@?4?4?2Resource?2tex?2particle?2?$CF03d?4dd@
CONST	SEGMENT DWORD USE32 PUBLIC 'CONST'
CONST	ENDS
;	COMDAT ??_C@_0CE@FCNNLD@Potential?5User?9Error?3?6?6FAIL?3?5tex@
CONST	SEGMENT DWORD USE32 PUBLIC 'CONST'
CONST	ENDS
;	COMDAT ??_C@_0CB@GOIPGDEE@CTextures?3?3RestoreDeviceObjects?6@
CONST	SEGMENT DWORD USE32 PUBLIC 'CONST'
CONST	ENDS
;	COMDAT ??_C@_0M@GNFDLDGE@m_pTextures?$AA@
CONST	SEGMENT DWORD USE32 PUBLIC 'CONST'
CONST	ENDS
;	COMDAT _IsEqualGUID
_TEXT	SEGMENT PARA USE32 PUBLIC 'CODE'
_TEXT	ENDS
;	COMDAT _==
_TEXT	SEGMENT PARA USE32 PUBLIC 'CODE'
_TEXT	ENDS
;	COMDAT _sqrtf
_TEXT	SEGMENT PARA USE32 PUBLIC 'CODE'
_TEXT	ENDS
;	COMDAT ??0D3DXVECTOR3@@QAE@XZ
_TEXT	SEGMENT PARA USE32 PUBLIC 'CODE'
_TEXT	ENDS
;	COMDAT ??0D3DXMATRIX@@QAE@XZ
_TEXT	SEGMENT PARA USE32 PUBLIC 'CODE'
_TEXT	ENDS
;	COMDAT ??0D3DXQUATERNION@@QAE@XZ
_TEXT	SEGMENT PARA USE32 PUBLIC 'CODE'
_TEXT	ENDS
;	COMDAT ??0D3DXVECTOR2@@QAE@MM@Z
_TEXT	SEGMENT PARA USE32 PUBLIC 'CODE'
_TEXT	ENDS
;	COMDAT ??0D3DXVECTOR3@@QAE@MMM@Z
_TEXT	SEGMENT PARA USE32 PUBLIC 'CODE'
_TEXT	ENDS
;	COMDAT ??0D3DXVECTOR4@@QAE@MMMM@Z
_TEXT	SEGMENT PARA USE32 PUBLIC 'CODE'
_TEXT	ENDS
;	COMDAT ??0D3DXMATRIX@@QAE@PBM@Z
_TEXT	SEGMENT PARA USE32 PUBLIC 'CODE'
_TEXT	ENDS
;	COMDAT ??0D3DXMATRIX@@QAE@ABU_D3DMATRIX@@@Z
_TEXT	SEGMENT PARA USE32 PUBLIC 'CODE'
_TEXT	ENDS
;	COMDAT ??0D3DXMATRIX@@QAE@MMMMMMMMMMMMMMMM@Z
_TEXT	SEGMENT PARA USE32 PUBLIC 'CODE'
_TEXT	ENDS
;	COMDAT ??0D3DXQUATERNION@@QAE@MMMM@Z
_TEXT	SEGMENT PARA USE32 PUBLIC 'CODE'
_TEXT	ENDS
;	COMDAT ??0D3DXPLANE@@QAE@MMMM@Z
_TEXT	SEGMENT PARA USE32 PUBLIC 'CODE'
_TEXT	ENDS
;	COMDAT ??0D3DXCOLOR@@QAE@MMMM@Z
_TEXT	SEGMENT PARA USE32 PUBLIC 'CODE'
_TEXT	ENDS
;	COMDAT ??0CTextures@@QAE@PAD0W4e_LightingType@@HHH@Z
_TEXT	SEGMENT PARA USE32 PUBLIC 'CODE'
_TEXT	ENDS
;	COMDAT ??1CTextures@@QAE@XZ
_TEXT	SEGMENT PARA USE32 PUBLIC 'CODE'
_TEXT	ENDS
;	COMDAT ?LoadAllTex@CTextures@@QAEJPAUIDirect3DDevice8@@@Z
_TEXT	SEGMENT PARA USE32 PUBLIC 'CODE'
_TEXT	ENDS
;	COMDAT ?RestoreDeviceObjects@CTextures@@QAEJPAUIDirect3D8@@PAUIDirect3DDevice8@@@Z
_TEXT	SEGMENT PARA USE32 PUBLIC 'CODE'
_TEXT	ENDS
;	COMDAT ?InvalidateDeviceObjects@CTextures@@QAEJXZ
_TEXT	SEGMENT PARA USE32 PUBLIC 'CODE'
_TEXT	ENDS
FLAT	GROUP _DATA, CONST, _BSS
	ASSUME	CS: FLAT, DS: FLAT, SS: FLAT
endif

INCLUDELIB LIBCMTD
INCLUDELIB OLDNAMES

PUBLIC	??0CTextures@@QAE@PAD0W4e_LightingType@@HHH@Z	; CTextures::CTextures
EXTRN	__RTC_InitBase:NEAR
EXTRN	__RTC_Shutdown:NEAR
;	COMDAT rtc$IMZ
; File c:\documents and settings\dom\my documents\_dev\ae\xlr8a\x7g\ctextures.cpp
rtc$IMZ	SEGMENT
__RTC_InitBase.rtc$IMZ DD FLAT:__RTC_InitBase
rtc$IMZ	ENDS
;	COMDAT rtc$TMZ
rtc$TMZ	SEGMENT
__RTC_Shutdown.rtc$TMZ DD FLAT:__RTC_Shutdown
; Function compile flags: /Odt /RTCsu /ZI
rtc$TMZ	ENDS
;	COMDAT ??0CTextures@@QAE@PAD0W4e_LightingType@@HHH@Z
_TEXT	SEGMENT
_i$84923 = -20
_this$ = -8
_pInfo1$ = 8
_pInfo2$ = 12
_ltLevelLightingType$ = 16
_nSkyboxFolder$ = 20
_nLevelTerrainTex1$ = 24
_nLevelTerrainTex2$ = 28
??0CTextures@@QAE@PAD0W4e_LightingType@@HHH@Z PROC NEAR	; CTextures::CTextures, COMDAT
; _this$ = ecx

; 15   : 	{

  00000	55		 push	 ebp
  00001	8b ec		 mov	 ebp, esp
  00003	81 ec d8 00 00
	00		 sub	 esp, 216		; 000000d8H
  00009	53		 push	 ebx
  0000a	56		 push	 esi
  0000b	57		 push	 edi
  0000c	51		 push	 ecx
  0000d	8d bd 28 ff ff
	ff		 lea	 edi, DWORD PTR [ebp-216]
  00013	b9 36 00 00 00	 mov	 ecx, 54			; 00000036H
  00018	b8 cc cc cc cc	 mov	 eax, -858993460		; ccccccccH
  0001d	f3 ab		 rep stosd
  0001f	59		 pop	 ecx
  00020	89 4d f8	 mov	 DWORD PTR _this$[ebp], ecx

; 16   : 		m_pszInfo1 = pInfo1 ;

  00023	8b 45 f8	 mov	 eax, DWORD PTR _this$[ebp]
  00026	8b 4d 08	 mov	 ecx, DWORD PTR _pInfo1$[ebp]
  00029	89 08		 mov	 DWORD PTR [eax], ecx

; 17   : 		m_pszInfo2 = pInfo2 ;

  0002b	8b 45 f8	 mov	 eax, DWORD PTR _this$[ebp]
  0002e	8b 4d 0c	 mov	 ecx, DWORD PTR _pInfo2$[ebp]
  00031	89 48 04	 mov	 DWORD PTR [eax+4], ecx

; 18   : 
; 19   : 		for (unsigned i = 0 ; i < MAX_TEX ; i ++)

  00034	c7 45 ec 00 00
	00 00		 mov	 DWORD PTR _i$84923[ebp], 0
  0003b	eb 09		 jmp	 SHORT $L84924
$L84925:
  0003d	8b 45 ec	 mov	 eax, DWORD PTR _i$84923[ebp]
  00040	83 c0 01	 add	 eax, 1
  00043	89 45 ec	 mov	 DWORD PTR _i$84923[ebp], eax
$L84924:
  00046	81 7d ec 00 04
	00 00		 cmp	 DWORD PTR _i$84923[ebp], 1024 ; 00000400H
  0004d	73 10		 jae	 SHORT $L84926

; 20   : 			m_pTex[i] = NULL ;

  0004f	8b 45 ec	 mov	 eax, DWORD PTR _i$84923[ebp]
  00052	8b 4d f8	 mov	 ecx, DWORD PTR _this$[ebp]
  00055	c7 44 81 1c 00
	00 00 00	 mov	 DWORD PTR [ecx+eax*4+28], 0
  0005d	eb de		 jmp	 SHORT $L84925
$L84926:

; 21   : 		m_nTex = 0 ;

  0005f	8b 45 f8	 mov	 eax, DWORD PTR _this$[ebp]
  00062	c7 40 18 00 00
	00 00		 mov	 DWORD PTR [eax+24], 0

; 22   : 
; 23   : 		m_ltLevelLightingType = ltLevelLightingType ;

  00069	8b 45 f8	 mov	 eax, DWORD PTR _this$[ebp]
  0006c	8b 4d 10	 mov	 ecx, DWORD PTR _ltLevelLightingType$[ebp]
  0006f	89 48 08	 mov	 DWORD PTR [eax+8], ecx

; 24   : 		m_nLevelTerrainTex1 = nLevelTerrainTex1 ;

  00072	8b 45 f8	 mov	 eax, DWORD PTR _this$[ebp]
  00075	8b 4d 18	 mov	 ecx, DWORD PTR _nLevelTerrainTex1$[ebp]
  00078	89 48 0c	 mov	 DWORD PTR [eax+12], ecx

; 25   : 		m_nLevelTerrainTex2 = nLevelTerrainTex2 ;

  0007b	8b 45 f8	 mov	 eax, DWORD PTR _this$[ebp]
  0007e	8b 4d 1c	 mov	 ecx, DWORD PTR _nLevelTerrainTex2$[ebp]
  00081	89 48 10	 mov	 DWORD PTR [eax+16], ecx

; 26   : 		m_nSkyboxFolder = nSkyboxFolder ;

  00084	8b 45 f8	 mov	 eax, DWORD PTR _this$[ebp]
  00087	8b 4d 14	 mov	 ecx, DWORD PTR _nSkyboxFolder$[ebp]
  0008a	89 48 14	 mov	 DWORD PTR [eax+20], ecx

; 27   : 	}

  0008d	8b 45 f8	 mov	 eax, DWORD PTR _this$[ebp]
  00090	5f		 pop	 edi
  00091	5e		 pop	 esi
  00092	5b		 pop	 ebx
  00093	8b e5		 mov	 esp, ebp
  00095	5d		 pop	 ebp
  00096	c2 18 00	 ret	 24			; 00000018H
??0CTextures@@QAE@PAD0W4e_LightingType@@HHH@Z ENDP	; CTextures::CTextures
_TEXT	ENDS
PUBLIC	??1CTextures@@QAE@XZ				; CTextures::~CTextures
PUBLIC	?InvalidateDeviceObjects@CTextures@@QAEJXZ	; CTextures::InvalidateDeviceObjects
EXTRN	__RTC_CheckEsp:NEAR
; Function compile flags: /Odt /RTCsu /ZI
;	COMDAT ??1CTextures@@QAE@XZ
_TEXT	SEGMENT
_this$ = -8
??1CTextures@@QAE@XZ PROC NEAR				; CTextures::~CTextures, COMDAT
; _this$ = ecx

; 29   : 	{

  00000	55		 push	 ebp
  00001	8b ec		 mov	 ebp, esp
  00003	81 ec cc 00 00
	00		 sub	 esp, 204		; 000000ccH
  00009	53		 push	 ebx
  0000a	56		 push	 esi
  0000b	57		 push	 edi
  0000c	51		 push	 ecx
  0000d	8d bd 34 ff ff
	ff		 lea	 edi, DWORD PTR [ebp-204]
  00013	b9 33 00 00 00	 mov	 ecx, 51			; 00000033H
  00018	b8 cc cc cc cc	 mov	 eax, -858993460		; ccccccccH
  0001d	f3 ab		 rep stosd
  0001f	59		 pop	 ecx
  00020	89 4d f8	 mov	 DWORD PTR _this$[ebp], ecx

; 30   : 		InvalidateDeviceObjects() ;

  00023	8b 4d f8	 mov	 ecx, DWORD PTR _this$[ebp]
  00026	e8 00 00 00 00	 call	 ?InvalidateDeviceObjects@CTextures@@QAEJXZ ; CTextures::InvalidateDeviceObjects

; 31   : 	}

  0002b	5f		 pop	 edi
  0002c	5e		 pop	 esi
  0002d	5b		 pop	 ebx
  0002e	81 c4 cc 00 00
	00		 add	 esp, 204		; 000000ccH
  00034	3b ec		 cmp	 ebp, esp
  00036	e8 00 00 00 00	 call	 __RTC_CheckEsp
  0003b	8b e5		 mov	 esp, ebp
  0003d	5d		 pop	 ebp
  0003e	c3		 ret	 0
??1CTextures@@QAE@XZ ENDP				; CTextures::~CTextures
_TEXT	ENDS
PUBLIC	??_C@_0BN@JDJJKADN@Explosion?5Texture?5?$CFd?5?$FLof?518?$FN?$AA@ ; `string'
PUBLIC	??_C@_0CA@BEDMNCGE@?4?4?2Resource?2tex?2exp?2exp?$CF02d?4DDS?$AA@ ; `string'
PUBLIC	??_C@_0CD@EMECCFPN@Potential?5User?9Error?3?6?6FAIL?3?5tex@ ; `string'
PUBLIC	??_C@_0CA@GDPKJFAK@Explosion?$CI2?$CJ?5Texture?5?$CFd?5?$FLof?535?$FN?$AA@ ; `string'
PUBLIC	??_C@_0CG@EPKPHDKO@?4?4?2Resource?2tex?2exp2?2expl?$CF03d?4bm@ ; `string'
PUBLIC	??_C@_0CD@FFFJBELM@Potential?5User?9Error?3?6?6FAIL?3?5tex@ ; `string'
PUBLIC	??_C@_0BL@EHNGCHLM@Caustic?5Texture?5?$CFd?5?$FLof?532?$FN?$AA@ ; `string'
PUBLIC	??_C@_0CG@FDJAMMPN@?4?4?2Resource?2tex?2caustic?2caust?$CF02@ ; `string'
PUBLIC	??_C@_0CD@NCMBAIHD@Potential?5User?9Error?3?6?6FAIL?3?5tex@ ; `string'
PUBLIC	??_C@_0BO@CCOHJCCO@Caustic?$CI2?$CJ?5Texture?5?$CFd?5?$FLof?532?$FN?$AA@ ; `string'
PUBLIC	??_C@_0CK@ODLLHFCI@?4?4?2Resource?2tex?2caustic2?2caus?$CF02@ ; `string'
PUBLIC	??_C@_0CD@MLNKDJDC@Potential?5User?9Error?3?6?6FAIL?3?5tex@ ; `string'
PUBLIC	??_C@_0BM@BAJPFFIL@Spherical?5Texture?5?$CFd?5?$FLof?51?$FN?$AA@ ; `string'
PUBLIC	??_C@_0CA@FIALCECN@?4?4?2Resource?2tex?2sphere?2?$CF03d?4dds?$AA@ ; `string'
PUBLIC	??_C@_0CE@BJEJOMPC@Potential?5User?9Error?3?6?6FAIL?3?5tex@ ; `string'
PUBLIC	??_C@_0BL@IFCFACLI@Particle?5Texture?5?$CFd?5?$FLof?53?$FN?$AA@ ; `string'
PUBLIC	??_C@_0CC@JFHOOHPL@?4?4?2Resource?2tex?2particle?2?$CF03d?4dd@ ; `string'
PUBLIC	??_C@_0CE@FCNNLD@Potential?5User?9Error?3?6?6FAIL?3?5tex@ ; `string'
PUBLIC	?LoadAllTex@CTextures@@QAEJPAUIDirect3DDevice8@@@Z ; CTextures::LoadAllTex
PUBLIC	??_C@_0BI@JLFJGFBF@Misc?4?5Texture?5?$CFd?5?$FLof?55?$FN?$AA@ ; `string'
PUBLIC	??_C@_0BO@FJFNHDAK@?4?4?2Resource?2tex?2misc?2?$CF03d?4DDS?$AA@ ; `string'
PUBLIC	??_C@_0CD@DADLDDK@Potential?5User?9Error?3?6?6FAIL?3?5tex@ ; `string'
PUBLIC	??_C@_03NNBHCDBP@day?$AA@			; `string'
PUBLIC	??_C@_04NJDAONKE@dusk?$AA@			; `string'
PUBLIC	??_C@_05EDIHMMJK@night?$AA@			; `string'
PUBLIC	??_C@_0BG@ILPHBHLA@Sky?5Texture?5?$CFd?5?$FLof?56?$FN?$AA@ ; `string'
PUBLIC	??_C@_0CJ@FBDKGMDL@?4?4?2Resource?2tex?2sky?2?$CFs?2?$CF03d?2?$CF03d@ ; `string'
PUBLIC	??_C@_0CD@CICOOAPJ@Potential?5User?9Error?3?6?6FAIL?3?5tex@ ; `string'
PUBLIC	??_C@_0BK@OFPNPPNC@Terrain?5Texture?5?$CFd?5?$FLof?52?$FN?$AA@ ; `string'
PUBLIC	??_C@_0CB@INEOILMH@?4?4?2Resource?2tex?2terrain?2?$CF03d?4DDS@ ; `string'
PUBLIC	??_C@_0CD@DBDFNBLI@Potential?5User?9Error?3?6?6FAIL?3?5tex@ ; `string'
PUBLIC	??_C@_0BG@OCDHMENI@HUD?5Texture?5?$CFd?5?$FLof?54?$FN?$AA@ ; `string'
PUBLIC	??_C@_0BN@DAJEKCHB@?4?4?2Resource?2tex?2HUD?2?$CF03d?4DDS?$AA@ ; `string'
PUBLIC	??_C@_0CD@GHGPHGDO@Potential?5User?9Error?3?6?6FAIL?3?5tex@ ; `string'
EXTRN	_sprintf:NEAR
EXTRN	___security_cookie:DWORD
EXTRN	@_RTC_CheckStackVars@8:NEAR
EXTRN	@__security_check_cookie@4:NEAR
EXTRN	_D3DXCreateTextureFromFileA@12:NEAR
EXTRN	_strcpy:NEAR
EXTRN	_D3DXCreateTextureFromFileExA@56:NEAR
EXTRN	?Msg@@YAXPAD@Z:NEAR				; Msg
;	COMDAT ??_C@_0BI@JLFJGFBF@Misc?4?5Texture?5?$CFd?5?$FLof?55?$FN?$AA@
CONST	SEGMENT
??_C@_0BI@JLFJGFBF@Misc?4?5Texture?5?$CFd?5?$FLof?55?$FN?$AA@ DB 'Misc. T'
	DB	'exture %d [of 5]', 00H			; `string'
CONST	ENDS
;	COMDAT ??_C@_0BO@FJFNHDAK@?4?4?2Resource?2tex?2misc?2?$CF03d?4DDS?$AA@
CONST	SEGMENT
??_C@_0BO@FJFNHDAK@?4?4?2Resource?2tex?2misc?2?$CF03d?4DDS?$AA@ DB '..\Re'
	DB	'source\tex\misc\%03d.DDS', 00H		; `string'
CONST	ENDS
;	COMDAT ??_C@_0CD@DADLDDK@Potential?5User?9Error?3?6?6FAIL?3?5tex@
CONST	SEGMENT
??_C@_0CD@DADLDDK@Potential?5User?9Error?3?6?6FAIL?3?5tex@ DB 'Potential '
	DB	'User-Error:', 0aH, 0aH, 'FAIL: tex_1', 00H	; `string'
CONST	ENDS
;	COMDAT ??_C@_03NNBHCDBP@day?$AA@
CONST	SEGMENT
??_C@_03NNBHCDBP@day?$AA@ DB 'day', 00H			; `string'
CONST	ENDS
;	COMDAT ??_C@_04NJDAONKE@dusk?$AA@
CONST	SEGMENT
??_C@_04NJDAONKE@dusk?$AA@ DB 'dusk', 00H		; `string'
CONST	ENDS
;	COMDAT ??_C@_05EDIHMMJK@night?$AA@
CONST	SEGMENT
??_C@_05EDIHMMJK@night?$AA@ DB 'night', 00H		; `string'
CONST	ENDS
;	COMDAT ??_C@_0BG@ILPHBHLA@Sky?5Texture?5?$CFd?5?$FLof?56?$FN?$AA@
CONST	SEGMENT
??_C@_0BG@ILPHBHLA@Sky?5Texture?5?$CFd?5?$FLof?56?$FN?$AA@ DB 'Sky Textur'
	DB	'e %d [of 6]', 00H				; `string'
CONST	ENDS
;	COMDAT ??_C@_0CJ@FBDKGMDL@?4?4?2Resource?2tex?2sky?2?$CFs?2?$CF03d?2?$CF03d@
CONST	SEGMENT
??_C@_0CJ@FBDKGMDL@?4?4?2Resource?2tex?2sky?2?$CFs?2?$CF03d?2?$CF03d@ DB '.'
	DB	'.\Resource\tex\sky\%s\%03d\%03d.bmp.DDS', 00H ; `string'
CONST	ENDS
;	COMDAT ??_C@_0CD@CICOOAPJ@Potential?5User?9Error?3?6?6FAIL?3?5tex@
CONST	SEGMENT
??_C@_0CD@CICOOAPJ@Potential?5User?9Error?3?6?6FAIL?3?5tex@ DB 'Potential'
	DB	' User-Error:', 0aH, 0aH, 'FAIL: tex_2', 00H	; `string'
CONST	ENDS
;	COMDAT ??_C@_0BK@OFPNPPNC@Terrain?5Texture?5?$CFd?5?$FLof?52?$FN?$AA@
CONST	SEGMENT
??_C@_0BK@OFPNPPNC@Terrain?5Texture?5?$CFd?5?$FLof?52?$FN?$AA@ DB 'Terrai'
	DB	'n Texture %d [of 2]', 00H			; `string'
CONST	ENDS
;	COMDAT ??_C@_0CB@INEOILMH@?4?4?2Resource?2tex?2terrain?2?$CF03d?4DDS@
CONST	SEGMENT
??_C@_0CB@INEOILMH@?4?4?2Resource?2tex?2terrain?2?$CF03d?4DDS@ DB '..\Res'
	DB	'ource\tex\terrain\%03d.DDS', 00H		; `string'
CONST	ENDS
;	COMDAT ??_C@_0CD@DBDFNBLI@Potential?5User?9Error?3?6?6FAIL?3?5tex@
CONST	SEGMENT
??_C@_0CD@DBDFNBLI@Potential?5User?9Error?3?6?6FAIL?3?5tex@ DB 'Potential'
	DB	' User-Error:', 0aH, 0aH, 'FAIL: tex_3', 00H	; `string'
CONST	ENDS
;	COMDAT ??_C@_0BG@OCDHMENI@HUD?5Texture?5?$CFd?5?$FLof?54?$FN?$AA@
CONST	SEGMENT
??_C@_0BG@OCDHMENI@HUD?5Texture?5?$CFd?5?$FLof?54?$FN?$AA@ DB 'HUD Textur'
	DB	'e %d [of 4]', 00H				; `string'
CONST	ENDS
;	COMDAT ??_C@_0BN@DAJEKCHB@?4?4?2Resource?2tex?2HUD?2?$CF03d?4DDS?$AA@
CONST	SEGMENT
??_C@_0BN@DAJEKCHB@?4?4?2Resource?2tex?2HUD?2?$CF03d?4DDS?$AA@ DB '..\Res'
	DB	'ource\tex\HUD\%03d.DDS', 00H		; `string'
CONST	ENDS
;	COMDAT ??_C@_0CD@GHGPHGDO@Potential?5User?9Error?3?6?6FAIL?3?5tex@
CONST	SEGMENT
??_C@_0CD@GHGPHGDO@Potential?5User?9Error?3?6?6FAIL?3?5tex@ DB 'Potential'
	DB	' User-Error:', 0aH, 0aH, 'FAIL: tex_5', 00H	; `string'
CONST	ENDS
;	COMDAT ??_C@_0BN@JDJJKADN@Explosion?5Texture?5?$CFd?5?$FLof?518?$FN?$AA@
CONST	SEGMENT
??_C@_0BN@JDJJKADN@Explosion?5Texture?5?$CFd?5?$FLof?518?$FN?$AA@ DB 'Exp'
	DB	'losion Texture %d [of 18]', 00H		; `string'
CONST	ENDS
;	COMDAT ??_C@_0CA@BEDMNCGE@?4?4?2Resource?2tex?2exp?2exp?$CF02d?4DDS?$AA@
CONST	SEGMENT
??_C@_0CA@BEDMNCGE@?4?4?2Resource?2tex?2exp?2exp?$CF02d?4DDS?$AA@ DB '..\'
	DB	'Resource\tex\exp\exp%02d.DDS', 00H		; `string'
CONST	ENDS
;	COMDAT ??_C@_0CD@EMECCFPN@Potential?5User?9Error?3?6?6FAIL?3?5tex@
CONST	SEGMENT
??_C@_0CD@EMECCFPN@Potential?5User?9Error?3?6?6FAIL?3?5tex@ DB 'Potential'
	DB	' User-Error:', 0aH, 0aH, 'FAIL: tex_6', 00H	; `string'
CONST	ENDS
;	COMDAT ??_C@_0CA@GDPKJFAK@Explosion?$CI2?$CJ?5Texture?5?$CFd?5?$FLof?535?$FN?$AA@
CONST	SEGMENT
??_C@_0CA@GDPKJFAK@Explosion?$CI2?$CJ?5Texture?5?$CFd?5?$FLof?535?$FN?$AA@ DB 'E'
	DB	'xplosion(2) Texture %d [of 35]', 00H	; `string'
CONST	ENDS
;	COMDAT ??_C@_0CG@EPKPHDKO@?4?4?2Resource?2tex?2exp2?2expl?$CF03d?4bm@
CONST	SEGMENT
??_C@_0CG@EPKPHDKO@?4?4?2Resource?2tex?2exp2?2expl?$CF03d?4bm@ DB '..\Res'
	DB	'ource\tex\exp2\expl%03d.bmp.dds', 00H	; `string'
CONST	ENDS
;	COMDAT ??_C@_0CD@FFFJBELM@Potential?5User?9Error?3?6?6FAIL?3?5tex@
CONST	SEGMENT
??_C@_0CD@FFFJBELM@Potential?5User?9Error?3?6?6FAIL?3?5tex@ DB 'Potential'
	DB	' User-Error:', 0aH, 0aH, 'FAIL: tex_7', 00H	; `string'
CONST	ENDS
;	COMDAT ??_C@_0BL@EHNGCHLM@Caustic?5Texture?5?$CFd?5?$FLof?532?$FN?$AA@
CONST	SEGMENT
??_C@_0BL@EHNGCHLM@Caustic?5Texture?5?$CFd?5?$FLof?532?$FN?$AA@ DB 'Caust'
	DB	'ic Texture %d [of 32]', 00H			; `string'
CONST	ENDS
;	COMDAT ??_C@_0CG@FDJAMMPN@?4?4?2Resource?2tex?2caustic?2caust?$CF02@
CONST	SEGMENT
??_C@_0CG@FDJAMMPN@?4?4?2Resource?2tex?2caustic?2caust?$CF02@ DB '..\Reso'
	DB	'urce\tex\caustic\caust%02d.tga', 00H	; `string'
CONST	ENDS
;	COMDAT ??_C@_0CD@NCMBAIHD@Potential?5User?9Error?3?6?6FAIL?3?5tex@
CONST	SEGMENT
??_C@_0CD@NCMBAIHD@Potential?5User?9Error?3?6?6FAIL?3?5tex@ DB 'Potential'
	DB	' User-Error:', 0aH, 0aH, 'FAIL: tex_8', 00H	; `string'
CONST	ENDS
;	COMDAT ??_C@_0BO@CCOHJCCO@Caustic?$CI2?$CJ?5Texture?5?$CFd?5?$FLof?532?$FN?$AA@
CONST	SEGMENT
??_C@_0BO@CCOHJCCO@Caustic?$CI2?$CJ?5Texture?5?$CFd?5?$FLof?532?$FN?$AA@ DB 'C'
	DB	'austic(2) Texture %d [of 32]', 00H		; `string'
CONST	ENDS
;	COMDAT ??_C@_0CK@ODLLHFCI@?4?4?2Resource?2tex?2caustic2?2caus?$CF02@
CONST	SEGMENT
??_C@_0CK@ODLLHFCI@?4?4?2Resource?2tex?2caustic2?2caus?$CF02@ DB '..\Reso'
	DB	'urce\tex\caustic2\caus%02d.bmp.dds', 00H	; `string'
CONST	ENDS
;	COMDAT ??_C@_0CD@MLNKDJDC@Potential?5User?9Error?3?6?6FAIL?3?5tex@
CONST	SEGMENT
??_C@_0CD@MLNKDJDC@Potential?5User?9Error?3?6?6FAIL?3?5tex@ DB 'Potential'
	DB	' User-Error:', 0aH, 0aH, 'FAIL: tex_9', 00H	; `string'
CONST	ENDS
;	COMDAT ??_C@_0BM@BAJPFFIL@Spherical?5Texture?5?$CFd?5?$FLof?51?$FN?$AA@
CONST	SEGMENT
??_C@_0BM@BAJPFFIL@Spherical?5Texture?5?$CFd?5?$FLof?51?$FN?$AA@ DB 'Sphe'
	DB	'rical Texture %d [of 1]', 00H		; `string'
CONST	ENDS
;	COMDAT ??_C@_0CA@FIALCECN@?4?4?2Resource?2tex?2sphere?2?$CF03d?4dds?$AA@
CONST	SEGMENT
??_C@_0CA@FIALCECN@?4?4?2Resource?2tex?2sphere?2?$CF03d?4dds?$AA@ DB '..\'
	DB	'Resource\tex\sphere\%03d.dds', 00H		; `string'
CONST	ENDS
;	COMDAT ??_C@_0CE@BJEJOMPC@Potential?5User?9Error?3?6?6FAIL?3?5tex@
CONST	SEGMENT
??_C@_0CE@BJEJOMPC@Potential?5User?9Error?3?6?6FAIL?3?5tex@ DB 'Potential'
	DB	' User-Error:', 0aH, 0aH, 'FAIL: tex_10', 00H ; `string'
CONST	ENDS
;	COMDAT ??_C@_0BL@IFCFACLI@Particle?5Texture?5?$CFd?5?$FLof?53?$FN?$AA@
CONST	SEGMENT
??_C@_0BL@IFCFACLI@Particle?5Texture?5?$CFd?5?$FLof?53?$FN?$AA@ DB 'Parti'
	DB	'cle Texture %d [of 3]', 00H			; `string'
CONST	ENDS
;	COMDAT ??_C@_0CC@JFHOOHPL@?4?4?2Resource?2tex?2particle?2?$CF03d?4dd@
CONST	SEGMENT
??_C@_0CC@JFHOOHPL@?4?4?2Resource?2tex?2particle?2?$CF03d?4dd@ DB '..\Res'
	DB	'ource\tex\particle\%03d.dds', 00H		; `string'
CONST	ENDS
;	COMDAT ??_C@_0CE@FCNNLD@Potential?5User?9Error?3?6?6FAIL?3?5tex@
CONST	SEGMENT
??_C@_0CE@FCNNLD@Potential?5User?9Error?3?6?6FAIL?3?5tex@ DB 'Potential U'
	DB	'ser-Error:', 0aH, 0aH, 'FAIL: tex_11', 00H	; `string'
; Function compile flags: /Odt /RTCsu /ZI
CONST	ENDS
;	COMDAT ?LoadAllTex@CTextures@@QAEJPAUIDirect3DDevice8@@@Z
_TEXT	SEGMENT
tv89 = -712
_szSkyboxPath$ = -512
_i$ = -244
_sz$ = -232
_hr$ = -24
_this$ = -12
__$ArrayPad$ = -4
__$ReturnAddr$ = 4
_pDev$ = 8
?LoadAllTex@CTextures@@QAEJPAUIDirect3DDevice8@@@Z PROC NEAR ; CTextures::LoadAllTex, COMDAT
; _this$ = ecx

; 39   : 	{

  00000	55		 push	 ebp
  00001	8b ec		 mov	 ebp, esp
  00003	81 ec c8 02 00
	00		 sub	 esp, 712		; 000002c8H
  00009	53		 push	 ebx
  0000a	56		 push	 esi
  0000b	57		 push	 edi
  0000c	51		 push	 ecx
  0000d	8d bd 38 fd ff
	ff		 lea	 edi, DWORD PTR [ebp-712]
  00013	b9 b2 00 00 00	 mov	 ecx, 178		; 000000b2H
  00018	b8 cc cc cc cc	 mov	 eax, -858993460		; ccccccccH
  0001d	f3 ab		 rep stosd
  0001f	59		 pop	 ecx
  00020	a1 00 00 00 00	 mov	 eax, DWORD PTR ___security_cookie
  00025	33 45 04	 xor	 eax, DWORD PTR __$ReturnAddr$[ebp]
  00028	89 45 fc	 mov	 DWORD PTR __$ArrayPad$[ebp], eax
  0002b	89 4d f4	 mov	 DWORD PTR _this$[ebp], ecx

; 40   : 		HRESULT hr = S_OK ;

  0002e	c7 45 e8 00 00
	00 00		 mov	 DWORD PTR _hr$[ebp], 0

; 41   : 		char sz[200] ;
; 42   : 		int i ;
; 43   : 		
; 44   : 	//
; 45   : 	// Misc. textures:
; 46   : 	//
; 47   : 		for (i = 1 ; i <= 5 ; i ++)

  00035	c7 85 0c ff ff
	ff 01 00 00 00	 mov	 DWORD PTR _i$[ebp], 1
  0003f	eb 0f		 jmp	 SHORT $L84938
$L84939:
  00041	8b 85 0c ff ff
	ff		 mov	 eax, DWORD PTR _i$[ebp]
  00047	83 c0 01	 add	 eax, 1
  0004a	89 85 0c ff ff
	ff		 mov	 DWORD PTR _i$[ebp], eax
$L84938:
  00050	83 bd 0c ff ff
	ff 05		 cmp	 DWORD PTR _i$[ebp], 5
  00057	7f 7e		 jg	 SHORT $L84940

; 48   : 		{
; 49   : 			sprintf(m_pszInfo2, "Misc. Texture %d [of 5]", i) ;

  00059	8b 85 0c ff ff
	ff		 mov	 eax, DWORD PTR _i$[ebp]
  0005f	50		 push	 eax
  00060	68 00 00 00 00	 push	 OFFSET FLAT:??_C@_0BI@JLFJGFBF@Misc?4?5Texture?5?$CFd?5?$FLof?55?$FN?$AA@
  00065	8b 4d f4	 mov	 ecx, DWORD PTR _this$[ebp]
  00068	8b 51 04	 mov	 edx, DWORD PTR [ecx+4]
  0006b	52		 push	 edx
  0006c	e8 00 00 00 00	 call	 _sprintf
  00071	83 c4 0c	 add	 esp, 12			; 0000000cH

; 50   : 
; 51   : #ifdef LOAD_RES_FROM_FILE
; 52   : 			sprintf(sz, "..\\Resource\\tex\\misc\\%03d.DDS", (int)i) ;

  00074	8b 85 0c ff ff
	ff		 mov	 eax, DWORD PTR _i$[ebp]
  0007a	50		 push	 eax
  0007b	68 00 00 00 00	 push	 OFFSET FLAT:??_C@_0BO@FJFNHDAK@?4?4?2Resource?2tex?2misc?2?$CF03d?4DDS?$AA@
  00080	8d 8d 18 ff ff
	ff		 lea	 ecx, DWORD PTR _sz$[ebp]
  00086	51		 push	 ecx
  00087	e8 00 00 00 00	 call	 _sprintf
  0008c	83 c4 0c	 add	 esp, 12			; 0000000cH

; 53   : 			if (FAILED(D3DXCreateTextureFromFileA(pDev, sz, &m_pTex[ MISC_TEX_START + i - 1 ])))

  0008f	8b 85 0c ff ff
	ff		 mov	 eax, DWORD PTR _i$[ebp]
  00095	8b 4d f4	 mov	 ecx, DWORD PTR _this$[ebp]
  00098	8d 94 81 08 0b
	00 00		 lea	 edx, DWORD PTR [ecx+eax*4+2824]
  0009f	52		 push	 edx
  000a0	8d 85 18 ff ff
	ff		 lea	 eax, DWORD PTR _sz$[ebp]
  000a6	50		 push	 eax
  000a7	8b 4d 08	 mov	 ecx, DWORD PTR _pDev$[ebp]
  000aa	51		 push	 ecx
  000ab	e8 00 00 00 00	 call	 _D3DXCreateTextureFromFileA@12
  000b0	85 c0		 test	 eax, eax
  000b2	7d 0f		 jge	 SHORT $L84945

; 54   : 				Msg("Potential User-Error:\n\nFAIL: tex_1") ;

  000b4	68 00 00 00 00	 push	 OFFSET FLAT:??_C@_0CD@DADLDDK@Potential?5User?9Error?3?6?6FAIL?3?5tex@
  000b9	e8 00 00 00 00	 call	 ?Msg@@YAXPAD@Z		; Msg
  000be	83 c4 04	 add	 esp, 4

; 55   : 			else

  000c1	eb 0f		 jmp	 SHORT $L84947
$L84945:

; 56   : 				m_nTex++ ;

  000c3	8b 45 f4	 mov	 eax, DWORD PTR _this$[ebp]
  000c6	8b 48 18	 mov	 ecx, DWORD PTR [eax+24]
  000c9	83 c1 01	 add	 ecx, 1
  000cc	8b 55 f4	 mov	 edx, DWORD PTR _this$[ebp]
  000cf	89 4a 18	 mov	 DWORD PTR [edx+24], ecx
$L84947:

; 57   : #else
; 58   : 			hr = LoadDDSTextureFromResource( pDev,
; 59   : 											 MAKEINTRESOURCE(IDR_DDS_TRACK_001 + (i-1)),
; 60   : 											 &m_pTex[MISC_TEX_START + i-1],
; 61   : 											 "DDS" );
; 62   : 			assert( S_OK==hr );
; 63   : 			m_nTex++ ;
; 64   : #endif
; 65   : 		}

  000d2	e9 6a ff ff ff	 jmp	 $L84939
$L84940:

; 66   : 
; 67   : 	//
; 68   : 	// Sky textures:
; 69   : 	//
; 70   : 		char szSkyboxPath[ 256 ];
; 71   : 		switch( m_ltLevelLightingType )
; 72   : 		{

  000d7	8b 45 f4	 mov	 eax, DWORD PTR _this$[ebp]
  000da	8b 48 08	 mov	 ecx, DWORD PTR [eax+8]
  000dd	89 8d 38 fd ff
	ff		 mov	 DWORD PTR tv89[ebp], ecx
  000e3	83 bd 38 fd ff
	ff 00		 cmp	 DWORD PTR tv89[ebp], 0
  000ea	74 14		 je	 SHORT $L84953
  000ec	83 bd 38 fd ff
	ff 01		 cmp	 DWORD PTR tv89[ebp], 1
  000f3	74 21		 je	 SHORT $L84955
  000f5	83 bd 38 fd ff
	ff 02		 cmp	 DWORD PTR tv89[ebp], 2
  000fc	74 2e		 je	 SHORT $L84957
  000fe	eb 40		 jmp	 SHORT $L84950
$L84953:

; 73   : 			case LT_DAY:	strcpy( szSkyboxPath, "day" ); break ;

  00100	68 00 00 00 00	 push	 OFFSET FLAT:??_C@_03NNBHCDBP@day?$AA@
  00105	8d 85 00 fe ff
	ff		 lea	 eax, DWORD PTR _szSkyboxPath$[ebp]
  0010b	50		 push	 eax
  0010c	e8 00 00 00 00	 call	 _strcpy
  00111	83 c4 08	 add	 esp, 8
  00114	eb 2a		 jmp	 SHORT $L84950
$L84955:

; 74   : 			case LT_DUSK:	strcpy( szSkyboxPath, "dusk"); break ;

  00116	68 00 00 00 00	 push	 OFFSET FLAT:??_C@_04NJDAONKE@dusk?$AA@
  0011b	8d 85 00 fe ff
	ff		 lea	 eax, DWORD PTR _szSkyboxPath$[ebp]
  00121	50		 push	 eax
  00122	e8 00 00 00 00	 call	 _strcpy
  00127	83 c4 08	 add	 esp, 8
  0012a	eb 14		 jmp	 SHORT $L84950
$L84957:

; 75   : 			case LT_NIGHT:	strcpy( szSkyboxPath, "night");  break ;

  0012c	68 00 00 00 00	 push	 OFFSET FLAT:??_C@_05EDIHMMJK@night?$AA@
  00131	8d 85 00 fe ff
	ff		 lea	 eax, DWORD PTR _szSkyboxPath$[ebp]
  00137	50		 push	 eax
  00138	e8 00 00 00 00	 call	 _strcpy
  0013d	83 c4 08	 add	 esp, 8
$L84950:

; 76   : 		}
; 77   : 		for (i = 1 ; i <= 6 ; i ++)

  00140	c7 85 0c ff ff
	ff 01 00 00 00	 mov	 DWORD PTR _i$[ebp], 1
  0014a	eb 0f		 jmp	 SHORT $L84959
$L84960:
  0014c	8b 85 0c ff ff
	ff		 mov	 eax, DWORD PTR _i$[ebp]
  00152	83 c0 01	 add	 eax, 1
  00155	89 85 0c ff ff
	ff		 mov	 DWORD PTR _i$[ebp], eax
$L84959:
  0015b	83 bd 0c ff ff
	ff 06		 cmp	 DWORD PTR _i$[ebp], 6
  00162	0f 8f 8c 00 00
	00		 jg	 $L84961

; 78   : 		{
; 79   : 			sprintf(m_pszInfo2, "Sky Texture %d [of 6]", i) ;

  00168	8b 85 0c ff ff
	ff		 mov	 eax, DWORD PTR _i$[ebp]
  0016e	50		 push	 eax
  0016f	68 00 00 00 00	 push	 OFFSET FLAT:??_C@_0BG@ILPHBHLA@Sky?5Texture?5?$CFd?5?$FLof?56?$FN?$AA@
  00174	8b 4d f4	 mov	 ecx, DWORD PTR _this$[ebp]
  00177	8b 51 04	 mov	 edx, DWORD PTR [ecx+4]
  0017a	52		 push	 edx
  0017b	e8 00 00 00 00	 call	 _sprintf
  00180	83 c4 0c	 add	 esp, 12			; 0000000cH

; 80   : 
; 81   : #ifdef LOAD_RES_FROM_FILE
; 82   : 			sprintf( sz, "..\\Resource\\tex\\sky\\%s\\%03d\\%03d.bmp.DDS", szSkyboxPath, m_nSkyboxFolder, (int)i ); 

  00183	8b 85 0c ff ff
	ff		 mov	 eax, DWORD PTR _i$[ebp]
  00189	50		 push	 eax
  0018a	8b 4d f4	 mov	 ecx, DWORD PTR _this$[ebp]
  0018d	8b 51 14	 mov	 edx, DWORD PTR [ecx+20]
  00190	52		 push	 edx
  00191	8d 85 00 fe ff
	ff		 lea	 eax, DWORD PTR _szSkyboxPath$[ebp]
  00197	50		 push	 eax
  00198	68 00 00 00 00	 push	 OFFSET FLAT:??_C@_0CJ@FBDKGMDL@?4?4?2Resource?2tex?2sky?2?$CFs?2?$CF03d?2?$CF03d@
  0019d	8d 8d 18 ff ff
	ff		 lea	 ecx, DWORD PTR _sz$[ebp]
  001a3	51		 push	 ecx
  001a4	e8 00 00 00 00	 call	 _sprintf
  001a9	83 c4 14	 add	 esp, 20			; 00000014H

; 83   : 			if (FAILED(D3DXCreateTextureFromFileA(pDev, sz, &m_pTex[SKY_TEX_START + i - 1])))

  001ac	8b 85 0c ff ff
	ff		 mov	 eax, DWORD PTR _i$[ebp]
  001b2	8b 4d f4	 mov	 ecx, DWORD PTR _this$[ebp]
  001b5	8d 94 81 a8 01
	00 00		 lea	 edx, DWORD PTR [ecx+eax*4+424]
  001bc	52		 push	 edx
  001bd	8d 85 18 ff ff
	ff		 lea	 eax, DWORD PTR _sz$[ebp]
  001c3	50		 push	 eax
  001c4	8b 4d 08	 mov	 ecx, DWORD PTR _pDev$[ebp]
  001c7	51		 push	 ecx
  001c8	e8 00 00 00 00	 call	 _D3DXCreateTextureFromFileA@12
  001cd	85 c0		 test	 eax, eax
  001cf	7d 0f		 jge	 SHORT $L84966

; 84   : 				Msg("Potential User-Error:\n\nFAIL: tex_2") ;

  001d1	68 00 00 00 00	 push	 OFFSET FLAT:??_C@_0CD@CICOOAPJ@Potential?5User?9Error?3?6?6FAIL?3?5tex@
  001d6	e8 00 00 00 00	 call	 ?Msg@@YAXPAD@Z		; Msg
  001db	83 c4 04	 add	 esp, 4

; 85   : 			else

  001de	eb 0f		 jmp	 SHORT $L84968
$L84966:

; 86   : 				m_nTex++ ;

  001e0	8b 45 f4	 mov	 eax, DWORD PTR _this$[ebp]
  001e3	8b 48 18	 mov	 ecx, DWORD PTR [eax+24]
  001e6	83 c1 01	 add	 ecx, 1
  001e9	8b 55 f4	 mov	 edx, DWORD PTR _this$[ebp]
  001ec	89 4a 18	 mov	 DWORD PTR [edx+24], ecx
$L84968:

; 87   : #else
; 88   : 			assert( false );
; 89   : #endif
; 90   : 		}

  001ef	e9 58 ff ff ff	 jmp	 $L84960
$L84961:

; 91   : 
; 92   : 	//
; 93   : 	// Terrain textures:
; 94   : 	//
; 95   : 		for (i = 1 ; i <= 18 ; i ++)

  001f4	c7 85 0c ff ff
	ff 01 00 00 00	 mov	 DWORD PTR _i$[ebp], 1
  001fe	eb 0f		 jmp	 SHORT $L84969
$L84970:
  00200	8b 85 0c ff ff
	ff		 mov	 eax, DWORD PTR _i$[ebp]
  00206	83 c0 01	 add	 eax, 1
  00209	89 85 0c ff ff
	ff		 mov	 DWORD PTR _i$[ebp], eax
$L84969:
  0020f	83 bd 0c ff ff
	ff 12		 cmp	 DWORD PTR _i$[ebp], 18	; 00000012H
  00216	0f 8f a4 00 00
	00		 jg	 $L84971

; 96   : 		{
; 97   : 			sprintf(m_pszInfo2, "Terrain Texture %d [of 2]", i) ;

  0021c	8b 85 0c ff ff
	ff		 mov	 eax, DWORD PTR _i$[ebp]
  00222	50		 push	 eax
  00223	68 00 00 00 00	 push	 OFFSET FLAT:??_C@_0BK@OFPNPPNC@Terrain?5Texture?5?$CFd?5?$FLof?52?$FN?$AA@
  00228	8b 4d f4	 mov	 ecx, DWORD PTR _this$[ebp]
  0022b	8b 51 04	 mov	 edx, DWORD PTR [ecx+4]
  0022e	52		 push	 edx
  0022f	e8 00 00 00 00	 call	 _sprintf
  00234	83 c4 0c	 add	 esp, 12			; 0000000cH

; 98   : 			
; 99   : #ifdef LOAD_RES_FROM_FILE
; 100  : 			if( m_nLevelTerrainTex1 == ( TERRAIN_TEX_START + i-1 ) ||
; 101  : 				m_nLevelTerrainTex2 == ( TERRAIN_TEX_START + i-1 ) )

  00237	8b 85 0c ff ff
	ff		 mov	 eax, DWORD PTR _i$[ebp]
  0023d	05 95 00 00 00	 add	 eax, 149		; 00000095H
  00242	8b 4d f4	 mov	 ecx, DWORD PTR _this$[ebp]
  00245	39 41 0c	 cmp	 DWORD PTR [ecx+12], eax
  00248	74 13		 je	 SHORT $L84974
  0024a	8b 85 0c ff ff
	ff		 mov	 eax, DWORD PTR _i$[ebp]
  00250	05 95 00 00 00	 add	 eax, 149		; 00000095H
  00255	8b 4d f4	 mov	 ecx, DWORD PTR _this$[ebp]
  00258	39 41 10	 cmp	 DWORD PTR [ecx+16], eax
  0025b	75 5e		 jne	 SHORT $L84973
$L84974:

; 102  : 			{
; 103  : 					sprintf(sz, "..\\Resource\\tex\\terrain\\%03d.DDS", (int)i) ;

  0025d	8b 85 0c ff ff
	ff		 mov	 eax, DWORD PTR _i$[ebp]
  00263	50		 push	 eax
  00264	68 00 00 00 00	 push	 OFFSET FLAT:??_C@_0CB@INEOILMH@?4?4?2Resource?2tex?2terrain?2?$CF03d?4DDS@
  00269	8d 8d 18 ff ff
	ff		 lea	 ecx, DWORD PTR _sz$[ebp]
  0026f	51		 push	 ecx
  00270	e8 00 00 00 00	 call	 _sprintf
  00275	83 c4 0c	 add	 esp, 12			; 0000000cH

; 104  : 					if (FAILED(D3DXCreateTextureFromFileA(pDev, sz, &m_pTex[TERRAIN_TEX_START + i - 1])))

  00278	8b 85 0c ff ff
	ff		 mov	 eax, DWORD PTR _i$[ebp]
  0027e	8b 4d f4	 mov	 ecx, DWORD PTR _this$[ebp]
  00281	8d 94 81 70 02
	00 00		 lea	 edx, DWORD PTR [ecx+eax*4+624]
  00288	52		 push	 edx
  00289	8d 85 18 ff ff
	ff		 lea	 eax, DWORD PTR _sz$[ebp]
  0028f	50		 push	 eax
  00290	8b 4d 08	 mov	 ecx, DWORD PTR _pDev$[ebp]
  00293	51		 push	 ecx
  00294	e8 00 00 00 00	 call	 _D3DXCreateTextureFromFileA@12
  00299	85 c0		 test	 eax, eax
  0029b	7d 0f		 jge	 SHORT $L84978

; 105  : 						Msg("Potential User-Error:\n\nFAIL: tex_3") ;

  0029d	68 00 00 00 00	 push	 OFFSET FLAT:??_C@_0CD@DBDFNBLI@Potential?5User?9Error?3?6?6FAIL?3?5tex@
  002a2	e8 00 00 00 00	 call	 ?Msg@@YAXPAD@Z		; Msg
  002a7	83 c4 04	 add	 esp, 4

; 106  : 					else

  002aa	eb 0f		 jmp	 SHORT $L84973
$L84978:

; 107  : 						m_nTex++ ;

  002ac	8b 45 f4	 mov	 eax, DWORD PTR _this$[ebp]
  002af	8b 48 18	 mov	 ecx, DWORD PTR [eax+24]
  002b2	83 c1 01	 add	 ecx, 1
  002b5	8b 55 f4	 mov	 edx, DWORD PTR _this$[ebp]
  002b8	89 4a 18	 mov	 DWORD PTR [edx+24], ecx
$L84973:

; 108  : 			}
; 109  : #else
; 110  : 			assert( false );
; 111  : #endif
; 112  : 		}

  002bb	e9 40 ff ff ff	 jmp	 $L84970
$L84971:

; 113  : 
; 114  : 	//
; 115  : 	// HUD Textures:
; 116  : 	//
; 117  : 		for (i = 1 ; i <= 4 ; i ++)

  002c0	c7 85 0c ff ff
	ff 01 00 00 00	 mov	 DWORD PTR _i$[ebp], 1
  002ca	eb 0f		 jmp	 SHORT $L84981
$L84982:
  002cc	8b 85 0c ff ff
	ff		 mov	 eax, DWORD PTR _i$[ebp]
  002d2	83 c0 01	 add	 eax, 1
  002d5	89 85 0c ff ff
	ff		 mov	 DWORD PTR _i$[ebp], eax
$L84981:
  002db	83 bd 0c ff ff
	ff 04		 cmp	 DWORD PTR _i$[ebp], 4
  002e2	7f 7e		 jg	 SHORT $L84983

; 118  : 		{
; 119  : 			sprintf(m_pszInfo2, "HUD Texture %d [of 4]", i) ;

  002e4	8b 85 0c ff ff
	ff		 mov	 eax, DWORD PTR _i$[ebp]
  002ea	50		 push	 eax
  002eb	68 00 00 00 00	 push	 OFFSET FLAT:??_C@_0BG@OCDHMENI@HUD?5Texture?5?$CFd?5?$FLof?54?$FN?$AA@
  002f0	8b 4d f4	 mov	 ecx, DWORD PTR _this$[ebp]
  002f3	8b 51 04	 mov	 edx, DWORD PTR [ecx+4]
  002f6	52		 push	 edx
  002f7	e8 00 00 00 00	 call	 _sprintf
  002fc	83 c4 0c	 add	 esp, 12			; 0000000cH

; 120  : 
; 121  : #ifdef LOAD_RES_FROM_FILE
; 122  : 			sprintf(sz, "..\\Resource\\tex\\HUD\\%03d.DDS", (int)i) ;

  002ff	8b 85 0c ff ff
	ff		 mov	 eax, DWORD PTR _i$[ebp]
  00305	50		 push	 eax
  00306	68 00 00 00 00	 push	 OFFSET FLAT:??_C@_0BN@DAJEKCHB@?4?4?2Resource?2tex?2HUD?2?$CF03d?4DDS?$AA@
  0030b	8d 8d 18 ff ff
	ff		 lea	 ecx, DWORD PTR _sz$[ebp]
  00311	51		 push	 ecx
  00312	e8 00 00 00 00	 call	 _sprintf
  00317	83 c4 0c	 add	 esp, 12			; 0000000cH

; 123  : 			if (FAILED(D3DXCreateTextureFromFileA(pDev, sz, &m_pTex[HUD_TEX_START + i - 1])))

  0031a	8b 85 0c ff ff
	ff		 mov	 eax, DWORD PTR _i$[ebp]
  00320	8b 4d f4	 mov	 ecx, DWORD PTR _this$[ebp]
  00323	8d 94 81 38 03
	00 00		 lea	 edx, DWORD PTR [ecx+eax*4+824]
  0032a	52		 push	 edx
  0032b	8d 85 18 ff ff
	ff		 lea	 eax, DWORD PTR _sz$[ebp]
  00331	50		 push	 eax
  00332	8b 4d 08	 mov	 ecx, DWORD PTR _pDev$[ebp]
  00335	51		 push	 ecx
  00336	e8 00 00 00 00	 call	 _D3DXCreateTextureFromFileA@12
  0033b	85 c0		 test	 eax, eax
  0033d	7d 0f		 jge	 SHORT $L84988

; 124  : 				Msg("Potential User-Error:\n\nFAIL: tex_5") ;

  0033f	68 00 00 00 00	 push	 OFFSET FLAT:??_C@_0CD@GHGPHGDO@Potential?5User?9Error?3?6?6FAIL?3?5tex@
  00344	e8 00 00 00 00	 call	 ?Msg@@YAXPAD@Z		; Msg
  00349	83 c4 04	 add	 esp, 4

; 125  : 			else

  0034c	eb 0f		 jmp	 SHORT $L84990
$L84988:

; 126  : 				m_nTex++ ;

  0034e	8b 45 f4	 mov	 eax, DWORD PTR _this$[ebp]
  00351	8b 48 18	 mov	 ecx, DWORD PTR [eax+24]
  00354	83 c1 01	 add	 ecx, 1
  00357	8b 55 f4	 mov	 edx, DWORD PTR _this$[ebp]
  0035a	89 4a 18	 mov	 DWORD PTR [edx+24], ecx
$L84990:

; 127  : #else
; 128  : 			hr = LoadDDSTextureFromResource( pDev,
; 129  : 											 MAKEINTRESOURCE(IDR_DDS_HUD_001 + (i-1)),
; 130  : 											 &m_pTex[HUD_TEX_START + i-1],
; 131  : 											 "DDS" );
; 132  : 			assert( S_OK==hr );
; 133  : 			m_nTex++ ;
; 134  : #endif
; 135  : 		}

  0035d	e9 6a ff ff ff	 jmp	 $L84982
$L84983:

; 136  : 
; 137  : 	//
; 138  : 	// Explosion Textures:
; 139  : 	//
; 140  : 		for (i = 1 ; i <= 18 ; i ++)

  00362	c7 85 0c ff ff
	ff 01 00 00 00	 mov	 DWORD PTR _i$[ebp], 1
  0036c	eb 0f		 jmp	 SHORT $L84991
$L84992:
  0036e	8b 85 0c ff ff
	ff		 mov	 eax, DWORD PTR _i$[ebp]
  00374	83 c0 01	 add	 eax, 1
  00377	89 85 0c ff ff
	ff		 mov	 DWORD PTR _i$[ebp], eax
$L84991:
  0037d	83 bd 0c ff ff
	ff 12		 cmp	 DWORD PTR _i$[ebp], 18	; 00000012H
  00384	7f 7e		 jg	 SHORT $L84993

; 141  : 		{
; 142  : 			sprintf(m_pszInfo2, "Explosion Texture %d [of 18]", i) ;

  00386	8b 85 0c ff ff
	ff		 mov	 eax, DWORD PTR _i$[ebp]
  0038c	50		 push	 eax
  0038d	68 00 00 00 00	 push	 OFFSET FLAT:??_C@_0BN@JDJJKADN@Explosion?5Texture?5?$CFd?5?$FLof?518?$FN?$AA@
  00392	8b 4d f4	 mov	 ecx, DWORD PTR _this$[ebp]
  00395	8b 51 04	 mov	 edx, DWORD PTR [ecx+4]
  00398	52		 push	 edx
  00399	e8 00 00 00 00	 call	 _sprintf
  0039e	83 c4 0c	 add	 esp, 12			; 0000000cH

; 143  : 			
; 144  : #ifdef LOAD_RES_FROM_FILE
; 145  : 			sprintf(sz, "..\\Resource\\tex\\exp\\exp%02d.DDS", (int)i) ;

  003a1	8b 85 0c ff ff
	ff		 mov	 eax, DWORD PTR _i$[ebp]
  003a7	50		 push	 eax
  003a8	68 00 00 00 00	 push	 OFFSET FLAT:??_C@_0CA@BEDMNCGE@?4?4?2Resource?2tex?2exp?2exp?$CF02d?4DDS?$AA@
  003ad	8d 8d 18 ff ff
	ff		 lea	 ecx, DWORD PTR _sz$[ebp]
  003b3	51		 push	 ecx
  003b4	e8 00 00 00 00	 call	 _sprintf
  003b9	83 c4 0c	 add	 esp, 12			; 0000000cH

; 146  : 			if (FAILED(D3DXCreateTextureFromFileA(pDev, sz, &m_pTex[EXP_TEX_START + i - 1])))

  003bc	8b 85 0c ff ff
	ff		 mov	 eax, DWORD PTR _i$[ebp]
  003c2	8b 4d f4	 mov	 ecx, DWORD PTR _this$[ebp]
  003c5	8d 94 81 00 04
	00 00		 lea	 edx, DWORD PTR [ecx+eax*4+1024]
  003cc	52		 push	 edx
  003cd	8d 85 18 ff ff
	ff		 lea	 eax, DWORD PTR _sz$[ebp]
  003d3	50		 push	 eax
  003d4	8b 4d 08	 mov	 ecx, DWORD PTR _pDev$[ebp]
  003d7	51		 push	 ecx
  003d8	e8 00 00 00 00	 call	 _D3DXCreateTextureFromFileA@12
  003dd	85 c0		 test	 eax, eax
  003df	7d 0f		 jge	 SHORT $L84998

; 147  : 				Msg("Potential User-Error:\n\nFAIL: tex_6") ;

  003e1	68 00 00 00 00	 push	 OFFSET FLAT:??_C@_0CD@EMECCFPN@Potential?5User?9Error?3?6?6FAIL?3?5tex@
  003e6	e8 00 00 00 00	 call	 ?Msg@@YAXPAD@Z		; Msg
  003eb	83 c4 04	 add	 esp, 4

; 148  : 			else

  003ee	eb 0f		 jmp	 SHORT $L85000
$L84998:

; 149  : 				m_nTex++ ;

  003f0	8b 45 f4	 mov	 eax, DWORD PTR _this$[ebp]
  003f3	8b 48 18	 mov	 ecx, DWORD PTR [eax+24]
  003f6	83 c1 01	 add	 ecx, 1
  003f9	8b 55 f4	 mov	 edx, DWORD PTR _this$[ebp]
  003fc	89 4a 18	 mov	 DWORD PTR [edx+24], ecx
$L85000:

; 150  : #else
; 151  : 			hr = LoadDDSTextureFromResource( pDev,
; 152  : 											 MAKEINTRESOURCE(IDB_BMP_EXP_001 + (i-1)),
; 153  : 											 &m_pTex[EXP_TEX_START + i-1],
; 154  : 											 RT_BITMAP );
; 155  : 			assert( S_OK==hr );
; 156  : 			m_nTex++ ;
; 157  : #endif
; 158  : 		}

  003ff	e9 6a ff ff ff	 jmp	 $L84992
$L84993:

; 159  : 
; 160  : 	//
; 161  : 	// Explosion(2) Textures:
; 162  : 	//
; 163  : 		for (i = 1 ; i <= 35 ; i ++)

  00404	c7 85 0c ff ff
	ff 01 00 00 00	 mov	 DWORD PTR _i$[ebp], 1
  0040e	eb 0f		 jmp	 SHORT $L85001
$L85002:
  00410	8b 85 0c ff ff
	ff		 mov	 eax, DWORD PTR _i$[ebp]
  00416	83 c0 01	 add	 eax, 1
  00419	89 85 0c ff ff
	ff		 mov	 DWORD PTR _i$[ebp], eax
$L85001:
  0041f	83 bd 0c ff ff
	ff 23		 cmp	 DWORD PTR _i$[ebp], 35	; 00000023H
  00426	7f 7e		 jg	 SHORT $L85003

; 164  : 		{
; 165  : 			sprintf(m_pszInfo2, "Explosion(2) Texture %d [of 35]", i) ;

  00428	8b 85 0c ff ff
	ff		 mov	 eax, DWORD PTR _i$[ebp]
  0042e	50		 push	 eax
  0042f	68 00 00 00 00	 push	 OFFSET FLAT:??_C@_0CA@GDPKJFAK@Explosion?$CI2?$CJ?5Texture?5?$CFd?5?$FLof?535?$FN?$AA@
  00434	8b 4d f4	 mov	 ecx, DWORD PTR _this$[ebp]
  00437	8b 51 04	 mov	 edx, DWORD PTR [ecx+4]
  0043a	52		 push	 edx
  0043b	e8 00 00 00 00	 call	 _sprintf
  00440	83 c4 0c	 add	 esp, 12			; 0000000cH

; 166  : 			
; 167  : #ifdef LOAD_RES_FROM_FILE
; 168  : 			sprintf(sz, "..\\Resource\\tex\\exp2\\expl%03d.bmp.dds", (int)i) ;

  00443	8b 85 0c ff ff
	ff		 mov	 eax, DWORD PTR _i$[ebp]
  00449	50		 push	 eax
  0044a	68 00 00 00 00	 push	 OFFSET FLAT:??_C@_0CG@EPKPHDKO@?4?4?2Resource?2tex?2exp2?2expl?$CF03d?4bm@
  0044f	8d 8d 18 ff ff
	ff		 lea	 ecx, DWORD PTR _sz$[ebp]
  00455	51		 push	 ecx
  00456	e8 00 00 00 00	 call	 _sprintf
  0045b	83 c4 0c	 add	 esp, 12			; 0000000cH

; 169  : 			if (FAILED(D3DXCreateTextureFromFileA(pDev, sz, &m_pTex[EXP2_TEX_START + i - 1])))

  0045e	8b 85 0c ff ff
	ff		 mov	 eax, DWORD PTR _i$[ebp]
  00464	8b 4d f4	 mov	 ecx, DWORD PTR _this$[ebp]
  00467	8d 94 81 c8 04
	00 00		 lea	 edx, DWORD PTR [ecx+eax*4+1224]
  0046e	52		 push	 edx
  0046f	8d 85 18 ff ff
	ff		 lea	 eax, DWORD PTR _sz$[ebp]
  00475	50		 push	 eax
  00476	8b 4d 08	 mov	 ecx, DWORD PTR _pDev$[ebp]
  00479	51		 push	 ecx
  0047a	e8 00 00 00 00	 call	 _D3DXCreateTextureFromFileA@12
  0047f	85 c0		 test	 eax, eax
  00481	7d 0f		 jge	 SHORT $L85008

; 170  : 				Msg("Potential User-Error:\n\nFAIL: tex_7") ;

  00483	68 00 00 00 00	 push	 OFFSET FLAT:??_C@_0CD@FFFJBELM@Potential?5User?9Error?3?6?6FAIL?3?5tex@
  00488	e8 00 00 00 00	 call	 ?Msg@@YAXPAD@Z		; Msg
  0048d	83 c4 04	 add	 esp, 4

; 171  : 			else

  00490	eb 0f		 jmp	 SHORT $L85010
$L85008:

; 172  : 				m_nTex++ ;

  00492	8b 45 f4	 mov	 eax, DWORD PTR _this$[ebp]
  00495	8b 48 18	 mov	 ecx, DWORD PTR [eax+24]
  00498	83 c1 01	 add	 ecx, 1
  0049b	8b 55 f4	 mov	 edx, DWORD PTR _this$[ebp]
  0049e	89 4a 18	 mov	 DWORD PTR [edx+24], ecx
$L85010:

; 173  : #else
; 174  : 			Msg( "FATAL: not put exp2 textures into resource section yet! ");
; 175  : #endif
; 176  : 		}

  004a1	e9 6a ff ff ff	 jmp	 $L85002
$L85003:

; 177  : 
; 178  : 	//
; 179  : 	// Ocean Textures:
; 180  : 	//
; 181  : 		/*for (i = 1 ; i <= 1 ; i ++)
; 182  : 		{
; 183  : 			//sprintf(m_pszInfo2, "Ocean Texture %d [of 1]", i) ;
; 184  : 			//sprintf(sz, "..\\Resource\\tex\\ocean\\%03d.DDS", (int)i) ;
; 185  : 			//if (FAILED(D3DXCreateTextureFromFileA(pDev, sz, &m_pTex[OCEAN_TEX_START + i - 1])))
; 186  : 			//	Msg("Potential User-Error:\n\nFAIL: tex_7") ;
; 187  : 			//else
; 188  : 			//	m_nTex++ ;
; 189  : 
; 190  : 			//sprintf( sz, "IDR_DDS_OCEAN_%03d", i );
; 191  : 			//hr = LoadDDSTextureFromResource( pDev, MAKEINTRESOURCE(IDR_DDS_OCEAN_001), &m_pTex[OCEAN_TEX_START + i - 1] );
; 192  : 			//assert( S_OK==hr );
; 193  : 		}*/
; 194  : 
; 195  : 	//
; 196  : 	// Caustic Textures:
; 197  : 	//
; 198  : 		for (i = 1 ; i <= 32 ; i ++)

  004a6	c7 85 0c ff ff
	ff 01 00 00 00	 mov	 DWORD PTR _i$[ebp], 1
  004b0	eb 0f		 jmp	 SHORT $L85011
$L85012:
  004b2	8b 85 0c ff ff
	ff		 mov	 eax, DWORD PTR _i$[ebp]
  004b8	83 c0 01	 add	 eax, 1
  004bb	89 85 0c ff ff
	ff		 mov	 DWORD PTR _i$[ebp], eax
$L85011:
  004c1	83 bd 0c ff ff
	ff 20		 cmp	 DWORD PTR _i$[ebp], 32	; 00000020H
  004c8	0f 8f 81 00 00
	00		 jg	 $L85013

; 199  : 		{
; 200  : 			sprintf( m_pszInfo2, "Caustic Texture %d [of 32]", i );

  004ce	8b 85 0c ff ff
	ff		 mov	 eax, DWORD PTR _i$[ebp]
  004d4	50		 push	 eax
  004d5	68 00 00 00 00	 push	 OFFSET FLAT:??_C@_0BL@EHNGCHLM@Caustic?5Texture?5?$CFd?5?$FLof?532?$FN?$AA@
  004da	8b 4d f4	 mov	 ecx, DWORD PTR _this$[ebp]
  004dd	8b 51 04	 mov	 edx, DWORD PTR [ecx+4]
  004e0	52		 push	 edx
  004e1	e8 00 00 00 00	 call	 _sprintf
  004e6	83 c4 0c	 add	 esp, 12			; 0000000cH

; 201  : 			
; 202  : #ifdef LOAD_RES_FROM_FILE
; 203  : 			sprintf(sz, "..\\Resource\\tex\\caustic\\caust%02d.tga", (int)i-1) ;

  004e9	8b 85 0c ff ff
	ff		 mov	 eax, DWORD PTR _i$[ebp]
  004ef	83 e8 01	 sub	 eax, 1
  004f2	50		 push	 eax
  004f3	68 00 00 00 00	 push	 OFFSET FLAT:??_C@_0CG@FDJAMMPN@?4?4?2Resource?2tex?2caustic?2caust?$CF02@
  004f8	8d 8d 18 ff ff
	ff		 lea	 ecx, DWORD PTR _sz$[ebp]
  004fe	51		 push	 ecx
  004ff	e8 00 00 00 00	 call	 _sprintf
  00504	83 c4 0c	 add	 esp, 12			; 0000000cH

; 204  : 			if (FAILED(D3DXCreateTextureFromFileA(pDev, sz, &m_pTex[CAUSTIC_TEX_START + i-1])))

  00507	8b 85 0c ff ff
	ff		 mov	 eax, DWORD PTR _i$[ebp]
  0050d	8b 4d f4	 mov	 ecx, DWORD PTR _this$[ebp]
  00510	8d 94 81 20 07
	00 00		 lea	 edx, DWORD PTR [ecx+eax*4+1824]
  00517	52		 push	 edx
  00518	8d 85 18 ff ff
	ff		 lea	 eax, DWORD PTR _sz$[ebp]
  0051e	50		 push	 eax
  0051f	8b 4d 08	 mov	 ecx, DWORD PTR _pDev$[ebp]
  00522	51		 push	 ecx
  00523	e8 00 00 00 00	 call	 _D3DXCreateTextureFromFileA@12
  00528	85 c0		 test	 eax, eax
  0052a	7d 0f		 jge	 SHORT $L85018

; 205  : 				Msg("Potential User-Error:\n\nFAIL: tex_8") ;

  0052c	68 00 00 00 00	 push	 OFFSET FLAT:??_C@_0CD@NCMBAIHD@Potential?5User?9Error?3?6?6FAIL?3?5tex@
  00531	e8 00 00 00 00	 call	 ?Msg@@YAXPAD@Z		; Msg
  00536	83 c4 04	 add	 esp, 4

; 206  : 			else

  00539	eb 0f		 jmp	 SHORT $L85020
$L85018:

; 207  : 				m_nTex++ ;

  0053b	8b 45 f4	 mov	 eax, DWORD PTR _this$[ebp]
  0053e	8b 48 18	 mov	 ecx, DWORD PTR [eax+24]
  00541	83 c1 01	 add	 ecx, 1
  00544	8b 55 f4	 mov	 edx, DWORD PTR _this$[ebp]
  00547	89 4a 18	 mov	 DWORD PTR [edx+24], ecx
$L85020:

; 208  : #else
; 209  : 			hr = LoadDDSTextureFromResource( pDev,
; 210  : 											 MAKEINTRESOURCE(IDB_BMP_CAUST_001 + (i-1)),
; 211  : 											 &m_pTex[CAUSTIC_TEX_START + i-1],
; 212  : 											 RT_BITMAP );
; 213  : 			assert( S_OK==hr );
; 214  : 			m_nTex++ ;
; 215  : #endif
; 216  : 		}

  0054a	e9 63 ff ff ff	 jmp	 $L85012
$L85013:

; 217  : 
; 218  : 	//
; 219  : 	// Caustic(2) Textures:
; 220  : 	//
; 221  : 		for (i = 1 ; i <= 32 ; i ++)

  0054f	c7 85 0c ff ff
	ff 01 00 00 00	 mov	 DWORD PTR _i$[ebp], 1
  00559	eb 0f		 jmp	 SHORT $L85021
$L85022:
  0055b	8b 85 0c ff ff
	ff		 mov	 eax, DWORD PTR _i$[ebp]
  00561	83 c0 01	 add	 eax, 1
  00564	89 85 0c ff ff
	ff		 mov	 DWORD PTR _i$[ebp], eax
$L85021:
  0056a	83 bd 0c ff ff
	ff 20		 cmp	 DWORD PTR _i$[ebp], 32	; 00000020H
  00571	7f 7e		 jg	 SHORT $L85023

; 222  : 		{
; 223  : 			sprintf( m_pszInfo2, "Caustic(2) Texture %d [of 32]", i );

  00573	8b 85 0c ff ff
	ff		 mov	 eax, DWORD PTR _i$[ebp]
  00579	50		 push	 eax
  0057a	68 00 00 00 00	 push	 OFFSET FLAT:??_C@_0BO@CCOHJCCO@Caustic?$CI2?$CJ?5Texture?5?$CFd?5?$FLof?532?$FN?$AA@
  0057f	8b 4d f4	 mov	 ecx, DWORD PTR _this$[ebp]
  00582	8b 51 04	 mov	 edx, DWORD PTR [ecx+4]
  00585	52		 push	 edx
  00586	e8 00 00 00 00	 call	 _sprintf
  0058b	83 c4 0c	 add	 esp, 12			; 0000000cH

; 224  : 			
; 225  : #ifdef LOAD_RES_FROM_FILE
; 226  : 			sprintf(sz, "..\\Resource\\tex\\caustic2\\caus%02d.bmp.dds", (int)i) ;

  0058e	8b 85 0c ff ff
	ff		 mov	 eax, DWORD PTR _i$[ebp]
  00594	50		 push	 eax
  00595	68 00 00 00 00	 push	 OFFSET FLAT:??_C@_0CK@ODLLHFCI@?4?4?2Resource?2tex?2caustic2?2caus?$CF02@
  0059a	8d 8d 18 ff ff
	ff		 lea	 ecx, DWORD PTR _sz$[ebp]
  005a0	51		 push	 ecx
  005a1	e8 00 00 00 00	 call	 _sprintf
  005a6	83 c4 0c	 add	 esp, 12			; 0000000cH

; 227  : 			if (FAILED(D3DXCreateTextureFromFileA(pDev, sz, &m_pTex[CAUSTIC2_TEX_START + i-1])))

  005a9	8b 85 0c ff ff
	ff		 mov	 eax, DWORD PTR _i$[ebp]
  005af	8b 4d f4	 mov	 ecx, DWORD PTR _this$[ebp]
  005b2	8d 94 81 e8 07
	00 00		 lea	 edx, DWORD PTR [ecx+eax*4+2024]
  005b9	52		 push	 edx
  005ba	8d 85 18 ff ff
	ff		 lea	 eax, DWORD PTR _sz$[ebp]
  005c0	50		 push	 eax
  005c1	8b 4d 08	 mov	 ecx, DWORD PTR _pDev$[ebp]
  005c4	51		 push	 ecx
  005c5	e8 00 00 00 00	 call	 _D3DXCreateTextureFromFileA@12
  005ca	85 c0		 test	 eax, eax
  005cc	7d 0f		 jge	 SHORT $L85028

; 228  : 				Msg("Potential User-Error:\n\nFAIL: tex_9") ;

  005ce	68 00 00 00 00	 push	 OFFSET FLAT:??_C@_0CD@MLNKDJDC@Potential?5User?9Error?3?6?6FAIL?3?5tex@
  005d3	e8 00 00 00 00	 call	 ?Msg@@YAXPAD@Z		; Msg
  005d8	83 c4 04	 add	 esp, 4

; 229  : 			else

  005db	eb 0f		 jmp	 SHORT $L85030
$L85028:

; 230  : 				m_nTex++ ;

  005dd	8b 45 f4	 mov	 eax, DWORD PTR _this$[ebp]
  005e0	8b 48 18	 mov	 ecx, DWORD PTR [eax+24]
  005e3	83 c1 01	 add	 ecx, 1
  005e6	8b 55 f4	 mov	 edx, DWORD PTR _this$[ebp]
  005e9	89 4a 18	 mov	 DWORD PTR [edx+24], ecx
$L85030:

; 231  : #else
; 232  : 			Msg( "FATAL: not put caustic2 textures into resource section yet! ");
; 233  : #endif
; 234  : 		}

  005ec	e9 6a ff ff ff	 jmp	 $L85022
$L85023:

; 235  : 
; 236  : 	//
; 237  : 	// Spherical Textures:
; 238  : 	//
; 239  : 		for (i = 1 ; i <= 1 ; i ++)

  005f1	c7 85 0c ff ff
	ff 01 00 00 00	 mov	 DWORD PTR _i$[ebp], 1
  005fb	eb 0f		 jmp	 SHORT $L85031
$L85032:
  005fd	8b 85 0c ff ff
	ff		 mov	 eax, DWORD PTR _i$[ebp]
  00603	83 c0 01	 add	 eax, 1
  00606	89 85 0c ff ff
	ff		 mov	 DWORD PTR _i$[ebp], eax
$L85031:
  0060c	83 bd 0c ff ff
	ff 01		 cmp	 DWORD PTR _i$[ebp], 1
  00613	7f 7e		 jg	 SHORT $L85033

; 240  : 		{
; 241  : 			sprintf(m_pszInfo2, "Spherical Texture %d [of 1]", i) ;

  00615	8b 85 0c ff ff
	ff		 mov	 eax, DWORD PTR _i$[ebp]
  0061b	50		 push	 eax
  0061c	68 00 00 00 00	 push	 OFFSET FLAT:??_C@_0BM@BAJPFFIL@Spherical?5Texture?5?$CFd?5?$FLof?51?$FN?$AA@
  00621	8b 4d f4	 mov	 ecx, DWORD PTR _this$[ebp]
  00624	8b 51 04	 mov	 edx, DWORD PTR [ecx+4]
  00627	52		 push	 edx
  00628	e8 00 00 00 00	 call	 _sprintf
  0062d	83 c4 0c	 add	 esp, 12			; 0000000cH

; 242  : 			
; 243  : #ifdef LOAD_RES_FROM_FILE
; 244  : 			sprintf(sz, "..\\Resource\\tex\\sphere\\%03d.dds", (int)i) ;

  00630	8b 85 0c ff ff
	ff		 mov	 eax, DWORD PTR _i$[ebp]
  00636	50		 push	 eax
  00637	68 00 00 00 00	 push	 OFFSET FLAT:??_C@_0CA@FIALCECN@?4?4?2Resource?2tex?2sphere?2?$CF03d?4dds?$AA@
  0063c	8d 8d 18 ff ff
	ff		 lea	 ecx, DWORD PTR _sz$[ebp]
  00642	51		 push	 ecx
  00643	e8 00 00 00 00	 call	 _sprintf
  00648	83 c4 0c	 add	 esp, 12			; 0000000cH

; 245  : 			if (FAILED(D3DXCreateTextureFromFileA(pDev, sz, &m_pTex[SPHERE_TEX_START + i - 1])))

  0064b	8b 85 0c ff ff
	ff		 mov	 eax, DWORD PTR _i$[ebp]
  00651	8b 4d f4	 mov	 ecx, DWORD PTR _this$[ebp]
  00654	8d 94 81 b0 08
	00 00		 lea	 edx, DWORD PTR [ecx+eax*4+2224]
  0065b	52		 push	 edx
  0065c	8d 85 18 ff ff
	ff		 lea	 eax, DWORD PTR _sz$[ebp]
  00662	50		 push	 eax
  00663	8b 4d 08	 mov	 ecx, DWORD PTR _pDev$[ebp]
  00666	51		 push	 ecx
  00667	e8 00 00 00 00	 call	 _D3DXCreateTextureFromFileA@12
  0066c	85 c0		 test	 eax, eax
  0066e	7d 0f		 jge	 SHORT $L85038

; 246  : 				Msg("Potential User-Error:\n\nFAIL: tex_10") ;

  00670	68 00 00 00 00	 push	 OFFSET FLAT:??_C@_0CE@BJEJOMPC@Potential?5User?9Error?3?6?6FAIL?3?5tex@
  00675	e8 00 00 00 00	 call	 ?Msg@@YAXPAD@Z		; Msg
  0067a	83 c4 04	 add	 esp, 4

; 247  : 			else

  0067d	eb 0f		 jmp	 SHORT $L85040
$L85038:

; 248  : 				m_nTex++ ;

  0067f	8b 45 f4	 mov	 eax, DWORD PTR _this$[ebp]
  00682	8b 48 18	 mov	 ecx, DWORD PTR [eax+24]
  00685	83 c1 01	 add	 ecx, 1
  00688	8b 55 f4	 mov	 edx, DWORD PTR _this$[ebp]
  0068b	89 4a 18	 mov	 DWORD PTR [edx+24], ecx
$L85040:

; 249  : #else
; 250  : 			hr = LoadDDSTextureFromResource( pDev,
; 251  : 											 MAKEINTRESOURCE(IDR_DDS_SPHERE_001 + (i-1)),
; 252  : 											 &m_pTex[SPHERE_TEX_START + i-1],
; 253  : 											 "DDS" );
; 254  : 			assert( S_OK==hr );
; 255  : 			m_nTex++ ;
; 256  : #endif
; 257  : 		}

  0068e	e9 6a ff ff ff	 jmp	 $L85032
$L85033:

; 258  : 
; 259  : 	//
; 260  : 	// Particle Textures:
; 261  : 	//
; 262  : 		for (i = 1 ; i <= 3 ; i ++)

  00693	c7 85 0c ff ff
	ff 01 00 00 00	 mov	 DWORD PTR _i$[ebp], 1
  0069d	eb 0f		 jmp	 SHORT $L85041
$L85042:
  0069f	8b 85 0c ff ff
	ff		 mov	 eax, DWORD PTR _i$[ebp]
  006a5	83 c0 01	 add	 eax, 1
  006a8	89 85 0c ff ff
	ff		 mov	 DWORD PTR _i$[ebp], eax
$L85041:
  006ae	83 bd 0c ff ff
	ff 03		 cmp	 DWORD PTR _i$[ebp], 3
  006b5	0f 8f 9a 00 00
	00		 jg	 $L85043

; 263  : 		{
; 264  : 			sprintf(m_pszInfo2, "Particle Texture %d [of 3]", i) ;

  006bb	8b 85 0c ff ff
	ff		 mov	 eax, DWORD PTR _i$[ebp]
  006c1	50		 push	 eax
  006c2	68 00 00 00 00	 push	 OFFSET FLAT:??_C@_0BL@IFCFACLI@Particle?5Texture?5?$CFd?5?$FLof?53?$FN?$AA@
  006c7	8b 4d f4	 mov	 ecx, DWORD PTR _this$[ebp]
  006ca	8b 51 04	 mov	 edx, DWORD PTR [ecx+4]
  006cd	52		 push	 edx
  006ce	e8 00 00 00 00	 call	 _sprintf
  006d3	83 c4 0c	 add	 esp, 12			; 0000000cH

; 265  : 			
; 266  : #ifdef LOAD_RES_FROM_FILE
; 267  : 			sprintf(sz, "..\\Resource\\tex\\particle\\%03d.dds", (int)i) ;

  006d6	8b 85 0c ff ff
	ff		 mov	 eax, DWORD PTR _i$[ebp]
  006dc	50		 push	 eax
  006dd	68 00 00 00 00	 push	 OFFSET FLAT:??_C@_0CC@JFHOOHPL@?4?4?2Resource?2tex?2particle?2?$CF03d?4dd@
  006e2	8d 8d 18 ff ff
	ff		 lea	 ecx, DWORD PTR _sz$[ebp]
  006e8	51		 push	 ecx
  006e9	e8 00 00 00 00	 call	 _sprintf
  006ee	83 c4 0c	 add	 esp, 12			; 0000000cH

; 268  : 			if( FAILED(D3DXCreateTextureFromFileEx( pDev, sz, 
; 269  :                 D3DX_DEFAULT, D3DX_DEFAULT, D3DX_DEFAULT, 0, D3DFMT_UNKNOWN, 
; 270  :                 D3DPOOL_MANAGED, D3DX_FILTER_TRIANGLE|D3DX_FILTER_MIRROR, 
; 271  :                 D3DX_FILTER_TRIANGLE|D3DX_FILTER_MIRROR, 0x00, NULL, NULL, &m_pTex[PARTICLE_TEX_START + i - 1] )))

  006f1	8b 85 0c ff ff
	ff		 mov	 eax, DWORD PTR _i$[ebp]
  006f7	8b 4d f4	 mov	 ecx, DWORD PTR _this$[ebp]
  006fa	8d 94 81 40 0a
	00 00		 lea	 edx, DWORD PTR [ecx+eax*4+2624]
  00701	52		 push	 edx
  00702	6a 00		 push	 0
  00704	6a 00		 push	 0
  00706	6a 00		 push	 0
  00708	68 04 00 07 00	 push	 458756			; 00070004H
  0070d	68 04 00 07 00	 push	 458756			; 00070004H
  00712	6a 01		 push	 1
  00714	6a 00		 push	 0
  00716	6a 00		 push	 0
  00718	6a ff		 push	 -1
  0071a	6a ff		 push	 -1
  0071c	6a ff		 push	 -1
  0071e	8d 85 18 ff ff
	ff		 lea	 eax, DWORD PTR _sz$[ebp]
  00724	50		 push	 eax
  00725	8b 4d 08	 mov	 ecx, DWORD PTR _pDev$[ebp]
  00728	51		 push	 ecx
  00729	e8 00 00 00 00	 call	 _D3DXCreateTextureFromFileExA@56
  0072e	85 c0		 test	 eax, eax
  00730	7d 0f		 jge	 SHORT $L85048

; 272  : 				Msg("Potential User-Error:\n\nFAIL: tex_11") ;

  00732	68 00 00 00 00	 push	 OFFSET FLAT:??_C@_0CE@FCNNLD@Potential?5User?9Error?3?6?6FAIL?3?5tex@
  00737	e8 00 00 00 00	 call	 ?Msg@@YAXPAD@Z		; Msg
  0073c	83 c4 04	 add	 esp, 4

; 273  : 			else

  0073f	eb 0f		 jmp	 SHORT $L85050
$L85048:

; 274  : 				m_nTex++ ;

  00741	8b 45 f4	 mov	 eax, DWORD PTR _this$[ebp]
  00744	8b 48 18	 mov	 ecx, DWORD PTR [eax+24]
  00747	83 c1 01	 add	 ecx, 1
  0074a	8b 55 f4	 mov	 edx, DWORD PTR _this$[ebp]
  0074d	89 4a 18	 mov	 DWORD PTR [edx+24], ecx
$L85050:

; 275  : #else
; 276  : 			hr = LoadDDSTextureFromResource( pDev,
; 277  : 											 MAKEINTRESOURCE(IDB_BMP_PARTICLE_001 + (i-1)),
; 278  : 											 &m_pTex[PARTICLE_TEX_START + i-1],
; 279  : 											 RT_BITMAP );
; 280  : 			assert( S_OK==hr );
; 281  : 			m_nTex++ ;
; 282  : #endif
; 283  : 		}

  00750	e9 4a ff ff ff	 jmp	 $L85042
$L85043:

; 284  : 
; 285  : 		m_pszInfo2[0] = '\x0' ;

  00755	8b 45 f4	 mov	 eax, DWORD PTR _this$[ebp]
  00758	8b 48 04	 mov	 ecx, DWORD PTR [eax+4]
  0075b	c6 01 00	 mov	 BYTE PTR [ecx], 0

; 286  : 		return S_OK ;

  0075e	33 c0		 xor	 eax, eax

; 287  : 	}

  00760	52		 push	 edx
  00761	8b cd		 mov	 ecx, ebp
  00763	50		 push	 eax
  00764	8d 15 00 00 00
	00		 lea	 edx, DWORD PTR $L85148
  0076a	e8 00 00 00 00	 call	 @_RTC_CheckStackVars@8
  0076f	58		 pop	 eax
  00770	5a		 pop	 edx
  00771	8b 4d fc	 mov	 ecx, DWORD PTR __$ArrayPad$[ebp]
  00774	33 4d 04	 xor	 ecx, DWORD PTR __$ReturnAddr$[ebp]
  00777	e8 00 00 00 00	 call	 @__security_check_cookie@4
  0077c	5f		 pop	 edi
  0077d	5e		 pop	 esi
  0077e	5b		 pop	 ebx
  0077f	81 c4 c8 02 00
	00		 add	 esp, 712		; 000002c8H
  00785	3b ec		 cmp	 ebp, esp
  00787	e8 00 00 00 00	 call	 __RTC_CheckEsp
  0078c	8b e5		 mov	 esp, ebp
  0078e	5d		 pop	 ebp
  0078f	c2 04 00	 ret	 4
$L85148:
  00792	02 00 00 00	 DD	 2
  00796	00 00 00 00	 DD	 $L85147
$L85147:
  0079a	18 ff ff ff	 DD	 -232			; ffffff18H
  0079e	c8 00 00 00	 DD	 200			; 000000c8H
  007a2	00 00 00 00	 DD	 $L85143
  007a6	00 fe ff ff	 DD	 -512			; fffffe00H
  007aa	00 01 00 00	 DD	 256			; 00000100H
  007ae	00 00 00 00	 DD	 $L85144
$L85144:
  007b2	73		 DB	 115			; 00000073H
  007b3	7a		 DB	 122			; 0000007aH
  007b4	53		 DB	 83			; 00000053H
  007b5	6b		 DB	 107			; 0000006bH
  007b6	79		 DB	 121			; 00000079H
  007b7	62		 DB	 98			; 00000062H
  007b8	6f		 DB	 111			; 0000006fH
  007b9	78		 DB	 120			; 00000078H
  007ba	50		 DB	 80			; 00000050H
  007bb	61		 DB	 97			; 00000061H
  007bc	74		 DB	 116			; 00000074H
  007bd	68		 DB	 104			; 00000068H
  007be	00		 DB	 0
$L85143:
  007bf	73		 DB	 115			; 00000073H
  007c0	7a		 DB	 122			; 0000007aH
  007c1	00		 DB	 0
?LoadAllTex@CTextures@@QAEJPAUIDirect3DDevice8@@@Z ENDP	; CTextures::LoadAllTex
_TEXT	ENDS
PUBLIC	??_C@_0CB@GOIPGDEE@CTextures?3?3RestoreDeviceObjects?6@ ; `string'
PUBLIC	??_C@_0M@GNFDLDGE@m_pTextures?$AA@		; `string'
PUBLIC	?RestoreDeviceObjects@CTextures@@QAEJPAUIDirect3D8@@PAUIDirect3DDevice8@@@Z ; CTextures::RestoreDeviceObjects
EXTRN	?ods@@YAXPADZZ:NEAR				; ods
;	COMDAT ??_C@_0CB@GOIPGDEE@CTextures?3?3RestoreDeviceObjects?6@
CONST	SEGMENT
??_C@_0CB@GOIPGDEE@CTextures?3?3RestoreDeviceObjects?6@ DB 'CTextures::Re'
	DB	'storeDeviceObjects', 0aH, 00H		; `string'
CONST	ENDS
;	COMDAT ??_C@_0M@GNFDLDGE@m_pTextures?$AA@
CONST	SEGMENT
??_C@_0M@GNFDLDGE@m_pTextures?$AA@ DB 'm_pTextures', 00H ; `string'
; Function compile flags: /Odt /RTCsu /ZI
CONST	ENDS
;	COMDAT ?RestoreDeviceObjects@CTextures@@QAEJPAUIDirect3D8@@PAUIDirect3DDevice8@@@Z
_TEXT	SEGMENT
_this$ = -8
_pD3D$ = 8
_pDev$ = 12
?RestoreDeviceObjects@CTextures@@QAEJPAUIDirect3D8@@PAUIDirect3DDevice8@@@Z PROC NEAR ; CTextures::RestoreDeviceObjects, COMDAT
; _this$ = ecx

; 295  : 	{

  00000	55		 push	 ebp
  00001	8b ec		 mov	 ebp, esp
  00003	81 ec cc 00 00
	00		 sub	 esp, 204		; 000000ccH
  00009	53		 push	 ebx
  0000a	56		 push	 esi
  0000b	57		 push	 edi
  0000c	51		 push	 ecx
  0000d	8d bd 34 ff ff
	ff		 lea	 edi, DWORD PTR [ebp-204]
  00013	b9 33 00 00 00	 mov	 ecx, 51			; 00000033H
  00018	b8 cc cc cc cc	 mov	 eax, -858993460		; ccccccccH
  0001d	f3 ab		 rep stosd
  0001f	59		 pop	 ecx
  00020	89 4d f8	 mov	 DWORD PTR _this$[ebp], ecx

; 296  : 		ods( "CTextures::RestoreDeviceObjects\n" );

  00023	68 00 00 00 00	 push	 OFFSET FLAT:??_C@_0CB@GOIPGDEE@CTextures?3?3RestoreDeviceObjects?6@
  00028	e8 00 00 00 00	 call	 ?ods@@YAXPADZZ		; ods
  0002d	83 c4 04	 add	 esp, 4

; 297  : 
; 298  : 		strcpy(m_pszInfo1, "m_pTextures") ;

  00030	68 00 00 00 00	 push	 OFFSET FLAT:??_C@_0M@GNFDLDGE@m_pTextures?$AA@
  00035	8b 45 f8	 mov	 eax, DWORD PTR _this$[ebp]
  00038	8b 08		 mov	 ecx, DWORD PTR [eax]
  0003a	51		 push	 ecx
  0003b	e8 00 00 00 00	 call	 _strcpy
  00040	83 c4 08	 add	 esp, 8

; 299  : 		return LoadAllTex(pDev) ;

  00043	8b 45 0c	 mov	 eax, DWORD PTR _pDev$[ebp]
  00046	50		 push	 eax
  00047	8b 4d f8	 mov	 ecx, DWORD PTR _this$[ebp]
  0004a	e8 00 00 00 00	 call	 ?LoadAllTex@CTextures@@QAEJPAUIDirect3DDevice8@@@Z ; CTextures::LoadAllTex

; 300  : 	}

  0004f	5f		 pop	 edi
  00050	5e		 pop	 esi
  00051	5b		 pop	 ebx
  00052	81 c4 cc 00 00
	00		 add	 esp, 204		; 000000ccH
  00058	3b ec		 cmp	 ebp, esp
  0005a	e8 00 00 00 00	 call	 __RTC_CheckEsp
  0005f	8b e5		 mov	 esp, ebp
  00061	5d		 pop	 ebp
  00062	c2 08 00	 ret	 8
?RestoreDeviceObjects@CTextures@@QAEJPAUIDirect3D8@@PAUIDirect3DDevice8@@@Z ENDP ; CTextures::RestoreDeviceObjects
; Function compile flags: /Odt /RTCsu /ZI
_TEXT	ENDS
;	COMDAT ?InvalidateDeviceObjects@CTextures@@QAEJXZ
_TEXT	SEGMENT
_i$85062 = -20
_this$ = -8
?InvalidateDeviceObjects@CTextures@@QAEJXZ PROC NEAR	; CTextures::InvalidateDeviceObjects, COMDAT
; _this$ = ecx

; 302  : 	{

  00000	55		 push	 ebp
  00001	8b ec		 mov	 ebp, esp
  00003	81 ec d8 00 00
	00		 sub	 esp, 216		; 000000d8H
  00009	53		 push	 ebx
  0000a	56		 push	 esi
  0000b	57		 push	 edi
  0000c	51		 push	 ecx
  0000d	8d bd 28 ff ff
	ff		 lea	 edi, DWORD PTR [ebp-216]
  00013	b9 36 00 00 00	 mov	 ecx, 54			; 00000036H
  00018	b8 cc cc cc cc	 mov	 eax, -858993460		; ccccccccH
  0001d	f3 ab		 rep stosd
  0001f	59		 pop	 ecx
  00020	89 4d f8	 mov	 DWORD PTR _this$[ebp], ecx

; 303  : 		for (unsigned long i = 0 ; i < MAX_TEX ; i ++)

  00023	c7 45 ec 00 00
	00 00		 mov	 DWORD PTR _i$85062[ebp], 0
  0002a	eb 09		 jmp	 SHORT $L85063
$L85064:
  0002c	8b 45 ec	 mov	 eax, DWORD PTR _i$85062[ebp]
  0002f	83 c0 01	 add	 eax, 1
  00032	89 45 ec	 mov	 DWORD PTR _i$85062[ebp], eax
$L85063:
  00035	81 7d ec 00 04
	00 00		 cmp	 DWORD PTR _i$85062[ebp], 1024 ; 00000400H
  0003c	73 40		 jae	 SHORT $L85065

; 304  : 		{
; 305  : 			if (m_pTex[i])

  0003e	8b 45 ec	 mov	 eax, DWORD PTR _i$85062[ebp]
  00041	8b 4d f8	 mov	 ecx, DWORD PTR _this$[ebp]
  00044	83 7c 81 1c 00	 cmp	 DWORD PTR [ecx+eax*4+28], 0
  00049	74 23		 je	 SHORT $L85066

; 306  : 				m_pTex[i]->Release() ;

  0004b	8b 45 ec	 mov	 eax, DWORD PTR _i$85062[ebp]
  0004e	8b 4d f8	 mov	 ecx, DWORD PTR _this$[ebp]
  00051	8b 54 81 1c	 mov	 edx, DWORD PTR [ecx+eax*4+28]
  00055	8b 45 ec	 mov	 eax, DWORD PTR _i$85062[ebp]
  00058	8b 4d f8	 mov	 ecx, DWORD PTR _this$[ebp]
  0005b	8b 44 81 1c	 mov	 eax, DWORD PTR [ecx+eax*4+28]
  0005f	8b 0a		 mov	 ecx, DWORD PTR [edx]
  00061	8b f4		 mov	 esi, esp
  00063	50		 push	 eax
  00064	ff 51 08	 call	 DWORD PTR [ecx+8]
  00067	3b f4		 cmp	 esi, esp
  00069	e8 00 00 00 00	 call	 __RTC_CheckEsp
$L85066:

; 307  : 			m_pTex[i] = NULL ;

  0006e	8b 45 ec	 mov	 eax, DWORD PTR _i$85062[ebp]
  00071	8b 4d f8	 mov	 ecx, DWORD PTR _this$[ebp]
  00074	c7 44 81 1c 00
	00 00 00	 mov	 DWORD PTR [ecx+eax*4+28], 0

; 308  : 		}

  0007c	eb ae		 jmp	 SHORT $L85064
$L85065:

; 309  : 		m_nTex = 0 ;

  0007e	8b 45 f8	 mov	 eax, DWORD PTR _this$[ebp]
  00081	c7 40 18 00 00
	00 00		 mov	 DWORD PTR [eax+24], 0

; 310  : 		return S_OK ;

  00088	33 c0		 xor	 eax, eax

; 311  : 	}

  0008a	5f		 pop	 edi
  0008b	5e		 pop	 esi
  0008c	5b		 pop	 ebx
  0008d	81 c4 d8 00 00
	00		 add	 esp, 216		; 000000d8H
  00093	3b ec		 cmp	 ebp, esp
  00095	e8 00 00 00 00	 call	 __RTC_CheckEsp
  0009a	8b e5		 mov	 esp, ebp
  0009c	5d		 pop	 ebp
  0009d	c3		 ret	 0
?InvalidateDeviceObjects@CTextures@@QAEJXZ ENDP		; CTextures::InvalidateDeviceObjects
_TEXT	ENDS
END
