; Listing generated by Microsoft (R) Optimizing Compiler Version 13.00.9466 

	TITLE	CThread.cpp
	.386P
include listing.inc
if @Version gt 510
.model FLAT
else
_TEXT	SEGMENT PARA USE32 PUBLIC 'CODE'
_TEXT	ENDS
_DATA	SEGMENT DWORD USE32 PUBLIC 'DATA'
_DATA	ENDS
CONST	SEGMENT DWORD USE32 PUBLIC 'CONST'
CONST	ENDS
_BSS	SEGMENT DWORD USE32 PUBLIC 'BSS'
_BSS	ENDS
$$SYMBOLS	SEGMENT BYTE USE32 'DEBSYM'
$$SYMBOLS	ENDS
$$TYPES	SEGMENT BYTE USE32 'DEBTYP'
$$TYPES	ENDS
_TLS	SEGMENT DWORD USE32 PUBLIC 'TLS'
_TLS	ENDS
;	COMDAT _IsEqualGUID
_TEXT	SEGMENT PARA USE32 PUBLIC 'CODE'
_TEXT	ENDS
;	COMDAT _==
_TEXT	SEGMENT PARA USE32 PUBLIC 'CODE'
_TEXT	ENDS
;	COMDAT ??0CThread@@QAE@XZ
_TEXT	SEGMENT PARA USE32 PUBLIC 'CODE'
_TEXT	ENDS
;	COMDAT ??_GCThread@@UAEPAXI@Z
_TEXT	SEGMENT PARA USE32 PUBLIC 'CODE'
_TEXT	ENDS
;	COMDAT ??1CThread@@UAE@XZ
_TEXT	SEGMENT PARA USE32 PUBLIC 'CODE'
_TEXT	ENDS
;	COMDAT ?BeginThreadProc@CThread@@QAEXXZ
_TEXT	SEGMENT PARA USE32 PUBLIC 'CODE'
_TEXT	ENDS
;	COMDAT ?ThreadIsRunning@CThread@@QAE_NXZ
_TEXT	SEGMENT PARA USE32 PUBLIC 'CODE'
_TEXT	ENDS
;	COMDAT ?CThreadProc@@YGKPAVCThread@@@Z
_TEXT	SEGMENT PARA USE32 PUBLIC 'CODE'
_TEXT	ENDS
;	COMDAT ?ThreadProc@CThread@@UAEKXZ
_TEXT	SEGMENT PARA USE32 PUBLIC 'CODE'
_TEXT	ENDS
;	COMDAT ?EndThreadProc@CThread@@QAEXXZ
_TEXT	SEGMENT PARA USE32 PUBLIC 'CODE'
_TEXT	ENDS
;	COMDAT ??_7CThread@@6B@
CONST	SEGMENT DWORD USE32 PUBLIC 'CONST'
CONST	ENDS
FLAT	GROUP _DATA, CONST, _BSS
	ASSUME	CS: FLAT, DS: FLAT, SS: FLAT
endif

INCLUDELIB LIBCMTD
INCLUDELIB OLDNAMES

PUBLIC	??0CThread@@QAE@XZ				; CThread::CThread
PUBLIC	?ThreadProc@CThread@@UAEKXZ			; CThread::ThreadProc
PUBLIC	??_7CThread@@6B@				; CThread::`vftable'
PUBLIC	??_GCThread@@UAEPAXI@Z				; CThread::`scalar deleting destructor'
EXTRN	??_ECThread@@UAEPAXI@Z:NEAR			; CThread::`vector deleting destructor'
EXTRN	__RTC_InitBase:NEAR
EXTRN	__RTC_Shutdown:NEAR
;	COMDAT rtc$IMZ
; File c:\documents and settings\dom\my documents\_dev\ae\xlr8a\x7g\cthread.cpp
rtc$IMZ	SEGMENT
__RTC_InitBase.rtc$IMZ DD FLAT:__RTC_InitBase
rtc$IMZ	ENDS
;	COMDAT rtc$TMZ
rtc$TMZ	SEGMENT
__RTC_Shutdown.rtc$TMZ DD FLAT:__RTC_Shutdown
rtc$TMZ	ENDS
;	COMDAT ??_7CThread@@6B@
CONST	SEGMENT
??_7CThread@@6B@ DD FLAT:??_ECThread@@UAEPAXI@Z		; CThread::`vftable'
	DD	FLAT:?ThreadProc@CThread@@UAEKXZ
; Function compile flags: /Odt /RTCsu /ZI
CONST	ENDS
;	COMDAT ??0CThread@@QAE@XZ
_TEXT	SEGMENT
_this$ = -8
??0CThread@@QAE@XZ PROC NEAR				; CThread::CThread, COMDAT
; _this$ = ecx

; 6    : {

  00000	55		 push	 ebp
  00001	8b ec		 mov	 ebp, esp
  00003	81 ec cc 00 00
	00		 sub	 esp, 204		; 000000ccH
  00009	53		 push	 ebx
  0000a	56		 push	 esi
  0000b	57		 push	 edi
  0000c	51		 push	 ecx
  0000d	8d bd 34 ff ff
	ff		 lea	 edi, DWORD PTR [ebp-204]
  00013	b9 33 00 00 00	 mov	 ecx, 51			; 00000033H
  00018	b8 cc cc cc cc	 mov	 eax, -858993460		; ccccccccH
  0001d	f3 ab		 rep stosd
  0001f	59		 pop	 ecx
  00020	89 4d f8	 mov	 DWORD PTR _this$[ebp], ecx
  00023	8b 45 f8	 mov	 eax, DWORD PTR _this$[ebp]
  00026	c7 00 00 00 00
	00		 mov	 DWORD PTR [eax], OFFSET FLAT:??_7CThread@@6B@

; 7    : 	d_threadID = 0 ;

  0002c	8b 45 f8	 mov	 eax, DWORD PTR _this$[ebp]
  0002f	c7 40 04 00 00
	00 00		 mov	 DWORD PTR [eax+4], 0

; 8    : 	d_threadHandle = NULL ;

  00036	8b 45 f8	 mov	 eax, DWORD PTR _this$[ebp]
  00039	c7 40 0c 00 00
	00 00		 mov	 DWORD PTR [eax+12], 0

; 9    : 	d_bIsRunning = false ;

  00040	8b 45 f8	 mov	 eax, DWORD PTR _this$[ebp]
  00043	c6 40 08 00	 mov	 BYTE PTR [eax+8], 0

; 10   : }

  00047	8b 45 f8	 mov	 eax, DWORD PTR _this$[ebp]
  0004a	5f		 pop	 edi
  0004b	5e		 pop	 esi
  0004c	5b		 pop	 ebx
  0004d	8b e5		 mov	 esp, ebp
  0004f	5d		 pop	 ebp
  00050	c3		 ret	 0
??0CThread@@QAE@XZ ENDP					; CThread::CThread
_TEXT	ENDS
PUBLIC	??1CThread@@UAE@XZ				; CThread::~CThread
EXTRN	??3@YAXPAX@Z:NEAR				; operator delete
EXTRN	__RTC_CheckEsp:NEAR
; Function compile flags: /Odt /RTCsu /ZI
;	COMDAT ??_GCThread@@UAEPAXI@Z
_TEXT	SEGMENT
_this$ = -8
___flags$ = 8
??_GCThread@@UAEPAXI@Z PROC NEAR			; CThread::`scalar deleting destructor', COMDAT
; _this$ = ecx
  00000	55		 push	 ebp
  00001	8b ec		 mov	 ebp, esp
  00003	81 ec cc 00 00
	00		 sub	 esp, 204		; 000000ccH
  00009	53		 push	 ebx
  0000a	56		 push	 esi
  0000b	57		 push	 edi
  0000c	51		 push	 ecx
  0000d	8d bd 34 ff ff
	ff		 lea	 edi, DWORD PTR [ebp-204]
  00013	b9 33 00 00 00	 mov	 ecx, 51			; 00000033H
  00018	b8 cc cc cc cc	 mov	 eax, -858993460		; ccccccccH
  0001d	f3 ab		 rep stosd
  0001f	59		 pop	 ecx
  00020	89 4d f8	 mov	 DWORD PTR _this$[ebp], ecx
  00023	8b 4d f8	 mov	 ecx, DWORD PTR _this$[ebp]
  00026	e8 00 00 00 00	 call	 ??1CThread@@UAE@XZ	; CThread::~CThread
  0002b	8b 45 08	 mov	 eax, DWORD PTR ___flags$[ebp]
  0002e	83 e0 01	 and	 eax, 1
  00031	85 c0		 test	 eax, eax
  00033	74 0c		 je	 SHORT $L71431
  00035	8b 45 f8	 mov	 eax, DWORD PTR _this$[ebp]
  00038	50		 push	 eax
  00039	e8 00 00 00 00	 call	 ??3@YAXPAX@Z		; operator delete
  0003e	83 c4 04	 add	 esp, 4
$L71431:
  00041	8b 45 f8	 mov	 eax, DWORD PTR _this$[ebp]
  00044	5f		 pop	 edi
  00045	5e		 pop	 esi
  00046	5b		 pop	 ebx
  00047	81 c4 cc 00 00
	00		 add	 esp, 204		; 000000ccH
  0004d	3b ec		 cmp	 ebp, esp
  0004f	e8 00 00 00 00	 call	 __RTC_CheckEsp
  00054	8b e5		 mov	 esp, ebp
  00056	5d		 pop	 ebp
  00057	c2 04 00	 ret	 4
??_GCThread@@UAEPAXI@Z ENDP				; CThread::`scalar deleting destructor'
_TEXT	ENDS
PUBLIC	?EndThreadProc@CThread@@QAEXXZ			; CThread::EndThreadProc
; Function compile flags: /Odt /RTCsu /ZI
;	COMDAT ??1CThread@@UAE@XZ
_TEXT	SEGMENT
_this$ = -8
??1CThread@@UAE@XZ PROC NEAR				; CThread::~CThread, COMDAT
; _this$ = ecx

; 13   : {

  00000	55		 push	 ebp
  00001	8b ec		 mov	 ebp, esp
  00003	81 ec cc 00 00
	00		 sub	 esp, 204		; 000000ccH
  00009	53		 push	 ebx
  0000a	56		 push	 esi
  0000b	57		 push	 edi
  0000c	51		 push	 ecx
  0000d	8d bd 34 ff ff
	ff		 lea	 edi, DWORD PTR [ebp-204]
  00013	b9 33 00 00 00	 mov	 ecx, 51			; 00000033H
  00018	b8 cc cc cc cc	 mov	 eax, -858993460		; ccccccccH
  0001d	f3 ab		 rep stosd
  0001f	59		 pop	 ecx
  00020	89 4d f8	 mov	 DWORD PTR _this$[ebp], ecx
  00023	8b 45 f8	 mov	 eax, DWORD PTR _this$[ebp]
  00026	c7 00 00 00 00
	00		 mov	 DWORD PTR [eax], OFFSET FLAT:??_7CThread@@6B@

; 14   : 	EndThreadProc() ;

  0002c	8b 4d f8	 mov	 ecx, DWORD PTR _this$[ebp]
  0002f	e8 00 00 00 00	 call	 ?EndThreadProc@CThread@@QAEXXZ ; CThread::EndThreadProc

; 15   : }

  00034	5f		 pop	 edi
  00035	5e		 pop	 esi
  00036	5b		 pop	 ebx
  00037	81 c4 cc 00 00
	00		 add	 esp, 204		; 000000ccH
  0003d	3b ec		 cmp	 ebp, esp
  0003f	e8 00 00 00 00	 call	 __RTC_CheckEsp
  00044	8b e5		 mov	 esp, ebp
  00046	5d		 pop	 ebp
  00047	c3		 ret	 0
??1CThread@@UAE@XZ ENDP					; CThread::~CThread
_TEXT	ENDS
PUBLIC	?BeginThreadProc@CThread@@QAEXXZ		; CThread::BeginThreadProc
EXTRN	__imp__CreateThread@24:NEAR
; Function compile flags: /Odt /RTCsu /ZI
;	COMDAT ?BeginThreadProc@CThread@@QAEXXZ
_TEXT	SEGMENT
_this$ = -8
?BeginThreadProc@CThread@@QAEXXZ PROC NEAR		; CThread::BeginThreadProc, COMDAT
; _this$ = ecx

; 18   : {

  00000	55		 push	 ebp
  00001	8b ec		 mov	 ebp, esp
  00003	81 ec cc 00 00
	00		 sub	 esp, 204		; 000000ccH
  00009	53		 push	 ebx
  0000a	56		 push	 esi
  0000b	57		 push	 edi
  0000c	51		 push	 ecx
  0000d	8d bd 34 ff ff
	ff		 lea	 edi, DWORD PTR [ebp-204]
  00013	b9 33 00 00 00	 mov	 ecx, 51			; 00000033H
  00018	b8 cc cc cc cc	 mov	 eax, -858993460		; ccccccccH
  0001d	f3 ab		 rep stosd
  0001f	59		 pop	 ecx
  00020	89 4d f8	 mov	 DWORD PTR _this$[ebp], ecx

; 19   : 	if (d_threadHandle)

  00023	8b 45 f8	 mov	 eax, DWORD PTR _this$[ebp]
  00026	83 78 0c 00	 cmp	 DWORD PTR [eax+12], 0
  0002a	74 08		 je	 SHORT $L71438

; 20   : 		EndThreadProc() ;  // just to be safe.

  0002c	8b 4d f8	 mov	 ecx, DWORD PTR _this$[ebp]
  0002f	e8 00 00 00 00	 call	 ?EndThreadProc@CThread@@QAEXXZ ; CThread::EndThreadProc
$L71438:

; 21   : 
; 22   : 	// Start the thread.
; 23   : 	d_threadHandle = CreateThread(NULL,
; 24   :                                   0,
; 25   :                                   (LPTHREAD_START_ROUTINE)CThreadProc,
; 26   :                                   this,
; 27   :                                   0,
; 28   :                                   (LPDWORD)&d_threadID) ;

  00034	8b 45 f8	 mov	 eax, DWORD PTR _this$[ebp]
  00037	83 c0 04	 add	 eax, 4
  0003a	8b f4		 mov	 esi, esp
  0003c	50		 push	 eax
  0003d	6a 00		 push	 0
  0003f	8b 4d f8	 mov	 ecx, DWORD PTR _this$[ebp]
  00042	51		 push	 ecx
  00043	68 00 00 00 00	 push	 OFFSET FLAT:?CThreadProc@@YGKPAVCThread@@@Z ; CThreadProc
  00048	6a 00		 push	 0
  0004a	6a 00		 push	 0
  0004c	ff 15 00 00 00
	00		 call	 DWORD PTR __imp__CreateThread@24
  00052	3b f4		 cmp	 esi, esp
  00054	e8 00 00 00 00	 call	 __RTC_CheckEsp
  00059	8b 55 f8	 mov	 edx, DWORD PTR _this$[ebp]
  0005c	89 42 0c	 mov	 DWORD PTR [edx+12], eax

; 29   : 	if( d_threadHandle == NULL )
; 30   : 	{
; 31   : 	    // Arrooga! Dive, dive!  And deal with the error, too!
; 32   : 	}
; 33   : 	/*SetThreadPriority(d_threadHandle, THREAD_PRIORITY_HIGHEST) ;*/
; 34   : 	d_bIsRunning = true ;

  0005f	8b 45 f8	 mov	 eax, DWORD PTR _this$[ebp]
  00062	c6 40 08 01	 mov	 BYTE PTR [eax+8], 1

; 35   : }

  00066	5f		 pop	 edi
  00067	5e		 pop	 esi
  00068	5b		 pop	 ebx
  00069	81 c4 cc 00 00
	00		 add	 esp, 204		; 000000ccH
  0006f	3b ec		 cmp	 ebp, esp
  00071	e8 00 00 00 00	 call	 __RTC_CheckEsp
  00076	8b e5		 mov	 esp, ebp
  00078	5d		 pop	 ebp
  00079	c3		 ret	 0
?BeginThreadProc@CThread@@QAEXXZ ENDP			; CThread::BeginThreadProc
_TEXT	ENDS
PUBLIC	?ThreadIsRunning@CThread@@QAE_NXZ		; CThread::ThreadIsRunning
EXTRN	__imp__GetExitCodeThread@8:NEAR
EXTRN	@_RTC_CheckStackVars@8:NEAR
; Function compile flags: /Odt /RTCsu /ZI
;	COMDAT ?ThreadIsRunning@CThread@@QAE_NXZ
_TEXT	SEGMENT
_dw$ = -20
_this$ = -8
?ThreadIsRunning@CThread@@QAE_NXZ PROC NEAR		; CThread::ThreadIsRunning, COMDAT
; _this$ = ecx

; 38   : {

  00000	55		 push	 ebp
  00001	8b ec		 mov	 ebp, esp
  00003	81 ec d8 00 00
	00		 sub	 esp, 216		; 000000d8H
  00009	53		 push	 ebx
  0000a	56		 push	 esi
  0000b	57		 push	 edi
  0000c	51		 push	 ecx
  0000d	8d bd 28 ff ff
	ff		 lea	 edi, DWORD PTR [ebp-216]
  00013	b9 36 00 00 00	 mov	 ecx, 54			; 00000036H
  00018	b8 cc cc cc cc	 mov	 eax, -858993460		; ccccccccH
  0001d	f3 ab		 rep stosd
  0001f	59		 pop	 ecx
  00020	89 4d f8	 mov	 DWORD PTR _this$[ebp], ecx

; 39   : 	DWORD dw ;
; 40   : 	GetExitCodeThread(d_threadHandle, &dw) ;

  00023	8b f4		 mov	 esi, esp
  00025	8d 45 ec	 lea	 eax, DWORD PTR _dw$[ebp]
  00028	50		 push	 eax
  00029	8b 4d f8	 mov	 ecx, DWORD PTR _this$[ebp]
  0002c	8b 51 0c	 mov	 edx, DWORD PTR [ecx+12]
  0002f	52		 push	 edx
  00030	ff 15 00 00 00
	00		 call	 DWORD PTR __imp__GetExitCodeThread@8
  00036	3b f4		 cmp	 esi, esp
  00038	e8 00 00 00 00	 call	 __RTC_CheckEsp

; 41   : 
; 42   : 	return (dw == STILL_ACTIVE) ;

  0003d	33 c0		 xor	 eax, eax
  0003f	81 7d ec 03 01
	00 00		 cmp	 DWORD PTR _dw$[ebp], 259 ; 00000103H
  00046	0f 94 c0	 sete	 al

; 43   : }

  00049	52		 push	 edx
  0004a	8b cd		 mov	 ecx, ebp
  0004c	50		 push	 eax
  0004d	8d 15 00 00 00
	00		 lea	 edx, DWORD PTR $L71497
  00053	e8 00 00 00 00	 call	 @_RTC_CheckStackVars@8
  00058	58		 pop	 eax
  00059	5a		 pop	 edx
  0005a	5f		 pop	 edi
  0005b	5e		 pop	 esi
  0005c	5b		 pop	 ebx
  0005d	81 c4 d8 00 00
	00		 add	 esp, 216		; 000000d8H
  00063	3b ec		 cmp	 ebp, esp
  00065	e8 00 00 00 00	 call	 __RTC_CheckEsp
  0006a	8b e5		 mov	 esp, ebp
  0006c	5d		 pop	 ebp
  0006d	c3		 ret	 0
$L71497:
  0006e	01 00 00 00	 DD	 1
  00072	00 00 00 00	 DD	 $L71496
$L71496:
  00076	ec ff ff ff	 DD	 -20			; ffffffecH
  0007a	04 00 00 00	 DD	 4
  0007e	00 00 00 00	 DD	 $L71495
$L71495:
  00082	64		 DB	 100			; 00000064H
  00083	77		 DB	 119			; 00000077H
  00084	00		 DB	 0
?ThreadIsRunning@CThread@@QAE_NXZ ENDP			; CThread::ThreadIsRunning
; Function compile flags: /Odt /RTCsu /ZI
_TEXT	ENDS
;	COMDAT ?CThreadProc@@YGKPAVCThread@@@Z
_TEXT	SEGMENT
_pThis$ = 8
?CThreadProc@@YGKPAVCThread@@@Z PROC NEAR		; CThreadProc, COMDAT

; 46   : {

  00000	55		 push	 ebp
  00001	8b ec		 mov	 ebp, esp
  00003	81 ec c0 00 00
	00		 sub	 esp, 192		; 000000c0H
  00009	53		 push	 ebx
  0000a	56		 push	 esi
  0000b	57		 push	 edi
  0000c	8d bd 40 ff ff
	ff		 lea	 edi, DWORD PTR [ebp-192]
  00012	b9 30 00 00 00	 mov	 ecx, 48			; 00000030H
  00017	b8 cc cc cc cc	 mov	 eax, -858993460		; ccccccccH
  0001c	f3 ab		 rep stosd

; 47   : 	return pThis->ThreadProc() ;

  0001e	8b 45 08	 mov	 eax, DWORD PTR _pThis$[ebp]
  00021	8b 10		 mov	 edx, DWORD PTR [eax]
  00023	8b f4		 mov	 esi, esp
  00025	8b 4d 08	 mov	 ecx, DWORD PTR _pThis$[ebp]
  00028	ff 52 04	 call	 DWORD PTR [edx+4]
  0002b	3b f4		 cmp	 esi, esp
  0002d	e8 00 00 00 00	 call	 __RTC_CheckEsp

; 48   : }

  00032	5f		 pop	 edi
  00033	5e		 pop	 esi
  00034	5b		 pop	 ebx
  00035	81 c4 c0 00 00
	00		 add	 esp, 192		; 000000c0H
  0003b	3b ec		 cmp	 ebp, esp
  0003d	e8 00 00 00 00	 call	 __RTC_CheckEsp
  00042	8b e5		 mov	 esp, ebp
  00044	5d		 pop	 ebp
  00045	c2 04 00	 ret	 4
?CThreadProc@@YGKPAVCThread@@@Z ENDP			; CThreadProc
; Function compile flags: /Odt /RTCsu /ZI
_TEXT	ENDS
;	COMDAT ?ThreadProc@CThread@@UAEKXZ
_TEXT	SEGMENT
_this$ = -8
?ThreadProc@CThread@@UAEKXZ PROC NEAR			; CThread::ThreadProc, COMDAT
; _this$ = ecx

; 51   : {

  00000	55		 push	 ebp
  00001	8b ec		 mov	 ebp, esp
  00003	81 ec cc 00 00
	00		 sub	 esp, 204		; 000000ccH
  00009	53		 push	 ebx
  0000a	56		 push	 esi
  0000b	57		 push	 edi
  0000c	51		 push	 ecx
  0000d	8d bd 34 ff ff
	ff		 lea	 edi, DWORD PTR [ebp-204]
  00013	b9 33 00 00 00	 mov	 ecx, 51			; 00000033H
  00018	b8 cc cc cc cc	 mov	 eax, -858993460		; ccccccccH
  0001d	f3 ab		 rep stosd
  0001f	59		 pop	 ecx
  00020	89 4d f8	 mov	 DWORD PTR _this$[ebp], ecx

; 52   : 	return 0 ;

  00023	33 c0		 xor	 eax, eax

; 53   : }

  00025	5f		 pop	 edi
  00026	5e		 pop	 esi
  00027	5b		 pop	 ebx
  00028	8b e5		 mov	 esp, ebp
  0002a	5d		 pop	 ebp
  0002b	c3		 ret	 0
?ThreadProc@CThread@@UAEKXZ ENDP			; CThread::ThreadProc
_TEXT	ENDS
EXTRN	__imp__WaitForSingleObject@8:NEAR
EXTRN	__imp__CloseHandle@4:NEAR
; Function compile flags: /Odt /RTCsu /ZI
;	COMDAT ?EndThreadProc@CThread@@QAEXXZ
_TEXT	SEGMENT
_this$ = -8
?EndThreadProc@CThread@@QAEXXZ PROC NEAR		; CThread::EndThreadProc, COMDAT
; _this$ = ecx

; 56   : {

  00000	55		 push	 ebp
  00001	8b ec		 mov	 ebp, esp
  00003	81 ec cc 00 00
	00		 sub	 esp, 204		; 000000ccH
  00009	53		 push	 ebx
  0000a	56		 push	 esi
  0000b	57		 push	 edi
  0000c	51		 push	 ecx
  0000d	8d bd 34 ff ff
	ff		 lea	 edi, DWORD PTR [ebp-204]
  00013	b9 33 00 00 00	 mov	 ecx, 51			; 00000033H
  00018	b8 cc cc cc cc	 mov	 eax, -858993460		; ccccccccH
  0001d	f3 ab		 rep stosd
  0001f	59		 pop	 ecx
  00020	89 4d f8	 mov	 DWORD PTR _this$[ebp], ecx

; 57   : 	if (d_threadHandle != NULL)

  00023	8b 45 f8	 mov	 eax, DWORD PTR _this$[ebp]
  00026	83 78 0c 00	 cmp	 DWORD PTR [eax+12], 0
  0002a	74 42		 je	 SHORT $L71455

; 58   : 	{
; 59   : 		d_bIsRunning = false ;

  0002c	8b 45 f8	 mov	 eax, DWORD PTR _this$[ebp]
  0002f	c6 40 08 00	 mov	 BYTE PTR [eax+8], 0

; 60   : 		WaitForSingleObject(d_threadHandle, 1000/*INFINITE*/) ;

  00033	8b f4		 mov	 esi, esp
  00035	68 e8 03 00 00	 push	 1000			; 000003e8H
  0003a	8b 45 f8	 mov	 eax, DWORD PTR _this$[ebp]
  0003d	8b 48 0c	 mov	 ecx, DWORD PTR [eax+12]
  00040	51		 push	 ecx
  00041	ff 15 00 00 00
	00		 call	 DWORD PTR __imp__WaitForSingleObject@8
  00047	3b f4		 cmp	 esi, esp
  00049	e8 00 00 00 00	 call	 __RTC_CheckEsp

; 61   : 		CloseHandle(d_threadHandle) ;

  0004e	8b f4		 mov	 esi, esp
  00050	8b 45 f8	 mov	 eax, DWORD PTR _this$[ebp]
  00053	8b 48 0c	 mov	 ecx, DWORD PTR [eax+12]
  00056	51		 push	 ecx
  00057	ff 15 00 00 00
	00		 call	 DWORD PTR __imp__CloseHandle@4
  0005d	3b f4		 cmp	 esi, esp
  0005f	e8 00 00 00 00	 call	 __RTC_CheckEsp

; 62   : 		d_threadHandle = NULL ;

  00064	8b 45 f8	 mov	 eax, DWORD PTR _this$[ebp]
  00067	c7 40 0c 00 00
	00 00		 mov	 DWORD PTR [eax+12], 0
$L71455:

; 63   : 	}
; 64   : }

  0006e	5f		 pop	 edi
  0006f	5e		 pop	 esi
  00070	5b		 pop	 ebx
  00071	81 c4 cc 00 00
	00		 add	 esp, 204		; 000000ccH
  00077	3b ec		 cmp	 ebp, esp
  00079	e8 00 00 00 00	 call	 __RTC_CheckEsp
  0007e	8b e5		 mov	 esp, ebp
  00080	5d		 pop	 ebp
  00081	c3		 ret	 0
?EndThreadProc@CThread@@QAEXXZ ENDP			; CThread::EndThreadProc
_TEXT	ENDS
END
