; Listing generated by Microsoft (R) Optimizing Compiler Version 13.00.9466 

	TITLE	CUserFighter.cpp
	.386P
include listing.inc
if @Version gt 510
.model FLAT
else
_TEXT	SEGMENT PARA USE32 PUBLIC 'CODE'
_TEXT	ENDS
_DATA	SEGMENT DWORD USE32 PUBLIC 'DATA'
_DATA	ENDS
CONST	SEGMENT DWORD USE32 PUBLIC 'CONST'
CONST	ENDS
_BSS	SEGMENT DWORD USE32 PUBLIC 'BSS'
_BSS	ENDS
$$SYMBOLS	SEGMENT BYTE USE32 'DEBSYM'
$$SYMBOLS	ENDS
$$TYPES	SEGMENT BYTE USE32 'DEBTYP'
$$TYPES	ENDS
_TLS	SEGMENT DWORD USE32 PUBLIC 'TLS'
_TLS	ENDS
;	COMDAT ??_C@_07HFNBMNBH@?$CF2d?1?$CF2d?$AA@
CONST	SEGMENT DWORD USE32 PUBLIC 'CONST'
CONST	ENDS
;	COMDAT ??_C@_0N@FJKODNIK@0?5?5?5?5?5?5?5?5?5?5?5?$AA@
CONST	SEGMENT DWORD USE32 PUBLIC 'CONST'
CONST	ENDS
;	COMDAT ??_C@_0BA@MKBKGBAK@0000?5m?1s?5?$FL000?$CF?$FN?$AA@
CONST	SEGMENT DWORD USE32 PUBLIC 'CONST'
CONST	ENDS
;	COMDAT ??_C@_08OIIELFFL@LIVES?5?$CFd?$AA@
CONST	SEGMENT DWORD USE32 PUBLIC 'CONST'
CONST	ENDS
;	COMDAT ??_C@_0CE@IODNPFGE@CUserFighter?3?3RestoreDeviceObjec@
CONST	SEGMENT DWORD USE32 PUBLIC 'CONST'
CONST	ENDS
;	COMDAT ??_C@_0EO@MJDOOBEE@c?3?2documents?5and?5settings?2dom?2my@
CONST	SEGMENT DWORD USE32 PUBLIC 'CONST'
CONST	ENDS
;	COMDAT ??_C@_0BI@JKDNLCMH@m_pScannerBackG?5?$CB?$DN?5NULL?$AA@
CONST	SEGMENT DWORD USE32 PUBLIC 'CONST'
CONST	ENDS
;	COMDAT ??_C@_0M@NKNCPJJD@?$CBFAILED?$CIhr?$CJ?$AA@
CONST	SEGMENT DWORD USE32 PUBLIC 'CONST'
CONST	ENDS
;	COMDAT ??_C@_0BG@LMFBNCIN@m_pTargetIcon?5?$CB?$DN?5NULL?$AA@
CONST	SEGMENT DWORD USE32 PUBLIC 'CONST'
CONST	ENDS
;	COMDAT ??_C@_0BF@LCAKBPM@m_pCrosshair?5?$CB?$DN?5NULL?$AA@
CONST	SEGMENT DWORD USE32 PUBLIC 'CONST'
CONST	ENDS
;	COMDAT ??_C@_0BD@LCEONFJF@m_pRedQuad?5?$CB?$DN?5NULL?$AA@
CONST	SEGMENT DWORD USE32 PUBLIC 'CONST'
CONST	ENDS
;	COMDAT ??_C@_0CH@PDFDENIF@CUserFighter?3?3InvalidateDeviceOb@
CONST	SEGMENT DWORD USE32 PUBLIC 'CONST'
CONST	ENDS
;	COMDAT ??_C@_07BMGILGBA@?5?$CF2d?1?$CFd?$AA@
CONST	SEGMENT DWORD USE32 PUBLIC 'CONST'
CONST	ENDS
;	COMDAT ??_C@_06BNFANEFB@?$CF2d?1?$CFd?$AA@
CONST	SEGMENT DWORD USE32 PUBLIC 'CONST'
CONST	ENDS
;	COMDAT ??_C@_04LLNLOACP@LIFE?$AA@
CONST	SEGMENT DWORD USE32 PUBLIC 'CONST'
CONST	ENDS
;	COMDAT ??_C@_0N@EHFONGIA@ENGINE?5BOOST?$AA@
CONST	SEGMENT DWORD USE32 PUBLIC 'CONST'
CONST	ENDS
;	COMDAT ??_C@_0N@JLIIAJGL@WEAPON?5BOOST?$AA@
CONST	SEGMENT DWORD USE32 PUBLIC 'CONST'
CONST	ENDS
;	COMDAT ??_C@_0FN@MOFEEIEI@got?5an?5item?0?5i?5was?$DN?$DN?$CFd?0?5?$EA?$CI?$CF0?41f?0@
CONST	SEGMENT DWORD USE32 PUBLIC 'CONST'
CONST	ENDS
;	COMDAT ??_C@_0L@JNFOPKEE@GAME?5OVER?$CB?$AA@
CONST	SEGMENT DWORD USE32 PUBLIC 'CONST'
CONST	ENDS
;	COMDAT ??_C@_05EOOECBPF@?$CF?912d?$AA@
CONST	SEGMENT DWORD USE32 PUBLIC 'CONST'
CONST	ENDS
;	COMDAT ??_C@_0BC@JCJDJAAO@?$CF04d?5m?1s?5?$FL?$CF03d?$CF?$CF?$FN?$AA@
CONST	SEGMENT DWORD USE32 PUBLIC 'CONST'
CONST	ENDS
;	COMDAT _IsEqualGUID
_TEXT	SEGMENT PARA USE32 PUBLIC 'CODE'
_TEXT	ENDS
;	COMDAT _==
_TEXT	SEGMENT PARA USE32 PUBLIC 'CODE'
_TEXT	ENDS
;	COMDAT _fabsf
_TEXT	SEGMENT PARA USE32 PUBLIC 'CODE'
_TEXT	ENDS
;	COMDAT _sqrtf
_TEXT	SEGMENT PARA USE32 PUBLIC 'CODE'
_TEXT	ENDS
;	COMDAT ??0D3DXVECTOR2@@QAE@XZ
_TEXT	SEGMENT PARA USE32 PUBLIC 'CODE'
_TEXT	ENDS
;	COMDAT ??0D3DXVECTOR3@@QAE@XZ
_TEXT	SEGMENT PARA USE32 PUBLIC 'CODE'
_TEXT	ENDS
;	COMDAT ??0D3DXMATRIX@@QAE@XZ
_TEXT	SEGMENT PARA USE32 PUBLIC 'CODE'
_TEXT	ENDS
;	COMDAT ??0D3DXQUATERNION@@QAE@XZ
_TEXT	SEGMENT PARA USE32 PUBLIC 'CODE'
_TEXT	ENDS
;	COMDAT ??0D3DXCOLOR@@QAE@XZ
_TEXT	SEGMENT PARA USE32 PUBLIC 'CODE'
_TEXT	ENDS
;	COMDAT ??0D3DXVECTOR2@@QAE@MM@Z
_TEXT	SEGMENT PARA USE32 PUBLIC 'CODE'
_TEXT	ENDS
;	COMDAT ??GD3DXVECTOR2@@QBE?AU0@ABU0@@Z
_TEXT	SEGMENT PARA USE32 PUBLIC 'CODE'
_TEXT	ENDS
;	COMDAT ??0D3DXVECTOR3@@QAE@MMM@Z
_TEXT	SEGMENT PARA USE32 PUBLIC 'CODE'
_TEXT	ENDS
;	COMDAT ??HD3DXVECTOR3@@QBE?AU0@ABU0@@Z
_TEXT	SEGMENT PARA USE32 PUBLIC 'CODE'
_TEXT	ENDS
;	COMDAT ??GD3DXVECTOR3@@QBE?AU0@ABU0@@Z
_TEXT	SEGMENT PARA USE32 PUBLIC 'CODE'
_TEXT	ENDS
;	COMDAT ??DD3DXVECTOR3@@QBE?AU0@M@Z
_TEXT	SEGMENT PARA USE32 PUBLIC 'CODE'
_TEXT	ENDS
;	COMDAT ??0D3DXVECTOR4@@QAE@MMMM@Z
_TEXT	SEGMENT PARA USE32 PUBLIC 'CODE'
_TEXT	ENDS
;	COMDAT ??0D3DXMATRIX@@QAE@PBM@Z
_TEXT	SEGMENT PARA USE32 PUBLIC 'CODE'
_TEXT	ENDS
;	COMDAT ??0D3DXMATRIX@@QAE@ABU_D3DMATRIX@@@Z
_TEXT	SEGMENT PARA USE32 PUBLIC 'CODE'
_TEXT	ENDS
;	COMDAT ??0D3DXMATRIX@@QAE@MMMMMMMMMMMMMMMM@Z
_TEXT	SEGMENT PARA USE32 PUBLIC 'CODE'
_TEXT	ENDS
;	COMDAT ??0D3DXQUATERNION@@QAE@MMMM@Z
_TEXT	SEGMENT PARA USE32 PUBLIC 'CODE'
_TEXT	ENDS
;	COMDAT ??0D3DXPLANE@@QAE@MMMM@Z
_TEXT	SEGMENT PARA USE32 PUBLIC 'CODE'
_TEXT	ENDS
;	COMDAT ??0D3DXCOLOR@@QAE@MMMM@Z
_TEXT	SEGMENT PARA USE32 PUBLIC 'CODE'
_TEXT	ENDS
;	COMDAT ??BD3DXCOLOR@@QBEKXZ
_TEXT	SEGMENT PARA USE32 PUBLIC 'CODE'
_TEXT	ENDS
;	COMDAT ?D3DXVec2Length@@YAMPBUD3DXVECTOR2@@@Z
_TEXT	SEGMENT PARA USE32 PUBLIC 'CODE'
_TEXT	ENDS
;	COMDAT ?D3DXVec3Length@@YAMPBUD3DXVECTOR3@@@Z
_TEXT	SEGMENT PARA USE32 PUBLIC 'CODE'
_TEXT	ENDS
;	COMDAT ??0CUserFighter@@QAE@MHHHMPAVCTerrain@@PAVCScreenOverlayManager@@PAURENDER_DATA_INFO@CFileRenderObject@@@Z
_TEXT	SEGMENT PARA USE32 PUBLIC 'CODE'
_TEXT	ENDS
;	COMDAT ??1CUserFighter@@QAE@XZ
_TEXT	SEGMENT PARA USE32 PUBLIC 'CODE'
_TEXT	ENDS
;	COMDAT ??_GCHUDText@@QAEPAXI@Z
_TEXT	SEGMENT PARA USE32 PUBLIC 'CODE'
_TEXT	ENDS
;	COMDAT ??_GCScreenOverlay@@QAEPAXI@Z
_TEXT	SEGMENT PARA USE32 PUBLIC 'CODE'
_TEXT	ENDS
;	COMDAT ?RestoreDeviceObjects@CUserFighter@@QAEJPAUIDirect3D8@@PAUIDirect3DDevice8@@PAVCScreenOverlayManager@@PAVCTextures@@M@Z
_TEXT	SEGMENT PARA USE32 PUBLIC 'CODE'
_TEXT	ENDS
;	COMDAT ?InvalidateDeviceObjects@CUserFighter@@QAEJPAUIDirect3DDevice8@@@Z
_TEXT	SEGMENT PARA USE32 PUBLIC 'CODE'
_TEXT	ENDS
;	COMDAT ??_GCHUDScaleBar@@QAEPAXI@Z
_TEXT	SEGMENT PARA USE32 PUBLIC 'CODE'
_TEXT	ENDS
;	COMDAT ?EnableHUD@CUserFighter@@QAEHH@Z
_TEXT	SEGMENT PARA USE32 PUBLIC 'CODE'
_TEXT	ENDS
;	COMDAT ?DetectAndHandleItemCollisions@CUserFighter@@QAEHPAUD3DXVECTOR3@@0PAVCTerrain@@PAVCRace@@@Z
_TEXT	SEGMENT PARA USE32 PUBLIC 'CODE'
_TEXT	ENDS
;	COMDAT ?FrameMove@CUserFighter@@QAEHPAUIDirect3DDevice8@@PAVCUserInput@@MPAVCCamera@@PAUD3DXMATRIX@@PAU_D3DVIEWPORT8@@HHPAVCTerrain@@HMHPAVCRace@@@Z
_TEXT	SEGMENT PARA USE32 PUBLIC 'CODE'
_TEXT	ENDS
;	COMDAT ?FrameMoveSpaceScanner@CUserFighter@@QAEXPAVCTerrain@@PAVCRace@@@Z
_TEXT	SEGMENT PARA USE32 PUBLIC 'CODE'
_TEXT	ENDS
;	COMDAT ??_H@YGXPAXIHP6EPAX0@Z@Z
_TEXT	SEGMENT PARA USE32 PUBLIC 'CODE'
_TEXT	ENDS
;	COMDAT ?RenderHUD@CUserFighter@@QAEJPAUIDirect3DDevice8@@PAVCTextures@@PAKHPAUD3DXMATRIX@@PAVCCamera@@PAVCScreenOverlayManager@@PAVCRace@@M@Z
_TEXT	SEGMENT PARA USE32 PUBLIC 'CODE'
_TEXT	ENDS
;	COMDAT ?__LINE__Var@?1??RenderHUD@CUserFighter@@QAEJPAUIDirect3DDevice8@@PAVCTextures@@PAKHPAUD3DXMATRIX@@PAVCCamera@@PAVCScreenOverlayManager@@PAVCRace@@M@Z@4JA
_DATA	SEGMENT DWORD USE32 PUBLIC 'DATA'
_DATA	ENDS
;	COMDAT ?__LINE__Var@?1??FrameMoveSpaceScanner@CUserFighter@@QAEXPAVCTerrain@@PAVCRace@@@Z@4JA
_DATA	SEGMENT DWORD USE32 PUBLIC 'DATA'
_DATA	ENDS
;	COMDAT ?__LINE__Var@?1??RestoreDeviceObjects@CUserFighter@@QAEJPAUIDirect3D8@@PAUIDirect3DDevice8@@PAVCScreenOverlayManager@@PAVCTextures@@M@Z@4JA
_DATA	SEGMENT DWORD USE32 PUBLIC 'DATA'
_DATA	ENDS
FLAT	GROUP _DATA, CONST, _BSS
	ASSUME	CS: FLAT, DS: FLAT, SS: FLAT
endif

INCLUDELIB LIBCMTD
INCLUDELIB OLDNAMES

CONST	SEGMENT
_g_PI	DD	040490fdbr			; 3.14159
_g_PI_DIV_2 DD	03fc90fdbr			; 1.5708
CONST	ENDS
PUBLIC	__real@3f19999a
PUBLIC	__real@3f000000
PUBLIC	??0CUserFighter@@QAE@MHHHMPAVCTerrain@@PAVCScreenOverlayManager@@PAURENDER_DATA_INFO@CFileRenderObject@@@Z ; CUserFighter::CUserFighter
PUBLIC	??_C@_07HFNBMNBH@?$CF2d?1?$CF2d?$AA@		; `string'
PUBLIC	??_C@_0N@FJKODNIK@0?5?5?5?5?5?5?5?5?5?5?5?$AA@	; `string'
PUBLIC	??_C@_0BA@MKBKGBAK@0000?5m?1s?5?$FL000?$CF?$FN?$AA@ ; `string'
PUBLIC	??_C@_08OIIELFFL@LIVES?5?$CFd?$AA@		; `string'
PUBLIC	??0D3DXVECTOR2@@QAE@XZ				; D3DXVECTOR2::D3DXVECTOR2
PUBLIC	??0D3DXVECTOR2@@QAE@MM@Z			; D3DXVECTOR2::D3DXVECTOR2
PUBLIC	__real@3f800000
PUBLIC	__real@42c80000
PUBLIC	__real@41200000
PUBLIC	__real@40800000
PUBLIC	__real@3ecccccd
EXTRN	___security_cookie:DWORD
EXTRN	@_RTC_CheckStackVars@8:NEAR
EXTRN	@__security_check_cookie@4:NEAR
EXTRN	__RTC_CheckEsp:NEAR
EXTRN	__fltused:NEAR
EXTRN	??0CFighter@@QAE@MHMPAURENDER_DATA_INFO@CFileRenderObject@@H@Z:NEAR ; CFighter::CFighter
EXTRN	??2@YAPAXI@Z:NEAR				; operator new
EXTRN	_sprintf:NEAR
EXTRN	??0CHUDText@@QAE@PADHMMMMMH@Z:NEAR		; CHUDText::CHUDText
EXTRN	__RTC_InitBase:NEAR
EXTRN	__RTC_Shutdown:NEAR
;	COMDAT rtc$IMZ
; File c:\documents and settings\dom\my documents\_dev\ae\xlr8a\x7g\cuserfighter.cpp
rtc$IMZ	SEGMENT
__RTC_InitBase.rtc$IMZ DD FLAT:__RTC_InitBase
rtc$IMZ	ENDS
;	COMDAT rtc$TMZ
rtc$TMZ	SEGMENT
__RTC_Shutdown.rtc$TMZ DD FLAT:__RTC_Shutdown
rtc$TMZ	ENDS
;	COMDAT __real@3f800000
CONST	SEGMENT
__real@3f800000 DD 03f800000r			; 1
CONST	ENDS
;	COMDAT __real@42c80000
CONST	SEGMENT
__real@42c80000 DD 042c80000r			; 100
CONST	ENDS
;	COMDAT __real@41200000
CONST	SEGMENT
__real@41200000 DD 041200000r			; 10
CONST	ENDS
;	COMDAT ??_C@_07HFNBMNBH@?$CF2d?1?$CF2d?$AA@
CONST	SEGMENT
??_C@_07HFNBMNBH@?$CF2d?1?$CF2d?$AA@ DB '%2d/%2d', 00H	; `string'
CONST	ENDS
;	COMDAT __real@40800000
CONST	SEGMENT
__real@40800000 DD 040800000r			; 4
CONST	ENDS
;	COMDAT __real@3ecccccd
CONST	SEGMENT
__real@3ecccccd DD 03ecccccdr			; 0.4
CONST	ENDS
;	COMDAT ??_C@_0N@FJKODNIK@0?5?5?5?5?5?5?5?5?5?5?5?$AA@
CONST	SEGMENT
??_C@_0N@FJKODNIK@0?5?5?5?5?5?5?5?5?5?5?5?$AA@ DB '0           ', 00H ; `string'
CONST	ENDS
;	COMDAT ??_C@_0BA@MKBKGBAK@0000?5m?1s?5?$FL000?$CF?$FN?$AA@
CONST	SEGMENT
??_C@_0BA@MKBKGBAK@0000?5m?1s?5?$FL000?$CF?$FN?$AA@ DB '0000 m/s [000%]', 00H ; `string'
CONST	ENDS
;	COMDAT ??_C@_08OIIELFFL@LIVES?5?$CFd?$AA@
CONST	SEGMENT
??_C@_08OIIELFFL@LIVES?5?$CFd?$AA@ DB 'LIVES %d', 00H	; `string'
CONST	ENDS
;	COMDAT __real@3f19999a
CONST	SEGMENT
__real@3f19999a DD 03f19999ar			; 0.6
CONST	ENDS
;	COMDAT __real@3f000000
CONST	SEGMENT
__real@3f000000 DD 03f000000r			; 0.5
; Function compile flags: /Odt /RTCsu /ZI
CONST	ENDS
;	COMDAT ??0CUserFighter@@QAE@MHHHMPAVCTerrain@@PAVCScreenOverlayManager@@PAURENDER_DATA_INFO@CFileRenderObject@@@Z
_TEXT	SEGMENT
tv210 = -552
tv188 = -552
tv172 = -552
tv156 = -552
$T94191 = -544
$T94188 = -528
$T94185 = -516
$T94182 = -504
$T94179 = -492
_sz$ = -288
_fCharSize$ = -24
_this$ = -12
__$ArrayPad$ = -4
__$ReturnAddr$ = 4
_fSkill$ = 8
_nLevel$ = 12
_nLives$ = 16
_ftType$ = 20
_fMyBSRadius$ = 24
_pTerrain$ = 28
_pOM$ = 32
_pSharedRenderData$ = 36
??0CUserFighter@@QAE@MHHHMPAVCTerrain@@PAVCScreenOverlayManager@@PAURENDER_DATA_INFO@CFileRenderObject@@@Z PROC NEAR ; CUserFighter::CUserFighter, COMDAT
; _this$ = ecx

; 19   : 	{

  00000	55		 push	 ebp
  00001	8b ec		 mov	 ebp, esp
  00003	81 ec 28 02 00
	00		 sub	 esp, 552		; 00000228H
  00009	53		 push	 ebx
  0000a	56		 push	 esi
  0000b	57		 push	 edi
  0000c	51		 push	 ecx
  0000d	8d bd d8 fd ff
	ff		 lea	 edi, DWORD PTR [ebp-552]
  00013	b9 8a 00 00 00	 mov	 ecx, 138		; 0000008aH
  00018	b8 cc cc cc cc	 mov	 eax, -858993460		; ccccccccH
  0001d	f3 ab		 rep stosd
  0001f	59		 pop	 ecx
  00020	a1 00 00 00 00	 mov	 eax, DWORD PTR ___security_cookie
  00025	33 45 04	 xor	 eax, DWORD PTR __$ReturnAddr$[ebp]
  00028	89 45 fc	 mov	 DWORD PTR __$ArrayPad$[ebp], eax
  0002b	89 4d f4	 mov	 DWORD PTR _this$[ebp], ecx
  0002e	6a 01		 push	 1
  00030	8b 45 24	 mov	 eax, DWORD PTR _pSharedRenderData$[ebp]
  00033	50		 push	 eax
  00034	8b 4d 18	 mov	 ecx, DWORD PTR _fMyBSRadius$[ebp]
  00037	51		 push	 ecx
  00038	8b 55 14	 mov	 edx, DWORD PTR _ftType$[ebp]
  0003b	52		 push	 edx
  0003c	8b 45 08	 mov	 eax, DWORD PTR _fSkill$[ebp]
  0003f	50		 push	 eax
  00040	8b 4d f4	 mov	 ecx, DWORD PTR _this$[ebp]
  00043	e8 00 00 00 00	 call	 ??0CFighter@@QAE@MHMPAURENDER_DATA_INFO@CFileRenderObject@@H@Z ; CFighter::CFighter
  00048	8b 4d f4	 mov	 ecx, DWORD PTR _this$[ebp]
  0004b	81 c1 a0 03 00
	00		 add	 ecx, 928		; 000003a0H
  00051	e8 00 00 00 00	 call	 ??0D3DXVECTOR2@@QAE@XZ	; D3DXVECTOR2::D3DXVECTOR2

; 20   : 	//
; 21   : 	// Skill Modifier:
; 22   : 	//
; 23   : 		m_fEngineLevel = 0.35f ; 

  00056	8b 45 f4	 mov	 eax, DWORD PTR _this$[ebp]
  00059	c7 80 10 03 00
	00 33 33 b3 3e	 mov	 DWORD PTR [eax+784], 1051931443 ; 3eb33333H

; 24   : 		m_fMaxThrustMag *= 1 + fSkill ;

  00063	d9 05 00 00 00
	00		 fld	 DWORD PTR __real@3f800000
  00069	d8 45 08	 fadd	 DWORD PTR _fSkill$[ebp]
  0006c	8b 45 f4	 mov	 eax, DWORD PTR _this$[ebp]
  0006f	d8 88 b4 01 00
	00		 fmul	 DWORD PTR [eax+436]
  00075	8b 4d f4	 mov	 ecx, DWORD PTR _this$[ebp]
  00078	d9 99 b4 01 00
	00		 fstp	 DWORD PTR [ecx+436]

; 25   : 
; 26   : 	//
; 27   : 	// Terrain Force:
; 28   : 	//
; 29   : 		m_fMaxTerrainForce = m_fMaxThrustMag / 100 ;

  0007e	8b 45 f4	 mov	 eax, DWORD PTR _this$[ebp]
  00081	d9 80 b4 01 00
	00		 fld	 DWORD PTR [eax+436]
  00087	d8 35 00 00 00
	00		 fdiv	 DWORD PTR __real@42c80000
  0008d	8b 4d f4	 mov	 ecx, DWORD PTR _this$[ebp]
  00090	d9 99 00 03 00
	00		 fstp	 DWORD PTR [ecx+768]

; 30   : 		m_fTerrainForceBalanceAltitude = fMyBSRadius * 10 ;

  00096	d9 45 18	 fld	 DWORD PTR _fMyBSRadius$[ebp]
  00099	d8 0d 00 00 00
	00		 fmul	 DWORD PTR __real@41200000
  0009f	8b 45 f4	 mov	 eax, DWORD PTR _this$[ebp]
  000a2	d9 98 04 03 00
	00		 fstp	 DWORD PTR [eax+772]

; 31   : 
; 32   : 	//
; 33   : 	// Misc.
; 34   : 	//
; 35   : 		m_bUserFighter = TRUE ;

  000a8	8b 45 f4	 mov	 eax, DWORD PTR _this$[ebp]
  000ab	c7 80 1c 03 00
	00 01 00 00 00	 mov	 DWORD PTR [eax+796], 1

; 36   : 
; 37   : 		m_pOM = pOM ;

  000b5	8b 45 f4	 mov	 eax, DWORD PTR _this$[ebp]
  000b8	8b 4d 20	 mov	 ecx, DWORD PTR _pOM$[ebp]
  000bb	89 88 48 03 00
	00		 mov	 DWORD PTR [eax+840], ecx

; 38   : 		m_fScoreAddition = 0 ;

  000c1	8b 45 f4	 mov	 eax, DWORD PTR _this$[ebp]
  000c4	c7 80 4c 03 00
	00 00 00 00 00	 mov	 DWORD PTR [eax+844], 0

; 39   : 		m_fTimeInScoreZone = 0 ;

  000ce	8b 45 f4	 mov	 eax, DWORD PTR _this$[ebp]
  000d1	c7 80 54 03 00
	00 00 00 00 00	 mov	 DWORD PTR [eax+852], 0

; 40   : 		m_nCherries = 0 ;

  000db	8b 45 f4	 mov	 eax, DWORD PTR _this$[ebp]
  000de	c7 80 58 03 00
	00 00 00 00 00	 mov	 DWORD PTR [eax+856], 0

; 41   : 		m_bGameOver = FALSE ;

  000e8	8b 45 f4	 mov	 eax, DWORD PTR _this$[ebp]
  000eb	c7 80 5c 03 00
	00 00 00 00 00	 mov	 DWORD PTR [eax+860], 0

; 42   : 
; 43   : 	//
; 44   : 	// HUD screen overlays:
; 45   : 	//
; 46   : 		m_pHUDShieldLevel = NULL ;

  000f5	8b 45 f4	 mov	 eax, DWORD PTR _this$[ebp]
  000f8	c7 80 60 03 00
	00 00 00 00 00	 mov	 DWORD PTR [eax+864], 0

; 47   : 		m_pHUDShieldBackG = NULL ;

  00102	8b 45 f4	 mov	 eax, DWORD PTR _this$[ebp]
  00105	c7 80 64 03 00
	00 00 00 00 00	 mov	 DWORD PTR [eax+868], 0

; 48   : 		m_pHUDWeaponsLevel = NULL ;

  0010f	8b 45 f4	 mov	 eax, DWORD PTR _this$[ebp]
  00112	c7 80 68 03 00
	00 00 00 00 00	 mov	 DWORD PTR [eax+872], 0

; 49   : 		m_pHUDWeaponsBackG = NULL ;

  0011c	8b 45 f4	 mov	 eax, DWORD PTR _this$[ebp]
  0011f	c7 80 6c 03 00
	00 00 00 00 00	 mov	 DWORD PTR [eax+876], 0

; 50   : 		m_pHUDEngineLevel = NULL ;

  00129	8b 45 f4	 mov	 eax, DWORD PTR _this$[ebp]
  0012c	c7 80 70 03 00
	00 00 00 00 00	 mov	 DWORD PTR [eax+880], 0

; 51   : 		m_pHUDEngineBackG = NULL ;

  00136	8b 45 f4	 mov	 eax, DWORD PTR _this$[ebp]
  00139	c7 80 74 03 00
	00 00 00 00 00	 mov	 DWORD PTR [eax+884], 0

; 52   : 
; 53   : 		float fCharSize ;
; 54   : 		
; 55   : 		m_pHUDSpeed = NULL ;

  00143	8b 45 f4	 mov	 eax, DWORD PTR _this$[ebp]
  00146	c7 80 78 03 00
	00 00 00 00 00	 mov	 DWORD PTR [eax+888], 0

; 56   : 		m_pHUDScore = NULL ;

  00150	8b 45 f4	 mov	 eax, DWORD PTR _this$[ebp]
  00153	c7 80 7c 03 00
	00 00 00 00 00	 mov	 DWORD PTR [eax+892], 0

; 57   : 		m_pHUDItems = NULL ;

  0015d	8b 45 f4	 mov	 eax, DWORD PTR _this$[ebp]
  00160	c7 80 80 03 00
	00 00 00 00 00	 mov	 DWORD PTR [eax+896], 0

; 58   : 		m_pHUDLives = NULL ;

  0016a	8b 45 f4	 mov	 eax, DWORD PTR _this$[ebp]
  0016d	c7 80 84 03 00
	00 00 00 00 00	 mov	 DWORD PTR [eax+900], 0

; 59   : 
; 60   : 		char sz[256] ;
; 61   : 		fCharSize = 0.035f ;

  00177	c7 45 e8 29 5c
	0f 3d		 mov	 DWORD PTR _fCharSize$[ebp], 1024416809 ; 3d0f5c29H

; 62   : 		sprintf(sz, "%2d/%2d", m_nCherries, pTerrain->m_nCherries );

  0017e	8b 45 1c	 mov	 eax, DWORD PTR _pTerrain$[ebp]
  00181	8b 48 70	 mov	 ecx, DWORD PTR [eax+112]
  00184	51		 push	 ecx
  00185	8b 55 f4	 mov	 edx, DWORD PTR _this$[ebp]
  00188	8b 82 58 03 00
	00		 mov	 eax, DWORD PTR [edx+856]
  0018e	50		 push	 eax
  0018f	68 00 00 00 00	 push	 OFFSET FLAT:??_C@_07HFNBMNBH@?$CF2d?1?$CF2d?$AA@
  00194	8d 8d e0 fe ff
	ff		 lea	 ecx, DWORD PTR _sz$[ebp]
  0019a	51		 push	 ecx
  0019b	e8 00 00 00 00	 call	 _sprintf
  001a0	83 c4 10	 add	 esp, 16			; 00000010H

; 63   : 		m_pHUDScore = new CHUDText( "0           ",	   HUD_TEX_START + 0, 0.0f, 0.0f, fCharSize*4, fCharSize*4, fCharSize*4 * 0.4f, OT_HUD_STRING4 );

  001a3	68 2c 01 00 00	 push	 300			; 0000012cH
  001a8	e8 00 00 00 00	 call	 ??2@YAPAXI@Z		; operator new
  001ad	83 c4 04	 add	 esp, 4
  001b0	89 85 14 fe ff
	ff		 mov	 DWORD PTR $T94179[ebp], eax
  001b6	83 bd 14 fe ff
	ff 00		 cmp	 DWORD PTR $T94179[ebp], 0
  001bd	74 50		 je	 SHORT $L94180
  001bf	6a 05		 push	 5
  001c1	d9 45 e8	 fld	 DWORD PTR _fCharSize$[ebp]
  001c4	d8 0d 00 00 00
	00		 fmul	 DWORD PTR __real@40800000
  001ca	d8 0d 00 00 00
	00		 fmul	 DWORD PTR __real@3ecccccd
  001d0	51		 push	 ecx
  001d1	d9 1c 24	 fstp	 DWORD PTR [esp]
  001d4	d9 45 e8	 fld	 DWORD PTR _fCharSize$[ebp]
  001d7	d8 0d 00 00 00
	00		 fmul	 DWORD PTR __real@40800000
  001dd	51		 push	 ecx
  001de	d9 1c 24	 fstp	 DWORD PTR [esp]
  001e1	d9 45 e8	 fld	 DWORD PTR _fCharSize$[ebp]
  001e4	d8 0d 00 00 00
	00		 fmul	 DWORD PTR __real@40800000
  001ea	51		 push	 ecx
  001eb	d9 1c 24	 fstp	 DWORD PTR [esp]
  001ee	6a 00		 push	 0
  001f0	6a 00		 push	 0
  001f2	68 c8 00 00 00	 push	 200			; 000000c8H
  001f7	68 00 00 00 00	 push	 OFFSET FLAT:??_C@_0N@FJKODNIK@0?5?5?5?5?5?5?5?5?5?5?5?$AA@
  001fc	8b 8d 14 fe ff
	ff		 mov	 ecx, DWORD PTR $T94179[ebp]
  00202	e8 00 00 00 00	 call	 ??0CHUDText@@QAE@PADHMMMMMH@Z ; CHUDText::CHUDText
  00207	89 85 d8 fd ff
	ff		 mov	 DWORD PTR tv156[ebp], eax
  0020d	eb 0a		 jmp	 SHORT $L94181
$L94180:
  0020f	c7 85 d8 fd ff
	ff 00 00 00 00	 mov	 DWORD PTR tv156[ebp], 0
$L94181:
  00219	8b 45 f4	 mov	 eax, DWORD PTR _this$[ebp]
  0021c	8b 8d d8 fd ff
	ff		 mov	 ecx, DWORD PTR tv156[ebp]
  00222	89 88 7c 03 00
	00		 mov	 DWORD PTR [eax+892], ecx

; 64   : 		m_pHUDSpeed = new CHUDText( "0000 m/s [000%]", HUD_TEX_START + 0, 0.4f, 0.825f + 0.0525f * 1, fCharSize, fCharSize, fCharSize * 0.4f, OT_HUD_STRING3 );

  00228	68 2c 01 00 00	 push	 300			; 0000012cH
  0022d	e8 00 00 00 00	 call	 ??2@YAPAXI@Z		; operator new
  00232	83 c4 04	 add	 esp, 4
  00235	89 85 08 fe ff
	ff		 mov	 DWORD PTR $T94182[ebp], eax
  0023b	83 bd 08 fe ff
	ff 00		 cmp	 DWORD PTR $T94182[ebp], 0
  00242	74 3e		 je	 SHORT $L94183
  00244	6a 04		 push	 4
  00246	d9 45 e8	 fld	 DWORD PTR _fCharSize$[ebp]
  00249	d8 0d 00 00 00
	00		 fmul	 DWORD PTR __real@3ecccccd
  0024f	51		 push	 ecx
  00250	d9 1c 24	 fstp	 DWORD PTR [esp]
  00253	8b 45 e8	 mov	 eax, DWORD PTR _fCharSize$[ebp]
  00256	50		 push	 eax
  00257	8b 4d e8	 mov	 ecx, DWORD PTR _fCharSize$[ebp]
  0025a	51		 push	 ecx
  0025b	68 d7 a3 60 3f	 push	 1063298007		; 3f60a3d7H
  00260	68 cd cc cc 3e	 push	 1053609165		; 3ecccccdH
  00265	68 c8 00 00 00	 push	 200			; 000000c8H
  0026a	68 00 00 00 00	 push	 OFFSET FLAT:??_C@_0BA@MKBKGBAK@0000?5m?1s?5?$FL000?$CF?$FN?$AA@
  0026f	8b 8d 08 fe ff
	ff		 mov	 ecx, DWORD PTR $T94182[ebp]
  00275	e8 00 00 00 00	 call	 ??0CHUDText@@QAE@PADHMMMMMH@Z ; CHUDText::CHUDText
  0027a	89 85 d8 fd ff
	ff		 mov	 DWORD PTR tv172[ebp], eax
  00280	eb 0a		 jmp	 SHORT $L94184
$L94183:
  00282	c7 85 d8 fd ff
	ff 00 00 00 00	 mov	 DWORD PTR tv172[ebp], 0
$L94184:
  0028c	8b 55 f4	 mov	 edx, DWORD PTR _this$[ebp]
  0028f	8b 85 d8 fd ff
	ff		 mov	 eax, DWORD PTR tv172[ebp]
  00295	89 82 78 03 00
	00		 mov	 DWORD PTR [edx+888], eax

; 65   : 		m_pHUDItems = new CHUDText( sz,				   HUD_TEX_START + 0, 0.4f, 0.825f + 0.0525f * 2, fCharSize, fCharSize, fCharSize * 0.4f, OT_HUD_STRING3 );

  0029b	68 2c 01 00 00	 push	 300			; 0000012cH
  002a0	e8 00 00 00 00	 call	 ??2@YAPAXI@Z		; operator new
  002a5	83 c4 04	 add	 esp, 4
  002a8	89 85 fc fd ff
	ff		 mov	 DWORD PTR $T94185[ebp], eax
  002ae	83 bd fc fd ff
	ff 00		 cmp	 DWORD PTR $T94185[ebp], 0
  002b5	74 40		 je	 SHORT $L94186
  002b7	6a 04		 push	 4
  002b9	d9 45 e8	 fld	 DWORD PTR _fCharSize$[ebp]
  002bc	d8 0d 00 00 00
	00		 fmul	 DWORD PTR __real@3ecccccd
  002c2	51		 push	 ecx
  002c3	d9 1c 24	 fstp	 DWORD PTR [esp]
  002c6	8b 45 e8	 mov	 eax, DWORD PTR _fCharSize$[ebp]
  002c9	50		 push	 eax
  002ca	8b 4d e8	 mov	 ecx, DWORD PTR _fCharSize$[ebp]
  002cd	51		 push	 ecx
  002ce	68 7b 14 6e 3f	 push	 1064178811		; 3f6e147bH
  002d3	68 cd cc cc 3e	 push	 1053609165		; 3ecccccdH
  002d8	68 c8 00 00 00	 push	 200			; 000000c8H
  002dd	8d 95 e0 fe ff
	ff		 lea	 edx, DWORD PTR _sz$[ebp]
  002e3	52		 push	 edx
  002e4	8b 8d fc fd ff
	ff		 mov	 ecx, DWORD PTR $T94185[ebp]
  002ea	e8 00 00 00 00	 call	 ??0CHUDText@@QAE@PADHMMMMMH@Z ; CHUDText::CHUDText
  002ef	89 85 d8 fd ff
	ff		 mov	 DWORD PTR tv188[ebp], eax
  002f5	eb 0a		 jmp	 SHORT $L94187
$L94186:
  002f7	c7 85 d8 fd ff
	ff 00 00 00 00	 mov	 DWORD PTR tv188[ebp], 0
$L94187:
  00301	8b 45 f4	 mov	 eax, DWORD PTR _this$[ebp]
  00304	8b 8d d8 fd ff
	ff		 mov	 ecx, DWORD PTR tv188[ebp]
  0030a	89 88 80 03 00
	00		 mov	 DWORD PTR [eax+896], ecx

; 66   : 
; 67   : 		fCharSize = 0.05f ;

  00310	c7 45 e8 cd cc
	4c 3d		 mov	 DWORD PTR _fCharSize$[ebp], 1028443341 ; 3d4ccccdH

; 68   : 		sprintf( sz, "LIVES %d", nLives );

  00317	8b 45 10	 mov	 eax, DWORD PTR _nLives$[ebp]
  0031a	50		 push	 eax
  0031b	68 00 00 00 00	 push	 OFFSET FLAT:??_C@_08OIIELFFL@LIVES?5?$CFd?$AA@
  00320	8d 8d e0 fe ff
	ff		 lea	 ecx, DWORD PTR _sz$[ebp]
  00326	51		 push	 ecx
  00327	e8 00 00 00 00	 call	 _sprintf
  0032c	83 c4 0c	 add	 esp, 12			; 0000000cH

; 69   : 		m_pHUDLives = new CHUDText( sz, HUD_TEX_START + 0, 0.5f - fCharSize * 0.6f * 4, 0, fCharSize, fCharSize, fCharSize * 0.4f, OT_HUD_STRING1 );

  0032f	68 2c 01 00 00	 push	 300			; 0000012cH
  00334	e8 00 00 00 00	 call	 ??2@YAPAXI@Z		; operator new
  00339	83 c4 04	 add	 esp, 4
  0033c	89 85 f0 fd ff
	ff		 mov	 DWORD PTR $T94188[ebp], eax
  00342	83 bd f0 fd ff
	ff 00		 cmp	 DWORD PTR $T94188[ebp], 0
  00349	74 51		 je	 SHORT $L94189
  0034b	6a 02		 push	 2
  0034d	d9 45 e8	 fld	 DWORD PTR _fCharSize$[ebp]
  00350	d8 0d 00 00 00
	00		 fmul	 DWORD PTR __real@3ecccccd
  00356	51		 push	 ecx
  00357	d9 1c 24	 fstp	 DWORD PTR [esp]
  0035a	8b 45 e8	 mov	 eax, DWORD PTR _fCharSize$[ebp]
  0035d	50		 push	 eax
  0035e	8b 4d e8	 mov	 ecx, DWORD PTR _fCharSize$[ebp]
  00361	51		 push	 ecx
  00362	6a 00		 push	 0
  00364	d9 45 e8	 fld	 DWORD PTR _fCharSize$[ebp]
  00367	d8 0d 00 00 00
	00		 fmul	 DWORD PTR __real@3f19999a
  0036d	d8 0d 00 00 00
	00		 fmul	 DWORD PTR __real@40800000
  00373	d8 2d 00 00 00
	00		 fsubr	 DWORD PTR __real@3f000000
  00379	51		 push	 ecx
  0037a	d9 1c 24	 fstp	 DWORD PTR [esp]
  0037d	68 c8 00 00 00	 push	 200			; 000000c8H
  00382	8d 95 e0 fe ff
	ff		 lea	 edx, DWORD PTR _sz$[ebp]
  00388	52		 push	 edx
  00389	8b 8d f0 fd ff
	ff		 mov	 ecx, DWORD PTR $T94188[ebp]
  0038f	e8 00 00 00 00	 call	 ??0CHUDText@@QAE@PADHMMMMMH@Z ; CHUDText::CHUDText
  00394	89 85 d8 fd ff
	ff		 mov	 DWORD PTR tv210[ebp], eax
  0039a	eb 0a		 jmp	 SHORT $L94190
$L94189:
  0039c	c7 85 d8 fd ff
	ff 00 00 00 00	 mov	 DWORD PTR tv210[ebp], 0
$L94190:
  003a6	8b 45 f4	 mov	 eax, DWORD PTR _this$[ebp]
  003a9	8b 8d d8 fd ff
	ff		 mov	 ecx, DWORD PTR tv210[ebp]
  003af	89 88 84 03 00
	00		 mov	 DWORD PTR [eax+900], ecx

; 70   : 
; 71   : 	//
; 72   : 	// HUD SpaceScanner:
; 73   : 	//
; 74   : 		m_pScannerBackG = NULL ;

  003b5	8b 45 f4	 mov	 eax, DWORD PTR _this$[ebp]
  003b8	c7 80 8c 03 00
	00 00 00 00 00	 mov	 DWORD PTR [eax+908], 0

; 75   : 		m_pVB_Scanner = NULL ;

  003c2	8b 45 f4	 mov	 eax, DWORD PTR _this$[ebp]
  003c5	c7 80 94 03 00
	00 00 00 00 00	 mov	 DWORD PTR [eax+916], 0

; 76   : 		m_nScannerPoints = 0 ;

  003cf	8b 45 f4	 mov	 eax, DWORD PTR _this$[ebp]
  003d2	c7 80 90 03 00
	00 00 00 00 00	 mov	 DWORD PTR [eax+912], 0

; 77   : 		m_fScannerRot = 0.0f ;

  003dc	8b 45 f4	 mov	 eax, DWORD PTR _this$[ebp]
  003df	c7 80 98 03 00
	00 00 00 00 00	 mov	 DWORD PTR [eax+920], 0

; 78   : 		m_fScannerSize = 0.25f ;

  003e9	8b 45 f4	 mov	 eax, DWORD PTR _this$[ebp]
  003ec	c7 80 9c 03 00
	00 00 00 80 3e	 mov	 DWORD PTR [eax+924], 1048576000 ; 3e800000H

; 79   : 		m_vScannerPos = xVec2( 0.35f, -0.35f );

  003f6	68 33 33 b3 be	 push	 -1095552205		; beb33333H
  003fb	68 33 33 b3 3e	 push	 1051931443		; 3eb33333H
  00400	8d 8d e0 fd ff
	ff		 lea	 ecx, DWORD PTR $T94191[ebp]
  00406	e8 00 00 00 00	 call	 ??0D3DXVECTOR2@@QAE@MM@Z ; D3DXVECTOR2::D3DXVECTOR2
  0040b	8b 08		 mov	 ecx, DWORD PTR [eax]
  0040d	8b 50 04	 mov	 edx, DWORD PTR [eax+4]
  00410	8b 45 f4	 mov	 eax, DWORD PTR _this$[ebp]
  00413	89 88 a0 03 00
	00		 mov	 DWORD PTR [eax+928], ecx
  00419	89 90 a4 03 00
	00		 mov	 DWORD PTR [eax+932], edx

; 80   : 
; 81   : 	//
; 82   : 	// HUD target icon:
; 83   : 	//
; 84   : 		m_pTargetIcon = NULL ;

  0041f	8b 45 f4	 mov	 eax, DWORD PTR _this$[ebp]
  00422	c7 80 a8 03 00
	00 00 00 00 00	 mov	 DWORD PTR [eax+936], 0

; 85   : 		m_fTargetIconMinSize = 0.5f ;

  0042c	8b 45 f4	 mov	 eax, DWORD PTR _this$[ebp]
  0042f	c7 80 ac 03 00
	00 00 00 00 3f	 mov	 DWORD PTR [eax+940], 1056964608 ; 3f000000H

; 86   : 		m_fTargetIconMaxSize = 1.0f ;

  00439	8b 45 f4	 mov	 eax, DWORD PTR _this$[ebp]
  0043c	c7 80 b0 03 00
	00 00 00 80 3f	 mov	 DWORD PTR [eax+944], 1065353216 ; 3f800000H

; 87   : 
; 88   : 	//
; 89   : 	// HUD crosshair:
; 90   : 	//
; 91   : 		m_pCrosshair = NULL ;

  00446	8b 45 f4	 mov	 eax, DWORD PTR _this$[ebp]
  00449	c7 80 b4 03 00
	00 00 00 00 00	 mov	 DWORD PTR [eax+948], 0

; 92   : 
; 93   : 	//
; 94   : 	// HUD pain:
; 95   : 	//
; 96   : 		m_pRedQuad = NULL ;

  00453	8b 45 f4	 mov	 eax, DWORD PTR _this$[ebp]
  00456	c7 80 88 03 00
	00 00 00 00 00	 mov	 DWORD PTR [eax+904], 0

; 97   : 
; 98   : 	//
; 99   : 	// HUD Misc. text:
; 100  : 	//
; 101  : 		m_bShowingHUDText = false ;

  00460	8b 45 f4	 mov	 eax, DWORD PTR _this$[ebp]
  00463	c6 80 08 04 00
	00 00		 mov	 BYTE PTR [eax+1032], 0

; 102  : 		m_fHUDTextAge = 0 ;

  0046a	8b 45 f4	 mov	 eax, DWORD PTR _this$[ebp]
  0046d	c7 80 10 04 00
	00 00 00 00 00	 mov	 DWORD PTR [eax+1040], 0

; 103  : 		m_fHUDTextLifespan = 0 ;

  00477	8b 45 f4	 mov	 eax, DWORD PTR _this$[ebp]
  0047a	c7 80 0c 04 00
	00 00 00 00 00	 mov	 DWORD PTR [eax+1036], 0

; 104  : 	}

  00484	8b 45 f4	 mov	 eax, DWORD PTR _this$[ebp]
  00487	52		 push	 edx
  00488	8b cd		 mov	 ecx, ebp
  0048a	50		 push	 eax
  0048b	8d 15 00 00 00
	00		 lea	 edx, DWORD PTR $L94216
  00491	e8 00 00 00 00	 call	 @_RTC_CheckStackVars@8
  00496	58		 pop	 eax
  00497	5a		 pop	 edx
  00498	8b 4d fc	 mov	 ecx, DWORD PTR __$ArrayPad$[ebp]
  0049b	33 4d 04	 xor	 ecx, DWORD PTR __$ReturnAddr$[ebp]
  0049e	e8 00 00 00 00	 call	 @__security_check_cookie@4
  004a3	5f		 pop	 edi
  004a4	5e		 pop	 esi
  004a5	5b		 pop	 ebx
  004a6	81 c4 28 02 00
	00		 add	 esp, 552		; 00000228H
  004ac	3b ec		 cmp	 ebp, esp
  004ae	e8 00 00 00 00	 call	 __RTC_CheckEsp
  004b3	8b e5		 mov	 esp, ebp
  004b5	5d		 pop	 ebp
  004b6	c2 20 00	 ret	 32			; 00000020H
$L94216:
  004b9	01 00 00 00	 DD	 1
  004bd	00 00 00 00	 DD	 $L94215
$L94215:
  004c1	e0 fe ff ff	 DD	 -288			; fffffee0H
  004c5	00 01 00 00	 DD	 256			; 00000100H
  004c9	00 00 00 00	 DD	 $L94212
$L94212:
  004cd	73		 DB	 115			; 00000073H
  004ce	7a		 DB	 122			; 0000007aH
  004cf	00		 DB	 0
??0CUserFighter@@QAE@MHHHMPAVCTerrain@@PAVCScreenOverlayManager@@PAURENDER_DATA_INFO@CFileRenderObject@@@Z ENDP ; CUserFighter::CUserFighter
_TEXT	ENDS
PUBLIC	??1CUserFighter@@QAE@XZ				; CUserFighter::~CUserFighter
PUBLIC	??_GCHUDText@@QAEPAXI@Z				; CHUDText::`scalar deleting destructor'
PUBLIC	??_GCScreenOverlay@@QAEPAXI@Z			; CScreenOverlay::`scalar deleting destructor'
EXTRN	??1CFighter@@QAE@XZ:NEAR			; CFighter::~CFighter
; Function compile flags: /Odt /RTCsu /ZI
;	COMDAT ??1CUserFighter@@QAE@XZ
_TEXT	SEGMENT
tv167 = -400
tv158 = -400
tv149 = -400
tv140 = -400
tv131 = -400
tv90 = -400
tv81 = -400
tv72 = -400
$T94254 = -392
$T94253 = -380
$T94250 = -368
$T94249 = -356
$T94246 = -344
$T94245 = -332
$T94242 = -320
$T94241 = -308
$T94238 = -296
$T94237 = -284
$T94234 = -272
$T94233 = -260
$T94230 = -248
$T94229 = -236
$T94226 = -224
$T94225 = -212
_this$ = -8
??1CUserFighter@@QAE@XZ PROC NEAR			; CUserFighter::~CUserFighter, COMDAT
; _this$ = ecx

; 106  : 	{

  00000	55		 push	 ebp
  00001	8b ec		 mov	 ebp, esp
  00003	81 ec 90 01 00
	00		 sub	 esp, 400		; 00000190H
  00009	53		 push	 ebx
  0000a	56		 push	 esi
  0000b	57		 push	 edi
  0000c	51		 push	 ecx
  0000d	8d bd 70 fe ff
	ff		 lea	 edi, DWORD PTR [ebp-400]
  00013	b9 64 00 00 00	 mov	 ecx, 100		; 00000064H
  00018	b8 cc cc cc cc	 mov	 eax, -858993460		; ccccccccH
  0001d	f3 ab		 rep stosd
  0001f	59		 pop	 ecx
  00020	89 4d f8	 mov	 DWORD PTR _this$[ebp], ecx

; 107  : 		SAFE_DELETE( m_pHUDScore )

  00023	8b 45 f8	 mov	 eax, DWORD PTR _this$[ebp]
  00026	83 b8 7c 03 00
	00 00		 cmp	 DWORD PTR [eax+892], 0
  0002d	74 50		 je	 SHORT $L93696
  0002f	8b 45 f8	 mov	 eax, DWORD PTR _this$[ebp]
  00032	8b 88 7c 03 00
	00		 mov	 ecx, DWORD PTR [eax+892]
  00038	89 8d 20 ff ff
	ff		 mov	 DWORD PTR $T94226[ebp], ecx
  0003e	8b 95 20 ff ff
	ff		 mov	 edx, DWORD PTR $T94226[ebp]
  00044	89 95 2c ff ff
	ff		 mov	 DWORD PTR $T94225[ebp], edx
  0004a	83 bd 2c ff ff
	ff 00		 cmp	 DWORD PTR $T94225[ebp], 0
  00051	74 15		 je	 SHORT $L94227
  00053	6a 01		 push	 1
  00055	8b 8d 2c ff ff
	ff		 mov	 ecx, DWORD PTR $T94225[ebp]
  0005b	e8 00 00 00 00	 call	 ??_GCHUDText@@QAEPAXI@Z
  00060	89 85 70 fe ff
	ff		 mov	 DWORD PTR tv72[ebp], eax
  00066	eb 0a		 jmp	 SHORT $L94228
$L94227:
  00068	c7 85 70 fe ff
	ff 00 00 00 00	 mov	 DWORD PTR tv72[ebp], 0
$L94228:
  00072	8b 45 f8	 mov	 eax, DWORD PTR _this$[ebp]
  00075	c7 80 7c 03 00
	00 00 00 00 00	 mov	 DWORD PTR [eax+892], 0
$L93696:

; 108  : 		SAFE_DELETE( m_pHUDItems )

  0007f	8b 45 f8	 mov	 eax, DWORD PTR _this$[ebp]
  00082	83 b8 80 03 00
	00 00		 cmp	 DWORD PTR [eax+896], 0
  00089	74 50		 je	 SHORT $L93699
  0008b	8b 45 f8	 mov	 eax, DWORD PTR _this$[ebp]
  0008e	8b 88 80 03 00
	00		 mov	 ecx, DWORD PTR [eax+896]
  00094	89 8d 08 ff ff
	ff		 mov	 DWORD PTR $T94230[ebp], ecx
  0009a	8b 95 08 ff ff
	ff		 mov	 edx, DWORD PTR $T94230[ebp]
  000a0	89 95 14 ff ff
	ff		 mov	 DWORD PTR $T94229[ebp], edx
  000a6	83 bd 14 ff ff
	ff 00		 cmp	 DWORD PTR $T94229[ebp], 0
  000ad	74 15		 je	 SHORT $L94231
  000af	6a 01		 push	 1
  000b1	8b 8d 14 ff ff
	ff		 mov	 ecx, DWORD PTR $T94229[ebp]
  000b7	e8 00 00 00 00	 call	 ??_GCHUDText@@QAEPAXI@Z
  000bc	89 85 70 fe ff
	ff		 mov	 DWORD PTR tv81[ebp], eax
  000c2	eb 0a		 jmp	 SHORT $L94232
$L94231:
  000c4	c7 85 70 fe ff
	ff 00 00 00 00	 mov	 DWORD PTR tv81[ebp], 0
$L94232:
  000ce	8b 45 f8	 mov	 eax, DWORD PTR _this$[ebp]
  000d1	c7 80 80 03 00
	00 00 00 00 00	 mov	 DWORD PTR [eax+896], 0
$L93699:

; 109  : 		SAFE_DELETE( m_pHUDSpeed )

  000db	8b 45 f8	 mov	 eax, DWORD PTR _this$[ebp]
  000de	83 b8 78 03 00
	00 00		 cmp	 DWORD PTR [eax+888], 0
  000e5	74 50		 je	 SHORT $L93702
  000e7	8b 45 f8	 mov	 eax, DWORD PTR _this$[ebp]
  000ea	8b 88 78 03 00
	00		 mov	 ecx, DWORD PTR [eax+888]
  000f0	89 8d f0 fe ff
	ff		 mov	 DWORD PTR $T94234[ebp], ecx
  000f6	8b 95 f0 fe ff
	ff		 mov	 edx, DWORD PTR $T94234[ebp]
  000fc	89 95 fc fe ff
	ff		 mov	 DWORD PTR $T94233[ebp], edx
  00102	83 bd fc fe ff
	ff 00		 cmp	 DWORD PTR $T94233[ebp], 0
  00109	74 15		 je	 SHORT $L94235
  0010b	6a 01		 push	 1
  0010d	8b 8d fc fe ff
	ff		 mov	 ecx, DWORD PTR $T94233[ebp]
  00113	e8 00 00 00 00	 call	 ??_GCHUDText@@QAEPAXI@Z
  00118	89 85 70 fe ff
	ff		 mov	 DWORD PTR tv90[ebp], eax
  0011e	eb 0a		 jmp	 SHORT $L94236
$L94235:
  00120	c7 85 70 fe ff
	ff 00 00 00 00	 mov	 DWORD PTR tv90[ebp], 0
$L94236:
  0012a	8b 45 f8	 mov	 eax, DWORD PTR _this$[ebp]
  0012d	c7 80 78 03 00
	00 00 00 00 00	 mov	 DWORD PTR [eax+888], 0
$L93702:

; 110  : 		SAFE_DELETE( m_pHUDLives )

  00137	8b 45 f8	 mov	 eax, DWORD PTR _this$[ebp]
  0013a	83 b8 84 03 00
	00 00		 cmp	 DWORD PTR [eax+900], 0
  00141	74 50		 je	 SHORT $L93705
  00143	8b 45 f8	 mov	 eax, DWORD PTR _this$[ebp]
  00146	8b 88 84 03 00
	00		 mov	 ecx, DWORD PTR [eax+900]
  0014c	89 8d d8 fe ff
	ff		 mov	 DWORD PTR $T94238[ebp], ecx
  00152	8b 95 d8 fe ff
	ff		 mov	 edx, DWORD PTR $T94238[ebp]
  00158	89 95 e4 fe ff
	ff		 mov	 DWORD PTR $T94237[ebp], edx
  0015e	83 bd e4 fe ff
	ff 00		 cmp	 DWORD PTR $T94237[ebp], 0
  00165	74 15		 je	 SHORT $L94239
  00167	6a 01		 push	 1
  00169	8b 8d e4 fe ff
	ff		 mov	 ecx, DWORD PTR $T94237[ebp]
  0016f	e8 00 00 00 00	 call	 ??_GCHUDText@@QAEPAXI@Z
  00174	89 85 70 fe ff
	ff		 mov	 DWORD PTR tv131[ebp], eax
  0017a	eb 0a		 jmp	 SHORT $L94240
$L94239:
  0017c	c7 85 70 fe ff
	ff 00 00 00 00	 mov	 DWORD PTR tv131[ebp], 0
$L94240:
  00186	8b 45 f8	 mov	 eax, DWORD PTR _this$[ebp]
  00189	c7 80 84 03 00
	00 00 00 00 00	 mov	 DWORD PTR [eax+900], 0
$L93705:

; 111  : 		SAFE_DELETE( m_pScannerBackG )

  00193	8b 45 f8	 mov	 eax, DWORD PTR _this$[ebp]
  00196	83 b8 8c 03 00
	00 00		 cmp	 DWORD PTR [eax+908], 0
  0019d	74 50		 je	 SHORT $L93708
  0019f	8b 45 f8	 mov	 eax, DWORD PTR _this$[ebp]
  001a2	8b 88 8c 03 00
	00		 mov	 ecx, DWORD PTR [eax+908]
  001a8	89 8d c0 fe ff
	ff		 mov	 DWORD PTR $T94242[ebp], ecx
  001ae	8b 95 c0 fe ff
	ff		 mov	 edx, DWORD PTR $T94242[ebp]
  001b4	89 95 cc fe ff
	ff		 mov	 DWORD PTR $T94241[ebp], edx
  001ba	83 bd cc fe ff
	ff 00		 cmp	 DWORD PTR $T94241[ebp], 0
  001c1	74 15		 je	 SHORT $L94243
  001c3	6a 01		 push	 1
  001c5	8b 8d cc fe ff
	ff		 mov	 ecx, DWORD PTR $T94241[ebp]
  001cb	e8 00 00 00 00	 call	 ??_GCScreenOverlay@@QAEPAXI@Z
  001d0	89 85 70 fe ff
	ff		 mov	 DWORD PTR tv140[ebp], eax
  001d6	eb 0a		 jmp	 SHORT $L94244
$L94243:
  001d8	c7 85 70 fe ff
	ff 00 00 00 00	 mov	 DWORD PTR tv140[ebp], 0
$L94244:
  001e2	8b 45 f8	 mov	 eax, DWORD PTR _this$[ebp]
  001e5	c7 80 8c 03 00
	00 00 00 00 00	 mov	 DWORD PTR [eax+908], 0
$L93708:

; 112  : 		SAFE_DELETE( m_pTargetIcon )

  001ef	8b 45 f8	 mov	 eax, DWORD PTR _this$[ebp]
  001f2	83 b8 a8 03 00
	00 00		 cmp	 DWORD PTR [eax+936], 0
  001f9	74 50		 je	 SHORT $L93711
  001fb	8b 45 f8	 mov	 eax, DWORD PTR _this$[ebp]
  001fe	8b 88 a8 03 00
	00		 mov	 ecx, DWORD PTR [eax+936]
  00204	89 8d a8 fe ff
	ff		 mov	 DWORD PTR $T94246[ebp], ecx
  0020a	8b 95 a8 fe ff
	ff		 mov	 edx, DWORD PTR $T94246[ebp]
  00210	89 95 b4 fe ff
	ff		 mov	 DWORD PTR $T94245[ebp], edx
  00216	83 bd b4 fe ff
	ff 00		 cmp	 DWORD PTR $T94245[ebp], 0
  0021d	74 15		 je	 SHORT $L94247
  0021f	6a 01		 push	 1
  00221	8b 8d b4 fe ff
	ff		 mov	 ecx, DWORD PTR $T94245[ebp]
  00227	e8 00 00 00 00	 call	 ??_GCScreenOverlay@@QAEPAXI@Z
  0022c	89 85 70 fe ff
	ff		 mov	 DWORD PTR tv149[ebp], eax
  00232	eb 0a		 jmp	 SHORT $L94248
$L94247:
  00234	c7 85 70 fe ff
	ff 00 00 00 00	 mov	 DWORD PTR tv149[ebp], 0
$L94248:
  0023e	8b 45 f8	 mov	 eax, DWORD PTR _this$[ebp]
  00241	c7 80 a8 03 00
	00 00 00 00 00	 mov	 DWORD PTR [eax+936], 0
$L93711:

; 113  : 		SAFE_DELETE( m_pCrosshair )

  0024b	8b 45 f8	 mov	 eax, DWORD PTR _this$[ebp]
  0024e	83 b8 b4 03 00
	00 00		 cmp	 DWORD PTR [eax+948], 0
  00255	74 50		 je	 SHORT $L93714
  00257	8b 45 f8	 mov	 eax, DWORD PTR _this$[ebp]
  0025a	8b 88 b4 03 00
	00		 mov	 ecx, DWORD PTR [eax+948]
  00260	89 8d 90 fe ff
	ff		 mov	 DWORD PTR $T94250[ebp], ecx
  00266	8b 95 90 fe ff
	ff		 mov	 edx, DWORD PTR $T94250[ebp]
  0026c	89 95 9c fe ff
	ff		 mov	 DWORD PTR $T94249[ebp], edx
  00272	83 bd 9c fe ff
	ff 00		 cmp	 DWORD PTR $T94249[ebp], 0
  00279	74 15		 je	 SHORT $L94251
  0027b	6a 01		 push	 1
  0027d	8b 8d 9c fe ff
	ff		 mov	 ecx, DWORD PTR $T94249[ebp]
  00283	e8 00 00 00 00	 call	 ??_GCScreenOverlay@@QAEPAXI@Z
  00288	89 85 70 fe ff
	ff		 mov	 DWORD PTR tv158[ebp], eax
  0028e	eb 0a		 jmp	 SHORT $L94252
$L94251:
  00290	c7 85 70 fe ff
	ff 00 00 00 00	 mov	 DWORD PTR tv158[ebp], 0
$L94252:
  0029a	8b 45 f8	 mov	 eax, DWORD PTR _this$[ebp]
  0029d	c7 80 b4 03 00
	00 00 00 00 00	 mov	 DWORD PTR [eax+948], 0
$L93714:

; 114  : 		SAFE_DELETE( m_pRedQuad )

  002a7	8b 45 f8	 mov	 eax, DWORD PTR _this$[ebp]
  002aa	83 b8 88 03 00
	00 00		 cmp	 DWORD PTR [eax+904], 0
  002b1	74 50		 je	 SHORT $L93695
  002b3	8b 45 f8	 mov	 eax, DWORD PTR _this$[ebp]
  002b6	8b 88 88 03 00
	00		 mov	 ecx, DWORD PTR [eax+904]
  002bc	89 8d 78 fe ff
	ff		 mov	 DWORD PTR $T94254[ebp], ecx
  002c2	8b 95 78 fe ff
	ff		 mov	 edx, DWORD PTR $T94254[ebp]
  002c8	89 95 84 fe ff
	ff		 mov	 DWORD PTR $T94253[ebp], edx
  002ce	83 bd 84 fe ff
	ff 00		 cmp	 DWORD PTR $T94253[ebp], 0
  002d5	74 15		 je	 SHORT $L94255
  002d7	6a 01		 push	 1
  002d9	8b 8d 84 fe ff
	ff		 mov	 ecx, DWORD PTR $T94253[ebp]
  002df	e8 00 00 00 00	 call	 ??_GCScreenOverlay@@QAEPAXI@Z
  002e4	89 85 70 fe ff
	ff		 mov	 DWORD PTR tv167[ebp], eax
  002ea	eb 0a		 jmp	 SHORT $L94256
$L94255:
  002ec	c7 85 70 fe ff
	ff 00 00 00 00	 mov	 DWORD PTR tv167[ebp], 0
$L94256:
  002f6	8b 45 f8	 mov	 eax, DWORD PTR _this$[ebp]
  002f9	c7 80 88 03 00
	00 00 00 00 00	 mov	 DWORD PTR [eax+904], 0
$L93695:

; 115  : 	}

  00303	8b 4d f8	 mov	 ecx, DWORD PTR _this$[ebp]
  00306	e8 00 00 00 00	 call	 ??1CFighter@@QAE@XZ	; CFighter::~CFighter
  0030b	5f		 pop	 edi
  0030c	5e		 pop	 esi
  0030d	5b		 pop	 ebx
  0030e	81 c4 90 01 00
	00		 add	 esp, 400		; 00000190H
  00314	3b ec		 cmp	 ebp, esp
  00316	e8 00 00 00 00	 call	 __RTC_CheckEsp
  0031b	8b e5		 mov	 esp, ebp
  0031d	5d		 pop	 ebp
  0031e	c3		 ret	 0
??1CUserFighter@@QAE@XZ ENDP				; CUserFighter::~CUserFighter
_TEXT	ENDS
EXTRN	??3@YAXPAX@Z:NEAR				; operator delete
EXTRN	??1CHUDText@@QAE@XZ:NEAR			; CHUDText::~CHUDText
; Function compile flags: /Odt /RTCsu /ZI
;	COMDAT ??_GCHUDText@@QAEPAXI@Z
_TEXT	SEGMENT
_this$ = -8
___flags$ = 8
??_GCHUDText@@QAEPAXI@Z PROC NEAR			; CHUDText::`scalar deleting destructor', COMDAT
; _this$ = ecx
  00000	55		 push	 ebp
  00001	8b ec		 mov	 ebp, esp
  00003	81 ec cc 00 00
	00		 sub	 esp, 204		; 000000ccH
  00009	53		 push	 ebx
  0000a	56		 push	 esi
  0000b	57		 push	 edi
  0000c	51		 push	 ecx
  0000d	8d bd 34 ff ff
	ff		 lea	 edi, DWORD PTR [ebp-204]
  00013	b9 33 00 00 00	 mov	 ecx, 51			; 00000033H
  00018	b8 cc cc cc cc	 mov	 eax, -858993460		; ccccccccH
  0001d	f3 ab		 rep stosd
  0001f	59		 pop	 ecx
  00020	89 4d f8	 mov	 DWORD PTR _this$[ebp], ecx
  00023	8b 4d f8	 mov	 ecx, DWORD PTR _this$[ebp]
  00026	e8 00 00 00 00	 call	 ??1CHUDText@@QAE@XZ	; CHUDText::~CHUDText
  0002b	8b 45 08	 mov	 eax, DWORD PTR ___flags$[ebp]
  0002e	83 e0 01	 and	 eax, 1
  00031	85 c0		 test	 eax, eax
  00033	74 0c		 je	 SHORT $L93724
  00035	8b 45 f8	 mov	 eax, DWORD PTR _this$[ebp]
  00038	50		 push	 eax
  00039	e8 00 00 00 00	 call	 ??3@YAXPAX@Z		; operator delete
  0003e	83 c4 04	 add	 esp, 4
$L93724:
  00041	8b 45 f8	 mov	 eax, DWORD PTR _this$[ebp]
  00044	5f		 pop	 edi
  00045	5e		 pop	 esi
  00046	5b		 pop	 ebx
  00047	81 c4 cc 00 00
	00		 add	 esp, 204		; 000000ccH
  0004d	3b ec		 cmp	 ebp, esp
  0004f	e8 00 00 00 00	 call	 __RTC_CheckEsp
  00054	8b e5		 mov	 esp, ebp
  00056	5d		 pop	 ebp
  00057	c2 04 00	 ret	 4
??_GCHUDText@@QAEPAXI@Z ENDP				; CHUDText::`scalar deleting destructor'
_TEXT	ENDS
EXTRN	??1CScreenOverlay@@QAE@XZ:NEAR			; CScreenOverlay::~CScreenOverlay
; Function compile flags: /Odt /RTCsu /ZI
;	COMDAT ??_GCScreenOverlay@@QAEPAXI@Z
_TEXT	SEGMENT
_this$ = -8
___flags$ = 8
??_GCScreenOverlay@@QAEPAXI@Z PROC NEAR			; CScreenOverlay::`scalar deleting destructor', COMDAT
; _this$ = ecx
  00000	55		 push	 ebp
  00001	8b ec		 mov	 ebp, esp
  00003	81 ec cc 00 00
	00		 sub	 esp, 204		; 000000ccH
  00009	53		 push	 ebx
  0000a	56		 push	 esi
  0000b	57		 push	 edi
  0000c	51		 push	 ecx
  0000d	8d bd 34 ff ff
	ff		 lea	 edi, DWORD PTR [ebp-204]
  00013	b9 33 00 00 00	 mov	 ecx, 51			; 00000033H
  00018	b8 cc cc cc cc	 mov	 eax, -858993460		; ccccccccH
  0001d	f3 ab		 rep stosd
  0001f	59		 pop	 ecx
  00020	89 4d f8	 mov	 DWORD PTR _this$[ebp], ecx
  00023	8b 4d f8	 mov	 ecx, DWORD PTR _this$[ebp]
  00026	e8 00 00 00 00	 call	 ??1CScreenOverlay@@QAE@XZ ; CScreenOverlay::~CScreenOverlay
  0002b	8b 45 08	 mov	 eax, DWORD PTR ___flags$[ebp]
  0002e	83 e0 01	 and	 eax, 1
  00031	85 c0		 test	 eax, eax
  00033	74 0c		 je	 SHORT $L93727
  00035	8b 45 f8	 mov	 eax, DWORD PTR _this$[ebp]
  00038	50		 push	 eax
  00039	e8 00 00 00 00	 call	 ??3@YAXPAX@Z		; operator delete
  0003e	83 c4 04	 add	 esp, 4
$L93727:
  00041	8b 45 f8	 mov	 eax, DWORD PTR _this$[ebp]
  00044	5f		 pop	 edi
  00045	5e		 pop	 esi
  00046	5b		 pop	 ebx
  00047	81 c4 cc 00 00
	00		 add	 esp, 204		; 000000ccH
  0004d	3b ec		 cmp	 ebp, esp
  0004f	e8 00 00 00 00	 call	 __RTC_CheckEsp
  00054	8b e5		 mov	 esp, ebp
  00056	5d		 pop	 ebp
  00057	c2 04 00	 ret	 4
??_GCScreenOverlay@@QAEPAXI@Z ENDP			; CScreenOverlay::`scalar deleting destructor'
_TEXT	ENDS
PUBLIC	__real@40000000
PUBLIC	??0D3DXCOLOR@@QAE@XZ				; D3DXCOLOR::D3DXCOLOR
PUBLIC	??0D3DXCOLOR@@QAE@MMMM@Z			; D3DXCOLOR::D3DXCOLOR
PUBLIC	?RestoreDeviceObjects@CUserFighter@@QAEJPAUIDirect3D8@@PAUIDirect3DDevice8@@PAVCScreenOverlayManager@@PAVCTextures@@M@Z ; CUserFighter::RestoreDeviceObjects
PUBLIC	??_C@_0CE@IODNPFGE@CUserFighter?3?3RestoreDeviceObjec@ ; `string'
PUBLIC	?__LINE__Var@?1??RestoreDeviceObjects@CUserFighter@@QAEJPAUIDirect3D8@@PAUIDirect3DDevice8@@PAVCScreenOverlayManager@@PAVCTextures@@M@Z@4JA ; `CUserFighter::RestoreDeviceObjects'::`2'::__LINE__Var
PUBLIC	??_C@_0EO@MJDOOBEE@c?3?2documents?5and?5settings?2dom?2my@ ; `string'
PUBLIC	??_C@_0BI@JKDNLCMH@m_pScannerBackG?5?$CB?$DN?5NULL?$AA@ ; `string'
PUBLIC	??_C@_0M@NKNCPJJD@?$CBFAILED?$CIhr?$CJ?$AA@	; `string'
PUBLIC	??_C@_0BG@LMFBNCIN@m_pTargetIcon?5?$CB?$DN?5NULL?$AA@ ; `string'
PUBLIC	??_C@_0BF@LCAKBPM@m_pCrosshair?5?$CB?$DN?5NULL?$AA@ ; `string'
PUBLIC	??_C@_0BD@LCEONFJF@m_pRedQuad?5?$CB?$DN?5NULL?$AA@ ; `string'
EXTRN	?RegisterNewOverlay@CScreenOverlayManager@@QAEHPAVCScreenOverlay@@@Z:NEAR ; CScreenOverlayManager::RegisterNewOverlay
EXTRN	?RestoreDeviceObjects@CFighter@@QAEJPAUIDirect3D8@@PAUIDirect3DDevice8@@PAVCScreenOverlayManager@@PAVCTextures@@M@Z:NEAR ; CFighter::RestoreDeviceObjects
EXTRN	?Enable@CHUDText@@QAEHH@Z:NEAR			; CHUDText::Enable
EXTRN	?RestoreDeviceObjects@CHUDText@@QAEJPAUIDirect3DDevice8@@MPAVCScreenOverlayManager@@PAVCTextures@@@Z:NEAR ; CHUDText::RestoreDeviceObjects
EXTRN	__assert:NEAR
EXTRN	?ods@@YAXPADZZ:NEAR				; ods
EXTRN	??0CScreenOverlay@@QAE@PAUIDirect3DTexture8@@MMMMMMPAUD3DXCOLOR@@111H@Z:NEAR ; CScreenOverlay::CScreenOverlay
EXTRN	??0CHUDScaleBar@@QAE@PAUIDirect3DTexture8@@MMMMMMHMMMMM@Z:NEAR ; CHUDScaleBar::CHUDScaleBar
;	COMDAT ??_C@_0CE@IODNPFGE@CUserFighter?3?3RestoreDeviceObjec@
CONST	SEGMENT
??_C@_0CE@IODNPFGE@CUserFighter?3?3RestoreDeviceObjec@ DB 'CUserFighter::'
	DB	'RestoreDeviceObjects', 0aH, 00H		; `string'
CONST	ENDS
;	COMDAT ?__LINE__Var@?1??RestoreDeviceObjects@CUserFighter@@QAEJPAUIDirect3D8@@PAUIDirect3DDevice8@@PAVCScreenOverlayManager@@PAVCTextures@@M@Z@4JA
_DATA	SEGMENT
?__LINE__Var@?1??RestoreDeviceObjects@CUserFighter@@QAEJPAUIDirect3D8@@PAUIDirect3DDevice8@@PAVCScreenOverlayManager@@PAVCTextures@@M@Z@4JA DD 076H ; `CUserFighter::RestoreDeviceObjects'::`2'::__LINE__Var
_DATA	ENDS
;	COMDAT ??_C@_0EO@MJDOOBEE@c?3?2documents?5and?5settings?2dom?2my@
CONST	SEGMENT
??_C@_0EO@MJDOOBEE@c?3?2documents?5and?5settings?2dom?2my@ DB 'c:\documen'
	DB	'ts and settings\dom\my documents\_dev\ae\xlr8a\x7g\cuserfight'
	DB	'er.cpp', 00H				; `string'
CONST	ENDS
;	COMDAT ??_C@_0BI@JKDNLCMH@m_pScannerBackG?5?$CB?$DN?5NULL?$AA@
CONST	SEGMENT
??_C@_0BI@JKDNLCMH@m_pScannerBackG?5?$CB?$DN?5NULL?$AA@ DB 'm_pScannerBac'
	DB	'kG != NULL', 00H				; `string'
CONST	ENDS
;	COMDAT ??_C@_0M@NKNCPJJD@?$CBFAILED?$CIhr?$CJ?$AA@
CONST	SEGMENT
??_C@_0M@NKNCPJJD@?$CBFAILED?$CIhr?$CJ?$AA@ DB '!FAILED(hr)', 00H ; `string'
CONST	ENDS
;	COMDAT ??_C@_0BG@LMFBNCIN@m_pTargetIcon?5?$CB?$DN?5NULL?$AA@
CONST	SEGMENT
??_C@_0BG@LMFBNCIN@m_pTargetIcon?5?$CB?$DN?5NULL?$AA@ DB 'm_pTargetIcon !'
	DB	'= NULL', 00H				; `string'
CONST	ENDS
;	COMDAT __real@40000000
CONST	SEGMENT
__real@40000000 DD 040000000r			; 2
CONST	ENDS
;	COMDAT ??_C@_0BF@LCAKBPM@m_pCrosshair?5?$CB?$DN?5NULL?$AA@
CONST	SEGMENT
??_C@_0BF@LCAKBPM@m_pCrosshair?5?$CB?$DN?5NULL?$AA@ DB 'm_pCrosshair != N'
	DB	'ULL', 00H					; `string'
CONST	ENDS
;	COMDAT ??_C@_0BD@LCEONFJF@m_pRedQuad?5?$CB?$DN?5NULL?$AA@
CONST	SEGMENT
??_C@_0BD@LCEONFJF@m_pRedQuad?5?$CB?$DN?5NULL?$AA@ DB 'm_pRedQuad != NULL'
	DB	00H						; `string'
; Function compile flags: /Odt /RTCsu /ZI
CONST	ENDS
;	COMDAT ?RestoreDeviceObjects@CUserFighter@@QAEJPAUIDirect3D8@@PAUIDirect3DDevice8@@PAVCScreenOverlayManager@@PAVCTextures@@M@Z
_TEXT	SEGMENT
tv659 = -604
tv618 = -604
tv542 = -604
tv501 = -604
tv457 = -604
tv416 = -604
tv371 = -604
tv319 = -604
tv261 = -604
tv186 = -604
$T94300 = -596
$T94297 = -584
$T94294 = -572
$T94291 = -560
$T94288 = -548
$T94285 = -536
$T94281 = -524
$T94280 = -512
$T94276 = -488
$T94275 = -476
$T94271 = -452
$T94270 = -440
$T94269 = -416
$T94264 = -392
$T94263 = -380
_fForeGAlpha$ = -164
_fBackGAlpha$ = -152
_fLeft$ = -140
_fTop$ = -128
_fSep$ = -116
_fHeight$ = -104
_fWidth$ = -92
_fW$ = -80
_c2$ = -68
_c$ = -44
_hr$ = -20
_this$ = -8
_pD3D$ = 8
_pDev$ = 12
_pOM$ = 16
_pTex$ = 20
_fAspect$ = 24
?RestoreDeviceObjects@CUserFighter@@QAEJPAUIDirect3D8@@PAUIDirect3DDevice8@@PAVCScreenOverlayManager@@PAVCTextures@@M@Z PROC NEAR ; CUserFighter::RestoreDeviceObjects, COMDAT
; _this$ = ecx

; 118  : 	{

  00000	55		 push	 ebp
  00001	8b ec		 mov	 ebp, esp
  00003	81 ec 5c 02 00
	00		 sub	 esp, 604		; 0000025cH
  00009	53		 push	 ebx
  0000a	56		 push	 esi
  0000b	57		 push	 edi
  0000c	51		 push	 ecx
  0000d	8d bd a4 fd ff
	ff		 lea	 edi, DWORD PTR [ebp-604]
  00013	b9 97 00 00 00	 mov	 ecx, 151		; 00000097H
  00018	b8 cc cc cc cc	 mov	 eax, -858993460		; ccccccccH
  0001d	f3 ab		 rep stosd
  0001f	59		 pop	 ecx
  00020	89 4d f8	 mov	 DWORD PTR _this$[ebp], ecx

; 119  : 		ods( "CUserFighter::RestoreDeviceObjects\n" );

  00023	68 00 00 00 00	 push	 OFFSET FLAT:??_C@_0CE@IODNPFGE@CUserFighter?3?3RestoreDeviceObjec@
  00028	e8 00 00 00 00	 call	 ?ods@@YAXPADZZ		; ods
  0002d	83 c4 04	 add	 esp, 4

; 120  : 
; 121  : 		HRESULT hr ;
; 122  : 		D3DXCOLOR c, c2 ;

  00030	8d 4d d4	 lea	 ecx, DWORD PTR _c$[ebp]
  00033	e8 00 00 00 00	 call	 ??0D3DXCOLOR@@QAE@XZ	; D3DXCOLOR::D3DXCOLOR
  00038	8d 4d bc	 lea	 ecx, DWORD PTR _c2$[ebp]
  0003b	e8 00 00 00 00	 call	 ??0D3DXCOLOR@@QAE@XZ	; D3DXCOLOR::D3DXCOLOR

; 123  : 
; 124  : 		ods("CUserFighter::RestoreDeviceObjects\n") ;

  00040	68 00 00 00 00	 push	 OFFSET FLAT:??_C@_0CE@IODNPFGE@CUserFighter?3?3RestoreDeviceObjec@
  00045	e8 00 00 00 00	 call	 ?ods@@YAXPADZZ		; ods
  0004a	83 c4 04	 add	 esp, 4

; 125  : 
; 126  : 		CFighter::RestoreDeviceObjects( pD3D, pDev, pOM, pTex, fAspect );

  0004d	8b 45 18	 mov	 eax, DWORD PTR _fAspect$[ebp]
  00050	50		 push	 eax
  00051	8b 4d 14	 mov	 ecx, DWORD PTR _pTex$[ebp]
  00054	51		 push	 ecx
  00055	8b 55 10	 mov	 edx, DWORD PTR _pOM$[ebp]
  00058	52		 push	 edx
  00059	8b 45 0c	 mov	 eax, DWORD PTR _pDev$[ebp]
  0005c	50		 push	 eax
  0005d	8b 4d 08	 mov	 ecx, DWORD PTR _pD3D$[ebp]
  00060	51		 push	 ecx
  00061	8b 4d f8	 mov	 ecx, DWORD PTR _this$[ebp]
  00064	e8 00 00 00 00	 call	 ?RestoreDeviceObjects@CFighter@@QAEJPAUIDirect3D8@@PAUIDirect3DDevice8@@PAVCScreenOverlayManager@@PAVCTextures@@M@Z ; CFighter::RestoreDeviceObjects

; 127  : 		if( m_pHUDScore )

  00069	8b 45 f8	 mov	 eax, DWORD PTR _this$[ebp]
  0006c	83 b8 7c 03 00
	00 00		 cmp	 DWORD PTR [eax+892], 0
  00073	74 2e		 je	 SHORT $L93740

; 128  : 		{
; 129  : 			m_pHUDScore->RestoreDeviceObjects( pDev, fAspect, pOM, pTex );

  00075	8b 45 14	 mov	 eax, DWORD PTR _pTex$[ebp]
  00078	50		 push	 eax
  00079	8b 4d 10	 mov	 ecx, DWORD PTR _pOM$[ebp]
  0007c	51		 push	 ecx
  0007d	8b 55 18	 mov	 edx, DWORD PTR _fAspect$[ebp]
  00080	52		 push	 edx
  00081	8b 45 0c	 mov	 eax, DWORD PTR _pDev$[ebp]
  00084	50		 push	 eax
  00085	8b 4d f8	 mov	 ecx, DWORD PTR _this$[ebp]
  00088	8b 89 7c 03 00
	00		 mov	 ecx, DWORD PTR [ecx+892]
  0008e	e8 00 00 00 00	 call	 ?RestoreDeviceObjects@CHUDText@@QAEJPAUIDirect3DDevice8@@MPAVCScreenOverlayManager@@PAVCTextures@@@Z ; CHUDText::RestoreDeviceObjects

; 130  : 			m_pHUDScore->Enable( TRUE );

  00093	6a 01		 push	 1
  00095	8b 45 f8	 mov	 eax, DWORD PTR _this$[ebp]
  00098	8b 88 7c 03 00
	00		 mov	 ecx, DWORD PTR [eax+892]
  0009e	e8 00 00 00 00	 call	 ?Enable@CHUDText@@QAEHH@Z ; CHUDText::Enable
$L93740:

; 131  : 		}
; 132  : 		if( m_pHUDItems )

  000a3	8b 45 f8	 mov	 eax, DWORD PTR _this$[ebp]
  000a6	83 b8 80 03 00
	00 00		 cmp	 DWORD PTR [eax+896], 0
  000ad	74 2e		 je	 SHORT $L93741

; 133  : 		{
; 134  : 			m_pHUDItems->RestoreDeviceObjects( pDev, fAspect, pOM, pTex );

  000af	8b 45 14	 mov	 eax, DWORD PTR _pTex$[ebp]
  000b2	50		 push	 eax
  000b3	8b 4d 10	 mov	 ecx, DWORD PTR _pOM$[ebp]
  000b6	51		 push	 ecx
  000b7	8b 55 18	 mov	 edx, DWORD PTR _fAspect$[ebp]
  000ba	52		 push	 edx
  000bb	8b 45 0c	 mov	 eax, DWORD PTR _pDev$[ebp]
  000be	50		 push	 eax
  000bf	8b 4d f8	 mov	 ecx, DWORD PTR _this$[ebp]
  000c2	8b 89 80 03 00
	00		 mov	 ecx, DWORD PTR [ecx+896]
  000c8	e8 00 00 00 00	 call	 ?RestoreDeviceObjects@CHUDText@@QAEJPAUIDirect3DDevice8@@MPAVCScreenOverlayManager@@PAVCTextures@@@Z ; CHUDText::RestoreDeviceObjects

; 135  : 			m_pHUDItems->Enable( TRUE );

  000cd	6a 01		 push	 1
  000cf	8b 45 f8	 mov	 eax, DWORD PTR _this$[ebp]
  000d2	8b 88 80 03 00
	00		 mov	 ecx, DWORD PTR [eax+896]
  000d8	e8 00 00 00 00	 call	 ?Enable@CHUDText@@QAEHH@Z ; CHUDText::Enable
$L93741:

; 136  : 		}
; 137  : 		if( m_pHUDSpeed )

  000dd	8b 45 f8	 mov	 eax, DWORD PTR _this$[ebp]
  000e0	83 b8 78 03 00
	00 00		 cmp	 DWORD PTR [eax+888], 0
  000e7	74 2e		 je	 SHORT $L93742

; 138  : 		{
; 139  : 			m_pHUDSpeed->RestoreDeviceObjects( pDev, fAspect, pOM, pTex );

  000e9	8b 45 14	 mov	 eax, DWORD PTR _pTex$[ebp]
  000ec	50		 push	 eax
  000ed	8b 4d 10	 mov	 ecx, DWORD PTR _pOM$[ebp]
  000f0	51		 push	 ecx
  000f1	8b 55 18	 mov	 edx, DWORD PTR _fAspect$[ebp]
  000f4	52		 push	 edx
  000f5	8b 45 0c	 mov	 eax, DWORD PTR _pDev$[ebp]
  000f8	50		 push	 eax
  000f9	8b 4d f8	 mov	 ecx, DWORD PTR _this$[ebp]
  000fc	8b 89 78 03 00
	00		 mov	 ecx, DWORD PTR [ecx+888]
  00102	e8 00 00 00 00	 call	 ?RestoreDeviceObjects@CHUDText@@QAEJPAUIDirect3DDevice8@@MPAVCScreenOverlayManager@@PAVCTextures@@@Z ; CHUDText::RestoreDeviceObjects

; 140  : 			m_pHUDSpeed->Enable( TRUE );

  00107	6a 01		 push	 1
  00109	8b 45 f8	 mov	 eax, DWORD PTR _this$[ebp]
  0010c	8b 88 78 03 00
	00		 mov	 ecx, DWORD PTR [eax+888]
  00112	e8 00 00 00 00	 call	 ?Enable@CHUDText@@QAEHH@Z ; CHUDText::Enable
$L93742:

; 141  : 		}
; 142  : 		if( m_pHUDLives )

  00117	8b 45 f8	 mov	 eax, DWORD PTR _this$[ebp]
  0011a	83 b8 84 03 00
	00 00		 cmp	 DWORD PTR [eax+900], 0
  00121	74 2e		 je	 SHORT $L93743

; 143  : 		{
; 144  : 			m_pHUDLives->RestoreDeviceObjects( pDev, fAspect, pOM, pTex );

  00123	8b 45 14	 mov	 eax, DWORD PTR _pTex$[ebp]
  00126	50		 push	 eax
  00127	8b 4d 10	 mov	 ecx, DWORD PTR _pOM$[ebp]
  0012a	51		 push	 ecx
  0012b	8b 55 18	 mov	 edx, DWORD PTR _fAspect$[ebp]
  0012e	52		 push	 edx
  0012f	8b 45 0c	 mov	 eax, DWORD PTR _pDev$[ebp]
  00132	50		 push	 eax
  00133	8b 4d f8	 mov	 ecx, DWORD PTR _this$[ebp]
  00136	8b 89 84 03 00
	00		 mov	 ecx, DWORD PTR [ecx+900]
  0013c	e8 00 00 00 00	 call	 ?RestoreDeviceObjects@CHUDText@@QAEJPAUIDirect3DDevice8@@MPAVCScreenOverlayManager@@PAVCTextures@@@Z ; CHUDText::RestoreDeviceObjects

; 145  : 			m_pHUDLives->Enable( TRUE );

  00141	6a 01		 push	 1
  00143	8b 45 f8	 mov	 eax, DWORD PTR _this$[ebp]
  00146	8b 88 84 03 00
	00		 mov	 ecx, DWORD PTR [eax+900]
  0014c	e8 00 00 00 00	 call	 ?Enable@CHUDText@@QAEHH@Z ; CHUDText::Enable
$L93743:

; 146  : 		}
; 147  : 
; 148  : 		pOM->m_bVBLocked = TRUE ;

  00151	8b 45 10	 mov	 eax, DWORD PTR _pOM$[ebp]
  00154	c7 80 08 02 00
	00 01 00 00 00	 mov	 DWORD PTR [eax+520], 1

; 149  : 
; 150  : 	//
; 151  : 	// HUD SpaceScanner:
; 152  : 	//
; 153  : 		c = D3DXCOLOR( 0.2f, 0.2f, 1.0f, 1.00f );

  0015e	68 00 00 80 3f	 push	 1065353216		; 3f800000H
  00163	68 00 00 80 3f	 push	 1065353216		; 3f800000H
  00168	68 cd cc 4c 3e	 push	 1045220557		; 3e4ccccdH
  0016d	68 cd cc 4c 3e	 push	 1045220557		; 3e4ccccdH
  00172	8d 8d 84 fe ff
	ff		 lea	 ecx, DWORD PTR $T94263[ebp]
  00178	e8 00 00 00 00	 call	 ??0D3DXCOLOR@@QAE@MMMM@Z ; D3DXCOLOR::D3DXCOLOR
  0017d	8b 08		 mov	 ecx, DWORD PTR [eax]
  0017f	89 4d d4	 mov	 DWORD PTR _c$[ebp], ecx
  00182	8b 50 04	 mov	 edx, DWORD PTR [eax+4]
  00185	89 55 d8	 mov	 DWORD PTR _c$[ebp+4], edx
  00188	8b 48 08	 mov	 ecx, DWORD PTR [eax+8]
  0018b	89 4d dc	 mov	 DWORD PTR _c$[ebp+8], ecx
  0018e	8b 50 0c	 mov	 edx, DWORD PTR [eax+12]
  00191	89 55 e0	 mov	 DWORD PTR _c$[ebp+12], edx

; 154  : 		m_pScannerBackG = new CScreenOverlay( pTex->m_pTex[ HUD_TEX_START+1 ], 1.0f, 0.0f, 0.0f, 0.0f, 1.0f, 1.0f, &c, &c, &c, &c, OT_HUD_SCANNERBACKG );

  00194	68 d4 00 00 00	 push	 212			; 000000d4H
  00199	e8 00 00 00 00	 call	 ??2@YAPAXI@Z		; operator new
  0019e	83 c4 04	 add	 esp, 4
  001a1	89 85 78 fe ff
	ff		 mov	 DWORD PTR $T94264[ebp], eax
  001a7	83 bd 78 fe ff
	ff 00		 cmp	 DWORD PTR $T94264[ebp], 0
  001ae	74 44		 je	 SHORT $L94265
  001b0	6a 06		 push	 6
  001b2	8d 45 d4	 lea	 eax, DWORD PTR _c$[ebp]
  001b5	50		 push	 eax
  001b6	8d 4d d4	 lea	 ecx, DWORD PTR _c$[ebp]
  001b9	51		 push	 ecx
  001ba	8d 55 d4	 lea	 edx, DWORD PTR _c$[ebp]
  001bd	52		 push	 edx
  001be	8d 45 d4	 lea	 eax, DWORD PTR _c$[ebp]
  001c1	50		 push	 eax
  001c2	68 00 00 80 3f	 push	 1065353216		; 3f800000H
  001c7	68 00 00 80 3f	 push	 1065353216		; 3f800000H
  001cc	6a 00		 push	 0
  001ce	6a 00		 push	 0
  001d0	6a 00		 push	 0
  001d2	68 00 00 80 3f	 push	 1065353216		; 3f800000H
  001d7	8b 4d 14	 mov	 ecx, DWORD PTR _pTex$[ebp]
  001da	8b 91 40 03 00
	00		 mov	 edx, DWORD PTR [ecx+832]
  001e0	52		 push	 edx
  001e1	8b 8d 78 fe ff
	ff		 mov	 ecx, DWORD PTR $T94264[ebp]
  001e7	e8 00 00 00 00	 call	 ??0CScreenOverlay@@QAE@PAUIDirect3DTexture8@@MMMMMMPAUD3DXCOLOR@@111H@Z ; CScreenOverlay::CScreenOverlay
  001ec	89 85 a4 fd ff
	ff		 mov	 DWORD PTR tv186[ebp], eax
  001f2	eb 0a		 jmp	 SHORT $L94266
$L94265:
  001f4	c7 85 a4 fd ff
	ff 00 00 00 00	 mov	 DWORD PTR tv186[ebp], 0
$L94266:
  001fe	8b 45 f8	 mov	 eax, DWORD PTR _this$[ebp]
  00201	8b 8d a4 fd ff
	ff		 mov	 ecx, DWORD PTR tv186[ebp]
  00207	89 88 8c 03 00
	00		 mov	 DWORD PTR [eax+908], ecx

; 155  : 		assert( m_pScannerBackG != NULL );

  0020d	8b 45 f8	 mov	 eax, DWORD PTR _this$[ebp]
  00210	83 b8 8c 03 00
	00 00		 cmp	 DWORD PTR [eax+908], 0
  00217	75 1c		 jne	 SHORT $L94267
  00219	8b 0d 00 00 00
	00		 mov	 ecx, DWORD PTR ?__LINE__Var@?1??RestoreDeviceObjects@CUserFighter@@QAEJPAUIDirect3D8@@PAUIDirect3DDevice8@@PAVCScreenOverlayManager@@PAVCTextures@@M@Z@4JA
  0021f	83 c1 25	 add	 ecx, 37			; 00000025H
  00222	51		 push	 ecx
  00223	68 00 00 00 00	 push	 OFFSET FLAT:??_C@_0EO@MJDOOBEE@c?3?2documents?5and?5settings?2dom?2my@
  00228	68 00 00 00 00	 push	 OFFSET FLAT:??_C@_0BI@JKDNLCMH@m_pScannerBackG?5?$CB?$DN?5NULL?$AA@
  0022d	e8 00 00 00 00	 call	 __assert
  00232	83 c4 0c	 add	 esp, 12			; 0000000cH
$L94267:

; 156  : 		pOM->RegisterNewOverlay( m_pScannerBackG );

  00235	8b 45 f8	 mov	 eax, DWORD PTR _this$[ebp]
  00238	8b 88 8c 03 00
	00		 mov	 ecx, DWORD PTR [eax+908]
  0023e	51		 push	 ecx
  0023f	8b 4d 10	 mov	 ecx, DWORD PTR _pOM$[ebp]
  00242	e8 00 00 00 00	 call	 ?RegisterNewOverlay@CScreenOverlayManager@@QAEHPAVCScreenOverlay@@@Z ; CScreenOverlayManager::RegisterNewOverlay

; 157  : 		m_pScannerBackG->m_bActive = TRUE ;

  00247	8b 45 f8	 mov	 eax, DWORD PTR _this$[ebp]
  0024a	8b 88 8c 03 00
	00		 mov	 ecx, DWORD PTR [eax+908]
  00250	c7 81 84 00 00
	00 01 00 00 00	 mov	 DWORD PTR [ecx+132], 1

; 158  : 		m_pScannerBackG->m_pSharedVB = pOM->m_pVB ;

  0025a	8b 45 f8	 mov	 eax, DWORD PTR _this$[ebp]
  0025d	8b 88 8c 03 00
	00		 mov	 ecx, DWORD PTR [eax+908]
  00263	8b 55 10	 mov	 edx, DWORD PTR _pOM$[ebp]
  00266	8b 82 00 02 00
	00		 mov	 eax, DWORD PTR [edx+512]
  0026c	89 41 04	 mov	 DWORD PTR [ecx+4], eax

; 159  : 		m_pScannerBackG->RestoreDeviceObjects( pDev, fAspect );

  0026f	8b f4		 mov	 esi, esp
  00271	8b 45 18	 mov	 eax, DWORD PTR _fAspect$[ebp]
  00274	50		 push	 eax
  00275	8b 4d 0c	 mov	 ecx, DWORD PTR _pDev$[ebp]
  00278	51		 push	 ecx
  00279	8b 55 f8	 mov	 edx, DWORD PTR _this$[ebp]
  0027c	8b 82 8c 03 00
	00		 mov	 eax, DWORD PTR [edx+908]
  00282	8b 4d f8	 mov	 ecx, DWORD PTR _this$[ebp]
  00285	8b 89 8c 03 00
	00		 mov	 ecx, DWORD PTR [ecx+908]
  0028b	8b 10		 mov	 edx, DWORD PTR [eax]
  0028d	ff 52 04	 call	 DWORD PTR [edx+4]
  00290	3b f4		 cmp	 esi, esp
  00292	e8 00 00 00 00	 call	 __RTC_CheckEsp

; 160  : 
; 161  : 		hr = pDev->CreateVertexBuffer( MAX_SCANNER_POINTS * sizeof( POINTSPRITEVERTEX ),
; 162  : 		                               D3DUSAGE_DYNAMIC,
; 163  : 									   MYFVF_POINTSPRITEVERTEX,
; 164  : 				                       D3DPOOL_DEFAULT,
; 165  : 									   &m_pVB_Scanner );

  00297	8b 45 f8	 mov	 eax, DWORD PTR _this$[ebp]
  0029a	05 94 03 00 00	 add	 eax, 916		; 00000394H
  0029f	8b f4		 mov	 esi, esp
  002a1	50		 push	 eax
  002a2	6a 00		 push	 0
  002a4	6a 42		 push	 66			; 00000042H
  002a6	68 00 02 00 00	 push	 512			; 00000200H
  002ab	68 00 40 00 00	 push	 16384			; 00004000H
  002b0	8b 4d 0c	 mov	 ecx, DWORD PTR _pDev$[ebp]
  002b3	8b 11		 mov	 edx, DWORD PTR [ecx]
  002b5	8b 45 0c	 mov	 eax, DWORD PTR _pDev$[ebp]
  002b8	50		 push	 eax
  002b9	ff 52 5c	 call	 DWORD PTR [edx+92]
  002bc	3b f4		 cmp	 esi, esp
  002be	e8 00 00 00 00	 call	 __RTC_CheckEsp
  002c3	89 45 ec	 mov	 DWORD PTR _hr$[ebp], eax

; 166  : 		assert( !FAILED(hr) );

  002c6	83 7d ec 00	 cmp	 DWORD PTR _hr$[ebp], 0
  002ca	7d 1b		 jge	 SHORT $L94268
  002cc	a1 00 00 00 00	 mov	 eax, DWORD PTR ?__LINE__Var@?1??RestoreDeviceObjects@CUserFighter@@QAEJPAUIDirect3D8@@PAUIDirect3DDevice8@@PAVCScreenOverlayManager@@PAVCTextures@@M@Z@4JA
  002d1	83 c0 30	 add	 eax, 48			; 00000030H
  002d4	50		 push	 eax
  002d5	68 00 00 00 00	 push	 OFFSET FLAT:??_C@_0EO@MJDOOBEE@c?3?2documents?5and?5settings?2dom?2my@
  002da	68 00 00 00 00	 push	 OFFSET FLAT:??_C@_0M@NKNCPJJD@?$CBFAILED?$CIhr?$CJ?$AA@
  002df	e8 00 00 00 00	 call	 __assert
  002e4	83 c4 0c	 add	 esp, 12			; 0000000cH
$L94268:

; 167  : 
; 168  : 	//
; 169  : 	// HUD target icon:
; 170  : 	//
; 171  : 		c  = D3DXCOLOR( 1,1,1,0.5f );

  002e7	68 00 00 00 3f	 push	 1056964608		; 3f000000H
  002ec	68 00 00 80 3f	 push	 1065353216		; 3f800000H
  002f1	68 00 00 80 3f	 push	 1065353216		; 3f800000H
  002f6	68 00 00 80 3f	 push	 1065353216		; 3f800000H
  002fb	8d 8d 60 fe ff
	ff		 lea	 ecx, DWORD PTR $T94269[ebp]
  00301	e8 00 00 00 00	 call	 ??0D3DXCOLOR@@QAE@MMMM@Z ; D3DXCOLOR::D3DXCOLOR
  00306	8b 08		 mov	 ecx, DWORD PTR [eax]
  00308	89 4d d4	 mov	 DWORD PTR _c$[ebp], ecx
  0030b	8b 50 04	 mov	 edx, DWORD PTR [eax+4]
  0030e	89 55 d8	 mov	 DWORD PTR _c$[ebp+4], edx
  00311	8b 48 08	 mov	 ecx, DWORD PTR [eax+8]
  00314	89 4d dc	 mov	 DWORD PTR _c$[ebp+8], ecx
  00317	8b 50 0c	 mov	 edx, DWORD PTR [eax+12]
  0031a	89 55 e0	 mov	 DWORD PTR _c$[ebp+12], edx

; 172  : 		c2 = D3DXCOLOR( 1,1,1,0.5f );

  0031d	68 00 00 00 3f	 push	 1056964608		; 3f000000H
  00322	68 00 00 80 3f	 push	 1065353216		; 3f800000H
  00327	68 00 00 80 3f	 push	 1065353216		; 3f800000H
  0032c	68 00 00 80 3f	 push	 1065353216		; 3f800000H
  00331	8d 8d 48 fe ff
	ff		 lea	 ecx, DWORD PTR $T94270[ebp]
  00337	e8 00 00 00 00	 call	 ??0D3DXCOLOR@@QAE@MMMM@Z ; D3DXCOLOR::D3DXCOLOR
  0033c	8b 08		 mov	 ecx, DWORD PTR [eax]
  0033e	89 4d bc	 mov	 DWORD PTR _c2$[ebp], ecx
  00341	8b 50 04	 mov	 edx, DWORD PTR [eax+4]
  00344	89 55 c0	 mov	 DWORD PTR _c2$[ebp+4], edx
  00347	8b 48 08	 mov	 ecx, DWORD PTR [eax+8]
  0034a	89 4d c4	 mov	 DWORD PTR _c2$[ebp+8], ecx
  0034d	8b 50 0c	 mov	 edx, DWORD PTR [eax+12]
  00350	89 55 c8	 mov	 DWORD PTR _c2$[ebp+12], edx

; 173  : 		m_pTargetIcon = new CScreenOverlay( pTex->m_pTex[ HUD_TEX_START+2 ], 1.0f, 0.5f - (0.25f/2), 0.0f, 0.0f, 0.25f, 0.5f, &c, &c, &c2, &c2, OT_HUD_TARGETICON );

  00353	68 d4 00 00 00	 push	 212			; 000000d4H
  00358	e8 00 00 00 00	 call	 ??2@YAPAXI@Z		; operator new
  0035d	83 c4 04	 add	 esp, 4
  00360	89 85 3c fe ff
	ff		 mov	 DWORD PTR $T94271[ebp], eax
  00366	83 bd 3c fe ff
	ff 00		 cmp	 DWORD PTR $T94271[ebp], 0
  0036d	74 47		 je	 SHORT $L94272
  0036f	6a 07		 push	 7
  00371	8d 45 bc	 lea	 eax, DWORD PTR _c2$[ebp]
  00374	50		 push	 eax
  00375	8d 4d bc	 lea	 ecx, DWORD PTR _c2$[ebp]
  00378	51		 push	 ecx
  00379	8d 55 d4	 lea	 edx, DWORD PTR _c$[ebp]
  0037c	52		 push	 edx
  0037d	8d 45 d4	 lea	 eax, DWORD PTR _c$[ebp]
  00380	50		 push	 eax
  00381	68 00 00 00 3f	 push	 1056964608		; 3f000000H
  00386	68 00 00 80 3e	 push	 1048576000		; 3e800000H
  0038b	6a 00		 push	 0
  0038d	6a 00		 push	 0
  0038f	68 00 00 c0 3e	 push	 1052770304		; 3ec00000H
  00394	68 00 00 80 3f	 push	 1065353216		; 3f800000H
  00399	8b 4d 14	 mov	 ecx, DWORD PTR _pTex$[ebp]
  0039c	8b 91 44 03 00
	00		 mov	 edx, DWORD PTR [ecx+836]
  003a2	52		 push	 edx
  003a3	8b 8d 3c fe ff
	ff		 mov	 ecx, DWORD PTR $T94271[ebp]
  003a9	e8 00 00 00 00	 call	 ??0CScreenOverlay@@QAE@PAUIDirect3DTexture8@@MMMMMMPAUD3DXCOLOR@@111H@Z ; CScreenOverlay::CScreenOverlay
  003ae	89 85 a4 fd ff
	ff		 mov	 DWORD PTR tv261[ebp], eax
  003b4	eb 0a		 jmp	 SHORT $L94273
$L94272:
  003b6	c7 85 a4 fd ff
	ff 00 00 00 00	 mov	 DWORD PTR tv261[ebp], 0
$L94273:
  003c0	8b 45 f8	 mov	 eax, DWORD PTR _this$[ebp]
  003c3	8b 8d a4 fd ff
	ff		 mov	 ecx, DWORD PTR tv261[ebp]
  003c9	89 88 a8 03 00
	00		 mov	 DWORD PTR [eax+936], ecx

; 174  : 		assert( m_pTargetIcon != NULL );

  003cf	8b 45 f8	 mov	 eax, DWORD PTR _this$[ebp]
  003d2	83 b8 a8 03 00
	00 00		 cmp	 DWORD PTR [eax+936], 0
  003d9	75 1c		 jne	 SHORT $L94274
  003db	8b 0d 00 00 00
	00		 mov	 ecx, DWORD PTR ?__LINE__Var@?1??RestoreDeviceObjects@CUserFighter@@QAEJPAUIDirect3D8@@PAUIDirect3DDevice8@@PAVCScreenOverlayManager@@PAVCTextures@@M@Z@4JA
  003e1	83 c1 38	 add	 ecx, 56			; 00000038H
  003e4	51		 push	 ecx
  003e5	68 00 00 00 00	 push	 OFFSET FLAT:??_C@_0EO@MJDOOBEE@c?3?2documents?5and?5settings?2dom?2my@
  003ea	68 00 00 00 00	 push	 OFFSET FLAT:??_C@_0BG@LMFBNCIN@m_pTargetIcon?5?$CB?$DN?5NULL?$AA@
  003ef	e8 00 00 00 00	 call	 __assert
  003f4	83 c4 0c	 add	 esp, 12			; 0000000cH
$L94274:

; 175  : 		pOM->RegisterNewOverlay( m_pTargetIcon );

  003f7	8b 45 f8	 mov	 eax, DWORD PTR _this$[ebp]
  003fa	8b 88 a8 03 00
	00		 mov	 ecx, DWORD PTR [eax+936]
  00400	51		 push	 ecx
  00401	8b 4d 10	 mov	 ecx, DWORD PTR _pOM$[ebp]
  00404	e8 00 00 00 00	 call	 ?RegisterNewOverlay@CScreenOverlayManager@@QAEHPAVCScreenOverlay@@@Z ; CScreenOverlayManager::RegisterNewOverlay

; 176  : 		m_pTargetIcon->m_bActive = TRUE ;

  00409	8b 45 f8	 mov	 eax, DWORD PTR _this$[ebp]
  0040c	8b 88 a8 03 00
	00		 mov	 ecx, DWORD PTR [eax+936]
  00412	c7 81 84 00 00
	00 01 00 00 00	 mov	 DWORD PTR [ecx+132], 1

; 177  : 		m_pTargetIcon->m_pSharedVB = pOM->m_pVB ;

  0041c	8b 45 f8	 mov	 eax, DWORD PTR _this$[ebp]
  0041f	8b 88 a8 03 00
	00		 mov	 ecx, DWORD PTR [eax+936]
  00425	8b 55 10	 mov	 edx, DWORD PTR _pOM$[ebp]
  00428	8b 82 00 02 00
	00		 mov	 eax, DWORD PTR [edx+512]
  0042e	89 41 04	 mov	 DWORD PTR [ecx+4], eax

; 178  : 		m_pTargetIcon->RestoreDeviceObjects( pDev, fAspect );

  00431	8b f4		 mov	 esi, esp
  00433	8b 45 18	 mov	 eax, DWORD PTR _fAspect$[ebp]
  00436	50		 push	 eax
  00437	8b 4d 0c	 mov	 ecx, DWORD PTR _pDev$[ebp]
  0043a	51		 push	 ecx
  0043b	8b 55 f8	 mov	 edx, DWORD PTR _this$[ebp]
  0043e	8b 82 a8 03 00
	00		 mov	 eax, DWORD PTR [edx+936]
  00444	8b 4d f8	 mov	 ecx, DWORD PTR _this$[ebp]
  00447	8b 89 a8 03 00
	00		 mov	 ecx, DWORD PTR [ecx+936]
  0044d	8b 10		 mov	 edx, DWORD PTR [eax]
  0044f	ff 52 04	 call	 DWORD PTR [edx+4]
  00452	3b f4		 cmp	 esi, esp
  00454	e8 00 00 00 00	 call	 __RTC_CheckEsp

; 179  : 
; 180  : 	//
; 181  : 	// HUD crosshair:
; 182  : 	//
; 183  : 		c = D3DXCOLOR( 1,1,1,0.5f );

  00459	68 00 00 00 3f	 push	 1056964608		; 3f000000H
  0045e	68 00 00 80 3f	 push	 1065353216		; 3f800000H
  00463	68 00 00 80 3f	 push	 1065353216		; 3f800000H
  00468	68 00 00 80 3f	 push	 1065353216		; 3f800000H
  0046d	8d 8d 24 fe ff
	ff		 lea	 ecx, DWORD PTR $T94275[ebp]
  00473	e8 00 00 00 00	 call	 ??0D3DXCOLOR@@QAE@MMMM@Z ; D3DXCOLOR::D3DXCOLOR
  00478	8b 08		 mov	 ecx, DWORD PTR [eax]
  0047a	89 4d d4	 mov	 DWORD PTR _c$[ebp], ecx
  0047d	8b 50 04	 mov	 edx, DWORD PTR [eax+4]
  00480	89 55 d8	 mov	 DWORD PTR _c$[ebp+4], edx
  00483	8b 48 08	 mov	 ecx, DWORD PTR [eax+8]
  00486	89 4d dc	 mov	 DWORD PTR _c$[ebp+8], ecx
  00489	8b 50 0c	 mov	 edx, DWORD PTR [eax+12]
  0048c	89 55 e0	 mov	 DWORD PTR _c$[ebp+12], edx

; 184  : 		float fW = 1 * (1/fAspect) ;

  0048f	d9 05 00 00 00
	00		 fld	 DWORD PTR __real@3f800000
  00495	d8 75 18	 fdiv	 DWORD PTR _fAspect$[ebp]
  00498	d8 0d 00 00 00
	00		 fmul	 DWORD PTR __real@3f800000
  0049e	d9 5d b0	 fstp	 DWORD PTR _fW$[ebp]

; 185  : 		m_pCrosshair = new CScreenOverlay( pTex->m_pTex[ HUD_TEX_START+3 ], 1.0f, (1-fW)/2, 0, 0, fW, 1, &c, &c, &c, &c, OT_HUD_CROSSHAIR );

  004a1	68 d4 00 00 00	 push	 212			; 000000d4H
  004a6	e8 00 00 00 00	 call	 ??2@YAPAXI@Z		; operator new
  004ab	83 c4 04	 add	 esp, 4
  004ae	89 85 18 fe ff
	ff		 mov	 DWORD PTR $T94276[ebp], eax
  004b4	83 bd 18 fe ff
	ff 00		 cmp	 DWORD PTR $T94276[ebp], 0
  004bb	74 54		 je	 SHORT $L94277
  004bd	6a 08		 push	 8
  004bf	8d 45 d4	 lea	 eax, DWORD PTR _c$[ebp]
  004c2	50		 push	 eax
  004c3	8d 4d d4	 lea	 ecx, DWORD PTR _c$[ebp]
  004c6	51		 push	 ecx
  004c7	8d 55 d4	 lea	 edx, DWORD PTR _c$[ebp]
  004ca	52		 push	 edx
  004cb	8d 45 d4	 lea	 eax, DWORD PTR _c$[ebp]
  004ce	50		 push	 eax
  004cf	68 00 00 80 3f	 push	 1065353216		; 3f800000H
  004d4	8b 4d b0	 mov	 ecx, DWORD PTR _fW$[ebp]
  004d7	51		 push	 ecx
  004d8	6a 00		 push	 0
  004da	6a 00		 push	 0
  004dc	d9 05 00 00 00
	00		 fld	 DWORD PTR __real@3f800000
  004e2	d8 65 b0	 fsub	 DWORD PTR _fW$[ebp]
  004e5	d8 35 00 00 00
	00		 fdiv	 DWORD PTR __real@40000000
  004eb	51		 push	 ecx
  004ec	d9 1c 24	 fstp	 DWORD PTR [esp]
  004ef	68 00 00 80 3f	 push	 1065353216		; 3f800000H
  004f4	8b 55 14	 mov	 edx, DWORD PTR _pTex$[ebp]
  004f7	8b 82 48 03 00
	00		 mov	 eax, DWORD PTR [edx+840]
  004fd	50		 push	 eax
  004fe	8b 8d 18 fe ff
	ff		 mov	 ecx, DWORD PTR $T94276[ebp]
  00504	e8 00 00 00 00	 call	 ??0CScreenOverlay@@QAE@PAUIDirect3DTexture8@@MMMMMMPAUD3DXCOLOR@@111H@Z ; CScreenOverlay::CScreenOverlay
  00509	89 85 a4 fd ff
	ff		 mov	 DWORD PTR tv319[ebp], eax
  0050f	eb 0a		 jmp	 SHORT $L94278
$L94277:
  00511	c7 85 a4 fd ff
	ff 00 00 00 00	 mov	 DWORD PTR tv319[ebp], 0
$L94278:
  0051b	8b 4d f8	 mov	 ecx, DWORD PTR _this$[ebp]
  0051e	8b 95 a4 fd ff
	ff		 mov	 edx, DWORD PTR tv319[ebp]
  00524	89 91 b4 03 00
	00		 mov	 DWORD PTR [ecx+948], edx

; 186  : 		assert( m_pCrosshair != NULL );

  0052a	8b 45 f8	 mov	 eax, DWORD PTR _this$[ebp]
  0052d	83 b8 b4 03 00
	00 00		 cmp	 DWORD PTR [eax+948], 0
  00534	75 1c		 jne	 SHORT $L94279
  00536	8b 0d 00 00 00
	00		 mov	 ecx, DWORD PTR ?__LINE__Var@?1??RestoreDeviceObjects@CUserFighter@@QAEJPAUIDirect3D8@@PAUIDirect3DDevice8@@PAVCScreenOverlayManager@@PAVCTextures@@M@Z@4JA
  0053c	83 c1 44	 add	 ecx, 68			; 00000044H
  0053f	51		 push	 ecx
  00540	68 00 00 00 00	 push	 OFFSET FLAT:??_C@_0EO@MJDOOBEE@c?3?2documents?5and?5settings?2dom?2my@
  00545	68 00 00 00 00	 push	 OFFSET FLAT:??_C@_0BF@LCAKBPM@m_pCrosshair?5?$CB?$DN?5NULL?$AA@
  0054a	e8 00 00 00 00	 call	 __assert
  0054f	83 c4 0c	 add	 esp, 12			; 0000000cH
$L94279:

; 187  : 		pOM->RegisterNewOverlay( m_pCrosshair );

  00552	8b 45 f8	 mov	 eax, DWORD PTR _this$[ebp]
  00555	8b 88 b4 03 00
	00		 mov	 ecx, DWORD PTR [eax+948]
  0055b	51		 push	 ecx
  0055c	8b 4d 10	 mov	 ecx, DWORD PTR _pOM$[ebp]
  0055f	e8 00 00 00 00	 call	 ?RegisterNewOverlay@CScreenOverlayManager@@QAEHPAVCScreenOverlay@@@Z ; CScreenOverlayManager::RegisterNewOverlay

; 188  : 		m_pCrosshair->m_bActive = TRUE ;

  00564	8b 45 f8	 mov	 eax, DWORD PTR _this$[ebp]
  00567	8b 88 b4 03 00
	00		 mov	 ecx, DWORD PTR [eax+948]
  0056d	c7 81 84 00 00
	00 01 00 00 00	 mov	 DWORD PTR [ecx+132], 1

; 189  : 		m_pCrosshair->m_pSharedVB = pOM->m_pVB ;

  00577	8b 45 f8	 mov	 eax, DWORD PTR _this$[ebp]
  0057a	8b 88 b4 03 00
	00		 mov	 ecx, DWORD PTR [eax+948]
  00580	8b 55 10	 mov	 edx, DWORD PTR _pOM$[ebp]
  00583	8b 82 00 02 00
	00		 mov	 eax, DWORD PTR [edx+512]
  00589	89 41 04	 mov	 DWORD PTR [ecx+4], eax

; 190  : 		m_pCrosshair->RestoreDeviceObjects( pDev, fAspect );

  0058c	8b f4		 mov	 esi, esp
  0058e	8b 45 18	 mov	 eax, DWORD PTR _fAspect$[ebp]
  00591	50		 push	 eax
  00592	8b 4d 0c	 mov	 ecx, DWORD PTR _pDev$[ebp]
  00595	51		 push	 ecx
  00596	8b 55 f8	 mov	 edx, DWORD PTR _this$[ebp]
  00599	8b 82 b4 03 00
	00		 mov	 eax, DWORD PTR [edx+948]
  0059f	8b 4d f8	 mov	 ecx, DWORD PTR _this$[ebp]
  005a2	8b 89 b4 03 00
	00		 mov	 ecx, DWORD PTR [ecx+948]
  005a8	8b 10		 mov	 edx, DWORD PTR [eax]
  005aa	ff 52 04	 call	 DWORD PTR [edx+4]
  005ad	3b f4		 cmp	 esi, esp
  005af	e8 00 00 00 00	 call	 __RTC_CheckEsp

; 191  : 
; 192  : 	//
; 193  : 	// HUD pain:
; 194  : 	//
; 195  : 		c = D3DXCOLOR( 0,0,0,0 );	// colours will come from material specified in RenderHUD()

  005b4	6a 00		 push	 0
  005b6	6a 00		 push	 0
  005b8	6a 00		 push	 0
  005ba	6a 00		 push	 0
  005bc	8d 8d 00 fe ff
	ff		 lea	 ecx, DWORD PTR $T94280[ebp]
  005c2	e8 00 00 00 00	 call	 ??0D3DXCOLOR@@QAE@MMMM@Z ; D3DXCOLOR::D3DXCOLOR
  005c7	8b 08		 mov	 ecx, DWORD PTR [eax]
  005c9	89 4d d4	 mov	 DWORD PTR _c$[ebp], ecx
  005cc	8b 50 04	 mov	 edx, DWORD PTR [eax+4]
  005cf	89 55 d8	 mov	 DWORD PTR _c$[ebp+4], edx
  005d2	8b 48 08	 mov	 ecx, DWORD PTR [eax+8]
  005d5	89 4d dc	 mov	 DWORD PTR _c$[ebp+8], ecx
  005d8	8b 50 0c	 mov	 edx, DWORD PTR [eax+12]
  005db	89 55 e0	 mov	 DWORD PTR _c$[ebp+12], edx

; 196  : 		m_pRedQuad = new CScreenOverlay( pTex->m_pTex[ MISC_TEX_START+4 ], 1.0f, 0, 0, 0, 1, 1, &c, &c, &c, &c, OT_HUD_PAIN );

  005de	68 d4 00 00 00	 push	 212			; 000000d4H
  005e3	e8 00 00 00 00	 call	 ??2@YAPAXI@Z		; operator new
  005e8	83 c4 04	 add	 esp, 4
  005eb	89 85 f4 fd ff
	ff		 mov	 DWORD PTR $T94281[ebp], eax
  005f1	83 bd f4 fd ff
	ff 00		 cmp	 DWORD PTR $T94281[ebp], 0
  005f8	74 44		 je	 SHORT $L94282
  005fa	6a 09		 push	 9
  005fc	8d 45 d4	 lea	 eax, DWORD PTR _c$[ebp]
  005ff	50		 push	 eax
  00600	8d 4d d4	 lea	 ecx, DWORD PTR _c$[ebp]
  00603	51		 push	 ecx
  00604	8d 55 d4	 lea	 edx, DWORD PTR _c$[ebp]
  00607	52		 push	 edx
  00608	8d 45 d4	 lea	 eax, DWORD PTR _c$[ebp]
  0060b	50		 push	 eax
  0060c	68 00 00 80 3f	 push	 1065353216		; 3f800000H
  00611	68 00 00 80 3f	 push	 1065353216		; 3f800000H
  00616	6a 00		 push	 0
  00618	6a 00		 push	 0
  0061a	6a 00		 push	 0
  0061c	68 00 00 80 3f	 push	 1065353216		; 3f800000H
  00621	8b 4d 14	 mov	 ecx, DWORD PTR _pTex$[ebp]
  00624	8b 91 1c 0b 00
	00		 mov	 edx, DWORD PTR [ecx+2844]
  0062a	52		 push	 edx
  0062b	8b 8d f4 fd ff
	ff		 mov	 ecx, DWORD PTR $T94281[ebp]
  00631	e8 00 00 00 00	 call	 ??0CScreenOverlay@@QAE@PAUIDirect3DTexture8@@MMMMMMPAUD3DXCOLOR@@111H@Z ; CScreenOverlay::CScreenOverlay
  00636	89 85 a4 fd ff
	ff		 mov	 DWORD PTR tv371[ebp], eax
  0063c	eb 0a		 jmp	 SHORT $L94283
$L94282:
  0063e	c7 85 a4 fd ff
	ff 00 00 00 00	 mov	 DWORD PTR tv371[ebp], 0
$L94283:
  00648	8b 45 f8	 mov	 eax, DWORD PTR _this$[ebp]
  0064b	8b 8d a4 fd ff
	ff		 mov	 ecx, DWORD PTR tv371[ebp]
  00651	89 88 88 03 00
	00		 mov	 DWORD PTR [eax+904], ecx

; 197  : 		assert( m_pRedQuad != NULL );

  00657	8b 45 f8	 mov	 eax, DWORD PTR _this$[ebp]
  0065a	83 b8 88 03 00
	00 00		 cmp	 DWORD PTR [eax+904], 0
  00661	75 1c		 jne	 SHORT $L94284
  00663	8b 0d 00 00 00
	00		 mov	 ecx, DWORD PTR ?__LINE__Var@?1??RestoreDeviceObjects@CUserFighter@@QAEJPAUIDirect3D8@@PAUIDirect3DDevice8@@PAVCScreenOverlayManager@@PAVCTextures@@M@Z@4JA
  00669	83 c1 4f	 add	 ecx, 79			; 0000004fH
  0066c	51		 push	 ecx
  0066d	68 00 00 00 00	 push	 OFFSET FLAT:??_C@_0EO@MJDOOBEE@c?3?2documents?5and?5settings?2dom?2my@
  00672	68 00 00 00 00	 push	 OFFSET FLAT:??_C@_0BD@LCEONFJF@m_pRedQuad?5?$CB?$DN?5NULL?$AA@
  00677	e8 00 00 00 00	 call	 __assert
  0067c	83 c4 0c	 add	 esp, 12			; 0000000cH
$L94284:

; 198  : 		pOM->RegisterNewOverlay( m_pRedQuad );

  0067f	8b 45 f8	 mov	 eax, DWORD PTR _this$[ebp]
  00682	8b 88 88 03 00
	00		 mov	 ecx, DWORD PTR [eax+904]
  00688	51		 push	 ecx
  00689	8b 4d 10	 mov	 ecx, DWORD PTR _pOM$[ebp]
  0068c	e8 00 00 00 00	 call	 ?RegisterNewOverlay@CScreenOverlayManager@@QAEHPAVCScreenOverlay@@@Z ; CScreenOverlayManager::RegisterNewOverlay

; 199  : 		m_pRedQuad->m_bActive = TRUE ;

  00691	8b 45 f8	 mov	 eax, DWORD PTR _this$[ebp]
  00694	8b 88 88 03 00
	00		 mov	 ecx, DWORD PTR [eax+904]
  0069a	c7 81 84 00 00
	00 01 00 00 00	 mov	 DWORD PTR [ecx+132], 1

; 200  : 		m_pRedQuad->m_pSharedVB = pOM->m_pVB ;

  006a4	8b 45 f8	 mov	 eax, DWORD PTR _this$[ebp]
  006a7	8b 88 88 03 00
	00		 mov	 ecx, DWORD PTR [eax+904]
  006ad	8b 55 10	 mov	 edx, DWORD PTR _pOM$[ebp]
  006b0	8b 82 00 02 00
	00		 mov	 eax, DWORD PTR [edx+512]
  006b6	89 41 04	 mov	 DWORD PTR [ecx+4], eax

; 201  : 		m_pRedQuad->RestoreDeviceObjects( pDev, fAspect );

  006b9	8b f4		 mov	 esi, esp
  006bb	8b 45 18	 mov	 eax, DWORD PTR _fAspect$[ebp]
  006be	50		 push	 eax
  006bf	8b 4d 0c	 mov	 ecx, DWORD PTR _pDev$[ebp]
  006c2	51		 push	 ecx
  006c3	8b 55 f8	 mov	 edx, DWORD PTR _this$[ebp]
  006c6	8b 82 88 03 00
	00		 mov	 eax, DWORD PTR [edx+904]
  006cc	8b 4d f8	 mov	 ecx, DWORD PTR _this$[ebp]
  006cf	8b 89 88 03 00
	00		 mov	 ecx, DWORD PTR [ecx+904]
  006d5	8b 10		 mov	 edx, DWORD PTR [eax]
  006d7	ff 52 04	 call	 DWORD PTR [edx+4]
  006da	3b f4		 cmp	 esi, esp
  006dc	e8 00 00 00 00	 call	 __RTC_CheckEsp

; 202  : 
; 203  : 	//
; 204  : 	// HUD Overlays:
; 205  : 	//
; 206  : 		float fWidth = 0.35f ;

  006e1	c7 45 a4 33 33
	b3 3e		 mov	 DWORD PTR _fWidth$[ebp], 1051931443 ; 3eb33333H

; 207  : 		float fHeight = 0.035f ;

  006e8	c7 45 98 29 5c
	0f 3d		 mov	 DWORD PTR _fHeight$[ebp], 1024416809 ; 3d0f5c29H

; 208  : 		float fSep = fHeight / 2.0f ;

  006ef	d9 45 98	 fld	 DWORD PTR _fHeight$[ebp]
  006f2	d8 35 00 00 00
	00		 fdiv	 DWORD PTR __real@40000000
  006f8	d9 5d 8c	 fstp	 DWORD PTR _fSep$[ebp]

; 209  : 		float fTop = 0.825f ;

  006fb	c7 45 80 33 33
	53 3f		 mov	 DWORD PTR _fTop$[ebp], 1062417203 ; 3f533333H

; 210  : 		float fLeft = 0.035f ;

  00702	c7 85 74 ff ff
	ff 29 5c 0f 3d	 mov	 DWORD PTR _fLeft$[ebp], 1024416809 ; 3d0f5c29H

; 211  : 		float fBackGAlpha = 0.1f ;

  0070c	c7 85 68 ff ff
	ff cd cc cc 3d	 mov	 DWORD PTR _fBackGAlpha$[ebp], 1036831949 ; 3dcccccdH

; 212  : 		float fForeGAlpha = 0.1f ;

  00716	c7 85 5c ff ff
	ff cd cc cc 3d	 mov	 DWORD PTR _fForeGAlpha$[ebp], 1036831949 ; 3dcccccdH

; 213  : 
; 214  : 		/*D3DXCOLOR c = D3DXCOLOR(0.5f, 0.5f, 0.9f, 0.75f) ;
; 215  : 		m_pSystems = new CScreenOverlay( pTex->m_pTex[ HUD_TEX_START+1 ], 1.0f, -0.1f, 0.5f, 0.0f, 0.5f, 0.5f, &c, &c, &c, &c, OT_HUD_LEGEND);
; 216  : 		pOM->RegisterNewOverlay( m_pSystems );
; 217  : 		m_pSystems->m_bActive = TRUE ;
; 218  : 		m_pSystems->m_pSharedVB = pOM->m_pVB ;
; 219  : 		m_pSystems->RestoreDeviceObjects( pDev, fAspect );*/
; 220  : 
; 221  : 	// shield scalebar
; 222  : 		m_pHUDShieldBackG = new CHUDScaleBar( NULL, 10.0f, 1.0f, 0.5f, 0.5f, 0.5f, fBackGAlpha, FALSE, fLeft, fTop, 0.0f, fWidth, fHeight ); 

  00720	68 f0 00 00 00	 push	 240			; 000000f0H
  00725	e8 00 00 00 00	 call	 ??2@YAPAXI@Z		; operator new
  0072a	83 c4 04	 add	 esp, 4
  0072d	89 85 e8 fd ff
	ff		 mov	 DWORD PTR $T94285[ebp], eax
  00733	83 bd e8 fd ff
	ff 00		 cmp	 DWORD PTR $T94285[ebp], 0
  0073a	74 4c		 je	 SHORT $L94286
  0073c	8b 45 98	 mov	 eax, DWORD PTR _fHeight$[ebp]
  0073f	50		 push	 eax
  00740	8b 4d a4	 mov	 ecx, DWORD PTR _fWidth$[ebp]
  00743	51		 push	 ecx
  00744	6a 00		 push	 0
  00746	8b 55 80	 mov	 edx, DWORD PTR _fTop$[ebp]
  00749	52		 push	 edx
  0074a	8b 85 74 ff ff
	ff		 mov	 eax, DWORD PTR _fLeft$[ebp]
  00750	50		 push	 eax
  00751	6a 00		 push	 0
  00753	8b 8d 68 ff ff
	ff		 mov	 ecx, DWORD PTR _fBackGAlpha$[ebp]
  00759	51		 push	 ecx
  0075a	68 00 00 00 3f	 push	 1056964608		; 3f000000H
  0075f	68 00 00 00 3f	 push	 1056964608		; 3f000000H
  00764	68 00 00 00 3f	 push	 1056964608		; 3f000000H
  00769	68 00 00 80 3f	 push	 1065353216		; 3f800000H
  0076e	68 00 00 20 41	 push	 1092616192		; 41200000H
  00773	6a 00		 push	 0
  00775	8b 8d e8 fd ff
	ff		 mov	 ecx, DWORD PTR $T94285[ebp]
  0077b	e8 00 00 00 00	 call	 ??0CHUDScaleBar@@QAE@PAUIDirect3DTexture8@@MMMMMMHMMMMM@Z ; CHUDScaleBar::CHUDScaleBar
  00780	89 85 a4 fd ff
	ff		 mov	 DWORD PTR tv416[ebp], eax
  00786	eb 0a		 jmp	 SHORT $L94287
$L94286:
  00788	c7 85 a4 fd ff
	ff 00 00 00 00	 mov	 DWORD PTR tv416[ebp], 0
$L94287:
  00792	8b 55 f8	 mov	 edx, DWORD PTR _this$[ebp]
  00795	8b 85 a4 fd ff
	ff		 mov	 eax, DWORD PTR tv416[ebp]
  0079b	89 82 64 03 00
	00		 mov	 DWORD PTR [edx+868], eax

; 223  : 		pOM->RegisterNewOverlay( m_pHUDShieldBackG );

  007a1	8b 45 f8	 mov	 eax, DWORD PTR _this$[ebp]
  007a4	8b 88 64 03 00
	00		 mov	 ecx, DWORD PTR [eax+868]
  007aa	51		 push	 ecx
  007ab	8b 4d 10	 mov	 ecx, DWORD PTR _pOM$[ebp]
  007ae	e8 00 00 00 00	 call	 ?RegisterNewOverlay@CScreenOverlayManager@@QAEHPAVCScreenOverlay@@@Z ; CScreenOverlayManager::RegisterNewOverlay

; 224  : 		m_pHUDShieldBackG->m_bActive = TRUE ;

  007b3	8b 45 f8	 mov	 eax, DWORD PTR _this$[ebp]
  007b6	8b 88 64 03 00
	00		 mov	 ecx, DWORD PTR [eax+868]
  007bc	c7 81 84 00 00
	00 01 00 00 00	 mov	 DWORD PTR [ecx+132], 1

; 225  : 		m_pHUDShieldBackG->m_pSharedVB = pOM->m_pVB ;

  007c6	8b 45 f8	 mov	 eax, DWORD PTR _this$[ebp]
  007c9	8b 88 64 03 00
	00		 mov	 ecx, DWORD PTR [eax+868]
  007cf	8b 55 10	 mov	 edx, DWORD PTR _pOM$[ebp]
  007d2	8b 82 00 02 00
	00		 mov	 eax, DWORD PTR [edx+512]
  007d8	89 41 04	 mov	 DWORD PTR [ecx+4], eax

; 226  : 		m_pHUDShieldBackG->RestoreDeviceObjects( pDev, fAspect );

  007db	8b f4		 mov	 esi, esp
  007dd	8b 45 18	 mov	 eax, DWORD PTR _fAspect$[ebp]
  007e0	50		 push	 eax
  007e1	8b 4d 0c	 mov	 ecx, DWORD PTR _pDev$[ebp]
  007e4	51		 push	 ecx
  007e5	8b 55 f8	 mov	 edx, DWORD PTR _this$[ebp]
  007e8	8b 82 64 03 00
	00		 mov	 eax, DWORD PTR [edx+868]
  007ee	8b 4d f8	 mov	 ecx, DWORD PTR _this$[ebp]
  007f1	8b 89 64 03 00
	00		 mov	 ecx, DWORD PTR [ecx+868]
  007f7	8b 10		 mov	 edx, DWORD PTR [eax]
  007f9	ff 52 04	 call	 DWORD PTR [edx+4]
  007fc	3b f4		 cmp	 esi, esp
  007fe	e8 00 00 00 00	 call	 __RTC_CheckEsp

; 227  : 		m_pHUDShieldBackG->m_fLevel = 1.0f ;

  00803	8b 45 f8	 mov	 eax, DWORD PTR _this$[ebp]
  00806	8b 88 64 03 00
	00		 mov	 ecx, DWORD PTR [eax+868]
  0080c	c7 81 e8 00 00
	00 00 00 80 3f	 mov	 DWORD PTR [ecx+232], 1065353216 ; 3f800000H

; 228  : 		m_pHUDShieldBackG->m_bFrameMoveRequired  = TRUE ;

  00816	8b 45 f8	 mov	 eax, DWORD PTR _this$[ebp]
  00819	8b 88 64 03 00
	00		 mov	 ecx, DWORD PTR [eax+868]
  0081f	c7 81 d0 00 00
	00 01 00 00 00	 mov	 DWORD PTR [ecx+208], 1

; 229  : 
; 230  : 		m_pHUDShieldLevel = new CHUDScaleBar( NULL, 1.0f, 1.0f, 0.0f, 0.0f, 1.0f, fForeGAlpha, TRUE, fLeft, fTop, 0.0f, fWidth, fHeight ); 

  00829	68 f0 00 00 00	 push	 240			; 000000f0H
  0082e	e8 00 00 00 00	 call	 ??2@YAPAXI@Z		; operator new
  00833	83 c4 04	 add	 esp, 4
  00836	89 85 dc fd ff
	ff		 mov	 DWORD PTR $T94288[ebp], eax
  0083c	83 bd dc fd ff
	ff 00		 cmp	 DWORD PTR $T94288[ebp], 0
  00843	74 46		 je	 SHORT $L94289
  00845	8b 45 98	 mov	 eax, DWORD PTR _fHeight$[ebp]
  00848	50		 push	 eax
  00849	8b 4d a4	 mov	 ecx, DWORD PTR _fWidth$[ebp]
  0084c	51		 push	 ecx
  0084d	6a 00		 push	 0
  0084f	8b 55 80	 mov	 edx, DWORD PTR _fTop$[ebp]
  00852	52		 push	 edx
  00853	8b 85 74 ff ff
	ff		 mov	 eax, DWORD PTR _fLeft$[ebp]
  00859	50		 push	 eax
  0085a	6a 01		 push	 1
  0085c	8b 8d 5c ff ff
	ff		 mov	 ecx, DWORD PTR _fForeGAlpha$[ebp]
  00862	51		 push	 ecx
  00863	68 00 00 80 3f	 push	 1065353216		; 3f800000H
  00868	6a 00		 push	 0
  0086a	6a 00		 push	 0
  0086c	68 00 00 80 3f	 push	 1065353216		; 3f800000H
  00871	68 00 00 80 3f	 push	 1065353216		; 3f800000H
  00876	6a 00		 push	 0
  00878	8b 8d dc fd ff
	ff		 mov	 ecx, DWORD PTR $T94288[ebp]
  0087e	e8 00 00 00 00	 call	 ??0CHUDScaleBar@@QAE@PAUIDirect3DTexture8@@MMMMMMHMMMMM@Z ; CHUDScaleBar::CHUDScaleBar
  00883	89 85 a4 fd ff
	ff		 mov	 DWORD PTR tv457[ebp], eax
  00889	eb 0a		 jmp	 SHORT $L94290
$L94289:
  0088b	c7 85 a4 fd ff
	ff 00 00 00 00	 mov	 DWORD PTR tv457[ebp], 0
$L94290:
  00895	8b 55 f8	 mov	 edx, DWORD PTR _this$[ebp]
  00898	8b 85 a4 fd ff
	ff		 mov	 eax, DWORD PTR tv457[ebp]
  0089e	89 82 60 03 00
	00		 mov	 DWORD PTR [edx+864], eax

; 231  : 		pOM->RegisterNewOverlay( m_pHUDShieldLevel );

  008a4	8b 45 f8	 mov	 eax, DWORD PTR _this$[ebp]
  008a7	8b 88 60 03 00
	00		 mov	 ecx, DWORD PTR [eax+864]
  008ad	51		 push	 ecx
  008ae	8b 4d 10	 mov	 ecx, DWORD PTR _pOM$[ebp]
  008b1	e8 00 00 00 00	 call	 ?RegisterNewOverlay@CScreenOverlayManager@@QAEHPAVCScreenOverlay@@@Z ; CScreenOverlayManager::RegisterNewOverlay

; 232  : 		m_pHUDShieldLevel->m_bActive = TRUE ;

  008b6	8b 45 f8	 mov	 eax, DWORD PTR _this$[ebp]
  008b9	8b 88 60 03 00
	00		 mov	 ecx, DWORD PTR [eax+864]
  008bf	c7 81 84 00 00
	00 01 00 00 00	 mov	 DWORD PTR [ecx+132], 1

; 233  : 		m_pHUDShieldLevel->m_pSharedVB = pOM->m_pVB ;

  008c9	8b 45 f8	 mov	 eax, DWORD PTR _this$[ebp]
  008cc	8b 88 60 03 00
	00		 mov	 ecx, DWORD PTR [eax+864]
  008d2	8b 55 10	 mov	 edx, DWORD PTR _pOM$[ebp]
  008d5	8b 82 00 02 00
	00		 mov	 eax, DWORD PTR [edx+512]
  008db	89 41 04	 mov	 DWORD PTR [ecx+4], eax

; 234  : 		m_pHUDShieldLevel->RestoreDeviceObjects( pDev, fAspect );

  008de	8b f4		 mov	 esi, esp
  008e0	8b 45 18	 mov	 eax, DWORD PTR _fAspect$[ebp]
  008e3	50		 push	 eax
  008e4	8b 4d 0c	 mov	 ecx, DWORD PTR _pDev$[ebp]
  008e7	51		 push	 ecx
  008e8	8b 55 f8	 mov	 edx, DWORD PTR _this$[ebp]
  008eb	8b 82 60 03 00
	00		 mov	 eax, DWORD PTR [edx+864]
  008f1	8b 4d f8	 mov	 ecx, DWORD PTR _this$[ebp]
  008f4	8b 89 60 03 00
	00		 mov	 ecx, DWORD PTR [ecx+864]
  008fa	8b 10		 mov	 edx, DWORD PTR [eax]
  008fc	ff 52 04	 call	 DWORD PTR [edx+4]
  008ff	3b f4		 cmp	 esi, esp
  00901	e8 00 00 00 00	 call	 __RTC_CheckEsp

; 235  : 		m_pHUDShieldLevel->m_fLevel = m_fShieldLevel ;

  00906	8b 45 f8	 mov	 eax, DWORD PTR _this$[ebp]
  00909	8b 88 60 03 00
	00		 mov	 ecx, DWORD PTR [eax+864]
  0090f	8b 55 f8	 mov	 edx, DWORD PTR _this$[ebp]
  00912	8b 82 08 03 00
	00		 mov	 eax, DWORD PTR [edx+776]
  00918	89 81 e8 00 00
	00		 mov	 DWORD PTR [ecx+232], eax

; 236  : 		m_pHUDShieldLevel->m_bFrameMoveRequired  = TRUE ;

  0091e	8b 45 f8	 mov	 eax, DWORD PTR _this$[ebp]
  00921	8b 88 60 03 00
	00		 mov	 ecx, DWORD PTR [eax+864]
  00927	c7 81 d0 00 00
	00 01 00 00 00	 mov	 DWORD PTR [ecx+208], 1

; 237  : 
; 238  : 		fTop += fHeight ;

  00931	d9 45 80	 fld	 DWORD PTR _fTop$[ebp]
  00934	d8 45 98	 fadd	 DWORD PTR _fHeight$[ebp]
  00937	d9 5d 80	 fstp	 DWORD PTR _fTop$[ebp]

; 239  : 		fTop += fSep ;

  0093a	d9 45 80	 fld	 DWORD PTR _fTop$[ebp]
  0093d	d8 45 8c	 fadd	 DWORD PTR _fSep$[ebp]
  00940	d9 5d 80	 fstp	 DWORD PTR _fTop$[ebp]

; 240  : 
; 241  : 	// weapons scalebar
; 242  : 		m_pHUDWeaponsBackG = new CHUDScaleBar( NULL, 10.0f, 1.0f, 0.5f, 0.5f, 0.5f, fBackGAlpha, FALSE, fLeft, fTop, 0.0f, fWidth, fHeight ); 

  00943	68 f0 00 00 00	 push	 240			; 000000f0H
  00948	e8 00 00 00 00	 call	 ??2@YAPAXI@Z		; operator new
  0094d	83 c4 04	 add	 esp, 4
  00950	89 85 d0 fd ff
	ff		 mov	 DWORD PTR $T94291[ebp], eax
  00956	83 bd d0 fd ff
	ff 00		 cmp	 DWORD PTR $T94291[ebp], 0
  0095d	74 4c		 je	 SHORT $L94292
  0095f	8b 45 98	 mov	 eax, DWORD PTR _fHeight$[ebp]
  00962	50		 push	 eax
  00963	8b 4d a4	 mov	 ecx, DWORD PTR _fWidth$[ebp]
  00966	51		 push	 ecx
  00967	6a 00		 push	 0
  00969	8b 55 80	 mov	 edx, DWORD PTR _fTop$[ebp]
  0096c	52		 push	 edx
  0096d	8b 85 74 ff ff
	ff		 mov	 eax, DWORD PTR _fLeft$[ebp]
  00973	50		 push	 eax
  00974	6a 00		 push	 0
  00976	8b 8d 68 ff ff
	ff		 mov	 ecx, DWORD PTR _fBackGAlpha$[ebp]
  0097c	51		 push	 ecx
  0097d	68 00 00 00 3f	 push	 1056964608		; 3f000000H
  00982	68 00 00 00 3f	 push	 1056964608		; 3f000000H
  00987	68 00 00 00 3f	 push	 1056964608		; 3f000000H
  0098c	68 00 00 80 3f	 push	 1065353216		; 3f800000H
  00991	68 00 00 20 41	 push	 1092616192		; 41200000H
  00996	6a 00		 push	 0
  00998	8b 8d d0 fd ff
	ff		 mov	 ecx, DWORD PTR $T94291[ebp]
  0099e	e8 00 00 00 00	 call	 ??0CHUDScaleBar@@QAE@PAUIDirect3DTexture8@@MMMMMMHMMMMM@Z ; CHUDScaleBar::CHUDScaleBar
  009a3	89 85 a4 fd ff
	ff		 mov	 DWORD PTR tv501[ebp], eax
  009a9	eb 0a		 jmp	 SHORT $L94293
$L94292:
  009ab	c7 85 a4 fd ff
	ff 00 00 00 00	 mov	 DWORD PTR tv501[ebp], 0
$L94293:
  009b5	8b 55 f8	 mov	 edx, DWORD PTR _this$[ebp]
  009b8	8b 85 a4 fd ff
	ff		 mov	 eax, DWORD PTR tv501[ebp]
  009be	89 82 6c 03 00
	00		 mov	 DWORD PTR [edx+876], eax

; 243  : 		pOM->RegisterNewOverlay( m_pHUDWeaponsBackG );

  009c4	8b 45 f8	 mov	 eax, DWORD PTR _this$[ebp]
  009c7	8b 88 6c 03 00
	00		 mov	 ecx, DWORD PTR [eax+876]
  009cd	51		 push	 ecx
  009ce	8b 4d 10	 mov	 ecx, DWORD PTR _pOM$[ebp]
  009d1	e8 00 00 00 00	 call	 ?RegisterNewOverlay@CScreenOverlayManager@@QAEHPAVCScreenOverlay@@@Z ; CScreenOverlayManager::RegisterNewOverlay

; 244  : 		m_pHUDWeaponsBackG->m_bActive = TRUE ;

  009d6	8b 45 f8	 mov	 eax, DWORD PTR _this$[ebp]
  009d9	8b 88 6c 03 00
	00		 mov	 ecx, DWORD PTR [eax+876]
  009df	c7 81 84 00 00
	00 01 00 00 00	 mov	 DWORD PTR [ecx+132], 1

; 245  : 		m_pHUDWeaponsBackG->m_pSharedVB = pOM->m_pVB ;

  009e9	8b 45 f8	 mov	 eax, DWORD PTR _this$[ebp]
  009ec	8b 88 6c 03 00
	00		 mov	 ecx, DWORD PTR [eax+876]
  009f2	8b 55 10	 mov	 edx, DWORD PTR _pOM$[ebp]
  009f5	8b 82 00 02 00
	00		 mov	 eax, DWORD PTR [edx+512]
  009fb	89 41 04	 mov	 DWORD PTR [ecx+4], eax

; 246  : 		m_pHUDWeaponsBackG->RestoreDeviceObjects( pDev, fAspect );

  009fe	8b f4		 mov	 esi, esp
  00a00	8b 45 18	 mov	 eax, DWORD PTR _fAspect$[ebp]
  00a03	50		 push	 eax
  00a04	8b 4d 0c	 mov	 ecx, DWORD PTR _pDev$[ebp]
  00a07	51		 push	 ecx
  00a08	8b 55 f8	 mov	 edx, DWORD PTR _this$[ebp]
  00a0b	8b 82 6c 03 00
	00		 mov	 eax, DWORD PTR [edx+876]
  00a11	8b 4d f8	 mov	 ecx, DWORD PTR _this$[ebp]
  00a14	8b 89 6c 03 00
	00		 mov	 ecx, DWORD PTR [ecx+876]
  00a1a	8b 10		 mov	 edx, DWORD PTR [eax]
  00a1c	ff 52 04	 call	 DWORD PTR [edx+4]
  00a1f	3b f4		 cmp	 esi, esp
  00a21	e8 00 00 00 00	 call	 __RTC_CheckEsp

; 247  : 		m_pHUDWeaponsBackG->m_fLevel = 1.0f ;

  00a26	8b 45 f8	 mov	 eax, DWORD PTR _this$[ebp]
  00a29	8b 88 6c 03 00
	00		 mov	 ecx, DWORD PTR [eax+876]
  00a2f	c7 81 e8 00 00
	00 00 00 80 3f	 mov	 DWORD PTR [ecx+232], 1065353216 ; 3f800000H

; 248  : 		m_pHUDWeaponsBackG->m_bFrameMoveRequired  = TRUE ;

  00a39	8b 45 f8	 mov	 eax, DWORD PTR _this$[ebp]
  00a3c	8b 88 6c 03 00
	00		 mov	 ecx, DWORD PTR [eax+876]
  00a42	c7 81 d0 00 00
	00 01 00 00 00	 mov	 DWORD PTR [ecx+208], 1

; 249  : 
; 250  : 		m_pHUDWeaponsLevel = new CHUDScaleBar( NULL, 1.0f, 1.0f, 1.0f, 0.0f, 0.0f, fForeGAlpha, TRUE, fLeft, fTop, 0.0f, fWidth, fHeight ); 

  00a4c	68 f0 00 00 00	 push	 240			; 000000f0H
  00a51	e8 00 00 00 00	 call	 ??2@YAPAXI@Z		; operator new
  00a56	83 c4 04	 add	 esp, 4
  00a59	89 85 c4 fd ff
	ff		 mov	 DWORD PTR $T94294[ebp], eax
  00a5f	83 bd c4 fd ff
	ff 00		 cmp	 DWORD PTR $T94294[ebp], 0
  00a66	74 46		 je	 SHORT $L94295
  00a68	8b 45 98	 mov	 eax, DWORD PTR _fHeight$[ebp]
  00a6b	50		 push	 eax
  00a6c	8b 4d a4	 mov	 ecx, DWORD PTR _fWidth$[ebp]
  00a6f	51		 push	 ecx
  00a70	6a 00		 push	 0
  00a72	8b 55 80	 mov	 edx, DWORD PTR _fTop$[ebp]
  00a75	52		 push	 edx
  00a76	8b 85 74 ff ff
	ff		 mov	 eax, DWORD PTR _fLeft$[ebp]
  00a7c	50		 push	 eax
  00a7d	6a 01		 push	 1
  00a7f	8b 8d 5c ff ff
	ff		 mov	 ecx, DWORD PTR _fForeGAlpha$[ebp]
  00a85	51		 push	 ecx
  00a86	6a 00		 push	 0
  00a88	6a 00		 push	 0
  00a8a	68 00 00 80 3f	 push	 1065353216		; 3f800000H
  00a8f	68 00 00 80 3f	 push	 1065353216		; 3f800000H
  00a94	68 00 00 80 3f	 push	 1065353216		; 3f800000H
  00a99	6a 00		 push	 0
  00a9b	8b 8d c4 fd ff
	ff		 mov	 ecx, DWORD PTR $T94294[ebp]
  00aa1	e8 00 00 00 00	 call	 ??0CHUDScaleBar@@QAE@PAUIDirect3DTexture8@@MMMMMMHMMMMM@Z ; CHUDScaleBar::CHUDScaleBar
  00aa6	89 85 a4 fd ff
	ff		 mov	 DWORD PTR tv542[ebp], eax
  00aac	eb 0a		 jmp	 SHORT $L94296
$L94295:
  00aae	c7 85 a4 fd ff
	ff 00 00 00 00	 mov	 DWORD PTR tv542[ebp], 0
$L94296:
  00ab8	8b 55 f8	 mov	 edx, DWORD PTR _this$[ebp]
  00abb	8b 85 a4 fd ff
	ff		 mov	 eax, DWORD PTR tv542[ebp]
  00ac1	89 82 68 03 00
	00		 mov	 DWORD PTR [edx+872], eax

; 251  : 		pOM->RegisterNewOverlay( m_pHUDWeaponsLevel );

  00ac7	8b 45 f8	 mov	 eax, DWORD PTR _this$[ebp]
  00aca	8b 88 68 03 00
	00		 mov	 ecx, DWORD PTR [eax+872]
  00ad0	51		 push	 ecx
  00ad1	8b 4d 10	 mov	 ecx, DWORD PTR _pOM$[ebp]
  00ad4	e8 00 00 00 00	 call	 ?RegisterNewOverlay@CScreenOverlayManager@@QAEHPAVCScreenOverlay@@@Z ; CScreenOverlayManager::RegisterNewOverlay

; 252  : 		m_pHUDWeaponsLevel->m_bActive = TRUE ;

  00ad9	8b 45 f8	 mov	 eax, DWORD PTR _this$[ebp]
  00adc	8b 88 68 03 00
	00		 mov	 ecx, DWORD PTR [eax+872]
  00ae2	c7 81 84 00 00
	00 01 00 00 00	 mov	 DWORD PTR [ecx+132], 1

; 253  : 		m_pHUDWeaponsLevel->m_pSharedVB = pOM->m_pVB ;

  00aec	8b 45 f8	 mov	 eax, DWORD PTR _this$[ebp]
  00aef	8b 88 68 03 00
	00		 mov	 ecx, DWORD PTR [eax+872]
  00af5	8b 55 10	 mov	 edx, DWORD PTR _pOM$[ebp]
  00af8	8b 82 00 02 00
	00		 mov	 eax, DWORD PTR [edx+512]
  00afe	89 41 04	 mov	 DWORD PTR [ecx+4], eax

; 254  : 		m_pHUDWeaponsLevel->RestoreDeviceObjects( pDev, fAspect);

  00b01	8b f4		 mov	 esi, esp
  00b03	8b 45 18	 mov	 eax, DWORD PTR _fAspect$[ebp]
  00b06	50		 push	 eax
  00b07	8b 4d 0c	 mov	 ecx, DWORD PTR _pDev$[ebp]
  00b0a	51		 push	 ecx
  00b0b	8b 55 f8	 mov	 edx, DWORD PTR _this$[ebp]
  00b0e	8b 82 68 03 00
	00		 mov	 eax, DWORD PTR [edx+872]
  00b14	8b 4d f8	 mov	 ecx, DWORD PTR _this$[ebp]
  00b17	8b 89 68 03 00
	00		 mov	 ecx, DWORD PTR [ecx+872]
  00b1d	8b 10		 mov	 edx, DWORD PTR [eax]
  00b1f	ff 52 04	 call	 DWORD PTR [edx+4]
  00b22	3b f4		 cmp	 esi, esp
  00b24	e8 00 00 00 00	 call	 __RTC_CheckEsp

; 255  : 		m_pHUDWeaponsLevel->m_fLevel = m_fWeaponsLevel ;

  00b29	8b 45 f8	 mov	 eax, DWORD PTR _this$[ebp]
  00b2c	8b 88 68 03 00
	00		 mov	 ecx, DWORD PTR [eax+872]
  00b32	8b 55 f8	 mov	 edx, DWORD PTR _this$[ebp]
  00b35	8b 82 0c 03 00
	00		 mov	 eax, DWORD PTR [edx+780]
  00b3b	89 81 e8 00 00
	00		 mov	 DWORD PTR [ecx+232], eax

; 256  : 		m_pHUDWeaponsLevel->m_bFrameMoveRequired  = TRUE ;

  00b41	8b 45 f8	 mov	 eax, DWORD PTR _this$[ebp]
  00b44	8b 88 68 03 00
	00		 mov	 ecx, DWORD PTR [eax+872]
  00b4a	c7 81 d0 00 00
	00 01 00 00 00	 mov	 DWORD PTR [ecx+208], 1

; 257  : 
; 258  : 		fTop += fHeight ;

  00b54	d9 45 80	 fld	 DWORD PTR _fTop$[ebp]
  00b57	d8 45 98	 fadd	 DWORD PTR _fHeight$[ebp]
  00b5a	d9 5d 80	 fstp	 DWORD PTR _fTop$[ebp]

; 259  : 		fTop += fSep ;

  00b5d	d9 45 80	 fld	 DWORD PTR _fTop$[ebp]
  00b60	d8 45 8c	 fadd	 DWORD PTR _fSep$[ebp]
  00b63	d9 5d 80	 fstp	 DWORD PTR _fTop$[ebp]

; 260  : 
; 261  : 	// engine scalebar
; 262  : 		m_pHUDEngineBackG = new CHUDScaleBar( NULL, 10.0f, 1.0f, 0.5f, 0.5f, 0.5f, fBackGAlpha, FALSE, fLeft, fTop, 0.0f, fWidth, fHeight ); 

  00b66	68 f0 00 00 00	 push	 240			; 000000f0H
  00b6b	e8 00 00 00 00	 call	 ??2@YAPAXI@Z		; operator new
  00b70	83 c4 04	 add	 esp, 4
  00b73	89 85 b8 fd ff
	ff		 mov	 DWORD PTR $T94297[ebp], eax
  00b79	83 bd b8 fd ff
	ff 00		 cmp	 DWORD PTR $T94297[ebp], 0
  00b80	74 4c		 je	 SHORT $L94298
  00b82	8b 45 98	 mov	 eax, DWORD PTR _fHeight$[ebp]
  00b85	50		 push	 eax
  00b86	8b 4d a4	 mov	 ecx, DWORD PTR _fWidth$[ebp]
  00b89	51		 push	 ecx
  00b8a	6a 00		 push	 0
  00b8c	8b 55 80	 mov	 edx, DWORD PTR _fTop$[ebp]
  00b8f	52		 push	 edx
  00b90	8b 85 74 ff ff
	ff		 mov	 eax, DWORD PTR _fLeft$[ebp]
  00b96	50		 push	 eax
  00b97	6a 00		 push	 0
  00b99	8b 8d 68 ff ff
	ff		 mov	 ecx, DWORD PTR _fBackGAlpha$[ebp]
  00b9f	51		 push	 ecx
  00ba0	68 00 00 00 3f	 push	 1056964608		; 3f000000H
  00ba5	68 00 00 00 3f	 push	 1056964608		; 3f000000H
  00baa	68 00 00 00 3f	 push	 1056964608		; 3f000000H
  00baf	68 00 00 80 3f	 push	 1065353216		; 3f800000H
  00bb4	68 00 00 20 41	 push	 1092616192		; 41200000H
  00bb9	6a 00		 push	 0
  00bbb	8b 8d b8 fd ff
	ff		 mov	 ecx, DWORD PTR $T94297[ebp]
  00bc1	e8 00 00 00 00	 call	 ??0CHUDScaleBar@@QAE@PAUIDirect3DTexture8@@MMMMMMHMMMMM@Z ; CHUDScaleBar::CHUDScaleBar
  00bc6	89 85 a4 fd ff
	ff		 mov	 DWORD PTR tv618[ebp], eax
  00bcc	eb 0a		 jmp	 SHORT $L94299
$L94298:
  00bce	c7 85 a4 fd ff
	ff 00 00 00 00	 mov	 DWORD PTR tv618[ebp], 0
$L94299:
  00bd8	8b 55 f8	 mov	 edx, DWORD PTR _this$[ebp]
  00bdb	8b 85 a4 fd ff
	ff		 mov	 eax, DWORD PTR tv618[ebp]
  00be1	89 82 74 03 00
	00		 mov	 DWORD PTR [edx+884], eax

; 263  : 		pOM->RegisterNewOverlay( m_pHUDEngineBackG );

  00be7	8b 45 f8	 mov	 eax, DWORD PTR _this$[ebp]
  00bea	8b 88 74 03 00
	00		 mov	 ecx, DWORD PTR [eax+884]
  00bf0	51		 push	 ecx
  00bf1	8b 4d 10	 mov	 ecx, DWORD PTR _pOM$[ebp]
  00bf4	e8 00 00 00 00	 call	 ?RegisterNewOverlay@CScreenOverlayManager@@QAEHPAVCScreenOverlay@@@Z ; CScreenOverlayManager::RegisterNewOverlay

; 264  : 		m_pHUDEngineBackG->m_bActive = TRUE ;

  00bf9	8b 45 f8	 mov	 eax, DWORD PTR _this$[ebp]
  00bfc	8b 88 74 03 00
	00		 mov	 ecx, DWORD PTR [eax+884]
  00c02	c7 81 84 00 00
	00 01 00 00 00	 mov	 DWORD PTR [ecx+132], 1

; 265  : 		m_pHUDEngineBackG->m_pSharedVB = pOM->m_pVB ;

  00c0c	8b 45 f8	 mov	 eax, DWORD PTR _this$[ebp]
  00c0f	8b 88 74 03 00
	00		 mov	 ecx, DWORD PTR [eax+884]
  00c15	8b 55 10	 mov	 edx, DWORD PTR _pOM$[ebp]
  00c18	8b 82 00 02 00
	00		 mov	 eax, DWORD PTR [edx+512]
  00c1e	89 41 04	 mov	 DWORD PTR [ecx+4], eax

; 266  : 		m_pHUDEngineBackG->RestoreDeviceObjects( pDev, fAspect );

  00c21	8b f4		 mov	 esi, esp
  00c23	8b 45 18	 mov	 eax, DWORD PTR _fAspect$[ebp]
  00c26	50		 push	 eax
  00c27	8b 4d 0c	 mov	 ecx, DWORD PTR _pDev$[ebp]
  00c2a	51		 push	 ecx
  00c2b	8b 55 f8	 mov	 edx, DWORD PTR _this$[ebp]
  00c2e	8b 82 74 03 00
	00		 mov	 eax, DWORD PTR [edx+884]
  00c34	8b 4d f8	 mov	 ecx, DWORD PTR _this$[ebp]
  00c37	8b 89 74 03 00
	00		 mov	 ecx, DWORD PTR [ecx+884]
  00c3d	8b 10		 mov	 edx, DWORD PTR [eax]
  00c3f	ff 52 04	 call	 DWORD PTR [edx+4]
  00c42	3b f4		 cmp	 esi, esp
  00c44	e8 00 00 00 00	 call	 __RTC_CheckEsp

; 267  : 		m_pHUDEngineBackG->m_fLevel = 1.0f ;

  00c49	8b 45 f8	 mov	 eax, DWORD PTR _this$[ebp]
  00c4c	8b 88 74 03 00
	00		 mov	 ecx, DWORD PTR [eax+884]
  00c52	c7 81 e8 00 00
	00 00 00 80 3f	 mov	 DWORD PTR [ecx+232], 1065353216 ; 3f800000H

; 268  : 		m_pHUDEngineBackG->m_bFrameMoveRequired  = TRUE ;

  00c5c	8b 45 f8	 mov	 eax, DWORD PTR _this$[ebp]
  00c5f	8b 88 74 03 00
	00		 mov	 ecx, DWORD PTR [eax+884]
  00c65	c7 81 d0 00 00
	00 01 00 00 00	 mov	 DWORD PTR [ecx+208], 1

; 269  : 
; 270  : 		m_pHUDEngineLevel = new CHUDScaleBar( NULL, 1.0f, 0.0f, 0.0f, 1.0f, 0.0f, fForeGAlpha, TRUE, fLeft, fTop, 0.0f, fWidth, fHeight ); 

  00c6f	68 f0 00 00 00	 push	 240			; 000000f0H
  00c74	e8 00 00 00 00	 call	 ??2@YAPAXI@Z		; operator new
  00c79	83 c4 04	 add	 esp, 4
  00c7c	89 85 ac fd ff
	ff		 mov	 DWORD PTR $T94300[ebp], eax
  00c82	83 bd ac fd ff
	ff 00		 cmp	 DWORD PTR $T94300[ebp], 0
  00c89	74 43		 je	 SHORT $L94301
  00c8b	8b 45 98	 mov	 eax, DWORD PTR _fHeight$[ebp]
  00c8e	50		 push	 eax
  00c8f	8b 4d a4	 mov	 ecx, DWORD PTR _fWidth$[ebp]
  00c92	51		 push	 ecx
  00c93	6a 00		 push	 0
  00c95	8b 55 80	 mov	 edx, DWORD PTR _fTop$[ebp]
  00c98	52		 push	 edx
  00c99	8b 85 74 ff ff
	ff		 mov	 eax, DWORD PTR _fLeft$[ebp]
  00c9f	50		 push	 eax
  00ca0	6a 01		 push	 1
  00ca2	8b 8d 5c ff ff
	ff		 mov	 ecx, DWORD PTR _fForeGAlpha$[ebp]
  00ca8	51		 push	 ecx
  00ca9	6a 00		 push	 0
  00cab	68 00 00 80 3f	 push	 1065353216		; 3f800000H
  00cb0	6a 00		 push	 0
  00cb2	6a 00		 push	 0
  00cb4	68 00 00 80 3f	 push	 1065353216		; 3f800000H
  00cb9	6a 00		 push	 0
  00cbb	8b 8d ac fd ff
	ff		 mov	 ecx, DWORD PTR $T94300[ebp]
  00cc1	e8 00 00 00 00	 call	 ??0CHUDScaleBar@@QAE@PAUIDirect3DTexture8@@MMMMMMHMMMMM@Z ; CHUDScaleBar::CHUDScaleBar
  00cc6	89 85 a4 fd ff
	ff		 mov	 DWORD PTR tv659[ebp], eax
  00ccc	eb 0a		 jmp	 SHORT $L94302
$L94301:
  00cce	c7 85 a4 fd ff
	ff 00 00 00 00	 mov	 DWORD PTR tv659[ebp], 0
$L94302:
  00cd8	8b 55 f8	 mov	 edx, DWORD PTR _this$[ebp]
  00cdb	8b 85 a4 fd ff
	ff		 mov	 eax, DWORD PTR tv659[ebp]
  00ce1	89 82 70 03 00
	00		 mov	 DWORD PTR [edx+880], eax

; 271  : 		pOM->RegisterNewOverlay( m_pHUDEngineLevel );

  00ce7	8b 45 f8	 mov	 eax, DWORD PTR _this$[ebp]
  00cea	8b 88 70 03 00
	00		 mov	 ecx, DWORD PTR [eax+880]
  00cf0	51		 push	 ecx
  00cf1	8b 4d 10	 mov	 ecx, DWORD PTR _pOM$[ebp]
  00cf4	e8 00 00 00 00	 call	 ?RegisterNewOverlay@CScreenOverlayManager@@QAEHPAVCScreenOverlay@@@Z ; CScreenOverlayManager::RegisterNewOverlay

; 272  : 		m_pHUDEngineLevel->m_bActive = TRUE ;

  00cf9	8b 45 f8	 mov	 eax, DWORD PTR _this$[ebp]
  00cfc	8b 88 70 03 00
	00		 mov	 ecx, DWORD PTR [eax+880]
  00d02	c7 81 84 00 00
	00 01 00 00 00	 mov	 DWORD PTR [ecx+132], 1

; 273  : 		m_pHUDEngineLevel->m_pSharedVB = pOM->m_pVB ;

  00d0c	8b 45 f8	 mov	 eax, DWORD PTR _this$[ebp]
  00d0f	8b 88 70 03 00
	00		 mov	 ecx, DWORD PTR [eax+880]
  00d15	8b 55 10	 mov	 edx, DWORD PTR _pOM$[ebp]
  00d18	8b 82 00 02 00
	00		 mov	 eax, DWORD PTR [edx+512]
  00d1e	89 41 04	 mov	 DWORD PTR [ecx+4], eax

; 274  : 		m_pHUDEngineLevel->RestoreDeviceObjects( pDev, fAspect );

  00d21	8b f4		 mov	 esi, esp
  00d23	8b 45 18	 mov	 eax, DWORD PTR _fAspect$[ebp]
  00d26	50		 push	 eax
  00d27	8b 4d 0c	 mov	 ecx, DWORD PTR _pDev$[ebp]
  00d2a	51		 push	 ecx
  00d2b	8b 55 f8	 mov	 edx, DWORD PTR _this$[ebp]
  00d2e	8b 82 70 03 00
	00		 mov	 eax, DWORD PTR [edx+880]
  00d34	8b 4d f8	 mov	 ecx, DWORD PTR _this$[ebp]
  00d37	8b 89 70 03 00
	00		 mov	 ecx, DWORD PTR [ecx+880]
  00d3d	8b 10		 mov	 edx, DWORD PTR [eax]
  00d3f	ff 52 04	 call	 DWORD PTR [edx+4]
  00d42	3b f4		 cmp	 esi, esp
  00d44	e8 00 00 00 00	 call	 __RTC_CheckEsp

; 275  : 		m_pHUDEngineLevel->m_fLevel = m_fEngineLevel ;

  00d49	8b 45 f8	 mov	 eax, DWORD PTR _this$[ebp]
  00d4c	8b 88 70 03 00
	00		 mov	 ecx, DWORD PTR [eax+880]
  00d52	8b 55 f8	 mov	 edx, DWORD PTR _this$[ebp]
  00d55	8b 82 10 03 00
	00		 mov	 eax, DWORD PTR [edx+784]
  00d5b	89 81 e8 00 00
	00		 mov	 DWORD PTR [ecx+232], eax

; 276  : 		m_pHUDEngineLevel->m_bFrameMoveRequired  = TRUE ;

  00d61	8b 45 f8	 mov	 eax, DWORD PTR _this$[ebp]
  00d64	8b 88 70 03 00
	00		 mov	 ecx, DWORD PTR [eax+880]
  00d6a	c7 81 d0 00 00
	00 01 00 00 00	 mov	 DWORD PTR [ecx+208], 1

; 277  : 
; 278  : 		pOM->m_bVBLocked = FALSE ;

  00d74	8b 45 10	 mov	 eax, DWORD PTR _pOM$[ebp]
  00d77	c7 80 08 02 00
	00 00 00 00 00	 mov	 DWORD PTR [eax+520], 0

; 279  : 		return S_OK ;

  00d81	33 c0		 xor	 eax, eax

; 280  : 	}

  00d83	52		 push	 edx
  00d84	8b cd		 mov	 ecx, ebp
  00d86	50		 push	 eax
  00d87	8d 15 00 00 00
	00		 lea	 edx, DWORD PTR $L94308
  00d8d	e8 00 00 00 00	 call	 @_RTC_CheckStackVars@8
  00d92	58		 pop	 eax
  00d93	5a		 pop	 edx
  00d94	5f		 pop	 edi
  00d95	5e		 pop	 esi
  00d96	5b		 pop	 ebx
  00d97	81 c4 5c 02 00
	00		 add	 esp, 604		; 0000025cH
  00d9d	3b ec		 cmp	 ebp, esp
  00d9f	e8 00 00 00 00	 call	 __RTC_CheckEsp
  00da4	8b e5		 mov	 esp, ebp
  00da6	5d		 pop	 ebp
  00da7	c2 14 00	 ret	 20			; 00000014H
$L94308:
  00daa	02 00 00 00	 DD	 2
  00dae	00 00 00 00	 DD	 $L94307
$L94307:
  00db2	d4 ff ff ff	 DD	 -44			; ffffffd4H
  00db6	10 00 00 00	 DD	 16			; 00000010H
  00dba	00 00 00 00	 DD	 $L94305
  00dbe	bc ff ff ff	 DD	 -68			; ffffffbcH
  00dc2	10 00 00 00	 DD	 16			; 00000010H
  00dc6	00 00 00 00	 DD	 $L94306
$L94306:
  00dca	63		 DB	 99			; 00000063H
  00dcb	32		 DB	 50			; 00000032H
  00dcc	00		 DB	 0
$L94305:
  00dcd	63		 DB	 99			; 00000063H
  00dce	00		 DB	 0
?RestoreDeviceObjects@CUserFighter@@QAEJPAUIDirect3D8@@PAUIDirect3DDevice8@@PAVCScreenOverlayManager@@PAVCTextures@@M@Z ENDP ; CUserFighter::RestoreDeviceObjects
; Function compile flags: /Odt /RTCsu /ZI
; File c:\dxsdk\include\d3dx8math.h
_TEXT	ENDS
;	COMDAT ??0D3DXVECTOR2@@QAE@XZ
_TEXT	SEGMENT
_this$ = -8
??0D3DXVECTOR2@@QAE@XZ PROC NEAR			; D3DXVECTOR2::D3DXVECTOR2, COMDAT
; _this$ = ecx

; 46   :     D3DXVECTOR2() {};

  00000	55		 push	 ebp
  00001	8b ec		 mov	 ebp, esp
  00003	81 ec cc 00 00
	00		 sub	 esp, 204		; 000000ccH
  00009	53		 push	 ebx
  0000a	56		 push	 esi
  0000b	57		 push	 edi
  0000c	51		 push	 ecx
  0000d	8d bd 34 ff ff
	ff		 lea	 edi, DWORD PTR [ebp-204]
  00013	b9 33 00 00 00	 mov	 ecx, 51			; 00000033H
  00018	b8 cc cc cc cc	 mov	 eax, -858993460		; ccccccccH
  0001d	f3 ab		 rep stosd
  0001f	59		 pop	 ecx
  00020	89 4d f8	 mov	 DWORD PTR _this$[ebp], ecx
  00023	8b 45 f8	 mov	 eax, DWORD PTR _this$[ebp]
  00026	5f		 pop	 edi
  00027	5e		 pop	 esi
  00028	5b		 pop	 ebx
  00029	8b e5		 mov	 esp, ebp
  0002b	5d		 pop	 ebp
  0002c	c3		 ret	 0
??0D3DXVECTOR2@@QAE@XZ ENDP				; D3DXVECTOR2::D3DXVECTOR2
_TEXT	ENDS
PUBLIC	?InvalidateDeviceObjects@CUserFighter@@QAEJPAUIDirect3DDevice8@@@Z ; CUserFighter::InvalidateDeviceObjects
PUBLIC	??_C@_0CH@PDFDENIF@CUserFighter?3?3InvalidateDeviceOb@ ; `string'
PUBLIC	??_GCHUDScaleBar@@QAEPAXI@Z			; CHUDScaleBar::`scalar deleting destructor'
EXTRN	?InvalidateDeviceObjects@CFighter@@QAEJPAUIDirect3DDevice8@@@Z:NEAR ; CFighter::InvalidateDeviceObjects
EXTRN	?InvalidateDeviceObjects@CHUDText@@QAEJXZ:NEAR	; CHUDText::InvalidateDeviceObjects
;	COMDAT ??_C@_0CH@PDFDENIF@CUserFighter?3?3InvalidateDeviceOb@
; File c:\documents and settings\dom\my documents\_dev\ae\xlr8a\x7g\cuserfighter.cpp
CONST	SEGMENT
??_C@_0CH@PDFDENIF@CUserFighter?3?3InvalidateDeviceOb@ DB 'CUserFighter::'
	DB	'InvalidateDeviceObjects', 0aH, 00H		; `string'
; Function compile flags: /Odt /RTCsu /ZI
CONST	ENDS
;	COMDAT ?InvalidateDeviceObjects@CUserFighter@@QAEJPAUIDirect3DDevice8@@@Z
_TEXT	SEGMENT
tv217 = -448
tv208 = -448
tv199 = -448
tv190 = -448
tv171 = -448
tv162 = -448
tv153 = -448
tv144 = -448
tv135 = -448
tv94 = -448
$T94350 = -440
$T94349 = -428
$T94346 = -416
$T94345 = -404
$T94342 = -392
$T94341 = -380
$T94338 = -368
$T94337 = -356
$T94334 = -344
$T94333 = -332
$T94330 = -320
$T94329 = -308
$T94326 = -296
$T94325 = -284
$T94322 = -272
$T94321 = -260
$T94318 = -248
$T94317 = -236
$T94314 = -224
$T94313 = -212
_this$ = -8
_pDev$ = 8
?InvalidateDeviceObjects@CUserFighter@@QAEJPAUIDirect3DDevice8@@@Z PROC NEAR ; CUserFighter::InvalidateDeviceObjects, COMDAT
; _this$ = ecx

; 283  : 	{

  00000	55		 push	 ebp
  00001	8b ec		 mov	 ebp, esp
  00003	81 ec c0 01 00
	00		 sub	 esp, 448		; 000001c0H
  00009	53		 push	 ebx
  0000a	56		 push	 esi
  0000b	57		 push	 edi
  0000c	51		 push	 ecx
  0000d	8d bd 40 fe ff
	ff		 lea	 edi, DWORD PTR [ebp-448]
  00013	b9 70 00 00 00	 mov	 ecx, 112		; 00000070H
  00018	b8 cc cc cc cc	 mov	 eax, -858993460		; ccccccccH
  0001d	f3 ab		 rep stosd
  0001f	59		 pop	 ecx
  00020	89 4d f8	 mov	 DWORD PTR _this$[ebp], ecx

; 284  : 		ods("CUserFighter::InvalidateDeviceObjects\n") ;

  00023	68 00 00 00 00	 push	 OFFSET FLAT:??_C@_0CH@PDFDENIF@CUserFighter?3?3InvalidateDeviceOb@
  00028	e8 00 00 00 00	 call	 ?ods@@YAXPADZZ		; ods
  0002d	83 c4 04	 add	 esp, 4

; 285  : 
; 286  : 		CFighter::InvalidateDeviceObjects( pDev );

  00030	8b 45 08	 mov	 eax, DWORD PTR _pDev$[ebp]
  00033	50		 push	 eax
  00034	8b 4d f8	 mov	 ecx, DWORD PTR _this$[ebp]
  00037	e8 00 00 00 00	 call	 ?InvalidateDeviceObjects@CFighter@@QAEJPAUIDirect3DDevice8@@@Z ; CFighter::InvalidateDeviceObjects

; 287  : 		if( m_pHUDItems )

  0003c	8b 45 f8	 mov	 eax, DWORD PTR _this$[ebp]
  0003f	83 b8 80 03 00
	00 00		 cmp	 DWORD PTR [eax+896], 0
  00046	74 0e		 je	 SHORT $L93797

; 288  : 			m_pHUDItems->InvalidateDeviceObjects() ;

  00048	8b 45 f8	 mov	 eax, DWORD PTR _this$[ebp]
  0004b	8b 88 80 03 00
	00		 mov	 ecx, DWORD PTR [eax+896]
  00051	e8 00 00 00 00	 call	 ?InvalidateDeviceObjects@CHUDText@@QAEJXZ ; CHUDText::InvalidateDeviceObjects
$L93797:

; 289  : 		if( m_pHUDScore )

  00056	8b 45 f8	 mov	 eax, DWORD PTR _this$[ebp]
  00059	83 b8 7c 03 00
	00 00		 cmp	 DWORD PTR [eax+892], 0
  00060	74 0e		 je	 SHORT $L93798

; 290  : 			m_pHUDScore->InvalidateDeviceObjects() ;

  00062	8b 45 f8	 mov	 eax, DWORD PTR _this$[ebp]
  00065	8b 88 7c 03 00
	00		 mov	 ecx, DWORD PTR [eax+892]
  0006b	e8 00 00 00 00	 call	 ?InvalidateDeviceObjects@CHUDText@@QAEJXZ ; CHUDText::InvalidateDeviceObjects
$L93798:

; 291  : 		if( m_pHUDLives )

  00070	8b 45 f8	 mov	 eax, DWORD PTR _this$[ebp]
  00073	83 b8 84 03 00
	00 00		 cmp	 DWORD PTR [eax+900], 0
  0007a	74 0e		 je	 SHORT $L93799

; 292  : 			m_pHUDScore->InvalidateDeviceObjects() ;

  0007c	8b 45 f8	 mov	 eax, DWORD PTR _this$[ebp]
  0007f	8b 88 7c 03 00
	00		 mov	 ecx, DWORD PTR [eax+892]
  00085	e8 00 00 00 00	 call	 ?InvalidateDeviceObjects@CHUDText@@QAEJXZ ; CHUDText::InvalidateDeviceObjects
$L93799:

; 293  : 		if( m_pHUDSpeed )

  0008a	8b 45 f8	 mov	 eax, DWORD PTR _this$[ebp]
  0008d	83 b8 78 03 00
	00 00		 cmp	 DWORD PTR [eax+888], 0
  00094	74 0e		 je	 SHORT $L93800

; 294  : 			m_pHUDSpeed->InvalidateDeviceObjects() ;

  00096	8b 45 f8	 mov	 eax, DWORD PTR _this$[ebp]
  00099	8b 88 78 03 00
	00		 mov	 ecx, DWORD PTR [eax+888]
  0009f	e8 00 00 00 00	 call	 ?InvalidateDeviceObjects@CHUDText@@QAEJXZ ; CHUDText::InvalidateDeviceObjects
$L93800:

; 295  : 
; 296  : 		SAFE_DELETE( m_pHUDShieldLevel )

  000a4	8b 45 f8	 mov	 eax, DWORD PTR _this$[ebp]
  000a7	83 b8 60 03 00
	00 00		 cmp	 DWORD PTR [eax+864], 0
  000ae	74 50		 je	 SHORT $L93801
  000b0	8b 45 f8	 mov	 eax, DWORD PTR _this$[ebp]
  000b3	8b 88 60 03 00
	00		 mov	 ecx, DWORD PTR [eax+864]
  000b9	89 8d 20 ff ff
	ff		 mov	 DWORD PTR $T94314[ebp], ecx
  000bf	8b 95 20 ff ff
	ff		 mov	 edx, DWORD PTR $T94314[ebp]
  000c5	89 95 2c ff ff
	ff		 mov	 DWORD PTR $T94313[ebp], edx
  000cb	83 bd 2c ff ff
	ff 00		 cmp	 DWORD PTR $T94313[ebp], 0
  000d2	74 15		 je	 SHORT $L94315
  000d4	6a 01		 push	 1
  000d6	8b 8d 2c ff ff
	ff		 mov	 ecx, DWORD PTR $T94313[ebp]
  000dc	e8 00 00 00 00	 call	 ??_GCHUDScaleBar@@QAEPAXI@Z
  000e1	89 85 40 fe ff
	ff		 mov	 DWORD PTR tv94[ebp], eax
  000e7	eb 0a		 jmp	 SHORT $L94316
$L94315:
  000e9	c7 85 40 fe ff
	ff 00 00 00 00	 mov	 DWORD PTR tv94[ebp], 0
$L94316:
  000f3	8b 45 f8	 mov	 eax, DWORD PTR _this$[ebp]
  000f6	c7 80 60 03 00
	00 00 00 00 00	 mov	 DWORD PTR [eax+864], 0
$L93801:

; 297  : 		SAFE_DELETE( m_pHUDShieldBackG )

  00100	8b 45 f8	 mov	 eax, DWORD PTR _this$[ebp]
  00103	83 b8 64 03 00
	00 00		 cmp	 DWORD PTR [eax+868], 0
  0010a	74 50		 je	 SHORT $L93804
  0010c	8b 45 f8	 mov	 eax, DWORD PTR _this$[ebp]
  0010f	8b 88 64 03 00
	00		 mov	 ecx, DWORD PTR [eax+868]
  00115	89 8d 08 ff ff
	ff		 mov	 DWORD PTR $T94318[ebp], ecx
  0011b	8b 95 08 ff ff
	ff		 mov	 edx, DWORD PTR $T94318[ebp]
  00121	89 95 14 ff ff
	ff		 mov	 DWORD PTR $T94317[ebp], edx
  00127	83 bd 14 ff ff
	ff 00		 cmp	 DWORD PTR $T94317[ebp], 0
  0012e	74 15		 je	 SHORT $L94319
  00130	6a 01		 push	 1
  00132	8b 8d 14 ff ff
	ff		 mov	 ecx, DWORD PTR $T94317[ebp]
  00138	e8 00 00 00 00	 call	 ??_GCHUDScaleBar@@QAEPAXI@Z
  0013d	89 85 40 fe ff
	ff		 mov	 DWORD PTR tv135[ebp], eax
  00143	eb 0a		 jmp	 SHORT $L94320
$L94319:
  00145	c7 85 40 fe ff
	ff 00 00 00 00	 mov	 DWORD PTR tv135[ebp], 0
$L94320:
  0014f	8b 45 f8	 mov	 eax, DWORD PTR _this$[ebp]
  00152	c7 80 64 03 00
	00 00 00 00 00	 mov	 DWORD PTR [eax+868], 0
$L93804:

; 298  : 		SAFE_DELETE( m_pHUDWeaponsLevel )

  0015c	8b 45 f8	 mov	 eax, DWORD PTR _this$[ebp]
  0015f	83 b8 68 03 00
	00 00		 cmp	 DWORD PTR [eax+872], 0
  00166	74 50		 je	 SHORT $L93807
  00168	8b 45 f8	 mov	 eax, DWORD PTR _this$[ebp]
  0016b	8b 88 68 03 00
	00		 mov	 ecx, DWORD PTR [eax+872]
  00171	89 8d f0 fe ff
	ff		 mov	 DWORD PTR $T94322[ebp], ecx
  00177	8b 95 f0 fe ff
	ff		 mov	 edx, DWORD PTR $T94322[ebp]
  0017d	89 95 fc fe ff
	ff		 mov	 DWORD PTR $T94321[ebp], edx
  00183	83 bd fc fe ff
	ff 00		 cmp	 DWORD PTR $T94321[ebp], 0
  0018a	74 15		 je	 SHORT $L94323
  0018c	6a 01		 push	 1
  0018e	8b 8d fc fe ff
	ff		 mov	 ecx, DWORD PTR $T94321[ebp]
  00194	e8 00 00 00 00	 call	 ??_GCHUDScaleBar@@QAEPAXI@Z
  00199	89 85 40 fe ff
	ff		 mov	 DWORD PTR tv144[ebp], eax
  0019f	eb 0a		 jmp	 SHORT $L94324
$L94323:
  001a1	c7 85 40 fe ff
	ff 00 00 00 00	 mov	 DWORD PTR tv144[ebp], 0
$L94324:
  001ab	8b 45 f8	 mov	 eax, DWORD PTR _this$[ebp]
  001ae	c7 80 68 03 00
	00 00 00 00 00	 mov	 DWORD PTR [eax+872], 0
$L93807:

; 299  : 		SAFE_DELETE( m_pHUDWeaponsBackG )

  001b8	8b 45 f8	 mov	 eax, DWORD PTR _this$[ebp]
  001bb	83 b8 6c 03 00
	00 00		 cmp	 DWORD PTR [eax+876], 0
  001c2	74 50		 je	 SHORT $L93810
  001c4	8b 45 f8	 mov	 eax, DWORD PTR _this$[ebp]
  001c7	8b 88 6c 03 00
	00		 mov	 ecx, DWORD PTR [eax+876]
  001cd	89 8d d8 fe ff
	ff		 mov	 DWORD PTR $T94326[ebp], ecx
  001d3	8b 95 d8 fe ff
	ff		 mov	 edx, DWORD PTR $T94326[ebp]
  001d9	89 95 e4 fe ff
	ff		 mov	 DWORD PTR $T94325[ebp], edx
  001df	83 bd e4 fe ff
	ff 00		 cmp	 DWORD PTR $T94325[ebp], 0
  001e6	74 15		 je	 SHORT $L94327
  001e8	6a 01		 push	 1
  001ea	8b 8d e4 fe ff
	ff		 mov	 ecx, DWORD PTR $T94325[ebp]
  001f0	e8 00 00 00 00	 call	 ??_GCHUDScaleBar@@QAEPAXI@Z
  001f5	89 85 40 fe ff
	ff		 mov	 DWORD PTR tv153[ebp], eax
  001fb	eb 0a		 jmp	 SHORT $L94328
$L94327:
  001fd	c7 85 40 fe ff
	ff 00 00 00 00	 mov	 DWORD PTR tv153[ebp], 0
$L94328:
  00207	8b 45 f8	 mov	 eax, DWORD PTR _this$[ebp]
  0020a	c7 80 6c 03 00
	00 00 00 00 00	 mov	 DWORD PTR [eax+876], 0
$L93810:

; 300  : 		SAFE_DELETE( m_pHUDEngineLevel )

  00214	8b 45 f8	 mov	 eax, DWORD PTR _this$[ebp]
  00217	83 b8 70 03 00
	00 00		 cmp	 DWORD PTR [eax+880], 0
  0021e	74 50		 je	 SHORT $L93813
  00220	8b 45 f8	 mov	 eax, DWORD PTR _this$[ebp]
  00223	8b 88 70 03 00
	00		 mov	 ecx, DWORD PTR [eax+880]
  00229	89 8d c0 fe ff
	ff		 mov	 DWORD PTR $T94330[ebp], ecx
  0022f	8b 95 c0 fe ff
	ff		 mov	 edx, DWORD PTR $T94330[ebp]
  00235	89 95 cc fe ff
	ff		 mov	 DWORD PTR $T94329[ebp], edx
  0023b	83 bd cc fe ff
	ff 00		 cmp	 DWORD PTR $T94329[ebp], 0
  00242	74 15		 je	 SHORT $L94331
  00244	6a 01		 push	 1
  00246	8b 8d cc fe ff
	ff		 mov	 ecx, DWORD PTR $T94329[ebp]
  0024c	e8 00 00 00 00	 call	 ??_GCHUDScaleBar@@QAEPAXI@Z
  00251	89 85 40 fe ff
	ff		 mov	 DWORD PTR tv162[ebp], eax
  00257	eb 0a		 jmp	 SHORT $L94332
$L94331:
  00259	c7 85 40 fe ff
	ff 00 00 00 00	 mov	 DWORD PTR tv162[ebp], 0
$L94332:
  00263	8b 45 f8	 mov	 eax, DWORD PTR _this$[ebp]
  00266	c7 80 70 03 00
	00 00 00 00 00	 mov	 DWORD PTR [eax+880], 0
$L93813:

; 301  : 		SAFE_DELETE( m_pHUDEngineBackG )

  00270	8b 45 f8	 mov	 eax, DWORD PTR _this$[ebp]
  00273	83 b8 74 03 00
	00 00		 cmp	 DWORD PTR [eax+884], 0
  0027a	74 50		 je	 SHORT $L93816
  0027c	8b 45 f8	 mov	 eax, DWORD PTR _this$[ebp]
  0027f	8b 88 74 03 00
	00		 mov	 ecx, DWORD PTR [eax+884]
  00285	89 8d a8 fe ff
	ff		 mov	 DWORD PTR $T94334[ebp], ecx
  0028b	8b 95 a8 fe ff
	ff		 mov	 edx, DWORD PTR $T94334[ebp]
  00291	89 95 b4 fe ff
	ff		 mov	 DWORD PTR $T94333[ebp], edx
  00297	83 bd b4 fe ff
	ff 00		 cmp	 DWORD PTR $T94333[ebp], 0
  0029e	74 15		 je	 SHORT $L94335
  002a0	6a 01		 push	 1
  002a2	8b 8d b4 fe ff
	ff		 mov	 ecx, DWORD PTR $T94333[ebp]
  002a8	e8 00 00 00 00	 call	 ??_GCHUDScaleBar@@QAEPAXI@Z
  002ad	89 85 40 fe ff
	ff		 mov	 DWORD PTR tv171[ebp], eax
  002b3	eb 0a		 jmp	 SHORT $L94336
$L94335:
  002b5	c7 85 40 fe ff
	ff 00 00 00 00	 mov	 DWORD PTR tv171[ebp], 0
$L94336:
  002bf	8b 45 f8	 mov	 eax, DWORD PTR _this$[ebp]
  002c2	c7 80 74 03 00
	00 00 00 00 00	 mov	 DWORD PTR [eax+884], 0
$L93816:

; 302  : 
; 303  : 
; 304  : 		SAFE_RELEASE( m_pVB_Scanner )

  002cc	8b 45 f8	 mov	 eax, DWORD PTR _this$[ebp]
  002cf	83 b8 94 03 00
	00 00		 cmp	 DWORD PTR [eax+916], 0
  002d6	74 2e		 je	 SHORT $L93819
  002d8	8b 45 f8	 mov	 eax, DWORD PTR _this$[ebp]
  002db	8b 88 94 03 00
	00		 mov	 ecx, DWORD PTR [eax+916]
  002e1	8b 55 f8	 mov	 edx, DWORD PTR _this$[ebp]
  002e4	8b 82 94 03 00
	00		 mov	 eax, DWORD PTR [edx+916]
  002ea	8b 09		 mov	 ecx, DWORD PTR [ecx]
  002ec	8b f4		 mov	 esi, esp
  002ee	50		 push	 eax
  002ef	ff 51 08	 call	 DWORD PTR [ecx+8]
  002f2	3b f4		 cmp	 esi, esp
  002f4	e8 00 00 00 00	 call	 __RTC_CheckEsp
  002f9	8b 45 f8	 mov	 eax, DWORD PTR _this$[ebp]
  002fc	c7 80 94 03 00
	00 00 00 00 00	 mov	 DWORD PTR [eax+916], 0
$L93819:

; 305  : 		SAFE_DELETE( m_pScannerBackG )

  00306	8b 45 f8	 mov	 eax, DWORD PTR _this$[ebp]
  00309	83 b8 8c 03 00
	00 00		 cmp	 DWORD PTR [eax+908], 0
  00310	74 50		 je	 SHORT $L93820
  00312	8b 45 f8	 mov	 eax, DWORD PTR _this$[ebp]
  00315	8b 88 8c 03 00
	00		 mov	 ecx, DWORD PTR [eax+908]
  0031b	89 8d 90 fe ff
	ff		 mov	 DWORD PTR $T94338[ebp], ecx
  00321	8b 95 90 fe ff
	ff		 mov	 edx, DWORD PTR $T94338[ebp]
  00327	89 95 9c fe ff
	ff		 mov	 DWORD PTR $T94337[ebp], edx
  0032d	83 bd 9c fe ff
	ff 00		 cmp	 DWORD PTR $T94337[ebp], 0
  00334	74 15		 je	 SHORT $L94339
  00336	6a 01		 push	 1
  00338	8b 8d 9c fe ff
	ff		 mov	 ecx, DWORD PTR $T94337[ebp]
  0033e	e8 00 00 00 00	 call	 ??_GCScreenOverlay@@QAEPAXI@Z
  00343	89 85 40 fe ff
	ff		 mov	 DWORD PTR tv190[ebp], eax
  00349	eb 0a		 jmp	 SHORT $L94340
$L94339:
  0034b	c7 85 40 fe ff
	ff 00 00 00 00	 mov	 DWORD PTR tv190[ebp], 0
$L94340:
  00355	8b 45 f8	 mov	 eax, DWORD PTR _this$[ebp]
  00358	c7 80 8c 03 00
	00 00 00 00 00	 mov	 DWORD PTR [eax+908], 0
$L93820:

; 306  : 		
; 307  : 		SAFE_DELETE( m_pTargetIcon )

  00362	8b 45 f8	 mov	 eax, DWORD PTR _this$[ebp]
  00365	83 b8 a8 03 00
	00 00		 cmp	 DWORD PTR [eax+936], 0
  0036c	74 50		 je	 SHORT $L93823
  0036e	8b 45 f8	 mov	 eax, DWORD PTR _this$[ebp]
  00371	8b 88 a8 03 00
	00		 mov	 ecx, DWORD PTR [eax+936]
  00377	89 8d 78 fe ff
	ff		 mov	 DWORD PTR $T94342[ebp], ecx
  0037d	8b 95 78 fe ff
	ff		 mov	 edx, DWORD PTR $T94342[ebp]
  00383	89 95 84 fe ff
	ff		 mov	 DWORD PTR $T94341[ebp], edx
  00389	83 bd 84 fe ff
	ff 00		 cmp	 DWORD PTR $T94341[ebp], 0
  00390	74 15		 je	 SHORT $L94343
  00392	6a 01		 push	 1
  00394	8b 8d 84 fe ff
	ff		 mov	 ecx, DWORD PTR $T94341[ebp]
  0039a	e8 00 00 00 00	 call	 ??_GCScreenOverlay@@QAEPAXI@Z
  0039f	89 85 40 fe ff
	ff		 mov	 DWORD PTR tv199[ebp], eax
  003a5	eb 0a		 jmp	 SHORT $L94344
$L94343:
  003a7	c7 85 40 fe ff
	ff 00 00 00 00	 mov	 DWORD PTR tv199[ebp], 0
$L94344:
  003b1	8b 45 f8	 mov	 eax, DWORD PTR _this$[ebp]
  003b4	c7 80 a8 03 00
	00 00 00 00 00	 mov	 DWORD PTR [eax+936], 0
$L93823:

; 308  : 		SAFE_DELETE( m_pCrosshair )

  003be	8b 45 f8	 mov	 eax, DWORD PTR _this$[ebp]
  003c1	83 b8 b4 03 00
	00 00		 cmp	 DWORD PTR [eax+948], 0
  003c8	74 50		 je	 SHORT $L93826
  003ca	8b 45 f8	 mov	 eax, DWORD PTR _this$[ebp]
  003cd	8b 88 b4 03 00
	00		 mov	 ecx, DWORD PTR [eax+948]
  003d3	89 8d 60 fe ff
	ff		 mov	 DWORD PTR $T94346[ebp], ecx
  003d9	8b 95 60 fe ff
	ff		 mov	 edx, DWORD PTR $T94346[ebp]
  003df	89 95 6c fe ff
	ff		 mov	 DWORD PTR $T94345[ebp], edx
  003e5	83 bd 6c fe ff
	ff 00		 cmp	 DWORD PTR $T94345[ebp], 0
  003ec	74 15		 je	 SHORT $L94347
  003ee	6a 01		 push	 1
  003f0	8b 8d 6c fe ff
	ff		 mov	 ecx, DWORD PTR $T94345[ebp]
  003f6	e8 00 00 00 00	 call	 ??_GCScreenOverlay@@QAEPAXI@Z
  003fb	89 85 40 fe ff
	ff		 mov	 DWORD PTR tv208[ebp], eax
  00401	eb 0a		 jmp	 SHORT $L94348
$L94347:
  00403	c7 85 40 fe ff
	ff 00 00 00 00	 mov	 DWORD PTR tv208[ebp], 0
$L94348:
  0040d	8b 45 f8	 mov	 eax, DWORD PTR _this$[ebp]
  00410	c7 80 b4 03 00
	00 00 00 00 00	 mov	 DWORD PTR [eax+948], 0
$L93826:

; 309  : 
; 310  : 		SAFE_DELETE( m_pRedQuad )

  0041a	8b 45 f8	 mov	 eax, DWORD PTR _this$[ebp]
  0041d	83 b8 88 03 00
	00 00		 cmp	 DWORD PTR [eax+904], 0
  00424	74 50		 je	 SHORT $L93829
  00426	8b 45 f8	 mov	 eax, DWORD PTR _this$[ebp]
  00429	8b 88 88 03 00
	00		 mov	 ecx, DWORD PTR [eax+904]
  0042f	89 8d 48 fe ff
	ff		 mov	 DWORD PTR $T94350[ebp], ecx
  00435	8b 95 48 fe ff
	ff		 mov	 edx, DWORD PTR $T94350[ebp]
  0043b	89 95 54 fe ff
	ff		 mov	 DWORD PTR $T94349[ebp], edx
  00441	83 bd 54 fe ff
	ff 00		 cmp	 DWORD PTR $T94349[ebp], 0
  00448	74 15		 je	 SHORT $L94351
  0044a	6a 01		 push	 1
  0044c	8b 8d 54 fe ff
	ff		 mov	 ecx, DWORD PTR $T94349[ebp]
  00452	e8 00 00 00 00	 call	 ??_GCScreenOverlay@@QAEPAXI@Z
  00457	89 85 40 fe ff
	ff		 mov	 DWORD PTR tv217[ebp], eax
  0045d	eb 0a		 jmp	 SHORT $L94352
$L94351:
  0045f	c7 85 40 fe ff
	ff 00 00 00 00	 mov	 DWORD PTR tv217[ebp], 0
$L94352:
  00469	8b 45 f8	 mov	 eax, DWORD PTR _this$[ebp]
  0046c	c7 80 88 03 00
	00 00 00 00 00	 mov	 DWORD PTR [eax+904], 0
$L93829:

; 311  : 
; 312  : 		return S_OK ;

  00476	33 c0		 xor	 eax, eax

; 313  : 	}

  00478	5f		 pop	 edi
  00479	5e		 pop	 esi
  0047a	5b		 pop	 ebx
  0047b	81 c4 c0 01 00
	00		 add	 esp, 448		; 000001c0H
  00481	3b ec		 cmp	 ebp, esp
  00483	e8 00 00 00 00	 call	 __RTC_CheckEsp
  00488	8b e5		 mov	 esp, ebp
  0048a	5d		 pop	 ebp
  0048b	c2 04 00	 ret	 4
?InvalidateDeviceObjects@CUserFighter@@QAEJPAUIDirect3DDevice8@@@Z ENDP ; CUserFighter::InvalidateDeviceObjects
; Function compile flags: /Odt /RTCsu /ZI
; File c:\dxsdk\include\d3dx8math.h
_TEXT	ENDS
;	COMDAT ??0D3DXCOLOR@@QAE@XZ
_TEXT	SEGMENT
_this$ = -8
??0D3DXCOLOR@@QAE@XZ PROC NEAR				; D3DXCOLOR::D3DXCOLOR, COMDAT
; _this$ = ecx

; 409  :     D3DXCOLOR() {}

  00000	55		 push	 ebp
  00001	8b ec		 mov	 ebp, esp
  00003	81 ec cc 00 00
	00		 sub	 esp, 204		; 000000ccH
  00009	53		 push	 ebx
  0000a	56		 push	 esi
  0000b	57		 push	 edi
  0000c	51		 push	 ecx
  0000d	8d bd 34 ff ff
	ff		 lea	 edi, DWORD PTR [ebp-204]
  00013	b9 33 00 00 00	 mov	 ecx, 51			; 00000033H
  00018	b8 cc cc cc cc	 mov	 eax, -858993460		; ccccccccH
  0001d	f3 ab		 rep stosd
  0001f	59		 pop	 ecx
  00020	89 4d f8	 mov	 DWORD PTR _this$[ebp], ecx
  00023	8b 45 f8	 mov	 eax, DWORD PTR _this$[ebp]
  00026	5f		 pop	 edi
  00027	5e		 pop	 esi
  00028	5b		 pop	 ebx
  00029	8b e5		 mov	 esp, ebp
  0002b	5d		 pop	 ebp
  0002c	c3		 ret	 0
??0D3DXCOLOR@@QAE@XZ ENDP				; D3DXCOLOR::D3DXCOLOR
; Function compile flags: /Odt /RTCsu /ZI
; File c:\dxsdk\include\d3dx8math.inl
_TEXT	ENDS
;	COMDAT ??0D3DXVECTOR2@@QAE@MM@Z
_TEXT	SEGMENT
_this$ = -8
_fx$ = 8
_fy$ = 12
??0D3DXVECTOR2@@QAE@MM@Z PROC NEAR			; D3DXVECTOR2::D3DXVECTOR2, COMDAT
; _this$ = ecx

; 40   : {

  00000	55		 push	 ebp
  00001	8b ec		 mov	 ebp, esp
  00003	81 ec cc 00 00
	00		 sub	 esp, 204		; 000000ccH
  00009	53		 push	 ebx
  0000a	56		 push	 esi
  0000b	57		 push	 edi
  0000c	51		 push	 ecx
  0000d	8d bd 34 ff ff
	ff		 lea	 edi, DWORD PTR [ebp-204]
  00013	b9 33 00 00 00	 mov	 ecx, 51			; 00000033H
  00018	b8 cc cc cc cc	 mov	 eax, -858993460		; ccccccccH
  0001d	f3 ab		 rep stosd
  0001f	59		 pop	 ecx
  00020	89 4d f8	 mov	 DWORD PTR _this$[ebp], ecx

; 41   :     x = fx;

  00023	8b 45 f8	 mov	 eax, DWORD PTR _this$[ebp]
  00026	8b 4d 08	 mov	 ecx, DWORD PTR _fx$[ebp]
  00029	89 08		 mov	 DWORD PTR [eax], ecx

; 42   :     y = fy;

  0002b	8b 45 f8	 mov	 eax, DWORD PTR _this$[ebp]
  0002e	8b 4d 0c	 mov	 ecx, DWORD PTR _fy$[ebp]
  00031	89 48 04	 mov	 DWORD PTR [eax+4], ecx

; 43   : }

  00034	8b 45 f8	 mov	 eax, DWORD PTR _this$[ebp]
  00037	5f		 pop	 edi
  00038	5e		 pop	 esi
  00039	5b		 pop	 ebx
  0003a	8b e5		 mov	 esp, ebp
  0003c	5d		 pop	 ebp
  0003d	c2 08 00	 ret	 8
??0D3DXVECTOR2@@QAE@MM@Z ENDP				; D3DXVECTOR2::D3DXVECTOR2
_TEXT	ENDS
EXTRN	??1CHUDScaleBar@@QAE@XZ:NEAR			; CHUDScaleBar::~CHUDScaleBar
; Function compile flags: /Odt /RTCsu /ZI
;	COMDAT ??_GCHUDScaleBar@@QAEPAXI@Z
_TEXT	SEGMENT
_this$ = -8
___flags$ = 8
??_GCHUDScaleBar@@QAEPAXI@Z PROC NEAR			; CHUDScaleBar::`scalar deleting destructor', COMDAT
; _this$ = ecx
  00000	55		 push	 ebp
  00001	8b ec		 mov	 ebp, esp
  00003	81 ec cc 00 00
	00		 sub	 esp, 204		; 000000ccH
  00009	53		 push	 ebx
  0000a	56		 push	 esi
  0000b	57		 push	 edi
  0000c	51		 push	 ecx
  0000d	8d bd 34 ff ff
	ff		 lea	 edi, DWORD PTR [ebp-204]
  00013	b9 33 00 00 00	 mov	 ecx, 51			; 00000033H
  00018	b8 cc cc cc cc	 mov	 eax, -858993460		; ccccccccH
  0001d	f3 ab		 rep stosd
  0001f	59		 pop	 ecx
  00020	89 4d f8	 mov	 DWORD PTR _this$[ebp], ecx
  00023	8b 4d f8	 mov	 ecx, DWORD PTR _this$[ebp]
  00026	e8 00 00 00 00	 call	 ??1CHUDScaleBar@@QAE@XZ	; CHUDScaleBar::~CHUDScaleBar
  0002b	8b 45 08	 mov	 eax, DWORD PTR ___flags$[ebp]
  0002e	83 e0 01	 and	 eax, 1
  00031	85 c0		 test	 eax, eax
  00033	74 0c		 je	 SHORT $L93836
  00035	8b 45 f8	 mov	 eax, DWORD PTR _this$[ebp]
  00038	50		 push	 eax
  00039	e8 00 00 00 00	 call	 ??3@YAXPAX@Z		; operator delete
  0003e	83 c4 04	 add	 esp, 4
$L93836:
  00041	8b 45 f8	 mov	 eax, DWORD PTR _this$[ebp]
  00044	5f		 pop	 edi
  00045	5e		 pop	 esi
  00046	5b		 pop	 ebx
  00047	81 c4 cc 00 00
	00		 add	 esp, 204		; 000000ccH
  0004d	3b ec		 cmp	 ebp, esp
  0004f	e8 00 00 00 00	 call	 __RTC_CheckEsp
  00054	8b e5		 mov	 esp, ebp
  00056	5d		 pop	 ebp
  00057	c2 04 00	 ret	 4
??_GCHUDScaleBar@@QAEPAXI@Z ENDP			; CHUDScaleBar::`scalar deleting destructor'
_TEXT	ENDS
PUBLIC	?EnableHUD@CUserFighter@@QAEHH@Z		; CUserFighter::EnableHUD
; Function compile flags: /Odt /RTCsu /ZI
; File c:\documents and settings\dom\my documents\_dev\ae\xlr8a\x7g\cuserfighter.cpp
;	COMDAT ?EnableHUD@CUserFighter@@QAEHH@Z
_TEXT	SEGMENT
_this$ = -8
_bActive$ = 8
?EnableHUD@CUserFighter@@QAEHH@Z PROC NEAR		; CUserFighter::EnableHUD, COMDAT
; _this$ = ecx

; 317  : 	{

  00000	55		 push	 ebp
  00001	8b ec		 mov	 ebp, esp
  00003	81 ec cc 00 00
	00		 sub	 esp, 204		; 000000ccH
  00009	53		 push	 ebx
  0000a	56		 push	 esi
  0000b	57		 push	 edi
  0000c	51		 push	 ecx
  0000d	8d bd 34 ff ff
	ff		 lea	 edi, DWORD PTR [ebp-204]
  00013	b9 33 00 00 00	 mov	 ecx, 51			; 00000033H
  00018	b8 cc cc cc cc	 mov	 eax, -858993460		; ccccccccH
  0001d	f3 ab		 rep stosd
  0001f	59		 pop	 ecx
  00020	89 4d f8	 mov	 DWORD PTR _this$[ebp], ecx

; 318  : 		if( m_pHUDShieldLevel )

  00023	8b 45 f8	 mov	 eax, DWORD PTR _this$[ebp]
  00026	83 b8 60 03 00
	00 00		 cmp	 DWORD PTR [eax+864], 0
  0002d	74 12		 je	 SHORT $L93841

; 319  : 			m_pHUDShieldLevel->m_bActive = bActive ;

  0002f	8b 45 f8	 mov	 eax, DWORD PTR _this$[ebp]
  00032	8b 88 60 03 00
	00		 mov	 ecx, DWORD PTR [eax+864]
  00038	8b 55 08	 mov	 edx, DWORD PTR _bActive$[ebp]
  0003b	89 91 84 00 00
	00		 mov	 DWORD PTR [ecx+132], edx
$L93841:

; 320  : 		if( m_pHUDShieldBackG )

  00041	8b 45 f8	 mov	 eax, DWORD PTR _this$[ebp]
  00044	83 b8 64 03 00
	00 00		 cmp	 DWORD PTR [eax+868], 0
  0004b	74 12		 je	 SHORT $L93842

; 321  : 			m_pHUDShieldBackG->m_bActive = bActive ;

  0004d	8b 45 f8	 mov	 eax, DWORD PTR _this$[ebp]
  00050	8b 88 64 03 00
	00		 mov	 ecx, DWORD PTR [eax+868]
  00056	8b 55 08	 mov	 edx, DWORD PTR _bActive$[ebp]
  00059	89 91 84 00 00
	00		 mov	 DWORD PTR [ecx+132], edx
$L93842:

; 322  : 		
; 323  : 		if( m_pHUDWeaponsLevel )

  0005f	8b 45 f8	 mov	 eax, DWORD PTR _this$[ebp]
  00062	83 b8 68 03 00
	00 00		 cmp	 DWORD PTR [eax+872], 0
  00069	74 12		 je	 SHORT $L93843

; 324  : 			m_pHUDWeaponsLevel->m_bActive = bActive ;

  0006b	8b 45 f8	 mov	 eax, DWORD PTR _this$[ebp]
  0006e	8b 88 68 03 00
	00		 mov	 ecx, DWORD PTR [eax+872]
  00074	8b 55 08	 mov	 edx, DWORD PTR _bActive$[ebp]
  00077	89 91 84 00 00
	00		 mov	 DWORD PTR [ecx+132], edx
$L93843:

; 325  : 		if( m_pHUDWeaponsBackG )

  0007d	8b 45 f8	 mov	 eax, DWORD PTR _this$[ebp]
  00080	83 b8 6c 03 00
	00 00		 cmp	 DWORD PTR [eax+876], 0
  00087	74 12		 je	 SHORT $L93844

; 326  : 			m_pHUDWeaponsBackG->m_bActive = bActive ;

  00089	8b 45 f8	 mov	 eax, DWORD PTR _this$[ebp]
  0008c	8b 88 6c 03 00
	00		 mov	 ecx, DWORD PTR [eax+876]
  00092	8b 55 08	 mov	 edx, DWORD PTR _bActive$[ebp]
  00095	89 91 84 00 00
	00		 mov	 DWORD PTR [ecx+132], edx
$L93844:

; 327  : 		
; 328  : 		if( m_pHUDEngineLevel )

  0009b	8b 45 f8	 mov	 eax, DWORD PTR _this$[ebp]
  0009e	83 b8 70 03 00
	00 00		 cmp	 DWORD PTR [eax+880], 0
  000a5	74 12		 je	 SHORT $L93845

; 329  : 			m_pHUDEngineLevel->m_bActive = bActive ;

  000a7	8b 45 f8	 mov	 eax, DWORD PTR _this$[ebp]
  000aa	8b 88 70 03 00
	00		 mov	 ecx, DWORD PTR [eax+880]
  000b0	8b 55 08	 mov	 edx, DWORD PTR _bActive$[ebp]
  000b3	89 91 84 00 00
	00		 mov	 DWORD PTR [ecx+132], edx
$L93845:

; 330  : 		if( m_pHUDEngineBackG )

  000b9	8b 45 f8	 mov	 eax, DWORD PTR _this$[ebp]
  000bc	83 b8 74 03 00
	00 00		 cmp	 DWORD PTR [eax+884], 0
  000c3	74 12		 je	 SHORT $L93846

; 331  : 			m_pHUDEngineBackG->m_bActive = bActive ;

  000c5	8b 45 f8	 mov	 eax, DWORD PTR _this$[ebp]
  000c8	8b 88 74 03 00
	00		 mov	 ecx, DWORD PTR [eax+884]
  000ce	8b 55 08	 mov	 edx, DWORD PTR _bActive$[ebp]
  000d1	89 91 84 00 00
	00		 mov	 DWORD PTR [ecx+132], edx
$L93846:

; 332  : 
; 333  : 		if( m_pHUDSpeed )

  000d7	8b 45 f8	 mov	 eax, DWORD PTR _this$[ebp]
  000da	83 b8 78 03 00
	00 00		 cmp	 DWORD PTR [eax+888], 0
  000e1	74 12		 je	 SHORT $L93847

; 334  : 			m_pHUDSpeed->Enable( bActive );

  000e3	8b 45 08	 mov	 eax, DWORD PTR _bActive$[ebp]
  000e6	50		 push	 eax
  000e7	8b 4d f8	 mov	 ecx, DWORD PTR _this$[ebp]
  000ea	8b 89 78 03 00
	00		 mov	 ecx, DWORD PTR [ecx+888]
  000f0	e8 00 00 00 00	 call	 ?Enable@CHUDText@@QAEHH@Z ; CHUDText::Enable
$L93847:

; 335  : 		if( m_pHUDItems )

  000f5	8b 45 f8	 mov	 eax, DWORD PTR _this$[ebp]
  000f8	83 b8 80 03 00
	00 00		 cmp	 DWORD PTR [eax+896], 0
  000ff	74 12		 je	 SHORT $L93848

; 336  : 			m_pHUDItems->Enable( bActive );

  00101	8b 45 08	 mov	 eax, DWORD PTR _bActive$[ebp]
  00104	50		 push	 eax
  00105	8b 4d f8	 mov	 ecx, DWORD PTR _this$[ebp]
  00108	8b 89 80 03 00
	00		 mov	 ecx, DWORD PTR [ecx+896]
  0010e	e8 00 00 00 00	 call	 ?Enable@CHUDText@@QAEHH@Z ; CHUDText::Enable
$L93848:

; 337  : 		if( m_pHUDScore )

  00113	8b 45 f8	 mov	 eax, DWORD PTR _this$[ebp]
  00116	83 b8 7c 03 00
	00 00		 cmp	 DWORD PTR [eax+892], 0
  0011d	74 12		 je	 SHORT $L93849

; 338  : 			m_pHUDScore->Enable( bActive );

  0011f	8b 45 08	 mov	 eax, DWORD PTR _bActive$[ebp]
  00122	50		 push	 eax
  00123	8b 4d f8	 mov	 ecx, DWORD PTR _this$[ebp]
  00126	8b 89 7c 03 00
	00		 mov	 ecx, DWORD PTR [ecx+892]
  0012c	e8 00 00 00 00	 call	 ?Enable@CHUDText@@QAEHH@Z ; CHUDText::Enable
$L93849:

; 339  : 		if( m_pHUDLives )

  00131	8b 45 f8	 mov	 eax, DWORD PTR _this$[ebp]
  00134	83 b8 84 03 00
	00 00		 cmp	 DWORD PTR [eax+900], 0
  0013b	74 12		 je	 SHORT $L93850

; 340  : 			m_pHUDLives->Enable( bActive );

  0013d	8b 45 08	 mov	 eax, DWORD PTR _bActive$[ebp]
  00140	50		 push	 eax
  00141	8b 4d f8	 mov	 ecx, DWORD PTR _this$[ebp]
  00144	8b 89 84 03 00
	00		 mov	 ecx, DWORD PTR [ecx+900]
  0014a	e8 00 00 00 00	 call	 ?Enable@CHUDText@@QAEHH@Z ; CHUDText::Enable
$L93850:

; 341  : 
; 342  : 		if( m_pScannerBackG )

  0014f	8b 45 f8	 mov	 eax, DWORD PTR _this$[ebp]
  00152	83 b8 8c 03 00
	00 00		 cmp	 DWORD PTR [eax+908], 0
  00159	74 12		 je	 SHORT $L93851

; 343  : 			m_pScannerBackG->m_bActive = bActive ;

  0015b	8b 45 f8	 mov	 eax, DWORD PTR _this$[ebp]
  0015e	8b 88 8c 03 00
	00		 mov	 ecx, DWORD PTR [eax+908]
  00164	8b 55 08	 mov	 edx, DWORD PTR _bActive$[ebp]
  00167	89 91 84 00 00
	00		 mov	 DWORD PTR [ecx+132], edx
$L93851:

; 344  : 
; 345  : 		if( m_pTargetIcon )

  0016d	8b 45 f8	 mov	 eax, DWORD PTR _this$[ebp]
  00170	83 b8 a8 03 00
	00 00		 cmp	 DWORD PTR [eax+936], 0
  00177	74 12		 je	 SHORT $L93852

; 346  : 			m_pTargetIcon->m_bActive = bActive ;

  00179	8b 45 f8	 mov	 eax, DWORD PTR _this$[ebp]
  0017c	8b 88 a8 03 00
	00		 mov	 ecx, DWORD PTR [eax+936]
  00182	8b 55 08	 mov	 edx, DWORD PTR _bActive$[ebp]
  00185	89 91 84 00 00
	00		 mov	 DWORD PTR [ecx+132], edx
$L93852:

; 347  : 		if( m_pCrosshair )

  0018b	8b 45 f8	 mov	 eax, DWORD PTR _this$[ebp]
  0018e	83 b8 b4 03 00
	00 00		 cmp	 DWORD PTR [eax+948], 0
  00195	74 12		 je	 SHORT $L93853

; 348  : 			m_pCrosshair->m_bActive = bActive ;

  00197	8b 45 f8	 mov	 eax, DWORD PTR _this$[ebp]
  0019a	8b 88 b4 03 00
	00		 mov	 ecx, DWORD PTR [eax+948]
  001a0	8b 55 08	 mov	 edx, DWORD PTR _bActive$[ebp]
  001a3	89 91 84 00 00
	00		 mov	 DWORD PTR [ecx+132], edx
$L93853:

; 349  : 
; 350  : 		if( m_pRedQuad )

  001a9	8b 45 f8	 mov	 eax, DWORD PTR _this$[ebp]
  001ac	83 b8 88 03 00
	00 00		 cmp	 DWORD PTR [eax+904], 0
  001b3	74 12		 je	 SHORT $L93840

; 351  : 			m_pRedQuad->m_bActive = bActive ;

  001b5	8b 45 f8	 mov	 eax, DWORD PTR _this$[ebp]
  001b8	8b 88 88 03 00
	00		 mov	 ecx, DWORD PTR [eax+904]
  001be	8b 55 08	 mov	 edx, DWORD PTR _bActive$[ebp]
  001c1	89 91 84 00 00
	00		 mov	 DWORD PTR [ecx+132], edx
$L93840:

; 352  : 	}

  001c7	5f		 pop	 edi
  001c8	5e		 pop	 esi
  001c9	5b		 pop	 ebx
  001ca	81 c4 cc 00 00
	00		 add	 esp, 204		; 000000ccH
  001d0	3b ec		 cmp	 ebp, esp
  001d2	e8 00 00 00 00	 call	 __RTC_CheckEsp
  001d7	8b e5		 mov	 esp, ebp
  001d9	5d		 pop	 ebp
  001da	c2 04 00	 ret	 4
?EnableHUD@CUserFighter@@QAEHH@Z ENDP			; CUserFighter::EnableHUD
_TEXT	ENDS
PUBLIC	__real@00000000
PUBLIC	__real@43200000
PUBLIC	__real@3f0ccccd
PUBLIC	?DetectAndHandleItemCollisions@CUserFighter@@QAEHPAUD3DXVECTOR3@@0PAVCTerrain@@PAVCRace@@@Z ; CUserFighter::DetectAndHandleItemCollisions
PUBLIC	?D3DXVec3Length@@YAMPBUD3DXVECTOR3@@@Z		; D3DXVec3Length
PUBLIC	??_C@_07BMGILGBA@?5?$CF2d?1?$CFd?$AA@		; `string'
PUBLIC	??_C@_06BNFANEFB@?$CF2d?1?$CFd?$AA@		; `string'
PUBLIC	??_C@_04LLNLOACP@LIFE?$AA@			; `string'
PUBLIC	??_C@_0N@EHFONGIA@ENGINE?5BOOST?$AA@		; `string'
PUBLIC	??_C@_0N@JLIIAJGL@WEAPON?5BOOST?$AA@		; `string'
PUBLIC	??_C@_0FN@MOFEEIEI@got?5an?5item?0?5i?5was?$DN?$DN?$CFd?0?5?$EA?$CI?$CF0?41f?0@ ; `string'
PUBLIC	??0D3DXVECTOR3@@QAE@XZ				; D3DXVECTOR3::D3DXVECTOR3
PUBLIC	??0D3DXVECTOR3@@QAE@MMM@Z			; D3DXVECTOR3::D3DXVECTOR3
PUBLIC	??HD3DXVECTOR3@@QBE?AU0@ABU0@@Z			; D3DXVECTOR3::operator+
PUBLIC	??GD3DXVECTOR3@@QBE?AU0@ABU0@@Z			; D3DXVECTOR3::operator-
EXTRN	_memcpy:NEAR
EXTRN	_strcpy:NEAR
EXTRN	?PlaySFX3D@CSoundManager@@QAEHHPAUD3DXVECTOR3@@0M@Z:NEAR ; CSoundManager::PlaySFX3D
EXTRN	?SetFrameMoveRequired@CHUDText@@QAEHH@Z:NEAR	; CHUDText::SetFrameMoveRequired
EXTRN	?SphereLineTest@@YAHABUD3DXVECTOR3@@00MPAHPAU1@2@Z:NEAR ; SphereLineTest
;	COMDAT __real@00000000
CONST	SEGMENT
__real@00000000 DD 000000000r			; 0
CONST	ENDS
;	COMDAT __real@43200000
CONST	SEGMENT
__real@43200000 DD 043200000r			; 160
CONST	ENDS
;	COMDAT ??_C@_07BMGILGBA@?5?$CF2d?1?$CFd?$AA@
CONST	SEGMENT
??_C@_07BMGILGBA@?5?$CF2d?1?$CFd?$AA@ DB ' %2d/%d', 00H	; `string'
CONST	ENDS
;	COMDAT ??_C@_06BNFANEFB@?$CF2d?1?$CFd?$AA@
CONST	SEGMENT
??_C@_06BNFANEFB@?$CF2d?1?$CFd?$AA@ DB '%2d/%d', 00H	; `string'
CONST	ENDS
;	COMDAT ??_C@_04LLNLOACP@LIFE?$AA@
CONST	SEGMENT
??_C@_04LLNLOACP@LIFE?$AA@ DB 'LIFE', 00H		; `string'
CONST	ENDS
;	COMDAT __real@3f0ccccd
CONST	SEGMENT
__real@3f0ccccd DD 03f0ccccdr			; 0.55
CONST	ENDS
;	COMDAT ??_C@_0N@EHFONGIA@ENGINE?5BOOST?$AA@
CONST	SEGMENT
??_C@_0N@EHFONGIA@ENGINE?5BOOST?$AA@ DB 'ENGINE BOOST', 00H ; `string'
CONST	ENDS
;	COMDAT ??_C@_0N@JLIIAJGL@WEAPON?5BOOST?$AA@
CONST	SEGMENT
??_C@_0N@JLIIAJGL@WEAPON?5BOOST?$AA@ DB 'WEAPON BOOST', 00H ; `string'
CONST	ENDS
;	COMDAT ??_C@_0FN@MOFEEIEI@got?5an?5item?0?5i?5was?$DN?$DN?$CFd?0?5?$EA?$CI?$CF0?41f?0@
CONST	SEGMENT
??_C@_0FN@MOFEEIEI@got?5an?5item?0?5i?5was?$DN?$DN?$CFd?0?5?$EA?$CI?$CF0?41f?0@ DB 'g'
	DB	'ot an item, i was==%d, @(%0.1f, %0.1f, %0.1f), %d left on thi'
	DB	's patch, I''ve got %d cherries', 0aH, 00H	; `string'
; Function compile flags: /Odt /RTCsu /ZI
CONST	ENDS
;	COMDAT ?DetectAndHandleItemCollisions@CUserFighter@@QAEHPAUD3DXVECTOR3@@0PAVCTerrain@@PAVCRace@@@Z
_TEXT	SEGMENT
$T94364 = -408
$T94363 = -388
_fD$93889 = -176
_fMinD$93888 = -164
_vItemAbsPos$93884 = -152
_fItemAbsRadius$93883 = -132
_i$93879 = -120
_nItemsOnThisPatch$93878 = -108
_y$93873 = -96
_x$93869 = -84
_fDistance$ = -72
_vPos$ = -60
_vProbe$ = -40
_bCollision$ = -20
_this$ = -8
_pvCurPos$ = 8
_pvTestPos$ = 12
_pTerrain$ = 16
_pRace$ = 20
?DetectAndHandleItemCollisions@CUserFighter@@QAEHPAUD3DXVECTOR3@@0PAVCTerrain@@PAVCRace@@@Z PROC NEAR ; CUserFighter::DetectAndHandleItemCollisions, COMDAT
; _this$ = ecx

; 371  : 	{

  00000	55		 push	 ebp
  00001	8b ec		 mov	 ebp, esp
  00003	81 ec 9c 01 00
	00		 sub	 esp, 412		; 0000019cH
  00009	53		 push	 ebx
  0000a	56		 push	 esi
  0000b	57		 push	 edi
  0000c	51		 push	 ecx
  0000d	8d bd 64 fe ff
	ff		 lea	 edi, DWORD PTR [ebp-412]
  00013	b9 67 00 00 00	 mov	 ecx, 103		; 00000067H
  00018	b8 cc cc cc cc	 mov	 eax, -858993460		; ccccccccH
  0001d	f3 ab		 rep stosd
  0001f	59		 pop	 ecx
  00020	89 4d f8	 mov	 DWORD PTR _this$[ebp], ecx

; 372  : 		BOOL bCollision ;
; 373  : 		xVec3 vProbe = (*pvTestPos) - (*pvCurPos) ;

  00023	8b 45 08	 mov	 eax, DWORD PTR _pvCurPos$[ebp]
  00026	50		 push	 eax
  00027	8d 4d d8	 lea	 ecx, DWORD PTR _vProbe$[ebp]
  0002a	51		 push	 ecx
  0002b	8b 4d 0c	 mov	 ecx, DWORD PTR _pvTestPos$[ebp]
  0002e	e8 00 00 00 00	 call	 ??GD3DXVECTOR3@@QBE?AU0@ABU0@@Z ; D3DXVECTOR3::operator-

; 374  : 		xVec3 vPos ;

  00033	8d 4d c4	 lea	 ecx, DWORD PTR _vPos$[ebp]
  00036	e8 00 00 00 00	 call	 ??0D3DXVECTOR3@@QAE@XZ	; D3DXVECTOR3::D3DXVECTOR3

; 375  : 		float fDistance = D3DXVec3Length( &vProbe );

  0003b	8d 45 d8	 lea	 eax, DWORD PTR _vProbe$[ebp]
  0003e	50		 push	 eax
  0003f	e8 00 00 00 00	 call	 ?D3DXVec3Length@@YAMPBUD3DXVECTOR3@@@Z ; D3DXVec3Length
  00044	83 c4 04	 add	 esp, 4
  00047	d9 5d b8	 fstp	 DWORD PTR _fDistance$[ebp]

; 376  : 
; 377  : 		if( fDistance == 0.0f )

  0004a	d9 45 b8	 fld	 DWORD PTR _fDistance$[ebp]
  0004d	d8 1d 00 00 00
	00		 fcomp	 DWORD PTR __real@00000000
  00053	df e0		 fnstsw	 ax
  00055	f6 c4 44	 test	 ah, 68			; 00000044H
  00058	7a 07		 jp	 SHORT $L93868

; 378  : 			return FALSE ;

  0005a	33 c0		 xor	 eax, eax
  0005c	e9 6c 08 00 00	 jmp	 $L93862
$L93868:

; 379  : 
; 380  : 		for( int x = 0 ; x < pTerrain->m_nPatchesSQ ; x++ )

  00061	c7 45 ac 00 00
	00 00		 mov	 DWORD PTR _x$93869[ebp], 0
  00068	eb 09		 jmp	 SHORT $L93870
$L93871:
  0006a	8b 45 ac	 mov	 eax, DWORD PTR _x$93869[ebp]
  0006d	83 c0 01	 add	 eax, 1
  00070	89 45 ac	 mov	 DWORD PTR _x$93869[ebp], eax
$L93870:
  00073	8b 45 10	 mov	 eax, DWORD PTR _pTerrain$[ebp]
  00076	8b 4d ac	 mov	 ecx, DWORD PTR _x$93869[ebp]
  00079	3b 48 08	 cmp	 ecx, DWORD PTR [eax+8]
  0007c	0f 8d 46 08 00
	00		 jge	 $L93872

; 381  : 			for( int y = 0 ; y < pTerrain->m_nPatchesSQ ; y++ )

  00082	c7 45 a0 00 00
	00 00		 mov	 DWORD PTR _y$93873[ebp], 0
  00089	eb 09		 jmp	 SHORT $L93874
$L93875:
  0008b	8b 45 a0	 mov	 eax, DWORD PTR _y$93873[ebp]
  0008e	83 c0 01	 add	 eax, 1
  00091	89 45 a0	 mov	 DWORD PTR _y$93873[ebp], eax
$L93874:
  00094	8b 45 10	 mov	 eax, DWORD PTR _pTerrain$[ebp]
  00097	8b 4d a0	 mov	 ecx, DWORD PTR _y$93873[ebp]
  0009a	3b 48 08	 cmp	 ecx, DWORD PTR [eax+8]
  0009d	0f 8d 20 08 00
	00		 jge	 $L93876

; 382  : 				if( pTerrain->m_pPatches[TER_RC2ABS(x,y)]->m_pPatchLOD[0]->m_bVisible )

  000a3	8b 45 10	 mov	 eax, DWORD PTR _pTerrain$[ebp]
  000a6	8b 4d ac	 mov	 ecx, DWORD PTR _x$93869[ebp]
  000a9	0f af 48 08	 imul	 ecx, DWORD PTR [eax+8]
  000ad	03 4d a0	 add	 ecx, DWORD PTR _y$93873[ebp]
  000b0	8b 55 10	 mov	 edx, DWORD PTR _pTerrain$[ebp]
  000b3	8b 82 fc 04 00
	00		 mov	 eax, DWORD PTR [edx+1276]
  000b9	8b 0c 88	 mov	 ecx, DWORD PTR [eax+ecx*4]
  000bc	8b 51 58	 mov	 edx, DWORD PTR [ecx+88]
  000bf	8b 02		 mov	 eax, DWORD PTR [edx]
  000c1	83 b8 b4 0a 00
	00 00		 cmp	 DWORD PTR [eax+2740], 0
  000c8	0f 84 f0 07 00
	00		 je	 $L93877

; 383  : 				{
; 384  : 					int nItemsOnThisPatch = pTerrain->m_pPatches[TER_RC2ABS(x,y)]->m_nItems ;

  000ce	8b 45 10	 mov	 eax, DWORD PTR _pTerrain$[ebp]
  000d1	8b 4d ac	 mov	 ecx, DWORD PTR _x$93869[ebp]
  000d4	0f af 48 08	 imul	 ecx, DWORD PTR [eax+8]
  000d8	03 4d a0	 add	 ecx, DWORD PTR _y$93873[ebp]
  000db	8b 55 10	 mov	 edx, DWORD PTR _pTerrain$[ebp]
  000de	8b 82 fc 04 00
	00		 mov	 eax, DWORD PTR [edx+1276]
  000e4	8b 0c 88	 mov	 ecx, DWORD PTR [eax+ecx*4]
  000e7	8b 51 10	 mov	 edx, DWORD PTR [ecx+16]
  000ea	89 55 94	 mov	 DWORD PTR _nItemsOnThisPatch$93878[ebp], edx

; 385  : 					for( int i = 0 ; i < nItemsOnThisPatch ; i++ )

  000ed	c7 45 88 00 00
	00 00		 mov	 DWORD PTR _i$93879[ebp], 0
  000f4	eb 09		 jmp	 SHORT $L93880
$L93881:
  000f6	8b 45 88	 mov	 eax, DWORD PTR _i$93879[ebp]
  000f9	83 c0 01	 add	 eax, 1
  000fc	89 45 88	 mov	 DWORD PTR _i$93879[ebp], eax
$L93880:
  000ff	8b 45 88	 mov	 eax, DWORD PTR _i$93879[ebp]
  00102	3b 45 94	 cmp	 eax, DWORD PTR _nItemsOnThisPatch$93878[ebp]
  00105	0f 8d b3 07 00
	00		 jge	 $L93877

; 386  : 					{
; 387  : 						bCollision = FALSE ;

  0010b	c7 45 ec 00 00
	00 00		 mov	 DWORD PTR _bCollision$[ebp], 0

; 388  : 
; 389  : float fItemAbsRadius = pTerrain->m_pPatches[TER_RC2ABS(x,y)]->m_pItems[ i ].fRadius * ( pTerrain->m_fLenSQ / 160.0f );

  00112	8b 45 10	 mov	 eax, DWORD PTR _pTerrain$[ebp]
  00115	8b 4d ac	 mov	 ecx, DWORD PTR _x$93869[ebp]
  00118	0f af 48 08	 imul	 ecx, DWORD PTR [eax+8]
  0011c	03 4d a0	 add	 ecx, DWORD PTR _y$93873[ebp]
  0011f	8b 55 10	 mov	 edx, DWORD PTR _pTerrain$[ebp]
  00122	8b 82 fc 04 00
	00		 mov	 eax, DWORD PTR [edx+1276]
  00128	8b 0c 88	 mov	 ecx, DWORD PTR [eax+ecx*4]
  0012b	8b 55 88	 mov	 edx, DWORD PTR _i$93879[ebp]
  0012e	6b d2 2c	 imul	 edx, 44			; 0000002cH
  00131	8b 41 0c	 mov	 eax, DWORD PTR [ecx+12]
  00134	8b 4d 10	 mov	 ecx, DWORD PTR _pTerrain$[ebp]
  00137	d9 41 18	 fld	 DWORD PTR [ecx+24]
  0013a	d8 35 00 00 00
	00		 fdiv	 DWORD PTR __real@43200000
  00140	d8 4c 10 10	 fmul	 DWORD PTR [eax+edx+16]
  00144	d9 9d 7c ff ff
	ff		 fstp	 DWORD PTR _fItemAbsRadius$93883[ebp]

; 390  : xVec3 vItemAbsPos = pTerrain->m_pPatches[TER_RC2ABS(x,y)]->m_pItems[ i ].vPos + xVec3( 0, fItemAbsRadius, 0 );

  0014a	6a 00		 push	 0
  0014c	8b 85 7c ff ff
	ff		 mov	 eax, DWORD PTR _fItemAbsRadius$93883[ebp]
  00152	50		 push	 eax
  00153	6a 00		 push	 0
  00155	8d 8d 7c fe ff
	ff		 lea	 ecx, DWORD PTR $T94363[ebp]
  0015b	e8 00 00 00 00	 call	 ??0D3DXVECTOR3@@QAE@MMM@Z ; D3DXVECTOR3::D3DXVECTOR3
  00160	50		 push	 eax
  00161	8d 8d 68 ff ff
	ff		 lea	 ecx, DWORD PTR _vItemAbsPos$93884[ebp]
  00167	51		 push	 ecx
  00168	8b 55 10	 mov	 edx, DWORD PTR _pTerrain$[ebp]
  0016b	8b 45 ac	 mov	 eax, DWORD PTR _x$93869[ebp]
  0016e	0f af 42 08	 imul	 eax, DWORD PTR [edx+8]
  00172	03 45 a0	 add	 eax, DWORD PTR _y$93873[ebp]
  00175	8b 4d 10	 mov	 ecx, DWORD PTR _pTerrain$[ebp]
  00178	8b 91 fc 04 00
	00		 mov	 edx, DWORD PTR [ecx+1276]
  0017e	8b 04 82	 mov	 eax, DWORD PTR [edx+eax*4]
  00181	8b 4d 88	 mov	 ecx, DWORD PTR _i$93879[ebp]
  00184	6b c9 2c	 imul	 ecx, 44			; 0000002cH
  00187	8b 50 0c	 mov	 edx, DWORD PTR [eax+12]
  0018a	8d 4c 0a 04	 lea	 ecx, DWORD PTR [edx+ecx+4]
  0018e	e8 00 00 00 00	 call	 ??HD3DXVECTOR3@@QBE?AU0@ABU0@@Z ; D3DXVECTOR3::operator+

; 391  : 
; 392  : 						if( fDistance < fItemAbsRadius )

  00193	d9 45 b8	 fld	 DWORD PTR _fDistance$[ebp]
  00196	d8 9d 7c ff ff
	ff		 fcomp	 DWORD PTR _fItemAbsRadius$93883[ebp]
  0019c	df e0		 fnstsw	 ax
  0019e	f6 c4 05	 test	 ah, 5
  001a1	7a 60		 jp	 SHORT $L93887

; 393  : 						{
; 394  : 						// perform sphere-sphere intersection test; fast?
; 395  : 							float fMinD = fItemAbsRadius + m_pFRO->m_pRenderData->m_fBSphereRadius ;

  001a3	8b 45 f8	 mov	 eax, DWORD PTR _this$[ebp]
  001a6	8b 48 2c	 mov	 ecx, DWORD PTR [eax+44]
  001a9	8b 11		 mov	 edx, DWORD PTR [ecx]
  001ab	d9 85 7c ff ff
	ff		 fld	 DWORD PTR _fItemAbsRadius$93883[ebp]
  001b1	d8 82 38 01 00
	00		 fadd	 DWORD PTR [edx+312]
  001b7	d9 9d 5c ff ff
	ff		 fstp	 DWORD PTR _fMinD$93888[ebp]

; 396  : 							float fD = D3DXVec3Length( &(vItemAbsPos -  m_vPosition) );

  001bd	8b 45 f8	 mov	 eax, DWORD PTR _this$[ebp]
  001c0	05 fc 01 00 00	 add	 eax, 508		; 000001fcH
  001c5	50		 push	 eax
  001c6	8d 8d 68 fe ff
	ff		 lea	 ecx, DWORD PTR $T94364[ebp]
  001cc	51		 push	 ecx
  001cd	8d 8d 68 ff ff
	ff		 lea	 ecx, DWORD PTR _vItemAbsPos$93884[ebp]
  001d3	e8 00 00 00 00	 call	 ??GD3DXVECTOR3@@QBE?AU0@ABU0@@Z ; D3DXVECTOR3::operator-
  001d8	50		 push	 eax
  001d9	e8 00 00 00 00	 call	 ?D3DXVec3Length@@YAMPBUD3DXVECTOR3@@@Z ; D3DXVec3Length
  001de	83 c4 04	 add	 esp, 4
  001e1	d9 9d 50 ff ff
	ff		 fstp	 DWORD PTR _fD$93889[ebp]

; 397  : 							if( fD < fMinD )

  001e7	d9 85 50 ff ff
	ff		 fld	 DWORD PTR _fD$93889[ebp]
  001ed	d8 9d 5c ff ff
	ff		 fcomp	 DWORD PTR _fMinD$93888[ebp]
  001f3	df e0		 fnstsw	 ax
  001f5	f6 c4 05	 test	 ah, 5
  001f8	7a 07		 jp	 SHORT $L93891

; 398  : 								bCollision = TRUE ;

  001fa	c7 45 ec 01 00
	00 00		 mov	 DWORD PTR _bCollision$[ebp], 1
$L93891:

; 399  : 						}
; 400  : 						else

  00201	eb 27		 jmp	 SHORT $L93892
$L93887:

; 401  : 						{
; 402  : 						// perform sphere-ray intersection test; slower?
; 403  : 							bCollision = SphereLineTest( *pvCurPos, *pvTestPos, vItemAbsPos, fItemAbsRadius, NULL, NULL, NULL );

  00203	6a 00		 push	 0
  00205	6a 00		 push	 0
  00207	6a 00		 push	 0
  00209	8b 85 7c ff ff
	ff		 mov	 eax, DWORD PTR _fItemAbsRadius$93883[ebp]
  0020f	50		 push	 eax
  00210	8d 8d 68 ff ff
	ff		 lea	 ecx, DWORD PTR _vItemAbsPos$93884[ebp]
  00216	51		 push	 ecx
  00217	8b 55 0c	 mov	 edx, DWORD PTR _pvTestPos$[ebp]
  0021a	52		 push	 edx
  0021b	8b 45 08	 mov	 eax, DWORD PTR _pvCurPos$[ebp]
  0021e	50		 push	 eax
  0021f	e8 00 00 00 00	 call	 ?SphereLineTest@@YAHABUD3DXVECTOR3@@00MPAHPAU1@2@Z ; SphereLineTest
  00224	83 c4 1c	 add	 esp, 28			; 0000001cH
  00227	89 45 ec	 mov	 DWORD PTR _bCollision$[ebp], eax
$L93892:

; 404  : 							//ods(" INFO: CUserFighter::DetectAndHandleItemCollisions: Falling back on SphereLineTest\n" );
; 405  : 						}
; 406  : 
; 407  : 					// respond to collision
; 408  : 						if( bCollision )

  0022a	83 7d ec 00	 cmp	 DWORD PTR _bCollision$[ebp], 0
  0022e	0f 84 85 06 00
	00		 je	 $L93893

; 409  : 						{
; 410  : 							pRace->m_pX7->m_pSound->PlaySFX3D( SFX_MENU_SELECT, &m_vPosition, NULL, 1 );

  00234	68 00 00 80 3f	 push	 1065353216		; 3f800000H
  00239	6a 00		 push	 0
  0023b	8b 45 f8	 mov	 eax, DWORD PTR _this$[ebp]
  0023e	05 fc 01 00 00	 add	 eax, 508		; 000001fcH
  00243	50		 push	 eax
  00244	6a 01		 push	 1
  00246	8b 4d 14	 mov	 ecx, DWORD PTR _pRace$[ebp]
  00249	8b 51 38	 mov	 edx, DWORD PTR [ecx+56]
  0024c	8b 8a 00 a9 02
	00		 mov	 ecx, DWORD PTR [edx+174336]
  00252	e8 00 00 00 00	 call	 ?PlaySFX3D@CSoundManager@@QAEHHPAUD3DXVECTOR3@@0M@Z ; CSoundManager::PlaySFX3D

; 411  : 
; 412  : 							if( IT_CHERRY == pTerrain->m_pPatches[TER_RC2ABS(x,y)]->m_pItems[ i ].nType )

  00257	8b 45 10	 mov	 eax, DWORD PTR _pTerrain$[ebp]
  0025a	8b 4d ac	 mov	 ecx, DWORD PTR _x$93869[ebp]
  0025d	0f af 48 08	 imul	 ecx, DWORD PTR [eax+8]
  00261	03 4d a0	 add	 ecx, DWORD PTR _y$93873[ebp]
  00264	8b 55 10	 mov	 edx, DWORD PTR _pTerrain$[ebp]
  00267	8b 82 fc 04 00
	00		 mov	 eax, DWORD PTR [edx+1276]
  0026d	8b 0c 88	 mov	 ecx, DWORD PTR [eax+ecx*4]
  00270	8b 55 88	 mov	 edx, DWORD PTR _i$93879[ebp]
  00273	6b d2 2c	 imul	 edx, 44			; 0000002cH
  00276	8b 41 0c	 mov	 eax, DWORD PTR [ecx+12]
  00279	83 3c 02 00	 cmp	 DWORD PTR [edx+eax], 0
  0027d	0f 85 7b 01 00
	00		 jne	 $L93894

; 413  : 							{
; 414  : 								m_nCherries++ ;

  00283	8b 45 f8	 mov	 eax, DWORD PTR _this$[ebp]
  00286	8b 88 58 03 00
	00		 mov	 ecx, DWORD PTR [eax+856]
  0028c	83 c1 01	 add	 ecx, 1
  0028f	8b 55 f8	 mov	 edx, DWORD PTR _this$[ebp]
  00292	89 8a 58 03 00
	00		 mov	 DWORD PTR [edx+856], ecx

; 415  : 								sprintf( m_pHUDItems->m_szText, "%2d/%2d", m_nCherries, pTerrain->m_nCherries );

  00298	8b 45 10	 mov	 eax, DWORD PTR _pTerrain$[ebp]
  0029b	8b 48 70	 mov	 ecx, DWORD PTR [eax+112]
  0029e	51		 push	 ecx
  0029f	8b 55 f8	 mov	 edx, DWORD PTR _this$[ebp]
  002a2	8b 82 58 03 00
	00		 mov	 eax, DWORD PTR [edx+856]
  002a8	50		 push	 eax
  002a9	68 00 00 00 00	 push	 OFFSET FLAT:??_C@_07HFNBMNBH@?$CF2d?1?$CF2d?$AA@
  002ae	8b 4d f8	 mov	 ecx, DWORD PTR _this$[ebp]
  002b1	8b 91 80 03 00
	00		 mov	 edx, DWORD PTR [ecx+896]
  002b7	83 c2 1c	 add	 edx, 28			; 0000001cH
  002ba	52		 push	 edx
  002bb	e8 00 00 00 00	 call	 _sprintf
  002c0	83 c4 10	 add	 esp, 16			; 00000010H

; 416  : 								m_pHUDItems->SetFrameMoveRequired( TRUE );

  002c3	6a 01		 push	 1
  002c5	8b 45 f8	 mov	 eax, DWORD PTR _this$[ebp]
  002c8	8b 88 80 03 00
	00		 mov	 ecx, DWORD PTR [eax+896]
  002ce	e8 00 00 00 00	 call	 ?SetFrameMoveRequired@CHUDText@@QAEHH@Z ; CHUDText::SetFrameMoveRequired

; 417  : 								pTerrain->m_pPatches[TER_RC2ABS(x,y)]->m_nCherries-- ;

  002d3	8b 45 10	 mov	 eax, DWORD PTR _pTerrain$[ebp]
  002d6	8b 4d ac	 mov	 ecx, DWORD PTR _x$93869[ebp]
  002d9	0f af 48 08	 imul	 ecx, DWORD PTR [eax+8]
  002dd	03 4d a0	 add	 ecx, DWORD PTR _y$93873[ebp]
  002e0	8b 55 10	 mov	 edx, DWORD PTR _pTerrain$[ebp]
  002e3	8b 82 fc 04 00
	00		 mov	 eax, DWORD PTR [edx+1276]
  002e9	8b 0c 88	 mov	 ecx, DWORD PTR [eax+ecx*4]
  002ec	8b 51 1c	 mov	 edx, DWORD PTR [ecx+28]
  002ef	83 ea 01	 sub	 edx, 1
  002f2	8b 45 10	 mov	 eax, DWORD PTR _pTerrain$[ebp]
  002f5	8b 4d ac	 mov	 ecx, DWORD PTR _x$93869[ebp]
  002f8	0f af 48 08	 imul	 ecx, DWORD PTR [eax+8]
  002fc	03 4d a0	 add	 ecx, DWORD PTR _y$93873[ebp]
  002ff	8b 45 10	 mov	 eax, DWORD PTR _pTerrain$[ebp]
  00302	8b 80 fc 04 00
	00		 mov	 eax, DWORD PTR [eax+1276]
  00308	8b 0c 88	 mov	 ecx, DWORD PTR [eax+ecx*4]
  0030b	89 51 1c	 mov	 DWORD PTR [ecx+28], edx

; 418  : 								
; 419  : 								m_bShowingHUDText = true ;

  0030e	8b 45 f8	 mov	 eax, DWORD PTR _this$[ebp]
  00311	c6 80 08 04 00
	00 01		 mov	 BYTE PTR [eax+1032], 1

; 420  : 								if( pRace->m_pTerrain->m_nCherries < 10 )

  00318	8b 45 14	 mov	 eax, DWORD PTR _pRace$[ebp]
  0031b	8b 48 24	 mov	 ecx, DWORD PTR [eax+36]
  0031e	83 79 70 0a	 cmp	 DWORD PTR [ecx+112], 10	; 0000000aH
  00322	7d 2d		 jge	 SHORT $L93895

; 421  : 									sprintf( m_szHUDText, " %2d/%d",
; 422  : 										m_nCherries, pRace->m_pTerrain->m_nCherries );

  00324	8b 45 14	 mov	 eax, DWORD PTR _pRace$[ebp]
  00327	8b 48 24	 mov	 ecx, DWORD PTR [eax+36]
  0032a	8b 51 70	 mov	 edx, DWORD PTR [ecx+112]
  0032d	52		 push	 edx
  0032e	8b 45 f8	 mov	 eax, DWORD PTR _this$[ebp]
  00331	8b 88 58 03 00
	00		 mov	 ecx, DWORD PTR [eax+856]
  00337	51		 push	 ecx
  00338	68 00 00 00 00	 push	 OFFSET FLAT:??_C@_07BMGILGBA@?5?$CF2d?1?$CFd?$AA@
  0033d	8b 55 f8	 mov	 edx, DWORD PTR _this$[ebp]
  00340	81 c2 b8 03 00
	00		 add	 edx, 952		; 000003b8H
  00346	52		 push	 edx
  00347	e8 00 00 00 00	 call	 _sprintf
  0034c	83 c4 10	 add	 esp, 16			; 00000010H

; 423  : 								else

  0034f	eb 2b		 jmp	 SHORT $L93897
$L93895:

; 424  : 									sprintf( m_szHUDText, "%2d/%d",
; 425  : 										m_nCherries, pRace->m_pTerrain->m_nCherries );

  00351	8b 45 14	 mov	 eax, DWORD PTR _pRace$[ebp]
  00354	8b 48 24	 mov	 ecx, DWORD PTR [eax+36]
  00357	8b 51 70	 mov	 edx, DWORD PTR [ecx+112]
  0035a	52		 push	 edx
  0035b	8b 45 f8	 mov	 eax, DWORD PTR _this$[ebp]
  0035e	8b 88 58 03 00
	00		 mov	 ecx, DWORD PTR [eax+856]
  00364	51		 push	 ecx
  00365	68 00 00 00 00	 push	 OFFSET FLAT:??_C@_06BNFANEFB@?$CF2d?1?$CFd?$AA@
  0036a	8b 55 f8	 mov	 edx, DWORD PTR _this$[ebp]
  0036d	81 c2 b8 03 00
	00		 add	 edx, 952		; 000003b8H
  00373	52		 push	 edx
  00374	e8 00 00 00 00	 call	 _sprintf
  00379	83 c4 10	 add	 esp, 16			; 00000010H
$L93897:

; 426  : 
; 427  : 								m_fHUDTextAge = 0 ;	m_fHUDTextLifespan = 2 ;

  0037c	8b 45 f8	 mov	 eax, DWORD PTR _this$[ebp]
  0037f	c7 80 10 04 00
	00 00 00 00 00	 mov	 DWORD PTR [eax+1040], 0
  00389	8b 45 f8	 mov	 eax, DWORD PTR _this$[ebp]
  0038c	c7 80 0c 04 00
	00 00 00 00 40	 mov	 DWORD PTR [eax+1036], 1073741824 ; 40000000H

; 428  : 								m_fHUDTextX = -1 ; m_fHUDTextY = -0.7f ;

  00396	8b 45 f8	 mov	 eax, DWORD PTR _this$[ebp]
  00399	c7 80 24 04 00
	00 00 00 80 bf	 mov	 DWORD PTR [eax+1060], -1082130432 ; bf800000H
  003a3	8b 45 f8	 mov	 eax, DWORD PTR _this$[ebp]
  003a6	c7 80 28 04 00
	00 33 33 33 bf	 mov	 DWORD PTR [eax+1064], -1087163597 ; bf333333H

; 429  : 								m_fHUDTextXScale = 0.5f ; m_fHUDTextYScale = 0.6f ;

  003b0	8b 45 f8	 mov	 eax, DWORD PTR _this$[ebp]
  003b3	c7 80 2c 04 00
	00 00 00 00 3f	 mov	 DWORD PTR [eax+1068], 1056964608 ; 3f000000H
  003bd	8b 45 f8	 mov	 eax, DWORD PTR _this$[ebp]
  003c0	c7 80 30 04 00
	00 9a 99 19 3f	 mov	 DWORD PTR [eax+1072], 1058642330 ; 3f19999aH

; 430  : 								m_fHUDTextRed = 1 ; m_fHUDTextGreen = 1 ; m_fHUDTextBlue = 1 ; m_fHUDTextAlpha = 0.1f ;

  003ca	8b 45 f8	 mov	 eax, DWORD PTR _this$[ebp]
  003cd	c7 80 14 04 00
	00 00 00 80 3f	 mov	 DWORD PTR [eax+1044], 1065353216 ; 3f800000H
  003d7	8b 45 f8	 mov	 eax, DWORD PTR _this$[ebp]
  003da	c7 80 18 04 00
	00 00 00 80 3f	 mov	 DWORD PTR [eax+1048], 1065353216 ; 3f800000H
  003e4	8b 45 f8	 mov	 eax, DWORD PTR _this$[ebp]
  003e7	c7 80 1c 04 00
	00 00 00 80 3f	 mov	 DWORD PTR [eax+1052], 1065353216 ; 3f800000H
  003f1	8b 45 f8	 mov	 eax, DWORD PTR _this$[ebp]
  003f4	c7 80 20 04 00
	00 cd cc cc 3d	 mov	 DWORD PTR [eax+1056], 1036831949 ; 3dcccccdH
$L93894:

; 431  : 							}
; 432  : 							if( IT_HEALTH == pTerrain->m_pPatches[TER_RC2ABS(x,y)]->m_pItems[ i ].nType )

  003fe	8b 45 10	 mov	 eax, DWORD PTR _pTerrain$[ebp]
  00401	8b 4d ac	 mov	 ecx, DWORD PTR _x$93869[ebp]
  00404	0f af 48 08	 imul	 ecx, DWORD PTR [eax+8]
  00408	03 4d a0	 add	 ecx, DWORD PTR _y$93873[ebp]
  0040b	8b 55 10	 mov	 edx, DWORD PTR _pTerrain$[ebp]
  0040e	8b 82 fc 04 00
	00		 mov	 eax, DWORD PTR [edx+1276]
  00414	8b 0c 88	 mov	 ecx, DWORD PTR [eax+ecx*4]
  00417	8b 55 88	 mov	 edx, DWORD PTR _i$93879[ebp]
  0041a	6b d2 2c	 imul	 edx, 44			; 0000002cH
  0041d	8b 41 0c	 mov	 eax, DWORD PTR [ecx+12]
  00420	83 3c 02 04	 cmp	 DWORD PTR [edx+eax], 4
  00424	0f 85 2f 01 00
	00		 jne	 $L93899

; 433  : 							{
; 434  : 								pRace->m_pX7->m_nLives++ ;

  0042a	8b 45 14	 mov	 eax, DWORD PTR _pRace$[ebp]
  0042d	8b 48 38	 mov	 ecx, DWORD PTR [eax+56]
  00430	8b 91 0c a9 02
	00		 mov	 edx, DWORD PTR [ecx+174348]
  00436	83 c2 01	 add	 edx, 1
  00439	8b 45 14	 mov	 eax, DWORD PTR _pRace$[ebp]
  0043c	8b 48 38	 mov	 ecx, DWORD PTR [eax+56]
  0043f	89 91 0c a9 02
	00		 mov	 DWORD PTR [ecx+174348], edx

; 435  : 								sprintf( m_pHUDLives->m_szText, "LIVES %d", pRace->m_pX7->m_nLives );

  00445	8b 45 14	 mov	 eax, DWORD PTR _pRace$[ebp]
  00448	8b 48 38	 mov	 ecx, DWORD PTR [eax+56]
  0044b	8b 91 0c a9 02
	00		 mov	 edx, DWORD PTR [ecx+174348]
  00451	52		 push	 edx
  00452	68 00 00 00 00	 push	 OFFSET FLAT:??_C@_08OIIELFFL@LIVES?5?$CFd?$AA@
  00457	8b 45 f8	 mov	 eax, DWORD PTR _this$[ebp]
  0045a	8b 88 84 03 00
	00		 mov	 ecx, DWORD PTR [eax+900]
  00460	83 c1 1c	 add	 ecx, 28			; 0000001cH
  00463	51		 push	 ecx
  00464	e8 00 00 00 00	 call	 _sprintf
  00469	83 c4 0c	 add	 esp, 12			; 0000000cH

; 436  : 								m_pHUDLives->SetFrameMoveRequired( TRUE );

  0046c	6a 01		 push	 1
  0046e	8b 45 f8	 mov	 eax, DWORD PTR _this$[ebp]
  00471	8b 88 84 03 00
	00		 mov	 ecx, DWORD PTR [eax+900]
  00477	e8 00 00 00 00	 call	 ?SetFrameMoveRequired@CHUDText@@QAEHH@Z ; CHUDText::SetFrameMoveRequired

; 437  : 								pTerrain->m_pPatches[TER_RC2ABS(x,y)]->m_nHealthPwrUps-- ;

  0047c	8b 45 10	 mov	 eax, DWORD PTR _pTerrain$[ebp]
  0047f	8b 4d ac	 mov	 ecx, DWORD PTR _x$93869[ebp]
  00482	0f af 48 08	 imul	 ecx, DWORD PTR [eax+8]
  00486	03 4d a0	 add	 ecx, DWORD PTR _y$93873[ebp]
  00489	8b 55 10	 mov	 edx, DWORD PTR _pTerrain$[ebp]
  0048c	8b 82 fc 04 00
	00		 mov	 eax, DWORD PTR [edx+1276]
  00492	8b 0c 88	 mov	 ecx, DWORD PTR [eax+ecx*4]
  00495	8b 51 4c	 mov	 edx, DWORD PTR [ecx+76]
  00498	83 ea 01	 sub	 edx, 1
  0049b	8b 45 10	 mov	 eax, DWORD PTR _pTerrain$[ebp]
  0049e	8b 4d ac	 mov	 ecx, DWORD PTR _x$93869[ebp]
  004a1	0f af 48 08	 imul	 ecx, DWORD PTR [eax+8]
  004a5	03 4d a0	 add	 ecx, DWORD PTR _y$93873[ebp]
  004a8	8b 45 10	 mov	 eax, DWORD PTR _pTerrain$[ebp]
  004ab	8b 80 fc 04 00
	00		 mov	 eax, DWORD PTR [eax+1276]
  004b1	8b 0c 88	 mov	 ecx, DWORD PTR [eax+ecx*4]
  004b4	89 51 4c	 mov	 DWORD PTR [ecx+76], edx

; 438  : 								
; 439  : 								m_bShowingHUDText = true ;

  004b7	8b 45 f8	 mov	 eax, DWORD PTR _this$[ebp]
  004ba	c6 80 08 04 00
	00 01		 mov	 BYTE PTR [eax+1032], 1

; 440  : 								strcpy( m_szHUDText, "LIFE" );

  004c1	68 00 00 00 00	 push	 OFFSET FLAT:??_C@_04LLNLOACP@LIFE?$AA@
  004c6	8b 45 f8	 mov	 eax, DWORD PTR _this$[ebp]
  004c9	05 b8 03 00 00	 add	 eax, 952		; 000003b8H
  004ce	50		 push	 eax
  004cf	e8 00 00 00 00	 call	 _strcpy
  004d4	83 c4 08	 add	 esp, 8

; 441  : 								m_fHUDTextAge = 0 ;	m_fHUDTextLifespan = 2 ;

  004d7	8b 45 f8	 mov	 eax, DWORD PTR _this$[ebp]
  004da	c7 80 10 04 00
	00 00 00 00 00	 mov	 DWORD PTR [eax+1040], 0
  004e4	8b 45 f8	 mov	 eax, DWORD PTR _this$[ebp]
  004e7	c7 80 0c 04 00
	00 00 00 00 40	 mov	 DWORD PTR [eax+1036], 1073741824 ; 40000000H

; 442  : 								m_fHUDTextX = -1 ; m_fHUDTextY = -1 ;

  004f1	8b 45 f8	 mov	 eax, DWORD PTR _this$[ebp]
  004f4	c7 80 24 04 00
	00 00 00 80 bf	 mov	 DWORD PTR [eax+1060], -1082130432 ; bf800000H
  004fe	8b 45 f8	 mov	 eax, DWORD PTR _this$[ebp]
  00501	c7 80 28 04 00
	00 00 00 80 bf	 mov	 DWORD PTR [eax+1064], -1082130432 ; bf800000H

; 443  : 								m_fHUDTextXScale = 0.65f ; m_fHUDTextYScale = 0.65f ;

  0050b	8b 45 f8	 mov	 eax, DWORD PTR _this$[ebp]
  0050e	c7 80 2c 04 00
	00 66 66 26 3f	 mov	 DWORD PTR [eax+1068], 1059481190 ; 3f266666H
  00518	8b 45 f8	 mov	 eax, DWORD PTR _this$[ebp]
  0051b	c7 80 30 04 00
	00 66 66 26 3f	 mov	 DWORD PTR [eax+1072], 1059481190 ; 3f266666H

; 444  : 								m_fHUDTextRed = 1 ; m_fHUDTextGreen = 0 ; m_fHUDTextBlue = 0 ; m_fHUDTextAlpha = 0.2f ;

  00525	8b 45 f8	 mov	 eax, DWORD PTR _this$[ebp]
  00528	c7 80 14 04 00
	00 00 00 80 3f	 mov	 DWORD PTR [eax+1044], 1065353216 ; 3f800000H
  00532	8b 45 f8	 mov	 eax, DWORD PTR _this$[ebp]
  00535	c7 80 18 04 00
	00 00 00 00 00	 mov	 DWORD PTR [eax+1048], 0
  0053f	8b 45 f8	 mov	 eax, DWORD PTR _this$[ebp]
  00542	c7 80 1c 04 00
	00 00 00 00 00	 mov	 DWORD PTR [eax+1052], 0
  0054c	8b 45 f8	 mov	 eax, DWORD PTR _this$[ebp]
  0054f	c7 80 20 04 00
	00 cd cc 4c 3e	 mov	 DWORD PTR [eax+1056], 1045220557 ; 3e4ccccdH
$L93899:

; 445  : 							}
; 446  : 							if( IT_ENGINE == pTerrain->m_pPatches[TER_RC2ABS(x,y)]->m_pItems[ i ].nType )

  00559	8b 45 10	 mov	 eax, DWORD PTR _pTerrain$[ebp]
  0055c	8b 4d ac	 mov	 ecx, DWORD PTR _x$93869[ebp]
  0055f	0f af 48 08	 imul	 ecx, DWORD PTR [eax+8]
  00563	03 4d a0	 add	 ecx, DWORD PTR _y$93873[ebp]
  00566	8b 55 10	 mov	 edx, DWORD PTR _pTerrain$[ebp]
  00569	8b 82 fc 04 00
	00		 mov	 eax, DWORD PTR [edx+1276]
  0056f	8b 0c 88	 mov	 ecx, DWORD PTR [eax+ecx*4]
  00572	8b 55 88	 mov	 edx, DWORD PTR _i$93879[ebp]
  00575	6b d2 2c	 imul	 edx, 44			; 0000002cH
  00578	8b 41 0c	 mov	 eax, DWORD PTR [ecx+12]
  0057b	83 3c 02 02	 cmp	 DWORD PTR [edx+eax], 2
  0057f	0f 85 e5 00 00
	00		 jne	 $L93901

; 447  : 							{
; 448  : 								m_fEngineLevel += 0.55f ;

  00585	8b 45 f8	 mov	 eax, DWORD PTR _this$[ebp]
  00588	d9 80 10 03 00
	00		 fld	 DWORD PTR [eax+784]
  0058e	d8 05 00 00 00
	00		 fadd	 DWORD PTR __real@3f0ccccd
  00594	8b 4d f8	 mov	 ecx, DWORD PTR _this$[ebp]
  00597	d9 99 10 03 00
	00		 fstp	 DWORD PTR [ecx+784]

; 449  : 								//if( m_fEngineLevel > 1 ) m_fEngineLevel = 1 ;
; 450  : 								m_pHUDEngineLevel->m_fLevel = m_fEngineLevel ;

  0059d	8b 45 f8	 mov	 eax, DWORD PTR _this$[ebp]
  005a0	8b 88 70 03 00
	00		 mov	 ecx, DWORD PTR [eax+880]
  005a6	8b 55 f8	 mov	 edx, DWORD PTR _this$[ebp]
  005a9	8b 82 10 03 00
	00		 mov	 eax, DWORD PTR [edx+784]
  005af	89 81 e8 00 00
	00		 mov	 DWORD PTR [ecx+232], eax

; 451  : 								m_pHUDEngineLevel->m_bFrameMoveRequired  = TRUE ;

  005b5	8b 45 f8	 mov	 eax, DWORD PTR _this$[ebp]
  005b8	8b 88 70 03 00
	00		 mov	 ecx, DWORD PTR [eax+880]
  005be	c7 81 d0 00 00
	00 01 00 00 00	 mov	 DWORD PTR [ecx+208], 1

; 452  : 
; 453  : 								m_bShowingHUDText = true ;

  005c8	8b 45 f8	 mov	 eax, DWORD PTR _this$[ebp]
  005cb	c6 80 08 04 00
	00 01		 mov	 BYTE PTR [eax+1032], 1

; 454  : 								strcpy( m_szHUDText, "ENGINE BOOST" );

  005d2	68 00 00 00 00	 push	 OFFSET FLAT:??_C@_0N@EHFONGIA@ENGINE?5BOOST?$AA@
  005d7	8b 45 f8	 mov	 eax, DWORD PTR _this$[ebp]
  005da	05 b8 03 00 00	 add	 eax, 952		; 000003b8H
  005df	50		 push	 eax
  005e0	e8 00 00 00 00	 call	 _strcpy
  005e5	83 c4 08	 add	 esp, 8

; 455  : 								m_fHUDTextAge = 0 ;	m_fHUDTextLifespan = 2 ;

  005e8	8b 45 f8	 mov	 eax, DWORD PTR _this$[ebp]
  005eb	c7 80 10 04 00
	00 00 00 00 00	 mov	 DWORD PTR [eax+1040], 0
  005f5	8b 45 f8	 mov	 eax, DWORD PTR _this$[ebp]
  005f8	c7 80 0c 04 00
	00 00 00 00 40	 mov	 DWORD PTR [eax+1036], 1073741824 ; 40000000H

; 456  : 								m_fHUDTextX = -1 ; m_fHUDTextY = -0.25f ;

  00602	8b 45 f8	 mov	 eax, DWORD PTR _this$[ebp]
  00605	c7 80 24 04 00
	00 00 00 80 bf	 mov	 DWORD PTR [eax+1060], -1082130432 ; bf800000H
  0060f	8b 45 f8	 mov	 eax, DWORD PTR _this$[ebp]
  00612	c7 80 28 04 00
	00 00 00 80 be	 mov	 DWORD PTR [eax+1064], -1098907648 ; be800000H

; 457  : 								m_fHUDTextXScale = 0.16f ; m_fHUDTextYScale = 0.25f ;

  0061c	8b 45 f8	 mov	 eax, DWORD PTR _this$[ebp]
  0061f	c7 80 2c 04 00
	00 0a d7 23 3e	 mov	 DWORD PTR [eax+1068], 1042536202 ; 3e23d70aH
  00629	8b 45 f8	 mov	 eax, DWORD PTR _this$[ebp]
  0062c	c7 80 30 04 00
	00 00 00 80 3e	 mov	 DWORD PTR [eax+1072], 1048576000 ; 3e800000H

; 458  : 								m_fHUDTextRed = 0 ; m_fHUDTextGreen = 1 ; m_fHUDTextBlue = 0 ; m_fHUDTextAlpha = 0.15f ;

  00636	8b 45 f8	 mov	 eax, DWORD PTR _this$[ebp]
  00639	c7 80 14 04 00
	00 00 00 00 00	 mov	 DWORD PTR [eax+1044], 0
  00643	8b 45 f8	 mov	 eax, DWORD PTR _this$[ebp]
  00646	c7 80 18 04 00
	00 00 00 80 3f	 mov	 DWORD PTR [eax+1048], 1065353216 ; 3f800000H
  00650	8b 45 f8	 mov	 eax, DWORD PTR _this$[ebp]
  00653	c7 80 1c 04 00
	00 00 00 00 00	 mov	 DWORD PTR [eax+1052], 0
  0065d	8b 45 f8	 mov	 eax, DWORD PTR _this$[ebp]
  00660	c7 80 20 04 00
	00 9a 99 19 3e	 mov	 DWORD PTR [eax+1056], 1041865114 ; 3e19999aH
$L93901:

; 459  : 							}
; 460  : 							if( IT_WEAPON == pTerrain->m_pPatches[TER_RC2ABS(x,y)]->m_pItems[ i ].nType )

  0066a	8b 45 10	 mov	 eax, DWORD PTR _pTerrain$[ebp]
  0066d	8b 4d ac	 mov	 ecx, DWORD PTR _x$93869[ebp]
  00670	0f af 48 08	 imul	 ecx, DWORD PTR [eax+8]
  00674	03 4d a0	 add	 ecx, DWORD PTR _y$93873[ebp]
  00677	8b 55 10	 mov	 edx, DWORD PTR _pTerrain$[ebp]
  0067a	8b 82 fc 04 00
	00		 mov	 eax, DWORD PTR [edx+1276]
  00680	8b 0c 88	 mov	 ecx, DWORD PTR [eax+ecx*4]
  00683	8b 55 88	 mov	 edx, DWORD PTR _i$93879[ebp]
  00686	6b d2 2c	 imul	 edx, 44			; 0000002cH
  00689	8b 41 0c	 mov	 eax, DWORD PTR [ecx+12]
  0068c	83 3c 02 03	 cmp	 DWORD PTR [edx+eax], 3
  00690	0f 85 08 01 00
	00		 jne	 $L93903

; 461  : 							{
; 462  : 								m_fWeaponsLevel += 0.5f ;

  00696	8b 45 f8	 mov	 eax, DWORD PTR _this$[ebp]
  00699	d9 80 0c 03 00
	00		 fld	 DWORD PTR [eax+780]
  0069f	d8 05 00 00 00
	00		 fadd	 DWORD PTR __real@3f000000
  006a5	8b 4d f8	 mov	 ecx, DWORD PTR _this$[ebp]
  006a8	d9 99 0c 03 00
	00		 fstp	 DWORD PTR [ecx+780]

; 463  : 								if( m_fWeaponsLevel > 1 ) m_fWeaponsLevel = 1 ;

  006ae	8b 45 f8	 mov	 eax, DWORD PTR _this$[ebp]
  006b1	d9 80 0c 03 00
	00		 fld	 DWORD PTR [eax+780]
  006b7	d8 1d 00 00 00
	00		 fcomp	 DWORD PTR __real@3f800000
  006bd	df e0		 fnstsw	 ax
  006bf	f6 c4 41	 test	 ah, 65			; 00000041H
  006c2	75 0d		 jne	 SHORT $L93904
  006c4	8b 45 f8	 mov	 eax, DWORD PTR _this$[ebp]
  006c7	c7 80 0c 03 00
	00 00 00 80 3f	 mov	 DWORD PTR [eax+780], 1065353216 ; 3f800000H
$L93904:

; 464  : 								m_pHUDWeaponsLevel->m_fLevel = m_fWeaponsLevel ;

  006d1	8b 45 f8	 mov	 eax, DWORD PTR _this$[ebp]
  006d4	8b 88 68 03 00
	00		 mov	 ecx, DWORD PTR [eax+872]
  006da	8b 55 f8	 mov	 edx, DWORD PTR _this$[ebp]
  006dd	8b 82 0c 03 00
	00		 mov	 eax, DWORD PTR [edx+780]
  006e3	89 81 e8 00 00
	00		 mov	 DWORD PTR [ecx+232], eax

; 465  : 								m_pHUDWeaponsLevel->m_bFrameMoveRequired  = TRUE ;

  006e9	8b 45 f8	 mov	 eax, DWORD PTR _this$[ebp]
  006ec	8b 88 68 03 00
	00		 mov	 ecx, DWORD PTR [eax+872]
  006f2	c7 81 d0 00 00
	00 01 00 00 00	 mov	 DWORD PTR [ecx+208], 1

; 466  : 
; 467  : 								m_bShowingHUDText = true ;

  006fc	8b 45 f8	 mov	 eax, DWORD PTR _this$[ebp]
  006ff	c6 80 08 04 00
	00 01		 mov	 BYTE PTR [eax+1032], 1

; 468  : 								strcpy( m_szHUDText, "WEAPON BOOST" );

  00706	68 00 00 00 00	 push	 OFFSET FLAT:??_C@_0N@JLIIAJGL@WEAPON?5BOOST?$AA@
  0070b	8b 45 f8	 mov	 eax, DWORD PTR _this$[ebp]
  0070e	05 b8 03 00 00	 add	 eax, 952		; 000003b8H
  00713	50		 push	 eax
  00714	e8 00 00 00 00	 call	 _strcpy
  00719	83 c4 08	 add	 esp, 8

; 469  : 								m_fHUDTextAge = 0 ;	m_fHUDTextLifespan = 2 ;

  0071c	8b 45 f8	 mov	 eax, DWORD PTR _this$[ebp]
  0071f	c7 80 10 04 00
	00 00 00 00 00	 mov	 DWORD PTR [eax+1040], 0
  00729	8b 45 f8	 mov	 eax, DWORD PTR _this$[ebp]
  0072c	c7 80 0c 04 00
	00 00 00 00 40	 mov	 DWORD PTR [eax+1036], 1073741824 ; 40000000H

; 470  : 								m_fHUDTextX = -1 ; m_fHUDTextY = -0.25f ;

  00736	8b 45 f8	 mov	 eax, DWORD PTR _this$[ebp]
  00739	c7 80 24 04 00
	00 00 00 80 bf	 mov	 DWORD PTR [eax+1060], -1082130432 ; bf800000H
  00743	8b 45 f8	 mov	 eax, DWORD PTR _this$[ebp]
  00746	c7 80 28 04 00
	00 00 00 80 be	 mov	 DWORD PTR [eax+1064], -1098907648 ; be800000H

; 471  : 								m_fHUDTextXScale = 0.16f ; m_fHUDTextYScale = 0.25f ;

  00750	8b 45 f8	 mov	 eax, DWORD PTR _this$[ebp]
  00753	c7 80 2c 04 00
	00 0a d7 23 3e	 mov	 DWORD PTR [eax+1068], 1042536202 ; 3e23d70aH
  0075d	8b 45 f8	 mov	 eax, DWORD PTR _this$[ebp]
  00760	c7 80 30 04 00
	00 00 00 80 3e	 mov	 DWORD PTR [eax+1072], 1048576000 ; 3e800000H

; 472  : 								m_fHUDTextRed = 1 ; m_fHUDTextGreen = 0 ; m_fHUDTextBlue = 0 ; m_fHUDTextAlpha = 0.15f ;

  0076a	8b 45 f8	 mov	 eax, DWORD PTR _this$[ebp]
  0076d	c7 80 14 04 00
	00 00 00 80 3f	 mov	 DWORD PTR [eax+1044], 1065353216 ; 3f800000H
  00777	8b 45 f8	 mov	 eax, DWORD PTR _this$[ebp]
  0077a	c7 80 18 04 00
	00 00 00 00 00	 mov	 DWORD PTR [eax+1048], 0
  00784	8b 45 f8	 mov	 eax, DWORD PTR _this$[ebp]
  00787	c7 80 1c 04 00
	00 00 00 00 00	 mov	 DWORD PTR [eax+1052], 0
  00791	8b 45 f8	 mov	 eax, DWORD PTR _this$[ebp]
  00794	c7 80 20 04 00
	00 9a 99 19 3e	 mov	 DWORD PTR [eax+1056], 1041865114 ; 3e19999aH
$L93903:

; 473  : 							}
; 474  : 
; 475  : 							// DBG:
; 476  : 								/*m_bShowingHUDText = true ;
; 477  : 								strcpy( m_szHUDText, "LIFE" );
; 478  : 								m_fHUDTextAge = 0 ;	m_fHUDTextLifespan = 2 ;
; 479  : 								m_fHUDTextX = -1 ; m_fHUDTextY = -1 ;
; 480  : 								m_fHUDTextXScale = 0.65f ; m_fHUDTextYScale = 0.65f ;
; 481  : 								m_fHUDTextRed = 1 ; m_fHUDTextGreen = 0 ; m_fHUDTextBlue = 0 ; m_fHUDTextAlpha = 0.1f ;*/
; 482  : 							
; 483  : 						// remove the item from the terrain patch's list of items;
; 484  : 							if( i != nItemsOnThisPatch-1 && nItemsOnThisPatch != 1 )

  0079e	8b 45 94	 mov	 eax, DWORD PTR _nItemsOnThisPatch$93878[ebp]
  007a1	83 e8 01	 sub	 eax, 1
  007a4	39 45 88	 cmp	 DWORD PTR _i$93879[ebp], eax
  007a7	74 64		 je	 SHORT $L93906
  007a9	83 7d 94 01	 cmp	 DWORD PTR _nItemsOnThisPatch$93878[ebp], 1
  007ad	74 5e		 je	 SHORT $L93906

; 485  : 								memcpy( &pTerrain->m_pPatches[TER_RC2ABS(x,y)]->m_pItems[ i ],
; 486  : 										&pTerrain->m_pPatches[TER_RC2ABS(x,y)]->m_pItems[ i+1 ],
; 487  : 										(nItemsOnThisPatch - i - 1) * sizeof(GAMEITEM) );

  007af	8b 45 94	 mov	 eax, DWORD PTR _nItemsOnThisPatch$93878[ebp]
  007b2	2b 45 88	 sub	 eax, DWORD PTR _i$93879[ebp]
  007b5	83 e8 01	 sub	 eax, 1
  007b8	6b c0 2c	 imul	 eax, 44			; 0000002cH
  007bb	50		 push	 eax
  007bc	8b 4d 10	 mov	 ecx, DWORD PTR _pTerrain$[ebp]
  007bf	8b 55 ac	 mov	 edx, DWORD PTR _x$93869[ebp]
  007c2	0f af 51 08	 imul	 edx, DWORD PTR [ecx+8]
  007c6	03 55 a0	 add	 edx, DWORD PTR _y$93873[ebp]
  007c9	8b 45 10	 mov	 eax, DWORD PTR _pTerrain$[ebp]
  007cc	8b 88 fc 04 00
	00		 mov	 ecx, DWORD PTR [eax+1276]
  007d2	8b 14 91	 mov	 edx, DWORD PTR [ecx+edx*4]
  007d5	8b 45 88	 mov	 eax, DWORD PTR _i$93879[ebp]
  007d8	83 c0 01	 add	 eax, 1
  007db	6b c0 2c	 imul	 eax, 44			; 0000002cH
  007de	03 42 0c	 add	 eax, DWORD PTR [edx+12]
  007e1	50		 push	 eax
  007e2	8b 4d 10	 mov	 ecx, DWORD PTR _pTerrain$[ebp]
  007e5	8b 55 ac	 mov	 edx, DWORD PTR _x$93869[ebp]
  007e8	0f af 51 08	 imul	 edx, DWORD PTR [ecx+8]
  007ec	03 55 a0	 add	 edx, DWORD PTR _y$93873[ebp]
  007ef	8b 45 10	 mov	 eax, DWORD PTR _pTerrain$[ebp]
  007f2	8b 88 fc 04 00
	00		 mov	 ecx, DWORD PTR [eax+1276]
  007f8	8b 14 91	 mov	 edx, DWORD PTR [ecx+edx*4]
  007fb	8b 45 88	 mov	 eax, DWORD PTR _i$93879[ebp]
  007fe	6b c0 2c	 imul	 eax, 44			; 0000002cH
  00801	03 42 0c	 add	 eax, DWORD PTR [edx+12]
  00804	50		 push	 eax
  00805	e8 00 00 00 00	 call	 _memcpy
  0080a	83 c4 0c	 add	 esp, 12			; 0000000cH
$L93906:

; 488  : 							
; 489  : 							pTerrain->m_pPatches[TER_RC2ABS(x,y)]->m_nItems-- ;

  0080d	8b 45 10	 mov	 eax, DWORD PTR _pTerrain$[ebp]
  00810	8b 4d ac	 mov	 ecx, DWORD PTR _x$93869[ebp]
  00813	0f af 48 08	 imul	 ecx, DWORD PTR [eax+8]
  00817	03 4d a0	 add	 ecx, DWORD PTR _y$93873[ebp]
  0081a	8b 55 10	 mov	 edx, DWORD PTR _pTerrain$[ebp]
  0081d	8b 82 fc 04 00
	00		 mov	 eax, DWORD PTR [edx+1276]
  00823	8b 0c 88	 mov	 ecx, DWORD PTR [eax+ecx*4]
  00826	8b 51 10	 mov	 edx, DWORD PTR [ecx+16]
  00829	83 ea 01	 sub	 edx, 1
  0082c	8b 45 10	 mov	 eax, DWORD PTR _pTerrain$[ebp]
  0082f	8b 4d ac	 mov	 ecx, DWORD PTR _x$93869[ebp]
  00832	0f af 48 08	 imul	 ecx, DWORD PTR [eax+8]
  00836	03 4d a0	 add	 ecx, DWORD PTR _y$93873[ebp]
  00839	8b 45 10	 mov	 eax, DWORD PTR _pTerrain$[ebp]
  0083c	8b 80 fc 04 00
	00		 mov	 eax, DWORD PTR [eax+1276]
  00842	8b 0c 88	 mov	 ecx, DWORD PTR [eax+ecx*4]
  00845	89 51 10	 mov	 DWORD PTR [ecx+16], edx

; 490  : 							nItemsOnThisPatch-- ;

  00848	8b 45 94	 mov	 eax, DWORD PTR _nItemsOnThisPatch$93878[ebp]
  0084b	83 e8 01	 sub	 eax, 1
  0084e	89 45 94	 mov	 DWORD PTR _nItemsOnThisPatch$93878[ebp], eax

; 491  : 							i-- ;

  00851	8b 45 88	 mov	 eax, DWORD PTR _i$93879[ebp]
  00854	83 e8 01	 sub	 eax, 1
  00857	89 45 88	 mov	 DWORD PTR _i$93879[ebp], eax

; 492  : 
; 493  : 							ods("got an item, i was==%d, @(%0.1f, %0.1f, %0.1f), %d left on this patch, I've got %d cherries\n", i+1, vItemAbsPos.x, vItemAbsPos.y, vItemAbsPos.z, pTerrain->m_pPatches[TER_RC2ABS(x,y)]->m_nItems, m_nCherries );

  0085a	8b 45 f8	 mov	 eax, DWORD PTR _this$[ebp]
  0085d	8b 88 58 03 00
	00		 mov	 ecx, DWORD PTR [eax+856]
  00863	51		 push	 ecx
  00864	8b 55 10	 mov	 edx, DWORD PTR _pTerrain$[ebp]
  00867	8b 45 ac	 mov	 eax, DWORD PTR _x$93869[ebp]
  0086a	0f af 42 08	 imul	 eax, DWORD PTR [edx+8]
  0086e	03 45 a0	 add	 eax, DWORD PTR _y$93873[ebp]
  00871	8b 4d 10	 mov	 ecx, DWORD PTR _pTerrain$[ebp]
  00874	8b 91 fc 04 00
	00		 mov	 edx, DWORD PTR [ecx+1276]
  0087a	8b 04 82	 mov	 eax, DWORD PTR [edx+eax*4]
  0087d	8b 48 10	 mov	 ecx, DWORD PTR [eax+16]
  00880	51		 push	 ecx
  00881	d9 85 70 ff ff
	ff		 fld	 DWORD PTR _vItemAbsPos$93884[ebp+8]
  00887	83 ec 08	 sub	 esp, 8
  0088a	dd 1c 24	 fstp	 QWORD PTR [esp]
  0088d	d9 85 6c ff ff
	ff		 fld	 DWORD PTR _vItemAbsPos$93884[ebp+4]
  00893	83 ec 08	 sub	 esp, 8
  00896	dd 1c 24	 fstp	 QWORD PTR [esp]
  00899	d9 85 68 ff ff
	ff		 fld	 DWORD PTR _vItemAbsPos$93884[ebp]
  0089f	83 ec 08	 sub	 esp, 8
  008a2	dd 1c 24	 fstp	 QWORD PTR [esp]
  008a5	8b 55 88	 mov	 edx, DWORD PTR _i$93879[ebp]
  008a8	83 c2 01	 add	 edx, 1
  008ab	52		 push	 edx
  008ac	68 00 00 00 00	 push	 OFFSET FLAT:??_C@_0FN@MOFEEIEI@got?5an?5item?0?5i?5was?$DN?$DN?$CFd?0?5?$EA?$CI?$CF0?41f?0@
  008b1	e8 00 00 00 00	 call	 ?ods@@YAXPADZZ		; ods
  008b6	83 c4 28	 add	 esp, 40			; 00000028H
$L93893:

; 494  : 						}
; 495  : 					}

  008b9	e9 38 f8 ff ff	 jmp	 $L93881
$L93877:

; 496  : 				}
; 497  : 
; 498  : 		return TRUE ;

  008be	e9 c8 f7 ff ff	 jmp	 $L93875
$L93876:
  008c3	e9 a2 f7 ff ff	 jmp	 $L93871
$L93872:
  008c8	b8 01 00 00 00	 mov	 eax, 1
$L93862:

; 499  : 	}

  008cd	52		 push	 edx
  008ce	8b cd		 mov	 ecx, ebp
  008d0	50		 push	 eax
  008d1	8d 15 00 00 00
	00		 lea	 edx, DWORD PTR $L94375
  008d7	e8 00 00 00 00	 call	 @_RTC_CheckStackVars@8
  008dc	58		 pop	 eax
  008dd	5a		 pop	 edx
  008de	5f		 pop	 edi
  008df	5e		 pop	 esi
  008e0	5b		 pop	 ebx
  008e1	81 c4 9c 01 00
	00		 add	 esp, 412		; 0000019cH
  008e7	3b ec		 cmp	 ebp, esp
  008e9	e8 00 00 00 00	 call	 __RTC_CheckEsp
  008ee	8b e5		 mov	 esp, ebp
  008f0	5d		 pop	 ebp
  008f1	c2 10 00	 ret	 16			; 00000010H
$L94375:
  008f4	03 00 00 00	 DD	 3
  008f8	00 00 00 00	 DD	 $L94374
$L94374:
  008fc	d8 ff ff ff	 DD	 -40			; ffffffd8H
  00900	0c 00 00 00	 DD	 12			; 0000000cH
  00904	00 00 00 00	 DD	 $L94371
  00908	c4 ff ff ff	 DD	 -60			; ffffffc4H
  0090c	0c 00 00 00	 DD	 12			; 0000000cH
  00910	00 00 00 00	 DD	 $L94372
  00914	68 ff ff ff	 DD	 -152			; ffffff68H
  00918	0c 00 00 00	 DD	 12			; 0000000cH
  0091c	00 00 00 00	 DD	 $L94373
$L94373:
  00920	76		 DB	 118			; 00000076H
  00921	49		 DB	 73			; 00000049H
  00922	74		 DB	 116			; 00000074H
  00923	65		 DB	 101			; 00000065H
  00924	6d		 DB	 109			; 0000006dH
  00925	41		 DB	 65			; 00000041H
  00926	62		 DB	 98			; 00000062H
  00927	73		 DB	 115			; 00000073H
  00928	50		 DB	 80			; 00000050H
  00929	6f		 DB	 111			; 0000006fH
  0092a	73		 DB	 115			; 00000073H
  0092b	00		 DB	 0
$L94372:
  0092c	76		 DB	 118			; 00000076H
  0092d	50		 DB	 80			; 00000050H
  0092e	6f		 DB	 111			; 0000006fH
  0092f	73		 DB	 115			; 00000073H
  00930	00		 DB	 0
$L94371:
  00931	76		 DB	 118			; 00000076H
  00932	50		 DB	 80			; 00000050H
  00933	72		 DB	 114			; 00000072H
  00934	6f		 DB	 111			; 0000006fH
  00935	62		 DB	 98			; 00000062H
  00936	65		 DB	 101			; 00000065H
  00937	00		 DB	 0
?DetectAndHandleItemCollisions@CUserFighter@@QAEHPAUD3DXVECTOR3@@0PAVCTerrain@@PAVCRace@@@Z ENDP ; CUserFighter::DetectAndHandleItemCollisions
; Function compile flags: /Odt /RTCsu /ZI
; File c:\dxsdk\include\d3dx8math.h
_TEXT	ENDS
;	COMDAT ??0D3DXVECTOR3@@QAE@XZ
_TEXT	SEGMENT
_this$ = -8
??0D3DXVECTOR3@@QAE@XZ PROC NEAR			; D3DXVECTOR3::D3DXVECTOR3, COMDAT
; _this$ = ecx

; 89   :     D3DXVECTOR3() {};

  00000	55		 push	 ebp
  00001	8b ec		 mov	 ebp, esp
  00003	81 ec cc 00 00
	00		 sub	 esp, 204		; 000000ccH
  00009	53		 push	 ebx
  0000a	56		 push	 esi
  0000b	57		 push	 edi
  0000c	51		 push	 ecx
  0000d	8d bd 34 ff ff
	ff		 lea	 edi, DWORD PTR [ebp-204]
  00013	b9 33 00 00 00	 mov	 ecx, 51			; 00000033H
  00018	b8 cc cc cc cc	 mov	 eax, -858993460		; ccccccccH
  0001d	f3 ab		 rep stosd
  0001f	59		 pop	 ecx
  00020	89 4d f8	 mov	 DWORD PTR _this$[ebp], ecx
  00023	8b 45 f8	 mov	 eax, DWORD PTR _this$[ebp]
  00026	5f		 pop	 edi
  00027	5e		 pop	 esi
  00028	5b		 pop	 ebx
  00029	8b e5		 mov	 esp, ebp
  0002b	5d		 pop	 ebp
  0002c	c3		 ret	 0
??0D3DXVECTOR3@@QAE@XZ ENDP				; D3DXVECTOR3::D3DXVECTOR3
; Function compile flags: /Odt /RTCsu /ZI
; File c:\dxsdk\include\d3dx8math.inl
_TEXT	ENDS
;	COMDAT ??0D3DXVECTOR3@@QAE@MMM@Z
_TEXT	SEGMENT
_this$ = -8
_fx$ = 8
_fy$ = 12
_fz$ = 16
??0D3DXVECTOR3@@QAE@MMM@Z PROC NEAR			; D3DXVECTOR3::D3DXVECTOR3, COMDAT
; _this$ = ecx

; 179  : {

  00000	55		 push	 ebp
  00001	8b ec		 mov	 ebp, esp
  00003	81 ec cc 00 00
	00		 sub	 esp, 204		; 000000ccH
  00009	53		 push	 ebx
  0000a	56		 push	 esi
  0000b	57		 push	 edi
  0000c	51		 push	 ecx
  0000d	8d bd 34 ff ff
	ff		 lea	 edi, DWORD PTR [ebp-204]
  00013	b9 33 00 00 00	 mov	 ecx, 51			; 00000033H
  00018	b8 cc cc cc cc	 mov	 eax, -858993460		; ccccccccH
  0001d	f3 ab		 rep stosd
  0001f	59		 pop	 ecx
  00020	89 4d f8	 mov	 DWORD PTR _this$[ebp], ecx

; 180  :     x = fx;

  00023	8b 45 f8	 mov	 eax, DWORD PTR _this$[ebp]
  00026	8b 4d 08	 mov	 ecx, DWORD PTR _fx$[ebp]
  00029	89 08		 mov	 DWORD PTR [eax], ecx

; 181  :     y = fy;

  0002b	8b 45 f8	 mov	 eax, DWORD PTR _this$[ebp]
  0002e	8b 4d 0c	 mov	 ecx, DWORD PTR _fy$[ebp]
  00031	89 48 04	 mov	 DWORD PTR [eax+4], ecx

; 182  :     z = fz;

  00034	8b 45 f8	 mov	 eax, DWORD PTR _this$[ebp]
  00037	8b 4d 10	 mov	 ecx, DWORD PTR _fz$[ebp]
  0003a	89 48 08	 mov	 DWORD PTR [eax+8], ecx

; 183  : }

  0003d	8b 45 f8	 mov	 eax, DWORD PTR _this$[ebp]
  00040	5f		 pop	 edi
  00041	5e		 pop	 esi
  00042	5b		 pop	 ebx
  00043	8b e5		 mov	 esp, ebp
  00045	5d		 pop	 ebp
  00046	c2 0c 00	 ret	 12			; 0000000cH
??0D3DXVECTOR3@@QAE@MMM@Z ENDP				; D3DXVECTOR3::D3DXVECTOR3
; Function compile flags: /Odt /RTCsu /ZI
_TEXT	ENDS
;	COMDAT ??HD3DXVECTOR3@@QBE?AU0@ABU0@@Z
_TEXT	SEGMENT
_this$ = -8
___$ReturnUdt$ = 8
_v$ = 12
??HD3DXVECTOR3@@QBE?AU0@ABU0@@Z PROC NEAR		; D3DXVECTOR3::operator+, COMDAT
; _this$ = ecx

; 256  : {

  00000	55		 push	 ebp
  00001	8b ec		 mov	 ebp, esp
  00003	81 ec cc 00 00
	00		 sub	 esp, 204		; 000000ccH
  00009	53		 push	 ebx
  0000a	56		 push	 esi
  0000b	57		 push	 edi
  0000c	51		 push	 ecx
  0000d	8d bd 34 ff ff
	ff		 lea	 edi, DWORD PTR [ebp-204]
  00013	b9 33 00 00 00	 mov	 ecx, 51			; 00000033H
  00018	b8 cc cc cc cc	 mov	 eax, -858993460		; ccccccccH
  0001d	f3 ab		 rep stosd
  0001f	59		 pop	 ecx
  00020	89 4d f8	 mov	 DWORD PTR _this$[ebp], ecx

; 257  :     return D3DXVECTOR3(x + v.x, y + v.y, z + v.z);

  00023	8b 45 f8	 mov	 eax, DWORD PTR _this$[ebp]
  00026	8b 4d 0c	 mov	 ecx, DWORD PTR _v$[ebp]
  00029	d9 40 08	 fld	 DWORD PTR [eax+8]
  0002c	d8 41 08	 fadd	 DWORD PTR [ecx+8]
  0002f	51		 push	 ecx
  00030	d9 1c 24	 fstp	 DWORD PTR [esp]
  00033	8b 55 f8	 mov	 edx, DWORD PTR _this$[ebp]
  00036	8b 45 0c	 mov	 eax, DWORD PTR _v$[ebp]
  00039	d9 42 04	 fld	 DWORD PTR [edx+4]
  0003c	d8 40 04	 fadd	 DWORD PTR [eax+4]
  0003f	51		 push	 ecx
  00040	d9 1c 24	 fstp	 DWORD PTR [esp]
  00043	8b 4d f8	 mov	 ecx, DWORD PTR _this$[ebp]
  00046	8b 55 0c	 mov	 edx, DWORD PTR _v$[ebp]
  00049	d9 01		 fld	 DWORD PTR [ecx]
  0004b	d8 02		 fadd	 DWORD PTR [edx]
  0004d	51		 push	 ecx
  0004e	d9 1c 24	 fstp	 DWORD PTR [esp]
  00051	8b 4d 08	 mov	 ecx, DWORD PTR ___$ReturnUdt$[ebp]
  00054	e8 00 00 00 00	 call	 ??0D3DXVECTOR3@@QAE@MMM@Z ; D3DXVECTOR3::D3DXVECTOR3
  00059	8b 45 08	 mov	 eax, DWORD PTR ___$ReturnUdt$[ebp]

; 258  : }

  0005c	5f		 pop	 edi
  0005d	5e		 pop	 esi
  0005e	5b		 pop	 ebx
  0005f	81 c4 cc 00 00
	00		 add	 esp, 204		; 000000ccH
  00065	3b ec		 cmp	 ebp, esp
  00067	e8 00 00 00 00	 call	 __RTC_CheckEsp
  0006c	8b e5		 mov	 esp, ebp
  0006e	5d		 pop	 ebp
  0006f	c2 08 00	 ret	 8
??HD3DXVECTOR3@@QBE?AU0@ABU0@@Z ENDP			; D3DXVECTOR3::operator+
; Function compile flags: /Odt /RTCsu /ZI
_TEXT	ENDS
;	COMDAT ??GD3DXVECTOR3@@QBE?AU0@ABU0@@Z
_TEXT	SEGMENT
_this$ = -8
___$ReturnUdt$ = 8
_v$ = 12
??GD3DXVECTOR3@@QBE?AU0@ABU0@@Z PROC NEAR		; D3DXVECTOR3::operator-, COMDAT
; _this$ = ecx

; 262  : {

  00000	55		 push	 ebp
  00001	8b ec		 mov	 ebp, esp
  00003	81 ec cc 00 00
	00		 sub	 esp, 204		; 000000ccH
  00009	53		 push	 ebx
  0000a	56		 push	 esi
  0000b	57		 push	 edi
  0000c	51		 push	 ecx
  0000d	8d bd 34 ff ff
	ff		 lea	 edi, DWORD PTR [ebp-204]
  00013	b9 33 00 00 00	 mov	 ecx, 51			; 00000033H
  00018	b8 cc cc cc cc	 mov	 eax, -858993460		; ccccccccH
  0001d	f3 ab		 rep stosd
  0001f	59		 pop	 ecx
  00020	89 4d f8	 mov	 DWORD PTR _this$[ebp], ecx

; 263  :     return D3DXVECTOR3(x - v.x, y - v.y, z - v.z);

  00023	8b 45 f8	 mov	 eax, DWORD PTR _this$[ebp]
  00026	8b 4d 0c	 mov	 ecx, DWORD PTR _v$[ebp]
  00029	d9 40 08	 fld	 DWORD PTR [eax+8]
  0002c	d8 61 08	 fsub	 DWORD PTR [ecx+8]
  0002f	51		 push	 ecx
  00030	d9 1c 24	 fstp	 DWORD PTR [esp]
  00033	8b 55 f8	 mov	 edx, DWORD PTR _this$[ebp]
  00036	8b 45 0c	 mov	 eax, DWORD PTR _v$[ebp]
  00039	d9 42 04	 fld	 DWORD PTR [edx+4]
  0003c	d8 60 04	 fsub	 DWORD PTR [eax+4]
  0003f	51		 push	 ecx
  00040	d9 1c 24	 fstp	 DWORD PTR [esp]
  00043	8b 4d f8	 mov	 ecx, DWORD PTR _this$[ebp]
  00046	8b 55 0c	 mov	 edx, DWORD PTR _v$[ebp]
  00049	d9 01		 fld	 DWORD PTR [ecx]
  0004b	d8 22		 fsub	 DWORD PTR [edx]
  0004d	51		 push	 ecx
  0004e	d9 1c 24	 fstp	 DWORD PTR [esp]
  00051	8b 4d 08	 mov	 ecx, DWORD PTR ___$ReturnUdt$[ebp]
  00054	e8 00 00 00 00	 call	 ??0D3DXVECTOR3@@QAE@MMM@Z ; D3DXVECTOR3::D3DXVECTOR3
  00059	8b 45 08	 mov	 eax, DWORD PTR ___$ReturnUdt$[ebp]

; 264  : }

  0005c	5f		 pop	 edi
  0005d	5e		 pop	 esi
  0005e	5b		 pop	 ebx
  0005f	81 c4 cc 00 00
	00		 add	 esp, 204		; 000000ccH
  00065	3b ec		 cmp	 ebp, esp
  00067	e8 00 00 00 00	 call	 __RTC_CheckEsp
  0006c	8b e5		 mov	 esp, ebp
  0006e	5d		 pop	 ebp
  0006f	c2 08 00	 ret	 8
??GD3DXVECTOR3@@QBE?AU0@ABU0@@Z ENDP			; D3DXVECTOR3::operator-
_TEXT	ENDS
PUBLIC	__real@41f00000
PUBLIC	__real@42700000
PUBLIC	__real@3f7d70a4
PUBLIC	__real@3dcccccd
PUBLIC	__real@3a03126f
PUBLIC	__real@4059000000000000
PUBLIC	?FrameMove@CUserFighter@@QAEHPAUIDirect3DDevice8@@PAVCUserInput@@MPAVCCamera@@PAUD3DXMATRIX@@PAU_D3DVIEWPORT8@@HHPAVCTerrain@@HMHPAVCRace@@@Z ; CUserFighter::FrameMove
PUBLIC	?FrameMoveSpaceScanner@CUserFighter@@QAEXPAVCTerrain@@PAVCRace@@@Z ; CUserFighter::FrameMoveSpaceScanner
PUBLIC	??_C@_0L@JNFOPKEE@GAME?5OVER?$CB?$AA@		; `string'
PUBLIC	??_C@_05EOOECBPF@?$CF?912d?$AA@			; `string'
PUBLIC	??_C@_0BC@JCJDJAAO@?$CF04d?5m?1s?5?$FL?$CF03d?$CF?$CF?$FN?$AA@ ; `string'
PUBLIC	_fabsf
EXTRN	?ProcessPhysicsFromFlightControls@CFighter@@QAEXPAUFLIGHT_CONTROLS@@MPAVCTerrain@@HPAVCRace@@PAUIDirect3DDevice8@@MPAM@Z:NEAR ; CFighter::ProcessPhysicsFromFlightControls
EXTRN	__ftol2:NEAR
EXTRN	?Respawn@CFighter@@QAEXPAVCTerrain@@@Z:NEAR	; CFighter::Respawn
EXTRN	?FrameMove@CFighter@@QAEHPAUIDirect3DDevice8@@PAVCUserInput@@MPAVCCamera@@PAUD3DXMATRIX@@PAU_D3DVIEWPORT8@@HPAVCTerrain@@HMPAVCRace@@@Z:NEAR ; CFighter::FrameMove
EXTRN	?FrameMove@CHUDText@@QAEJPAUIDirect3DDevice8@@PAVCUserInput@@PAUOVERLAYVERTEX@@@Z:NEAR ; CHUDText::FrameMove
EXTRN	_fabs:NEAR
EXTRN	_ceil:NEAR
;	COMDAT ??_C@_0L@JNFOPKEE@GAME?5OVER?$CB?$AA@
; File c:\documents and settings\dom\my documents\_dev\ae\xlr8a\x7g\cuserfighter.cpp
CONST	SEGMENT
??_C@_0L@JNFOPKEE@GAME?5OVER?$CB?$AA@ DB 'GAME OVER!', 00H ; `string'
CONST	ENDS
;	COMDAT __real@41f00000
CONST	SEGMENT
__real@41f00000 DD 041f00000r			; 30
CONST	ENDS
;	COMDAT __real@42700000
CONST	SEGMENT
__real@42700000 DD 042700000r			; 60
CONST	ENDS
;	COMDAT __real@3f7d70a4
CONST	SEGMENT
__real@3f7d70a4 DD 03f7d70a4r			; 0.99
CONST	ENDS
;	COMDAT ??_C@_05EOOECBPF@?$CF?912d?$AA@
CONST	SEGMENT
??_C@_05EOOECBPF@?$CF?912d?$AA@ DB '%-12d', 00H		; `string'
CONST	ENDS
;	COMDAT __real@3dcccccd
CONST	SEGMENT
__real@3dcccccd DD 03dcccccdr			; 0.1
CONST	ENDS
;	COMDAT __real@3a03126f
CONST	SEGMENT
__real@3a03126f DD 03a03126fr			; 0.0005
CONST	ENDS
;	COMDAT __real@4059000000000000
CONST	SEGMENT
__real@4059000000000000 DQ 04059000000000000r	; 100
CONST	ENDS
;	COMDAT ??_C@_0BC@JCJDJAAO@?$CF04d?5m?1s?5?$FL?$CF03d?$CF?$CF?$FN?$AA@
CONST	SEGMENT
??_C@_0BC@JCJDJAAO@?$CF04d?5m?1s?5?$FL?$CF03d?$CF?$CF?$FN?$AA@ DB '%04d m'
	DB	'/s [%03d%%]', 00H				; `string'
; Function compile flags: /Odt /RTCsu /ZI
CONST	ENDS
;	COMDAT ?FrameMove@CUserFighter@@QAEHPAUIDirect3DDevice8@@PAVCUserInput@@MPAVCCamera@@PAUD3DXMATRIX@@PAU_D3DVIEWPORT8@@HHPAVCTerrain@@HMHPAVCRace@@@Z
_TEXT	SEGMENT
_f$93946 = -100
_fScoreDelta$93943 = -88
_fScoreZone$ = -76
_ret$ = -64
_fYawDelta$ = -52
_vStartPosition$ = -40
_bAcceptUserInput$ = -20
_this$ = -8
_pDev$ = 8
_pInput$ = 12
_fFPS$ = 16
_pCamera$ = 20
_pmatProj$ = 24
_pVP$ = 28
_bAcceptInput$ = 32
_bManageCamera$ = 36
_pTerrain$ = 40
_ctCamMode$ = 44
_fElapsedTime$ = 48
_bShowHUD$ = 52
_pRace$ = 56
?FrameMove@CUserFighter@@QAEHPAUIDirect3DDevice8@@PAVCUserInput@@MPAVCCamera@@PAUD3DXMATRIX@@PAU_D3DVIEWPORT8@@HHPAVCTerrain@@HMHPAVCRace@@@Z PROC NEAR ; CUserFighter::FrameMove, COMDAT
; _this$ = ecx

; 508  : 	{

  00000	55		 push	 ebp
  00001	8b ec		 mov	 ebp, esp
  00003	81 ec 28 01 00
	00		 sub	 esp, 296		; 00000128H
  00009	53		 push	 ebx
  0000a	56		 push	 esi
  0000b	57		 push	 edi
  0000c	51		 push	 ecx
  0000d	8d bd d8 fe ff
	ff		 lea	 edi, DWORD PTR [ebp-296]
  00013	b9 4a 00 00 00	 mov	 ecx, 74			; 0000004aH
  00018	b8 cc cc cc cc	 mov	 eax, -858993460		; ccccccccH
  0001d	f3 ab		 rep stosd
  0001f	59		 pop	 ecx
  00020	89 4d f8	 mov	 DWORD PTR _this$[ebp], ecx

; 509  : 		BOOL bAcceptUserInput ;
; 510  : 
; 511  : 	//
; 512  : 	// DBG:
; 513  : 	//
; 514  : 		/*m_bShowingHUDText = true ;
; 515  : 		strcpy( m_szHUDText, "GO!" );
; 516  : 		m_fHUDTextAge = 0 ;	m_fHUDTextLifespan = 2 ;
; 517  : 		m_fHUDTextX = -0.93f ; m_fHUDTextY = -0.77f;
; 518  : 		m_fHUDTextXScale = 0.65f ; m_fHUDTextYScale = 0.65f ;
; 519  : 		m_fHUDTextRed = 1 ; m_fHUDTextGreen = 0 ; m_fHUDTextBlue = 0 ; m_fHUDTextAlpha = 0.2f ;*/
; 520  : 
; 521  : 
; 522  : 	//
; 523  : 	// Process user-supplied flight controls:
; 524  : 	//
; 525  : 		bAcceptUserInput = TRUE ;

  00023	c7 45 ec 01 00
	00 00		 mov	 DWORD PTR _bAcceptUserInput$[ebp], 1

; 526  : 		if( !bAcceptInput )

  0002a	83 7d 20 00	 cmp	 DWORD PTR _bAcceptInput$[ebp], 0
  0002e	75 09		 jne	 SHORT $L93926

; 527  : 			bAcceptUserInput = FALSE ;

  00030	c7 45 ec 00 00
	00 00		 mov	 DWORD PTR _bAcceptUserInput$[ebp], 0

; 528  : 		else

  00037	eb 13		 jmp	 SHORT $L93927
$L93926:

; 529  : 			if( m_fsState == FS_EXPLODING )

  00039	8b 45 f8	 mov	 eax, DWORD PTR _this$[ebp]
  0003c	83 b8 a0 01 00
	00 01		 cmp	 DWORD PTR [eax+416], 1
  00043	75 07		 jne	 SHORT $L93927

; 530  : 				bAcceptUserInput = FALSE ;

  00045	c7 45 ec 00 00
	00 00		 mov	 DWORD PTR _bAcceptUserInput$[ebp], 0
$L93927:

; 531  : 
; 532  : 		xVec3 vStartPosition = m_vPosition ;

  0004c	8b 45 f8	 mov	 eax, DWORD PTR _this$[ebp]
  0004f	05 fc 01 00 00	 add	 eax, 508		; 000001fcH
  00054	8b 08		 mov	 ecx, DWORD PTR [eax]
  00056	89 4d d8	 mov	 DWORD PTR _vStartPosition$[ebp], ecx
  00059	8b 50 04	 mov	 edx, DWORD PTR [eax+4]
  0005c	89 55 dc	 mov	 DWORD PTR _vStartPosition$[ebp+4], edx
  0005f	8b 40 08	 mov	 eax, DWORD PTR [eax+8]
  00062	89 45 e0	 mov	 DWORD PTR _vStartPosition$[ebp+8], eax

; 533  : 		float fYawDelta ;
; 534  : 
; 535  : #ifdef FULL_DBG_TRACE
; 536  : 	ods( "\tCUserFighter::FrameMove() 1\n" );
; 537  : #endif
; 538  : 
; 539  : 		ProcessPhysicsFromFlightControls( &pInput->m_FlightControls, fFPS, pTerrain, bAcceptUserInput, pRace, pDev, fElapsedTime, &fYawDelta );

  00065	8d 45 cc	 lea	 eax, DWORD PTR _fYawDelta$[ebp]
  00068	50		 push	 eax
  00069	8b 4d 30	 mov	 ecx, DWORD PTR _fElapsedTime$[ebp]
  0006c	51		 push	 ecx
  0006d	8b 55 08	 mov	 edx, DWORD PTR _pDev$[ebp]
  00070	52		 push	 edx
  00071	8b 45 38	 mov	 eax, DWORD PTR _pRace$[ebp]
  00074	50		 push	 eax
  00075	8b 4d ec	 mov	 ecx, DWORD PTR _bAcceptUserInput$[ebp]
  00078	51		 push	 ecx
  00079	8b 55 28	 mov	 edx, DWORD PTR _pTerrain$[ebp]
  0007c	52		 push	 edx
  0007d	8b 45 10	 mov	 eax, DWORD PTR _fFPS$[ebp]
  00080	50		 push	 eax
  00081	8b 4d 0c	 mov	 ecx, DWORD PTR _pInput$[ebp]
  00084	81 c1 ac 08 00
	00		 add	 ecx, 2220		; 000008acH
  0008a	51		 push	 ecx
  0008b	8b 4d f8	 mov	 ecx, DWORD PTR _this$[ebp]
  0008e	e8 00 00 00 00	 call	 ?ProcessPhysicsFromFlightControls@CFighter@@QAEXPAUFLIGHT_CONTROLS@@MPAVCTerrain@@HPAVCRace@@PAUIDirect3DDevice8@@MPAM@Z ; CFighter::ProcessPhysicsFromFlightControls

; 540  : 		m_fScannerRot += fYawDelta ;

  00093	8b 45 f8	 mov	 eax, DWORD PTR _this$[ebp]
  00096	d9 45 cc	 fld	 DWORD PTR _fYawDelta$[ebp]
  00099	d8 80 98 03 00
	00		 fadd	 DWORD PTR [eax+920]
  0009f	8b 4d f8	 mov	 ecx, DWORD PTR _this$[ebp]
  000a2	d9 99 98 03 00
	00		 fstp	 DWORD PTR [ecx+920]

; 541  : 
; 542  : #ifdef FULL_DBG_TRACE
; 543  : 	ods( "\tCUserFighter::FrameMove() 2\n" );
; 544  : #endif
; 545  : 
; 546  : 	//
; 547  : 	// Test the updated position for gameitem collisions:
; 548  : 	//
; 549  : 		DetectAndHandleItemCollisions( &m_vPosition, &vStartPosition, pRace->m_pTerrain, pRace );

  000a8	8b 45 38	 mov	 eax, DWORD PTR _pRace$[ebp]
  000ab	50		 push	 eax
  000ac	8b 4d 38	 mov	 ecx, DWORD PTR _pRace$[ebp]
  000af	8b 51 24	 mov	 edx, DWORD PTR [ecx+36]
  000b2	52		 push	 edx
  000b3	8d 45 d8	 lea	 eax, DWORD PTR _vStartPosition$[ebp]
  000b6	50		 push	 eax
  000b7	8b 4d f8	 mov	 ecx, DWORD PTR _this$[ebp]
  000ba	81 c1 fc 01 00
	00		 add	 ecx, 508		; 000001fcH
  000c0	51		 push	 ecx
  000c1	8b 4d f8	 mov	 ecx, DWORD PTR _this$[ebp]
  000c4	e8 00 00 00 00	 call	 ?DetectAndHandleItemCollisions@CUserFighter@@QAEHPAUD3DXVECTOR3@@0PAVCTerrain@@PAVCRace@@@Z ; CUserFighter::DetectAndHandleItemCollisions

; 550  : 
; 551  : #ifdef FULL_DBG_TRACE
; 552  : 	ods( "\tCUserFighter::FrameMove() 3\n" );
; 553  : #endif
; 554  : 
; 555  : 	//
; 556  : 	// Check for Death!
; 557  : 	//
; 558  : 		if( m_fShieldLevel == 0 && m_fsState == FS_NORMAL )

  000c9	8b 45 f8	 mov	 eax, DWORD PTR _this$[ebp]
  000cc	d9 80 08 03 00
	00		 fld	 DWORD PTR [eax+776]
  000d2	d8 1d 00 00 00
	00		 fcomp	 DWORD PTR __real@00000000
  000d8	df e0		 fnstsw	 ax
  000da	f6 c4 44	 test	 ah, 68			; 00000044H
  000dd	0f 8a 40 01 00
	00		 jp	 $L93931
  000e3	8b 45 f8	 mov	 eax, DWORD PTR _this$[ebp]
  000e6	83 b8 a0 01 00
	00 00		 cmp	 DWORD PTR [eax+416], 0
  000ed	0f 85 30 01 00
	00		 jne	 $L93931

; 559  : 		{
; 560  : 			pRace->m_ctCamMode = CT_SHOWOFF ;

  000f3	8b 45 38	 mov	 eax, DWORD PTR _pRace$[ebp]
  000f6	c7 40 6c 09 00
	00 00		 mov	 DWORD PTR [eax+108], 9

; 561  : 			if( pRace->m_pX7->m_nLives > 0 )

  000fd	8b 45 38	 mov	 eax, DWORD PTR _pRace$[ebp]
  00100	8b 48 38	 mov	 ecx, DWORD PTR [eax+56]
  00103	83 b9 0c a9 02
	00 00		 cmp	 DWORD PTR [ecx+174348], 0
  0010a	7e 68		 jle	 SHORT $L93932

; 562  : 			{
; 563  : 				if( !pRace->m_pX7->m_bGodMode )

  0010c	8b 45 38	 mov	 eax, DWORD PTR _pRace$[ebp]
  0010f	8b 48 38	 mov	 ecx, DWORD PTR [eax+56]
  00112	0f b6 91 b4 a9
	02 00		 movzx	 edx, BYTE PTR [ecx+174516]
  00119	85 d2		 test	 edx, edx
  0011b	75 52		 jne	 SHORT $L93933

; 564  : 				{
; 565  : 					pRace->m_pX7->m_nLives-- ;

  0011d	8b 45 38	 mov	 eax, DWORD PTR _pRace$[ebp]
  00120	8b 48 38	 mov	 ecx, DWORD PTR [eax+56]
  00123	8b 91 0c a9 02
	00		 mov	 edx, DWORD PTR [ecx+174348]
  00129	83 ea 01	 sub	 edx, 1
  0012c	8b 45 38	 mov	 eax, DWORD PTR _pRace$[ebp]
  0012f	8b 48 38	 mov	 ecx, DWORD PTR [eax+56]
  00132	89 91 0c a9 02
	00		 mov	 DWORD PTR [ecx+174348], edx

; 566  : 					sprintf( m_pHUDLives->m_szText, "LIVES %d", pRace->m_pX7->m_nLives );

  00138	8b 45 38	 mov	 eax, DWORD PTR _pRace$[ebp]
  0013b	8b 48 38	 mov	 ecx, DWORD PTR [eax+56]
  0013e	8b 91 0c a9 02
	00		 mov	 edx, DWORD PTR [ecx+174348]
  00144	52		 push	 edx
  00145	68 00 00 00 00	 push	 OFFSET FLAT:??_C@_08OIIELFFL@LIVES?5?$CFd?$AA@
  0014a	8b 45 f8	 mov	 eax, DWORD PTR _this$[ebp]
  0014d	8b 88 84 03 00
	00		 mov	 ecx, DWORD PTR [eax+900]
  00153	83 c1 1c	 add	 ecx, 28			; 0000001cH
  00156	51		 push	 ecx
  00157	e8 00 00 00 00	 call	 _sprintf
  0015c	83 c4 0c	 add	 esp, 12			; 0000000cH

; 567  : 					m_pHUDLives->SetFrameMoveRequired( TRUE );

  0015f	6a 01		 push	 1
  00161	8b 45 f8	 mov	 eax, DWORD PTR _this$[ebp]
  00164	8b 88 84 03 00
	00		 mov	 ecx, DWORD PTR [eax+900]
  0016a	e8 00 00 00 00	 call	 ?SetFrameMoveRequired@CHUDText@@QAEHH@Z ; CHUDText::SetFrameMoveRequired
$L93933:

; 568  : 				}
; 569  : 			}
; 570  : 			else

  0016f	e9 af 00 00 00	 jmp	 $L93931
$L93932:

; 571  : 			{
; 572  : 				m_bShowingHUDText = true ;

  00174	8b 45 f8	 mov	 eax, DWORD PTR _this$[ebp]
  00177	c6 80 08 04 00
	00 01		 mov	 BYTE PTR [eax+1032], 1

; 573  : 				strcpy( m_szHUDText, "GAME OVER!" );

  0017e	68 00 00 00 00	 push	 OFFSET FLAT:??_C@_0L@JNFOPKEE@GAME?5OVER?$CB?$AA@
  00183	8b 45 f8	 mov	 eax, DWORD PTR _this$[ebp]
  00186	05 b8 03 00 00	 add	 eax, 952		; 000003b8H
  0018b	50		 push	 eax
  0018c	e8 00 00 00 00	 call	 _strcpy
  00191	83 c4 08	 add	 esp, 8

; 574  : 				m_fHUDTextAge = 0 ;	m_fHUDTextLifespan = 1 ;

  00194	8b 45 f8	 mov	 eax, DWORD PTR _this$[ebp]
  00197	c7 80 10 04 00
	00 00 00 00 00	 mov	 DWORD PTR [eax+1040], 0
  001a1	8b 45 f8	 mov	 eax, DWORD PTR _this$[ebp]
  001a4	c7 80 0c 04 00
	00 00 00 80 3f	 mov	 DWORD PTR [eax+1036], 1065353216 ; 3f800000H

; 575  : 				m_fHUDTextX = -1 ; m_fHUDTextY = -0.25f ;

  001ae	8b 45 f8	 mov	 eax, DWORD PTR _this$[ebp]
  001b1	c7 80 24 04 00
	00 00 00 80 bf	 mov	 DWORD PTR [eax+1060], -1082130432 ; bf800000H
  001bb	8b 45 f8	 mov	 eax, DWORD PTR _this$[ebp]
  001be	c7 80 28 04 00
	00 00 00 80 be	 mov	 DWORD PTR [eax+1064], -1098907648 ; be800000H

; 576  : 				m_fHUDTextXScale = 0.2f ;	m_fHUDTextYScale = 0.25f ;

  001c8	8b 45 f8	 mov	 eax, DWORD PTR _this$[ebp]
  001cb	c7 80 2c 04 00
	00 cd cc 4c 3e	 mov	 DWORD PTR [eax+1068], 1045220557 ; 3e4ccccdH
  001d5	8b 45 f8	 mov	 eax, DWORD PTR _this$[ebp]
  001d8	c7 80 30 04 00
	00 00 00 80 3e	 mov	 DWORD PTR [eax+1072], 1048576000 ; 3e800000H

; 577  : 				m_fHUDTextRed = 1 ;	m_fHUDTextGreen = 1 ; m_fHUDTextBlue = 1 ; m_fHUDTextAlpha = 1 ;

  001e2	8b 45 f8	 mov	 eax, DWORD PTR _this$[ebp]
  001e5	c7 80 14 04 00
	00 00 00 80 3f	 mov	 DWORD PTR [eax+1044], 1065353216 ; 3f800000H
  001ef	8b 45 f8	 mov	 eax, DWORD PTR _this$[ebp]
  001f2	c7 80 18 04 00
	00 00 00 80 3f	 mov	 DWORD PTR [eax+1048], 1065353216 ; 3f800000H
  001fc	8b 45 f8	 mov	 eax, DWORD PTR _this$[ebp]
  001ff	c7 80 1c 04 00
	00 00 00 80 3f	 mov	 DWORD PTR [eax+1052], 1065353216 ; 3f800000H
  00209	8b 45 f8	 mov	 eax, DWORD PTR _this$[ebp]
  0020c	c7 80 20 04 00
	00 00 00 80 3f	 mov	 DWORD PTR [eax+1056], 1065353216 ; 3f800000H

; 578  : 
; 579  : 				m_bGameOver = TRUE ;

  00216	8b 45 f8	 mov	 eax, DWORD PTR _this$[ebp]
  00219	c7 80 5c 03 00
	00 01 00 00 00	 mov	 DWORD PTR [eax+860], 1
$L93931:

; 580  : 			}
; 581  : 		}
; 582  : 
; 583  : #ifdef FULL_DBG_TRACE
; 584  : 	ods( "\tCUserFighter::FrameMove() 4\n" );
; 585  : #endif
; 586  : 
; 587  : 	//
; 588  : 	// Baseclass FrameMove;
; 589  : 	//
; 590  : 		int ret ;
; 591  : 		ret = CFighter::FrameMove( pDev, pInput, fFPS, pCamera, pmatProj, pVP, bManageCamera, pTerrain, ctCamMode, fElapsedTime, pRace );

  00223	8b 45 38	 mov	 eax, DWORD PTR _pRace$[ebp]
  00226	50		 push	 eax
  00227	8b 4d 30	 mov	 ecx, DWORD PTR _fElapsedTime$[ebp]
  0022a	51		 push	 ecx
  0022b	8b 55 2c	 mov	 edx, DWORD PTR _ctCamMode$[ebp]
  0022e	52		 push	 edx
  0022f	8b 45 28	 mov	 eax, DWORD PTR _pTerrain$[ebp]
  00232	50		 push	 eax
  00233	8b 4d 24	 mov	 ecx, DWORD PTR _bManageCamera$[ebp]
  00236	51		 push	 ecx
  00237	8b 55 1c	 mov	 edx, DWORD PTR _pVP$[ebp]
  0023a	52		 push	 edx
  0023b	8b 45 18	 mov	 eax, DWORD PTR _pmatProj$[ebp]
  0023e	50		 push	 eax
  0023f	8b 4d 14	 mov	 ecx, DWORD PTR _pCamera$[ebp]
  00242	51		 push	 ecx
  00243	8b 55 10	 mov	 edx, DWORD PTR _fFPS$[ebp]
  00246	52		 push	 edx
  00247	8b 45 0c	 mov	 eax, DWORD PTR _pInput$[ebp]
  0024a	50		 push	 eax
  0024b	8b 4d 08	 mov	 ecx, DWORD PTR _pDev$[ebp]
  0024e	51		 push	 ecx
  0024f	8b 4d f8	 mov	 ecx, DWORD PTR _this$[ebp]
  00252	e8 00 00 00 00	 call	 ?FrameMove@CFighter@@QAEHPAUIDirect3DDevice8@@PAVCUserInput@@MPAVCCamera@@PAUD3DXMATRIX@@PAU_D3DVIEWPORT8@@HPAVCTerrain@@HMPAVCRace@@@Z ; CFighter::FrameMove
  00257	89 45 c0	 mov	 DWORD PTR _ret$[ebp], eax

; 592  : 
; 593  : #ifdef FULL_DBG_TRACE
; 594  : 	ods( "\tCUserFighter::FrameMove() 5\n" );
; 595  : #endif
; 596  : 
; 597  : 	//
; 598  : 	// Respawn, or Game Over:
; 599  : 	//
; 600  : 		if( m_bJustFinishedExploding )

  0025a	8b 45 f8	 mov	 eax, DWORD PTR _this$[ebp]
  0025d	83 b8 18 03 00
	00 00		 cmp	 DWORD PTR [eax+792], 0
  00264	74 6a		 je	 SHORT $L93937

; 601  : 		{
; 602  : 			pRace->m_ctCamMode = CT_BEHIND_VARIABLE2 ;

  00266	8b 45 38	 mov	 eax, DWORD PTR _pRace$[ebp]
  00269	c7 40 6c 05 00
	00 00		 mov	 DWORD PTR [eax+108], 5

; 603  : 			m_bJustFinishedExploding = FALSE ;

  00270	8b 45 f8	 mov	 eax, DWORD PTR _this$[ebp]
  00273	c7 80 18 03 00
	00 00 00 00 00	 mov	 DWORD PTR [eax+792], 0

; 604  : 			if( m_bGameOver )

  0027d	8b 45 f8	 mov	 eax, DWORD PTR _this$[ebp]
  00280	83 b8 5c 03 00
	00 00		 cmp	 DWORD PTR [eax+860], 0
  00287	74 3b		 je	 SHORT $L93938

; 605  : 			{
; 606  : 				pRace->m_pX7->m_bGamePaused = FALSE ;

  00289	8b 45 38	 mov	 eax, DWORD PTR _pRace$[ebp]
  0028c	8b 48 38	 mov	 ecx, DWORD PTR [eax+56]
  0028f	c6 81 dc a7 02
	00 00		 mov	 BYTE PTR [ecx+174044], 0

; 607  : 				pRace->m_pX7->m_bInGame = FALSE ;

  00296	8b 45 38	 mov	 eax, DWORD PTR _pRace$[ebp]
  00299	8b 48 38	 mov	 ecx, DWORD PTR [eax+56]
  0029c	c6 81 db a7 02
	00 00		 mov	 BYTE PTR [ecx+174043], 0

; 608  : 				pRace->m_pX7->m_bInMainMenu = FALSE ;

  002a3	8b 45 38	 mov	 eax, DWORD PTR _pRace$[ebp]
  002a6	8b 48 38	 mov	 ecx, DWORD PTR [eax+56]
  002a9	c6 81 d8 a7 02
	00 00		 mov	 BYTE PTR [ecx+174040], 0

; 609  : 				pRace->m_pX7->m_bPlayerJustLost = TRUE ;

  002b0	8b 45 38	 mov	 eax, DWORD PTR _pRace$[ebp]
  002b3	8b 48 38	 mov	 ecx, DWORD PTR [eax+56]
  002b6	c6 81 df a7 02
	00 01		 mov	 BYTE PTR [ecx+174047], 1

; 610  : 				return 0 ;

  002bd	33 c0		 xor	 eax, eax
  002bf	e9 51 04 00 00	 jmp	 $L93924
$L93938:

; 611  : 			}
; 612  : 			else
; 613  : 			{
; 614  : 				Respawn( pTerrain );

  002c4	8b 45 28	 mov	 eax, DWORD PTR _pTerrain$[ebp]
  002c7	50		 push	 eax
  002c8	8b 4d f8	 mov	 ecx, DWORD PTR _this$[ebp]
  002cb	e8 00 00 00 00	 call	 ?Respawn@CFighter@@QAEXPAVCTerrain@@@Z ; CFighter::Respawn
$L93937:

; 615  : 
; 616  : 			}
; 617  : 		}
; 618  : 
; 619  : 	//
; 620  : 	// Update score (movement bonus);
; 621  : 	//
; 622  : 		float fScoreZone = pRace->m_fTerrainLenSq / 30 ;

  002d0	8b 45 38	 mov	 eax, DWORD PTR _pRace$[ebp]
  002d3	d9 80 e8 00 00
	00		 fld	 DWORD PTR [eax+232]
  002d9	d8 35 00 00 00
	00		 fdiv	 DWORD PTR __real@41f00000
  002df	d9 5d b4	 fstp	 DWORD PTR _fScoreZone$[ebp]

; 623  : 		
; 624  : 		if( m_fDistanceToGround > 0 ) // !

  002e2	8b 45 f8	 mov	 eax, DWORD PTR _this$[ebp]
  002e5	d9 80 e4 02 00
	00		 fld	 DWORD PTR [eax+740]
  002eb	d8 1d 00 00 00
	00		 fcomp	 DWORD PTR __real@00000000
  002f1	df e0		 fnstsw	 ax
  002f3	f6 c4 41	 test	 ah, 65			; 00000041H
  002f6	0f 85 b4 00 00
	00		 jne	 $L93941

; 625  : 		{
; 626  : 			if( m_fDistanceToGround < fScoreZone)

  002fc	8b 45 f8	 mov	 eax, DWORD PTR _this$[ebp]
  002ff	d9 80 e4 02 00
	00		 fld	 DWORD PTR [eax+740]
  00305	d8 5d b4	 fcomp	 DWORD PTR _fScoreZone$[ebp]
  00308	df e0		 fnstsw	 ax
  0030a	f6 c4 05	 test	 ah, 5
  0030d	0f 8a 90 00 00
	00		 jp	 $L93942

; 627  : 			{
; 628  : 				m_fTimeInScoreZone += ( 1 / fFPS );

  00313	d9 05 00 00 00
	00		 fld	 DWORD PTR __real@3f800000
  00319	d8 75 10	 fdiv	 DWORD PTR _fFPS$[ebp]
  0031c	8b 45 f8	 mov	 eax, DWORD PTR _this$[ebp]
  0031f	d8 80 54 03 00
	00		 fadd	 DWORD PTR [eax+852]
  00325	8b 4d f8	 mov	 ecx, DWORD PTR _this$[ebp]
  00328	d9 99 54 03 00
	00		 fstp	 DWORD PTR [ecx+852]

; 629  : 
; 630  : 				float fScoreDelta = 3 ;

  0032e	c7 45 a8 00 00
	40 40		 mov	 DWORD PTR _fScoreDelta$93943[ebp], 1077936128 ; 40400000H

; 631  : 				//fScoreDelta *= ( fabsf(m_fThrustMag) / m_fMaxThrustMag );
; 632  : 				fScoreDelta *= ( fabsf(m_fSpeed) / m_fMaxThrustMag );

  00335	8b 45 f8	 mov	 eax, DWORD PTR _this$[ebp]
  00338	8b 88 a4 01 00
	00		 mov	 ecx, DWORD PTR [eax+420]
  0033e	51		 push	 ecx
  0033f	e8 00 00 00 00	 call	 _fabsf
  00344	83 c4 04	 add	 esp, 4
  00347	8b 55 f8	 mov	 edx, DWORD PTR _this$[ebp]
  0034a	d8 b2 b4 01 00
	00		 fdiv	 DWORD PTR [edx+436]
  00350	d8 4d a8	 fmul	 DWORD PTR _fScoreDelta$93943[ebp]
  00353	d9 5d a8	 fstp	 DWORD PTR _fScoreDelta$93943[ebp]

; 633  : 				fScoreDelta *= ( 1.0f - (m_fDistanceToGround / fScoreZone) );

  00356	8b 45 f8	 mov	 eax, DWORD PTR _this$[ebp]
  00359	d9 80 e4 02 00
	00		 fld	 DWORD PTR [eax+740]
  0035f	d8 75 b4	 fdiv	 DWORD PTR _fScoreZone$[ebp]
  00362	d8 2d 00 00 00
	00		 fsubr	 DWORD PTR __real@3f800000
  00368	d8 4d a8	 fmul	 DWORD PTR _fScoreDelta$93943[ebp]
  0036b	d9 5d a8	 fstp	 DWORD PTR _fScoreDelta$93943[ebp]

; 634  : 				fScoreDelta *= (m_fTimeInScoreZone) /* * (m_fTimeInScoreZone)*/ ;

  0036e	8b 45 f8	 mov	 eax, DWORD PTR _this$[ebp]
  00371	d9 80 54 03 00
	00		 fld	 DWORD PTR [eax+852]
  00377	d8 4d a8	 fmul	 DWORD PTR _fScoreDelta$93943[ebp]
  0037a	d9 5d a8	 fstp	 DWORD PTR _fScoreDelta$93943[ebp]

; 635  : 				fScoreDelta *= ( 60 / fFPS );

  0037d	d9 05 00 00 00
	00		 fld	 DWORD PTR __real@42700000
  00383	d8 75 10	 fdiv	 DWORD PTR _fFPS$[ebp]
  00386	d8 4d a8	 fmul	 DWORD PTR _fScoreDelta$93943[ebp]
  00389	d9 5d a8	 fstp	 DWORD PTR _fScoreDelta$93943[ebp]

; 636  : 				m_fScoreAddition += fScoreDelta ;

  0038c	8b 45 f8	 mov	 eax, DWORD PTR _this$[ebp]
  0038f	d9 45 a8	 fld	 DWORD PTR _fScoreDelta$93943[ebp]
  00392	d8 80 4c 03 00
	00		 fadd	 DWORD PTR [eax+844]
  00398	8b 4d f8	 mov	 ecx, DWORD PTR _this$[ebp]
  0039b	d9 99 4c 03 00
	00		 fstp	 DWORD PTR [ecx+844]

; 637  : 			}
; 638  : 			else

  003a1	eb 0d		 jmp	 SHORT $L93941
$L93942:

; 639  : 				m_fTimeInScoreZone = 0 ;

  003a3	8b 45 f8	 mov	 eax, DWORD PTR _this$[ebp]
  003a6	c7 80 54 03 00
	00 00 00 00 00	 mov	 DWORD PTR [eax+852], 0
$L93941:

; 640  : 		}
; 641  : 
; 642  : 	//
; 643  : 	// Apply score additions incrementally;
; 644  : 	//
; 645  : 		if( m_fScoreAddition > 0 )

  003b0	8b 45 f8	 mov	 eax, DWORD PTR _this$[ebp]
  003b3	d9 80 4c 03 00
	00		 fld	 DWORD PTR [eax+844]
  003b9	d8 1d 00 00 00
	00		 fcomp	 DWORD PTR __real@00000000
  003bf	df e0		 fnstsw	 ax
  003c1	f6 c4 41	 test	 ah, 65			; 00000041H
  003c4	0f 85 b9 00 00
	00		 jne	 $L93945

; 646  : 		{
; 647  : 			/* messy, not good interface with scorezone additions; too difficult to tell
; 648  : 			   where scorezone starts/stops! */
; 649  : 			float f = ( m_fScoreAddition * 0.99f ); //  *FPS ;	// add this fraction of the of available points, every frame

  003ca	8b 45 f8	 mov	 eax, DWORD PTR _this$[ebp]
  003cd	d9 80 4c 03 00
	00		 fld	 DWORD PTR [eax+844]
  003d3	d8 0d 00 00 00
	00		 fmul	 DWORD PTR __real@3f7d70a4
  003d9	d9 5d 9c	 fstp	 DWORD PTR _f$93946[ebp]

; 650  : 			pRace->m_pX7->m_fScore +=	f ;

  003dc	8b 45 38	 mov	 eax, DWORD PTR _pRace$[ebp]
  003df	8b 48 38	 mov	 ecx, DWORD PTR [eax+56]
  003e2	d9 45 9c	 fld	 DWORD PTR _f$93946[ebp]
  003e5	d8 81 08 a9 02
	00		 fadd	 DWORD PTR [ecx+174344]
  003eb	8b 55 38	 mov	 edx, DWORD PTR _pRace$[ebp]
  003ee	8b 42 38	 mov	 eax, DWORD PTR [edx+56]
  003f1	d9 98 08 a9 02
	00		 fstp	 DWORD PTR [eax+174344]

; 651  : 			m_fScoreAddition -= f ;

  003f7	8b 45 f8	 mov	 eax, DWORD PTR _this$[ebp]
  003fa	d9 80 4c 03 00
	00		 fld	 DWORD PTR [eax+844]
  00400	d8 65 9c	 fsub	 DWORD PTR _f$93946[ebp]
  00403	8b 4d f8	 mov	 ecx, DWORD PTR _this$[ebp]
  00406	d9 99 4c 03 00
	00		 fstp	 DWORD PTR [ecx+844]

; 652  : 			if( m_fScoreAddition < 1 ) m_fScoreAddition = 0 ;

  0040c	8b 45 f8	 mov	 eax, DWORD PTR _this$[ebp]
  0040f	d9 80 4c 03 00
	00		 fld	 DWORD PTR [eax+844]
  00415	d8 1d 00 00 00
	00		 fcomp	 DWORD PTR __real@3f800000
  0041b	df e0		 fnstsw	 ax
  0041d	f6 c4 05	 test	 ah, 5
  00420	7a 0d		 jp	 SHORT $L93947
  00422	8b 45 f8	 mov	 eax, DWORD PTR _this$[ebp]
  00425	c7 80 4c 03 00
	00 00 00 00 00	 mov	 DWORD PTR [eax+844], 0
$L93947:

; 653  : 
; 654  : 			/*m_fScore += m_fScoreAddition ;
; 655  : 			m_fScoreAddition = 0 ;*/
; 656  : 
; 657  : 			m_bUpdatedScore = true ;

  0042f	8b 45 f8	 mov	 eax, DWORD PTR _this$[ebp]
  00432	c6 80 50 03 00
	00 01		 mov	 BYTE PTR [eax+848], 1

; 658  : 			if( m_pHUDScore )

  00439	8b 45 f8	 mov	 eax, DWORD PTR _this$[ebp]
  0043c	83 b8 7c 03 00
	00 00		 cmp	 DWORD PTR [eax+892], 0
  00443	74 3c		 je	 SHORT $L93948

; 659  : 			{
; 660  : 				sprintf( m_pHUDScore->m_szText, "%-12d", (int)pRace->m_pX7->m_fScore );

  00445	8b 45 38	 mov	 eax, DWORD PTR _pRace$[ebp]
  00448	8b 48 38	 mov	 ecx, DWORD PTR [eax+56]
  0044b	d9 81 08 a9 02
	00		 fld	 DWORD PTR [ecx+174344]
  00451	e8 00 00 00 00	 call	 __ftol2
  00456	50		 push	 eax
  00457	68 00 00 00 00	 push	 OFFSET FLAT:??_C@_05EOOECBPF@?$CF?912d?$AA@
  0045c	8b 55 f8	 mov	 edx, DWORD PTR _this$[ebp]
  0045f	8b 82 7c 03 00
	00		 mov	 eax, DWORD PTR [edx+892]
  00465	83 c0 1c	 add	 eax, 28			; 0000001cH
  00468	50		 push	 eax
  00469	e8 00 00 00 00	 call	 _sprintf
  0046e	83 c4 0c	 add	 esp, 12			; 0000000cH

; 661  : 				m_pHUDScore->SetFrameMoveRequired( TRUE );

  00471	6a 01		 push	 1
  00473	8b 45 f8	 mov	 eax, DWORD PTR _this$[ebp]
  00476	8b 88 7c 03 00
	00		 mov	 ecx, DWORD PTR [eax+892]
  0047c	e8 00 00 00 00	 call	 ?SetFrameMoveRequired@CHUDText@@QAEHH@Z ; CHUDText::SetFrameMoveRequired
$L93948:

; 662  : 			}
; 663  : 		}
; 664  : 		else

  00481	eb 0a		 jmp	 SHORT $L93951
$L93945:

; 665  : 		{
; 666  : 			m_bUpdatedScore = false ;

  00483	8b 45 f8	 mov	 eax, DWORD PTR _this$[ebp]
  00486	c6 80 50 03 00
	00 00		 mov	 BYTE PTR [eax+848], 0
$L93951:

; 667  : 		}
; 668  : 
; 669  : 	//
; 670  : 	// Make powerups decay over time;
; 671  : 	//
; 672  : 		if( m_fEngineLevel > 0.1f )

  0048d	8b 45 f8	 mov	 eax, DWORD PTR _this$[ebp]
  00490	d9 80 10 03 00
	00		 fld	 DWORD PTR [eax+784]
  00496	d8 1d 00 00 00
	00		 fcomp	 DWORD PTR __real@3dcccccd
  0049c	df e0		 fnstsw	 ax
  0049e	f6 c4 41	 test	 ah, 65			; 00000041H
  004a1	75 52		 jne	 SHORT $L93952

; 673  : 		{
; 674  : 			m_fEngineLevel *= 1.0f - ( 0.0005f * (60 / fFPS) );

  004a3	d9 05 00 00 00
	00		 fld	 DWORD PTR __real@42700000
  004a9	d8 75 10	 fdiv	 DWORD PTR _fFPS$[ebp]
  004ac	d8 0d 00 00 00
	00		 fmul	 DWORD PTR __real@3a03126f
  004b2	d8 2d 00 00 00
	00		 fsubr	 DWORD PTR __real@3f800000
  004b8	8b 45 f8	 mov	 eax, DWORD PTR _this$[ebp]
  004bb	d8 88 10 03 00
	00		 fmul	 DWORD PTR [eax+784]
  004c1	8b 4d f8	 mov	 ecx, DWORD PTR _this$[ebp]
  004c4	d9 99 10 03 00
	00		 fstp	 DWORD PTR [ecx+784]

; 675  : 			m_pHUDEngineLevel->m_fLevel = m_fEngineLevel ;

  004ca	8b 45 f8	 mov	 eax, DWORD PTR _this$[ebp]
  004cd	8b 88 70 03 00
	00		 mov	 ecx, DWORD PTR [eax+880]
  004d3	8b 55 f8	 mov	 edx, DWORD PTR _this$[ebp]
  004d6	8b 82 10 03 00
	00		 mov	 eax, DWORD PTR [edx+784]
  004dc	89 81 e8 00 00
	00		 mov	 DWORD PTR [ecx+232], eax

; 676  : 			m_pHUDEngineLevel->m_bFrameMoveRequired  = TRUE ;

  004e2	8b 45 f8	 mov	 eax, DWORD PTR _this$[ebp]
  004e5	8b 88 70 03 00
	00		 mov	 ecx, DWORD PTR [eax+880]
  004eb	c7 81 d0 00 00
	00 01 00 00 00	 mov	 DWORD PTR [ecx+208], 1
$L93952:

; 677  : 		}
; 678  : 		if( m_fWeaponsLevel > 0.1f )

  004f5	8b 45 f8	 mov	 eax, DWORD PTR _this$[ebp]
  004f8	d9 80 0c 03 00
	00		 fld	 DWORD PTR [eax+780]
  004fe	d8 1d 00 00 00
	00		 fcomp	 DWORD PTR __real@3dcccccd
  00504	df e0		 fnstsw	 ax
  00506	f6 c4 41	 test	 ah, 65			; 00000041H
  00509	75 52		 jne	 SHORT $L93953

; 679  : 		{
; 680  : 			m_fWeaponsLevel *= 1.0f - ( 0.0005f * (60 / fFPS) );

  0050b	d9 05 00 00 00
	00		 fld	 DWORD PTR __real@42700000
  00511	d8 75 10	 fdiv	 DWORD PTR _fFPS$[ebp]
  00514	d8 0d 00 00 00
	00		 fmul	 DWORD PTR __real@3a03126f
  0051a	d8 2d 00 00 00
	00		 fsubr	 DWORD PTR __real@3f800000
  00520	8b 45 f8	 mov	 eax, DWORD PTR _this$[ebp]
  00523	d8 88 0c 03 00
	00		 fmul	 DWORD PTR [eax+780]
  00529	8b 4d f8	 mov	 ecx, DWORD PTR _this$[ebp]
  0052c	d9 99 0c 03 00
	00		 fstp	 DWORD PTR [ecx+780]

; 681  : 			m_pHUDWeaponsLevel->m_fLevel = m_fWeaponsLevel ;

  00532	8b 45 f8	 mov	 eax, DWORD PTR _this$[ebp]
  00535	8b 88 68 03 00
	00		 mov	 ecx, DWORD PTR [eax+872]
  0053b	8b 55 f8	 mov	 edx, DWORD PTR _this$[ebp]
  0053e	8b 82 0c 03 00
	00		 mov	 eax, DWORD PTR [edx+780]
  00544	89 81 e8 00 00
	00		 mov	 DWORD PTR [ecx+232], eax

; 682  : 			m_pHUDWeaponsLevel->m_bFrameMoveRequired  = TRUE ;

  0054a	8b 45 f8	 mov	 eax, DWORD PTR _this$[ebp]
  0054d	8b 88 68 03 00
	00		 mov	 ecx, DWORD PTR [eax+872]
  00553	c7 81 d0 00 00
	00 01 00 00 00	 mov	 DWORD PTR [ecx+208], 1
$L93953:

; 683  : 		}
; 684  : 
; 685  : 	//
; 686  : 	// Manage HUD;
; 687  : 	//
; 688  : 		if( bShowHUD )

  0055d	83 7d 34 00	 cmp	 DWORD PTR _bShowHUD$[ebp], 0
  00561	0f 84 ab 01 00
	00		 je	 $L93954

; 689  : 		{
; 690  : 			FrameMoveSpaceScanner( pTerrain, pRace );

  00567	8b 45 38	 mov	 eax, DWORD PTR _pRace$[ebp]
  0056a	50		 push	 eax
  0056b	8b 4d 28	 mov	 ecx, DWORD PTR _pTerrain$[ebp]
  0056e	51		 push	 ecx
  0056f	8b 4d f8	 mov	 ecx, DWORD PTR _this$[ebp]
  00572	e8 00 00 00 00	 call	 ?FrameMoveSpaceScanner@CUserFighter@@QAEXPAVCTerrain@@PAVCRace@@@Z ; CUserFighter::FrameMoveSpaceScanner

; 691  : 
; 692  : 			if( m_bShieldLevelChanged )

  00577	8b 45 f8	 mov	 eax, DWORD PTR _this$[ebp]
  0057a	83 b8 14 03 00
	00 00		 cmp	 DWORD PTR [eax+788], 0
  00581	74 38		 je	 SHORT $L93955

; 693  : 			{
; 694  : 				m_pHUDShieldLevel->m_fLevel = m_fShieldLevel ;

  00583	8b 45 f8	 mov	 eax, DWORD PTR _this$[ebp]
  00586	8b 88 60 03 00
	00		 mov	 ecx, DWORD PTR [eax+864]
  0058c	8b 55 f8	 mov	 edx, DWORD PTR _this$[ebp]
  0058f	8b 82 08 03 00
	00		 mov	 eax, DWORD PTR [edx+776]
  00595	89 81 e8 00 00
	00		 mov	 DWORD PTR [ecx+232], eax

; 695  : 				m_pHUDShieldLevel->m_bFrameMoveRequired = TRUE ;

  0059b	8b 45 f8	 mov	 eax, DWORD PTR _this$[ebp]
  0059e	8b 88 60 03 00
	00		 mov	 ecx, DWORD PTR [eax+864]
  005a4	c7 81 d0 00 00
	00 01 00 00 00	 mov	 DWORD PTR [ecx+208], 1

; 696  : 				m_bShieldLevelChanged = FALSE ;

  005ae	8b 45 f8	 mov	 eax, DWORD PTR _this$[ebp]
  005b1	c7 80 14 03 00
	00 00 00 00 00	 mov	 DWORD PTR [eax+788], 0
$L93955:

; 697  : 			}
; 698  : 
; 699  : 			if( m_pHUDSpeed )

  005bb	8b 45 f8	 mov	 eax, DWORD PTR _this$[ebp]
  005be	83 b8 78 03 00
	00 00		 cmp	 DWORD PTR [eax+888], 0
  005c5	0f 84 99 00 00
	00		 je	 $L93956

; 700  : 			{	// always framemove speed and thrust indicator;
; 701  : 				//sprintf( m_pHUDSpeed->m_szText, "%03d%%", (int)ceil((fabs(m_fThrustMag) / m_fMaxThrustMag) * 100.0f) );
; 702  : 				sprintf( m_pHUDSpeed->m_szText, "%04d m/s [%03d%%]", (int)( /*m_fSpeed * fFPS*/m_fSpeedMS ), (int)ceil((fabs(m_fThrustMag) / m_fMaxThrustMag) * 100) );

  005cb	8b 45 f8	 mov	 eax, DWORD PTR _this$[ebp]
  005ce	d9 80 ac 01 00
	00		 fld	 DWORD PTR [eax+428]
  005d4	83 ec 08	 sub	 esp, 8
  005d7	dd 1c 24	 fstp	 QWORD PTR [esp]
  005da	e8 00 00 00 00	 call	 _fabs
  005df	83 c4 08	 add	 esp, 8
  005e2	8b 4d f8	 mov	 ecx, DWORD PTR _this$[ebp]
  005e5	d8 b1 b4 01 00
	00		 fdiv	 DWORD PTR [ecx+436]
  005eb	dc 0d 00 00 00
	00		 fmul	 QWORD PTR __real@4059000000000000
  005f1	83 ec 08	 sub	 esp, 8
  005f4	dd 1c 24	 fstp	 QWORD PTR [esp]
  005f7	e8 00 00 00 00	 call	 _ceil
  005fc	83 c4 08	 add	 esp, 8
  005ff	e8 00 00 00 00	 call	 __ftol2
  00604	50		 push	 eax
  00605	8b 55 f8	 mov	 edx, DWORD PTR _this$[ebp]
  00608	d9 82 f8 02 00
	00		 fld	 DWORD PTR [edx+760]
  0060e	e8 00 00 00 00	 call	 __ftol2
  00613	50		 push	 eax
  00614	68 00 00 00 00	 push	 OFFSET FLAT:??_C@_0BC@JCJDJAAO@?$CF04d?5m?1s?5?$FL?$CF03d?$CF?$CF?$FN?$AA@
  00619	8b 45 f8	 mov	 eax, DWORD PTR _this$[ebp]
  0061c	8b 88 78 03 00
	00		 mov	 ecx, DWORD PTR [eax+888]
  00622	83 c1 1c	 add	 ecx, 28			; 0000001cH
  00625	51		 push	 ecx
  00626	e8 00 00 00 00	 call	 _sprintf
  0062b	83 c4 10	 add	 esp, 16			; 00000010H

; 703  : 
; 704  : 				m_pHUDSpeed->SetFrameMoveRequired( TRUE );

  0062e	6a 01		 push	 1
  00630	8b 45 f8	 mov	 eax, DWORD PTR _this$[ebp]
  00633	8b 88 78 03 00
	00		 mov	 ecx, DWORD PTR [eax+888]
  00639	e8 00 00 00 00	 call	 ?SetFrameMoveRequired@CHUDText@@QAEHH@Z ; CHUDText::SetFrameMoveRequired

; 705  : 				m_pHUDSpeed->FrameMove( pDev, pInput, m_pOM->m_pVBVertices );

  0063e	8b 45 f8	 mov	 eax, DWORD PTR _this$[ebp]
  00641	8b 88 48 03 00
	00		 mov	 ecx, DWORD PTR [eax+840]
  00647	8b 91 94 02 00
	00		 mov	 edx, DWORD PTR [ecx+660]
  0064d	52		 push	 edx
  0064e	8b 45 0c	 mov	 eax, DWORD PTR _pInput$[ebp]
  00651	50		 push	 eax
  00652	8b 4d 08	 mov	 ecx, DWORD PTR _pDev$[ebp]
  00655	51		 push	 ecx
  00656	8b 55 f8	 mov	 edx, DWORD PTR _this$[ebp]
  00659	8b 8a 78 03 00
	00		 mov	 ecx, DWORD PTR [edx+888]
  0065f	e8 00 00 00 00	 call	 ?FrameMove@CHUDText@@QAEJPAUIDirect3DDevice8@@PAVCUserInput@@PAUOVERLAYVERTEX@@@Z ; CHUDText::FrameMove
$L93956:

; 706  : 			}
; 707  : 
; 708  : 			if( m_pHUDItems->m_bFrameMoveRequired )

  00664	8b 45 f8	 mov	 eax, DWORD PTR _this$[ebp]
  00667	8b 88 80 03 00
	00		 mov	 ecx, DWORD PTR [eax+896]
  0066d	83 b9 20 01 00
	00 00		 cmp	 DWORD PTR [ecx+288], 0
  00674	74 29		 je	 SHORT $L93960

; 709  : 				m_pHUDItems->FrameMove( pDev, pInput, pRace->m_pX7->m_pOverlayMan->m_pVBVertices );

  00676	8b 45 38	 mov	 eax, DWORD PTR _pRace$[ebp]
  00679	8b 48 38	 mov	 ecx, DWORD PTR [eax+56]
  0067c	8b 91 d8 a8 02
	00		 mov	 edx, DWORD PTR [ecx+174296]
  00682	8b 82 94 02 00
	00		 mov	 eax, DWORD PTR [edx+660]
  00688	50		 push	 eax
  00689	8b 4d 0c	 mov	 ecx, DWORD PTR _pInput$[ebp]
  0068c	51		 push	 ecx
  0068d	8b 55 08	 mov	 edx, DWORD PTR _pDev$[ebp]
  00690	52		 push	 edx
  00691	8b 45 f8	 mov	 eax, DWORD PTR _this$[ebp]
  00694	8b 88 80 03 00
	00		 mov	 ecx, DWORD PTR [eax+896]
  0069a	e8 00 00 00 00	 call	 ?FrameMove@CHUDText@@QAEJPAUIDirect3DDevice8@@PAVCUserInput@@PAUOVERLAYVERTEX@@@Z ; CHUDText::FrameMove
$L93960:

; 710  : 
; 711  : 			if( m_pHUDScore->m_bFrameMoveRequired )

  0069f	8b 45 f8	 mov	 eax, DWORD PTR _this$[ebp]
  006a2	8b 88 7c 03 00
	00		 mov	 ecx, DWORD PTR [eax+892]
  006a8	83 b9 20 01 00
	00 00		 cmp	 DWORD PTR [ecx+288], 0
  006af	74 29		 je	 SHORT $L93961

; 712  : 				m_pHUDScore->FrameMove( pDev, pInput, pRace->m_pX7->m_pOverlayMan->m_pVBVertices );

  006b1	8b 45 38	 mov	 eax, DWORD PTR _pRace$[ebp]
  006b4	8b 48 38	 mov	 ecx, DWORD PTR [eax+56]
  006b7	8b 91 d8 a8 02
	00		 mov	 edx, DWORD PTR [ecx+174296]
  006bd	8b 82 94 02 00
	00		 mov	 eax, DWORD PTR [edx+660]
  006c3	50		 push	 eax
  006c4	8b 4d 0c	 mov	 ecx, DWORD PTR _pInput$[ebp]
  006c7	51		 push	 ecx
  006c8	8b 55 08	 mov	 edx, DWORD PTR _pDev$[ebp]
  006cb	52		 push	 edx
  006cc	8b 45 f8	 mov	 eax, DWORD PTR _this$[ebp]
  006cf	8b 88 7c 03 00
	00		 mov	 ecx, DWORD PTR [eax+892]
  006d5	e8 00 00 00 00	 call	 ?FrameMove@CHUDText@@QAEJPAUIDirect3DDevice8@@PAVCUserInput@@PAUOVERLAYVERTEX@@@Z ; CHUDText::FrameMove
$L93961:

; 713  : 
; 714  : 			if( m_pHUDLives->m_bFrameMoveRequired )

  006da	8b 45 f8	 mov	 eax, DWORD PTR _this$[ebp]
  006dd	8b 88 84 03 00
	00		 mov	 ecx, DWORD PTR [eax+900]
  006e3	83 b9 20 01 00
	00 00		 cmp	 DWORD PTR [ecx+288], 0
  006ea	74 26		 je	 SHORT $L93954

; 715  : 				m_pHUDLives->FrameMove( pDev, pInput, m_pOM->m_pVBVertices );

  006ec	8b 45 f8	 mov	 eax, DWORD PTR _this$[ebp]
  006ef	8b 88 48 03 00
	00		 mov	 ecx, DWORD PTR [eax+840]
  006f5	8b 91 94 02 00
	00		 mov	 edx, DWORD PTR [ecx+660]
  006fb	52		 push	 edx
  006fc	8b 45 0c	 mov	 eax, DWORD PTR _pInput$[ebp]
  006ff	50		 push	 eax
  00700	8b 4d 08	 mov	 ecx, DWORD PTR _pDev$[ebp]
  00703	51		 push	 ecx
  00704	8b 55 f8	 mov	 edx, DWORD PTR _this$[ebp]
  00707	8b 8a 84 03 00
	00		 mov	 ecx, DWORD PTR [edx+900]
  0070d	e8 00 00 00 00	 call	 ?FrameMove@CHUDText@@QAEJPAUIDirect3DDevice8@@PAVCUserInput@@PAUOVERLAYVERTEX@@@Z ; CHUDText::FrameMove
$L93954:

; 716  : 		}
; 717  : 
; 718  : 		return ret ;

  00712	8b 45 c0	 mov	 eax, DWORD PTR _ret$[ebp]
$L93924:

; 719  : 	}

  00715	52		 push	 edx
  00716	8b cd		 mov	 ecx, ebp
  00718	50		 push	 eax
  00719	8d 15 00 00 00
	00		 lea	 edx, DWORD PTR $L94402
  0071f	e8 00 00 00 00	 call	 @_RTC_CheckStackVars@8
  00724	58		 pop	 eax
  00725	5a		 pop	 edx
  00726	5f		 pop	 edi
  00727	5e		 pop	 esi
  00728	5b		 pop	 ebx
  00729	81 c4 28 01 00
	00		 add	 esp, 296		; 00000128H
  0072f	3b ec		 cmp	 ebp, esp
  00731	e8 00 00 00 00	 call	 __RTC_CheckEsp
  00736	8b e5		 mov	 esp, ebp
  00738	5d		 pop	 ebp
  00739	c2 34 00	 ret	 52			; 00000034H
$L94402:
  0073c	02 00 00 00	 DD	 2
  00740	00 00 00 00	 DD	 $L94401
$L94401:
  00744	d8 ff ff ff	 DD	 -40			; ffffffd8H
  00748	0c 00 00 00	 DD	 12			; 0000000cH
  0074c	00 00 00 00	 DD	 $L94399
  00750	cc ff ff ff	 DD	 -52			; ffffffccH
  00754	04 00 00 00	 DD	 4
  00758	00 00 00 00	 DD	 $L94400
$L94400:
  0075c	66		 DB	 102			; 00000066H
  0075d	59		 DB	 89			; 00000059H
  0075e	61		 DB	 97			; 00000061H
  0075f	77		 DB	 119			; 00000077H
  00760	44		 DB	 68			; 00000044H
  00761	65		 DB	 101			; 00000065H
  00762	6c		 DB	 108			; 0000006cH
  00763	74		 DB	 116			; 00000074H
  00764	61		 DB	 97			; 00000061H
  00765	00		 DB	 0
$L94399:
  00766	76		 DB	 118			; 00000076H
  00767	53		 DB	 83			; 00000053H
  00768	74		 DB	 116			; 00000074H
  00769	61		 DB	 97			; 00000061H
  0076a	72		 DB	 114			; 00000072H
  0076b	74		 DB	 116			; 00000074H
  0076c	50		 DB	 80			; 00000050H
  0076d	6f		 DB	 111			; 0000006fH
  0076e	73		 DB	 115			; 00000073H
  0076f	69		 DB	 105			; 00000069H
  00770	74		 DB	 116			; 00000074H
  00771	69		 DB	 105			; 00000069H
  00772	6f		 DB	 111			; 0000006fH
  00773	6e		 DB	 110			; 0000006eH
  00774	00		 DB	 0
?FrameMove@CUserFighter@@QAEHPAUIDirect3DDevice8@@PAVCUserInput@@MPAVCCamera@@PAUD3DXMATRIX@@PAU_D3DVIEWPORT8@@HHPAVCTerrain@@HMHPAVCRace@@@Z ENDP ; CUserFighter::FrameMove
; Function compile flags: /Odt /RTCsu /ZI
; File c:\program files\microsoft visual studio .net\vc7\include\math.h
_TEXT	ENDS
;	COMDAT _fabsf
_TEXT	SEGMENT
tv70 = -196
__X$ = 8
_fabsf	PROC NEAR					; COMDAT

; 450  :         {return ((float)fabs((double)_X)); }

  00000	55		 push	 ebp
  00001	8b ec		 mov	 ebp, esp
  00003	81 ec c4 00 00
	00		 sub	 esp, 196		; 000000c4H
  00009	53		 push	 ebx
  0000a	56		 push	 esi
  0000b	57		 push	 edi
  0000c	8d bd 3c ff ff
	ff		 lea	 edi, DWORD PTR [ebp-196]
  00012	b9 31 00 00 00	 mov	 ecx, 49			; 00000031H
  00017	b8 cc cc cc cc	 mov	 eax, -858993460		; ccccccccH
  0001c	f3 ab		 rep stosd
  0001e	d9 45 08	 fld	 DWORD PTR __X$[ebp]
  00021	83 ec 08	 sub	 esp, 8
  00024	dd 1c 24	 fstp	 QWORD PTR [esp]
  00027	e8 00 00 00 00	 call	 _fabs
  0002c	83 c4 08	 add	 esp, 8
  0002f	d9 95 3c ff ff
	ff		 fst	 DWORD PTR tv70[ebp]
  00035	5f		 pop	 edi
  00036	5e		 pop	 esi
  00037	5b		 pop	 ebx
  00038	81 c4 c4 00 00
	00		 add	 esp, 196		; 000000c4H
  0003e	3b ec		 cmp	 ebp, esp
  00040	e8 00 00 00 00	 call	 __RTC_CheckEsp
  00045	8b e5		 mov	 esp, ebp
  00047	5d		 pop	 ebp
  00048	c3		 ret	 0
_fabsf	ENDP
_TEXT	ENDS
PUBLIC	??0D3DXMATRIX@@QAE@XZ				; D3DXMATRIX::D3DXMATRIX
PUBLIC	??_H@YGXPAXIHP6EPAX0@Z@Z			; `vector constructor iterator'
PUBLIC	__real@3f400000
PUBLIC	??BD3DXCOLOR@@QBEKXZ				; D3DXCOLOR::operator unsigned long
PUBLIC	?D3DXVec2Length@@YAMPBUD3DXVECTOR2@@@Z		; D3DXVec2Length
PUBLIC	?__LINE__Var@?1??FrameMoveSpaceScanner@CUserFighter@@QAEXPAVCTerrain@@PAVCRace@@@Z@4JA ; `CUserFighter::FrameMoveSpaceScanner'::`2'::__LINE__Var
PUBLIC	??GD3DXVECTOR2@@QBE?AU0@ABU0@@Z			; D3DXVECTOR2::operator-
EXTRN	__chkstk:NEAR
;	COMDAT __real@3f400000
; File c:\documents and settings\dom\my documents\_dev\ae\xlr8a\x7g\cuserfighter.cpp
CONST	SEGMENT
__real@3f400000 DD 03f400000r			; 0.75
CONST	ENDS
;	COMDAT ?__LINE__Var@?1??FrameMoveSpaceScanner@CUserFighter@@QAEXPAVCTerrain@@PAVCRace@@@Z@4JA
_DATA	SEGMENT
?__LINE__Var@?1??FrameMoveSpaceScanner@CUserFighter@@QAEXPAVCTerrain@@PAVCRace@@@Z@4JA DD 02d7H ; `CUserFighter::FrameMoveSpaceScanner'::`2'::__LINE__Var
; Function compile flags: /Odt /RTCsu /ZI
_DATA	ENDS
;	COMDAT ?FrameMoveSpaceScanner@CUserFighter@@QAEXPAVCTerrain@@PAVCRace@@@Z
_TEXT	SEGMENT
tv250 = -12980
tv186 = -12980
$T94419 = -12972
$T94418 = -12948
$T94417 = -12924
$T94416 = -12900
$T94415 = -12876
$T94414 = -12852
$T94413 = -12828
$T94412 = -12812
$T94411 = -12796
$T94410 = -12780
$T94409 = -12764
$T94407 = -12748
_fD$94017 = -12540
_v2D$94015 = -12528
_pBot$ = -12512
_fD$94001 = -12500
_v2D$93999 = -12488
_fScannerRadius$ = -12472
_j$ = -12460
_i$ = -12448
_nPoints$ = -12436
_matRot$ = -12424
_nPointTypes$ = -12352
_vPoints$ = -8248
_v2DPosition$ = -48
_hr$ = -32
_pv$ = -20
_this$ = -8
_pTerrain$ = 8
_pRace$ = 12
?FrameMoveSpaceScanner@CUserFighter@@QAEXPAVCTerrain@@PAVCRace@@@Z PROC NEAR ; CUserFighter::FrameMoveSpaceScanner, COMDAT
; _this$ = ecx

; 727  : 	{

  00000	55		 push	 ebp
  00001	8b ec		 mov	 ebp, esp
  00003	b8 b4 32 00 00	 mov	 eax, 12980		; 000032b4H
  00008	e8 00 00 00 00	 call	 __chkstk
  0000d	53		 push	 ebx
  0000e	56		 push	 esi
  0000f	57		 push	 edi
  00010	51		 push	 ecx
  00011	8d bd 4c cd ff
	ff		 lea	 edi, DWORD PTR [ebp-12980]
  00017	b9 ad 0c 00 00	 mov	 ecx, 3245		; 00000cadH
  0001c	b8 cc cc cc cc	 mov	 eax, -858993460		; ccccccccH
  00021	f3 ab		 rep stosd
  00023	59		 pop	 ecx
  00024	89 4d f8	 mov	 DWORD PTR _this$[ebp], ecx

; 728  : 		POINTSPRITEVERTEX* pv ;
; 729  : 		HRESULT		hr ;
; 730  : 		xVec2 v2DPosition ;

  00027	8d 4d d0	 lea	 ecx, DWORD PTR _v2DPosition$[ebp]
  0002a	e8 00 00 00 00	 call	 ??0D3DXVECTOR2@@QAE@XZ	; D3DXVECTOR2::D3DXVECTOR2

; 731  : 		xVec2 vPoints[ MAX_SCANNER_POINTS ];

  0002f	68 00 00 00 00	 push	 OFFSET FLAT:??0D3DXVECTOR2@@QAE@XZ ; D3DXVECTOR2::D3DXVECTOR2
  00034	68 00 04 00 00	 push	 1024			; 00000400H
  00039	6a 08		 push	 8
  0003b	8d 85 c8 df ff
	ff		 lea	 eax, DWORD PTR _vPoints$[ebp]
  00041	50		 push	 eax
  00042	e8 00 00 00 00	 call	 ??_H@YGXPAXIHP6EPAX0@Z@Z

; 732  : 		int			nPointTypes[ MAX_SCANNER_POINTS ];
; 733  : 		xMat		matRot ;

  00047	8d 8d 78 cf ff
	ff		 lea	 ecx, DWORD PTR _matRot$[ebp]
  0004d	e8 00 00 00 00	 call	 ??0D3DXMATRIX@@QAE@XZ	; D3DXMATRIX::D3DXMATRIX

; 734  : 		int			nPoints = 0, i , j ;

  00052	c7 85 6c cf ff
	ff 00 00 00 00	 mov	 DWORD PTR _nPoints$[ebp], 0

; 735  : 		float		fScannerRadius = pTerrain->m_fLenSQ * 0.75f ;

  0005c	8b 45 08	 mov	 eax, DWORD PTR _pTerrain$[ebp]
  0005f	d9 40 18	 fld	 DWORD PTR [eax+24]
  00062	d8 0d 00 00 00
	00		 fmul	 DWORD PTR __real@3f400000
  00068	d9 9d 48 cf ff
	ff		 fstp	 DWORD PTR _fScannerRadius$[ebp]

; 736  : 		enum _ePointTypes
; 737  : 		{
; 738  : 			PT_CHERRY = 0, PT_SHIELD, PT_ENGINE, PT_WEAPON, PT_HEALTH, PT_THISFIGHTER,
; 739  : 			PT_ENEMY1
; 740  : 		} ;
; 741  : 
; 742  : 		v2DPosition = xVec2( m_vPosition.x, m_vPosition.z );

  0006e	8b 45 f8	 mov	 eax, DWORD PTR _this$[ebp]
  00071	8b 88 04 02 00
	00		 mov	 ecx, DWORD PTR [eax+516]
  00077	51		 push	 ecx
  00078	8b 55 f8	 mov	 edx, DWORD PTR _this$[ebp]
  0007b	8b 82 fc 01 00
	00		 mov	 eax, DWORD PTR [edx+508]
  00081	50		 push	 eax
  00082	8d 8d 34 ce ff
	ff		 lea	 ecx, DWORD PTR $T94407[ebp]
  00088	e8 00 00 00 00	 call	 ??0D3DXVECTOR2@@QAE@MM@Z ; D3DXVECTOR2::D3DXVECTOR2
  0008d	8b 08		 mov	 ecx, DWORD PTR [eax]
  0008f	8b 50 04	 mov	 edx, DWORD PTR [eax+4]
  00092	89 4d d0	 mov	 DWORD PTR _v2DPosition$[ebp], ecx
  00095	89 55 d4	 mov	 DWORD PTR _v2DPosition$[ebp+4], edx

; 743  : 
; 744  : 		hr = m_pVB_Scanner->Lock( 0, 0, (BYTE**)&pv, D3DLOCK_DISCARD );

  00098	8b f4		 mov	 esi, esp
  0009a	68 00 20 00 00	 push	 8192			; 00002000H
  0009f	8d 45 ec	 lea	 eax, DWORD PTR _pv$[ebp]
  000a2	50		 push	 eax
  000a3	6a 00		 push	 0
  000a5	6a 00		 push	 0
  000a7	8b 4d f8	 mov	 ecx, DWORD PTR _this$[ebp]
  000aa	8b 91 94 03 00
	00		 mov	 edx, DWORD PTR [ecx+916]
  000b0	8b 45 f8	 mov	 eax, DWORD PTR _this$[ebp]
  000b3	8b 88 94 03 00
	00		 mov	 ecx, DWORD PTR [eax+916]
  000b9	8b 12		 mov	 edx, DWORD PTR [edx]
  000bb	51		 push	 ecx
  000bc	ff 52 2c	 call	 DWORD PTR [edx+44]
  000bf	3b f4		 cmp	 esi, esp
  000c1	e8 00 00 00 00	 call	 __RTC_CheckEsp
  000c6	89 45 e0	 mov	 DWORD PTR _hr$[ebp], eax

; 745  : 		assert( !FAILED(hr) );

  000c9	83 7d e0 00	 cmp	 DWORD PTR _hr$[ebp], 0
  000cd	7d 1b		 jge	 SHORT $L94408
  000cf	a1 00 00 00 00	 mov	 eax, DWORD PTR ?__LINE__Var@?1??FrameMoveSpaceScanner@CUserFighter@@QAEXPAVCTerrain@@PAVCRace@@@Z@4JA
  000d4	83 c0 12	 add	 eax, 18			; 00000012H
  000d7	50		 push	 eax
  000d8	68 00 00 00 00	 push	 OFFSET FLAT:??_C@_0EO@MJDOOBEE@c?3?2documents?5and?5settings?2dom?2my@
  000dd	68 00 00 00 00	 push	 OFFSET FLAT:??_C@_0M@NKNCPJJD@?$CBFAILED?$CIhr?$CJ?$AA@
  000e2	e8 00 00 00 00	 call	 __assert
  000e7	83 c4 0c	 add	 esp, 12			; 0000000cH
$L94408:

; 746  : 
; 747  : 	// add this fighter, always at the center!
; 748  : 		vPoints[ nPoints ] = xVec2( 0.0f, 0.0f );

  000ea	6a 00		 push	 0
  000ec	6a 00		 push	 0
  000ee	8d 8d 24 ce ff
	ff		 lea	 ecx, DWORD PTR $T94409[ebp]
  000f4	e8 00 00 00 00	 call	 ??0D3DXVECTOR2@@QAE@MM@Z ; D3DXVECTOR2::D3DXVECTOR2
  000f9	8b 08		 mov	 ecx, DWORD PTR [eax]
  000fb	8b 50 04	 mov	 edx, DWORD PTR [eax+4]
  000fe	8b 85 6c cf ff
	ff		 mov	 eax, DWORD PTR _nPoints$[ebp]
  00104	89 8c c5 c8 df
	ff ff		 mov	 DWORD PTR _vPoints$[ebp+eax*8], ecx
  0010b	89 94 c5 cc df
	ff ff		 mov	 DWORD PTR _vPoints$[ebp+eax*8+4], edx

; 749  : 		nPointTypes[ nPoints ] = PT_THISFIGHTER ;

  00112	8b 85 6c cf ff
	ff		 mov	 eax, DWORD PTR _nPoints$[ebp]
  00118	c7 84 85 c0 cf
	ff ff 05 00 00
	00		 mov	 DWORD PTR _nPointTypes$[ebp+eax*4], 5

; 750  : 		nPoints++ ;

  00123	8b 85 6c cf ff
	ff		 mov	 eax, DWORD PTR _nPoints$[ebp]
  00129	83 c0 01	 add	 eax, 1
  0012c	89 85 6c cf ff
	ff		 mov	 DWORD PTR _nPoints$[ebp], eax

; 751  : 
; 752  : 	// add gameitems (CHERRIES only) ;
; 753  : 		for( i = 0; i < pTerrain->m_nPatchesSQ * pTerrain->m_nPatchesSQ ; i++ )

  00132	c7 85 60 cf ff
	ff 00 00 00 00	 mov	 DWORD PTR _i$[ebp], 0
  0013c	eb 0f		 jmp	 SHORT $L93993
$L93994:
  0013e	8b 85 60 cf ff
	ff		 mov	 eax, DWORD PTR _i$[ebp]
  00144	83 c0 01	 add	 eax, 1
  00147	89 85 60 cf ff
	ff		 mov	 DWORD PTR _i$[ebp], eax
$L93993:
  0014d	8b 45 08	 mov	 eax, DWORD PTR _pTerrain$[ebp]
  00150	8b 4d 08	 mov	 ecx, DWORD PTR _pTerrain$[ebp]
  00153	8b 50 08	 mov	 edx, DWORD PTR [eax+8]
  00156	0f af 51 08	 imul	 edx, DWORD PTR [ecx+8]
  0015a	39 95 60 cf ff
	ff		 cmp	 DWORD PTR _i$[ebp], edx
  00160	0f 8d 5c 01 00
	00		 jge	 $L93995

; 754  : 			for( j = 0 ; j < pTerrain->m_pPatches[ i ]->m_nItems ; j++ )

  00166	c7 85 54 cf ff
	ff 00 00 00 00	 mov	 DWORD PTR _j$[ebp], 0
  00170	eb 0f		 jmp	 SHORT $L93996
$L93997:
  00172	8b 85 54 cf ff
	ff		 mov	 eax, DWORD PTR _j$[ebp]
  00178	83 c0 01	 add	 eax, 1
  0017b	89 85 54 cf ff
	ff		 mov	 DWORD PTR _j$[ebp], eax
$L93996:
  00181	8b 45 08	 mov	 eax, DWORD PTR _pTerrain$[ebp]
  00184	8b 88 fc 04 00
	00		 mov	 ecx, DWORD PTR [eax+1276]
  0018a	8b 95 60 cf ff
	ff		 mov	 edx, DWORD PTR _i$[ebp]
  00190	8b 04 91	 mov	 eax, DWORD PTR [ecx+edx*4]
  00193	8b 8d 54 cf ff
	ff		 mov	 ecx, DWORD PTR _j$[ebp]
  00199	3b 48 10	 cmp	 ecx, DWORD PTR [eax+16]
  0019c	0f 8d 1b 01 00
	00		 jge	 $L93998

; 755  : 			{
; 756  : 				xVec2 v2D = xVec2( pTerrain->m_pPatches[ i ]->m_pItems[ j ].vPos.x, 
; 757  : 								   pTerrain->m_pPatches[ i ]->m_pItems[ j ].vPos.z );

  001a2	8b 45 08	 mov	 eax, DWORD PTR _pTerrain$[ebp]
  001a5	8b 88 fc 04 00
	00		 mov	 ecx, DWORD PTR [eax+1276]
  001ab	8b 95 60 cf ff
	ff		 mov	 edx, DWORD PTR _i$[ebp]
  001b1	8b 04 91	 mov	 eax, DWORD PTR [ecx+edx*4]
  001b4	8b 8d 54 cf ff
	ff		 mov	 ecx, DWORD PTR _j$[ebp]
  001ba	6b c9 2c	 imul	 ecx, 44			; 0000002cH
  001bd	8b 50 0c	 mov	 edx, DWORD PTR [eax+12]
  001c0	8b 44 0a 0c	 mov	 eax, DWORD PTR [edx+ecx+12]
  001c4	50		 push	 eax
  001c5	8b 4d 08	 mov	 ecx, DWORD PTR _pTerrain$[ebp]
  001c8	8b 91 fc 04 00
	00		 mov	 edx, DWORD PTR [ecx+1276]
  001ce	8b 85 60 cf ff
	ff		 mov	 eax, DWORD PTR _i$[ebp]
  001d4	8b 0c 82	 mov	 ecx, DWORD PTR [edx+eax*4]
  001d7	8b 95 54 cf ff
	ff		 mov	 edx, DWORD PTR _j$[ebp]
  001dd	6b d2 2c	 imul	 edx, 44			; 0000002cH
  001e0	8b 41 0c	 mov	 eax, DWORD PTR [ecx+12]
  001e3	8b 4c 10 04	 mov	 ecx, DWORD PTR [eax+edx+4]
  001e7	51		 push	 ecx
  001e8	8d 8d 38 cf ff
	ff		 lea	 ecx, DWORD PTR _v2D$93999[ebp]
  001ee	e8 00 00 00 00	 call	 ??0D3DXVECTOR2@@QAE@MM@Z ; D3DXVECTOR2::D3DXVECTOR2

; 758  : 				float fD = fabsf( D3DXVec2Length( &(v2D -v2DPosition)) );

  001f3	8d 45 d0	 lea	 eax, DWORD PTR _v2DPosition$[ebp]
  001f6	50		 push	 eax
  001f7	8d 8d 14 ce ff
	ff		 lea	 ecx, DWORD PTR $T94410[ebp]
  001fd	51		 push	 ecx
  001fe	8d 8d 38 cf ff
	ff		 lea	 ecx, DWORD PTR _v2D$93999[ebp]
  00204	e8 00 00 00 00	 call	 ??GD3DXVECTOR2@@QBE?AU0@ABU0@@Z ; D3DXVECTOR2::operator-
  00209	50		 push	 eax
  0020a	e8 00 00 00 00	 call	 ?D3DXVec2Length@@YAMPBUD3DXVECTOR2@@@Z ; D3DXVec2Length
  0020f	d9 1c 24	 fstp	 DWORD PTR [esp]
  00212	e8 00 00 00 00	 call	 _fabsf
  00217	83 c4 04	 add	 esp, 4
  0021a	d9 9d 2c cf ff
	ff		 fstp	 DWORD PTR _fD$94001[ebp]

; 759  : 
; 760  : 				if( fD <  fScannerRadius )

  00220	d9 85 2c cf ff
	ff		 fld	 DWORD PTR _fD$94001[ebp]
  00226	d8 9d 48 cf ff
	ff		 fcomp	 DWORD PTR _fScannerRadius$[ebp]
  0022c	df e0		 fnstsw	 ax
  0022e	f6 c4 05	 test	 ah, 5
  00231	0f 8a 81 00 00
	00		 jp	 $L94003

; 761  : 				{
; 762  : 					switch( pTerrain->m_pPatches[ i ]->m_pItems[ j ].nType )
; 763  : 					{

  00237	8b 45 08	 mov	 eax, DWORD PTR _pTerrain$[ebp]
  0023a	8b 88 fc 04 00
	00		 mov	 ecx, DWORD PTR [eax+1276]
  00240	8b 95 60 cf ff
	ff		 mov	 edx, DWORD PTR _i$[ebp]
  00246	8b 04 91	 mov	 eax, DWORD PTR [ecx+edx*4]
  00249	8b 8d 54 cf ff
	ff		 mov	 ecx, DWORD PTR _j$[ebp]
  0024f	6b c9 2c	 imul	 ecx, 44			; 0000002cH
  00252	8b 50 0c	 mov	 edx, DWORD PTR [eax+12]
  00255	8b 04 11	 mov	 eax, DWORD PTR [ecx+edx]
  00258	89 85 4c cd ff
	ff		 mov	 DWORD PTR tv186[ebp], eax
  0025e	83 bd 4c cd ff
	ff 00		 cmp	 DWORD PTR tv186[ebp], 0
  00265	74 02		 je	 SHORT $L94008
  00267	eb 4f		 jmp	 SHORT $L94003
$L94008:

; 764  : 						case IT_CHERRY: nPointTypes[ nPoints ] = PT_CHERRY ;

  00269	8b 85 6c cf ff
	ff		 mov	 eax, DWORD PTR _nPoints$[ebp]
  0026f	c7 84 85 c0 cf
	ff ff 00 00 00
	00		 mov	 DWORD PTR _nPointTypes$[ebp+eax*4], 0

; 765  : 				 					    vPoints[ nPoints++ ] = v2DPosition - v2D ;

  0027a	8d 85 38 cf ff
	ff		 lea	 eax, DWORD PTR _v2D$93999[ebp]
  00280	50		 push	 eax
  00281	8d 8d 04 ce ff
	ff		 lea	 ecx, DWORD PTR $T94411[ebp]
  00287	51		 push	 ecx
  00288	8d 4d d0	 lea	 ecx, DWORD PTR _v2DPosition$[ebp]
  0028b	e8 00 00 00 00	 call	 ??GD3DXVECTOR2@@QBE?AU0@ABU0@@Z ; D3DXVECTOR2::operator-
  00290	8b 10		 mov	 edx, DWORD PTR [eax]
  00292	8b 40 04	 mov	 eax, DWORD PTR [eax+4]
  00295	8b 8d 6c cf ff
	ff		 mov	 ecx, DWORD PTR _nPoints$[ebp]
  0029b	89 94 cd c8 df
	ff ff		 mov	 DWORD PTR _vPoints$[ebp+ecx*8], edx
  002a2	89 84 cd cc df
	ff ff		 mov	 DWORD PTR _vPoints$[ebp+ecx*8+4], eax
  002a9	8b 95 6c cf ff
	ff		 mov	 edx, DWORD PTR _nPoints$[ebp]
  002af	83 c2 01	 add	 edx, 1
  002b2	89 95 6c cf ff
	ff		 mov	 DWORD PTR _nPoints$[ebp], edx
$L94003:

; 766  : 										break ;
; 767  : 						
; 768  : 						/*case IT_SHIELD: nPointTypes[ nPoints ] = PT_SHIELD ;
; 769  : 				 					    vPoints[ nPoints++ ] = v2DPosition - v2D ;
; 770  : 										break ;
; 771  : 
; 772  : 						case IT_ENGINE: nPointTypes[ nPoints ] = PT_ENGINE ;
; 773  : 				 					    vPoints[ nPoints++ ] = v2DPosition - v2D ;
; 774  : 										break ;
; 775  : 
; 776  : 						case IT_WEAPON: nPointTypes[ nPoints ] = PT_WEAPON ;
; 777  : 				 					    vPoints[ nPoints++ ] = v2DPosition - v2D ;
; 778  : 										break ;
; 779  : 
; 780  : 						case IT_HEALTH: nPointTypes[ nPoints ] = PT_HEALTH ;
; 781  : 				 					    vPoints[ nPoints++ ] = v2DPosition - v2D ;
; 782  : 										break ;*/
; 783  : 						
; 784  : 					}
; 785  : 				}
; 786  : 			}

  002b8	e9 b5 fe ff ff	 jmp	 $L93997
$L93998:
  002bd	e9 7c fe ff ff	 jmp	 $L93994
$L93995:

; 787  : 
; 788  : 		BOT_FIGHTER* pBot = pRace->m_pBots ;

  002c2	8b 45 0c	 mov	 eax, DWORD PTR _pRace$[ebp]
  002c5	8b 48 14	 mov	 ecx, DWORD PTR [eax+20]
  002c8	89 8d 20 cf ff
	ff		 mov	 DWORD PTR _pBot$[ebp], ecx
$L94012:

; 789  : 		while( pBot )

  002ce	83 bd 20 cf ff
	ff 00		 cmp	 DWORD PTR _pBot$[ebp], 0
  002d5	0f 84 e6 00 00
	00		 je	 $L94013

; 790  : 		{
; 791  : 			if( !pBot->pFighter->m_bBotIsDead )

  002db	8b 85 20 cf ff
	ff		 mov	 eax, DWORD PTR _pBot$[ebp]
  002e1	8b 48 04	 mov	 ecx, DWORD PTR [eax+4]
  002e4	0f b6 91 50 03
	00 00		 movzx	 edx, BYTE PTR [ecx+848]
  002eb	85 d2		 test	 edx, edx
  002ed	0f 85 ba 00 00
	00		 jne	 $L94014

; 792  : 			{
; 793  : 				xVec2 v2D = xVec2( pBot->pFighter->m_vPosition.x, 
; 794  : 								   pBot->pFighter->m_vPosition.z );

  002f3	8b 85 20 cf ff
	ff		 mov	 eax, DWORD PTR _pBot$[ebp]
  002f9	8b 48 04	 mov	 ecx, DWORD PTR [eax+4]
  002fc	8b 91 04 02 00
	00		 mov	 edx, DWORD PTR [ecx+516]
  00302	52		 push	 edx
  00303	8b 85 20 cf ff
	ff		 mov	 eax, DWORD PTR _pBot$[ebp]
  00309	8b 48 04	 mov	 ecx, DWORD PTR [eax+4]
  0030c	8b 91 fc 01 00
	00		 mov	 edx, DWORD PTR [ecx+508]
  00312	52		 push	 edx
  00313	8d 8d 10 cf ff
	ff		 lea	 ecx, DWORD PTR _v2D$94015[ebp]
  00319	e8 00 00 00 00	 call	 ??0D3DXVECTOR2@@QAE@MM@Z ; D3DXVECTOR2::D3DXVECTOR2

; 795  : 				float fD = fabsf( D3DXVec2Length( &(v2D -v2DPosition)) );

  0031e	8d 45 d0	 lea	 eax, DWORD PTR _v2DPosition$[ebp]
  00321	50		 push	 eax
  00322	8d 8d f4 cd ff
	ff		 lea	 ecx, DWORD PTR $T94412[ebp]
  00328	51		 push	 ecx
  00329	8d 8d 10 cf ff
	ff		 lea	 ecx, DWORD PTR _v2D$94015[ebp]
  0032f	e8 00 00 00 00	 call	 ??GD3DXVECTOR2@@QBE?AU0@ABU0@@Z ; D3DXVECTOR2::operator-
  00334	50		 push	 eax
  00335	e8 00 00 00 00	 call	 ?D3DXVec2Length@@YAMPBUD3DXVECTOR2@@@Z ; D3DXVec2Length
  0033a	d9 1c 24	 fstp	 DWORD PTR [esp]
  0033d	e8 00 00 00 00	 call	 _fabsf
  00342	83 c4 04	 add	 esp, 4
  00345	d9 9d 04 cf ff
	ff		 fstp	 DWORD PTR _fD$94017[ebp]

; 796  : 				if( fD <  fScannerRadius )

  0034b	d9 85 04 cf ff
	ff		 fld	 DWORD PTR _fD$94017[ebp]
  00351	d8 9d 48 cf ff
	ff		 fcomp	 DWORD PTR _fScannerRadius$[ebp]
  00357	df e0		 fnstsw	 ax
  00359	f6 c4 05	 test	 ah, 5
  0035c	7a 4f		 jp	 SHORT $L94014

; 797  : 				{
; 798  : 					vPoints[ nPoints ] = v2DPosition - v2D ;

  0035e	8d 85 10 cf ff
	ff		 lea	 eax, DWORD PTR _v2D$94015[ebp]
  00364	50		 push	 eax
  00365	8d 8d e4 cd ff
	ff		 lea	 ecx, DWORD PTR $T94413[ebp]
  0036b	51		 push	 ecx
  0036c	8d 4d d0	 lea	 ecx, DWORD PTR _v2DPosition$[ebp]
  0036f	e8 00 00 00 00	 call	 ??GD3DXVECTOR2@@QBE?AU0@ABU0@@Z ; D3DXVECTOR2::operator-
  00374	8b 10		 mov	 edx, DWORD PTR [eax]
  00376	8b 40 04	 mov	 eax, DWORD PTR [eax+4]
  00379	8b 8d 6c cf ff
	ff		 mov	 ecx, DWORD PTR _nPoints$[ebp]
  0037f	89 94 cd c8 df
	ff ff		 mov	 DWORD PTR _vPoints$[ebp+ecx*8], edx
  00386	89 84 cd cc df
	ff ff		 mov	 DWORD PTR _vPoints$[ebp+ecx*8+4], eax

; 799  : 					nPointTypes[ nPoints ] = PT_ENEMY1 ;

  0038d	8b 85 6c cf ff
	ff		 mov	 eax, DWORD PTR _nPoints$[ebp]
  00393	c7 84 85 c0 cf
	ff ff 06 00 00
	00		 mov	 DWORD PTR _nPointTypes$[ebp+eax*4], 6

; 800  : 					nPoints++ ;

  0039e	8b 85 6c cf ff
	ff		 mov	 eax, DWORD PTR _nPoints$[ebp]
  003a4	83 c0 01	 add	 eax, 1
  003a7	89 85 6c cf ff
	ff		 mov	 DWORD PTR _nPoints$[ebp], eax
$L94014:

; 801  : 				}
; 802  : 			}
; 803  : 			pBot = pBot->pNext ;

  003ad	8b 85 20 cf ff
	ff		 mov	 eax, DWORD PTR _pBot$[ebp]
  003b3	8b 48 0c	 mov	 ecx, DWORD PTR [eax+12]
  003b6	89 8d 20 cf ff
	ff		 mov	 DWORD PTR _pBot$[ebp], ecx

; 804  : 		}

  003bc	e9 0d ff ff ff	 jmp	 $L94012
$L94013:

; 805  : 
; 806  : 	// move all vectors into scanner VB; map from fighter-relative x,z coords to origin centered unit x,y coords
; 807  : 	// (overlay proj. mat. is centered at 0,0,0 and extends 0.5 units up, left, down and right)
; 808  : 		for( i = 0 ; i < nPoints ; i++ )

  003c1	c7 85 60 cf ff
	ff 00 00 00 00	 mov	 DWORD PTR _i$[ebp], 0
  003cb	eb 0f		 jmp	 SHORT $L94021
$L94022:
  003cd	8b 85 60 cf ff
	ff		 mov	 eax, DWORD PTR _i$[ebp]
  003d3	83 c0 01	 add	 eax, 1
  003d6	89 85 60 cf ff
	ff		 mov	 DWORD PTR _i$[ebp], eax
$L94021:
  003dc	8b 85 60 cf ff
	ff		 mov	 eax, DWORD PTR _i$[ebp]
  003e2	3b 85 6c cf ff
	ff		 cmp	 eax, DWORD PTR _nPoints$[ebp]
  003e8	0f 8d 7d 01 00
	00		 jge	 $L94023

; 809  : 		{
; 810  : 			pv->v.x = +vPoints[ i ].x / fScannerRadius ;

  003ee	8b 85 60 cf ff
	ff		 mov	 eax, DWORD PTR _i$[ebp]
  003f4	d9 84 c5 c8 df
	ff ff		 fld	 DWORD PTR _vPoints$[ebp+eax*8]
  003fb	d8 b5 48 cf ff
	ff		 fdiv	 DWORD PTR _fScannerRadius$[ebp]
  00401	8b 4d ec	 mov	 ecx, DWORD PTR _pv$[ebp]
  00404	d9 19		 fstp	 DWORD PTR [ecx]

; 811  : 			pv->v.y = +vPoints[ i ].y / fScannerRadius ;

  00406	8b 85 60 cf ff
	ff		 mov	 eax, DWORD PTR _i$[ebp]
  0040c	d9 84 c5 cc df
	ff ff		 fld	 DWORD PTR _vPoints$[ebp+eax*8+4]
  00413	d8 b5 48 cf ff
	ff		 fdiv	 DWORD PTR _fScannerRadius$[ebp]
  00419	8b 4d ec	 mov	 ecx, DWORD PTR _pv$[ebp]
  0041c	d9 59 04	 fstp	 DWORD PTR [ecx+4]

; 812  : 
; 813  : 			pv->v.x /= 2.0f ;

  0041f	8b 45 ec	 mov	 eax, DWORD PTR _pv$[ebp]
  00422	d9 00		 fld	 DWORD PTR [eax]
  00424	d8 35 00 00 00
	00		 fdiv	 DWORD PTR __real@40000000
  0042a	8b 4d ec	 mov	 ecx, DWORD PTR _pv$[ebp]
  0042d	d9 19		 fstp	 DWORD PTR [ecx]

; 814  : 			pv->v.y /= 2.0f ;

  0042f	8b 45 ec	 mov	 eax, DWORD PTR _pv$[ebp]
  00432	d9 40 04	 fld	 DWORD PTR [eax+4]
  00435	d8 35 00 00 00
	00		 fdiv	 DWORD PTR __real@40000000
  0043b	8b 4d ec	 mov	 ecx, DWORD PTR _pv$[ebp]
  0043e	d9 59 04	 fstp	 DWORD PTR [ecx+4]

; 815  : 			pv->v.z = 0.0f ;

  00441	8b 45 ec	 mov	 eax, DWORD PTR _pv$[ebp]
  00444	c7 40 08 00 00
	00 00		 mov	 DWORD PTR [eax+8], 0

; 816  : 
; 817  : 			switch( nPointTypes[ i ] )
; 818  : 			{

  0044b	8b 85 60 cf ff
	ff		 mov	 eax, DWORD PTR _i$[ebp]
  00451	8b 8c 85 c0 cf
	ff ff		 mov	 ecx, DWORD PTR _nPointTypes$[ebp+eax*4]
  00458	89 8d 4c cd ff
	ff		 mov	 DWORD PTR tv250[ebp], ecx
  0045e	83 bd 4c cd ff
	ff 06		 cmp	 DWORD PTR tv250[ebp], 6
  00465	0f 87 f2 00 00
	00		 ja	 $L94025
  0046b	8b 95 4c cd ff
	ff		 mov	 edx, DWORD PTR tv250[ebp]
  00471	ff 24 95 00 00
	00 00		 jmp	 DWORD PTR $L94432[edx*4]
$L94028:

; 819  : 				case PT_CHERRY:
; 820  : 					pv->color = D3DXCOLOR( 1, 0, 1, 0.1f );

  00478	68 cd cc cc 3d	 push	 1036831949		; 3dcccccdH
  0047d	68 00 00 80 3f	 push	 1065353216		; 3f800000H
  00482	6a 00		 push	 0
  00484	68 00 00 80 3f	 push	 1065353216		; 3f800000H
  00489	8d 8d cc cd ff
	ff		 lea	 ecx, DWORD PTR $T94414[ebp]
  0048f	e8 00 00 00 00	 call	 ??0D3DXCOLOR@@QAE@MMMM@Z ; D3DXCOLOR::D3DXCOLOR
  00494	8b c8		 mov	 ecx, eax
  00496	e8 00 00 00 00	 call	 ??BD3DXCOLOR@@QBEKXZ	; D3DXCOLOR::operator unsigned long
  0049b	8b 4d ec	 mov	 ecx, DWORD PTR _pv$[ebp]
  0049e	89 41 0c	 mov	 DWORD PTR [ecx+12], eax

; 821  : 					break ;

  004a1	e9 b7 00 00 00	 jmp	 $L94025
$L94030:

; 822  : 				case PT_SHIELD:
; 823  : 					pv->color = D3DXCOLOR( 0, 0, 0, 0 );

  004a6	6a 00		 push	 0
  004a8	6a 00		 push	 0
  004aa	6a 00		 push	 0
  004ac	6a 00		 push	 0
  004ae	8d 8d b4 cd ff
	ff		 lea	 ecx, DWORD PTR $T94415[ebp]
  004b4	e8 00 00 00 00	 call	 ??0D3DXCOLOR@@QAE@MMMM@Z ; D3DXCOLOR::D3DXCOLOR
  004b9	8b c8		 mov	 ecx, eax
  004bb	e8 00 00 00 00	 call	 ??BD3DXCOLOR@@QBEKXZ	; D3DXCOLOR::operator unsigned long
  004c0	8b 4d ec	 mov	 ecx, DWORD PTR _pv$[ebp]
  004c3	89 41 0c	 mov	 DWORD PTR [ecx+12], eax

; 824  : 					break ;

  004c6	e9 92 00 00 00	 jmp	 $L94025
$L94032:

; 825  : 				case PT_ENGINE:
; 826  : 					pv->color = D3DXCOLOR( 0, 0, 0, 0 );

  004cb	6a 00		 push	 0
  004cd	6a 00		 push	 0
  004cf	6a 00		 push	 0
  004d1	6a 00		 push	 0
  004d3	8d 8d 9c cd ff
	ff		 lea	 ecx, DWORD PTR $T94416[ebp]
  004d9	e8 00 00 00 00	 call	 ??0D3DXCOLOR@@QAE@MMMM@Z ; D3DXCOLOR::D3DXCOLOR
  004de	8b c8		 mov	 ecx, eax
  004e0	e8 00 00 00 00	 call	 ??BD3DXCOLOR@@QBEKXZ	; D3DXCOLOR::operator unsigned long
  004e5	8b 4d ec	 mov	 ecx, DWORD PTR _pv$[ebp]
  004e8	89 41 0c	 mov	 DWORD PTR [ecx+12], eax

; 827  : 					break ;

  004eb	eb 70		 jmp	 SHORT $L94025
$L94034:

; 828  : 				case PT_WEAPON:
; 829  : 					pv->color = D3DXCOLOR( 0, 0, 0, 0 );

  004ed	6a 00		 push	 0
  004ef	6a 00		 push	 0
  004f1	6a 00		 push	 0
  004f3	6a 00		 push	 0
  004f5	8d 8d 84 cd ff
	ff		 lea	 ecx, DWORD PTR $T94417[ebp]
  004fb	e8 00 00 00 00	 call	 ??0D3DXCOLOR@@QAE@MMMM@Z ; D3DXCOLOR::D3DXCOLOR
  00500	8b c8		 mov	 ecx, eax
  00502	e8 00 00 00 00	 call	 ??BD3DXCOLOR@@QBEKXZ	; D3DXCOLOR::operator unsigned long
  00507	8b 4d ec	 mov	 ecx, DWORD PTR _pv$[ebp]
  0050a	89 41 0c	 mov	 DWORD PTR [ecx+12], eax

; 830  : 					break ;

  0050d	eb 4e		 jmp	 SHORT $L94025
$L94036:

; 831  : 				case PT_THISFIGHTER:
; 832  : 					pv->color = D3DXCOLOR( 1, 1, 1, 1 );

  0050f	68 00 00 80 3f	 push	 1065353216		; 3f800000H
  00514	68 00 00 80 3f	 push	 1065353216		; 3f800000H
  00519	68 00 00 80 3f	 push	 1065353216		; 3f800000H
  0051e	68 00 00 80 3f	 push	 1065353216		; 3f800000H
  00523	8d 8d 6c cd ff
	ff		 lea	 ecx, DWORD PTR $T94418[ebp]
  00529	e8 00 00 00 00	 call	 ??0D3DXCOLOR@@QAE@MMMM@Z ; D3DXCOLOR::D3DXCOLOR
  0052e	8b c8		 mov	 ecx, eax
  00530	e8 00 00 00 00	 call	 ??BD3DXCOLOR@@QBEKXZ	; D3DXCOLOR::operator unsigned long
  00535	8b 4d ec	 mov	 ecx, DWORD PTR _pv$[ebp]
  00538	89 41 0c	 mov	 DWORD PTR [ecx+12], eax

; 833  : 					break ;

  0053b	eb 20		 jmp	 SHORT $L94025
$L94038:

; 834  : 				case PT_ENEMY1:
; 835  : 					pv->color = D3DXCOLOR( 0, 0, 0, 0 );

  0053d	6a 00		 push	 0
  0053f	6a 00		 push	 0
  00541	6a 00		 push	 0
  00543	6a 00		 push	 0
  00545	8d 8d 54 cd ff
	ff		 lea	 ecx, DWORD PTR $T94419[ebp]
  0054b	e8 00 00 00 00	 call	 ??0D3DXCOLOR@@QAE@MMMM@Z ; D3DXCOLOR::D3DXCOLOR
  00550	8b c8		 mov	 ecx, eax
  00552	e8 00 00 00 00	 call	 ??BD3DXCOLOR@@QBEKXZ	; D3DXCOLOR::operator unsigned long
  00557	8b 4d ec	 mov	 ecx, DWORD PTR _pv$[ebp]
  0055a	89 41 0c	 mov	 DWORD PTR [ecx+12], eax
$L94025:

; 836  : 					break ;
; 837  : 			}
; 838  : 			pv++ ;

  0055d	8b 45 ec	 mov	 eax, DWORD PTR _pv$[ebp]
  00560	83 c0 10	 add	 eax, 16			; 00000010H
  00563	89 45 ec	 mov	 DWORD PTR _pv$[ebp], eax

; 839  : 		}

  00566	e9 62 fe ff ff	 jmp	 $L94022
$L94023:

; 840  : 	
; 841  : 		m_pVB_Scanner->Unlock() ;

  0056b	8b 45 f8	 mov	 eax, DWORD PTR _this$[ebp]
  0056e	8b 88 94 03 00
	00		 mov	 ecx, DWORD PTR [eax+916]
  00574	8b 55 f8	 mov	 edx, DWORD PTR _this$[ebp]
  00577	8b 82 94 03 00
	00		 mov	 eax, DWORD PTR [edx+916]
  0057d	8b 09		 mov	 ecx, DWORD PTR [ecx]
  0057f	8b f4		 mov	 esi, esp
  00581	50		 push	 eax
  00582	ff 51 30	 call	 DWORD PTR [ecx+48]
  00585	3b f4		 cmp	 esi, esp
  00587	e8 00 00 00 00	 call	 __RTC_CheckEsp

; 842  : 		m_nScannerPoints = nPoints ;

  0058c	8b 45 f8	 mov	 eax, DWORD PTR _this$[ebp]
  0058f	8b 8d 6c cf ff
	ff		 mov	 ecx, DWORD PTR _nPoints$[ebp]
  00595	89 88 90 03 00
	00		 mov	 DWORD PTR [eax+912], ecx

; 843  : 	}

  0059b	52		 push	 edx
  0059c	8b cd		 mov	 ecx, ebp
  0059e	50		 push	 eax
  0059f	8d 15 00 00 00
	00		 lea	 edx, DWORD PTR $L94431
  005a5	e8 00 00 00 00	 call	 @_RTC_CheckStackVars@8
  005aa	58		 pop	 eax
  005ab	5a		 pop	 edx
  005ac	5f		 pop	 edi
  005ad	5e		 pop	 esi
  005ae	5b		 pop	 ebx
  005af	81 c4 b4 32 00
	00		 add	 esp, 12980		; 000032b4H
  005b5	3b ec		 cmp	 ebp, esp
  005b7	e8 00 00 00 00	 call	 __RTC_CheckEsp
  005bc	8b e5		 mov	 esp, ebp
  005be	5d		 pop	 ebp
  005bf	c2 08 00	 ret	 8
$L94431:
  005c2	07 00 00 00	 DD	 7
  005c6	00 00 00 00	 DD	 $L94430
$L94430:
  005ca	ec ff ff ff	 DD	 -20			; ffffffecH
  005ce	04 00 00 00	 DD	 4
  005d2	00 00 00 00	 DD	 $L94422
  005d6	d0 ff ff ff	 DD	 -48			; ffffffd0H
  005da	08 00 00 00	 DD	 8
  005de	00 00 00 00	 DD	 $L94423
  005e2	c8 df ff ff	 DD	 -8248			; ffffdfc8H
  005e6	00 20 00 00	 DD	 8192			; 00002000H
  005ea	00 00 00 00	 DD	 $L94424
  005ee	c0 cf ff ff	 DD	 -12352			; ffffcfc0H
  005f2	00 10 00 00	 DD	 4096			; 00001000H
  005f6	00 00 00 00	 DD	 $L94425
  005fa	78 cf ff ff	 DD	 -12424			; ffffcf78H
  005fe	40 00 00 00	 DD	 64			; 00000040H
  00602	00 00 00 00	 DD	 $L94426
  00606	38 cf ff ff	 DD	 -12488			; ffffcf38H
  0060a	08 00 00 00	 DD	 8
  0060e	00 00 00 00	 DD	 $L94427
  00612	10 cf ff ff	 DD	 -12528			; ffffcf10H
  00616	08 00 00 00	 DD	 8
  0061a	00 00 00 00	 DD	 $L94428
$L94428:
  0061e	76		 DB	 118			; 00000076H
  0061f	32		 DB	 50			; 00000032H
  00620	44		 DB	 68			; 00000044H
  00621	00		 DB	 0
$L94427:
  00622	76		 DB	 118			; 00000076H
  00623	32		 DB	 50			; 00000032H
  00624	44		 DB	 68			; 00000044H
  00625	00		 DB	 0
$L94426:
  00626	6d		 DB	 109			; 0000006dH
  00627	61		 DB	 97			; 00000061H
  00628	74		 DB	 116			; 00000074H
  00629	52		 DB	 82			; 00000052H
  0062a	6f		 DB	 111			; 0000006fH
  0062b	74		 DB	 116			; 00000074H
  0062c	00		 DB	 0
$L94425:
  0062d	6e		 DB	 110			; 0000006eH
  0062e	50		 DB	 80			; 00000050H
  0062f	6f		 DB	 111			; 0000006fH
  00630	69		 DB	 105			; 00000069H
  00631	6e		 DB	 110			; 0000006eH
  00632	74		 DB	 116			; 00000074H
  00633	54		 DB	 84			; 00000054H
  00634	79		 DB	 121			; 00000079H
  00635	70		 DB	 112			; 00000070H
  00636	65		 DB	 101			; 00000065H
  00637	73		 DB	 115			; 00000073H
  00638	00		 DB	 0
$L94424:
  00639	76		 DB	 118			; 00000076H
  0063a	50		 DB	 80			; 00000050H
  0063b	6f		 DB	 111			; 0000006fH
  0063c	69		 DB	 105			; 00000069H
  0063d	6e		 DB	 110			; 0000006eH
  0063e	74		 DB	 116			; 00000074H
  0063f	73		 DB	 115			; 00000073H
  00640	00		 DB	 0
$L94423:
  00641	76		 DB	 118			; 00000076H
  00642	32		 DB	 50			; 00000032H
  00643	44		 DB	 68			; 00000044H
  00644	50		 DB	 80			; 00000050H
  00645	6f		 DB	 111			; 0000006fH
  00646	73		 DB	 115			; 00000073H
  00647	69		 DB	 105			; 00000069H
  00648	74		 DB	 116			; 00000074H
  00649	69		 DB	 105			; 00000069H
  0064a	6f		 DB	 111			; 0000006fH
  0064b	6e		 DB	 110			; 0000006eH
  0064c	00		 DB	 0
$L94422:
  0064d	70		 DB	 112			; 00000070H
  0064e	76		 DB	 118			; 00000076H
  0064f	00		 DB	 0
$L94432:
  00650	00 00 00 00	 DD	 $L94028
  00654	00 00 00 00	 DD	 $L94030
  00658	00 00 00 00	 DD	 $L94032
  0065c	00 00 00 00	 DD	 $L94034
  00660	00 00 00 00	 DD	 $L94025
  00664	00 00 00 00	 DD	 $L94036
  00668	00 00 00 00	 DD	 $L94038
?FrameMoveSpaceScanner@CUserFighter@@QAEXPAVCTerrain@@PAVCRace@@@Z ENDP ; CUserFighter::FrameMoveSpaceScanner
; Function compile flags: /Odt /RTCsu /ZI
; File c:\dxsdk\include\d3dx8math.h
_TEXT	ENDS
;	COMDAT ??0D3DXMATRIX@@QAE@XZ
_TEXT	SEGMENT
_this$ = -8
??0D3DXMATRIX@@QAE@XZ PROC NEAR				; D3DXMATRIX::D3DXMATRIX, COMDAT
; _this$ = ecx

; 177  :     D3DXMATRIX() {};

  00000	55		 push	 ebp
  00001	8b ec		 mov	 ebp, esp
  00003	81 ec cc 00 00
	00		 sub	 esp, 204		; 000000ccH
  00009	53		 push	 ebx
  0000a	56		 push	 esi
  0000b	57		 push	 edi
  0000c	51		 push	 ecx
  0000d	8d bd 34 ff ff
	ff		 lea	 edi, DWORD PTR [ebp-204]
  00013	b9 33 00 00 00	 mov	 ecx, 51			; 00000033H
  00018	b8 cc cc cc cc	 mov	 eax, -858993460		; ccccccccH
  0001d	f3 ab		 rep stosd
  0001f	59		 pop	 ecx
  00020	89 4d f8	 mov	 DWORD PTR _this$[ebp], ecx
  00023	8b 45 f8	 mov	 eax, DWORD PTR _this$[ebp]
  00026	5f		 pop	 edi
  00027	5e		 pop	 esi
  00028	5b		 pop	 ebx
  00029	8b e5		 mov	 esp, ebp
  0002b	5d		 pop	 ebp
  0002c	c3		 ret	 0
??0D3DXMATRIX@@QAE@XZ ENDP				; D3DXMATRIX::D3DXMATRIX
; Function compile flags: /Odt /RTCsu /ZI
; File c:\dxsdk\include\d3dx8math.inl
_TEXT	ENDS
;	COMDAT ??GD3DXVECTOR2@@QBE?AU0@ABU0@@Z
_TEXT	SEGMENT
_this$ = -8
___$ReturnUdt$ = 8
_v$ = 12
??GD3DXVECTOR2@@QBE?AU0@ABU0@@Z PROC NEAR		; D3DXVECTOR2::operator-, COMDAT
; _this$ = ecx

; 114  : {

  00000	55		 push	 ebp
  00001	8b ec		 mov	 ebp, esp
  00003	81 ec cc 00 00
	00		 sub	 esp, 204		; 000000ccH
  00009	53		 push	 ebx
  0000a	56		 push	 esi
  0000b	57		 push	 edi
  0000c	51		 push	 ecx
  0000d	8d bd 34 ff ff
	ff		 lea	 edi, DWORD PTR [ebp-204]
  00013	b9 33 00 00 00	 mov	 ecx, 51			; 00000033H
  00018	b8 cc cc cc cc	 mov	 eax, -858993460		; ccccccccH
  0001d	f3 ab		 rep stosd
  0001f	59		 pop	 ecx
  00020	89 4d f8	 mov	 DWORD PTR _this$[ebp], ecx

; 115  :     return D3DXVECTOR2(x - v.x, y - v.y);

  00023	8b 45 f8	 mov	 eax, DWORD PTR _this$[ebp]
  00026	8b 4d 0c	 mov	 ecx, DWORD PTR _v$[ebp]
  00029	d9 40 04	 fld	 DWORD PTR [eax+4]
  0002c	d8 61 04	 fsub	 DWORD PTR [ecx+4]
  0002f	51		 push	 ecx
  00030	d9 1c 24	 fstp	 DWORD PTR [esp]
  00033	8b 55 f8	 mov	 edx, DWORD PTR _this$[ebp]
  00036	8b 45 0c	 mov	 eax, DWORD PTR _v$[ebp]
  00039	d9 02		 fld	 DWORD PTR [edx]
  0003b	d8 20		 fsub	 DWORD PTR [eax]
  0003d	51		 push	 ecx
  0003e	d9 1c 24	 fstp	 DWORD PTR [esp]
  00041	8b 4d 08	 mov	 ecx, DWORD PTR ___$ReturnUdt$[ebp]
  00044	e8 00 00 00 00	 call	 ??0D3DXVECTOR2@@QAE@MM@Z ; D3DXVECTOR2::D3DXVECTOR2
  00049	8b 45 08	 mov	 eax, DWORD PTR ___$ReturnUdt$[ebp]

; 116  : }

  0004c	5f		 pop	 edi
  0004d	5e		 pop	 esi
  0004e	5b		 pop	 ebx
  0004f	81 c4 cc 00 00
	00		 add	 esp, 204		; 000000ccH
  00055	3b ec		 cmp	 ebp, esp
  00057	e8 00 00 00 00	 call	 __RTC_CheckEsp
  0005c	8b e5		 mov	 esp, ebp
  0005e	5d		 pop	 ebp
  0005f	c2 08 00	 ret	 8
??GD3DXVECTOR2@@QBE?AU0@ABU0@@Z ENDP			; D3DXVECTOR2::operator-
; Function compile flags: /Odt /RTCsu /ZI
_TEXT	ENDS
;	COMDAT ??_H@YGXPAXIHP6EPAX0@Z@Z
_TEXT	SEGMENT
___t$ = 8
___s$ = 12
___n$ = 16
___f$ = 20
??_H@YGXPAXIHP6EPAX0@Z@Z PROC NEAR			; `vector constructor iterator', COMDAT
  00000	55		 push	 ebp
  00001	8b ec		 mov	 ebp, esp
  00003	81 ec c0 00 00
	00		 sub	 esp, 192		; 000000c0H
  00009	53		 push	 ebx
  0000a	56		 push	 esi
  0000b	57		 push	 edi
  0000c	8d bd 40 ff ff
	ff		 lea	 edi, DWORD PTR [ebp-192]
  00012	b9 30 00 00 00	 mov	 ecx, 48			; 00000030H
  00017	b8 cc cc cc cc	 mov	 eax, -858993460		; ccccccccH
  0001c	f3 ab		 rep stosd
$L94048:
  0001e	8b 45 10	 mov	 eax, DWORD PTR ___n$[ebp]
  00021	83 e8 01	 sub	 eax, 1
  00024	89 45 10	 mov	 DWORD PTR ___n$[ebp], eax
  00027	83 7d 10 00	 cmp	 DWORD PTR ___n$[ebp], 0
  0002b	7c 1a		 jl	 SHORT $L94046
  0002d	8b f4		 mov	 esi, esp
  0002f	8b 4d 08	 mov	 ecx, DWORD PTR ___t$[ebp]
  00032	ff 55 14	 call	 DWORD PTR ___f$[ebp]
  00035	3b f4		 cmp	 esi, esp
  00037	e8 00 00 00 00	 call	 __RTC_CheckEsp
  0003c	8b 45 08	 mov	 eax, DWORD PTR ___t$[ebp]
  0003f	03 45 0c	 add	 eax, DWORD PTR ___s$[ebp]
  00042	89 45 08	 mov	 DWORD PTR ___t$[ebp], eax
  00045	eb d7		 jmp	 SHORT $L94048
$L94046:
  00047	5f		 pop	 edi
  00048	5e		 pop	 esi
  00049	5b		 pop	 ebx
  0004a	81 c4 c0 00 00
	00		 add	 esp, 192		; 000000c0H
  00050	3b ec		 cmp	 ebp, esp
  00052	e8 00 00 00 00	 call	 __RTC_CheckEsp
  00057	8b e5		 mov	 esp, ebp
  00059	5d		 pop	 ebp
  0005a	c2 10 00	 ret	 16			; 00000010H
??_H@YGXPAXIHP6EPAX0@Z@Z ENDP				; `vector constructor iterator'
_TEXT	ENDS
PUBLIC	__real@3c23d70a
PUBLIC	?RenderHUD@CUserFighter@@QAEJPAUIDirect3DDevice8@@PAVCTextures@@PAKHPAUD3DXMATRIX@@PAVCCamera@@PAVCScreenOverlayManager@@PAVCRace@@M@Z ; CUserFighter::RenderHUD
PUBLIC	?__LINE__Var@?1??RenderHUD@CUserFighter@@QAEJPAUIDirect3DDevice8@@PAVCTextures@@PAKHPAUD3DXMATRIX@@PAVCCamera@@PAVCScreenOverlayManager@@PAVCRace@@M@Z@4JA ; `CUserFighter::RenderHUD'::`2'::__LINE__Var
PUBLIC	??DD3DXVECTOR3@@QBE?AU0@M@Z			; D3DXVECTOR3::operator*
EXTRN	?DrawTextScaledDM@CD3DFont@@QAEJMMMMMKPADKPAU_D3DVIEWPORT8@@@Z:NEAR ; CD3DFont::DrawTextScaledDM
EXTRN	?D3DUtil_InitMaterial@@YAXAAU_D3DMATERIAL8@@MMMM@Z:NEAR ; D3DUtil_InitMaterial
EXTRN	?SetProjMat@CScreenOverlayManager@@QAEXPAUIDirect3DDevice8@@@Z:NEAR ; CScreenOverlayManager::SetProjMat
EXTRN	?Render@CScreenOverlayManager@@QAEJPAUIDirect3DDevice8@@HH@Z:NEAR ; CScreenOverlayManager::Render
EXTRN	_D3DXVec3Project@24:NEAR
EXTRN	_D3DXMatrixMultiply@12:NEAR
EXTRN	_D3DXMatrixScaling@16:NEAR
EXTRN	_D3DXMatrixTranslation@16:NEAR
EXTRN	_D3DXMatrixRotationZ@8:NEAR
EXTRN	?g_matIdent@@3UD3DXMATRIX@@A:BYTE		; g_matIdent
EXTRN	?FtoDW@@YAKM@Z:NEAR				; FtoDW
EXTRN	?SetRenderStateDM@CD3DFont@@QAEXXZ:NEAR		; CD3DFont::SetRenderStateDM
EXTRN	?ResetRenderStateDM@CD3DFont@@QAEXXZ:NEAR	; CD3DFont::ResetRenderStateDM
;	COMDAT ?__LINE__Var@?1??RenderHUD@CUserFighter@@QAEJPAUIDirect3DDevice8@@PAVCTextures@@PAKHPAUD3DXMATRIX@@PAVCCamera@@PAVCScreenOverlayManager@@PAVCRace@@M@Z@4JA
; File c:\documents and settings\dom\my documents\_dev\ae\xlr8a\x7g\cuserfighter.cpp
_DATA	SEGMENT
?__LINE__Var@?1??RenderHUD@CUserFighter@@QAEJPAUIDirect3DDevice8@@PAVCTextures@@PAKHPAUD3DXMATRIX@@PAVCCamera@@PAVCScreenOverlayManager@@PAVCRace@@M@Z@4JA DD 035eH ; `CUserFighter::RenderHUD'::`2'::__LINE__Var
_DATA	ENDS
;	COMDAT __real@3c23d70a
CONST	SEGMENT
__real@3c23d70a DD 03c23d70ar			; 0.01
; Function compile flags: /Odt /RTCsu /ZI
CONST	ENDS
;	COMDAT ?RenderHUD@CUserFighter@@QAEJPAUIDirect3DDevice8@@PAVCTextures@@PAKHPAUD3DXMATRIX@@PAVCCamera@@PAVCScreenOverlayManager@@PAVCRace@@M@Z
_TEXT	SEGMENT
tv1308 = -988
tv1303 = -988
tv1200 = -988
tv1195 = -988
$T94446 = -976
$T94445 = -952
$T94444 = -932
$T94443 = -912
$T94442 = -892
_a$94105 = -680
_i$94104 = -668
_mtr$94102 = -656
_fMaxD$94091 = -572
_fD$94089 = -560
_pBot$ = -548
_fS$ = -536
_fI$ = -524
_vTrans$ = -512
_vScreenspaceCrosshair$ = -496
_vScreenspaceTarget$ = -476
_matST$ = -456
_matTS$ = -384
_matR$ = -312
_matS$ = -240
_matT$ = -168
_matW$ = -96
_hr$ = -20
_this$ = -8
_pDev$ = 8
_pTex$ = 12
_pulPolyCount$ = 16
_ctCamMode$ = 20
_pmatCurWorld$ = 24
_pCamera$ = 28
_pOM$ = 32
_pRace$ = 36
_fFPS$ = 40
?RenderHUD@CUserFighter@@QAEJPAUIDirect3DDevice8@@PAVCTextures@@PAKHPAUD3DXMATRIX@@PAVCCamera@@PAVCScreenOverlayManager@@PAVCRace@@M@Z PROC NEAR ; CUserFighter::RenderHUD, COMDAT
; _this$ = ecx

; 862  : 	{

  00000	55		 push	 ebp
  00001	8b ec		 mov	 ebp, esp
  00003	81 ec dc 03 00
	00		 sub	 esp, 988		; 000003dcH
  00009	53		 push	 ebx
  0000a	56		 push	 esi
  0000b	57		 push	 edi
  0000c	51		 push	 ecx
  0000d	8d bd 24 fc ff
	ff		 lea	 edi, DWORD PTR [ebp-988]
  00013	b9 f7 00 00 00	 mov	 ecx, 247		; 000000f7H
  00018	b8 cc cc cc cc	 mov	 eax, -858993460		; ccccccccH
  0001d	f3 ab		 rep stosd
  0001f	59		 pop	 ecx
  00020	89 4d f8	 mov	 DWORD PTR _this$[ebp], ecx

; 863  : 		HRESULT hr ;
; 864  : 		xMat matW, matT, matS, matR, matTS, matST ;

  00023	8d 4d a0	 lea	 ecx, DWORD PTR _matW$[ebp]
  00026	e8 00 00 00 00	 call	 ??0D3DXMATRIX@@QAE@XZ	; D3DXMATRIX::D3DXMATRIX
  0002b	8d 8d 58 ff ff
	ff		 lea	 ecx, DWORD PTR _matT$[ebp]
  00031	e8 00 00 00 00	 call	 ??0D3DXMATRIX@@QAE@XZ	; D3DXMATRIX::D3DXMATRIX
  00036	8d 8d 10 ff ff
	ff		 lea	 ecx, DWORD PTR _matS$[ebp]
  0003c	e8 00 00 00 00	 call	 ??0D3DXMATRIX@@QAE@XZ	; D3DXMATRIX::D3DXMATRIX
  00041	8d 8d c8 fe ff
	ff		 lea	 ecx, DWORD PTR _matR$[ebp]
  00047	e8 00 00 00 00	 call	 ??0D3DXMATRIX@@QAE@XZ	; D3DXMATRIX::D3DXMATRIX
  0004c	8d 8d 80 fe ff
	ff		 lea	 ecx, DWORD PTR _matTS$[ebp]
  00052	e8 00 00 00 00	 call	 ??0D3DXMATRIX@@QAE@XZ	; D3DXMATRIX::D3DXMATRIX
  00057	8d 8d 38 fe ff
	ff		 lea	 ecx, DWORD PTR _matST$[ebp]
  0005d	e8 00 00 00 00	 call	 ??0D3DXMATRIX@@QAE@XZ	; D3DXMATRIX::D3DXMATRIX

; 865  : 		xVec3 vScreenspaceTarget ;

  00062	8d 8d 24 fe ff
