; Listing generated by Microsoft (R) Optimizing Compiler Version 13.00.9466 

	TITLE	D3DFrame8.1 Custom\src\d3dapp_custom.cpp
	.386P
include listing.inc
if @Version gt 510
.model FLAT
else
_TEXT	SEGMENT PARA USE32 PUBLIC 'CODE'
_TEXT	ENDS
_DATA	SEGMENT DWORD USE32 PUBLIC 'DATA'
_DATA	ENDS
CONST	SEGMENT DWORD USE32 PUBLIC 'CONST'
CONST	ENDS
_BSS	SEGMENT DWORD USE32 PUBLIC 'BSS'
_BSS	ENDS
$$SYMBOLS	SEGMENT BYTE USE32 'DEBSYM'
$$SYMBOLS	ENDS
$$TYPES	SEGMENT BYTE USE32 'DEBTYP'
$$TYPES	ENDS
_TLS	SEGMENT DWORD USE32 PUBLIC 'TLS'
_TLS	ENDS
;	COMDAT ??_C@_0BB@PGNJOJOA@D3D8?5Application?$AA@
CONST	SEGMENT DWORD USE32 PUBLIC 'CONST'
CONST	ENDS
;	COMDAT ??_C@_0L@HDBPGOOH@D3D?5Window?$AA@
CONST	SEGMENT DWORD USE32 PUBLIC 'CONST'
CONST	ENDS
;	COMDAT ??_C@_03KNIPLHMP@HAL?$AA@
CONST	SEGMENT DWORD USE32 PUBLIC 'CONST'
CONST	ENDS
;	COMDAT ??_C@_03GPMNEAGC@REF?$AA@
CONST	SEGMENT DWORD USE32 PUBLIC 'CONST'
CONST	ENDS
;	COMDAT ??_C@_02JLLOHNJH@SW?$AA@
CONST	SEGMENT DWORD USE32 PUBLIC 'CONST'
CONST	ENDS
;	COMDAT ??_C@_0O@INAAPCCB@?5?$CIpure?5hw?5vp?$CJ?$AA@
CONST	SEGMENT DWORD USE32 PUBLIC 'CONST'
CONST	ENDS
;	COMDAT ??_C@_0BI@KADHBMJM@?5?$CIsimulated?5pure?5hw?5vp?$CJ?$AA@
CONST	SEGMENT DWORD USE32 PUBLIC 'CONST'
CONST	ENDS
;	COMDAT ??_C@_08IAMIAIBF@?5?$CIhw?5vp?$CJ?$AA@
CONST	SEGMENT DWORD USE32 PUBLIC 'CONST'
CONST	ENDS
;	COMDAT ??_C@_0BD@NNKCKNKM@?5?$CIsimulated?5hw?5vp?$CJ?$AA@
CONST	SEGMENT DWORD USE32 PUBLIC 'CONST'
CONST	ENDS
;	COMDAT ??_C@_0M@NOOBLHBB@?5?$CImixed?5vp?$CJ?$AA@
CONST	SEGMENT DWORD USE32 PUBLIC 'CONST'
CONST	ENDS
;	COMDAT ??_C@_0BG@GKHJLCDJ@?5?$CIsimulated?5mixed?5vp?$CJ?$AA@
CONST	SEGMENT DWORD USE32 PUBLIC 'CONST'
CONST	ENDS
;	COMDAT ??_C@_08OFBBMACB@?5?$CIsw?5vp?$CJ?$AA@
CONST	SEGMENT DWORD USE32 PUBLIC 'CONST'
CONST	ENDS
;	COMDAT ??_C@_02LMMGGCAJ@?3?5?$AA@
CONST	SEGMENT DWORD USE32 PUBLIC 'CONST'
CONST	ENDS
;	COMDAT ??_C@_0BA@ICADIDGG@?$CFld?5x?5?$CFld?5x?5?$CFld?$AA@
CONST	SEGMENT DWORD USE32 PUBLIC 'CONST'
CONST	ENDS
;	COMDAT ??_C@_04CGFJFPFD@none?$AA@
CONST	SEGMENT DWORD USE32 PUBLIC 'CONST'
CONST	ENDS
;	COMDAT ??_C@_0L@EABGANAD@?$CFd?5samples?$AA@
CONST	SEGMENT DWORD USE32 PUBLIC 'CONST'
CONST	ENDS
;	COMDAT ??_C@_0BF@CIOJMCE@?$CF?402f?5fps?5?$CI?$CFdx?$CFdx?$CFd?$CJ?$AA@
CONST	SEGMENT DWORD USE32 PUBLIC 'CONST'
CONST	ENDS
;	COMDAT ??_C@_06MHJFPJMC@?5?$CID16?$CJ?$AA@
CONST	SEGMENT DWORD USE32 PUBLIC 'CONST'
CONST	ENDS
;	COMDAT ??_C@_08BPGABCIF@?5?$CID15S1?$CJ?$AA@
CONST	SEGMENT DWORD USE32 PUBLIC 'CONST'
CONST	ENDS
;	COMDAT ??_C@_08HMEEPFBF@?5?$CID24X8?$CJ?$AA@
CONST	SEGMENT DWORD USE32 PUBLIC 'CONST'
CONST	ENDS
;	COMDAT ??_C@_08KLEFHCBE@?5?$CID24S8?$CJ?$AA@
CONST	SEGMENT DWORD USE32 PUBLIC 'CONST'
CONST	ENDS
;	COMDAT ??_C@_0L@FMDEODJN@?5?$CID24X4S4?$CJ?$AA@
CONST	SEGMENT DWORD USE32 PUBLIC 'CONST'
CONST	ENDS
;	COMDAT ??_C@_06GKJFJJJF@?5?$CID32?$CJ?$AA@
CONST	SEGMENT DWORD USE32 PUBLIC 'CONST'
CONST	ENDS
;	COMDAT ??_C@_0BC@FFPABJLE@?5?$CI2x?5Multisample?$CJ?$AA@
CONST	SEGMENT DWORD USE32 PUBLIC 'CONST'
CONST	ENDS
;	COMDAT ??_C@_0BC@PLJIIICF@?5?$CI3x?5Multisample?$CJ?$AA@
CONST	SEGMENT DWORD USE32 PUBLIC 'CONST'
CONST	ENDS
;	COMDAT ??_C@_0BC@GGBHAFA@?5?$CI4x?5Multisample?$CJ?$AA@
CONST	SEGMENT DWORD USE32 PUBLIC 'CONST'
CONST	ENDS
;	COMDAT ??_C@_0BC@KIAJOBMB@?5?$CI5x?5Multisample?$CJ?$AA@
CONST	SEGMENT DWORD USE32 PUBLIC 'CONST'
CONST	ENDS
;	COMDAT ??_C@_0BC@IBMBFFDD@?5?$CI6x?5Multisample?$CJ?$AA@
CONST	SEGMENT DWORD USE32 PUBLIC 'CONST'
CONST	ENDS
;	COMDAT ??_C@_0BC@CPKJMEKC@?5?$CI7x?5Multisample?$CJ?$AA@
CONST	SEGMENT DWORD USE32 PUBLIC 'CONST'
CONST	ENDS
;	COMDAT ??_C@_0BC@KBEDKDJI@?5?$CI8x?5Multisample?$CJ?$AA@
CONST	SEGMENT DWORD USE32 PUBLIC 'CONST'
CONST	ENDS
;	COMDAT ??_C@_0BC@PCLDCAJ@?5?$CI9x?5Multisample?$CJ?$AA@
CONST	SEGMENT DWORD USE32 PUBLIC 'CONST'
CONST	ENDS
;	COMDAT ??_C@_0BD@CIHBPPEN@?5?$CI10x?5Multisample?$CJ?$AA@
CONST	SEGMENT DWORD USE32 PUBLIC 'CONST'
CONST	ENDS
;	COMDAT ??_C@_0BD@IGBJGONM@?5?$CI11x?5Multisample?$CJ?$AA@
CONST	SEGMENT DWORD USE32 PUBLIC 'CONST'
CONST	ENDS
;	COMDAT ??_C@_0BD@KPNBNKCO@?5?$CI12x?5Multisample?$CJ?$AA@
CONST	SEGMENT DWORD USE32 PUBLIC 'CONST'
CONST	ENDS
;	COMDAT ??_C@_0BD@BLJELLP@?5?$CI13x?5Multisample?$CJ?$AA@
CONST	SEGMENT DWORD USE32 PUBLIC 'CONST'
CONST	ENDS
;	COMDAT ??_C@_0BD@PMEALDMK@?5?$CI14x?5Multisample?$CJ?$AA@
CONST	SEGMENT DWORD USE32 PUBLIC 'CONST'
CONST	ENDS
;	COMDAT ??_C@_0BD@FCCICCFL@?5?$CI15x?5Multisample?$CJ?$AA@
CONST	SEGMENT DWORD USE32 PUBLIC 'CONST'
CONST	ENDS
;	COMDAT ??_C@_0BD@HLOAJGKJ@?5?$CI16x?5Multisample?$CJ?$AA@
CONST	SEGMENT DWORD USE32 PUBLIC 'CONST'
CONST	ENDS
;	COMDAT ??_C@_0HP@PGABGOGP@Could?5not?5initialize?5Direct3D?4?5Y@
CONST	SEGMENT DWORD USE32 PUBLIC 'CONST'
CONST	ENDS
;	COMDAT ??_C@_0DA@NILKFAHG@Could?5not?5find?5any?5compatible?5Di@
CONST	SEGMENT DWORD USE32 PUBLIC 'CONST'
CONST	ENDS
;	COMDAT ??_C@_0LE@ELBEEABE@This?5application?5cannot?5run?5in?5a@
CONST	SEGMENT DWORD USE32 PUBLIC 'CONST'
CONST	ENDS
;	COMDAT ??_C@_0DF@BENIABML@No?5hardware?9accelerated?5Direct3D@
CONST	SEGMENT DWORD USE32 PUBLIC 'CONST'
CONST	ENDS
;	COMDAT ??_C@_0GF@DKNPBPKA@This?5application?5requires?5functi@
CONST	SEGMENT DWORD USE32 PUBLIC 'CONST'
CONST	ENDS
;	COMDAT ??_C@_0JA@FHOGLLAO@Your?5Direct3D?5hardware?5accelerat@
CONST	SEGMENT DWORD USE32 PUBLIC 'CONST'
CONST	ENDS
;	COMDAT ??_C@_0GK@MAFJOLND@Your?5Direct3D?5hardware?5accelerat@
CONST	SEGMENT DWORD USE32 PUBLIC 'CONST'
CONST	ENDS
;	COMDAT ??_C@_0IP@GFMOIPJ@This?5application?5requires?5functi@
CONST	SEGMENT DWORD USE32 PUBLIC 'CONST'
CONST	ENDS
;	COMDAT ??_C@_0BP@DDMILEGD@Could?5not?5load?5required?5media?4?$AA@
CONST	SEGMENT DWORD USE32 PUBLIC 'CONST'
CONST	ENDS
;	COMDAT ??_C@_0CF@JCBOIPFJ@Could?5not?5reset?5the?5Direct3D?5dev@
CONST	SEGMENT DWORD USE32 PUBLIC 'CONST'
CONST	ENDS
;	COMDAT ??_C@_0FL@JAPAPODB@A?5D3D?5object?5has?5a?5non?9zero?5refe@
CONST	SEGMENT DWORD USE32 PUBLIC 'CONST'
CONST	ENDS
;	COMDAT ??_C@_0NL@EFFPMEHJ@Warning?3?5Nothing?5will?5be?5rendere@
CONST	SEGMENT DWORD USE32 PUBLIC 'CONST'
CONST	ENDS
;	COMDAT ??_C@_0BD@NLHHLHNB@Not?5enough?5memory?4?$AA@
CONST	SEGMENT DWORD USE32 PUBLIC 'CONST'
CONST	ENDS
;	COMDAT ??_C@_0BJ@IMKDBANA@Not?5enough?5video?5memory?4?$AA@
CONST	SEGMENT DWORD USE32 PUBLIC 'CONST'
CONST	ENDS
;	COMDAT ??_C@_0BL@JANOMFPB@Generic?5application?5error?4?$AA@
CONST	SEGMENT DWORD USE32 PUBLIC 'CONST'
CONST	ENDS
;	COMDAT ??_C@_0CC@LHIDCKOG@?6?6This?5application?5will?5now?5exit@
CONST	SEGMENT DWORD USE32 PUBLIC 'CONST'
CONST	ENDS
;	COMDAT ??_C@_0IC@MFMIPNPF@?6?6Switching?5to?5the?5reference?5ras@
CONST	SEGMENT DWORD USE32 PUBLIC 'CONST'
CONST	ENDS
;	COMDAT _IsEqualGUID
_TEXT	SEGMENT PARA USE32 PUBLIC 'CODE'
_TEXT	ENDS
;	COMDAT _==
_TEXT	SEGMENT PARA USE32 PUBLIC 'CODE'
_TEXT	ENDS
;	COMDAT ?ConfirmDevice@CD3DApplication@@MAEJPAU_D3DCAPS8@@KW4_D3DFORMAT@@@Z
_TEXT	SEGMENT PARA USE32 PUBLIC 'CODE'
_TEXT	ENDS
;	COMDAT ?OneTimeSceneInit@CD3DApplication@@MAEJXZ
_TEXT	SEGMENT PARA USE32 PUBLIC 'CODE'
_TEXT	ENDS
;	COMDAT ?InitDeviceObjects@CD3DApplication@@MAEJXZ
_TEXT	SEGMENT PARA USE32 PUBLIC 'CODE'
_TEXT	ENDS
;	COMDAT ?RestoreDeviceObjects@CD3DApplication@@MAEJXZ
_TEXT	SEGMENT PARA USE32 PUBLIC 'CODE'
_TEXT	ENDS
;	COMDAT ?FrameMove@CD3DApplication@@MAEJXZ
_TEXT	SEGMENT PARA USE32 PUBLIC 'CODE'
_TEXT	ENDS
;	COMDAT ?Render@CD3DApplication@@MAEJXZ
_TEXT	SEGMENT PARA USE32 PUBLIC 'CODE'
_TEXT	ENDS
;	COMDAT ?InvalidateDeviceObjects@CD3DApplication@@MAEJXZ
_TEXT	SEGMENT PARA USE32 PUBLIC 'CODE'
_TEXT	ENDS
;	COMDAT ?DeleteDeviceObjects@CD3DApplication@@MAEJXZ
_TEXT	SEGMENT PARA USE32 PUBLIC 'CODE'
_TEXT	ENDS
;	COMDAT ?FinalCleanup@CD3DApplication@@MAEJXZ
_TEXT	SEGMENT PARA USE32 PUBLIC 'CODE'
_TEXT	ENDS
;	COMDAT _sqrtf
_TEXT	SEGMENT PARA USE32 PUBLIC 'CODE'
_TEXT	ENDS
;	COMDAT ??0D3DXVECTOR3@@QAE@XZ
_TEXT	SEGMENT PARA USE32 PUBLIC 'CODE'
_TEXT	ENDS
;	COMDAT ??0D3DXMATRIX@@QAE@XZ
_TEXT	SEGMENT PARA USE32 PUBLIC 'CODE'
_TEXT	ENDS
;	COMDAT ??0D3DXQUATERNION@@QAE@XZ
_TEXT	SEGMENT PARA USE32 PUBLIC 'CODE'
_TEXT	ENDS
;	COMDAT ??0D3DXVECTOR2@@QAE@MM@Z
_TEXT	SEGMENT PARA USE32 PUBLIC 'CODE'
_TEXT	ENDS
;	COMDAT ??0D3DXVECTOR3@@QAE@MMM@Z
_TEXT	SEGMENT PARA USE32 PUBLIC 'CODE'
_TEXT	ENDS
;	COMDAT ??0D3DXVECTOR4@@QAE@MMMM@Z
_TEXT	SEGMENT PARA USE32 PUBLIC 'CODE'
_TEXT	ENDS
;	COMDAT ??0D3DXMATRIX@@QAE@PBM@Z
_TEXT	SEGMENT PARA USE32 PUBLIC 'CODE'
_TEXT	ENDS
;	COMDAT ??0D3DXMATRIX@@QAE@ABU_D3DMATRIX@@@Z
_TEXT	SEGMENT PARA USE32 PUBLIC 'CODE'
_TEXT	ENDS
;	COMDAT ??0D3DXMATRIX@@QAE@MMMMMMMMMMMMMMMM@Z
_TEXT	SEGMENT PARA USE32 PUBLIC 'CODE'
_TEXT	ENDS
;	COMDAT ??0D3DXQUATERNION@@QAE@MMMM@Z
_TEXT	SEGMENT PARA USE32 PUBLIC 'CODE'
_TEXT	ENDS
;	COMDAT ??0D3DXPLANE@@QAE@MMMM@Z
_TEXT	SEGMENT PARA USE32 PUBLIC 'CODE'
_TEXT	ENDS
;	COMDAT ??0D3DXCOLOR@@QAE@MMMM@Z
_TEXT	SEGMENT PARA USE32 PUBLIC 'CODE'
_TEXT	ENDS
;	COMDAT ??0CD3DApplication@@QAE@XZ
_TEXT	SEGMENT PARA USE32 PUBLIC 'CODE'
_TEXT	ENDS
;	COMDAT ?WndProc@@YGJPAUHWND__@@IIJ@Z
_TEXT	SEGMENT PARA USE32 PUBLIC 'CODE'
_TEXT	ENDS
;	COMDAT ?Create@CD3DApplication@@UAEJPAUHINSTANCE__@@@Z
_TEXT	SEGMENT PARA USE32 PUBLIC 'CODE'
_TEXT	ENDS
;	COMDAT ?SortModesCallback@@YAHPBX0@Z
_TEXT	SEGMENT PARA USE32 PUBLIC 'CODE'
_TEXT	ENDS
;	COMDAT ?BuildDeviceList@CD3DApplication@@IAEJXZ
_TEXT	SEGMENT PARA USE32 PUBLIC 'CODE'
_TEXT	ENDS
;	COMDAT ?FindDepthStencilFormat@CD3DApplication@@IAEHIW4_D3DDEVTYPE@@W4_D3DFORMAT@@PAW43@@Z
_TEXT	SEGMENT PARA USE32 PUBLIC 'CODE'
_TEXT	ENDS
;	COMDAT ?MsgProc@CD3DApplication@@UAEJPAUHWND__@@IIJ@Z
_TEXT	SEGMENT PARA USE32 PUBLIC 'CODE'
_TEXT	ENDS
;	COMDAT ?Initialize3DEnvironment@CD3DApplication@@IAEJXZ
_TEXT	SEGMENT PARA USE32 PUBLIC 'CODE'
_TEXT	ENDS
;	COMDAT ?Resize3DEnvironment@CD3DApplication@@IAEJXZ
_TEXT	SEGMENT PARA USE32 PUBLIC 'CODE'
_TEXT	ENDS
;	COMDAT ?ToggleFullscreen@CD3DApplication@@IAEJXZ
_TEXT	SEGMENT PARA USE32 PUBLIC 'CODE'
_TEXT	ENDS
;	COMDAT ?ForceWindowed@CD3DApplication@@IAEJXZ
_TEXT	SEGMENT PARA USE32 PUBLIC 'CODE'
_TEXT	ENDS
;	COMDAT ?AdjustWindowForChange@CD3DApplication@@MAEJXZ
_TEXT	SEGMENT PARA USE32 PUBLIC 'CODE'
_TEXT	ENDS
;	COMDAT ?UserSelectNewDevice@CD3DApplication@@IAEJXZ
_TEXT	SEGMENT PARA USE32 PUBLIC 'CODE'
_TEXT	ENDS
;	COMDAT ?SelectDeviceProc@CD3DApplication@@KGHPAUHWND__@@IIJ@Z
_TEXT	SEGMENT PARA USE32 PUBLIC 'CODE'
_TEXT	ENDS
;	COMDAT ?Run@CD3DApplication@@UAEHXZ
_TEXT	SEGMENT PARA USE32 PUBLIC 'CODE'
_TEXT	ENDS
;	COMDAT ?Render3DEnvironment@CD3DApplication@@IAEJXZ
_TEXT	SEGMENT PARA USE32 PUBLIC 'CODE'
_TEXT	ENDS
;	COMDAT ?Pause@CD3DApplication@@UAEXH@Z
_TEXT	SEGMENT PARA USE32 PUBLIC 'CODE'
_TEXT	ENDS
;	COMDAT ?Cleanup3DEnvironment@CD3DApplication@@IAEXXZ
_TEXT	SEGMENT PARA USE32 PUBLIC 'CODE'
_TEXT	ENDS
;	COMDAT ?DisplayErrorMsg@CD3DApplication@@IAEJJK@Z
_TEXT	SEGMENT PARA USE32 PUBLIC 'CODE'
_TEXT	ENDS
;	COMDAT ??_7CD3DApplication@@6B@
CONST	SEGMENT DWORD USE32 PUBLIC 'CONST'
CONST	ENDS
FLAT	GROUP _DATA, CONST, _BSS
	ASSUME	CS: FLAT, DS: FLAT, SS: FLAT
endif

INCLUDELIB LIBCMTD
INCLUDELIB OLDNAMES

_BSS	SEGMENT
?fLastTime@?BJ@??Render3DEnvironment@CD3DApplication@@IAEJXZ@4MA DD 01H DUP (?) ; `CD3DApplication::Render3DEnvironment'::`25'::fLastTime
?dwFrames@?BJ@??Render3DEnvironment@CD3DApplication@@IAEJXZ@4KA DD 01H DUP (?) ; `CD3DApplication::Render3DEnvironment'::`25'::dwFrames
?dwAppPausedCount@?1??Pause@CD3DApplication@@UAEXH@Z@4KA DD 01H DUP (?) ; `CD3DApplication::Pause'::`2'::dwAppPausedCount
_g_pD3DApp DD	01H DUP (?)
_BSS	ENDS
PUBLIC	?AdjustWindowForChange@CD3DApplication@@MAEJXZ	; CD3DApplication::AdjustWindowForChange
PUBLIC	?ConfirmDevice@CD3DApplication@@MAEJPAU_D3DCAPS8@@KW4_D3DFORMAT@@@Z ; CD3DApplication::ConfirmDevice
PUBLIC	?OneTimeSceneInit@CD3DApplication@@MAEJXZ	; CD3DApplication::OneTimeSceneInit
PUBLIC	?InitDeviceObjects@CD3DApplication@@MAEJXZ	; CD3DApplication::InitDeviceObjects
PUBLIC	?RestoreDeviceObjects@CD3DApplication@@MAEJXZ	; CD3DApplication::RestoreDeviceObjects
PUBLIC	?FrameMove@CD3DApplication@@MAEJXZ		; CD3DApplication::FrameMove
PUBLIC	?Render@CD3DApplication@@MAEJXZ			; CD3DApplication::Render
PUBLIC	?InvalidateDeviceObjects@CD3DApplication@@MAEJXZ ; CD3DApplication::InvalidateDeviceObjects
PUBLIC	?DeleteDeviceObjects@CD3DApplication@@MAEJXZ	; CD3DApplication::DeleteDeviceObjects
PUBLIC	?FinalCleanup@CD3DApplication@@MAEJXZ		; CD3DApplication::FinalCleanup
PUBLIC	?Create@CD3DApplication@@UAEJPAUHINSTANCE__@@@Z	; CD3DApplication::Create
PUBLIC	?Run@CD3DApplication@@UAEHXZ			; CD3DApplication::Run
PUBLIC	?MsgProc@CD3DApplication@@UAEJPAUHWND__@@IIJ@Z	; CD3DApplication::MsgProc
PUBLIC	?Pause@CD3DApplication@@UAEXH@Z			; CD3DApplication::Pause
PUBLIC	??0CD3DApplication@@QAE@XZ			; CD3DApplication::CD3DApplication
PUBLIC	??_7CD3DApplication@@6B@			; CD3DApplication::`vftable'
PUBLIC	??_C@_0BB@PGNJOJOA@D3D8?5Application?$AA@	; `string'
EXTRN	__RTC_InitBase:NEAR
EXTRN	__RTC_Shutdown:NEAR
EXTRN	__fltused:NEAR
;	COMDAT rtc$IMZ
; File c:\documents and settings\dom\my documents\_dev\ae\xlr8a\x7g\d3dframe8.1 custom\src\d3dapp_custom.cpp
rtc$IMZ	SEGMENT
__RTC_InitBase.rtc$IMZ DD FLAT:__RTC_InitBase
rtc$IMZ	ENDS
;	COMDAT rtc$TMZ
rtc$TMZ	SEGMENT
__RTC_Shutdown.rtc$TMZ DD FLAT:__RTC_Shutdown
rtc$TMZ	ENDS
;	COMDAT ??_7CD3DApplication@@6B@
CONST	SEGMENT
??_7CD3DApplication@@6B@ DD FLAT:?AdjustWindowForChange@CD3DApplication@@MAEJXZ ; CD3DApplication::`vftable'
	DD	FLAT:?ConfirmDevice@CD3DApplication@@MAEJPAU_D3DCAPS8@@KW4_D3DFORMAT@@@Z
	DD	FLAT:?OneTimeSceneInit@CD3DApplication@@MAEJXZ
	DD	FLAT:?InitDeviceObjects@CD3DApplication@@MAEJXZ
	DD	FLAT:?RestoreDeviceObjects@CD3DApplication@@MAEJXZ
	DD	FLAT:?FrameMove@CD3DApplication@@MAEJXZ
	DD	FLAT:?Render@CD3DApplication@@MAEJXZ
	DD	FLAT:?InvalidateDeviceObjects@CD3DApplication@@MAEJXZ
	DD	FLAT:?DeleteDeviceObjects@CD3DApplication@@MAEJXZ
	DD	FLAT:?FinalCleanup@CD3DApplication@@MAEJXZ
	DD	FLAT:?Create@CD3DApplication@@UAEJPAUHINSTANCE__@@@Z
	DD	FLAT:?Run@CD3DApplication@@UAEHXZ
	DD	FLAT:?MsgProc@CD3DApplication@@UAEJPAUHWND__@@IIJ@Z
	DD	FLAT:?Pause@CD3DApplication@@UAEXH@Z
CONST	ENDS
;	COMDAT ??_C@_0BB@PGNJOJOA@D3D8?5Application?$AA@
CONST	SEGMENT
??_C@_0BB@PGNJOJOA@D3D8?5Application?$AA@ DB 'D3D8 Application', 00H ; `string'
; Function compile flags: /Odt /RTCsu /ZI
CONST	ENDS
;	COMDAT ??0CD3DApplication@@QAE@XZ
_TEXT	SEGMENT
_this$ = -8
??0CD3DApplication@@QAE@XZ PROC NEAR			; CD3DApplication::CD3DApplication, COMDAT
; _this$ = ecx

; 40   : {

  00000	55		 push	 ebp
  00001	8b ec		 mov	 ebp, esp
  00003	81 ec cc 00 00
	00		 sub	 esp, 204		; 000000ccH
  00009	53		 push	 ebx
  0000a	56		 push	 esi
  0000b	57		 push	 edi
  0000c	51		 push	 ecx
  0000d	8d bd 34 ff ff
	ff		 lea	 edi, DWORD PTR [ebp-204]
  00013	b9 33 00 00 00	 mov	 ecx, 51			; 00000033H
  00018	b8 cc cc cc cc	 mov	 eax, -858993460		; ccccccccH
  0001d	f3 ab		 rep stosd
  0001f	59		 pop	 ecx
  00020	89 4d f8	 mov	 DWORD PTR _this$[ebp], ecx
  00023	8b 45 f8	 mov	 eax, DWORD PTR _this$[ebp]
  00026	c7 00 00 00 00
	00		 mov	 DWORD PTR [eax], OFFSET FLAT:??_7CD3DApplication@@6B@

; 41   :     g_pD3DApp           = this;

  0002c	8b 45 f8	 mov	 eax, DWORD PTR _this$[ebp]
  0002f	a3 00 00 00 00	 mov	 DWORD PTR _g_pD3DApp, eax

; 42   : 
; 43   : 
; 44   : 	
; 45   : // Dom's additions
; 46   : 	m_bVSync			= FALSE ;

  00034	8b 45 f8	 mov	 eax, DWORD PTR _this$[ebp]
  00037	c7 80 a4 a6 02
	00 00 00 00 00	 mov	 DWORD PTR [eax+173732], 0

; 47   : 	m_nFSAA				= 0 ;			// (none)

  00041	8b 45 f8	 mov	 eax, DWORD PTR _this$[ebp]
  00044	c7 80 a8 a6 02
	00 00 00 00 00	 mov	 DWORD PTR [eax+173736], 0

; 48   : 	m_nFullScreenWidth  = 640 ;

  0004e	8b 45 f8	 mov	 eax, DWORD PTR _this$[ebp]
  00051	c7 80 ac a6 02
	00 80 02 00 00	 mov	 DWORD PTR [eax+173740], 640 ; 00000280H

; 49   : 	m_nFullScreenHeight = 480 ;

  0005b	8b 45 f8	 mov	 eax, DWORD PTR _this$[ebp]
  0005e	c7 80 b0 a6 02
	00 e0 01 00 00	 mov	 DWORD PTR [eax+173744], 480 ; 000001e0H

; 50   : 
; 51   : 	
; 52   : 	m_dwNumAdapters     = 0;

  00068	8b 45 f8	 mov	 eax, DWORD PTR _this$[ebp]
  0006b	c7 80 44 a4 02
	00 00 00 00 00	 mov	 DWORD PTR [eax+173124], 0

; 53   :     m_dwAdapter         = 0L;

  00075	8b 45 f8	 mov	 eax, DWORD PTR _this$[ebp]
  00078	c7 80 48 a4 02
	00 00 00 00 00	 mov	 DWORD PTR [eax+173128], 0

; 54   :     m_pD3D              = NULL;

  00082	8b 45 f8	 mov	 eax, DWORD PTR _this$[ebp]
  00085	c7 80 a4 a4 02
	00 00 00 00 00	 mov	 DWORD PTR [eax+173220], 0

; 55   :     m_pd3dDevice        = NULL;

  0008f	8b 45 f8	 mov	 eax, DWORD PTR _this$[ebp]
  00092	c7 80 a8 a4 02
	00 00 00 00 00	 mov	 DWORD PTR [eax+173224], 0

; 56   :     m_hWnd              = NULL;

  0009c	8b 45 f8	 mov	 eax, DWORD PTR _this$[ebp]
  0009f	c7 80 98 a4 02
	00 00 00 00 00	 mov	 DWORD PTR [eax+173208], 0

; 57   :     m_hWndFocus         = NULL;

  000a9	8b 45 f8	 mov	 eax, DWORD PTR _this$[ebp]
  000ac	c7 80 9c a4 02
	00 00 00 00 00	 mov	 DWORD PTR [eax+173212], 0

; 58   :     m_hMenu             = NULL;

  000b6	8b 45 f8	 mov	 eax, DWORD PTR _this$[ebp]
  000b9	c7 80 a0 a4 02
	00 00 00 00 00	 mov	 DWORD PTR [eax+173216], 0

; 59   :     m_bActive           = FALSE;

  000c3	8b 45 f8	 mov	 eax, DWORD PTR _this$[ebp]
  000c6	c7 80 50 a4 02
	00 00 00 00 00	 mov	 DWORD PTR [eax+173136], 0

; 60   :     m_bReady            = FALSE;

  000d0	8b 45 f8	 mov	 eax, DWORD PTR _this$[ebp]
  000d3	c7 80 54 a4 02
	00 00 00 00 00	 mov	 DWORD PTR [eax+173140], 0

; 61   :     m_bHasFocus			= FALSE;

  000dd	8b 45 f8	 mov	 eax, DWORD PTR _this$[ebp]
  000e0	c7 80 58 a4 02
	00 00 00 00 00	 mov	 DWORD PTR [eax+173144], 0

; 62   :     m_dwCreateFlags     = 0L;

  000ea	8b 45 f8	 mov	 eax, DWORD PTR _this$[ebp]
  000ed	c7 80 a0 a5 02
	00 00 00 00 00	 mov	 DWORD PTR [eax+173472], 0

; 63   : 
; 64   :     m_bFrameMoving      = TRUE;

  000f7	8b 45 f8	 mov	 eax, DWORD PTR _this$[ebp]
  000fa	c7 80 5c a4 02
	00 01 00 00 00	 mov	 DWORD PTR [eax+173148], 1

; 65   :     m_bSingleStep       = FALSE;

  00104	8b 45 f8	 mov	 eax, DWORD PTR _this$[ebp]
  00107	c7 80 60 a4 02
	00 00 00 00 00	 mov	 DWORD PTR [eax+173152], 0

; 66   :     m_fFPS              = 0.0f;

  00111	8b 45 f8	 mov	 eax, DWORD PTR _this$[ebp]
  00114	c7 80 cc a5 02
	00 00 00 00 00	 mov	 DWORD PTR [eax+173516], 0

; 67   :     m_strDeviceStats[0] = _T('\0');

  0011e	8b 45 f8	 mov	 eax, DWORD PTR _this$[ebp]
  00121	c6 80 d0 a5 02
	00 00		 mov	 BYTE PTR [eax+173520], 0

; 68   :     m_strFrameStats[0]  = _T('\0');

  00128	8b 45 f8	 mov	 eax, DWORD PTR _this$[ebp]
  0012b	c6 80 2a a6 02
	00 00		 mov	 BYTE PTR [eax+173610], 0

; 69   : 
; 70   :     m_strWindowTitle    = _T("D3D8 Application");

  00132	8b 45 f8	 mov	 eax, DWORD PTR _this$[ebp]
  00135	c7 80 84 a6 02
	00 00 00 00 00	 mov	 DWORD PTR [eax+173700], OFFSET FLAT:??_C@_0BB@PGNJOJOA@D3D8?5Application?$AA@

; 71   :     m_dwCreationWidth   = 400;

  0013f	8b 45 f8	 mov	 eax, DWORD PTR _this$[ebp]
  00142	c7 80 94 a6 02
	00 90 01 00 00	 mov	 DWORD PTR [eax+173716], 400 ; 00000190H

; 72   :     m_dwCreationHeight  = 300;

  0014c	8b 45 f8	 mov	 eax, DWORD PTR _this$[ebp]
  0014f	c7 80 98 a6 02
	00 2c 01 00 00	 mov	 DWORD PTR [eax+173720], 300 ; 0000012cH

; 73   :     m_bUseDepthBuffer   = FALSE;

  00159	8b 45 f8	 mov	 eax, DWORD PTR _this$[ebp]
  0015c	c7 80 88 a6 02
	00 00 00 00 00	 mov	 DWORD PTR [eax+173704], 0

; 74   :     m_dwMinDepthBits    = 16;

  00166	8b 45 f8	 mov	 eax, DWORD PTR _this$[ebp]
  00169	c7 80 8c a6 02
	00 10 00 00 00	 mov	 DWORD PTR [eax+173708], 16 ; 00000010H

; 75   :     m_dwMinStencilBits  = 0;

  00173	8b 45 f8	 mov	 eax, DWORD PTR _this$[ebp]
  00176	c7 80 90 a6 02
	00 00 00 00 00	 mov	 DWORD PTR [eax+173712], 0

; 76   :     m_bShowCursorWhenFullscreen = FALSE;

  00180	8b 45 f8	 mov	 eax, DWORD PTR _this$[ebp]
  00183	c7 80 9c a6 02
	00 00 00 00 00	 mov	 DWORD PTR [eax+173724], 0

; 77   : 
; 78   :     // When m_bClipCursorWhenFullscreen is TRUE, the cursor is limited to
; 79   :     // the device window when the app goes fullscreen.  This prevents users
; 80   :     // from accidentally clicking outside the app window on a multimon system.
; 81   :     // This flag is turned off by default for debug builds, since it makes 
; 82   :     // multimon debugging difficult.
; 83   : #if defined(_DEBUG) || defined(DEBUG)
; 84   :     m_bClipCursorWhenFullscreen = FALSE;

  0018d	8b 45 f8	 mov	 eax, DWORD PTR _this$[ebp]
  00190	c7 80 a0 a6 02
	00 00 00 00 00	 mov	 DWORD PTR [eax+173728], 0

; 85   : #else
; 86   :     m_bClipCursorWhenFullscreen = TRUE;
; 87   : #endif
; 88   : 
; 89   : 	// DM
; 90   : 	m_bInSizeMoveLoop = FALSE ;

  0019a	8b 45 f8	 mov	 eax, DWORD PTR _this$[ebp]
  0019d	c7 80 b4 a7 02
	00 00 00 00 00	 mov	 DWORD PTR [eax+174004], 0

; 91   : }

  001a7	8b 45 f8	 mov	 eax, DWORD PTR _this$[ebp]
  001aa	5f		 pop	 edi
  001ab	5e		 pop	 esi
  001ac	5b		 pop	 ebx
  001ad	8b e5		 mov	 esp, ebp
  001af	5d		 pop	 ebp
  001b0	c3		 ret	 0
??0CD3DApplication@@QAE@XZ ENDP				; CD3DApplication::CD3DApplication
_TEXT	ENDS
PUBLIC	?WndProc@@YGJPAUHWND__@@IIJ@Z			; WndProc
EXTRN	__RTC_CheckEsp:NEAR
; Function compile flags: /Odt /RTCsu /ZI
;	COMDAT ?WndProc@@YGJPAUHWND__@@IIJ@Z
_TEXT	SEGMENT
_hWnd$ = 8
_uMsg$ = 12
_wParam$ = 16
_lParam$ = 20
?WndProc@@YGJPAUHWND__@@IIJ@Z PROC NEAR			; WndProc, COMDAT

; 101  : {

  00000	55		 push	 ebp
  00001	8b ec		 mov	 ebp, esp
  00003	81 ec c0 00 00
	00		 sub	 esp, 192		; 000000c0H
  00009	53		 push	 ebx
  0000a	56		 push	 esi
  0000b	57		 push	 edi
  0000c	8d bd 40 ff ff
	ff		 lea	 edi, DWORD PTR [ebp-192]
  00012	b9 30 00 00 00	 mov	 ecx, 48			; 00000030H
  00017	b8 cc cc cc cc	 mov	 eax, -858993460		; ccccccccH
  0001c	f3 ab		 rep stosd

; 102  :     return g_pD3DApp->MsgProc( hWnd, uMsg, wParam, lParam );

  0001e	8b f4		 mov	 esi, esp
  00020	8b 45 14	 mov	 eax, DWORD PTR _lParam$[ebp]
  00023	50		 push	 eax
  00024	8b 4d 10	 mov	 ecx, DWORD PTR _wParam$[ebp]
  00027	51		 push	 ecx
  00028	8b 55 0c	 mov	 edx, DWORD PTR _uMsg$[ebp]
  0002b	52		 push	 edx
  0002c	8b 45 08	 mov	 eax, DWORD PTR _hWnd$[ebp]
  0002f	50		 push	 eax
  00030	8b 0d 00 00 00
	00		 mov	 ecx, DWORD PTR _g_pD3DApp
  00036	8b 11		 mov	 edx, DWORD PTR [ecx]
  00038	8b 0d 00 00 00
	00		 mov	 ecx, DWORD PTR _g_pD3DApp
  0003e	ff 52 30	 call	 DWORD PTR [edx+48]
  00041	3b f4		 cmp	 esi, esp
  00043	e8 00 00 00 00	 call	 __RTC_CheckEsp

; 103  : }

  00048	5f		 pop	 edi
  00049	5e		 pop	 esi
  0004a	5b		 pop	 ebx
  0004b	81 c4 c0 00 00
	00		 add	 esp, 192		; 000000c0H
  00051	3b ec		 cmp	 ebp, esp
  00053	e8 00 00 00 00	 call	 __RTC_CheckEsp
  00058	8b e5		 mov	 esp, ebp
  0005a	5d		 pop	 ebp
  0005b	c2 10 00	 ret	 16			; 00000010H
?WndProc@@YGJPAUHWND__@@IIJ@Z ENDP			; WndProc
_TEXT	ENDS
PUBLIC	?DisplayErrorMsg@CD3DApplication@@IAEJJK@Z	; CD3DApplication::DisplayErrorMsg
PUBLIC	?BuildDeviceList@CD3DApplication@@IAEJXZ	; CD3DApplication::BuildDeviceList
PUBLIC	?Initialize3DEnvironment@CD3DApplication@@IAEJXZ ; CD3DApplication::Initialize3DEnvironment
PUBLIC	??_C@_0L@HDBPGOOH@D3D?5Window?$AA@		; `string'
EXTRN	__imp__SetRect@20:NEAR
EXTRN	__imp__GetWindowLongA@8:NEAR
EXTRN	__imp__RegisterClassA@4:NEAR
EXTRN	__imp__CreateWindowExA@48:NEAR
EXTRN	__imp__LoadCursorA@8:NEAR
EXTRN	__imp__LoadIconA@8:NEAR
EXTRN	@_RTC_CheckStackVars@8:NEAR
EXTRN	__imp__GetClientRect@8:NEAR
EXTRN	__imp__GetWindowRect@8:NEAR
EXTRN	__imp__AdjustWindowRect@12:NEAR
EXTRN	_Direct3DCreate8@4:NEAR
EXTRN	?DXUtil_Timer@@YGMW4TIMER_COMMAND@@@Z:NEAR	; DXUtil_Timer
EXTRN	__imp__GetStockObject@4:NEAR
;	COMDAT ??_C@_0L@HDBPGOOH@D3D?5Window?$AA@
CONST	SEGMENT
??_C@_0L@HDBPGOOH@D3D?5Window?$AA@ DB 'D3D Window', 00H	; `string'
; Function compile flags: /Odt /RTCsu /ZI
CONST	ENDS
;	COMDAT ?Create@CD3DApplication@@UAEJPAUHINSTANCE__@@@Z
_TEXT	SEGMENT
_rc$85656 = -92
_wndClass$85647 = -68
_hr$ = -20
_this$ = -8
_hInstance$ = 8
?Create@CD3DApplication@@UAEJPAUHINSTANCE__@@@Z PROC NEAR ; CD3DApplication::Create, COMDAT
; _this$ = ecx

; 113  : {

  00000	55		 push	 ebp
  00001	8b ec		 mov	 ebp, esp
  00003	81 ec 20 01 00
	00		 sub	 esp, 288		; 00000120H
  00009	53		 push	 ebx
  0000a	56		 push	 esi
  0000b	57		 push	 edi
  0000c	51		 push	 ecx
  0000d	8d bd e0 fe ff
	ff		 lea	 edi, DWORD PTR [ebp-288]
  00013	b9 48 00 00 00	 mov	 ecx, 72			; 00000048H
  00018	b8 cc cc cc cc	 mov	 eax, -858993460		; ccccccccH
  0001d	f3 ab		 rep stosd
  0001f	59		 pop	 ecx
  00020	89 4d f8	 mov	 DWORD PTR _this$[ebp], ecx

; 114  :     HRESULT hr;
; 115  : 
; 116  :     // Create the Direct3D object
; 117  :     m_pD3D = Direct3DCreate8( D3D_SDK_VERSION );

  00023	68 dc 00 00 00	 push	 220			; 000000dcH
  00028	e8 00 00 00 00	 call	 _Direct3DCreate8@4
  0002d	8b 4d f8	 mov	 ecx, DWORD PTR _this$[ebp]
  00030	89 81 a4 a4 02
	00		 mov	 DWORD PTR [ecx+173220], eax

; 118  :     if( m_pD3D == NULL )

  00036	8b 45 f8	 mov	 eax, DWORD PTR _this$[ebp]
  00039	83 b8 a4 a4 02
	00 00		 cmp	 DWORD PTR [eax+173220], 0
  00040	75 14		 jne	 SHORT $L85642

; 119  :         return DisplayErrorMsg( D3DAPPERR_NODIRECT3D, MSGERR_APPMUSTEXIT );

  00042	6a 01		 push	 1
  00044	68 01 00 00 82	 push	 -2113929215		; 82000001H
  00049	8b 4d f8	 mov	 ecx, DWORD PTR _this$[ebp]
  0004c	e8 00 00 00 00	 call	 ?DisplayErrorMsg@CD3DApplication@@IAEJJK@Z ; CD3DApplication::DisplayErrorMsg
  00051	e9 0f 03 00 00	 jmp	 $L85640
$L85642:

; 120  : 
; 121  :     // Build a list of Direct3D adapters, modes and devices. The
; 122  :     // ConfirmDevice() callback is used to confirm that only devices that
; 123  :     // meet the app's requirements are considered.
; 124  :     if( FAILED( hr = BuildDeviceList() ) )

  00056	8b 4d f8	 mov	 ecx, DWORD PTR _this$[ebp]
  00059	e8 00 00 00 00	 call	 ?BuildDeviceList@CD3DApplication@@IAEJXZ ; CD3DApplication::BuildDeviceList
  0005e	89 45 ec	 mov	 DWORD PTR _hr$[ebp], eax
  00061	83 7d ec 00	 cmp	 DWORD PTR _hr$[ebp], 0
  00065	7d 4d		 jge	 SHORT $L85644

; 125  :     {
; 126  :         SAFE_RELEASE( m_pD3D );

  00067	8b 45 f8	 mov	 eax, DWORD PTR _this$[ebp]
  0006a	83 b8 a4 a4 02
	00 00		 cmp	 DWORD PTR [eax+173220], 0
  00071	74 2e		 je	 SHORT $L85645
  00073	8b 45 f8	 mov	 eax, DWORD PTR _this$[ebp]
  00076	8b 88 a4 a4 02
	00		 mov	 ecx, DWORD PTR [eax+173220]
  0007c	8b 55 f8	 mov	 edx, DWORD PTR _this$[ebp]
  0007f	8b 82 a4 a4 02
	00		 mov	 eax, DWORD PTR [edx+173220]
  00085	8b 09		 mov	 ecx, DWORD PTR [ecx]
  00087	8b f4		 mov	 esi, esp
  00089	50		 push	 eax
  0008a	ff 51 08	 call	 DWORD PTR [ecx+8]
  0008d	3b f4		 cmp	 esi, esp
  0008f	e8 00 00 00 00	 call	 __RTC_CheckEsp
  00094	8b 45 f8	 mov	 eax, DWORD PTR _this$[ebp]
  00097	c7 80 a4 a4 02
	00 00 00 00 00	 mov	 DWORD PTR [eax+173220], 0
$L85645:

; 127  :         return DisplayErrorMsg( hr, MSGERR_APPMUSTEXIT );

  000a1	6a 01		 push	 1
  000a3	8b 45 ec	 mov	 eax, DWORD PTR _hr$[ebp]
  000a6	50		 push	 eax
  000a7	8b 4d f8	 mov	 ecx, DWORD PTR _this$[ebp]
  000aa	e8 00 00 00 00	 call	 ?DisplayErrorMsg@CD3DApplication@@IAEJJK@Z ; CD3DApplication::DisplayErrorMsg
  000af	e9 b1 02 00 00	 jmp	 $L85640
$L85644:

; 128  :     }
; 129  : 
; 130  :     // Unless a substitute hWnd has been specified, create a window to
; 131  :     // render into
; 132  :     if( m_hWnd == NULL)

  000b4	8b 45 f8	 mov	 eax, DWORD PTR _this$[ebp]
  000b7	83 b8 98 a4 02
	00 00		 cmp	 DWORD PTR [eax+173208], 0
  000be	0f 85 41 01 00
	00		 jne	 $L85646

; 133  :     {
; 134  :         // Register the windows class
; 135  :         WNDCLASS wndClass = { 0, WndProc, 0, 0, hInstance,

  000c4	c7 45 bc 00 00
	00 00		 mov	 DWORD PTR _wndClass$85647[ebp], 0
  000cb	c7 45 c0 00 00
	00 00		 mov	 DWORD PTR _wndClass$85647[ebp+4], OFFSET FLAT:?WndProc@@YGJPAUHWND__@@IIJ@Z ; WndProc
  000d2	c7 45 c4 00 00
	00 00		 mov	 DWORD PTR _wndClass$85647[ebp+8], 0
  000d9	c7 45 c8 00 00
	00 00		 mov	 DWORD PTR _wndClass$85647[ebp+12], 0
  000e0	8b 45 08	 mov	 eax, DWORD PTR _hInstance$[ebp]
  000e3	89 45 cc	 mov	 DWORD PTR _wndClass$85647[ebp+16], eax

; 136  :                               LoadIcon( hInstance, MAKEINTRESOURCE(IDI_MAIN_ICON) ),

  000e6	8b f4		 mov	 esi, esp
  000e8	6a 65		 push	 101			; 00000065H
  000ea	8b 45 08	 mov	 eax, DWORD PTR _hInstance$[ebp]
  000ed	50		 push	 eax
  000ee	ff 15 00 00 00
	00		 call	 DWORD PTR __imp__LoadIconA@8
  000f4	3b f4		 cmp	 esi, esp
  000f6	e8 00 00 00 00	 call	 __RTC_CheckEsp
  000fb	89 45 d0	 mov	 DWORD PTR _wndClass$85647[ebp+20], eax

; 137  :                               LoadCursor( NULL, IDC_ARROW ),

  000fe	8b f4		 mov	 esi, esp
  00100	68 00 7f 00 00	 push	 32512			; 00007f00H
  00105	6a 00		 push	 0
  00107	ff 15 00 00 00
	00		 call	 DWORD PTR __imp__LoadCursorA@8
  0010d	3b f4		 cmp	 esi, esp
  0010f	e8 00 00 00 00	 call	 __RTC_CheckEsp
  00114	89 45 d4	 mov	 DWORD PTR _wndClass$85647[ebp+24], eax

; 138  :                               (HBRUSH)GetStockObject(WHITE_BRUSH),

  00117	8b f4		 mov	 esi, esp
  00119	6a 00		 push	 0
  0011b	ff 15 00 00 00
	00		 call	 DWORD PTR __imp__GetStockObject@4
  00121	3b f4		 cmp	 esi, esp
  00123	e8 00 00 00 00	 call	 __RTC_CheckEsp
  00128	89 45 d8	 mov	 DWORD PTR _wndClass$85647[ebp+28], eax

; 139  :                               NULL, _T("D3D Window") };

  0012b	c7 45 dc 00 00
	00 00		 mov	 DWORD PTR _wndClass$85647[ebp+32], 0
  00132	c7 45 e0 00 00
	00 00		 mov	 DWORD PTR _wndClass$85647[ebp+36], OFFSET FLAT:??_C@_0L@HDBPGOOH@D3D?5Window?$AA@

; 140  :         RegisterClass( &wndClass );

  00139	8b f4		 mov	 esi, esp
  0013b	8d 45 bc	 lea	 eax, DWORD PTR _wndClass$85647[ebp]
  0013e	50		 push	 eax
  0013f	ff 15 00 00 00
	00		 call	 DWORD PTR __imp__RegisterClassA@4
  00145	3b f4		 cmp	 esi, esp
  00147	e8 00 00 00 00	 call	 __RTC_CheckEsp

; 141  : 
; 142  :         // Set the window's initial style
; 143  :         m_dwWindowStyle = WS_OVERLAPPED|WS_CAPTION|WS_SYSMENU|WS_THICKFRAME|
; 144  :                           WS_MINIMIZEBOX|WS_VISIBLE;

  0014c	8b 45 f8	 mov	 eax, DWORD PTR _this$[ebp]
  0014f	c7 80 a4 a5 02
	00 00 00 ce 10	 mov	 DWORD PTR [eax+173476], 281935872 ; 10ce0000H

; 145  : 
; 146  :         // Set the window's initial width
; 147  :         RECT rc;
; 148  :         SetRect( &rc, 0, 0, m_dwCreationWidth, m_dwCreationHeight );

  00159	8b f4		 mov	 esi, esp
  0015b	8b 45 f8	 mov	 eax, DWORD PTR _this$[ebp]
  0015e	8b 88 98 a6 02
	00		 mov	 ecx, DWORD PTR [eax+173720]
  00164	51		 push	 ecx
  00165	8b 55 f8	 mov	 edx, DWORD PTR _this$[ebp]
  00168	8b 82 94 a6 02
	00		 mov	 eax, DWORD PTR [edx+173716]
  0016e	50		 push	 eax
  0016f	6a 00		 push	 0
  00171	6a 00		 push	 0
  00173	8d 4d a4	 lea	 ecx, DWORD PTR _rc$85656[ebp]
  00176	51		 push	 ecx
  00177	ff 15 00 00 00
	00		 call	 DWORD PTR __imp__SetRect@20
  0017d	3b f4		 cmp	 esi, esp
  0017f	e8 00 00 00 00	 call	 __RTC_CheckEsp

; 149  :         AdjustWindowRect( &rc, m_dwWindowStyle, TRUE );

  00184	8b f4		 mov	 esi, esp
  00186	6a 01		 push	 1
  00188	8b 45 f8	 mov	 eax, DWORD PTR _this$[ebp]
  0018b	8b 88 a4 a5 02
	00		 mov	 ecx, DWORD PTR [eax+173476]
  00191	51		 push	 ecx
  00192	8d 55 a4	 lea	 edx, DWORD PTR _rc$85656[ebp]
  00195	52		 push	 edx
  00196	ff 15 00 00 00
	00		 call	 DWORD PTR __imp__AdjustWindowRect@12
  0019c	3b f4		 cmp	 esi, esp
  0019e	e8 00 00 00 00	 call	 __RTC_CheckEsp

; 150  : 
; 151  :         // Create the render window
; 152  : 
; 153  : 		// DM
; 154  : 		m_hWnd = CreateWindowEx( 
; 155  :   WS_EX_CLIENTEDGE|
; 156  :   WS_EX_CONTEXTHELP|
; 157  :   WS_EX_ACCEPTFILES,
; 158  :   "D3D Window",		    									 // pointer to registered class name
; 159  :   m_strWindowTitle,											 // pointer to window name
; 160  :   m_dwWindowStyle,   										 // window style
; 161  :   m_dwCreationX,  										     // horizontal position of window
; 162  :   m_dwCreationY,  										     // vertical position of window
; 163  :   (rc.right-rc.left),										 // window width
; 164  :   (rc.bottom-rc.top),          								 // window height
; 165  :   0L,      													 // handle to parent or owner window
; 166  :   NULL/*LoadMenu( hInstance, MAKEINTRESOURCE(IDR_MENU) )*/,  // handle to menu, or child-window identifier
; 167  :   hInstance,  												 // handle to application instance
; 168  :   0L														 // pointer to window-creation data
; 169  : 							   );					

  001a3	8b f4		 mov	 esi, esp
  001a5	6a 00		 push	 0
  001a7	8b 45 08	 mov	 eax, DWORD PTR _hInstance$[ebp]
  001aa	50		 push	 eax
  001ab	6a 00		 push	 0
  001ad	6a 00		 push	 0
  001af	8b 4d b0	 mov	 ecx, DWORD PTR _rc$85656[ebp+12]
  001b2	2b 4d a8	 sub	 ecx, DWORD PTR _rc$85656[ebp+4]
  001b5	51		 push	 ecx
  001b6	8b 55 ac	 mov	 edx, DWORD PTR _rc$85656[ebp+8]
  001b9	2b 55 a4	 sub	 edx, DWORD PTR _rc$85656[ebp]
  001bc	52		 push	 edx
  001bd	8b 45 f8	 mov	 eax, DWORD PTR _this$[ebp]
  001c0	8b 88 bc a7 02
	00		 mov	 ecx, DWORD PTR [eax+174012]
  001c6	51		 push	 ecx
  001c7	8b 55 f8	 mov	 edx, DWORD PTR _this$[ebp]
  001ca	8b 82 b8 a7 02
	00		 mov	 eax, DWORD PTR [edx+174008]
  001d0	50		 push	 eax
  001d1	8b 4d f8	 mov	 ecx, DWORD PTR _this$[ebp]
  001d4	8b 91 a4 a5 02
	00		 mov	 edx, DWORD PTR [ecx+173476]
  001da	52		 push	 edx
  001db	8b 45 f8	 mov	 eax, DWORD PTR _this$[ebp]
  001de	8b 88 84 a6 02
	00		 mov	 ecx, DWORD PTR [eax+173700]
  001e4	51		 push	 ecx
  001e5	68 00 00 00 00	 push	 OFFSET FLAT:??_C@_0L@HDBPGOOH@D3D?5Window?$AA@
  001ea	68 10 06 00 00	 push	 1552			; 00000610H
  001ef	ff 15 00 00 00
	00		 call	 DWORD PTR __imp__CreateWindowExA@48
  001f5	3b f4		 cmp	 esi, esp
  001f7	e8 00 00 00 00	 call	 __RTC_CheckEsp
  001fc	8b 55 f8	 mov	 edx, DWORD PTR _this$[ebp]
  001ff	89 82 98 a4 02
	00		 mov	 DWORD PTR [edx+173208], eax
$L85646:

; 170  : 
; 171  :     }
; 172  : 
; 173  :     // The focus window can be a specified to be a different window than the
; 174  :     // device window.  If not, use the device window as the focus window.
; 175  :     if( m_hWndFocus == NULL )

  00205	8b 45 f8	 mov	 eax, DWORD PTR _this$[ebp]
  00208	83 b8 9c a4 02
	00 00		 cmp	 DWORD PTR [eax+173212], 0
  0020f	75 12		 jne	 SHORT $L85657

; 176  :         m_hWndFocus = m_hWnd;

  00211	8b 45 f8	 mov	 eax, DWORD PTR _this$[ebp]
  00214	8b 4d f8	 mov	 ecx, DWORD PTR _this$[ebp]
  00217	8b 91 98 a4 02
	00		 mov	 edx, DWORD PTR [ecx+173208]
  0021d	89 90 9c a4 02
	00		 mov	 DWORD PTR [eax+173212], edx
$L85657:

; 177  : 
; 178  :     // Save window properties
; 179  :     m_dwWindowStyle = GetWindowLong( m_hWnd, GWL_STYLE );

  00223	8b f4		 mov	 esi, esp
  00225	6a f0		 push	 -16			; fffffff0H
  00227	8b 45 f8	 mov	 eax, DWORD PTR _this$[ebp]
  0022a	8b 88 98 a4 02
	00		 mov	 ecx, DWORD PTR [eax+173208]
  00230	51		 push	 ecx
  00231	ff 15 00 00 00
	00		 call	 DWORD PTR __imp__GetWindowLongA@8
  00237	3b f4		 cmp	 esi, esp
  00239	e8 00 00 00 00	 call	 __RTC_CheckEsp
  0023e	8b 55 f8	 mov	 edx, DWORD PTR _this$[ebp]
  00241	89 82 a4 a5 02
	00		 mov	 DWORD PTR [edx+173476], eax

; 180  :     GetWindowRect( m_hWnd, &m_rcWindowBounds );

  00247	8b 45 f8	 mov	 eax, DWORD PTR _this$[ebp]
  0024a	05 a8 a5 02 00	 add	 eax, 173480		; 0002a5a8H
  0024f	8b f4		 mov	 esi, esp
  00251	50		 push	 eax
  00252	8b 4d f8	 mov	 ecx, DWORD PTR _this$[ebp]
  00255	8b 91 98 a4 02
	00		 mov	 edx, DWORD PTR [ecx+173208]
  0025b	52		 push	 edx
  0025c	ff 15 00 00 00
	00		 call	 DWORD PTR __imp__GetWindowRect@8
  00262	3b f4		 cmp	 esi, esp
  00264	e8 00 00 00 00	 call	 __RTC_CheckEsp

; 181  :     GetClientRect( m_hWnd, &m_rcWindowClient );

  00269	8b 45 f8	 mov	 eax, DWORD PTR _this$[ebp]
  0026c	05 b8 a5 02 00	 add	 eax, 173496		; 0002a5b8H
  00271	8b f4		 mov	 esi, esp
  00273	50		 push	 eax
  00274	8b 4d f8	 mov	 ecx, DWORD PTR _this$[ebp]
  00277	8b 91 98 a4 02
	00		 mov	 edx, DWORD PTR [ecx+173208]
  0027d	52		 push	 edx
  0027e	ff 15 00 00 00
	00		 call	 DWORD PTR __imp__GetClientRect@8
  00284	3b f4		 cmp	 esi, esp
  00286	e8 00 00 00 00	 call	 __RTC_CheckEsp

; 182  : 
; 183  :     // Initialize the application timer
; 184  :     DXUtil_Timer( TIMER_START );

  0028b	6a 01		 push	 1
  0028d	e8 00 00 00 00	 call	 ?DXUtil_Timer@@YGMW4TIMER_COMMAND@@@Z ; DXUtil_Timer
  00292	dd d8		 fstp	 ST(0)

; 185  : 
; 186  :     // Initialize the app's custom scene stuff
; 187  :     if( FAILED( hr = OneTimeSceneInit() ) )

  00294	8b 45 f8	 mov	 eax, DWORD PTR _this$[ebp]
  00297	8b 10		 mov	 edx, DWORD PTR [eax]
  00299	8b f4		 mov	 esi, esp
  0029b	8b 4d f8	 mov	 ecx, DWORD PTR _this$[ebp]
  0029e	ff 52 08	 call	 DWORD PTR [edx+8]
  002a1	3b f4		 cmp	 esi, esp
  002a3	e8 00 00 00 00	 call	 __RTC_CheckEsp
  002a8	89 45 ec	 mov	 DWORD PTR _hr$[ebp], eax
  002ab	83 7d ec 00	 cmp	 DWORD PTR _hr$[ebp], 0
  002af	7d 4a		 jge	 SHORT $L85659

; 188  :     {
; 189  :         SAFE_RELEASE( m_pD3D );

  002b1	8b 45 f8	 mov	 eax, DWORD PTR _this$[ebp]
  002b4	83 b8 a4 a4 02
	00 00		 cmp	 DWORD PTR [eax+173220], 0
  002bb	74 2e		 je	 SHORT $L85660
  002bd	8b 45 f8	 mov	 eax, DWORD PTR _this$[ebp]
  002c0	8b 88 a4 a4 02
	00		 mov	 ecx, DWORD PTR [eax+173220]
  002c6	8b 55 f8	 mov	 edx, DWORD PTR _this$[ebp]
  002c9	8b 82 a4 a4 02
	00		 mov	 eax, DWORD PTR [edx+173220]
  002cf	8b 09		 mov	 ecx, DWORD PTR [ecx]
  002d1	8b f4		 mov	 esi, esp
  002d3	50		 push	 eax
  002d4	ff 51 08	 call	 DWORD PTR [ecx+8]
  002d7	3b f4		 cmp	 esi, esp
  002d9	e8 00 00 00 00	 call	 __RTC_CheckEsp
  002de	8b 45 f8	 mov	 eax, DWORD PTR _this$[ebp]
  002e1	c7 80 a4 a4 02
	00 00 00 00 00	 mov	 DWORD PTR [eax+173220], 0
$L85660:

; 190  :         return DisplayErrorMsg( hr, MSGERR_APPMUSTEXIT );

  002eb	6a 01		 push	 1
  002ed	8b 45 ec	 mov	 eax, DWORD PTR _hr$[ebp]
  002f0	50		 push	 eax
  002f1	8b 4d f8	 mov	 ecx, DWORD PTR _this$[ebp]
  002f4	e8 00 00 00 00	 call	 ?DisplayErrorMsg@CD3DApplication@@IAEJJK@Z ; CD3DApplication::DisplayErrorMsg
  002f9	eb 6a		 jmp	 SHORT $L85640
$L85659:

; 191  :     }
; 192  : 
; 193  :     // Initialize the 3D environment for the app
; 194  :     if( FAILED( hr = Initialize3DEnvironment() ) )

  002fb	8b 4d f8	 mov	 ecx, DWORD PTR _this$[ebp]
  002fe	e8 00 00 00 00	 call	 ?Initialize3DEnvironment@CD3DApplication@@IAEJXZ ; CD3DApplication::Initialize3DEnvironment
  00303	89 45 ec	 mov	 DWORD PTR _hr$[ebp], eax
  00306	83 7d ec 00	 cmp	 DWORD PTR _hr$[ebp], 0
  0030a	7d 4a		 jge	 SHORT $L85662

; 195  :     {
; 196  :         SAFE_RELEASE( m_pD3D );

  0030c	8b 45 f8	 mov	 eax, DWORD PTR _this$[ebp]
  0030f	83 b8 a4 a4 02
	00 00		 cmp	 DWORD PTR [eax+173220], 0
  00316	74 2e		 je	 SHORT $L85663
  00318	8b 45 f8	 mov	 eax, DWORD PTR _this$[ebp]
  0031b	8b 88 a4 a4 02
	00		 mov	 ecx, DWORD PTR [eax+173220]
  00321	8b 55 f8	 mov	 edx, DWORD PTR _this$[ebp]
  00324	8b 82 a4 a4 02
	00		 mov	 eax, DWORD PTR [edx+173220]
  0032a	8b 09		 mov	 ecx, DWORD PTR [ecx]
  0032c	8b f4		 mov	 esi, esp
  0032e	50		 push	 eax
  0032f	ff 51 08	 call	 DWORD PTR [ecx+8]
  00332	3b f4		 cmp	 esi, esp
  00334	e8 00 00 00 00	 call	 __RTC_CheckEsp
  00339	8b 45 f8	 mov	 eax, DWORD PTR _this$[ebp]
  0033c	c7 80 a4 a4 02
	00 00 00 00 00	 mov	 DWORD PTR [eax+173220], 0
$L85663:

; 197  :         return DisplayErrorMsg( hr, MSGERR_APPMUSTEXIT );

  00346	6a 01		 push	 1
  00348	8b 45 ec	 mov	 eax, DWORD PTR _hr$[ebp]
  0034b	50		 push	 eax
  0034c	8b 4d f8	 mov	 ecx, DWORD PTR _this$[ebp]
  0034f	e8 00 00 00 00	 call	 ?DisplayErrorMsg@CD3DApplication@@IAEJJK@Z ; CD3DApplication::DisplayErrorMsg
  00354	eb 0f		 jmp	 SHORT $L85640
$L85662:

; 198  :     }
; 199  : 
; 200  :     // The app is ready to go
; 201  :     m_bReady = TRUE;

  00356	8b 45 f8	 mov	 eax, DWORD PTR _this$[ebp]
  00359	c7 80 54 a4 02
	00 01 00 00 00	 mov	 DWORD PTR [eax+173140], 1

; 202  : 
; 203  :     return S_OK;

  00363	33 c0		 xor	 eax, eax
$L85640:

; 204  : }

  00365	52		 push	 edx
  00366	8b cd		 mov	 ecx, ebp
  00368	50		 push	 eax
  00369	8d 15 00 00 00
	00		 lea	 edx, DWORD PTR $L86678
  0036f	e8 00 00 00 00	 call	 @_RTC_CheckStackVars@8
  00374	58		 pop	 eax
  00375	5a		 pop	 edx
  00376	5f		 pop	 edi
  00377	5e		 pop	 esi
  00378	5b		 pop	 ebx
  00379	81 c4 20 01 00
	00		 add	 esp, 288		; 00000120H
  0037f	3b ec		 cmp	 ebp, esp
  00381	e8 00 00 00 00	 call	 __RTC_CheckEsp
  00386	8b e5		 mov	 esp, ebp
  00388	5d		 pop	 ebp
  00389	c2 04 00	 ret	 4
$L86678:
  0038c	02 00 00 00	 DD	 2
  00390	00 00 00 00	 DD	 $L86677
$L86677:
  00394	bc ff ff ff	 DD	 -68			; ffffffbcH
  00398	28 00 00 00	 DD	 40			; 00000028H
  0039c	00 00 00 00	 DD	 $L86675
  003a0	a4 ff ff ff	 DD	 -92			; ffffffa4H
  003a4	10 00 00 00	 DD	 16			; 00000010H
  003a8	00 00 00 00	 DD	 $L86676
$L86676:
  003ac	72		 DB	 114			; 00000072H
  003ad	63		 DB	 99			; 00000063H
  003ae	00		 DB	 0
$L86675:
  003af	77		 DB	 119			; 00000077H
  003b0	6e		 DB	 110			; 0000006eH
  003b1	64		 DB	 100			; 00000064H
  003b2	43		 DB	 67			; 00000043H
  003b3	6c		 DB	 108			; 0000006cH
  003b4	61		 DB	 97			; 00000061H
  003b5	73		 DB	 115			; 00000073H
  003b6	73		 DB	 115			; 00000073H
  003b7	00		 DB	 0
?Create@CD3DApplication@@UAEJPAUHINSTANCE__@@@Z ENDP	; CD3DApplication::Create
_TEXT	ENDS
PUBLIC	?FindDepthStencilFormat@CD3DApplication@@IAEHIW4_D3DDEVTYPE@@W4_D3DFORMAT@@PAW43@@Z ; CD3DApplication::FindDepthStencilFormat
PUBLIC	??_C@_03KNIPLHMP@HAL?$AA@			; `string'
PUBLIC	??_C@_03GPMNEAGC@REF?$AA@			; `string'
EXTRN	_qsort:NEAR
EXTRN	__RTC_UninitUse:NEAR
;	COMDAT ??_C@_03KNIPLHMP@HAL?$AA@
CONST	SEGMENT
??_C@_03KNIPLHMP@HAL?$AA@ DB 'HAL', 00H			; `string'
CONST	ENDS
;	COMDAT ??_C@_03GPMNEAGC@REF?$AA@
CONST	SEGMENT
??_C@_03GPMNEAGC@REF?$AA@ DB 'REF', 00H			; `string'
; Function compile flags: /Odt /RTCsu /ZI
CONST	ENDS
;	COMDAT ?BuildDeviceList@CD3DApplication@@IAEJXZ
_TEXT	SEGMENT
$T86682 = -2469
_d$85776 = -2268
_a$85772 = -2256
_f$85755 = -2244
_m$85751 = -2232
_f$85727 = -2220
_fmtDepthStencil$85726 = -2208
_dwBehavior$85725 = -2120
_bFormatConfirmed$85724 = -2032
_pDevice$85723 = -1944
_iDevice$85719 = -1932
_f$85712 = -1920
_m$85706 = -1908
_DisplayMode$85705 = -1896
_iMode$85701 = -1872
_dwNumAdapterModes$85700 = -1860
_dwNumModes$85699 = -1848
_dwNumFormats$85698 = -1836
_formats$85697 = -1824
_modes$85696 = -1736
_pAdapter$85695 = -124
_iAdapter$85691 = -112
_bHALIsSampleCompatible$ = -100
_bHALIsDesktopCompatible$ = -88
_bHALIsWindowedCompatible$ = -76
_bHALExists$ = -64
_DeviceTypes$ = -52
_strDeviceDescs$ = -36
_dwNumDeviceTypes$ = -20
_this$ = -8
?BuildDeviceList@CD3DApplication@@IAEJXZ PROC NEAR	; CD3DApplication::BuildDeviceList, COMDAT
; _this$ = ecx

; 236  : {

  00000	55		 push	 ebp
  00001	8b ec		 mov	 ebp, esp
  00003	81 ec ac 09 00
	00		 sub	 esp, 2476		; 000009acH
  00009	53		 push	 ebx
  0000a	56		 push	 esi
  0000b	57		 push	 edi
  0000c	51		 push	 ecx
  0000d	8d bd 54 f6 ff
	ff		 lea	 edi, DWORD PTR [ebp-2476]
  00013	b9 6b 02 00 00	 mov	 ecx, 619		; 0000026bH
  00018	b8 cc cc cc cc	 mov	 eax, -858993460		; ccccccccH
  0001d	f3 ab		 rep stosd
  0001f	59		 pop	 ecx
  00020	89 4d f8	 mov	 DWORD PTR _this$[ebp], ecx

; 237  :     const DWORD dwNumDeviceTypes = 2;

  00023	c7 45 ec 02 00
	00 00		 mov	 DWORD PTR _dwNumDeviceTypes$[ebp], 2

; 238  :     const TCHAR* strDeviceDescs[] = { _T("HAL"), _T("REF") };

  0002a	c7 45 dc 00 00
	00 00		 mov	 DWORD PTR _strDeviceDescs$[ebp], OFFSET FLAT:??_C@_03KNIPLHMP@HAL?$AA@
  00031	c7 45 e0 00 00
	00 00		 mov	 DWORD PTR _strDeviceDescs$[ebp+4], OFFSET FLAT:??_C@_03GPMNEAGC@REF?$AA@

; 239  :     const D3DDEVTYPE DeviceTypes[] = { D3DDEVTYPE_HAL, D3DDEVTYPE_REF };

  00038	c7 45 cc 01 00
	00 00		 mov	 DWORD PTR _DeviceTypes$[ebp], 1
  0003f	c7 45 d0 02 00
	00 00		 mov	 DWORD PTR _DeviceTypes$[ebp+4], 2

; 240  : 
; 241  :     BOOL bHALExists = FALSE;

  00046	c7 45 c0 00 00
	00 00		 mov	 DWORD PTR _bHALExists$[ebp], 0

; 242  :     BOOL bHALIsWindowedCompatible = FALSE;

  0004d	c7 45 b4 00 00
	00 00		 mov	 DWORD PTR _bHALIsWindowedCompatible$[ebp], 0

; 243  :     BOOL bHALIsDesktopCompatible = FALSE;

  00054	c7 45 a8 00 00
	00 00		 mov	 DWORD PTR _bHALIsDesktopCompatible$[ebp], 0

; 244  :     BOOL bHALIsSampleCompatible = FALSE;

  0005b	c7 45 9c 00 00
	00 00		 mov	 DWORD PTR _bHALIsSampleCompatible$[ebp], 0

; 245  : 
; 246  :     // Loop through all the adapters on the system (usually, there's just one
; 247  :     // unless more than one graphics card is present).
; 248  :     for( UINT iAdapter = 0; iAdapter < m_pD3D->GetAdapterCount(); iAdapter++ )

  00062	c7 45 90 00 00
	00 00		 mov	 DWORD PTR _iAdapter$85691[ebp], 0
  00069	eb 09		 jmp	 SHORT $L85692
$L85693:
  0006b	8b 45 90	 mov	 eax, DWORD PTR _iAdapter$85691[ebp]
  0006e	83 c0 01	 add	 eax, 1
  00071	89 45 90	 mov	 DWORD PTR _iAdapter$85691[ebp], eax
$L85692:
  00074	8b 45 f8	 mov	 eax, DWORD PTR _this$[ebp]
  00077	8b 88 a4 a4 02
	00		 mov	 ecx, DWORD PTR [eax+173220]
  0007d	8b 55 f8	 mov	 edx, DWORD PTR _this$[ebp]
  00080	8b 82 a4 a4 02
	00		 mov	 eax, DWORD PTR [edx+173220]
  00086	8b 09		 mov	 ecx, DWORD PTR [ecx]
  00088	8b f4		 mov	 esi, esp
  0008a	50		 push	 eax
  0008b	ff 51 10	 call	 DWORD PTR [ecx+16]
  0008e	3b f4		 cmp	 esi, esp
  00090	e8 00 00 00 00	 call	 __RTC_CheckEsp
  00095	39 45 90	 cmp	 DWORD PTR _iAdapter$85691[ebp], eax
  00098	0f 83 5c 0a 00
	00		 jae	 $L85694

; 249  :     {
; 250  :         // Fill in adapter info
; 251  :         D3DAdapterInfo* pAdapter  = &m_Adapters[m_dwNumAdapters];

  0009e	8b 45 f8	 mov	 eax, DWORD PTR _this$[ebp]
  000a1	8b 88 44 a4 02
	00		 mov	 ecx, DWORD PTR [eax+173124]
  000a7	69 c9 a0 43 00
	00		 imul	 ecx, 17312		; 000043a0H
  000ad	8b 55 f8	 mov	 edx, DWORD PTR _this$[ebp]
  000b0	8d 44 0a 04	 lea	 eax, DWORD PTR [edx+ecx+4]
  000b4	89 45 84	 mov	 DWORD PTR _pAdapter$85695[ebp], eax

; 252  :         m_pD3D->GetAdapterIdentifier( iAdapter, D3DENUM_NO_WHQL_LEVEL, &pAdapter->d3dAdapterIdentifier );

  000b7	8b f4		 mov	 esi, esp
  000b9	8b 45 84	 mov	 eax, DWORD PTR _pAdapter$85695[ebp]
  000bc	50		 push	 eax
  000bd	6a 02		 push	 2
  000bf	8b 4d 90	 mov	 ecx, DWORD PTR _iAdapter$85691[ebp]
  000c2	51		 push	 ecx
  000c3	8b 55 f8	 mov	 edx, DWORD PTR _this$[ebp]
  000c6	8b 82 a4 a4 02
	00		 mov	 eax, DWORD PTR [edx+173220]
  000cc	8b 4d f8	 mov	 ecx, DWORD PTR _this$[ebp]
  000cf	8b 91 a4 a4 02
	00		 mov	 edx, DWORD PTR [ecx+173220]
  000d5	8b 00		 mov	 eax, DWORD PTR [eax]
  000d7	52		 push	 edx
  000d8	ff 50 14	 call	 DWORD PTR [eax+20]
  000db	3b f4		 cmp	 esi, esp
  000dd	e8 00 00 00 00	 call	 __RTC_CheckEsp

; 253  :         m_pD3D->GetAdapterDisplayMode( iAdapter, &pAdapter->d3ddmDesktop );

  000e2	8b 45 84	 mov	 eax, DWORD PTR _pAdapter$85695[ebp]
  000e5	05 2c 04 00 00	 add	 eax, 1068		; 0000042cH
  000ea	8b f4		 mov	 esi, esp
  000ec	50		 push	 eax
  000ed	8b 4d 90	 mov	 ecx, DWORD PTR _iAdapter$85691[ebp]
  000f0	51		 push	 ecx
  000f1	8b 55 f8	 mov	 edx, DWORD PTR _this$[ebp]
  000f4	8b 82 a4 a4 02
	00		 mov	 eax, DWORD PTR [edx+173220]
  000fa	8b 4d f8	 mov	 ecx, DWORD PTR _this$[ebp]
  000fd	8b 91 a4 a4 02
	00		 mov	 edx, DWORD PTR [ecx+173220]
  00103	8b 00		 mov	 eax, DWORD PTR [eax]
  00105	52		 push	 edx
  00106	ff 50 20	 call	 DWORD PTR [eax+32]
  00109	3b f4		 cmp	 esi, esp
  0010b	e8 00 00 00 00	 call	 __RTC_CheckEsp

; 254  :         pAdapter->dwNumDevices    = 0;

  00110	8b 45 84	 mov	 eax, DWORD PTR _pAdapter$85695[ebp]
  00113	c7 80 3c 04 00
	00 00 00 00 00	 mov	 DWORD PTR [eax+1084], 0

; 255  :         pAdapter->dwCurrentDevice = 0;

  0011d	8b 45 84	 mov	 eax, DWORD PTR _pAdapter$85695[ebp]
  00120	c7 80 9c 43 00
	00 00 00 00 00	 mov	 DWORD PTR [eax+17308], 0

; 256  : 
; 257  :         // Enumerate all display modes on this adapter
; 258  :         D3DDISPLAYMODE modes[100];
; 259  :         D3DFORMAT      formats[20];
; 260  :         DWORD dwNumFormats      = 0;

  0012a	c7 85 d4 f8 ff
	ff 00 00 00 00	 mov	 DWORD PTR _dwNumFormats$85698[ebp], 0

; 261  :         DWORD dwNumModes        = 0;

  00134	c7 85 c8 f8 ff
	ff 00 00 00 00	 mov	 DWORD PTR _dwNumModes$85699[ebp], 0

; 262  :         DWORD dwNumAdapterModes = m_pD3D->GetAdapterModeCount( iAdapter );

  0013e	8b f4		 mov	 esi, esp
  00140	8b 45 90	 mov	 eax, DWORD PTR _iAdapter$85691[ebp]
  00143	50		 push	 eax
  00144	8b 4d f8	 mov	 ecx, DWORD PTR _this$[ebp]
  00147	8b 91 a4 a4 02
	00		 mov	 edx, DWORD PTR [ecx+173220]
  0014d	8b 45 f8	 mov	 eax, DWORD PTR _this$[ebp]
  00150	8b 88 a4 a4 02
	00		 mov	 ecx, DWORD PTR [eax+173220]
  00156	8b 12		 mov	 edx, DWORD PTR [edx]
  00158	51		 push	 ecx
  00159	ff 52 18	 call	 DWORD PTR [edx+24]
  0015c	3b f4		 cmp	 esi, esp
  0015e	e8 00 00 00 00	 call	 __RTC_CheckEsp
  00163	89 85 bc f8 ff
	ff		 mov	 DWORD PTR _dwNumAdapterModes$85700[ebp], eax

; 263  : 
; 264  :         // Add the adapter's current desktop format to the list of formats
; 265  :         formats[dwNumFormats++] = pAdapter->d3ddmDesktop.Format;

  00169	8b 85 d4 f8 ff
	ff		 mov	 eax, DWORD PTR _dwNumFormats$85698[ebp]
  0016f	8b 4d 84	 mov	 ecx, DWORD PTR _pAdapter$85695[ebp]
  00172	8b 91 38 04 00
	00		 mov	 edx, DWORD PTR [ecx+1080]
  00178	89 94 85 e0 f8
	ff ff		 mov	 DWORD PTR _formats$85697[ebp+eax*4], edx
  0017f	8b 85 d4 f8 ff
	ff		 mov	 eax, DWORD PTR _dwNumFormats$85698[ebp]
  00185	83 c0 01	 add	 eax, 1
  00188	89 85 d4 f8 ff
	ff		 mov	 DWORD PTR _dwNumFormats$85698[ebp], eax

; 266  : 
; 267  :         for( UINT iMode = 0; iMode < dwNumAdapterModes; iMode++ )

  0018e	c7 85 b0 f8 ff
	ff 00 00 00 00	 mov	 DWORD PTR _iMode$85701[ebp], 0
  00198	eb 0f		 jmp	 SHORT $L85702
$L85703:
  0019a	8b 85 b0 f8 ff
	ff		 mov	 eax, DWORD PTR _iMode$85701[ebp]
  001a0	83 c0 01	 add	 eax, 1
  001a3	89 85 b0 f8 ff
	ff		 mov	 DWORD PTR _iMode$85701[ebp], eax
$L85702:
  001a9	8b 85 b0 f8 ff
	ff		 mov	 eax, DWORD PTR _iMode$85701[ebp]
  001af	3b 85 bc f8 ff
	ff		 cmp	 eax, DWORD PTR _dwNumAdapterModes$85700[ebp]
  001b5	0f 83 96 01 00
	00		 jae	 $L85704

; 268  :         {
; 269  :             // Get the display mode attributes
; 270  :             D3DDISPLAYMODE DisplayMode;
; 271  :             m_pD3D->EnumAdapterModes( iAdapter, iMode, &DisplayMode );

  001bb	8b f4		 mov	 esi, esp
  001bd	8d 85 98 f8 ff
	ff		 lea	 eax, DWORD PTR _DisplayMode$85705[ebp]
  001c3	50		 push	 eax
  001c4	8b 8d b0 f8 ff
	ff		 mov	 ecx, DWORD PTR _iMode$85701[ebp]
  001ca	51		 push	 ecx
  001cb	8b 55 90	 mov	 edx, DWORD PTR _iAdapter$85691[ebp]
  001ce	52		 push	 edx
  001cf	8b 45 f8	 mov	 eax, DWORD PTR _this$[ebp]
  001d2	8b 88 a4 a4 02
	00		 mov	 ecx, DWORD PTR [eax+173220]
  001d8	8b 55 f8	 mov	 edx, DWORD PTR _this$[ebp]
  001db	8b 82 a4 a4 02
	00		 mov	 eax, DWORD PTR [edx+173220]
  001e1	8b 09		 mov	 ecx, DWORD PTR [ecx]
  001e3	50		 push	 eax
  001e4	ff 51 1c	 call	 DWORD PTR [ecx+28]
  001e7	3b f4		 cmp	 esi, esp
  001e9	e8 00 00 00 00	 call	 __RTC_CheckEsp

; 272  : 
; 273  :             // Filter out low-resolution modes
; 274  :             //if( DisplayMode.Width  < 640 || DisplayMode.Height < 400 )
; 275  :             //  continue;
; 276  : 
; 277  :             // Check if the mode already exists (to filter out refresh rates)
; 278  :             for( DWORD m=0L; m<dwNumModes; m++ )

  001ee	c7 85 8c f8 ff
	ff 00 00 00 00	 mov	 DWORD PTR _m$85706[ebp], 0
  001f8	eb 0f		 jmp	 SHORT $L85707
$L85708:
  001fa	8b 85 8c f8 ff
	ff		 mov	 eax, DWORD PTR _m$85706[ebp]
  00200	83 c0 01	 add	 eax, 1
  00203	89 85 8c f8 ff
	ff		 mov	 DWORD PTR _m$85706[ebp], eax
$L85707:
  00209	8b 85 8c f8 ff
	ff		 mov	 eax, DWORD PTR _m$85706[ebp]
  0020f	3b 85 c8 f8 ff
	ff		 cmp	 eax, DWORD PTR _dwNumModes$85699[ebp]
  00215	73 4c		 jae	 SHORT $L85709

; 279  :             {
; 280  :                 if( ( modes[m].Width  == DisplayMode.Width  ) &&
; 281  :                     ( modes[m].Height == DisplayMode.Height ) &&
; 282  :                     ( modes[m].Format == DisplayMode.Format ) )

  00217	8b 85 8c f8 ff
	ff		 mov	 eax, DWORD PTR _m$85706[ebp]
  0021d	c1 e0 04	 shl	 eax, 4
  00220	8b 8c 05 38 f9
	ff ff		 mov	 ecx, DWORD PTR _modes$85696[ebp+eax]
  00227	3b 8d 98 f8 ff
	ff		 cmp	 ecx, DWORD PTR _DisplayMode$85705[ebp]
  0022d	75 32		 jne	 SHORT $L85710
  0022f	8b 85 8c f8 ff
	ff		 mov	 eax, DWORD PTR _m$85706[ebp]
  00235	c1 e0 04	 shl	 eax, 4
  00238	8b 8c 05 3c f9
	ff ff		 mov	 ecx, DWORD PTR _modes$85696[ebp+eax+4]
  0023f	3b 8d 9c f8 ff
	ff		 cmp	 ecx, DWORD PTR _DisplayMode$85705[ebp+4]
  00245	75 1a		 jne	 SHORT $L85710
  00247	8b 85 8c f8 ff
	ff		 mov	 eax, DWORD PTR _m$85706[ebp]
  0024d	c1 e0 04	 shl	 eax, 4
  00250	8b 8c 05 44 f9
	ff ff		 mov	 ecx, DWORD PTR _modes$85696[ebp+eax+12]
  00257	3b 8d a4 f8 ff
	ff		 cmp	 ecx, DWORD PTR _DisplayMode$85705[ebp+12]
  0025d	75 02		 jne	 SHORT $L85710

; 283  :                     break;

  0025f	eb 02		 jmp	 SHORT $L85709
$L85710:

; 284  :             }

  00261	eb 97		 jmp	 SHORT $L85708
$L85709:

; 285  : 
; 286  :             // If we found a new mode, add it to the list of modes
; 287  :             if( m == dwNumModes )

  00263	8b 85 8c f8 ff
	ff		 mov	 eax, DWORD PTR _m$85706[ebp]
  00269	3b 85 c8 f8 ff
	ff		 cmp	 eax, DWORD PTR _dwNumModes$85699[ebp]
  0026f	0f 85 d7 00 00
	00		 jne	 $L85711

; 288  :             {
; 289  :                 modes[dwNumModes].Width       = DisplayMode.Width;

  00275	8b 85 c8 f8 ff
	ff		 mov	 eax, DWORD PTR _dwNumModes$85699[ebp]
  0027b	c1 e0 04	 shl	 eax, 4
  0027e	8b 8d 98 f8 ff
	ff		 mov	 ecx, DWORD PTR _DisplayMode$85705[ebp]
  00284	89 8c 05 38 f9
	ff ff		 mov	 DWORD PTR _modes$85696[ebp+eax], ecx

; 290  :                 modes[dwNumModes].Height      = DisplayMode.Height;

  0028b	8b 85 c8 f8 ff
	ff		 mov	 eax, DWORD PTR _dwNumModes$85699[ebp]
  00291	c1 e0 04	 shl	 eax, 4
  00294	8b 8d 9c f8 ff
	ff		 mov	 ecx, DWORD PTR _DisplayMode$85705[ebp+4]
  0029a	89 8c 05 3c f9
	ff ff		 mov	 DWORD PTR _modes$85696[ebp+eax+4], ecx

; 291  :                 modes[dwNumModes].Format      = DisplayMode.Format;

  002a1	8b 85 c8 f8 ff
	ff		 mov	 eax, DWORD PTR _dwNumModes$85699[ebp]
  002a7	c1 e0 04	 shl	 eax, 4
  002aa	8b 8d a4 f8 ff
	ff		 mov	 ecx, DWORD PTR _DisplayMode$85705[ebp+12]
  002b0	89 8c 05 44 f9
	ff ff		 mov	 DWORD PTR _modes$85696[ebp+eax+12], ecx

; 292  :                 modes[dwNumModes].RefreshRate = 0;

  002b7	8b 85 c8 f8 ff
	ff		 mov	 eax, DWORD PTR _dwNumModes$85699[ebp]
  002bd	c1 e0 04	 shl	 eax, 4
  002c0	c7 84 05 40 f9
	ff ff 00 00 00
	00		 mov	 DWORD PTR _modes$85696[ebp+eax+8], 0

; 293  :                 dwNumModes++;

  002cb	8b 85 c8 f8 ff
	ff		 mov	 eax, DWORD PTR _dwNumModes$85699[ebp]
  002d1	83 c0 01	 add	 eax, 1
  002d4	89 85 c8 f8 ff
	ff		 mov	 DWORD PTR _dwNumModes$85699[ebp], eax

; 294  : 
; 295  :                 // Check if the mode's format already exists
; 296  :                 for( DWORD f=0; f<dwNumFormats; f++ )

  002da	c7 85 80 f8 ff
	ff 00 00 00 00	 mov	 DWORD PTR _f$85712[ebp], 0
  002e4	eb 0f		 jmp	 SHORT $L85713
$L85714:
  002e6	8b 85 80 f8 ff
	ff		 mov	 eax, DWORD PTR _f$85712[ebp]
  002ec	83 c0 01	 add	 eax, 1
  002ef	89 85 80 f8 ff
	ff		 mov	 DWORD PTR _f$85712[ebp], eax
$L85713:
  002f5	8b 85 80 f8 ff
	ff		 mov	 eax, DWORD PTR _f$85712[ebp]
  002fb	3b 85 d4 f8 ff
	ff		 cmp	 eax, DWORD PTR _dwNumFormats$85698[ebp]
  00301	73 19		 jae	 SHORT $L85715

; 297  :                 {
; 298  :                     if( DisplayMode.Format == formats[f] )

  00303	8b 85 80 f8 ff
	ff		 mov	 eax, DWORD PTR _f$85712[ebp]
  00309	8b 8d a4 f8 ff
	ff		 mov	 ecx, DWORD PTR _DisplayMode$85705[ebp+12]
  0030f	3b 8c 85 e0 f8
	ff ff		 cmp	 ecx, DWORD PTR _formats$85697[ebp+eax*4]
  00316	75 02		 jne	 SHORT $L85716

; 299  :                         break;

  00318	eb 02		 jmp	 SHORT $L85715
$L85716:

; 300  :                 }

  0031a	eb ca		 jmp	 SHORT $L85714
$L85715:

; 301  : 
; 302  :                 // If the format is new, add it to the list
; 303  :                 if( f== dwNumFormats )

  0031c	8b 85 80 f8 ff
	ff		 mov	 eax, DWORD PTR _f$85712[ebp]
  00322	3b 85 d4 f8 ff
	ff		 cmp	 eax, DWORD PTR _dwNumFormats$85698[ebp]
  00328	75 22		 jne	 SHORT $L85711

; 304  :                     formats[dwNumFormats++] = DisplayMode.Format;

  0032a	8b 85 d4 f8 ff
	ff		 mov	 eax, DWORD PTR _dwNumFormats$85698[ebp]
  00330	8b 8d a4 f8 ff
	ff		 mov	 ecx, DWORD PTR _DisplayMode$85705[ebp+12]
  00336	89 8c 85 e0 f8
	ff ff		 mov	 DWORD PTR _formats$85697[ebp+eax*4], ecx
  0033d	8b 95 d4 f8 ff
	ff		 mov	 edx, DWORD PTR _dwNumFormats$85698[ebp]
  00343	83 c2 01	 add	 edx, 1
  00346	89 95 d4 f8 ff
	ff		 mov	 DWORD PTR _dwNumFormats$85698[ebp], edx
$L85711:

; 305  :             }
; 306  :         }

  0034c	e9 49 fe ff ff	 jmp	 $L85703
$L85704:

; 307  : 
; 308  :         // Sort the list of display modes (by format, then width, then height)
; 309  :         qsort( modes, dwNumModes, sizeof(D3DDISPLAYMODE), SortModesCallback );

  00351	68 00 00 00 00	 push	 OFFSET FLAT:?SortModesCallback@@YAHPBX0@Z ; SortModesCallback
  00356	6a 10		 push	 16			; 00000010H
  00358	8b 85 c8 f8 ff
	ff		 mov	 eax, DWORD PTR _dwNumModes$85699[ebp]
  0035e	50		 push	 eax
  0035f	8d 8d 38 f9 ff
	ff		 lea	 ecx, DWORD PTR _modes$85696[ebp]
  00365	51		 push	 ecx
  00366	e8 00 00 00 00	 call	 _qsort
  0036b	83 c4 10	 add	 esp, 16			; 00000010H

; 310  : 
; 311  :         // Add devices to adapter
; 312  :         for( UINT iDevice = 0; iDevice < dwNumDeviceTypes; iDevice++ )

  0036e	c7 85 74 f8 ff
	ff 00 00 00 00	 mov	 DWORD PTR _iDevice$85719[ebp], 0
  00378	eb 0f		 jmp	 SHORT $L85720
$L85721:
  0037a	8b 85 74 f8 ff
	ff		 mov	 eax, DWORD PTR _iDevice$85719[ebp]
  00380	83 c0 01	 add	 eax, 1
  00383	89 85 74 f8 ff
	ff		 mov	 DWORD PTR _iDevice$85719[ebp], eax
$L85720:
  00389	83 bd 74 f8 ff
	ff 02		 cmp	 DWORD PTR _iDevice$85719[ebp], 2
  00390	0f 83 3e 07 00
	00		 jae	 $L85722
  00396	c6 85 5b f6 ff
	ff 00		 mov	 BYTE PTR $T86682[ebp], 0

; 313  :         {
; 314  :             // Fill in device info
; 315  :             D3DDeviceInfo* pDevice;
; 316  :             pDevice                 = &pAdapter->devices[pAdapter->dwNumDevices];

  0039d	8b 45 84	 mov	 eax, DWORD PTR _pAdapter$85695[ebp]
  003a0	8b 88 3c 04 00
	00		 mov	 ecx, DWORD PTR [eax+1084]
  003a6	69 c9 ac 0c 00
	00		 imul	 ecx, 3244		; 00000cacH
  003ac	8b 55 84	 mov	 edx, DWORD PTR _pAdapter$85695[ebp]
  003af	8d 84 0a 40 04
	00 00		 lea	 eax, DWORD PTR [edx+ecx+1088]
  003b6	89 85 68 f8 ff
	ff		 mov	 DWORD PTR _pDevice$85723[ebp], eax

; 317  :             pDevice->DeviceType     = DeviceTypes[iDevice];

  003bc	8b 85 68 f8 ff
	ff		 mov	 eax, DWORD PTR _pDevice$85723[ebp]
  003c2	8b 8d 74 f8 ff
	ff		 mov	 ecx, DWORD PTR _iDevice$85719[ebp]
  003c8	8b 54 8d cc	 mov	 edx, DWORD PTR _DeviceTypes$[ebp+ecx*4]
  003cc	89 10		 mov	 DWORD PTR [eax], edx

; 318  :             m_pD3D->GetDeviceCaps( iAdapter, DeviceTypes[iDevice], &pDevice->d3dCaps );

  003ce	8b 85 68 f8 ff
	ff		 mov	 eax, DWORD PTR _pDevice$85723[ebp]
  003d4	83 c0 04	 add	 eax, 4
  003d7	8b f4		 mov	 esi, esp
  003d9	50		 push	 eax
  003da	8b 8d 74 f8 ff
	ff		 mov	 ecx, DWORD PTR _iDevice$85719[ebp]
  003e0	8b 54 8d cc	 mov	 edx, DWORD PTR _DeviceTypes$[ebp+ecx*4]
  003e4	52		 push	 edx
  003e5	8b 45 90	 mov	 eax, DWORD PTR _iAdapter$85691[ebp]
  003e8	50		 push	 eax
  003e9	8b 4d f8	 mov	 ecx, DWORD PTR _this$[ebp]
  003ec	8b 91 a4 a4 02
	00		 mov	 edx, DWORD PTR [ecx+173220]
  003f2	8b 45 f8	 mov	 eax, DWORD PTR _this$[ebp]
  003f5	8b 88 a4 a4 02
	00		 mov	 ecx, DWORD PTR [eax+173220]
  003fb	8b 12		 mov	 edx, DWORD PTR [edx]
  003fd	51		 push	 ecx
  003fe	ff 52 34	 call	 DWORD PTR [edx+52]
  00401	3b f4		 cmp	 esi, esp
  00403	e8 00 00 00 00	 call	 __RTC_CheckEsp

; 319  :             pDevice->strDesc        = strDeviceDescs[iDevice];

  00408	8b 85 68 f8 ff
	ff		 mov	 eax, DWORD PTR _pDevice$85723[ebp]
  0040e	8b 8d 74 f8 ff
	ff		 mov	 ecx, DWORD PTR _iDevice$85719[ebp]
  00414	8b 54 8d dc	 mov	 edx, DWORD PTR _strDeviceDescs$[ebp+ecx*4]
  00418	89 90 d8 00 00
	00		 mov	 DWORD PTR [eax+216], edx

; 320  :             pDevice->dwNumModes     = 0;

  0041e	8b 85 68 f8 ff
	ff		 mov	 eax, DWORD PTR _pDevice$85723[ebp]
  00424	c7 80 e0 00 00
	00 00 00 00 00	 mov	 DWORD PTR [eax+224], 0

; 321  :             pDevice->dwCurrentMode  = 0;

  0042e	8b 85 68 f8 ff
	ff		 mov	 eax, DWORD PTR _pDevice$85723[ebp]
  00434	c7 80 9c 0c 00
	00 00 00 00 00	 mov	 DWORD PTR [eax+3228], 0

; 322  :             pDevice->bCanDoWindowed = FALSE;

  0043e	8b 85 68 f8 ff
	ff		 mov	 eax, DWORD PTR _pDevice$85723[ebp]
  00444	c7 80 dc 00 00
	00 00 00 00 00	 mov	 DWORD PTR [eax+220], 0

; 323  :             pDevice->bWindowed      = FALSE;

  0044e	8b 85 68 f8 ff
	ff		 mov	 eax, DWORD PTR _pDevice$85723[ebp]
  00454	c7 80 a0 0c 00
	00 00 00 00 00	 mov	 DWORD PTR [eax+3232], 0

; 324  :             pDevice->MultiSampleTypeFullscreen = D3DMULTISAMPLE_NONE;

  0045e	8b 85 68 f8 ff
	ff		 mov	 eax, DWORD PTR _pDevice$85723[ebp]
  00464	c7 80 a8 0c 00
	00 00 00 00 00	 mov	 DWORD PTR [eax+3240], 0

; 325  :             pDevice->MultiSampleTypeWindowed = D3DMULTISAMPLE_NONE;

  0046e	8b 85 68 f8 ff
	ff		 mov	 eax, DWORD PTR _pDevice$85723[ebp]
  00474	c7 80 a4 0c 00
	00 00 00 00 00	 mov	 DWORD PTR [eax+3236], 0

; 326  : 
; 327  :             // Examine each format supported by the adapter to see if it will
; 328  :             // work with this device and meets the needs of the application.
; 329  :             BOOL  bFormatConfirmed[20];
; 330  :             DWORD dwBehavior[20];
; 331  :             D3DFORMAT fmtDepthStencil[20];
; 332  : 
; 333  :             for( DWORD f=0; f<dwNumFormats; f++ )

  0047e	c7 85 54 f7 ff
	ff 00 00 00 00	 mov	 DWORD PTR _f$85727[ebp], 0
  00488	eb 0f		 jmp	 SHORT $L85728
$L85729:
  0048a	8b 85 54 f7 ff
	ff		 mov	 eax, DWORD PTR _f$85727[ebp]
  00490	83 c0 01	 add	 eax, 1
  00493	89 85 54 f7 ff
	ff		 mov	 DWORD PTR _f$85727[ebp], eax
$L85728:
  00499	8b 85 54 f7 ff
	ff		 mov	 eax, DWORD PTR _f$85727[ebp]
  0049f	3b 85 d4 f8 ff
	ff		 cmp	 eax, DWORD PTR _dwNumFormats$85698[ebp]
  004a5	0f 83 3a 03 00
	00		 jae	 $L85730

; 334  :             {
; 335  :                 bFormatConfirmed[f] = FALSE;

  004ab	c6 85 5b f6 ff
	ff 01		 mov	 BYTE PTR $T86682[ebp], 1
  004b2	8b 85 54 f7 ff
	ff		 mov	 eax, DWORD PTR _f$85727[ebp]
  004b8	c7 84 85 10 f8
	ff ff 00 00 00
	00		 mov	 DWORD PTR _bFormatConfirmed$85724[ebp+eax*4], 0

; 336  :                 fmtDepthStencil[f] = D3DFMT_UNKNOWN;

  004c3	8b 85 54 f7 ff
	ff		 mov	 eax, DWORD PTR _f$85727[ebp]
  004c9	c7 84 85 60 f7
	ff ff 00 00 00
	00		 mov	 DWORD PTR _fmtDepthStencil$85726[ebp+eax*4], 0

; 337  : 
; 338  :                 // Skip formats that cannot be used as render targets on this device
; 339  :                 if( FAILED( m_pD3D->CheckDeviceType( iAdapter, pDevice->DeviceType,
; 340  :                                                      formats[f], formats[f], FALSE ) ) )

  004d4	8b f4		 mov	 esi, esp
  004d6	6a 00		 push	 0
  004d8	8b 85 54 f7 ff
	ff		 mov	 eax, DWORD PTR _f$85727[ebp]
  004de	8b 8c 85 e0 f8
	ff ff		 mov	 ecx, DWORD PTR _formats$85697[ebp+eax*4]
  004e5	51		 push	 ecx
  004e6	8b 95 54 f7 ff
	ff		 mov	 edx, DWORD PTR _f$85727[ebp]
  004ec	8b 84 95 e0 f8
	ff ff		 mov	 eax, DWORD PTR _formats$85697[ebp+edx*4]
  004f3	50		 push	 eax
  004f4	8b 8d 68 f8 ff
	ff		 mov	 ecx, DWORD PTR _pDevice$85723[ebp]
  004fa	8b 11		 mov	 edx, DWORD PTR [ecx]
  004fc	52		 push	 edx
  004fd	8b 45 90	 mov	 eax, DWORD PTR _iAdapter$85691[ebp]
  00500	50		 push	 eax
  00501	8b 4d f8	 mov	 ecx, DWORD PTR _this$[ebp]
  00504	8b 91 a4 a4 02
	00		 mov	 edx, DWORD PTR [ecx+173220]
  0050a	8b 45 f8	 mov	 eax, DWORD PTR _this$[ebp]
  0050d	8b 88 a4 a4 02
	00		 mov	 ecx, DWORD PTR [eax+173220]
  00513	8b 12		 mov	 edx, DWORD PTR [edx]
  00515	51		 push	 ecx
  00516	ff 52 24	 call	 DWORD PTR [edx+36]
  00519	3b f4		 cmp	 esi, esp
  0051b	e8 00 00 00 00	 call	 __RTC_CheckEsp
  00520	85 c0		 test	 eax, eax
  00522	7d 05		 jge	 SHORT $L85732

; 341  :                     continue;

  00524	e9 61 ff ff ff	 jmp	 $L85729
$L85732:

; 342  : 
; 343  :                 if( pDevice->DeviceType == D3DDEVTYPE_HAL )

  00529	8b 85 68 f8 ff
	ff		 mov	 eax, DWORD PTR _pDevice$85723[ebp]
  0052f	83 38 01	 cmp	 DWORD PTR [eax], 1
  00532	75 31		 jne	 SHORT $L85733

; 344  :                 {
; 345  :                     // This system has a HAL device
; 346  :                     bHALExists = TRUE;

  00534	c7 45 c0 01 00
	00 00		 mov	 DWORD PTR _bHALExists$[ebp], 1

; 347  : 
; 348  :                     if( pDevice->d3dCaps.Caps2 & D3DCAPS2_CANRENDERWINDOWED )

  0053b	8b 85 68 f8 ff
	ff		 mov	 eax, DWORD PTR _pDevice$85723[ebp]
  00541	8b 48 10	 mov	 ecx, DWORD PTR [eax+16]
  00544	81 e1 00 00 08
	00		 and	 ecx, 524288		; 00080000H
  0054a	85 c9		 test	 ecx, ecx
  0054c	74 17		 je	 SHORT $L85733

; 349  :                     {
; 350  :                         // HAL can run in a window for some mode
; 351  :                         bHALIsWindowedCompatible = TRUE;

  0054e	c7 45 b4 01 00
	00 00		 mov	 DWORD PTR _bHALIsWindowedCompatible$[ebp], 1

; 352  : 
; 353  :                         if( f == 0 )

  00555	83 bd 54 f7 ff
	ff 00		 cmp	 DWORD PTR _f$85727[ebp], 0
  0055c	75 07		 jne	 SHORT $L85733

; 354  :                         {
; 355  :                             // HAL can run in a window for the current desktop mode
; 356  :                             bHALIsDesktopCompatible = TRUE;

  0055e	c7 45 a8 01 00
	00 00		 mov	 DWORD PTR _bHALIsDesktopCompatible$[ebp], 1
$L85733:

; 357  :                         }
; 358  :                     }
; 359  :                 }
; 360  : 
; 361  :                 // Confirm the device/format for HW vertex processing
; 362  :                 if( pDevice->d3dCaps.DevCaps&D3DDEVCAPS_HWTRANSFORMANDLIGHT )

  00565	8b 85 68 f8 ff
	ff		 mov	 eax, DWORD PTR _pDevice$85723[ebp]
  0056b	8b 48 20	 mov	 ecx, DWORD PTR [eax+32]
  0056e	81 e1 00 00 01
	00		 and	 ecx, 65536		; 00010000H
  00574	85 c9		 test	 ecx, ecx
  00576	0f 84 76 01 00
	00		 je	 $L85736

; 363  :                 {
; 364  :                     if( pDevice->d3dCaps.DevCaps&D3DDEVCAPS_PUREDEVICE )

  0057c	8b 85 68 f8 ff
	ff		 mov	 eax, DWORD PTR _pDevice$85723[ebp]
  00582	8b 48 20	 mov	 ecx, DWORD PTR [eax+32]
  00585	81 e1 00 00 10
	00		 and	 ecx, 1048576		; 00100000H
  0058b	85 c9		 test	 ecx, ecx
  0058d	74 67		 je	 SHORT $L85737

; 365  :                     {
; 366  :                         dwBehavior[f] = D3DCREATE_HARDWARE_VERTEXPROCESSING |
; 367  :                                         D3DCREATE_PUREDEVICE;

  0058f	8b 85 54 f7 ff
	ff		 mov	 eax, DWORD PTR _f$85727[ebp]
  00595	c7 84 85 b8 f7
	ff ff 50 00 00
	00		 mov	 DWORD PTR _dwBehavior$85725[ebp+eax*4], 80 ; 00000050H

; 368  : 
; 369  :                         if( SUCCEEDED( ConfirmDevice( &pDevice->d3dCaps, dwBehavior[f],
; 370  :                                                       formats[f] ) ) )

  005a0	8b f4		 mov	 esi, esp
  005a2	8b 85 54 f7 ff
	ff		 mov	 eax, DWORD PTR _f$85727[ebp]
  005a8	8b 8c 85 e0 f8
	ff ff		 mov	 ecx, DWORD PTR _formats$85697[ebp+eax*4]
  005af	51		 push	 ecx
  005b0	8b 95 54 f7 ff
	ff		 mov	 edx, DWORD PTR _f$85727[ebp]
  005b6	8b 84 95 b8 f7
	ff ff		 mov	 eax, DWORD PTR _dwBehavior$85725[ebp+edx*4]
  005bd	50		 push	 eax
  005be	8b 8d 68 f8 ff
	ff		 mov	 ecx, DWORD PTR _pDevice$85723[ebp]
  005c4	83 c1 04	 add	 ecx, 4
  005c7	51		 push	 ecx
  005c8	8b 55 f8	 mov	 edx, DWORD PTR _this$[ebp]
  005cb	8b 02		 mov	 eax, DWORD PTR [edx]
  005cd	8b 4d f8	 mov	 ecx, DWORD PTR _this$[ebp]
  005d0	ff 50 04	 call	 DWORD PTR [eax+4]
  005d3	3b f4		 cmp	 esi, esp
  005d5	e8 00 00 00 00	 call	 __RTC_CheckEsp
  005da	85 c0		 test	 eax, eax
  005dc	7c 18		 jl	 SHORT $L85737

; 371  :                             bFormatConfirmed[f] = TRUE;

  005de	c6 85 5b f6 ff
	ff 01		 mov	 BYTE PTR $T86682[ebp], 1
  005e5	8b 85 54 f7 ff
	ff		 mov	 eax, DWORD PTR _f$85727[ebp]
  005eb	c7 84 85 10 f8
	ff ff 01 00 00
	00		 mov	 DWORD PTR _bFormatConfirmed$85724[ebp+eax*4], 1
$L85737:

; 372  :                     }
; 373  : 
; 374  :                     if ( FALSE == bFormatConfirmed[f] )

  005f6	c6 85 5b f6 ff
	ff 01		 mov	 BYTE PTR $T86682[ebp], 1
  005fd	8b 85 54 f7 ff
	ff		 mov	 eax, DWORD PTR _f$85727[ebp]
  00603	83 bc 85 10 f8
	ff ff 00	 cmp	 DWORD PTR _bFormatConfirmed$85724[ebp+eax*4], 0
  0060b	75 67		 jne	 SHORT $L85740

; 375  :                     {
; 376  :                         dwBehavior[f] = D3DCREATE_HARDWARE_VERTEXPROCESSING;

  0060d	8b 85 54 f7 ff
	ff		 mov	 eax, DWORD PTR _f$85727[ebp]
  00613	c7 84 85 b8 f7
	ff ff 40 00 00
	00		 mov	 DWORD PTR _dwBehavior$85725[ebp+eax*4], 64 ; 00000040H

; 377  : 
; 378  :                         if( SUCCEEDED( ConfirmDevice( &pDevice->d3dCaps, dwBehavior[f],
; 379  :                                                       formats[f] ) ) )

  0061e	8b f4		 mov	 esi, esp
  00620	8b 85 54 f7 ff
	ff		 mov	 eax, DWORD PTR _f$85727[ebp]
  00626	8b 8c 85 e0 f8
	ff ff		 mov	 ecx, DWORD PTR _formats$85697[ebp+eax*4]
  0062d	51		 push	 ecx
  0062e	8b 95 54 f7 ff
	ff		 mov	 edx, DWORD PTR _f$85727[ebp]
  00634	8b 84 95 b8 f7
	ff ff		 mov	 eax, DWORD PTR _dwBehavior$85725[ebp+edx*4]
  0063b	50		 push	 eax
  0063c	8b 8d 68 f8 ff
	ff		 mov	 ecx, DWORD PTR _pDevice$85723[ebp]
  00642	83 c1 04	 add	 ecx, 4
  00645	51		 push	 ecx
  00646	8b 55 f8	 mov	 edx, DWORD PTR _this$[ebp]
  00649	8b 02		 mov	 eax, DWORD PTR [edx]
  0064b	8b 4d f8	 mov	 ecx, DWORD PTR _this$[ebp]
  0064e	ff 50 04	 call	 DWORD PTR [eax+4]
  00651	3b f4		 cmp	 esi, esp
  00653	e8 00 00 00 00	 call	 __RTC_CheckEsp
  00658	85 c0		 test	 eax, eax
  0065a	7c 18		 jl	 SHORT $L85740

; 380  :                             bFormatConfirmed[f] = TRUE;

  0065c	c6 85 5b f6 ff
	ff 01		 mov	 BYTE PTR $T86682[ebp], 1
  00663	8b 85 54 f7 ff
	ff		 mov	 eax, DWORD PTR _f$85727[ebp]
  00669	c7 84 85 10 f8
	ff ff 01 00 00
	00		 mov	 DWORD PTR _bFormatConfirmed$85724[ebp+eax*4], 1
$L85740:

; 381  :                     }
; 382  : 
; 383  :                     if ( FALSE == bFormatConfirmed[f] )

  00674	c6 85 5b f6 ff
	ff 01		 mov	 BYTE PTR $T86682[ebp], 1
  0067b	8b 85 54 f7 ff
	ff		 mov	 eax, DWORD PTR _f$85727[ebp]
  00681	83 bc 85 10 f8
	ff ff 00	 cmp	 DWORD PTR _bFormatConfirmed$85724[ebp+eax*4], 0
  00689	75 67		 jne	 SHORT $L85736

; 384  :                     {
; 385  :                         dwBehavior[f] = D3DCREATE_MIXED_VERTEXPROCESSING;

  0068b	8b 85 54 f7 ff
	ff		 mov	 eax, DWORD PTR _f$85727[ebp]
  00691	c7 84 85 b8 f7
	ff ff 80 00 00
	00		 mov	 DWORD PTR _dwBehavior$85725[ebp+eax*4], 128 ; 00000080H

; 386  : 
; 387  :                         if( SUCCEEDED( ConfirmDevice( &pDevice->d3dCaps, dwBehavior[f],
; 388  :                                                       formats[f] ) ) )

  0069c	8b f4		 mov	 esi, esp
  0069e	8b 85 54 f7 ff
	ff		 mov	 eax, DWORD PTR _f$85727[ebp]
  006a4	8b 8c 85 e0 f8
	ff ff		 mov	 ecx, DWORD PTR _formats$85697[ebp+eax*4]
  006ab	51		 push	 ecx
  006ac	8b 95 54 f7 ff
	ff		 mov	 edx, DWORD PTR _f$85727[ebp]
  006b2	8b 84 95 b8 f7
	ff ff		 mov	 eax, DWORD PTR _dwBehavior$85725[ebp+edx*4]
  006b9	50		 push	 eax
  006ba	8b 8d 68 f8 ff
	ff		 mov	 ecx, DWORD PTR _pDevice$85723[ebp]
  006c0	83 c1 04	 add	 ecx, 4
  006c3	51		 push	 ecx
  006c4	8b 55 f8	 mov	 edx, DWORD PTR _this$[ebp]
  006c7	8b 02		 mov	 eax, DWORD PTR [edx]
  006c9	8b 4d f8	 mov	 ecx, DWORD PTR _this$[ebp]
  006cc	ff 50 04	 call	 DWORD PTR [eax+4]
  006cf	3b f4		 cmp	 esi, esp
  006d1	e8 00 00 00 00	 call	 __RTC_CheckEsp
  006d6	85 c0		 test	 eax, eax
  006d8	7c 18		 jl	 SHORT $L85736

; 389  :                             bFormatConfirmed[f] = TRUE;

  006da	c6 85 5b f6 ff
	ff 01		 mov	 BYTE PTR $T86682[ebp], 1
  006e1	8b 85 54 f7 ff
	ff		 mov	 eax, DWORD PTR _f$85727[ebp]
  006e7	c7 84 85 10 f8
	ff ff 01 00 00
	00		 mov	 DWORD PTR _bFormatConfirmed$85724[ebp+eax*4], 1
$L85736:

; 390  :                     }
; 391  :                 }
; 392  : 
; 393  :                 // Confirm the device/format for SW vertex processing
; 394  :                 if( FALSE == bFormatConfirmed[f] )

  006f2	c6 85 5b f6 ff
	ff 01		 mov	 BYTE PTR $T86682[ebp], 1
  006f9	8b 85 54 f7 ff
	ff		 mov	 eax, DWORD PTR _f$85727[ebp]
  006ff	83 bc 85 10 f8
	ff ff 00	 cmp	 DWORD PTR _bFormatConfirmed$85724[ebp+eax*4], 0
  00707	75 67		 jne	 SHORT $L85746

; 395  :                 {
; 396  :                     dwBehavior[f] = D3DCREATE_SOFTWARE_VERTEXPROCESSING;

  00709	8b 85 54 f7 ff
	ff		 mov	 eax, DWORD PTR _f$85727[ebp]
  0070f	c7 84 85 b8 f7
	ff ff 20 00 00
	00		 mov	 DWORD PTR _dwBehavior$85725[ebp+eax*4], 32 ; 00000020H

; 397  : 
; 398  :                     if( SUCCEEDED( ConfirmDevice( &pDevice->d3dCaps, dwBehavior[f],
; 399  :                                                   formats[f] ) ) )

  0071a	8b f4		 mov	 esi, esp
  0071c	8b 85 54 f7 ff
	ff		 mov	 eax, DWORD PTR _f$85727[ebp]
  00722	8b 8c 85 e0 f8
	ff ff		 mov	 ecx, DWORD PTR _formats$85697[ebp+eax*4]
  00729	51		 push	 ecx
  0072a	8b 95 54 f7 ff
	ff		 mov	 edx, DWORD PTR _f$85727[ebp]
  00730	8b 84 95 b8 f7
	ff ff		 mov	 eax, DWORD PTR _dwBehavior$85725[ebp+edx*4]
  00737	50		 push	 eax
  00738	8b 8d 68 f8 ff
	ff		 mov	 ecx, DWORD PTR _pDevice$85723[ebp]
  0073e	83 c1 04	 add	 ecx, 4
  00741	51		 push	 ecx
  00742	8b 55 f8	 mov	 edx, DWORD PTR _this$[ebp]
  00745	8b 02		 mov	 eax, DWORD PTR [edx]
  00747	8b 4d f8	 mov	 ecx, DWORD PTR _this$[ebp]
  0074a	ff 50 04	 call	 DWORD PTR [eax+4]
  0074d	3b f4		 cmp	 esi, esp
  0074f	e8 00 00 00 00	 call	 __RTC_CheckEsp
  00754	85 c0		 test	 eax, eax
  00756	7c 18		 jl	 SHORT $L85746

; 400  :                         bFormatConfirmed[f] = TRUE;

  00758	c6 85 5b f6 ff
	ff 01		 mov	 BYTE PTR $T86682[ebp], 1
  0075f	8b 85 54 f7 ff
	ff		 mov	 eax, DWORD PTR _f$85727[ebp]
  00765	c7 84 85 10 f8
	ff ff 01 00 00
	00		 mov	 DWORD PTR _bFormatConfirmed$85724[ebp+eax*4], 1
$L85746:

; 401  :                 }
; 402  : 
; 403  :                 // Find a suitable depth/stencil buffer format for this device/format
; 404  :                 if( bFormatConfirmed[f] && m_bUseDepthBuffer )

  00770	c6 85 5b f6 ff
	ff 01		 mov	 BYTE PTR $T86682[ebp], 1
  00777	8b 85 54 f7 ff
	ff		 mov	 eax, DWORD PTR _f$85727[ebp]
  0077d	83 bc 85 10 f8
	ff ff 00	 cmp	 DWORD PTR _bFormatConfirmed$85724[ebp+eax*4], 0
  00785	74 59		 je	 SHORT $L85749
  00787	8b 45 f8	 mov	 eax, DWORD PTR _this$[ebp]
  0078a	83 b8 88 a6 02
	00 00		 cmp	 DWORD PTR [eax+173704], 0
  00791	74 4d		 je	 SHORT $L85749

; 405  :                 {
; 406  :                     if( !FindDepthStencilFormat( iAdapter, pDevice->DeviceType,
; 407  :                         formats[f], &fmtDepthStencil[f] ) )

  00793	8b 85 54 f7 ff
	ff		 mov	 eax, DWORD PTR _f$85727[ebp]
  00799	8d 8c 85 60 f7
	ff ff		 lea	 ecx, DWORD PTR _fmtDepthStencil$85726[ebp+eax*4]
  007a0	51		 push	 ecx
  007a1	8b 95 54 f7 ff
	ff		 mov	 edx, DWORD PTR _f$85727[ebp]
  007a7	8b 84 95 e0 f8
	ff ff		 mov	 eax, DWORD PTR _formats$85697[ebp+edx*4]
  007ae	50		 push	 eax
  007af	8b 8d 68 f8 ff
	ff		 mov	 ecx, DWORD PTR _pDevice$85723[ebp]
  007b5	8b 11		 mov	 edx, DWORD PTR [ecx]
  007b7	52		 push	 edx
  007b8	8b 45 90	 mov	 eax, DWORD PTR _iAdapter$85691[ebp]
  007bb	50		 push	 eax
  007bc	8b 4d f8	 mov	 ecx, DWORD PTR _this$[ebp]
  007bf	e8 00 00 00 00	 call	 ?FindDepthStencilFormat@CD3DApplication@@IAEHIW4_D3DDEVTYPE@@W4_D3DFORMAT@@PAW43@@Z ; CD3DApplication::FindDepthStencilFormat
  007c4	85 c0		 test	 eax, eax
  007c6	75 18		 jne	 SHORT $L85749

; 408  :                     {
; 409  :                         bFormatConfirmed[f] = FALSE;

  007c8	c6 85 5b f6 ff
	ff 01		 mov	 BYTE PTR $T86682[ebp], 1
  007cf	8b 85 54 f7 ff
	ff		 mov	 eax, DWORD PTR _f$85727[ebp]
  007d5	c7 84 85 10 f8
	ff ff 00 00 00
	00		 mov	 DWORD PTR _bFormatConfirmed$85724[ebp+eax*4], 0
$L85749:

; 410  :                     }
; 411  :                 }
; 412  :             }

  007e0	e9 a5 fc ff ff	 jmp	 $L85729
$L85730:

; 413  : 
; 414  :             // Add all enumerated display modes with confirmed formats to the
; 415  :             // device's list of valid modes
; 416  :             for( DWORD m=0L; m<dwNumModes; m++ )

  007e5	c7 85 48 f7 ff
	ff 00 00 00 00	 mov	 DWORD PTR _m$85751[ebp], 0
  007ef	eb 0f		 jmp	 SHORT $L85752
$L85753:
  007f1	8b 85 48 f7 ff
	ff		 mov	 eax, DWORD PTR _m$85751[ebp]
  007f7	83 c0 01	 add	 eax, 1
  007fa	89 85 48 f7 ff
	ff		 mov	 DWORD PTR _m$85751[ebp], eax
$L85752:
  00800	8b 85 48 f7 ff
	ff		 mov	 eax, DWORD PTR _m$85751[ebp]
  00806	3b 85 c8 f8 ff
	ff		 cmp	 eax, DWORD PTR _dwNumModes$85699[ebp]
  0080c	0f 83 78 01 00
	00		 jae	 $L85754

; 417  :             {
; 418  :                 for( DWORD f=0; f<dwNumFormats; f++ )

  00812	c7 85 3c f7 ff
	ff 00 00 00 00	 mov	 DWORD PTR _f$85755[ebp], 0
  0081c	eb 0f		 jmp	 SHORT $L85756
$L85757:
  0081e	8b 85 3c f7 ff
	ff		 mov	 eax, DWORD PTR _f$85755[ebp]
  00824	83 c0 01	 add	 eax, 1
  00827	89 85 3c f7 ff
	ff		 mov	 DWORD PTR _f$85755[ebp], eax
$L85756:
  0082d	8b 85 3c f7 ff
	ff		 mov	 eax, DWORD PTR _f$85755[ebp]
  00833	3b 85 d4 f8 ff
	ff		 cmp	 eax, DWORD PTR _dwNumFormats$85698[ebp]
  00839	0f 83 46 01 00
	00		 jae	 $L85758

; 419  :                 {
; 420  :                     if( modes[m].Format == formats[f] )

  0083f	8b 85 48 f7 ff
	ff		 mov	 eax, DWORD PTR _m$85751[ebp]
  00845	c1 e0 04	 shl	 eax, 4
  00848	8b 8d 3c f7 ff
	ff		 mov	 ecx, DWORD PTR _f$85755[ebp]
  0084e	8b 94 05 44 f9
	ff ff		 mov	 edx, DWORD PTR _modes$85696[ebp+eax+12]
  00855	3b 94 8d e0 f8
	ff ff		 cmp	 edx, DWORD PTR _formats$85697[ebp+ecx*4]
  0085c	0f 85 1e 01 00
	00		 jne	 $L85759

; 421  :                     {
; 422  :                         if( bFormatConfirmed[f] == TRUE )

  00862	c6 85 5b f6 ff
	ff 01		 mov	 BYTE PTR $T86682[ebp], 1
  00869	8b 85 3c f7 ff
	ff		 mov	 eax, DWORD PTR _f$85755[ebp]
  0086f	83 bc 85 10 f8
	ff ff 01	 cmp	 DWORD PTR _bFormatConfirmed$85724[ebp+eax*4], 1
  00877	0f 85 03 01 00
	00		 jne	 $L85759

; 423  :                         {
; 424  :                             // Add this mode to the device's list of valid modes
; 425  :                             pDevice->modes[pDevice->dwNumModes].Width      = modes[m].Width;

  0087d	8b 85 48 f7 ff
	ff		 mov	 eax, DWORD PTR _m$85751[ebp]
  00883	c1 e0 04	 shl	 eax, 4
  00886	8b 8d 68 f8 ff
	ff		 mov	 ecx, DWORD PTR _pDevice$85723[ebp]
  0088c	8b 91 e0 00 00
	00		 mov	 edx, DWORD PTR [ecx+224]
  00892	6b d2 14	 imul	 edx, 20			; 00000014H
  00895	8b 8d 68 f8 ff
	ff		 mov	 ecx, DWORD PTR _pDevice$85723[ebp]
  0089b	8b 84 05 38 f9
	ff ff		 mov	 eax, DWORD PTR _modes$85696[ebp+eax]
  008a2	89 84 11 e4 00
	00 00		 mov	 DWORD PTR [ecx+edx+228], eax

; 426  :                             pDevice->modes[pDevice->dwNumModes].Height     = modes[m].Height;

  008a9	8b 85 48 f7 ff
	ff		 mov	 eax, DWORD PTR _m$85751[ebp]
  008af	c1 e0 04	 shl	 eax, 4
  008b2	8b 8d 68 f8 ff
	ff		 mov	 ecx, DWORD PTR _pDevice$85723[ebp]
  008b8	8b 91 e0 00 00
	00		 mov	 edx, DWORD PTR [ecx+224]
  008be	6b d2 14	 imul	 edx, 20			; 00000014H
  008c1	8b 8d 68 f8 ff
	ff		 mov	 ecx, DWORD PTR _pDevice$85723[ebp]
  008c7	8b 84 05 3c f9
	ff ff		 mov	 eax, DWORD PTR _modes$85696[ebp+eax+4]
  008ce	89 84 11 e8 00
	00 00		 mov	 DWORD PTR [ecx+edx+232], eax

; 427  :                             pDevice->modes[pDevice->dwNumModes].Format     = modes[m].Format;

  008d5	8b 85 48 f7 ff
	ff		 mov	 eax, DWORD PTR _m$85751[ebp]
  008db	c1 e0 04	 shl	 eax, 4
  008de	8b 8d 68 f8 ff
	ff		 mov	 ecx, DWORD PTR _pDevice$85723[ebp]
  008e4	8b 91 e0 00 00
	00		 mov	 edx, DWORD PTR [ecx+224]
  008ea	6b d2 14	 imul	 edx, 20			; 00000014H
  008ed	8b 8d 68 f8 ff
	ff		 mov	 ecx, DWORD PTR _pDevice$85723[ebp]
  008f3	8b 84 05 44 f9
	ff ff		 mov	 eax, DWORD PTR _modes$85696[ebp+eax+12]
  008fa	89 84 11 ec 00
	00 00		 mov	 DWORD PTR [ecx+edx+236], eax

; 428  :                             pDevice->modes[pDevice->dwNumModes].dwBehavior = dwBehavior[f];

  00901	8b 85 68 f8 ff
	ff		 mov	 eax, DWORD PTR _pDevice$85723[ebp]
  00907	8b 88 e0 00 00
	00		 mov	 ecx, DWORD PTR [eax+224]
  0090d	6b c9 14	 imul	 ecx, 20			; 00000014H
  00910	8b 95 68 f8 ff
	ff		 mov	 edx, DWORD PTR _pDevice$85723[ebp]
  00916	8b 85 3c f7 ff
	ff		 mov	 eax, DWORD PTR _f$85755[ebp]
  0091c	8b 84 85 b8 f7
	ff ff		 mov	 eax, DWORD PTR _dwBehavior$85725[ebp+eax*4]
  00923	89 84 0a f0 00
	00 00		 mov	 DWORD PTR [edx+ecx+240], eax

; 429  :                             pDevice->modes[pDevice->dwNumModes].DepthStencilFormat = fmtDepthStencil[f];

  0092a	8b 85 68 f8 ff
	ff		 mov	 eax, DWORD PTR _pDevice$85723[ebp]
  00930	8b 88 e0 00 00
	00		 mov	 ecx, DWORD PTR [eax+224]
  00936	6b c9 14	 imul	 ecx, 20			; 00000014H
  00939	8b 95 68 f8 ff
	ff		 mov	 edx, DWORD PTR _pDevice$85723[ebp]
  0093f	8b 85 3c f7 ff
	ff		 mov	 eax, DWORD PTR _f$85755[ebp]
  00945	8b 84 85 60 f7
	ff ff		 mov	 eax, DWORD PTR _fmtDepthStencil$85726[ebp+eax*4]
  0094c	89 84 0a f4 00
	00 00		 mov	 DWORD PTR [edx+ecx+244], eax

; 430  :                             pDevice->dwNumModes++;

  00953	8b 85 68 f8 ff
	ff		 mov	 eax, DWORD PTR _pDevice$85723[ebp]
  00959	8b 88 e0 00 00
	00		 mov	 ecx, DWORD PTR [eax+224]
  0095f	83 c1 01	 add	 ecx, 1
  00962	8b 95 68 f8 ff
	ff		 mov	 edx, DWORD PTR _pDevice$85723[ebp]
  00968	89 8a e0 00 00
	00		 mov	 DWORD PTR [edx+224], ecx

; 431  : 
; 432  :                             if( pDevice->DeviceType == D3DDEVTYPE_HAL )

  0096e	8b 85 68 f8 ff
	ff		 mov	 eax, DWORD PTR _pDevice$85723[ebp]
  00974	83 38 01	 cmp	 DWORD PTR [eax], 1
  00977	75 07		 jne	 SHORT $L85759

; 433  :                                 bHALIsSampleCompatible = TRUE;

  00979	c7 45 9c 01 00
	00 00		 mov	 DWORD PTR _bHALIsSampleCompatible$[ebp], 1
$L85759:

; 434  :                         }
; 435  :                     }
; 436  :                 }

  00980	e9 99 fe ff ff	 jmp	 $L85757
$L85758:

; 437  :             }

  00985	e9 67 fe ff ff	 jmp	 $L85753
$L85754:

; 438  : 
; 439  :             // Select any 640x480 mode for default (but prefer a 16-bit mode)
; 440  :             for( m=0; m<pDevice->dwNumModes; m++ )

  0098a	c7 85 48 f7 ff
	ff 00 00 00 00	 mov	 DWORD PTR _m$85751[ebp], 0
  00994	eb 0f		 jmp	 SHORT $L85762
$L85763:
  00996	8b 85 48 f7 ff
	ff		 mov	 eax, DWORD PTR _m$85751[ebp]
  0099c	83 c0 01	 add	 eax, 1
  0099f	89 85 48 f7 ff
	ff		 mov	 DWORD PTR _m$85751[ebp], eax
$L85762:
  009a5	8b 85 68 f8 ff
	ff		 mov	 eax, DWORD PTR _pDevice$85723[ebp]
  009ab	8b 8d 48 f7 ff
	ff		 mov	 ecx, DWORD PTR _m$85751[ebp]
  009b1	3b 88 e0 00 00
	00		 cmp	 ecx, DWORD PTR [eax+224]
  009b7	0f 83 9c 00 00
	00		 jae	 $L85764

; 441  :             {
; 442  :                 if( pDevice->modes[m].Width==640 && pDevice->modes[m].Height==480 )

  009bd	8b 85 48 f7 ff
	ff		 mov	 eax, DWORD PTR _m$85751[ebp]
  009c3	6b c0 14	 imul	 eax, 20			; 00000014H
  009c6	8b 8d 68 f8 ff
	ff		 mov	 ecx, DWORD PTR _pDevice$85723[ebp]
  009cc	81 bc 01 e4 00
	00 00 80 02 00
	00		 cmp	 DWORD PTR [ecx+eax+228], 640 ; 00000280H
  009d7	75 7b		 jne	 SHORT $L85765
  009d9	8b 85 48 f7 ff
	ff		 mov	 eax, DWORD PTR _m$85751[ebp]
  009df	6b c0 14	 imul	 eax, 20			; 00000014H
  009e2	8b 8d 68 f8 ff
	ff		 mov	 ecx, DWORD PTR _pDevice$85723[ebp]
  009e8	81 bc 01 e8 00
	00 00 e0 01 00
	00		 cmp	 DWORD PTR [ecx+eax+232], 480 ; 000001e0H
  009f3	75 5f		 jne	 SHORT $L85765

; 443  :                 {
; 444  :                     pDevice->dwCurrentMode = m;

  009f5	8b 85 68 f8 ff
	ff		 mov	 eax, DWORD PTR _pDevice$85723[ebp]
  009fb	8b 8d 48 f7 ff
	ff		 mov	 ecx, DWORD PTR _m$85751[ebp]
  00a01	89 88 9c 0c 00
	00		 mov	 DWORD PTR [eax+3228], ecx

; 445  :                     if( pDevice->modes[m].Format == D3DFMT_R5G6B5 ||
; 446  :                         pDevice->modes[m].Format == D3DFMT_X1R5G5B5 ||
; 447  :                         pDevice->modes[m].Format == D3DFMT_A1R5G5B5 )

  00a07	8b 85 48 f7 ff
	ff		 mov	 eax, DWORD PTR _m$85751[ebp]
  00a0d	6b c0 14	 imul	 eax, 20			; 00000014H
  00a10	8b 8d 68 f8 ff
	ff		 mov	 ecx, DWORD PTR _pDevice$85723[ebp]
  00a16	83 bc 01 ec 00
	00 00 17	 cmp	 DWORD PTR [ecx+eax+236], 23 ; 00000017H
  00a1e	74 32		 je	 SHORT $L85767
  00a20	8b 85 48 f7 ff
	ff		 mov	 eax, DWORD PTR _m$85751[ebp]
  00a26	6b c0 14	 imul	 eax, 20			; 00000014H
  00a29	8b 8d 68 f8 ff
	ff		 mov	 ecx, DWORD PTR _pDevice$85723[ebp]
  00a2f	83 bc 01 ec 00
	00 00 18	 cmp	 DWORD PTR [ecx+eax+236], 24 ; 00000018H
  00a37	74 19		 je	 SHORT $L85767
  00a39	8b 85 48 f7 ff
	ff		 mov	 eax, DWORD PTR _m$85751[ebp]
  00a3f	6b c0 14	 imul	 eax, 20			; 00000014H
  00a42	8b 8d 68 f8 ff
	ff		 mov	 ecx, DWORD PTR _pDevice$85723[ebp]
  00a48	83 bc 01 ec 00
	00 00 19	 cmp	 DWORD PTR [ecx+eax+236], 25 ; 00000019H
  00a50	75 02		 jne	 SHORT $L85765
$L85767:

; 448  :                     {
; 449  :                         break;

  00a52	eb 05		 jmp	 SHORT $L85764
$L85765:

; 450  :                     }
; 451  :                 }
; 452  :             }

  00a54	e9 3d ff ff ff	 jmp	 $L85763
$L85764:

; 453  : 
; 454  :             // Check if the device is compatible with the desktop display mode
; 455  :             // (which was added initially as formats[0])
; 456  :             if( bFormatConfirmed[0] && (pDevice->d3dCaps.Caps2 & D3DCAPS2_CANRENDERWINDOWED) )

  00a59	80 bd 5b f6 ff
	ff 00		 cmp	 BYTE PTR $T86682[ebp], 0
  00a60	75 0d		 jne	 SHORT $L86683
  00a62	68 00 00 00 00	 push	 OFFSET FLAT:$L86684
  00a67	e8 00 00 00 00	 call	 __RTC_UninitUse
  00a6c	83 c4 04	 add	 esp, 4
$L86683:
  00a6f	83 bd 10 f8 ff
	ff 00		 cmp	 DWORD PTR _bFormatConfirmed$85724[ebp], 0
  00a76	74 33		 je	 SHORT $L85768
  00a78	8b 85 68 f8 ff
	ff		 mov	 eax, DWORD PTR _pDevice$85723[ebp]
  00a7e	8b 48 10	 mov	 ecx, DWORD PTR [eax+16]
  00a81	81 e1 00 00 08
	00		 and	 ecx, 524288		; 00080000H
  00a87	85 c9		 test	 ecx, ecx
  00a89	74 20		 je	 SHORT $L85768

; 457  :             {
; 458  :                 pDevice->bCanDoWindowed = TRUE;

  00a8b	8b 85 68 f8 ff
	ff		 mov	 eax, DWORD PTR _pDevice$85723[ebp]
  00a91	c7 80 dc 00 00
	00 01 00 00 00	 mov	 DWORD PTR [eax+220], 1

; 459  :                 pDevice->bWindowed      = TRUE;

  00a9b	8b 85 68 f8 ff
	ff		 mov	 eax, DWORD PTR _pDevice$85723[ebp]
  00aa1	c7 80 a0 0c 00
	00 01 00 00 00	 mov	 DWORD PTR [eax+3232], 1
$L85768:

; 460  :             }
; 461  : 
; 462  :             // If valid modes were found, keep this device
; 463  :             if( pDevice->dwNumModes > 0 )

  00aab	8b 85 68 f8 ff
	ff		 mov	 eax, DWORD PTR _pDevice$85723[ebp]
  00ab1	83 b8 e0 00 00
	00 00		 cmp	 DWORD PTR [eax+224], 0
  00ab8	76 15		 jbe	 SHORT $L85769

; 464  :                 pAdapter->dwNumDevices++;

  00aba	8b 45 84	 mov	 eax, DWORD PTR _pAdapter$85695[ebp]
  00abd	8b 88 3c 04 00
	00		 mov	 ecx, DWORD PTR [eax+1084]
  00ac3	83 c1 01	 add	 ecx, 1
  00ac6	8b 55 84	 mov	 edx, DWORD PTR _pAdapter$85695[ebp]
  00ac9	89 8a 3c 04 00
	00		 mov	 DWORD PTR [edx+1084], ecx
$L85769:

; 465  :         }

  00acf	e9 a6 f8 ff ff	 jmp	 $L85721
$L85722:

; 466  : 
; 467  :         // If valid devices were found, keep this adapter
; 468  :         if( pAdapter->dwNumDevices > 0 )

  00ad4	8b 45 84	 mov	 eax, DWORD PTR _pAdapter$85695[ebp]
  00ad7	83 b8 3c 04 00
	00 00		 cmp	 DWORD PTR [eax+1084], 0
  00ade	76 15		 jbe	 SHORT $L85770

; 469  :             m_dwNumAdapters++;

  00ae0	8b 45 f8	 mov	 eax, DWORD PTR _this$[ebp]
  00ae3	8b 88 44 a4 02
	00		 mov	 ecx, DWORD PTR [eax+173124]
  00ae9	83 c1 01	 add	 ecx, 1
  00aec	8b 55 f8	 mov	 edx, DWORD PTR _this$[ebp]
  00aef	89 8a 44 a4 02
	00		 mov	 DWORD PTR [edx+173124], ecx
$L85770:

; 470  :     }

  00af5	e9 71 f5 ff ff	 jmp	 $L85693
$L85694:

; 471  : 
; 472  :     // Return an error if no compatible devices were found
; 473  :     if( 0L == m_dwNumAdapters )

  00afa	8b 45 f8	 mov	 eax, DWORD PTR _this$[ebp]
  00afd	83 b8 44 a4 02
	00 00		 cmp	 DWORD PTR [eax+173124], 0
  00b04	75 0a		 jne	 SHORT $L85771

; 474  :         return D3DAPPERR_NOCOMPATIBLEDEVICES;

  00b06	b8 03 00 00 82	 mov	 eax, -2113929213	; 82000003H
  00b0b	e9 79 01 00 00	 jmp	 $L85681
$L85771:

; 475  : 
; 476  :     // Pick a default device that can render into a window
; 477  :     // (This code assumes that the HAL device comes before the REF
; 478  :     // device in the device array).
; 479  :     for( DWORD a=0; a<m_dwNumAdapters; a++ )

  00b10	c7 85 30 f7 ff
	ff 00 00 00 00	 mov	 DWORD PTR _a$85772[ebp], 0
  00b1a	eb 0f		 jmp	 SHORT $L85773
$L85774:
  00b1c	8b 85 30 f7 ff
	ff		 mov	 eax, DWORD PTR _a$85772[ebp]
  00b22	83 c0 01	 add	 eax, 1
  00b25	89 85 30 f7 ff
	ff		 mov	 DWORD PTR _a$85772[ebp], eax
$L85773:
  00b2b	8b 45 f8	 mov	 eax, DWORD PTR _this$[ebp]
  00b2e	8b 8d 30 f7 ff
	ff		 mov	 ecx, DWORD PTR _a$85772[ebp]
  00b34	3b 88 44 a4 02
	00		 cmp	 ecx, DWORD PTR [eax+173124]
  00b3a	0f 83 44 01 00
	00		 jae	 $L85775

; 480  :     {
; 481  :         for( DWORD d=0; d < m_Adapters[a].dwNumDevices; d++ )

  00b40	c7 85 24 f7 ff
	ff 00 00 00 00	 mov	 DWORD PTR _d$85776[ebp], 0
  00b4a	eb 0f		 jmp	 SHORT $L85777
$L85778:
  00b4c	8b 85 24 f7 ff
	ff		 mov	 eax, DWORD PTR _d$85776[ebp]
  00b52	83 c0 01	 add	 eax, 1
  00b55	89 85 24 f7 ff
	ff		 mov	 DWORD PTR _d$85776[ebp], eax
$L85777:
  00b5b	8b 85 30 f7 ff
	ff		 mov	 eax, DWORD PTR _a$85772[ebp]
  00b61	69 c0 a0 43 00
	00		 imul	 eax, 17312		; 000043a0H
  00b67	8b 4d f8	 mov	 ecx, DWORD PTR _this$[ebp]
  00b6a	8b 95 24 f7 ff
	ff		 mov	 edx, DWORD PTR _d$85776[ebp]
  00b70	3b 94 01 40 04
	00 00		 cmp	 edx, DWORD PTR [ecx+eax+1088]
  00b77	0f 83 02 01 00
	00		 jae	 $L85779

; 482  :         {
; 483  :             if( m_Adapters[a].devices[d].bWindowed )

  00b7d	8b 85 30 f7 ff
	ff		 mov	 eax, DWORD PTR _a$85772[ebp]
  00b83	69 c0 a0 43 00
	00		 imul	 eax, 17312		; 000043a0H
  00b89	8b 4d f8	 mov	 ecx, DWORD PTR _this$[ebp]
  00b8c	8d 54 01 04	 lea	 edx, DWORD PTR [ecx+eax+4]
  00b90	8b 85 24 f7 ff
	ff		 mov	 eax, DWORD PTR _d$85776[ebp]
  00b96	69 c0 ac 0c 00
	00		 imul	 eax, 3244		; 00000cacH
  00b9c	83 bc 02 e0 10
	00 00 00	 cmp	 DWORD PTR [edx+eax+4320], 0
  00ba4	0f 84 d0 00 00
	00		 je	 $L85780

; 484  :             {
; 485  :                 m_Adapters[a].dwCurrentDevice = d;

  00baa	8b 85 30 f7 ff
	ff		 mov	 eax, DWORD PTR _a$85772[ebp]
  00bb0	69 c0 a0 43 00
	00		 imul	 eax, 17312		; 000043a0H
  00bb6	8b 4d f8	 mov	 ecx, DWORD PTR _this$[ebp]
  00bb9	8b 95 24 f7 ff
	ff		 mov	 edx, DWORD PTR _d$85776[ebp]
  00bbf	89 94 01 a0 43
	00 00		 mov	 DWORD PTR [ecx+eax+17312], edx

; 486  :                 m_dwAdapter = a;

  00bc6	8b 45 f8	 mov	 eax, DWORD PTR _this$[ebp]
  00bc9	8b 8d 30 f7 ff
	ff		 mov	 ecx, DWORD PTR _a$85772[ebp]
  00bcf	89 88 48 a4 02
	00		 mov	 DWORD PTR [eax+173128], ecx

; 487  :                 m_bWindowed = TRUE;

  00bd5	8b 45 f8	 mov	 eax, DWORD PTR _this$[ebp]
  00bd8	c7 80 4c a4 02
	00 01 00 00 00	 mov	 DWORD PTR [eax+173132], 1

; 488  : 
; 489  :                 // Display a warning message
; 490  :                 if( m_Adapters[a].devices[d].DeviceType == D3DDEVTYPE_REF )

  00be2	8b 85 30 f7 ff
	ff		 mov	 eax, DWORD PTR _a$85772[ebp]
  00be8	69 c0 a0 43 00
	00		 imul	 eax, 17312		; 000043a0H
  00bee	8b 4d f8	 mov	 ecx, DWORD PTR _this$[ebp]
  00bf1	8d 54 01 04	 lea	 edx, DWORD PTR [ecx+eax+4]
  00bf5	8b 85 24 f7 ff
	ff		 mov	 eax, DWORD PTR _d$85776[ebp]
  00bfb	69 c0 ac 0c 00
	00		 imul	 eax, 3244		; 00000cacH
  00c01	83 bc 02 40 04
	00 00 02	 cmp	 DWORD PTR [edx+eax+1088], 2
  00c09	75 6b		 jne	 SHORT $L85781

; 491  :                 {
; 492  :                     if( !bHALExists )

  00c0b	83 7d c0 00	 cmp	 DWORD PTR _bHALExists$[ebp], 0
  00c0f	75 11		 jne	 SHORT $L85782

; 493  :                         DisplayErrorMsg( D3DAPPERR_NOHARDWAREDEVICE, MSGWARN_SWITCHEDTOREF );

  00c11	6a 02		 push	 2
  00c13	68 05 00 00 82	 push	 -2113929211		; 82000005H
  00c18	8b 4d f8	 mov	 ecx, DWORD PTR _this$[ebp]
  00c1b	e8 00 00 00 00	 call	 ?DisplayErrorMsg@CD3DApplication@@IAEJJK@Z ; CD3DApplication::DisplayErrorMsg

; 494  :                     else if( !bHALIsSampleCompatible )

  00c20	eb 54		 jmp	 SHORT $L85781
$L85782:
  00c22	83 7d 9c 00	 cmp	 DWORD PTR _bHALIsSampleCompatible$[ebp], 0
  00c26	75 11		 jne	 SHORT $L85784

; 495  :                         DisplayErrorMsg( D3DAPPERR_HALNOTCOMPATIBLE, MSGWARN_SWITCHEDTOREF );

  00c28	6a 02		 push	 2
  00c2a	68 06 00 00 82	 push	 -2113929210		; 82000006H
  00c2f	8b 4d f8	 mov	 ecx, DWORD PTR _this$[ebp]
  00c32	e8 00 00 00 00	 call	 ?DisplayErrorMsg@CD3DApplication@@IAEJJK@Z ; CD3DApplication::DisplayErrorMsg

; 496  :                     else if( !bHALIsWindowedCompatible )

  00c37	eb 3d		 jmp	 SHORT $L85781
$L85784:
  00c39	83 7d b4 00	 cmp	 DWORD PTR _bHALIsWindowedCompatible$[ebp], 0
  00c3d	75 11		 jne	 SHORT $L85786

; 497  :                         DisplayErrorMsg( D3DAPPERR_NOWINDOWEDHAL, MSGWARN_SWITCHEDTOREF );

  00c3f	6a 02		 push	 2
  00c41	68 07 00 00 82	 push	 -2113929209		; 82000007H
  00c46	8b 4d f8	 mov	 ecx, DWORD PTR _this$[ebp]
  00c49	e8 00 00 00 00	 call	 ?DisplayErrorMsg@CD3DApplication@@IAEJJK@Z ; CD3DApplication::DisplayErrorMsg

; 498  :                     else if( !bHALIsDesktopCompatible )

  00c4e	eb 26		 jmp	 SHORT $L85781
$L85786:
  00c50	83 7d a8 00	 cmp	 DWORD PTR _bHALIsDesktopCompatible$[ebp], 0
  00c54	75 11		 jne	 SHORT $L85788

; 499  :                         DisplayErrorMsg( D3DAPPERR_NODESKTOPHAL, MSGWARN_SWITCHEDTOREF );

  00c56	6a 02		 push	 2
  00c58	68 08 00 00 82	 push	 -2113929208		; 82000008H
  00c5d	8b 4d f8	 mov	 ecx, DWORD PTR _this$[ebp]
  00c60	e8 00 00 00 00	 call	 ?DisplayErrorMsg@CD3DApplication@@IAEJJK@Z ; CD3DApplication::DisplayErrorMsg

; 500  :                     else // HAL is desktop compatible, but not sample compatible

  00c65	eb 0f		 jmp	 SHORT $L85781
$L85788:

; 501  :                         DisplayErrorMsg( D3DAPPERR_NOHALTHISMODE, MSGWARN_SWITCHEDTOREF );

  00c67	6a 02		 push	 2
  00c69	68 09 00 00 82	 push	 -2113929207		; 82000009H
  00c6e	8b 4d f8	 mov	 ecx, DWORD PTR _this$[ebp]
  00c71	e8 00 00 00 00	 call	 ?DisplayErrorMsg@CD3DApplication@@IAEJJK@Z ; CD3DApplication::DisplayErrorMsg
$L85781:

; 502  :                 }
; 503  : 
; 504  :                 return S_OK;

  00c76	33 c0		 xor	 eax, eax
  00c78	eb 0f		 jmp	 SHORT $L85681
$L85780:

; 505  :             }
; 506  :         }

  00c7a	e9 cd fe ff ff	 jmp	 $L85778
$L85779:

; 507  :     }

  00c7f	e9 98 fe ff ff	 jmp	 $L85774
$L85775:

; 508  : 
; 509  :     return D3DAPPERR_NOWINDOWABLEDEVICES;

  00c84	b8 04 00 00 82	 mov	 eax, -2113929212	; 82000004H
$L85681:

; 510  : }

  00c89	52		 push	 edx
  00c8a	8b cd		 mov	 ecx, ebp
  00c8c	50		 push	 eax
  00c8d	8d 15 00 00 00
	00		 lea	 edx, DWORD PTR $L86694
  00c93	e8 00 00 00 00	 call	 @_RTC_CheckStackVars@8
  00c98	58		 pop	 eax
  00c99	5a		 pop	 edx
  00c9a	5f		 pop	 edi
  00c9b	5e		 pop	 esi
  00c9c	5b		 pop	 ebx
  00c9d	81 c4 ac 09 00
	00		 add	 esp, 2476		; 000009acH
  00ca3	3b ec		 cmp	 ebp, esp
  00ca5	e8 00 00 00 00	 call	 __RTC_CheckEsp
  00caa	8b e5		 mov	 esp, ebp
  00cac	5d		 pop	 ebp
  00cad	c3		 ret	 0
$L86694:
  00cae	08 00 00 00	 DD	 8
  00cb2	00 00 00 00	 DD	 $L86693
$L86693:
  00cb6	10 f8 ff ff	 DD	 -2032			; fffff810H
  00cba	50 00 00 00	 DD	 80			; 00000050H
  00cbe	00 00 00 00	 DD	 $L86684
  00cc2	dc ff ff ff	 DD	 -36			; ffffffdcH
  00cc6	08 00 00 00	 DD	 8
  00cca	00 00 00 00	 DD	 $L86686
  00cce	cc ff ff ff	 DD	 -52			; ffffffccH
  00cd2	08 00 00 00	 DD	 8
  00cd6	00 00 00 00	 DD	 $L86687
  00cda	38 f9 ff ff	 DD	 -1736			; fffff938H
  00cde	40 06 00 00	 DD	 1600			; 00000640H
  00ce2	00 00 00 00	 DD	 $L86688
  00ce6	e0 f8 ff ff	 DD	 -1824			; fffff8e0H
  00cea	50 00 00 00	 DD	 80			; 00000050H
  00cee	00 00 00 00	 DD	 $L86689
  00cf2	98 f8 ff ff	 DD	 -1896			; fffff898H
  00cf6	10 00 00 00	 DD	 16			; 00000010H
  00cfa	00 00 00 00	 DD	 $L86690
  00cfe	b8 f7 ff ff	 DD	 -2120			; fffff7b8H
  00d02	50 00 00 00	 DD	 80			; 00000050H
  00d06	00 00 00 00	 DD	 $L86691
  00d0a	60 f7 ff ff	 DD	 -2208			; fffff760H
  00d0e	50 00 00 00	 DD	 80			; 00000050H
  00d12	00 00 00 00	 DD	 $L86692
$L86692:
  00d16	66		 DB	 102			; 00000066H
  00d17	6d		 DB	 109			; 0000006dH
  00d18	74		 DB	 116			; 00000074H
  00d19	44		 DB	 68			; 00000044H
  00d1a	65		 DB	 101			; 00000065H
  00d1b	70		 DB	 112			; 00000070H
  00d1c	74		 DB	 116			; 00000074H
  00d1d	68		 DB	 104			; 00000068H
  00d1e	53		 DB	 83			; 00000053H
  00d1f	74		 DB	 116			; 00000074H
  00d20	65		 DB	 101			; 00000065H
  00d21	6e		 DB	 110			; 0000006eH
  00d22	63		 DB	 99			; 00000063H
  00d23	69		 DB	 105			; 00000069H
  00d24	6c		 DB	 108			; 0000006cH
  00d25	00		 DB	 0
$L86691:
  00d26	64		 DB	 100			; 00000064H
  00d27	77		 DB	 119			; 00000077H
  00d28	42		 DB	 66			; 00000042H
  00d29	65		 DB	 101			; 00000065H
  00d2a	68		 DB	 104			; 00000068H
  00d2b	61		 DB	 97			; 00000061H
  00d2c	76		 DB	 118			; 00000076H
  00d2d	69		 DB	 105			; 00000069H
  00d2e	6f		 DB	 111			; 0000006fH
  00d2f	72		 DB	 114			; 00000072H
  00d30	00		 DB	 0
$L86690:
  00d31	44		 DB	 68			; 00000044H
  00d32	69		 DB	 105			; 00000069H
  00d33	73		 DB	 115			; 00000073H
  00d34	70		 DB	 112			; 00000070H
  00d35	6c		 DB	 108			; 0000006cH
  00d36	61		 DB	 97			; 00000061H
  00d37	79		 DB	 121			; 00000079H
  00d38	4d		 DB	 77			; 0000004dH
  00d39	6f		 DB	 111			; 0000006fH
  00d3a	64		 DB	 100			; 00000064H
  00d3b	65		 DB	 101			; 00000065H
  00d3c	00		 DB	 0
$L86689:
  00d3d	66		 DB	 102			; 00000066H
  00d3e	6f		 DB	 111			; 0000006fH
  00d3f	72		 DB	 114			; 00000072H
  00d40	6d		 DB	 109			; 0000006dH
  00d41	61		 DB	 97			; 00000061H
  00d42	74		 DB	 116			; 00000074H
  00d43	73		 DB	 115			; 00000073H
  00d44	00		 DB	 0
$L86688:
  00d45	6d		 DB	 109			; 0000006dH
  00d46	6f		 DB	 111			; 0000006fH
  00d47	64		 DB	 100			; 00000064H
  00d48	65		 DB	 101			; 00000065H
  00d49	73		 DB	 115			; 00000073H
  00d4a	00		 DB	 0
$L86687:
  00d4b	44		 DB	 68			; 00000044H
  00d4c	65		 DB	 101			; 00000065H
  00d4d	76		 DB	 118			; 00000076H
  00d4e	69		 DB	 105			; 00000069H
  00d4f	63		 DB	 99			; 00000063H
  00d50	65		 DB	 101			; 00000065H
  00d51	54		 DB	 84			; 00000054H
  00d52	79		 DB	 121			; 00000079H
  00d53	70		 DB	 112			; 00000070H
  00d54	65		 DB	 101			; 00000065H
  00d55	73		 DB	 115			; 00000073H
  00d56	00		 DB	 0
$L86686:
  00d57	73		 DB	 115			; 00000073H
  00d58	74		 DB	 116			; 00000074H
  00d59	72		 DB	 114			; 00000072H
  00d5a	44		 DB	 68			; 00000044H
  00d5b	65		 DB	 101			; 00000065H
  00d5c	76		 DB	 118			; 00000076H
  00d5d	69		 DB	 105			; 00000069H
  00d5e	63		 DB	 99			; 00000063H
  00d5f	65		 DB	 101			; 00000065H
  00d60	44		 DB	 68			; 00000044H
  00d61	65		 DB	 101			; 00000065H
  00d62	73		 DB	 115			; 00000073H
  00d63	63		 DB	 99			; 00000063H
  00d64	73		 DB	 115			; 00000073H
  00d65	00		 DB	 0
$L86684:
  00d66	62		 DB	 98			; 00000062H
  00d67	46		 DB	 70			; 00000046H
  00d68	6f		 DB	 111			; 0000006fH
  00d69	72		 DB	 114			; 00000072H
  00d6a	6d		 DB	 109			; 0000006dH
  00d6b	61		 DB	 97			; 00000061H
  00d6c	74		 DB	 116			; 00000074H
  00d6d	43		 DB	 67			; 00000043H
  00d6e	6f		 DB	 111			; 0000006fH
  00d6f	6e		 DB	 110			; 0000006eH
  00d70	66		 DB	 102			; 00000066H
  00d71	69		 DB	 105			; 00000069H
  00d72	72		 DB	 114			; 00000072H
  00d73	6d		 DB	 109			; 0000006dH
  00d74	65		 DB	 101			; 00000065H
  00d75	64		 DB	 100			; 00000064H
  00d76	00		 DB	 0
?BuildDeviceList@CD3DApplication@@IAEJXZ ENDP		; CD3DApplication::BuildDeviceList
; Function compile flags: /Odt /RTCsu /ZI
_TEXT	ENDS
;	COMDAT ?SortModesCallback@@YAHPBX0@Z
_TEXT	SEGMENT
_p2$ = -20
_p1$ = -8
_arg1$ = 8
_arg2$ = 12
?SortModesCallback@@YAHPBX0@Z PROC NEAR			; SortModesCallback, COMDAT

; 214  : {

  00000	55		 push	 ebp
  00001	8b ec		 mov	 ebp, esp
  00003	81 ec d8 00 00
	00		 sub	 esp, 216		; 000000d8H
  00009	53		 push	 ebx
  0000a	56		 push	 esi
  0000b	57		 push	 edi
  0000c	8d bd 28 ff ff
	ff		 lea	 edi, DWORD PTR [ebp-216]
  00012	b9 36 00 00 00	 mov	 ecx, 54			; 00000036H
  00017	b8 cc cc cc cc	 mov	 eax, -858993460		; ccccccccH
  0001c	f3 ab		 rep stosd

; 215  :     D3DDISPLAYMODE* p1 = (D3DDISPLAYMODE*)arg1;

  0001e	8b 45 08	 mov	 eax, DWORD PTR _arg1$[ebp]
  00021	89 45 f8	 mov	 DWORD PTR _p1$[ebp], eax

; 216  :     D3DDISPLAYMODE* p2 = (D3DDISPLAYMODE*)arg2;

  00024	8b 45 0c	 mov	 eax, DWORD PTR _arg2$[ebp]
  00027	89 45 ec	 mov	 DWORD PTR _p2$[ebp], eax

; 217  : 
; 218  :     if( p1->Format > p2->Format )   return -1;

  0002a	8b 45 f8	 mov	 eax, DWORD PTR _p1$[ebp]
  0002d	8b 4d ec	 mov	 ecx, DWORD PTR _p2$[ebp]
  00030	8b 50 0c	 mov	 edx, DWORD PTR [eax+12]
  00033	3b 51 0c	 cmp	 edx, DWORD PTR [ecx+12]
  00036	7e 05		 jle	 SHORT $L85673
  00038	83 c8 ff	 or	 eax, -1
  0003b	eb 63		 jmp	 SHORT $L85668
$L85673:

; 219  :     if( p1->Format < p2->Format )   return +1;

  0003d	8b 45 f8	 mov	 eax, DWORD PTR _p1$[ebp]
  00040	8b 4d ec	 mov	 ecx, DWORD PTR _p2$[ebp]
  00043	8b 50 0c	 mov	 edx, DWORD PTR [eax+12]
  00046	3b 51 0c	 cmp	 edx, DWORD PTR [ecx+12]
  00049	7d 07		 jge	 SHORT $L85674
  0004b	b8 01 00 00 00	 mov	 eax, 1
  00050	eb 4e		 jmp	 SHORT $L85668
$L85674:

; 220  :     if( p1->Width  < p2->Width )    return -1;

  00052	8b 45 f8	 mov	 eax, DWORD PTR _p1$[ebp]
  00055	8b 4d ec	 mov	 ecx, DWORD PTR _p2$[ebp]
  00058	8b 10		 mov	 edx, DWORD PTR [eax]
  0005a	3b 11		 cmp	 edx, DWORD PTR [ecx]
  0005c	73 05		 jae	 SHORT $L85675
  0005e	83 c8 ff	 or	 eax, -1
  00061	eb 3d		 jmp	 SHORT $L85668
$L85675:

; 221  :     if( p1->Width  > p2->Width )    return +1;

  00063	8b 45 f8	 mov	 eax, DWORD PTR _p1$[ebp]
  00066	8b 4d ec	 mov	 ecx, DWORD PTR _p2$[ebp]
  00069	8b 10		 mov	 edx, DWORD PTR [eax]
  0006b	3b 11		 cmp	 edx, DWORD PTR [ecx]
  0006d	76 07		 jbe	 SHORT $L85676
  0006f	b8 01 00 00 00	 mov	 eax, 1
  00074	eb 2a		 jmp	 SHORT $L85668
$L85676:

; 222  :     if( p1->Height < p2->Height )   return -1;

  00076	8b 45 f8	 mov	 eax, DWORD PTR _p1$[ebp]
  00079	8b 4d ec	 mov	 ecx, DWORD PTR _p2$[ebp]
  0007c	8b 50 04	 mov	 edx, DWORD PTR [eax+4]
  0007f	3b 51 04	 cmp	 edx, DWORD PTR [ecx+4]
  00082	73 05		 jae	 SHORT $L85677
  00084	83 c8 ff	 or	 eax, -1
  00087	eb 17		 jmp	 SHORT $L85668
$L85677:

; 223  :     if( p1->Height > p2->Height )   return +1;

  00089	8b 45 f8	 mov	 eax, DWORD PTR _p1$[ebp]
  0008c	8b 4d ec	 mov	 ecx, DWORD PTR _p2$[ebp]
  0008f	8b 50 04	 mov	 edx, DWORD PTR [eax+4]
  00092	3b 51 04	 cmp	 edx, DWORD PTR [ecx+4]
  00095	76 07		 jbe	 SHORT $L85678
  00097	b8 01 00 00 00	 mov	 eax, 1
  0009c	eb 02		 jmp	 SHORT $L85668
$L85678:

; 224  : 
; 225  :     return 0;

  0009e	33 c0		 xor	 eax, eax
$L85668:

; 226  : }

  000a0	5f		 pop	 edi
  000a1	5e		 pop	 esi
  000a2	5b		 pop	 ebx
  000a3	8b e5		 mov	 esp, ebp
  000a5	5d		 pop	 ebp
  000a6	c3		 ret	 0
?SortModesCallback@@YAHPBX0@Z ENDP			; SortModesCallback
; Function compile flags: /Odt /RTCsu /ZI
; File c:\documents and settings\dom\my documents\_dev\ae\xlr8a\x7g\d3dframe8.1 custom\include\d3dapp_custom.h
_TEXT	ENDS
;	COMDAT ?ConfirmDevice@CD3DApplication@@MAEJPAU_D3DCAPS8@@KW4_D3DFORMAT@@@Z
_TEXT	SEGMENT
_this$ = -8
___formal$ = 8
___formal$ = 12
___formal$ = 16
?ConfirmDevice@CD3DApplication@@MAEJPAU_D3DCAPS8@@KW4_D3DFORMAT@@@Z PROC NEAR ; CD3DApplication::ConfirmDevice, COMDAT
; _this$ = ecx

; 198  :     virtual HRESULT ConfirmDevice(D3DCAPS8*,DWORD,D3DFORMAT)   { return S_OK; }

  00000	55		 push	 ebp
  00001	8b ec		 mov	 ebp, esp
  00003	81 ec cc 00 00
	00		 sub	 esp, 204		; 000000ccH
  00009	53		 push	 ebx
  0000a	56		 push	 esi
  0000b	57		 push	 edi
  0000c	51		 push	 ecx
  0000d	8d bd 34 ff ff
	ff		 lea	 edi, DWORD PTR [ebp-204]
  00013	b9 33 00 00 00	 mov	 ecx, 51			; 00000033H
  00018	b8 cc cc cc cc	 mov	 eax, -858993460		; ccccccccH
  0001d	f3 ab		 rep stosd
  0001f	59		 pop	 ecx
  00020	89 4d f8	 mov	 DWORD PTR _this$[ebp], ecx
  00023	33 c0		 xor	 eax, eax
  00025	5f		 pop	 edi
  00026	5e		 pop	 esi
  00027	5b		 pop	 ebx
  00028	8b e5		 mov	 esp, ebp
  0002a	5d		 pop	 ebp
  0002b	c2 0c 00	 ret	 12			; 0000000cH
?ConfirmDevice@CD3DApplication@@MAEJPAU_D3DCAPS8@@KW4_D3DFORMAT@@@Z ENDP ; CD3DApplication::ConfirmDevice
; Function compile flags: /Odt /RTCsu /ZI
_TEXT	ENDS
;	COMDAT ?OneTimeSceneInit@CD3DApplication@@MAEJXZ
_TEXT	SEGMENT
_this$ = -8
?OneTimeSceneInit@CD3DApplication@@MAEJXZ PROC NEAR	; CD3DApplication::OneTimeSceneInit, COMDAT
; _this$ = ecx

; 199  :     virtual HRESULT OneTimeSceneInit()                         { return S_OK; }

  00000	55		 push	 ebp
  00001	8b ec		 mov	 ebp, esp
  00003	81 ec cc 00 00
	00		 sub	 esp, 204		; 000000ccH
  00009	53		 push	 ebx
  0000a	56		 push	 esi
  0000b	57		 push	 edi
  0000c	51		 push	 ecx
  0000d	8d bd 34 ff ff
	ff		 lea	 edi, DWORD PTR [ebp-204]
  00013	b9 33 00 00 00	 mov	 ecx, 51			; 00000033H
  00018	b8 cc cc cc cc	 mov	 eax, -858993460		; ccccccccH
  0001d	f3 ab		 rep stosd
  0001f	59		 pop	 ecx
  00020	89 4d f8	 mov	 DWORD PTR _this$[ebp], ecx
  00023	33 c0		 xor	 eax, eax
  00025	5f		 pop	 edi
  00026	5e		 pop	 esi
  00027	5b		 pop	 ebx
  00028	8b e5		 mov	 esp, ebp
  0002a	5d		 pop	 ebp
  0002b	c3		 ret	 0
?OneTimeSceneInit@CD3DApplication@@MAEJXZ ENDP		; CD3DApplication::OneTimeSceneInit
; Function compile flags: /Odt /RTCsu /ZI
_TEXT	ENDS
;	COMDAT ?InitDeviceObjects@CD3DApplication@@MAEJXZ
_TEXT	SEGMENT
_this$ = -8
?InitDeviceObjects@CD3DApplication@@MAEJXZ PROC NEAR	; CD3DApplication::InitDeviceObjects, COMDAT
; _this$ = ecx

; 200  :     virtual HRESULT InitDeviceObjects()                        { return S_OK; }

  00000	55		 push	 ebp
  00001	8b ec		 mov	 ebp, esp
  00003	81 ec cc 00 00
	00		 sub	 esp, 204		; 000000ccH
  00009	53		 push	 ebx
  0000a	56		 push	 esi
  0000b	57		 push	 edi
  0000c	51		 push	 ecx
  0000d	8d bd 34 ff ff
	ff		 lea	 edi, DWORD PTR [ebp-204]
  00013	b9 33 00 00 00	 mov	 ecx, 51			; 00000033H
  00018	b8 cc cc cc cc	 mov	 eax, -858993460		; ccccccccH
  0001d	f3 ab		 rep stosd
  0001f	59		 pop	 ecx
  00020	89 4d f8	 mov	 DWORD PTR _this$[ebp], ecx
  00023	33 c0		 xor	 eax, eax
  00025	5f		 pop	 edi
  00026	5e		 pop	 esi
  00027	5b		 pop	 ebx
  00028	8b e5		 mov	 esp, ebp
  0002a	5d		 pop	 ebp
  0002b	c3		 ret	 0
?InitDeviceObjects@CD3DApplication@@MAEJXZ ENDP		; CD3DApplication::InitDeviceObjects
; Function compile flags: /Odt /RTCsu /ZI
; File c:\documents and settings\dom\my documents\_dev\ae\xlr8a\x7g\d3dframe8.1 custom\src\d3dapp_custom.cpp
_TEXT	ENDS
;	COMDAT ?FindDepthStencilFormat@CD3DApplication@@IAEHIW4_D3DDEVTYPE@@W4_D3DFORMAT@@PAW43@@Z
_TEXT	SEGMENT
_this$ = -8
_iAdapter$ = 8
_DeviceType$ = 12
_TargetFormat$ = 16
_pDepthStencilFormat$ = 20
?FindDepthStencilFormat@CD3DApplication@@IAEHIW4_D3DDEVTYPE@@W4_D3DFORMAT@@PAW43@@Z PROC NEAR ; CD3DApplication::FindDepthStencilFormat, COMDAT
; _this$ = ecx

; 522  : {

  00000	55		 push	 ebp
  00001	8b ec		 mov	 ebp, esp
  00003	81 ec cc 00 00
	00		 sub	 esp, 204		; 000000ccH
  00009	53		 push	 ebx
  0000a	56		 push	 esi
  0000b	57		 push	 edi
  0000c	51		 push	 ecx
  0000d	8d bd 34 ff ff
	ff		 lea	 edi, DWORD PTR [ebp-204]
  00013	b9 33 00 00 00	 mov	 ecx, 51			; 00000033H
  00018	b8 cc cc cc cc	 mov	 eax, -858993460		; ccccccccH
  0001d	f3 ab		 rep stosd
  0001f	59		 pop	 ecx
  00020	89 4d f8	 mov	 DWORD PTR _this$[ebp], ecx

; 523  :     if( m_dwMinDepthBits <= 16 && m_dwMinStencilBits == 0 )

  00023	8b 45 f8	 mov	 eax, DWORD PTR _this$[ebp]
  00026	83 b8 8c a6 02
	00 10		 cmp	 DWORD PTR [eax+173708], 16 ; 00000010H
  0002d	0f 87 91 00 00
	00		 ja	 $L85798
  00033	8b 45 f8	 mov	 eax, DWORD PTR _this$[ebp]
  00036	83 b8 90 a6 02
	00 00		 cmp	 DWORD PTR [eax+173712], 0
  0003d	0f 85 81 00 00
	00		 jne	 $L85798

; 524  :     {
; 525  :         if( SUCCEEDED( m_pD3D->CheckDeviceFormat( iAdapter, DeviceType,
; 526  :             TargetFormat, D3DUSAGE_DEPTHSTENCIL, D3DRTYPE_SURFACE, D3DFMT_D16 ) ) )

  00043	8b f4		 mov	 esi, esp
  00045	6a 50		 push	 80			; 00000050H
  00047	6a 01		 push	 1
  00049	6a 02		 push	 2
  0004b	8b 45 10	 mov	 eax, DWORD PTR _TargetFormat$[ebp]
  0004e	50		 push	 eax
  0004f	8b 4d 0c	 mov	 ecx, DWORD PTR _DeviceType$[ebp]
  00052	51		 push	 ecx
  00053	8b 55 08	 mov	 edx, DWORD PTR _iAdapter$[ebp]
  00056	52		 push	 edx
  00057	8b 45 f8	 mov	 eax, DWORD PTR _this$[ebp]
  0005a	8b 88 a4 a4 02
	00		 mov	 ecx, DWORD PTR [eax+173220]
  00060	8b 55 f8	 mov	 edx, DWORD PTR _this$[ebp]
  00063	8b 82 a4 a4 02
	00		 mov	 eax, DWORD PTR [edx+173220]
  00069	8b 09		 mov	 ecx, DWORD PTR [ecx]
  0006b	50		 push	 eax
  0006c	ff 51 28	 call	 DWORD PTR [ecx+40]
  0006f	3b f4		 cmp	 esi, esp
  00071	e8 00 00 00 00	 call	 __RTC_CheckEsp
  00076	85 c0		 test	 eax, eax
  00078	7c 4a		 jl	 SHORT $L85798

; 527  :         {
; 528  :             if( SUCCEEDED( m_pD3D->CheckDepthStencilMatch( iAdapter, DeviceType,
; 529  :                 TargetFormat, TargetFormat, D3DFMT_D16 ) ) )

  0007a	8b f4		 mov	 esi, esp
  0007c	6a 50		 push	 80			; 00000050H
  0007e	8b 45 10	 mov	 eax, DWORD PTR _TargetFormat$[ebp]
  00081	50		 push	 eax
  00082	8b 4d 10	 mov	 ecx, DWORD PTR _TargetFormat$[ebp]
  00085	51		 push	 ecx
  00086	8b 55 0c	 mov	 edx, DWORD PTR _DeviceType$[ebp]
  00089	52		 push	 edx
  0008a	8b 45 08	 mov	 eax, DWORD PTR _iAdapter$[ebp]
  0008d	50		 push	 eax
  0008e	8b 4d f8	 mov	 ecx, DWORD PTR _this$[ebp]
  00091	8b 91 a4 a4 02
	00		 mov	 edx, DWORD PTR [ecx+173220]
  00097	8b 45 f8	 mov	 eax, DWORD PTR _this$[ebp]
  0009a	8b 88 a4 a4 02
	00		 mov	 ecx, DWORD PTR [eax+173220]
  000a0	8b 12		 mov	 edx, DWORD PTR [edx]
  000a2	51		 push	 ecx
  000a3	ff 52 30	 call	 DWORD PTR [edx+48]
  000a6	3b f4		 cmp	 esi, esp
  000a8	e8 00 00 00 00	 call	 __RTC_CheckEsp
  000ad	85 c0		 test	 eax, eax
  000af	7c 13		 jl	 SHORT $L85798

; 530  :             {
; 531  :                 *pDepthStencilFormat = D3DFMT_D16;

  000b1	8b 45 14	 mov	 eax, DWORD PTR _pDepthStencilFormat$[ebp]
  000b4	c7 00 50 00 00
	00		 mov	 DWORD PTR [eax], 80	; 00000050H

; 532  :                 return TRUE;

  000ba	b8 01 00 00 00	 mov	 eax, 1
  000bf	e9 20 03 00 00	 jmp	 $L85797
$L85798:

; 533  :             }
; 534  :         }
; 535  :     }
; 536  : 
; 537  :     if( m_dwMinDepthBits <= 15 && m_dwMinStencilBits <= 1 )

  000c4	8b 45 f8	 mov	 eax, DWORD PTR _this$[ebp]
  000c7	83 b8 8c a6 02
	00 0f		 cmp	 DWORD PTR [eax+173708], 15 ; 0000000fH
  000ce	0f 87 91 00 00
	00		 ja	 $L85803
  000d4	8b 45 f8	 mov	 eax, DWORD PTR _this$[ebp]
  000d7	83 b8 90 a6 02
	00 01		 cmp	 DWORD PTR [eax+173712], 1
  000de	0f 87 81 00 00
	00		 ja	 $L85803

; 538  :     {
; 539  :         if( SUCCEEDED( m_pD3D->CheckDeviceFormat( iAdapter, DeviceType,
; 540  :             TargetFormat, D3DUSAGE_DEPTHSTENCIL, D3DRTYPE_SURFACE, D3DFMT_D15S1 ) ) )

  000e4	8b f4		 mov	 esi, esp
  000e6	6a 49		 push	 73			; 00000049H
  000e8	6a 01		 push	 1
  000ea	6a 02		 push	 2
  000ec	8b 45 10	 mov	 eax, DWORD PTR _TargetFormat$[ebp]
  000ef	50		 push	 eax
  000f0	8b 4d 0c	 mov	 ecx, DWORD PTR _DeviceType$[ebp]
  000f3	51		 push	 ecx
  000f4	8b 55 08	 mov	 edx, DWORD PTR _iAdapter$[ebp]
  000f7	52		 push	 edx
  000f8	8b 45 f8	 mov	 eax, DWORD PTR _this$[ebp]
  000fb	8b 88 a4 a4 02
	00		 mov	 ecx, DWORD PTR [eax+173220]
  00101	8b 55 f8	 mov	 edx, DWORD PTR _this$[ebp]
  00104	8b 82 a4 a4 02
	00		 mov	 eax, DWORD PTR [edx+173220]
  0010a	8b 09		 mov	 ecx, DWORD PTR [ecx]
  0010c	50		 push	 eax
  0010d	ff 51 28	 call	 DWORD PTR [ecx+40]
  00110	3b f4		 cmp	 esi, esp
  00112	e8 00 00 00 00	 call	 __RTC_CheckEsp
  00117	85 c0		 test	 eax, eax
  00119	7c 4a		 jl	 SHORT $L85803

; 541  :         {
; 542  :             if( SUCCEEDED( m_pD3D->CheckDepthStencilMatch( iAdapter, DeviceType,
; 543  :                 TargetFormat, TargetFormat, D3DFMT_D15S1 ) ) )

  0011b	8b f4		 mov	 esi, esp
  0011d	6a 49		 push	 73			; 00000049H
  0011f	8b 45 10	 mov	 eax, DWORD PTR _TargetFormat$[ebp]
  00122	50		 push	 eax
  00123	8b 4d 10	 mov	 ecx, DWORD PTR _TargetFormat$[ebp]
  00126	51		 push	 ecx
  00127	8b 55 0c	 mov	 edx, DWORD PTR _DeviceType$[ebp]
  0012a	52		 push	 edx
  0012b	8b 45 08	 mov	 eax, DWORD PTR _iAdapter$[ebp]
  0012e	50		 push	 eax
  0012f	8b 4d f8	 mov	 ecx, DWORD PTR _this$[ebp]
  00132	8b 91 a4 a4 02
	00		 mov	 edx, DWORD PTR [ecx+173220]
  00138	8b 45 f8	 mov	 eax, DWORD PTR _this$[ebp]
  0013b	8b 88 a4 a4 02
	00		 mov	 ecx, DWORD PTR [eax+173220]
  00141	8b 12		 mov	 edx, DWORD PTR [edx]
  00143	51		 push	 ecx
  00144	ff 52 30	 call	 DWORD PTR [edx+48]
  00147	3b f4		 cmp	 esi, esp
  00149	e8 00 00 00 00	 call	 __RTC_CheckEsp
  0014e	85 c0		 test	 eax, eax
  00150	7c 13		 jl	 SHORT $L85803

; 544  :             {
; 545  :                 *pDepthStencilFormat = D3DFMT_D15S1;

  00152	8b 45 14	 mov	 eax, DWORD PTR _pDepthStencilFormat$[ebp]
  00155	c7 00 49 00 00
	00		 mov	 DWORD PTR [eax], 73	; 00000049H

; 546  :                 return TRUE;

  0015b	b8 01 00 00 00	 mov	 eax, 1
  00160	e9 7f 02 00 00	 jmp	 $L85797
$L85803:

; 547  :             }
; 548  :         }
; 549  :     }
; 550  : 
; 551  :     if( m_dwMinDepthBits <= 24 && m_dwMinStencilBits == 0 )

  00165	8b 45 f8	 mov	 eax, DWORD PTR _this$[ebp]
  00168	83 b8 8c a6 02
	00 18		 cmp	 DWORD PTR [eax+173708], 24 ; 00000018H
  0016f	0f 87 91 00 00
	00		 ja	 $L85808
  00175	8b 45 f8	 mov	 eax, DWORD PTR _this$[ebp]
  00178	83 b8 90 a6 02
	00 00		 cmp	 DWORD PTR [eax+173712], 0
  0017f	0f 85 81 00 00
	00		 jne	 $L85808

; 552  :     {
; 553  :         if( SUCCEEDED( m_pD3D->CheckDeviceFormat( iAdapter, DeviceType,
; 554  :             TargetFormat, D3DUSAGE_DEPTHSTENCIL, D3DRTYPE_SURFACE, D3DFMT_D24X8 ) ) )

  00185	8b f4		 mov	 esi, esp
  00187	6a 4d		 push	 77			; 0000004dH
  00189	6a 01		 push	 1
  0018b	6a 02		 push	 2
  0018d	8b 45 10	 mov	 eax, DWORD PTR _TargetFormat$[ebp]
  00190	50		 push	 eax
  00191	8b 4d 0c	 mov	 ecx, DWORD PTR _DeviceType$[ebp]
  00194	51		 push	 ecx
  00195	8b 55 08	 mov	 edx, DWORD PTR _iAdapter$[ebp]
  00198	52		 push	 edx
  00199	8b 45 f8	 mov	 eax, DWORD PTR _this$[ebp]
  0019c	8b 88 a4 a4 02
	00		 mov	 ecx, DWORD PTR [eax+173220]
  001a2	8b 55 f8	 mov	 edx, DWORD PTR _this$[ebp]
  001a5	8b 82 a4 a4 02
	00		 mov	 eax, DWORD PTR [edx+173220]
  001ab	8b 09		 mov	 ecx, DWORD PTR [ecx]
  001ad	50		 push	 eax
  001ae	ff 51 28	 call	 DWORD PTR [ecx+40]
  001b1	3b f4		 cmp	 esi, esp
  001b3	e8 00 00 00 00	 call	 __RTC_CheckEsp
  001b8	85 c0		 test	 eax, eax
  001ba	7c 4a		 jl	 SHORT $L85808

; 555  :         {
; 556  :             if( SUCCEEDED( m_pD3D->CheckDepthStencilMatch( iAdapter, DeviceType,
; 557  :                 TargetFormat, TargetFormat, D3DFMT_D24X8 ) ) )

  001bc	8b f4		 mov	 esi, esp
  001be	6a 4d		 push	 77			; 0000004dH
  001c0	8b 45 10	 mov	 eax, DWORD PTR _TargetFormat$[ebp]
  001c3	50		 push	 eax
  001c4	8b 4d 10	 mov	 ecx, DWORD PTR _TargetFormat$[ebp]
  001c7	51		 push	 ecx
  001c8	8b 55 0c	 mov	 edx, DWORD PTR _DeviceType$[ebp]
  001cb	52		 push	 edx
  001cc	8b 45 08	 mov	 eax, DWORD PTR _iAdapter$[ebp]
  001cf	50		 push	 eax
  001d0	8b 4d f8	 mov	 ecx, DWORD PTR _this$[ebp]
  001d3	8b 91 a4 a4 02
	00		 mov	 edx, DWORD PTR [ecx+173220]
  001d9	8b 45 f8	 mov	 eax, DWORD PTR _this$[ebp]
  001dc	8b 88 a4 a4 02
	00		 mov	 ecx, DWORD PTR [eax+173220]
  001e2	8b 12		 mov	 edx, DWORD PTR [edx]
  001e4	51		 push	 ecx
  001e5	ff 52 30	 call	 DWORD PTR [edx+48]
  001e8	3b f4		 cmp	 esi, esp
  001ea	e8 00 00 00 00	 call	 __RTC_CheckEsp
  001ef	85 c0		 test	 eax, eax
  001f1	7c 13		 jl	 SHORT $L85808

; 558  :             {
; 559  :                 *pDepthStencilFormat = D3DFMT_D24X8;

  001f3	8b 45 14	 mov	 eax, DWORD PTR _pDepthStencilFormat$[ebp]
  001f6	c7 00 4d 00 00
	00		 mov	 DWORD PTR [eax], 77	; 0000004dH

; 560  :                 return TRUE;

  001fc	b8 01 00 00 00	 mov	 eax, 1
  00201	e9 de 01 00 00	 jmp	 $L85797
$L85808:

; 561  :             }
; 562  :         }
; 563  :     }
; 564  : 
; 565  :     if( m_dwMinDepthBits <= 24 && m_dwMinStencilBits <= 8 )

  00206	8b 45 f8	 mov	 eax, DWORD PTR _this$[ebp]
  00209	83 b8 8c a6 02
	00 18		 cmp	 DWORD PTR [eax+173708], 24 ; 00000018H
  00210	0f 87 91 00 00
	00		 ja	 $L85813
  00216	8b 45 f8	 mov	 eax, DWORD PTR _this$[ebp]
  00219	83 b8 90 a6 02
	00 08		 cmp	 DWORD PTR [eax+173712], 8
  00220	0f 87 81 00 00
	00		 ja	 $L85813

; 566  :     {
; 567  :         if( SUCCEEDED( m_pD3D->CheckDeviceFormat( iAdapter, DeviceType,
; 568  :             TargetFormat, D3DUSAGE_DEPTHSTENCIL, D3DRTYPE_SURFACE, D3DFMT_D24S8 ) ) )

  00226	8b f4		 mov	 esi, esp
  00228	6a 4b		 push	 75			; 0000004bH
  0022a	6a 01		 push	 1
  0022c	6a 02		 push	 2
  0022e	8b 45 10	 mov	 eax, DWORD PTR _TargetFormat$[ebp]
  00231	50		 push	 eax
  00232	8b 4d 0c	 mov	 ecx, DWORD PTR _DeviceType$[ebp]
  00235	51		 push	 ecx
  00236	8b 55 08	 mov	 edx, DWORD PTR _iAdapter$[ebp]
  00239	52		 push	 edx
  0023a	8b 45 f8	 mov	 eax, DWORD PTR _this$[ebp]
  0023d	8b 88 a4 a4 02
	00		 mov	 ecx, DWORD PTR [eax+173220]
  00243	8b 55 f8	 mov	 edx, DWORD PTR _this$[ebp]
  00246	8b 82 a4 a4 02
	00		 mov	 eax, DWORD PTR [edx+173220]
  0024c	8b 09		 mov	 ecx, DWORD PTR [ecx]
  0024e	50		 push	 eax
  0024f	ff 51 28	 call	 DWORD PTR [ecx+40]
  00252	3b f4		 cmp	 esi, esp
  00254	e8 00 00 00 00	 call	 __RTC_CheckEsp
  00259	85 c0		 test	 eax, eax
  0025b	7c 4a		 jl	 SHORT $L85813

; 569  :         {
; 570  :             if( SUCCEEDED( m_pD3D->CheckDepthStencilMatch( iAdapter, DeviceType,
; 571  :                 TargetFormat, TargetFormat, D3DFMT_D24S8 ) ) )

  0025d	8b f4		 mov	 esi, esp
  0025f	6a 4b		 push	 75			; 0000004bH
  00261	8b 45 10	 mov	 eax, DWORD PTR _TargetFormat$[ebp]
  00264	50		 push	 eax
  00265	8b 4d 10	 mov	 ecx, DWORD PTR _TargetFormat$[ebp]
  00268	51		 push	 ecx
  00269	8b 55 0c	 mov	 edx, DWORD PTR _DeviceType$[ebp]
  0026c	52		 push	 edx
  0026d	8b 45 08	 mov	 eax, DWORD PTR _iAdapter$[ebp]
  00270	50		 push	 eax
  00271	8b 4d f8	 mov	 ecx, DWORD PTR _this$[ebp]
  00274	8b 91 a4 a4 02
	00		 mov	 edx, DWORD PTR [ecx+173220]
  0027a	8b 45 f8	 mov	 eax, DWORD PTR _this$[ebp]
  0027d	8b 88 a4 a4 02
	00		 mov	 ecx, DWORD PTR [eax+173220]
  00283	8b 12		 mov	 edx, DWORD PTR [edx]
  00285	51		 push	 ecx
  00286	ff 52 30	 call	 DWORD PTR [edx+48]
  00289	3b f4		 cmp	 esi, esp
  0028b	e8 00 00 00 00	 call	 __RTC_CheckEsp
  00290	85 c0		 test	 eax, eax
  00292	7c 13		 jl	 SHORT $L85813

; 572  :             {
; 573  :                 *pDepthStencilFormat = D3DFMT_D24S8;

  00294	8b 45 14	 mov	 eax, DWORD PTR _pDepthStencilFormat$[ebp]
  00297	c7 00 4b 00 00
	00		 mov	 DWORD PTR [eax], 75	; 0000004bH

; 574  :                 return TRUE;

  0029d	b8 01 00 00 00	 mov	 eax, 1
  002a2	e9 3d 01 00 00	 jmp	 $L85797
$L85813:

; 575  :             }
; 576  :         }
; 577  :     }
; 578  : 
; 579  :     if( m_dwMinDepthBits <= 24 && m_dwMinStencilBits <= 4 )

  002a7	8b 45 f8	 mov	 eax, DWORD PTR _this$[ebp]
  002aa	83 b8 8c a6 02
	00 18		 cmp	 DWORD PTR [eax+173708], 24 ; 00000018H
  002b1	0f 87 91 00 00
	00		 ja	 $L85818
  002b7	8b 45 f8	 mov	 eax, DWORD PTR _this$[ebp]
  002ba	83 b8 90 a6 02
	00 04		 cmp	 DWORD PTR [eax+173712], 4
  002c1	0f 87 81 00 00
	00		 ja	 $L85818

; 580  :     {
; 581  :         if( SUCCEEDED( m_pD3D->CheckDeviceFormat( iAdapter, DeviceType,
; 582  :             TargetFormat, D3DUSAGE_DEPTHSTENCIL, D3DRTYPE_SURFACE, D3DFMT_D24X4S4 ) ) )

  002c7	8b f4		 mov	 esi, esp
  002c9	6a 4f		 push	 79			; 0000004fH
  002cb	6a 01		 push	 1
  002cd	6a 02		 push	 2
  002cf	8b 45 10	 mov	 eax, DWORD PTR _TargetFormat$[ebp]
  002d2	50		 push	 eax
  002d3	8b 4d 0c	 mov	 ecx, DWORD PTR _DeviceType$[ebp]
  002d6	51		 push	 ecx
  002d7	8b 55 08	 mov	 edx, DWORD PTR _iAdapter$[ebp]
  002da	52		 push	 edx
  002db	8b 45 f8	 mov	 eax, DWORD PTR _this$[ebp]
  002de	8b 88 a4 a4 02
	00		 mov	 ecx, DWORD PTR [eax+173220]
  002e4	8b 55 f8	 mov	 edx, DWORD PTR _this$[ebp]
  002e7	8b 82 a4 a4 02
	00		 mov	 eax, DWORD PTR [edx+173220]
  002ed	8b 09		 mov	 ecx, DWORD PTR [ecx]
  002ef	50		 push	 eax
  002f0	ff 51 28	 call	 DWORD PTR [ecx+40]
  002f3	3b f4		 cmp	 esi, esp
  002f5	e8 00 00 00 00	 call	 __RTC_CheckEsp
  002fa	85 c0		 test	 eax, eax
  002fc	7c 4a		 jl	 SHORT $L85818

; 583  :         {
; 584  :             if( SUCCEEDED( m_pD3D->CheckDepthStencilMatch( iAdapter, DeviceType,
; 585  :                 TargetFormat, TargetFormat, D3DFMT_D24X4S4 ) ) )

  002fe	8b f4		 mov	 esi, esp
  00300	6a 4f		 push	 79			; 0000004fH
  00302	8b 45 10	 mov	 eax, DWORD PTR _TargetFormat$[ebp]
  00305	50		 push	 eax
  00306	8b 4d 10	 mov	 ecx, DWORD PTR _TargetFormat$[ebp]
  00309	51		 push	 ecx
  0030a	8b 55 0c	 mov	 edx, DWORD PTR _DeviceType$[ebp]
  0030d	52		 push	 edx
  0030e	8b 45 08	 mov	 eax, DWORD PTR _iAdapter$[ebp]
  00311	50		 push	 eax
  00312	8b 4d f8	 mov	 ecx, DWORD PTR _this$[ebp]
  00315	8b 91 a4 a4 02
	00		 mov	 edx, DWORD PTR [ecx+173220]
  0031b	8b 45 f8	 mov	 eax, DWORD PTR _this$[ebp]
  0031e	8b 88 a4 a4 02
	00		 mov	 ecx, DWORD PTR [eax+173220]
  00324	8b 12		 mov	 edx, DWORD PTR [edx]
  00326	51		 push	 ecx
  00327	ff 52 30	 call	 DWORD PTR [edx+48]
  0032a	3b f4		 cmp	 esi, esp
  0032c	e8 00 00 00 00	 call	 __RTC_CheckEsp
  00331	85 c0		 test	 eax, eax
  00333	7c 13		 jl	 SHORT $L85818

; 586  :             {
; 587  :                 *pDepthStencilFormat = D3DFMT_D24X4S4;

  00335	8b 45 14	 mov	 eax, DWORD PTR _pDepthStencilFormat$[ebp]
  00338	c7 00 4f 00 00
	00		 mov	 DWORD PTR [eax], 79	; 0000004fH

; 588  :                 return TRUE;

  0033e	b8 01 00 00 00	 mov	 eax, 1
  00343	e9 9c 00 00 00	 jmp	 $L85797
$L85818:

; 589  :             }
; 590  :         }
; 591  :     }
; 592  : 
; 593  :     if( m_dwMinDepthBits <= 32 && m_dwMinStencilBits == 0 )

  00348	8b 45 f8	 mov	 eax, DWORD PTR _this$[ebp]
  0034b	83 b8 8c a6 02
	00 20		 cmp	 DWORD PTR [eax+173708], 32 ; 00000020H
  00352	0f 87 8a 00 00
	00		 ja	 $L85823
  00358	8b 45 f8	 mov	 eax, DWORD PTR _this$[ebp]
  0035b	83 b8 90 a6 02
	00 00		 cmp	 DWORD PTR [eax+173712], 0
  00362	75 7e		 jne	 SHORT $L85823

; 594  :     {
; 595  :         if( SUCCEEDED( m_pD3D->CheckDeviceFormat( iAdapter, DeviceType,
; 596  :             TargetFormat, D3DUSAGE_DEPTHSTENCIL, D3DRTYPE_SURFACE, D3DFMT_D32 ) ) )

  00364	8b f4		 mov	 esi, esp
  00366	6a 47		 push	 71			; 00000047H
  00368	6a 01		 push	 1
  0036a	6a 02		 push	 2
  0036c	8b 45 10	 mov	 eax, DWORD PTR _TargetFormat$[ebp]
  0036f	50		 push	 eax
  00370	8b 4d 0c	 mov	 ecx, DWORD PTR _DeviceType$[ebp]
  00373	51		 push	 ecx
  00374	8b 55 08	 mov	 edx, DWORD PTR _iAdapter$[ebp]
  00377	52		 push	 edx
  00378	8b 45 f8	 mov	 eax, DWORD PTR _this$[ebp]
  0037b	8b 88 a4 a4 02
	00		 mov	 ecx, DWORD PTR [eax+173220]
  00381	8b 55 f8	 mov	 edx, DWORD PTR _this$[ebp]
  00384	8b 82 a4 a4 02
	00		 mov	 eax, DWORD PTR [edx+173220]
  0038a	8b 09		 mov	 ecx, DWORD PTR [ecx]
  0038c	50		 push	 eax
  0038d	ff 51 28	 call	 DWORD PTR [ecx+40]
  00390	3b f4		 cmp	 esi, esp
  00392	e8 00 00 00 00	 call	 __RTC_CheckEsp
  00397	85 c0		 test	 eax, eax
  00399	7c 47		 jl	 SHORT $L85823

; 597  :         {
; 598  :             if( SUCCEEDED( m_pD3D->CheckDepthStencilMatch( iAdapter, DeviceType,
; 599  :                 TargetFormat, TargetFormat, D3DFMT_D32 ) ) )

  0039b	8b f4		 mov	 esi, esp
  0039d	6a 47		 push	 71			; 00000047H
  0039f	8b 45 10	 mov	 eax, DWORD PTR _TargetFormat$[ebp]
  003a2	50		 push	 eax
  003a3	8b 4d 10	 mov	 ecx, DWORD PTR _TargetFormat$[ebp]
  003a6	51		 push	 ecx
  003a7	8b 55 0c	 mov	 edx, DWORD PTR _DeviceType$[ebp]
  003aa	52		 push	 edx
  003ab	8b 45 08	 mov	 eax, DWORD PTR _iAdapter$[ebp]
  003ae	50		 push	 eax
  003af	8b 4d f8	 mov	 ecx, DWORD PTR _this$[ebp]
  003b2	8b 91 a4 a4 02
	00		 mov	 edx, DWORD PTR [ecx+173220]
  003b8	8b 45 f8	 mov	 eax, DWORD PTR _this$[ebp]
  003bb	8b 88 a4 a4 02
	00		 mov	 ecx, DWORD PTR [eax+173220]
  003c1	8b 12		 mov	 edx, DWORD PTR [edx]
  003c3	51		 push	 ecx
  003c4	ff 52 30	 call	 DWORD PTR [edx+48]
  003c7	3b f4		 cmp	 esi, esp
  003c9	e8 00 00 00 00	 call	 __RTC_CheckEsp
  003ce	85 c0		 test	 eax, eax
  003d0	7c 10		 jl	 SHORT $L85823

; 600  :             {
; 601  :                 *pDepthStencilFormat = D3DFMT_D32;

  003d2	8b 45 14	 mov	 eax, DWORD PTR _pDepthStencilFormat$[ebp]
  003d5	c7 00 47 00 00
	00		 mov	 DWORD PTR [eax], 71	; 00000047H

; 602  :                 return TRUE;

  003db	b8 01 00 00 00	 mov	 eax, 1
  003e0	eb 02		 jmp	 SHORT $L85797
$L85823:

; 603  :             }
; 604  :         }
; 605  :     }
; 606  : 
; 607  :     return FALSE;

  003e2	33 c0		 xor	 eax, eax
$L85797:

; 608  : }

  003e4	5f		 pop	 edi
  003e5	5e		 pop	 esi
  003e6	5b		 pop	 ebx
  003e7	81 c4 cc 00 00
	00		 add	 esp, 204		; 000000ccH
  003ed	3b ec		 cmp	 ebp, esp
  003ef	e8 00 00 00 00	 call	 __RTC_CheckEsp
  003f4	8b e5		 mov	 esp, ebp
  003f6	5d		 pop	 ebp
  003f7	c2 10 00	 ret	 16			; 00000010H
?FindDepthStencilFormat@CD3DApplication@@IAEHIW4_D3DDEVTYPE@@W4_D3DFORMAT@@PAW43@@Z ENDP ; CD3DApplication::FindDepthStencilFormat
; Function compile flags: /Odt /RTCsu /ZI
; File c:\documents and settings\dom\my documents\_dev\ae\xlr8a\x7g\d3dframe8.1 custom\include\d3dapp_custom.h
_TEXT	ENDS
;	COMDAT ?RestoreDeviceObjects@CD3DApplication@@MAEJXZ
_TEXT	SEGMENT
_this$ = -8
?RestoreDeviceObjects@CD3DApplication@@MAEJXZ PROC NEAR	; CD3DApplication::RestoreDeviceObjects, COMDAT
; _this$ = ecx

; 201  :     virtual HRESULT RestoreDeviceObjects()                     { return S_OK; }

  00000	55		 push	 ebp
  00001	8b ec		 mov	 ebp, esp
  00003	81 ec cc 00 00
	00		 sub	 esp, 204		; 000000ccH
  00009	53		 push	 ebx
  0000a	56		 push	 esi
  0000b	57		 push	 edi
  0000c	51		 push	 ecx
  0000d	8d bd 34 ff ff
	ff		 lea	 edi, DWORD PTR [ebp-204]
  00013	b9 33 00 00 00	 mov	 ecx, 51			; 00000033H
  00018	b8 cc cc cc cc	 mov	 eax, -858993460		; ccccccccH
  0001d	f3 ab		 rep stosd
  0001f	59		 pop	 ecx
  00020	89 4d f8	 mov	 DWORD PTR _this$[ebp], ecx
  00023	33 c0		 xor	 eax, eax
  00025	5f		 pop	 edi
  00026	5e		 pop	 esi
  00027	5b		 pop	 ebx
  00028	8b e5		 mov	 esp, ebp
  0002a	5d		 pop	 ebp
  0002b	c3		 ret	 0
?RestoreDeviceObjects@CD3DApplication@@MAEJXZ ENDP	; CD3DApplication::RestoreDeviceObjects
; Function compile flags: /Odt /RTCsu /ZI
_TEXT	ENDS
;	COMDAT ?FrameMove@CD3DApplication@@MAEJXZ
_TEXT	SEGMENT
_this$ = -8
?FrameMove@CD3DApplication@@MAEJXZ PROC NEAR		; CD3DApplication::FrameMove, COMDAT
; _this$ = ecx

; 202  :     virtual HRESULT FrameMove()                                { return S_OK; }

  00000	55		 push	 ebp
  00001	8b ec		 mov	 ebp, esp
  00003	81 ec cc 00 00
	00		 sub	 esp, 204		; 000000ccH
  00009	53		 push	 ebx
  0000a	56		 push	 esi
  0000b	57		 push	 edi
  0000c	51		 push	 ecx
  0000d	8d bd 34 ff ff
	ff		 lea	 edi, DWORD PTR [ebp-204]
  00013	b9 33 00 00 00	 mov	 ecx, 51			; 00000033H
  00018	b8 cc cc cc cc	 mov	 eax, -858993460		; ccccccccH
  0001d	f3 ab		 rep stosd
  0001f	59		 pop	 ecx
  00020	89 4d f8	 mov	 DWORD PTR _this$[ebp], ecx
  00023	33 c0		 xor	 eax, eax
  00025	5f		 pop	 edi
  00026	5e		 pop	 esi
  00027	5b		 pop	 ebx
  00028	8b e5		 mov	 esp, ebp
  0002a	5d		 pop	 ebp
  0002b	c3		 ret	 0
?FrameMove@CD3DApplication@@MAEJXZ ENDP			; CD3DApplication::FrameMove
; Function compile flags: /Odt /RTCsu /ZI
_TEXT	ENDS
;	COMDAT ?Render@CD3DApplication@@MAEJXZ
_TEXT	SEGMENT
_this$ = -8
?Render@CD3DApplication@@MAEJXZ PROC NEAR		; CD3DApplication::Render, COMDAT
; _this$ = ecx

; 203  :     virtual HRESULT Render()                                   { return S_OK; }

  00000	55		 push	 ebp
  00001	8b ec		 mov	 ebp, esp
  00003	81 ec cc 00 00
	00		 sub	 esp, 204		; 000000ccH
  00009	53		 push	 ebx
  0000a	56		 push	 esi
  0000b	57		 push	 edi
  0000c	51		 push	 ecx
  0000d	8d bd 34 ff ff
	ff		 lea	 edi, DWORD PTR [ebp-204]
  00013	b9 33 00 00 00	 mov	 ecx, 51			; 00000033H
  00018	b8 cc cc cc cc	 mov	 eax, -858993460		; ccccccccH
  0001d	f3 ab		 rep stosd
  0001f	59		 pop	 ecx
  00020	89 4d f8	 mov	 DWORD PTR _this$[ebp], ecx
  00023	33 c0		 xor	 eax, eax
  00025	5f		 pop	 edi
  00026	5e		 pop	 esi
  00027	5b		 pop	 ebx
  00028	8b e5		 mov	 esp, ebp
  0002a	5d		 pop	 ebp
  0002b	c3		 ret	 0
?Render@CD3DApplication@@MAEJXZ ENDP			; CD3DApplication::Render
; Function compile flags: /Odt /RTCsu /ZI
_TEXT	ENDS
;	COMDAT ?InvalidateDeviceObjects@CD3DApplication@@MAEJXZ
_TEXT	SEGMENT
_this$ = -8
?InvalidateDeviceObjects@CD3DApplication@@MAEJXZ PROC NEAR ; CD3DApplication::InvalidateDeviceObjects, COMDAT
; _this$ = ecx

; 204  :     virtual HRESULT InvalidateDeviceObjects()                  { return S_OK; }

  00000	55		 push	 ebp
  00001	8b ec		 mov	 ebp, esp
  00003	81 ec cc 00 00
	00		 sub	 esp, 204		; 000000ccH
  00009	53		 push	 ebx
  0000a	56		 push	 esi
  0000b	57		 push	 edi
  0000c	51		 push	 ecx
  0000d	8d bd 34 ff ff
	ff		 lea	 edi, DWORD PTR [ebp-204]
  00013	b9 33 00 00 00	 mov	 ecx, 51			; 00000033H
  00018	b8 cc cc cc cc	 mov	 eax, -858993460		; ccccccccH
  0001d	f3 ab		 rep stosd
  0001f	59		 pop	 ecx
  00020	89 4d f8	 mov	 DWORD PTR _this$[ebp], ecx
  00023	33 c0		 xor	 eax, eax
  00025	5f		 pop	 edi
  00026	5e		 pop	 esi
  00027	5b		 pop	 ebx
  00028	8b e5		 mov	 esp, ebp
  0002a	5d		 pop	 ebp
  0002b	c3		 ret	 0
?InvalidateDeviceObjects@CD3DApplication@@MAEJXZ ENDP	; CD3DApplication::InvalidateDeviceObjects
; Function compile flags: /Odt /RTCsu /ZI
_TEXT	ENDS
;	COMDAT ?DeleteDeviceObjects@CD3DApplication@@MAEJXZ
_TEXT	SEGMENT
_this$ = -8
?DeleteDeviceObjects@CD3DApplication@@MAEJXZ PROC NEAR	; CD3DApplication::DeleteDeviceObjects, COMDAT
; _this$ = ecx

; 205  :     virtual HRESULT DeleteDeviceObjects()                      { return S_OK; }

  00000	55		 push	 ebp
  00001	8b ec		 mov	 ebp, esp
  00003	81 ec cc 00 00
	00		 sub	 esp, 204		; 000000ccH
  00009	53		 push	 ebx
  0000a	56		 push	 esi
  0000b	57		 push	 edi
  0000c	51		 push	 ecx
  0000d	8d bd 34 ff ff
	ff		 lea	 edi, DWORD PTR [ebp-204]
  00013	b9 33 00 00 00	 mov	 ecx, 51			; 00000033H
  00018	b8 cc cc cc cc	 mov	 eax, -858993460		; ccccccccH
  0001d	f3 ab		 rep stosd
  0001f	59		 pop	 ecx
  00020	89 4d f8	 mov	 DWORD PTR _this$[ebp], ecx
  00023	33 c0		 xor	 eax, eax
  00025	5f		 pop	 edi
  00026	5e		 pop	 esi
  00027	5b		 pop	 ebx
  00028	8b e5		 mov	 esp, ebp
  0002a	5d		 pop	 ebp
  0002b	c3		 ret	 0
?DeleteDeviceObjects@CD3DApplication@@MAEJXZ ENDP	; CD3DApplication::DeleteDeviceObjects
; Function compile flags: /Odt /RTCsu /ZI
_TEXT	ENDS
;	COMDAT ?FinalCleanup@CD3DApplication@@MAEJXZ
_TEXT	SEGMENT
_this$ = -8
?FinalCleanup@CD3DApplication@@MAEJXZ PROC NEAR		; CD3DApplication::FinalCleanup, COMDAT
; _this$ = ecx

; 206  :     virtual HRESULT FinalCleanup()                             { return S_OK; }

  00000	55		 push	 ebp
  00001	8b ec		 mov	 ebp, esp
  00003	81 ec cc 00 00
	00		 sub	 esp, 204		; 000000ccH
  00009	53		 push	 ebx
  0000a	56		 push	 esi
  0000b	57		 push	 edi
  0000c	51		 push	 ecx
  0000d	8d bd 34 ff ff
	ff		 lea	 edi, DWORD PTR [ebp-204]
  00013	b9 33 00 00 00	 mov	 ecx, 51			; 00000033H
  00018	b8 cc cc cc cc	 mov	 eax, -858993460		; ccccccccH
  0001d	f3 ab		 rep stosd
  0001f	59		 pop	 ecx
  00020	89 4d f8	 mov	 DWORD PTR _this$[ebp], ecx
  00023	33 c0		 xor	 eax, eax
  00025	5f		 pop	 edi
  00026	5e		 pop	 esi
  00027	5b		 pop	 ebx
  00028	8b e5		 mov	 esp, ebp
  0002a	5d		 pop	 ebp
  0002b	c3		 ret	 0
?FinalCleanup@CD3DApplication@@MAEJXZ ENDP		; CD3DApplication::FinalCleanup
_TEXT	ENDS
PUBLIC	?Resize3DEnvironment@CD3DApplication@@IAEJXZ	; CD3DApplication::Resize3DEnvironment
PUBLIC	?ToggleFullscreen@CD3DApplication@@IAEJXZ	; CD3DApplication::ToggleFullscreen
PUBLIC	?UserSelectNewDevice@CD3DApplication@@IAEJXZ	; CD3DApplication::UserSelectNewDevice
PUBLIC	?Cleanup3DEnvironment@CD3DApplication@@IAEXXZ	; CD3DApplication::Cleanup3DEnvironment
EXTRN	__imp__LoadMenuA@8:NEAR
EXTRN	__imp__GetMenu@4:NEAR
EXTRN	__imp__SendMessageA@16:NEAR
EXTRN	__imp__DestroyMenu@4:NEAR
EXTRN	__imp__GetSubMenu@8:NEAR
EXTRN	__imp__TrackPopupMenuEx@24:NEAR
EXTRN	__imp__DefWindowProcA@16:NEAR
EXTRN	__imp__PostQuitMessage@4:NEAR
EXTRN	__imp__DestroyWindow@4:NEAR
EXTRN	?SetKey@@YAXHH@Z:NEAR				; SetKey
EXTRN	__imp__GetKeyboardState@4:NEAR
EXTRN	__imp__SetCursor@4:NEAR
EXTRN	__imp__GetCursorPos@4:NEAR
EXTRN	__imp__ClipCursor@4:NEAR
EXTRN	__imp__ScreenToClient@8:NEAR
; Function compile flags: /Odt /RTCsu /ZI
; File c:\documents and settings\dom\my documents\_dev\ae\xlr8a\x7g\d3dframe8.1 custom\src\d3dapp_custom.cpp
;	COMDAT ?MsgProc@CD3DApplication@@UAEJPAUHWND__@@IIJ@Z
_TEXT	SEGMENT
tv300 = -260
tv288 = -260
tv285 = -260
tv64 = -260
_ptCursor$85868 = -60
_rcClientOld$85858 = -44
_hr$ = -20
_this$ = -8
_hWnd$ = 8
_uMsg$ = 12
_wParam$ = 16
_lParam$ = 20
?MsgProc@CD3DApplication@@UAEJPAUHWND__@@IIJ@Z PROC NEAR ; CD3DApplication::MsgProc, COMDAT
; _this$ = ecx

; 619  : {

  00000	55		 push	 ebp
  00001	8b ec		 mov	 ebp, esp
  00003	81 ec 04 01 00
	00		 sub	 esp, 260		; 00000104H
  00009	53		 push	 ebx
  0000a	56		 push	 esi
  0000b	57		 push	 edi
  0000c	51		 push	 ecx
  0000d	8d bd fc fe ff
	ff		 lea	 edi, DWORD PTR [ebp-260]
  00013	b9 41 00 00 00	 mov	 ecx, 65			; 00000041H
  00018	b8 cc cc cc cc	 mov	 eax, -858993460		; ccccccccH
  0001d	f3 ab		 rep stosd
  0001f	59		 pop	 ecx
  00020	89 4d f8	 mov	 DWORD PTR _this$[ebp], ecx

; 620  :     HRESULT hr;
; 621  : 
; 622  :     switch( uMsg )
; 623  :     {

  00023	8b 45 0c	 mov	 eax, DWORD PTR _uMsg$[ebp]
  00026	89 85 fc fe ff
	ff		 mov	 DWORD PTR tv64[ebp], eax
  0002c	81 bd fc fe ff
	ff 11 01 00 00	 cmp	 DWORD PTR tv64[ebp], 273 ; 00000111H
  00036	77 40		 ja	 SHORT $L86720
  00038	81 bd fc fe ff
	ff 11 01 00 00	 cmp	 DWORD PTR tv64[ebp], 273 ; 00000111H
  00042	0f 84 19 06 00
	00		 je	 $L85897
  00048	8b 8d fc fe ff
	ff		 mov	 ecx, DWORD PTR tv64[ebp]
  0004e	83 e9 05	 sub	 ecx, 5
  00051	89 8d fc fe ff
	ff		 mov	 DWORD PTR tv64[ebp], ecx
  00057	83 bd fc fe ff
	ff 7f		 cmp	 DWORD PTR tv64[ebp], 127 ; 0000007fH
  0005e	0f 87 f0 07 00
	00		 ja	 $L85837
  00064	8b 95 fc fe ff
	ff		 mov	 edx, DWORD PTR tv64[ebp]
  0006a	0f b6 82 00 00
	00 00		 movzx	 eax, BYTE PTR $L86722[edx]
  00071	ff 24 85 00 00
	00 00		 jmp	 DWORD PTR $L86727[eax*4]
$L86720:
  00078	81 bd fc fe ff
	ff 12 02 00 00	 cmp	 DWORD PTR tv64[ebp], 530 ; 00000212H
  00082	77 45		 ja	 SHORT $L86721
  00084	81 bd fc fe ff
	ff 12 02 00 00	 cmp	 DWORD PTR tv64[ebp], 530 ; 00000212H
  0008e	0f 84 85 04 00
	00		 je	 $L85871
  00094	81 bd fc fe ff
	ff 12 01 00 00	 cmp	 DWORD PTR tv64[ebp], 274 ; 00000112H
  0009e	0f 84 4d 05 00
	00		 je	 $L85890
  000a4	81 bd fc fe ff
	ff 00 02 00 00	 cmp	 DWORD PTR tv64[ebp], 512 ; 00000200H
  000ae	0f 84 ba 03 00
	00		 je	 $L85866
  000b4	81 bd fc fe ff
	ff 11 02 00 00	 cmp	 DWORD PTR tv64[ebp], 529 ; 00000211H
  000be	0f 84 3a 04 00
	00		 je	 $L85870
  000c4	e9 8b 07 00 00	 jmp	 $L85837
$L86721:
  000c9	81 bd fc fe ff
	ff 18 02 00 00	 cmp	 DWORD PTR tv64[ebp], 536 ; 00000218H
  000d3	0f 84 e2 04 00
	00		 je	 $L85883
  000d9	81 bd fc fe ff
	ff 31 02 00 00	 cmp	 DWORD PTR tv64[ebp], 561 ; 00000231H
  000e3	0f 84 3a 01 00
	00		 je	 $L85850
  000e9	81 bd fc fe ff
	ff 32 02 00 00	 cmp	 DWORD PTR tv64[ebp], 562 ; 00000232H
  000f3	0f 84 a8 01 00
	00		 je	 $L85856
  000f9	e9 56 07 00 00	 jmp	 $L85837
$L85840:

; 624  :         case WM_PAINT:
; 625  :             // Handle paint messages when the app is not ready
; 626  :             if( m_pd3dDevice && !m_bReady )

  000fe	8b 45 f8	 mov	 eax, DWORD PTR _this$[ebp]
  00101	83 b8 a8 a4 02
	00 00		 cmp	 DWORD PTR [eax+173224], 0
  00108	74 55		 je	 SHORT $L85841
  0010a	8b 45 f8	 mov	 eax, DWORD PTR _this$[ebp]
  0010d	83 b8 54 a4 02
	00 00		 cmp	 DWORD PTR [eax+173140], 0
  00114	75 49		 jne	 SHORT $L85841

; 627  :             {
; 628  :                 if( m_bWindowed )

  00116	8b 45 f8	 mov	 eax, DWORD PTR _this$[ebp]
  00119	83 b8 4c a4 02
	00 00		 cmp	 DWORD PTR [eax+173132], 0
  00120	74 3d		 je	 SHORT $L85841

; 629  :                 {
; 630  :                     Render();

  00122	8b 45 f8	 mov	 eax, DWORD PTR _this$[ebp]
  00125	8b 10		 mov	 edx, DWORD PTR [eax]
  00127	8b f4		 mov	 esi, esp
  00129	8b 4d f8	 mov	 ecx, DWORD PTR _this$[ebp]
  0012c	ff 52 18	 call	 DWORD PTR [edx+24]
  0012f	3b f4		 cmp	 esi, esp
  00131	e8 00 00 00 00	 call	 __RTC_CheckEsp

; 631  :                     m_pd3dDevice->Present( NULL, NULL, NULL, NULL );

  00136	8b f4		 mov	 esi, esp
  00138	6a 00		 push	 0
  0013a	6a 00		 push	 0
  0013c	6a 00		 push	 0
  0013e	6a 00		 push	 0
  00140	8b 45 f8	 mov	 eax, DWORD PTR _this$[ebp]
  00143	8b 88 a8 a4 02
	00		 mov	 ecx, DWORD PTR [eax+173224]
  00149	8b 55 f8	 mov	 edx, DWORD PTR _this$[ebp]
  0014c	8b 82 a8 a4 02
	00		 mov	 eax, DWORD PTR [edx+173224]
  00152	8b 09		 mov	 ecx, DWORD PTR [ecx]
  00154	50		 push	 eax
  00155	ff 51 3c	 call	 DWORD PTR [ecx+60]
  00158	3b f4		 cmp	 esi, esp
  0015a	e8 00 00 00 00	 call	 __RTC_CheckEsp
$L85841:

; 632  :                 }
; 633  :             }
; 634  :             break;

  0015f	e9 f0 06 00 00	 jmp	 $L85837
$L85843:

; 635  : 
; 636  :         case WM_ACTIVATEAPP:
; 637  :             m_bHasFocus = (BOOL) wParam;

  00164	8b 45 f8	 mov	 eax, DWORD PTR _this$[ebp]
  00167	8b 4d 10	 mov	 ecx, DWORD PTR _wParam$[ebp]
  0016a	89 88 58 a4 02
	00		 mov	 DWORD PTR [eax+173144], ecx

; 638  : 
; 639  : 			// DM
; 640  : 			if( m_bHasFocus )

  00170	8b 45 f8	 mov	 eax, DWORD PTR _this$[ebp]
  00173	83 b8 58 a4 02
	00 00		 cmp	 DWORD PTR [eax+173144], 0
  0017a	74 44		 je	 SHORT $L85845

; 641  : 			{
; 642  : 				GetKeyboardState( m_bKS );

  0017c	8b 45 f8	 mov	 eax, DWORD PTR _this$[ebp]
  0017f	05 b4 a6 02 00	 add	 eax, 173748		; 0002a6b4H
  00184	8b f4		 mov	 esi, esp
  00186	50		 push	 eax
  00187	ff 15 00 00 00
	00		 call	 DWORD PTR __imp__GetKeyboardState@4
  0018d	3b f4		 cmp	 esi, esp
  0018f	e8 00 00 00 00	 call	 __RTC_CheckEsp

; 643  : 				SetKey( VK_NUMLOCK, 0 );

  00194	6a 00		 push	 0
  00196	68 90 00 00 00	 push	 144			; 00000090H
  0019b	e8 00 00 00 00	 call	 ?SetKey@@YAXHH@Z	; SetKey
  001a0	83 c4 08	 add	 esp, 8

; 644  : 				SetKey( VK_CAPITAL, 0 );

  001a3	6a 00		 push	 0
  001a5	6a 14		 push	 20			; 00000014H
  001a7	e8 00 00 00 00	 call	 ?SetKey@@YAXHH@Z	; SetKey
  001ac	83 c4 08	 add	 esp, 8

; 645  : 				SetKey( VK_SCROLL,  0 );

  001af	6a 00		 push	 0
  001b1	68 91 00 00 00	 push	 145			; 00000091H
  001b6	e8 00 00 00 00	 call	 ?SetKey@@YAXHH@Z	; SetKey
  001bb	83 c4 08	 add	 esp, 8

; 646  : 			}
; 647  : 			else

  001be	eb 45		 jmp	 SHORT $L85846
$L85845:

; 648  : 			{
; 649  : 				SetKey( VK_NUMLOCK, m_bKS[ VK_NUMLOCK ] );

  001c0	8b 45 f8	 mov	 eax, DWORD PTR _this$[ebp]
  001c3	0f b6 88 44 a7
	02 00		 movzx	 ecx, BYTE PTR [eax+173892]
  001ca	51		 push	 ecx
  001cb	68 90 00 00 00	 push	 144			; 00000090H
  001d0	e8 00 00 00 00	 call	 ?SetKey@@YAXHH@Z	; SetKey
  001d5	83 c4 08	 add	 esp, 8

; 650  : 				SetKey( VK_CAPITAL, m_bKS[ VK_CAPITAL ] );

  001d8	8b 45 f8	 mov	 eax, DWORD PTR _this$[ebp]
  001db	0f b6 88 c8 a6
	02 00		 movzx	 ecx, BYTE PTR [eax+173768]
  001e2	51		 push	 ecx
  001e3	6a 14		 push	 20			; 00000014H
  001e5	e8 00 00 00 00	 call	 ?SetKey@@YAXHH@Z	; SetKey
  001ea	83 c4 08	 add	 esp, 8

; 651  : 				SetKey( VK_SCROLL,  m_bKS[ VK_SCROLL  ] );

  001ed	8b 45 f8	 mov	 eax, DWORD PTR _this$[ebp]
  001f0	0f b6 88 45 a7
	02 00		 movzx	 ecx, BYTE PTR [eax+173893]
  001f7	51		 push	 ecx
  001f8	68 91 00 00 00	 push	 145			; 00000091H
  001fd	e8 00 00 00 00	 call	 ?SetKey@@YAXHH@Z	; SetKey
  00202	83 c4 08	 add	 esp, 8
$L85846:

; 652  : 			}
; 653  : 
; 654  :             break;

  00205	e9 4a 06 00 00	 jmp	 $L85837
$L85847:

; 655  : 
; 656  :         case WM_GETMINMAXINFO:
; 657  :             ((MINMAXINFO*)lParam)->ptMinTrackSize.x = 100;

  0020a	8b 45 14	 mov	 eax, DWORD PTR _lParam$[ebp]
  0020d	c7 40 18 64 00
	00 00		 mov	 DWORD PTR [eax+24], 100	; 00000064H

; 658  :             ((MINMAXINFO*)lParam)->ptMinTrackSize.y = 100;

  00214	8b 45 14	 mov	 eax, DWORD PTR _lParam$[ebp]
  00217	c7 40 1c 64 00
	00 00		 mov	 DWORD PTR [eax+28], 100	; 00000064H

; 659  :             break;

  0021e	e9 31 06 00 00	 jmp	 $L85837
$L85850:

; 660  : 
; 661  :         case WM_ENTERSIZEMOVE:
; 662  :             // Halt frame movement while the app is sizing or moving
; 663  :             Pause( TRUE );

  00223	8b f4		 mov	 esi, esp
  00225	6a 01		 push	 1
  00227	8b 45 f8	 mov	 eax, DWORD PTR _this$[ebp]
  0022a	8b 10		 mov	 edx, DWORD PTR [eax]
  0022c	8b 4d f8	 mov	 ecx, DWORD PTR _this$[ebp]
  0022f	ff 52 34	 call	 DWORD PTR [edx+52]
  00232	3b f4		 cmp	 esi, esp
  00234	e8 00 00 00 00	 call	 __RTC_CheckEsp

; 664  : 			m_bInSizeMoveLoop = TRUE ;

  00239	8b 45 f8	 mov	 eax, DWORD PTR _this$[ebp]
  0023c	c7 80 b4 a7 02
	00 01 00 00 00	 mov	 DWORD PTR [eax+174004], 1

; 665  :             break;

  00246	e9 09 06 00 00	 jmp	 $L85837
$L85851:

; 666  : 
; 667  :         case WM_SIZE:
; 668  :             // Check to see if we are losing our window...
; 669  :             if( SIZE_MAXHIDE==wParam || SIZE_MINIMIZED==wParam )

  0024b	83 7d 10 04	 cmp	 DWORD PTR _wParam$[ebp], 4
  0024f	74 06		 je	 SHORT $L85853
  00251	83 7d 10 01	 cmp	 DWORD PTR _wParam$[ebp], 1
  00255	75 38		 jne	 SHORT $L85852
$L85853:

; 670  :             {
; 671  :                 if( m_bClipCursorWhenFullscreen && !m_bWindowed )

  00257	8b 45 f8	 mov	 eax, DWORD PTR _this$[ebp]
  0025a	83 b8 a0 a6 02
	00 00		 cmp	 DWORD PTR [eax+173728], 0
  00261	74 1d		 je	 SHORT $L85854
  00263	8b 45 f8	 mov	 eax, DWORD PTR _this$[ebp]
  00266	83 b8 4c a4 02
	00 00		 cmp	 DWORD PTR [eax+173132], 0
  0026d	75 11		 jne	 SHORT $L85854

; 672  :                     ClipCursor( NULL );

  0026f	8b f4		 mov	 esi, esp
  00271	6a 00		 push	 0
  00273	ff 15 00 00 00
	00		 call	 DWORD PTR __imp__ClipCursor@4
  00279	3b f4		 cmp	 esi, esp
  0027b	e8 00 00 00 00	 call	 __RTC_CheckEsp
$L85854:

; 673  :                 m_bActive = FALSE;

  00280	8b 45 f8	 mov	 eax, DWORD PTR _this$[ebp]
  00283	c7 80 50 a4 02
	00 00 00 00 00	 mov	 DWORD PTR [eax+173136], 0

; 674  :             }
; 675  :             else

  0028d	eb 0d		 jmp	 SHORT $L85855
$L85852:

; 676  :             {
; 677  :                 m_bActive = TRUE;

  0028f	8b 45 f8	 mov	 eax, DWORD PTR _this$[ebp]
  00292	c7 80 50 a4 02
	00 01 00 00 00	 mov	 DWORD PTR [eax+173136], 1
$L85855:

; 678  :             }
; 679  :             break;

  0029c	e9 b3 05 00 00	 jmp	 $L85837
$L85856:

; 680  : 
; 681  :         case WM_EXITSIZEMOVE:
; 682  :             Pause( FALSE );

  002a1	8b f4		 mov	 esi, esp
  002a3	6a 00		 push	 0
  002a5	8b 45 f8	 mov	 eax, DWORD PTR _this$[ebp]
  002a8	8b 10		 mov	 edx, DWORD PTR [eax]
  002aa	8b 4d f8	 mov	 ecx, DWORD PTR _this$[ebp]
  002ad	ff 52 34	 call	 DWORD PTR [edx+52]
  002b0	3b f4		 cmp	 esi, esp
  002b2	e8 00 00 00 00	 call	 __RTC_CheckEsp

; 683  : 			m_bInSizeMoveLoop = FALSE ;

  002b7	8b 45 f8	 mov	 eax, DWORD PTR _this$[ebp]
  002ba	c7 80 b4 a7 02
	00 00 00 00 00	 mov	 DWORD PTR [eax+174004], 0

; 684  : 
; 685  :             if( m_bActive && m_bWindowed )

  002c4	8b 45 f8	 mov	 eax, DWORD PTR _this$[ebp]
  002c7	83 b8 50 a4 02
	00 00		 cmp	 DWORD PTR [eax+173136], 0
  002ce	0f 84 22 01 00
	00		 je	 $L85857
  002d4	8b 45 f8	 mov	 eax, DWORD PTR _this$[ebp]
  002d7	83 b8 4c a4 02
	00 00		 cmp	 DWORD PTR [eax+173132], 0
  002de	0f 84 12 01 00
	00		 je	 $L85857

; 686  :             {
; 687  :                 RECT rcClientOld;
; 688  :                 rcClientOld = m_rcWindowClient;

  002e4	8b 45 f8	 mov	 eax, DWORD PTR _this$[ebp]
  002e7	05 b8 a5 02 00	 add	 eax, 173496		; 0002a5b8H
  002ec	8b 08		 mov	 ecx, DWORD PTR [eax]
  002ee	89 4d d4	 mov	 DWORD PTR _rcClientOld$85858[ebp], ecx
  002f1	8b 50 04	 mov	 edx, DWORD PTR [eax+4]
  002f4	89 55 d8	 mov	 DWORD PTR _rcClientOld$85858[ebp+4], edx
  002f7	8b 48 08	 mov	 ecx, DWORD PTR [eax+8]
  002fa	89 4d dc	 mov	 DWORD PTR _rcClientOld$85858[ebp+8], ecx
  002fd	8b 50 0c	 mov	 edx, DWORD PTR [eax+12]
  00300	89 55 e0	 mov	 DWORD PTR _rcClientOld$85858[ebp+12], edx

; 689  : 
; 690  :                 // Update window properties
; 691  :                 GetWindowRect( m_hWnd, &m_rcWindowBounds );

  00303	8b 45 f8	 mov	 eax, DWORD PTR _this$[ebp]
  00306	05 a8 a5 02 00	 add	 eax, 173480		; 0002a5a8H
  0030b	8b f4		 mov	 esi, esp
  0030d	50		 push	 eax
  0030e	8b 4d f8	 mov	 ecx, DWORD PTR _this$[ebp]
  00311	8b 91 98 a4 02
	00		 mov	 edx, DWORD PTR [ecx+173208]
  00317	52		 push	 edx
  00318	ff 15 00 00 00
	00		 call	 DWORD PTR __imp__GetWindowRect@8
  0031e	3b f4		 cmp	 esi, esp
  00320	e8 00 00 00 00	 call	 __RTC_CheckEsp

; 692  :                 GetClientRect( m_hWnd, &m_rcWindowClient );

  00325	8b 45 f8	 mov	 eax, DWORD PTR _this$[ebp]
  00328	05 b8 a5 02 00	 add	 eax, 173496		; 0002a5b8H
  0032d	8b f4		 mov	 esi, esp
  0032f	50		 push	 eax
  00330	8b 4d f8	 mov	 ecx, DWORD PTR _this$[ebp]
  00333	8b 91 98 a4 02
	00		 mov	 edx, DWORD PTR [ecx+173208]
  00339	52		 push	 edx
  0033a	ff 15 00 00 00
	00		 call	 DWORD PTR __imp__GetClientRect@8
  00340	3b f4		 cmp	 esi, esp
  00342	e8 00 00 00 00	 call	 __RTC_CheckEsp

; 693  : 
; 694  :                 if( rcClientOld.right - rcClientOld.left !=
; 695  :                     m_rcWindowClient.right - m_rcWindowClient.left ||
; 696  :                     rcClientOld.bottom - rcClientOld.top !=
; 697  :                     m_rcWindowClient.bottom - m_rcWindowClient.top)

  00347	8b 45 dc	 mov	 eax, DWORD PTR _rcClientOld$85858[ebp+8]
  0034a	2b 45 d4	 sub	 eax, DWORD PTR _rcClientOld$85858[ebp]
  0034d	8b 4d f8	 mov	 ecx, DWORD PTR _this$[ebp]
  00350	8b 55 f8	 mov	 edx, DWORD PTR _this$[ebp]
  00353	8b 89 c0 a5 02
	00		 mov	 ecx, DWORD PTR [ecx+173504]
  00359	2b 8a b8 a5 02
	00		 sub	 ecx, DWORD PTR [edx+173496]
  0035f	3b c1		 cmp	 eax, ecx
  00361	75 1c		 jne	 SHORT $L85860
  00363	8b 45 e0	 mov	 eax, DWORD PTR _rcClientOld$85858[ebp+12]
  00366	2b 45 d8	 sub	 eax, DWORD PTR _rcClientOld$85858[ebp+4]
  00369	8b 4d f8	 mov	 ecx, DWORD PTR _this$[ebp]
  0036c	8b 55 f8	 mov	 edx, DWORD PTR _this$[ebp]
  0036f	8b 89 c4 a5 02
	00		 mov	 ecx, DWORD PTR [ecx+173508]
  00375	2b 8a bc a5 02
	00		 sub	 ecx, DWORD PTR [edx+173500]
  0037b	3b c1		 cmp	 eax, ecx
  0037d	74 77		 je	 SHORT $L85857
$L85860:

; 698  :                 {
; 699  :                     // A new window size will require a new backbuffer
; 700  :                     // size, so the 3D structures must be changed accordingly.
; 701  :                     m_bReady = FALSE;

  0037f	8b 45 f8	 mov	 eax, DWORD PTR _this$[ebp]
  00382	c7 80 54 a4 02
	00 00 00 00 00	 mov	 DWORD PTR [eax+173140], 0

; 702  : 
; 703  :                     m_d3dpp.BackBufferWidth  = m_rcWindowClient.right - m_rcWindowClient.left;

  0038c	8b 45 f8	 mov	 eax, DWORD PTR _this$[ebp]
  0038f	8b 4d f8	 mov	 ecx, DWORD PTR _this$[ebp]
  00392	8b 90 c0 a5 02
	00		 mov	 edx, DWORD PTR [eax+173504]
  00398	2b 91 b8 a5 02
	00		 sub	 edx, DWORD PTR [ecx+173496]
  0039e	8b 45 f8	 mov	 eax, DWORD PTR _this$[ebp]
  003a1	89 90 64 a4 02
	00		 mov	 DWORD PTR [eax+173156], edx

; 704  :                     m_d3dpp.BackBufferHeight = m_rcWindowClient.bottom - m_rcWindowClient.top;

  003a7	8b 45 f8	 mov	 eax, DWORD PTR _this$[ebp]
  003aa	8b 4d f8	 mov	 ecx, DWORD PTR _this$[ebp]
  003ad	8b 90 c4 a5 02
	00		 mov	 edx, DWORD PTR [eax+173508]
  003b3	2b 91 bc a5 02
	00		 sub	 edx, DWORD PTR [ecx+173500]
  003b9	8b 45 f8	 mov	 eax, DWORD PTR _this$[ebp]
  003bc	89 90 68 a4 02
	00		 mov	 DWORD PTR [eax+173160], edx

; 705  : 
; 706  :                     // Resize the 3D environment
; 707  :                     if( FAILED( hr = Resize3DEnvironment() ) )

  003c2	8b 4d f8	 mov	 ecx, DWORD PTR _this$[ebp]
  003c5	e8 00 00 00 00	 call	 ?Resize3DEnvironment@CD3DApplication@@IAEJXZ ; CD3DApplication::Resize3DEnvironment
  003ca	89 45 ec	 mov	 DWORD PTR _hr$[ebp], eax
  003cd	83 7d ec 00	 cmp	 DWORD PTR _hr$[ebp], 0
  003d1	7d 16		 jge	 SHORT $L85862

; 708  :                     {
; 709  :                         DisplayErrorMsg( D3DAPPERR_RESIZEFAILED, MSGERR_APPMUSTEXIT );

  003d3	6a 01		 push	 1
  003d5	68 0c 00 00 82	 push	 -2113929204		; 8200000cH
  003da	8b 4d f8	 mov	 ecx, DWORD PTR _this$[ebp]
  003dd	e8 00 00 00 00	 call	 ?DisplayErrorMsg@CD3DApplication@@IAEJJK@Z ; CD3DApplication::DisplayErrorMsg

; 710  :                         return 0;

  003e2	33 c0		 xor	 eax, eax
  003e4	e9 8a 04 00 00	 jmp	 $L85834
$L85862:

; 711  :                     }
; 712  : 
; 713  :                     m_bReady = TRUE;

  003e9	8b 45 f8	 mov	 eax, DWORD PTR _this$[ebp]
  003ec	c7 80 54 a4 02
	00 01 00 00 00	 mov	 DWORD PTR [eax+173140], 1
$L85857:

; 714  :                 }
; 715  :             }
; 716  : 
; 717  :             break;

  003f6	e9 59 04 00 00	 jmp	 $L85837
$L85863:

; 718  : 
; 719  :         case WM_SETCURSOR:
; 720  :             // Turn off Windows cursor in fullscreen mode
; 721  :             if( m_bActive && m_bReady && !m_bWindowed )

  003fb	8b 45 f8	 mov	 eax, DWORD PTR _this$[ebp]
  003fe	83 b8 50 a4 02
	00 00		 cmp	 DWORD PTR [eax+173136], 0
  00405	74 62		 je	 SHORT $L85864
  00407	8b 45 f8	 mov	 eax, DWORD PTR _this$[ebp]
  0040a	83 b8 54 a4 02
	00 00		 cmp	 DWORD PTR [eax+173140], 0
  00411	74 56		 je	 SHORT $L85864
  00413	8b 45 f8	 mov	 eax, DWORD PTR _this$[ebp]
  00416	83 b8 4c a4 02
	00 00		 cmp	 DWORD PTR [eax+173132], 0
  0041d	75 4a		 jne	 SHORT $L85864

; 722  :             {
; 723  :                 SetCursor( NULL );

  0041f	8b f4		 mov	 esi, esp
  00421	6a 00		 push	 0
  00423	ff 15 00 00 00
	00		 call	 DWORD PTR __imp__SetCursor@4
  00429	3b f4		 cmp	 esi, esp
  0042b	e8 00 00 00 00	 call	 __RTC_CheckEsp

; 724  :                 if( m_bShowCursorWhenFullscreen )

  00430	8b 45 f8	 mov	 eax, DWORD PTR _this$[ebp]
  00433	83 b8 9c a6 02
	00 00		 cmp	 DWORD PTR [eax+173724], 0
  0043a	74 23		 je	 SHORT $L85865

; 725  :                     m_pd3dDevice->ShowCursor( TRUE );

  0043c	8b f4		 mov	 esi, esp
  0043e	6a 01		 push	 1
  00440	8b 45 f8	 mov	 eax, DWORD PTR _this$[ebp]
  00443	8b 88 a8 a4 02
	00		 mov	 ecx, DWORD PTR [eax+173224]
  00449	8b 55 f8	 mov	 edx, DWORD PTR _this$[ebp]
  0044c	8b 82 a8 a4 02
	00		 mov	 eax, DWORD PTR [edx+173224]
  00452	8b 09		 mov	 ecx, DWORD PTR [ecx]
  00454	50		 push	 eax
  00455	ff 51 30	 call	 DWORD PTR [ecx+48]
  00458	3b f4		 cmp	 esi, esp
  0045a	e8 00 00 00 00	 call	 __RTC_CheckEsp
$L85865:

; 726  :                 return TRUE; // prevent Windows from setting cursor to window class cursor

  0045f	b8 01 00 00 00	 mov	 eax, 1
  00464	e9 0a 04 00 00	 jmp	 $L85834
$L85864:

; 727  :             }
; 728  :             break;

  00469	e9 e6 03 00 00	 jmp	 $L85837
$L85866:

; 729  : 
; 730  :          case WM_MOUSEMOVE:
; 731  :             if( m_bActive && m_bReady && m_pd3dDevice != NULL )

  0046e	8b 45 f8	 mov	 eax, DWORD PTR _this$[ebp]
  00471	83 b8 50 a4 02
	00 00		 cmp	 DWORD PTR [eax+173136], 0
  00478	74 7f		 je	 SHORT $L85867
  0047a	8b 45 f8	 mov	 eax, DWORD PTR _this$[ebp]
  0047d	83 b8 54 a4 02
	00 00		 cmp	 DWORD PTR [eax+173140], 0
  00484	74 73		 je	 SHORT $L85867
  00486	8b 45 f8	 mov	 eax, DWORD PTR _this$[ebp]
  00489	83 b8 a8 a4 02
	00 00		 cmp	 DWORD PTR [eax+173224], 0
  00490	74 67		 je	 SHORT $L85867

; 732  :             {
; 733  :                 POINT ptCursor;
; 734  :                 GetCursorPos( &ptCursor );

  00492	8b f4		 mov	 esi, esp
  00494	8d 45 c4	 lea	 eax, DWORD PTR _ptCursor$85868[ebp]
  00497	50		 push	 eax
  00498	ff 15 00 00 00
	00		 call	 DWORD PTR __imp__GetCursorPos@4
  0049e	3b f4		 cmp	 esi, esp
  004a0	e8 00 00 00 00	 call	 __RTC_CheckEsp

; 735  :                 if( !m_bWindowed )

  004a5	8b 45 f8	 mov	 eax, DWORD PTR _this$[ebp]
  004a8	83 b8 4c a4 02
	00 00		 cmp	 DWORD PTR [eax+173132], 0
  004af	75 1d		 jne	 SHORT $L85869

; 736  :                     ScreenToClient( m_hWnd, &ptCursor );

  004b1	8b f4		 mov	 esi, esp
  004b3	8d 45 c4	 lea	 eax, DWORD PTR _ptCursor$85868[ebp]
  004b6	50		 push	 eax
  004b7	8b 4d f8	 mov	 ecx, DWORD PTR _this$[ebp]
  004ba	8b 91 98 a4 02
	00		 mov	 edx, DWORD PTR [ecx+173208]
  004c0	52		 push	 edx
  004c1	ff 15 00 00 00
	00		 call	 DWORD PTR __imp__ScreenToClient@8
  004c7	3b f4		 cmp	 esi, esp
  004c9	e8 00 00 00 00	 call	 __RTC_CheckEsp
$L85869:

; 737  :                 m_pd3dDevice->SetCursorPosition( ptCursor.x, ptCursor.y, 0L );

  004ce	8b f4		 mov	 esi, esp
  004d0	6a 00		 push	 0
  004d2	8b 45 c8	 mov	 eax, DWORD PTR _ptCursor$85868[ebp+4]
  004d5	50		 push	 eax
  004d6	8b 4d c4	 mov	 ecx, DWORD PTR _ptCursor$85868[ebp]
  004d9	51		 push	 ecx
  004da	8b 55 f8	 mov	 edx, DWORD PTR _this$[ebp]
  004dd	8b 82 a8 a4 02
	00		 mov	 eax, DWORD PTR [edx+173224]
  004e3	8b 4d f8	 mov	 ecx, DWORD PTR _this$[ebp]
  004e6	8b 91 a8 a4 02
	00		 mov	 edx, DWORD PTR [ecx+173224]
  004ec	8b 00		 mov	 eax, DWORD PTR [eax]
  004ee	52		 push	 edx
  004ef	ff 50 2c	 call	 DWORD PTR [eax+44]
  004f2	3b f4		 cmp	 esi, esp
  004f4	e8 00 00 00 00	 call	 __RTC_CheckEsp
$L85867:

; 738  :             }
; 739  :             break;

  004f9	e9 56 03 00 00	 jmp	 $L85837
$L85870:

; 740  : 
; 741  :        case WM_ENTERMENULOOP:
; 742  :             // Pause the app when menus are displayed
; 743  :             Pause(TRUE);

  004fe	8b f4		 mov	 esi, esp
  00500	6a 01		 push	 1
  00502	8b 45 f8	 mov	 eax, DWORD PTR _this$[ebp]
  00505	8b 10		 mov	 edx, DWORD PTR [eax]
  00507	8b 4d f8	 mov	 ecx, DWORD PTR _this$[ebp]
  0050a	ff 52 34	 call	 DWORD PTR [edx+52]
  0050d	3b f4		 cmp	 esi, esp
  0050f	e8 00 00 00 00	 call	 __RTC_CheckEsp

; 744  :             break;

  00514	e9 3b 03 00 00	 jmp	 $L85837
$L85871:

; 745  : 
; 746  :         case WM_EXITMENULOOP:
; 747  :             Pause(FALSE);

  00519	8b f4		 mov	 esi, esp
  0051b	6a 00		 push	 0
  0051d	8b 45 f8	 mov	 eax, DWORD PTR _this$[ebp]
  00520	8b 10		 mov	 edx, DWORD PTR [eax]
  00522	8b 4d f8	 mov	 ecx, DWORD PTR _this$[ebp]
  00525	ff 52 34	 call	 DWORD PTR [edx+52]
  00528	3b f4		 cmp	 esi, esp
  0052a	e8 00 00 00 00	 call	 __RTC_CheckEsp

; 748  :             break;

  0052f	e9 20 03 00 00	 jmp	 $L85837
$L85872:

; 749  : 
; 750  :         case WM_CONTEXTMENU:
; 751  :             // No context menus allowed in fullscreen mode
; 752  :             if( m_bWindowed == FALSE )

  00534	8b 45 f8	 mov	 eax, DWORD PTR _this$[ebp]
  00537	83 b8 4c a4 02
	00 00		 cmp	 DWORD PTR [eax+173132], 0
  0053e	75 05		 jne	 SHORT $L85873

; 753  :                 break;

  00540	e9 0f 03 00 00	 jmp	 $L85837
$L85873:

; 754  : 
; 755  :             // Handle the app's context menu (via right mouse click)
; 756  :             TrackPopupMenuEx( GetSubMenu( LoadMenu( 0, MAKEINTRESOURCE(IDR_POPUP) ), 0 ),
; 757  :                               TPM_VERTICAL, LOWORD(lParam), HIWORD(lParam), hWnd, NULL );

  00545	8b f4		 mov	 esi, esp
  00547	6a 00		 push	 0
  00549	8b 45 08	 mov	 eax, DWORD PTR _hWnd$[ebp]
  0054c	50		 push	 eax
  0054d	8b 4d 14	 mov	 ecx, DWORD PTR _lParam$[ebp]
  00550	c1 e9 10	 shr	 ecx, 16			; 00000010H
  00553	0f b7 d1	 movzx	 edx, cx
  00556	52		 push	 edx
  00557	8b 45 14	 mov	 eax, DWORD PTR _lParam$[ebp]
  0055a	25 ff ff 00 00	 and	 eax, 65535		; 0000ffffH
  0055f	0f b7 c8	 movzx	 ecx, ax
  00562	51		 push	 ecx
  00563	6a 40		 push	 64			; 00000040H
  00565	8b fc		 mov	 edi, esp
  00567	6a 00		 push	 0
  00569	8b dc		 mov	 ebx, esp
  0056b	68 8e 00 00 00	 push	 142			; 0000008eH
  00570	6a 00		 push	 0
  00572	ff 15 00 00 00
	00		 call	 DWORD PTR __imp__LoadMenuA@8
  00578	3b dc		 cmp	 ebx, esp
  0057a	e8 00 00 00 00	 call	 __RTC_CheckEsp
  0057f	50		 push	 eax
  00580	ff 15 00 00 00
	00		 call	 DWORD PTR __imp__GetSubMenu@8
  00586	3b fc		 cmp	 edi, esp
  00588	e8 00 00 00 00	 call	 __RTC_CheckEsp
  0058d	50		 push	 eax
  0058e	ff 15 00 00 00
	00		 call	 DWORD PTR __imp__TrackPopupMenuEx@24
  00594	3b f4		 cmp	 esi, esp
  00596	e8 00 00 00 00	 call	 __RTC_CheckEsp

; 758  :             break;

  0059b	e9 b4 02 00 00	 jmp	 $L85837
$L85881:

; 759  : 
; 760  :         case WM_NCHITTEST:
; 761  :             // Prevent the user from selecting the menu in fullscreen mode
; 762  :             if( !m_bWindowed )

  005a0	8b 45 f8	 mov	 eax, DWORD PTR _this$[ebp]
  005a3	83 b8 4c a4 02
	00 00		 cmp	 DWORD PTR [eax+173132], 0
  005aa	75 0a		 jne	 SHORT $L85882

; 763  :                 return HTCLIENT;

  005ac	b8 01 00 00 00	 mov	 eax, 1
  005b1	e9 bd 02 00 00	 jmp	 $L85834
$L85882:

; 764  : 
; 765  :             break;

  005b6	e9 99 02 00 00	 jmp	 $L85837
$L85883:

; 766  : 
; 767  :         case WM_POWERBROADCAST:
; 768  :             switch( wParam )
; 769  :             {

  005bb	8b 45 10	 mov	 eax, DWORD PTR _wParam$[ebp]
  005be	89 85 fc fe ff
	ff		 mov	 DWORD PTR tv285[ebp], eax
  005c4	83 bd fc fe ff
	ff 00		 cmp	 DWORD PTR tv285[ebp], 0
  005cb	74 0b		 je	 SHORT $L85888
  005cd	83 bd fc fe ff
	ff 07		 cmp	 DWORD PTR tv285[ebp], 7
  005d4	74 0c		 je	 SHORT $L85889
  005d6	eb 14		 jmp	 SHORT $L85885
$L85888:

; 770  :                 #ifndef PBT_APMQUERYSUSPEND
; 771  :                     #define PBT_APMQUERYSUSPEND 0x0000
; 772  :                 #endif
; 773  :                 case PBT_APMQUERYSUSPEND:
; 774  :                     // At this point, the app should save any data for open
; 775  :                     // network connections, files, etc., and prepare to go into
; 776  :                     // a suspended mode.
; 777  :                     return TRUE;

  005d8	b8 01 00 00 00	 mov	 eax, 1
  005dd	e9 91 02 00 00	 jmp	 $L85834
$L85889:

; 778  : 
; 779  :                 #ifndef PBT_APMRESUMESUSPEND
; 780  :                     #define PBT_APMRESUMESUSPEND 0x0007
; 781  :                 #endif
; 782  :                 case PBT_APMRESUMESUSPEND:
; 783  :                     // At this point, the app should recover any data, network
; 784  :                     // connections, files, etc., and resume running from when
; 785  :                     // the app was suspended.
; 786  :                     return TRUE;

  005e2	b8 01 00 00 00	 mov	 eax, 1
  005e7	e9 87 02 00 00	 jmp	 $L85834
$L85885:

; 787  :             }
; 788  :             break;

  005ec	e9 63 02 00 00	 jmp	 $L85837
$L85890:

; 789  : 
; 790  :         case WM_SYSCOMMAND:
; 791  :             // Prevent moving/sizing and power loss in fullscreen mode
; 792  :             switch( wParam )
; 793  :             {

  005f1	8b 45 10	 mov	 eax, DWORD PTR _wParam$[ebp]
  005f4	89 85 fc fe ff
	ff		 mov	 DWORD PTR tv288[ebp], eax
  005fa	81 bd fc fe ff
	ff 30 f0 00 00	 cmp	 DWORD PTR tv288[ebp], 61488 ; 0000f030H
  00604	77 26		 ja	 SHORT $L86719
  00606	81 bd fc fe ff
	ff 30 f0 00 00	 cmp	 DWORD PTR tv288[ebp], 61488 ; 0000f030H
  00610	74 34		 je	 SHORT $L85895
  00612	81 bd fc fe ff
	ff 00 f0 00 00	 cmp	 DWORD PTR tv288[ebp], 61440 ; 0000f000H
  0061c	74 28		 je	 SHORT $L85895
  0061e	81 bd fc fe ff
	ff 10 f0 00 00	 cmp	 DWORD PTR tv288[ebp], 61456 ; 0000f010H
  00628	74 1c		 je	 SHORT $L85895
  0062a	eb 30		 jmp	 SHORT $L85892
$L86719:
  0062c	81 bd fc fe ff
	ff 00 f1 00 00	 cmp	 DWORD PTR tv288[ebp], 61696 ; 0000f100H
  00636	74 0e		 je	 SHORT $L85895
  00638	81 bd fc fe ff
	ff 70 f1 00 00	 cmp	 DWORD PTR tv288[ebp], 61808 ; 0000f170H
  00642	74 02		 je	 SHORT $L85895
  00644	eb 16		 jmp	 SHORT $L85892
$L85895:

; 794  :                 case SC_MOVE:
; 795  :                 case SC_SIZE:
; 796  :                 case SC_MAXIMIZE:
; 797  :                 case SC_KEYMENU:
; 798  :                 case SC_MONITORPOWER:
; 799  :                     if( FALSE == m_bWindowed )

  00646	8b 45 f8	 mov	 eax, DWORD PTR _this$[ebp]
  00649	83 b8 4c a4 02
	00 00		 cmp	 DWORD PTR [eax+173132], 0
  00650	75 0a		 jne	 SHORT $L85892

; 800  :                         return 1;

  00652	b8 01 00 00 00	 mov	 eax, 1
  00657	e9 17 02 00 00	 jmp	 $L85834
$L85892:

; 801  :                     break;
; 802  :             }
; 803  :             break;

  0065c	e9 f3 01 00 00	 jmp	 $L85837
$L85897:

; 804  : 
; 805  :         case WM_COMMAND:
; 806  :             switch( LOWORD(wParam) )
; 807  :             {

  00661	8b 45 10	 mov	 eax, DWORD PTR _wParam$[ebp]
  00664	25 ff ff 00 00	 and	 eax, 65535		; 0000ffffH
  00669	0f b7 c8	 movzx	 ecx, ax
  0066c	89 8d fc fe ff
	ff		 mov	 DWORD PTR tv300[ebp], ecx
  00672	8b 95 fc fe ff
	ff		 mov	 edx, DWORD PTR tv300[ebp]
  00678	81 ea 42 9c 00
	00		 sub	 edx, 40002		; 00009c42H
  0067e	89 95 fc fe ff
	ff		 mov	 DWORD PTR tv300[ebp], edx
  00684	83 bd fc fe ff
	ff 04		 cmp	 DWORD PTR tv300[ebp], 4
  0068b	0f 87 6e 01 00
	00		 ja	 $L85901
  00691	8b 85 fc fe ff
	ff		 mov	 eax, DWORD PTR tv300[ebp]
  00697	ff 24 85 00 00
	00 00		 jmp	 DWORD PTR $L86728[eax*4]
$L85904:

; 808  :                 case IDM_TOGGLESTART:
; 809  :                     // Toggle frame movement
; 810  :                     m_bFrameMoving = !m_bFrameMoving;

  0069e	8b 45 f8	 mov	 eax, DWORD PTR _this$[ebp]
  006a1	33 c9		 xor	 ecx, ecx
  006a3	83 b8 5c a4 02
	00 00		 cmp	 DWORD PTR [eax+173148], 0
  006aa	0f 94 c1	 sete	 cl
  006ad	8b 55 f8	 mov	 edx, DWORD PTR _this$[ebp]
  006b0	89 8a 5c a4 02
	00		 mov	 DWORD PTR [edx+173148], ecx

; 811  :                     DXUtil_Timer( m_bFrameMoving ? TIMER_START : TIMER_STOP );

  006b6	8b 45 f8	 mov	 eax, DWORD PTR _this$[ebp]
  006b9	33 c9		 xor	 ecx, ecx
  006bb	83 b8 5c a4 02
	00 00		 cmp	 DWORD PTR [eax+173148], 0
  006c2	0f 94 c1	 sete	 cl
  006c5	41		 inc	 ecx
  006c6	51		 push	 ecx
  006c7	e8 00 00 00 00	 call	 ?DXUtil_Timer@@YGMW4TIMER_COMMAND@@@Z ; DXUtil_Timer
  006cc	dd d8		 fstp	 ST(0)

; 812  :                     break;

  006ce	e9 2c 01 00 00	 jmp	 $L85901
$L85905:

; 813  : 
; 814  :                 case IDM_SINGLESTEP:
; 815  :                     // Single-step frame movement
; 816  :                     if( FALSE == m_bFrameMoving )

  006d3	8b 45 f8	 mov	 eax, DWORD PTR _this$[ebp]
  006d6	83 b8 5c a4 02
	00 00		 cmp	 DWORD PTR [eax+173148], 0
  006dd	75 0b		 jne	 SHORT $L85906

; 817  :                         DXUtil_Timer( TIMER_ADVANCE );

  006df	6a 03		 push	 3
  006e1	e8 00 00 00 00	 call	 ?DXUtil_Timer@@YGMW4TIMER_COMMAND@@@Z ; DXUtil_Timer
  006e6	dd d8		 fstp	 ST(0)

; 818  :                     else

  006e8	eb 09		 jmp	 SHORT $L85907
$L85906:

; 819  :                         DXUtil_Timer( TIMER_STOP );

  006ea	6a 02		 push	 2
  006ec	e8 00 00 00 00	 call	 ?DXUtil_Timer@@YGMW4TIMER_COMMAND@@@Z ; DXUtil_Timer
  006f1	dd d8		 fstp	 ST(0)
$L85907:

; 820  :                     m_bFrameMoving = FALSE;

  006f3	8b 45 f8	 mov	 eax, DWORD PTR _this$[ebp]
  006f6	c7 80 5c a4 02
	00 00 00 00 00	 mov	 DWORD PTR [eax+173148], 0

; 821  :                     m_bSingleStep  = TRUE;

  00700	8b 45 f8	 mov	 eax, DWORD PTR _this$[ebp]
  00703	c7 80 60 a4 02
	00 01 00 00 00	 mov	 DWORD PTR [eax+173152], 1

; 822  :                     break;

  0070d	e9 ed 00 00 00	 jmp	 $L85901
$L85908:

; 823  : 
; 824  :                 case IDM_CHANGEDEVICE:
; 825  :                     // Prompt the user to select a new device or mode
; 826  :                     if( m_bActive && m_bReady )

  00712	8b 45 f8	 mov	 eax, DWORD PTR _this$[ebp]
  00715	83 b8 50 a4 02
	00 00		 cmp	 DWORD PTR [eax+173136], 0
  0071c	74 50		 je	 SHORT $L85909
  0071e	8b 45 f8	 mov	 eax, DWORD PTR _this$[ebp]
  00721	83 b8 54 a4 02
	00 00		 cmp	 DWORD PTR [eax+173140], 0
  00728	74 44		 je	 SHORT $L85909

; 827  :                     {
; 828  :                         Pause(TRUE);

  0072a	8b f4		 mov	 esi, esp
  0072c	6a 01		 push	 1
  0072e	8b 45 f8	 mov	 eax, DWORD PTR _this$[ebp]
  00731	8b 10		 mov	 edx, DWORD PTR [eax]
  00733	8b 4d f8	 mov	 ecx, DWORD PTR _this$[ebp]
  00736	ff 52 34	 call	 DWORD PTR [edx+52]
  00739	3b f4		 cmp	 esi, esp
  0073b	e8 00 00 00 00	 call	 __RTC_CheckEsp

; 829  : 
; 830  :                         if( FAILED( hr = UserSelectNewDevice() ) )

  00740	8b 4d f8	 mov	 ecx, DWORD PTR _this$[ebp]
  00743	e8 00 00 00 00	 call	 ?UserSelectNewDevice@CD3DApplication@@IAEJXZ ; CD3DApplication::UserSelectNewDevice
  00748	89 45 ec	 mov	 DWORD PTR _hr$[ebp], eax
  0074b	83 7d ec 00	 cmp	 DWORD PTR _hr$[ebp], 0
  0074f	7d 07		 jge	 SHORT $L85911

; 831  :                             return 0;

  00751	33 c0		 xor	 eax, eax
  00753	e9 1b 01 00 00	 jmp	 $L85834
$L85911:

; 832  : 
; 833  :                         Pause(FALSE);

  00758	8b f4		 mov	 esi, esp
  0075a	6a 00		 push	 0
  0075c	8b 45 f8	 mov	 eax, DWORD PTR _this$[ebp]
  0075f	8b 10		 mov	 edx, DWORD PTR [eax]
  00761	8b 4d f8	 mov	 ecx, DWORD PTR _this$[ebp]
  00764	ff 52 34	 call	 DWORD PTR [edx+52]
  00767	3b f4		 cmp	 esi, esp
  00769	e8 00 00 00 00	 call	 __RTC_CheckEsp
$L85909:

; 834  :                     }
; 835  :                     return 0;

  0076e	33 c0		 xor	 eax, eax
  00770	e9 fe 00 00 00	 jmp	 $L85834
$L85912:

; 836  : 
; 837  :                 case IDM_TOGGLEFULLSCREEN:
; 838  :                     // Toggle the fullscreen/window mode
; 839  :                     if( m_bActive && m_bReady )

  00775	8b 45 f8	 mov	 eax, DWORD PTR _this$[ebp]
  00778	83 b8 50 a4 02
	00 00		 cmp	 DWORD PTR [eax+173136], 0
  0077f	74 5a		 je	 SHORT $L85913
  00781	8b 45 f8	 mov	 eax, DWORD PTR _this$[ebp]
  00784	83 b8 54 a4 02
	00 00		 cmp	 DWORD PTR [eax+173140], 0
  0078b	74 4e		 je	 SHORT $L85913

; 840  :                     {
; 841  :                         Pause( TRUE );

  0078d	8b f4		 mov	 esi, esp
  0078f	6a 01		 push	 1
  00791	8b 45 f8	 mov	 eax, DWORD PTR _this$[ebp]
  00794	8b 10		 mov	 edx, DWORD PTR [eax]
  00796	8b 4d f8	 mov	 ecx, DWORD PTR _this$[ebp]
  00799	ff 52 34	 call	 DWORD PTR [edx+52]
  0079c	3b f4		 cmp	 esi, esp
  0079e	e8 00 00 00 00	 call	 __RTC_CheckEsp

; 842  :                         
; 843  :                         if( FAILED( ToggleFullscreen() ) )

  007a3	8b 4d f8	 mov	 ecx, DWORD PTR _this$[ebp]
  007a6	e8 00 00 00 00	 call	 ?ToggleFullscreen@CD3DApplication@@IAEJXZ ; CD3DApplication::ToggleFullscreen
  007ab	85 c0		 test	 eax, eax
  007ad	7d 16		 jge	 SHORT $L85915

; 844  :                         {
; 845  :                             DisplayErrorMsg( D3DAPPERR_RESIZEFAILED, MSGERR_APPMUSTEXIT );

  007af	6a 01		 push	 1
  007b1	68 0c 00 00 82	 push	 -2113929204		; 8200000cH
  007b6	8b 4d f8	 mov	 ecx, DWORD PTR _this$[ebp]
  007b9	e8 00 00 00 00	 call	 ?DisplayErrorMsg@CD3DApplication@@IAEJJK@Z ; CD3DApplication::DisplayErrorMsg

; 846  :                             return 0;

  007be	33 c0		 xor	 eax, eax
  007c0	e9 ae 00 00 00	 jmp	 $L85834
$L85915:

; 847  :                         }
; 848  : 
; 849  :                         Pause( FALSE );                        

  007c5	8b f4		 mov	 esi, esp
  007c7	6a 00		 push	 0
  007c9	8b 45 f8	 mov	 eax, DWORD PTR _this$[ebp]
  007cc	8b 10		 mov	 edx, DWORD PTR [eax]
  007ce	8b 4d f8	 mov	 ecx, DWORD PTR _this$[ebp]
  007d1	ff 52 34	 call	 DWORD PTR [edx+52]
  007d4	3b f4		 cmp	 esi, esp
  007d6	e8 00 00 00 00	 call	 __RTC_CheckEsp
$L85913:

; 850  :                     }
; 851  :                     return 0;

  007db	33 c0		 xor	 eax, eax
  007dd	e9 91 00 00 00	 jmp	 $L85834
$L85916:

; 852  : 
; 853  :                 case IDM_EXIT:
; 854  :                     // Recieved key/menu command to exit app
; 855  :                     SendMessage( hWnd, WM_CLOSE, 0, 0 );

  007e2	8b f4		 mov	 esi, esp
  007e4	6a 00		 push	 0
  007e6	6a 00		 push	 0
  007e8	6a 10		 push	 16			; 00000010H
  007ea	8b 45 08	 mov	 eax, DWORD PTR _hWnd$[ebp]
  007ed	50		 push	 eax
  007ee	ff 15 00 00 00
	00		 call	 DWORD PTR __imp__SendMessageA@16
  007f4	3b f4		 cmp	 esi, esp
  007f6	e8 00 00 00 00	 call	 __RTC_CheckEsp

; 856  :                     return 0;

  007fb	33 c0		 xor	 eax, eax
  007fd	eb 74		 jmp	 SHORT $L85834
$L85901:

; 857  :             }
; 858  :             break;

  007ff	eb 53		 jmp	 SHORT $L85837
$L85917:

; 859  : 
; 860  :         case WM_CLOSE:
; 861  :             Cleanup3DEnvironment();

  00801	8b 4d f8	 mov	 ecx, DWORD PTR _this$[ebp]
  00804	e8 00 00 00 00	 call	 ?Cleanup3DEnvironment@CD3DApplication@@IAEXXZ ; CD3DApplication::Cleanup3DEnvironment

; 862  :             DestroyMenu( GetMenu(hWnd) );

  00809	8b f4		 mov	 esi, esp
  0080b	8b 45 08	 mov	 eax, DWORD PTR _hWnd$[ebp]
  0080e	50		 push	 eax
  0080f	ff 15 00 00 00
	00		 call	 DWORD PTR __imp__GetMenu@4
  00815	3b f4		 cmp	 esi, esp
  00817	e8 00 00 00 00	 call	 __RTC_CheckEsp
  0081c	8b f4		 mov	 esi, esp
  0081e	50		 push	 eax
  0081f	ff 15 00 00 00
	00		 call	 DWORD PTR __imp__DestroyMenu@4
  00825	3b f4		 cmp	 esi, esp
  00827	e8 00 00 00 00	 call	 __RTC_CheckEsp

; 863  :             DestroyWindow( hWnd );

  0082c	8b f4		 mov	 esi, esp
  0082e	8b 45 08	 mov	 eax, DWORD PTR _hWnd$[ebp]
  00831	50		 push	 eax
  00832	ff 15 00 00 00
	00		 call	 DWORD PTR __imp__DestroyWindow@4
  00838	3b f4		 cmp	 esi, esp
  0083a	e8 00 00 00 00	 call	 __RTC_CheckEsp

; 864  :             PostQuitMessage(0);

  0083f	8b f4		 mov	 esi, esp
  00841	6a 00		 push	 0
  00843	ff 15 00 00 00
	00		 call	 DWORD PTR __imp__PostQuitMessage@4
  00849	3b f4		 cmp	 esi, esp
  0084b	e8 00 00 00 00	 call	 __RTC_CheckEsp

; 865  :             return 0;

  00850	33 c0		 xor	 eax, eax
  00852	eb 1f		 jmp	 SHORT $L85834
$L85837:

; 866  :     }
; 867  : 
; 868  :     return DefWindowProc( hWnd, uMsg, wParam, lParam );

  00854	8b f4		 mov	 esi, esp
  00856	8b 45 14	 mov	 eax, DWORD PTR _lParam$[ebp]
  00859	50		 push	 eax
  0085a	8b 4d 10	 mov	 ecx, DWORD PTR _wParam$[ebp]
  0085d	51		 push	 ecx
  0085e	8b 55 0c	 mov	 edx, DWORD PTR _uMsg$[ebp]
  00861	52		 push	 edx
  00862	8b 45 08	 mov	 eax, DWORD PTR _hWnd$[ebp]
  00865	50		 push	 eax
  00866	ff 15 00 00 00
	00		 call	 DWORD PTR __imp__DefWindowProcA@16
  0086c	3b f4		 cmp	 esi, esp
  0086e	e8 00 00 00 00	 call	 __RTC_CheckEsp
$L85834:

; 869  : }

  00873	52		 push	 edx
  00874	8b cd		 mov	 ecx, ebp
  00876	50		 push	 eax
  00877	8d 15 00 00 00
	00		 lea	 edx, DWORD PTR $L86726
  0087d	e8 00 00 00 00	 call	 @_RTC_CheckStackVars@8
  00882	58		 pop	 eax
  00883	5a		 pop	 edx
  00884	5f		 pop	 edi
  00885	5e		 pop	 esi
  00886	5b		 pop	 ebx
  00887	81 c4 04 01 00
	00		 add	 esp, 260		; 00000104H
  0088d	3b ec		 cmp	 ebp, esp
  0088f	e8 00 00 00 00	 call	 __RTC_CheckEsp
  00894	8b e5		 mov	 esp, ebp
  00896	5d		 pop	 ebp
  00897	c2 10 00	 ret	 16			; 00000010H
$L86726:
  0089a	02 00 00 00	 DD	 2
  0089e	00 00 00 00	 DD	 $L86725
$L86725:
  008a2	d4 ff ff ff	 DD	 -44			; ffffffd4H
  008a6	10 00 00 00	 DD	 16			; 00000010H
  008aa	00 00 00 00	 DD	 $L86723
  008ae	c4 ff ff ff	 DD	 -60			; ffffffc4H
  008b2	08 00 00 00	 DD	 8
  008b6	00 00 00 00	 DD	 $L86724
$L86724:
  008ba	70		 DB	 112			; 00000070H
  008bb	74		 DB	 116			; 00000074H
  008bc	43		 DB	 67			; 00000043H
  008bd	75		 DB	 117			; 00000075H
  008be	72		 DB	 114			; 00000072H
  008bf	73		 DB	 115			; 00000073H
  008c0	6f		 DB	 111			; 0000006fH
  008c1	72		 DB	 114			; 00000072H
  008c2	00		 DB	 0
$L86723:
  008c3	72		 DB	 114			; 00000072H
  008c4	63		 DB	 99			; 00000063H
  008c5	43		 DB	 67			; 00000043H
  008c6	6c		 DB	 108			; 0000006cH
  008c7	69		 DB	 105			; 00000069H
  008c8	65		 DB	 101			; 00000065H
  008c9	6e		 DB	 110			; 0000006eH
  008ca	74		 DB	 116			; 00000074H
  008cb	4f		 DB	 79			; 0000004fH
  008cc	6c		 DB	 108			; 0000006cH
  008cd	64		 DB	 100			; 00000064H
  008ce	00		 DB	 0
$L86727:
  008cf	00 00 00 00	 DD	 $L85851
  008d3	00 00 00 00	 DD	 $L85840
  008d7	00 00 00 00	 DD	 $L85917
  008db	00 00 00 00	 DD	 $L85843
  008df	00 00 00 00	 DD	 $L85863
  008e3	00 00 00 00	 DD	 $L85847
  008e7	00 00 00 00	 DD	 $L85872
  008eb	00 00 00 00	 DD	 $L85881
  008ef	00 00 00 00	 DD	 $L85837
$L86722:
  008f3	00		 DB	 0
  008f4	08		 DB	 8
  008f5	08		 DB	 8
  008f6	08		 DB	 8
  008f7	08		 DB	 8
  008f8	08		 DB	 8
  008f9	08		 DB	 8
  008fa	08		 DB	 8
  008fb	08		 DB	 8
  008fc	08		 DB	 8
  008fd	01		 DB	 1
  008fe	02		 DB	 2
  008ff	08		 DB	 8
  00900	08		 DB	 8
  00901	08		 DB	 8
  00902	08		 DB	 8
  00903	08		 DB	 8
  00904	08		 DB	 8
  00905	08		 DB	 8
  00906	08		 DB	 8
  00907	08		 DB	 8
  00908	08		 DB	 8
  00909	08		 DB	 8
  0090a	03		 DB	 3
  0090b	08		 DB	 8
  0090c	08		 DB	 8
  0090d	08		 DB	 8
  0090e	04		 DB	 4
  0090f	08		 DB	 8
  00910	08		 DB	 8
  00911	08		 DB	 8
  00912	05		 DB	 5
  00913	08		 DB	 8
  00914	08		 DB	 8
  00915	08		 DB	 8
  00916	08		 DB	 8
  00917	08		 DB	 8
  00918	08		 DB	 8
  00919	08		 DB	 8
  0091a	08		 DB	 8
  0091b	08		 DB	 8
  0091c	08		 DB	 8
  0091d	08		 DB	 8
  0091e	08		 DB	 8
  0091f	08		 DB	 8
  00920	08		 DB	 8
  00921	08		 DB	 8
  00922	08		 DB	 8
  00923	08		 DB	 8
  00924	08		 DB	 8
  00925	08		 DB	 8
  00926	08		 DB	 8
  00927	08		 DB	 8
  00928	08		 DB	 8
  00929	08		 DB	 8
  0092a	08		 DB	 8
  0092b	08		 DB	 8
  0092c	08		 DB	 8
  0092d	08		 DB	 8
  0092e	08		 DB	 8
  0092f	08		 DB	 8
  00930	08		 DB	 8
  00931	08		 DB	 8
  00932	08		 DB	 8
  00933	08		 DB	 8
  00934	08		 DB	 8
  00935	08		 DB	 8
  00936	08		 DB	 8
  00937	08		 DB	 8
  00938	08		 DB	 8
  00939	08		 DB	 8
  0093a	08		 DB	 8
  0093b	08		 DB	 8
  0093c	08		 DB	 8
  0093d	08		 DB	 8
  0093e	08		 DB	 8
  0093f	08		 DB	 8
  00940	08		 DB	 8
  00941	08		 DB	 8
  00942	08		 DB	 8
  00943	08		 DB	 8
  00944	08		 DB	 8
  00945	08		 DB	 8
  00946	08		 DB	 8
  00947	08		 DB	 8
  00948	08		 DB	 8
  00949	08		 DB	 8
  0094a	08		 DB	 8
  0094b	08		 DB	 8
  0094c	08		 DB	 8
  0094d	08		 DB	 8
  0094e	08		 DB	 8
  0094f	08		 DB	 8
  00950	08		 DB	 8
  00951	08		 DB	 8
  00952	08		 DB	 8
  00953	08		 DB	 8
  00954	08		 DB	 8
  00955	08		 DB	 8
  00956	08		 DB	 8
  00957	08		 DB	 8
  00958	08		 DB	 8
  00959	08		 DB	 8
  0095a	08		 DB	 8
  0095b	08		 DB	 8
  0095c	08		 DB	 8
  0095d	08		 DB	 8
  0095e	08		 DB	 8
  0095f	08		 DB	 8
  00960	08		 DB	 8
  00961	08		 DB	 8
  00962	08		 DB	 8
  00963	08		 DB	 8
  00964	08		 DB	 8
  00965	08		 DB	 8
  00966	08		 DB	 8
  00967	08		 DB	 8
  00968	08		 DB	 8
  00969	06		 DB	 6
  0096a	08		 DB	 8
  0096b	08		 DB	 8
  0096c	08		 DB	 8
  0096d	08		 DB	 8
  0096e	08		 DB	 8
  0096f	08		 DB	 8
  00970	08		 DB	 8
  00971	08		 DB	 8
  00972	07		 DB	 7
$L86728:
  00973	00 00 00 00	 DD	 $L85908
  00977	00 00 00 00	 DD	 $L85912
  0097b	00 00 00 00	 DD	 $L85904
  0097f	00 00 00 00	 DD	 $L85905
  00983	00 00 00 00	 DD	 $L85916
?MsgProc@CD3DApplication@@UAEJPAUHWND__@@IIJ@Z ENDP	; CD3DApplication::MsgProc
_TEXT	ENDS
PUBLIC	??_C@_02JLLOHNJH@SW?$AA@			; `string'
PUBLIC	??_C@_0O@INAAPCCB@?5?$CIpure?5hw?5vp?$CJ?$AA@	; `string'
PUBLIC	??_C@_0BI@KADHBMJM@?5?$CIsimulated?5pure?5hw?5vp?$CJ?$AA@ ; `string'
PUBLIC	??_C@_08IAMIAIBF@?5?$CIhw?5vp?$CJ?$AA@		; `string'
PUBLIC	??_C@_0BD@NNKCKNKM@?5?$CIsimulated?5hw?5vp?$CJ?$AA@ ; `string'
PUBLIC	??_C@_0M@NOOBLHBB@?5?$CImixed?5vp?$CJ?$AA@	; `string'
PUBLIC	??_C@_0BG@GKHJLCDJ@?5?$CIsimulated?5mixed?5vp?$CJ?$AA@ ; `string'
PUBLIC	??_C@_08OFBBMACB@?5?$CIsw?5vp?$CJ?$AA@		; `string'
PUBLIC	??_C@_02LMMGGCAJ@?3?5?$AA@			; `string'
EXTRN	__imp__lstrcpyA@8:NEAR
EXTRN	__imp__lstrcatA@8:NEAR
EXTRN	__imp__GetClassLongA@8:NEAR
EXTRN	__imp__SetWindowPos@28:NEAR
EXTRN	?D3DUtil_SetDeviceCursor@@YAJPAUIDirect3DDevice8@@PAUHICON__@@H@Z:NEAR ; D3DUtil_SetDeviceCursor
EXTRN	_memset:NEAR
;	COMDAT ??_C@_02JLLOHNJH@SW?$AA@
CONST	SEGMENT
??_C@_02JLLOHNJH@SW?$AA@ DB 'SW', 00H			; `string'
CONST	ENDS
;	COMDAT ??_C@_0O@INAAPCCB@?5?$CIpure?5hw?5vp?$CJ?$AA@
CONST	SEGMENT
??_C@_0O@INAAPCCB@?5?$CIpure?5hw?5vp?$CJ?$AA@ DB ' (pure hw vp)', 00H ; `string'
CONST	ENDS
;	COMDAT ??_C@_0BI@KADHBMJM@?5?$CIsimulated?5pure?5hw?5vp?$CJ?$AA@
CONST	SEGMENT
??_C@_0BI@KADHBMJM@?5?$CIsimulated?5pure?5hw?5vp?$CJ?$AA@ DB ' (simulated'
	DB	' pure hw vp)', 00H				; `string'
CONST	ENDS
;	COMDAT ??_C@_08IAMIAIBF@?5?$CIhw?5vp?$CJ?$AA@
CONST	SEGMENT
??_C@_08IAMIAIBF@?5?$CIhw?5vp?$CJ?$AA@ DB ' (hw vp)', 00H ; `string'
CONST	ENDS
;	COMDAT ??_C@_0BD@NNKCKNKM@?5?$CIsimulated?5hw?5vp?$CJ?$AA@
CONST	SEGMENT
??_C@_0BD@NNKCKNKM@?5?$CIsimulated?5hw?5vp?$CJ?$AA@ DB ' (simulated hw vp'
	DB	')', 00H					; `string'
CONST	ENDS
;	COMDAT ??_C@_0M@NOOBLHBB@?5?$CImixed?5vp?$CJ?$AA@
CONST	SEGMENT
??_C@_0M@NOOBLHBB@?5?$CImixed?5vp?$CJ?$AA@ DB ' (mixed vp)', 00H ; `string'
CONST	ENDS
;	COMDAT ??_C@_0BG@GKHJLCDJ@?5?$CIsimulated?5mixed?5vp?$CJ?$AA@
CONST	SEGMENT
??_C@_0BG@GKHJLCDJ@?5?$CIsimulated?5mixed?5vp?$CJ?$AA@ DB ' (simulated mi'
	DB	'xed vp)', 00H				; `string'
CONST	ENDS
;	COMDAT ??_C@_08OFBBMACB@?5?$CIsw?5vp?$CJ?$AA@
CONST	SEGMENT
??_C@_08OFBBMACB@?5?$CIsw?5vp?$CJ?$AA@ DB ' (sw vp)', 00H ; `string'
CONST	ENDS
;	COMDAT ??_C@_02LMMGGCAJ@?3?5?$AA@
CONST	SEGMENT
??_C@_02LMMGGCAJ@?3?5?$AA@ DB ': ', 00H			; `string'
; Function compile flags: /Odt /RTCsu /ZI
CONST	ENDS
;	COMDAT ?Initialize3DEnvironment@CD3DApplication@@IAEJXZ
_TEXT	SEGMENT
_i$85981 = -116
_rcWindow$85972 = -104
_hCursor$85968 = -80
_pBackBuffer$85966 = -68
_pModeInfo$ = -56
_pDeviceInfo$ = -44
_pAdapterInfo$ = -32
_hr$ = -20
_this$ = -8
?Initialize3DEnvironment@CD3DApplication@@IAEJXZ PROC NEAR ; CD3DApplication::Initialize3DEnvironment, COMDAT
; _this$ = ecx

; 879  : {

  00000	55		 push	 ebp
  00001	8b ec		 mov	 ebp, esp
  00003	81 ec 38 01 00
	00		 sub	 esp, 312		; 00000138H
  00009	53		 push	 ebx
  0000a	56		 push	 esi
  0000b	57		 push	 edi
  0000c	51		 push	 ecx
  0000d	8d bd c8 fe ff
	ff		 lea	 edi, DWORD PTR [ebp-312]
  00013	b9 4e 00 00 00	 mov	 ecx, 78			; 0000004eH
  00018	b8 cc cc cc cc	 mov	 eax, -858993460		; ccccccccH
  0001d	f3 ab		 rep stosd
  0001f	59		 pop	 ecx
  00020	89 4d f8	 mov	 DWORD PTR _this$[ebp], ecx

; 880  :     HRESULT hr;
; 881  : 
; 882  :     D3DAdapterInfo* pAdapterInfo = &m_Adapters[m_dwAdapter];

  00023	8b 45 f8	 mov	 eax, DWORD PTR _this$[ebp]
  00026	8b 88 48 a4 02
	00		 mov	 ecx, DWORD PTR [eax+173128]
  0002c	69 c9 a0 43 00
	00		 imul	 ecx, 17312		; 000043a0H
  00032	8b 55 f8	 mov	 edx, DWORD PTR _this$[ebp]
  00035	8d 44 0a 04	 lea	 eax, DWORD PTR [edx+ecx+4]
  00039	89 45 e0	 mov	 DWORD PTR _pAdapterInfo$[ebp], eax

; 883  :     D3DDeviceInfo*  pDeviceInfo  = &pAdapterInfo->devices[pAdapterInfo->dwCurrentDevice];

  0003c	8b 45 e0	 mov	 eax, DWORD PTR _pAdapterInfo$[ebp]
  0003f	8b 88 9c 43 00
	00		 mov	 ecx, DWORD PTR [eax+17308]
  00045	69 c9 ac 0c 00
	00		 imul	 ecx, 3244		; 00000cacH
  0004b	8b 55 e0	 mov	 edx, DWORD PTR _pAdapterInfo$[ebp]
  0004e	8d 84 0a 40 04
	00 00		 lea	 eax, DWORD PTR [edx+ecx+1088]
  00055	89 45 d4	 mov	 DWORD PTR _pDeviceInfo$[ebp], eax

; 884  :     D3DModeInfo*    pModeInfo    = &pDeviceInfo->modes[pDeviceInfo->dwCurrentMode];

  00058	8b 45 d4	 mov	 eax, DWORD PTR _pDeviceInfo$[ebp]
  0005b	8b 88 9c 0c 00
	00		 mov	 ecx, DWORD PTR [eax+3228]
  00061	6b c9 14	 imul	 ecx, 20			; 00000014H
  00064	8b 55 d4	 mov	 edx, DWORD PTR _pDeviceInfo$[ebp]
  00067	8d 84 0a e4 00
	00 00		 lea	 eax, DWORD PTR [edx+ecx+228]
  0006e	89 45 c8	 mov	 DWORD PTR _pModeInfo$[ebp], eax

; 885  : 
; 886  :     // Prepare window for possible windowed/fullscreen change
; 887  :     AdjustWindowForChange();

  00071	8b 45 f8	 mov	 eax, DWORD PTR _this$[ebp]
  00074	8b 10		 mov	 edx, DWORD PTR [eax]
  00076	8b f4		 mov	 esi, esp
  00078	8b 4d f8	 mov	 ecx, DWORD PTR _this$[ebp]
  0007b	ff 12		 call	 DWORD PTR [edx]
  0007d	3b f4		 cmp	 esi, esp
  0007f	e8 00 00 00 00	 call	 __RTC_CheckEsp

; 888  : 
; 889  :     // Set up the presentation parameters
; 890  :     ZeroMemory( &m_d3dpp, sizeof(m_d3dpp) );

  00084	6a 34		 push	 52			; 00000034H
  00086	6a 00		 push	 0
  00088	8b 45 f8	 mov	 eax, DWORD PTR _this$[ebp]
  0008b	05 64 a4 02 00	 add	 eax, 173156		; 0002a464H
  00090	50		 push	 eax
  00091	e8 00 00 00 00	 call	 _memset
  00096	83 c4 0c	 add	 esp, 12			; 0000000cH

; 891  :     m_d3dpp.Windowed               = pDeviceInfo->bWindowed;

  00099	8b 45 f8	 mov	 eax, DWORD PTR _this$[ebp]
  0009c	8b 4d d4	 mov	 ecx, DWORD PTR _pDeviceInfo$[ebp]
  0009f	8b 91 a0 0c 00
	00		 mov	 edx, DWORD PTR [ecx+3232]
  000a5	89 90 80 a4 02
	00		 mov	 DWORD PTR [eax+173184], edx

; 892  :     m_d3dpp.BackBufferCount        = 1;

  000ab	8b 45 f8	 mov	 eax, DWORD PTR _this$[ebp]
  000ae	c7 80 70 a4 02
	00 01 00 00 00	 mov	 DWORD PTR [eax+173168], 1

; 893  :     if( pDeviceInfo->bWindowed )

  000b8	8b 45 d4	 mov	 eax, DWORD PTR _pDeviceInfo$[ebp]
  000bb	83 b8 a0 0c 00
	00 00		 cmp	 DWORD PTR [eax+3232], 0
  000c2	74 14		 je	 SHORT $L85925

; 894  :         m_d3dpp.MultiSampleType    = pDeviceInfo->MultiSampleTypeWindowed;

  000c4	8b 45 f8	 mov	 eax, DWORD PTR _this$[ebp]
  000c7	8b 4d d4	 mov	 ecx, DWORD PTR _pDeviceInfo$[ebp]
  000ca	8b 91 a4 0c 00
	00		 mov	 edx, DWORD PTR [ecx+3236]
  000d0	89 90 74 a4 02
	00		 mov	 DWORD PTR [eax+173172], edx

; 895  :     else

  000d6	eb 12		 jmp	 SHORT $L85926
$L85925:

; 896  : 	{
; 897  :         m_d3dpp.MultiSampleType    = pDeviceInfo->MultiSampleTypeFullscreen;

  000d8	8b 45 f8	 mov	 eax, DWORD PTR _this$[ebp]
  000db	8b 4d d4	 mov	 ecx, DWORD PTR _pDeviceInfo$[ebp]
  000de	8b 91 a8 0c 00
	00		 mov	 edx, DWORD PTR [ecx+3240]
  000e4	89 90 74 a4 02
	00		 mov	 DWORD PTR [eax+173172], edx
$L85926:

; 898  : 	}
; 899  : 
; 900  : 	// DM
; 901  : 	if( m_nFSAA != 0 )

  000ea	8b 45 f8	 mov	 eax, DWORD PTR _this$[ebp]
  000ed	83 b8 a8 a6 02
	00 00		 cmp	 DWORD PTR [eax+173736], 0
  000f4	74 12		 je	 SHORT $L85927

; 902  : 		m_d3dpp.MultiSampleType	   = (D3DMULTISAMPLE_TYPE)m_nFSAA ;

  000f6	8b 45 f8	 mov	 eax, DWORD PTR _this$[ebp]
  000f9	8b 4d f8	 mov	 ecx, DWORD PTR _this$[ebp]
  000fc	8b 91 a8 a6 02
	00		 mov	 edx, DWORD PTR [ecx+173736]
  00102	89 90 74 a4 02
	00		 mov	 DWORD PTR [eax+173172], edx
$L85927:

; 903  : 
; 904  :     m_d3dpp.SwapEffect             = D3DSWAPEFFECT_DISCARD;

  00108	8b 45 f8	 mov	 eax, DWORD PTR _this$[ebp]
  0010b	c7 80 78 a4 02
	00 01 00 00 00	 mov	 DWORD PTR [eax+173176], 1

; 905  :     m_d3dpp.EnableAutoDepthStencil = m_bUseDepthBuffer;

  00115	8b 45 f8	 mov	 eax, DWORD PTR _this$[ebp]
  00118	8b 4d f8	 mov	 ecx, DWORD PTR _this$[ebp]
  0011b	8b 91 88 a6 02
	00		 mov	 edx, DWORD PTR [ecx+173704]
  00121	89 90 84 a4 02
	00		 mov	 DWORD PTR [eax+173188], edx

; 906  :     m_d3dpp.AutoDepthStencilFormat = pModeInfo->DepthStencilFormat;

  00127	8b 45 f8	 mov	 eax, DWORD PTR _this$[ebp]
  0012a	8b 4d c8	 mov	 ecx, DWORD PTR _pModeInfo$[ebp]
  0012d	8b 51 10	 mov	 edx, DWORD PTR [ecx+16]
  00130	89 90 88 a4 02
	00		 mov	 DWORD PTR [eax+173192], edx

; 907  :     m_d3dpp.hDeviceWindow          = m_hWnd;

  00136	8b 45 f8	 mov	 eax, DWORD PTR _this$[ebp]
  00139	8b 4d f8	 mov	 ecx, DWORD PTR _this$[ebp]
  0013c	8b 91 98 a4 02
	00		 mov	 edx, DWORD PTR [ecx+173208]
  00142	89 90 7c a4 02
	00		 mov	 DWORD PTR [eax+173180], edx

; 908  :     if( m_bWindowed )

  00148	8b 45 f8	 mov	 eax, DWORD PTR _this$[ebp]
  0014b	83 b8 4c a4 02
	00 00		 cmp	 DWORD PTR [eax+173132], 0
  00152	74 57		 je	 SHORT $L85929

; 909  :     {
; 910  :         m_d3dpp.BackBufferWidth  = m_rcWindowClient.right - m_rcWindowClient.left;

  00154	8b 45 f8	 mov	 eax, DWORD PTR _this$[ebp]
  00157	8b 4d f8	 mov	 ecx, DWORD PTR _this$[ebp]
  0015a	8b 90 c0 a5 02
	00		 mov	 edx, DWORD PTR [eax+173504]
  00160	2b 91 b8 a5 02
	00		 sub	 edx, DWORD PTR [ecx+173496]
  00166	8b 45 f8	 mov	 eax, DWORD PTR _this$[ebp]
  00169	89 90 64 a4 02
	00		 mov	 DWORD PTR [eax+173156], edx

; 911  :         m_d3dpp.BackBufferHeight = m_rcWindowClient.bottom - m_rcWindowClient.top;

  0016f	8b 45 f8	 mov	 eax, DWORD PTR _this$[ebp]
  00172	8b 4d f8	 mov	 ecx, DWORD PTR _this$[ebp]
  00175	8b 90 c4 a5 02
	00		 mov	 edx, DWORD PTR [eax+173508]
  0017b	2b 91 bc a5 02
	00		 sub	 edx, DWORD PTR [ecx+173500]
  00181	8b 45 f8	 mov	 eax, DWORD PTR _this$[ebp]
  00184	89 90 68 a4 02
	00		 mov	 DWORD PTR [eax+173160], edx

; 912  :         m_d3dpp.BackBufferFormat = pAdapterInfo->d3ddmDesktop.Format;

  0018a	8b 45 f8	 mov	 eax, DWORD PTR _this$[ebp]
  0018d	8b 4d e0	 mov	 ecx, DWORD PTR _pAdapterInfo$[ebp]
  00190	8b 91 38 04 00
	00		 mov	 edx, DWORD PTR [ecx+1080]
  00196	89 90 6c a4 02
	00		 mov	 DWORD PTR [eax+173164], edx

; 913  : 		m_d3dpp.FullScreen_PresentationInterval = D3DPRESENT_INTERVAL_DEFAULT ;

  0019c	8b 45 f8	 mov	 eax, DWORD PTR _this$[ebp]
  0019f	c7 80 94 a4 02
	00 00 00 00 00	 mov	 DWORD PTR [eax+173204], 0

; 914  :     }
; 915  :     else

  001a9	eb 54		 jmp	 SHORT $L85930
$L85929:

; 916  :     {
; 917  :         m_d3dpp.BackBufferWidth  = pModeInfo->Width;

  001ab	8b 45 f8	 mov	 eax, DWORD PTR _this$[ebp]
  001ae	8b 4d c8	 mov	 ecx, DWORD PTR _pModeInfo$[ebp]
  001b1	8b 11		 mov	 edx, DWORD PTR [ecx]
  001b3	89 90 64 a4 02
	00		 mov	 DWORD PTR [eax+173156], edx

; 918  :         m_d3dpp.BackBufferHeight = pModeInfo->Height;

  001b9	8b 45 f8	 mov	 eax, DWORD PTR _this$[ebp]
  001bc	8b 4d c8	 mov	 ecx, DWORD PTR _pModeInfo$[ebp]
  001bf	8b 51 04	 mov	 edx, DWORD PTR [ecx+4]
  001c2	89 90 68 a4 02
	00		 mov	 DWORD PTR [eax+173160], edx

; 919  :         m_d3dpp.BackBufferFormat = pModeInfo->Format;

  001c8	8b 45 f8	 mov	 eax, DWORD PTR _this$[ebp]
  001cb	8b 4d c8	 mov	 ecx, DWORD PTR _pModeInfo$[ebp]
  001ce	8b 51 08	 mov	 edx, DWORD PTR [ecx+8]
  001d1	89 90 6c a4 02
	00		 mov	 DWORD PTR [eax+173164], edx

; 920  : 		if( m_bVSync )

  001d7	8b 45 f8	 mov	 eax, DWORD PTR _this$[ebp]
  001da	83 b8 a4 a6 02
	00 00		 cmp	 DWORD PTR [eax+173732], 0
  001e1	74 0f		 je	 SHORT $L85931

; 921  : 			m_d3dpp.FullScreen_PresentationInterval = D3DPRESENT_INTERVAL_DEFAULT ;

  001e3	8b 45 f8	 mov	 eax, DWORD PTR _this$[ebp]
  001e6	c7 80 94 a4 02
	00 00 00 00 00	 mov	 DWORD PTR [eax+173204], 0

; 922  : 		else

  001f0	eb 0d		 jmp	 SHORT $L85930
$L85931:

; 923  : 			m_d3dpp.FullScreen_PresentationInterval = D3DPRESENT_INTERVAL_IMMEDIATE ;

  001f2	8b 45 f8	 mov	 eax, DWORD PTR _this$[ebp]
  001f5	c7 80 94 a4 02
	00 00 00 00 80	 mov	 DWORD PTR [eax+173204], -2147483648 ; 80000000H
$L85930:

; 924  :     }
; 925  : 
; 926  :     if( pDeviceInfo->d3dCaps.PrimitiveMiscCaps & D3DPMISCCAPS_NULLREFERENCE )

  001ff	8b 45 d4	 mov	 eax, DWORD PTR _pDeviceInfo$[ebp]
  00202	8b 48 24	 mov	 ecx, DWORD PTR [eax+36]
  00205	81 e1 00 10 00
	00		 and	 ecx, 4096		; 00001000H
  0020b	85 c9		 test	 ecx, ecx
  0020d	74 0f		 je	 SHORT $L85933

; 927  :     {
; 928  :         // Warn user about null ref device that can't render anything
; 929  :         DisplayErrorMsg( D3DAPPERR_NULLREFDEVICE, 0 );

  0020f	6a 00		 push	 0
  00211	68 0d 00 00 82	 push	 -2113929203		; 8200000dH
  00216	8b 4d f8	 mov	 ecx, DWORD PTR _this$[ebp]
  00219	e8 00 00 00 00	 call	 ?DisplayErrorMsg@CD3DApplication@@IAEJJK@Z ; CD3DApplication::DisplayErrorMsg
$L85933:

; 930  :     }
; 931  : 
; 932  :     // Create the device
; 933  :     hr = m_pD3D->CreateDevice( m_dwAdapter,
; 934  : 							   pDeviceInfo->DeviceType,
; 935  :                                m_hWndFocus,
; 936  : 							   pModeInfo->dwBehavior|D3DCREATE_MULTITHREADED,
; 937  : 							   &m_d3dpp,
; 938  :                                &m_pd3dDevice );

  0021e	8b 45 f8	 mov	 eax, DWORD PTR _this$[ebp]
  00221	05 a8 a4 02 00	 add	 eax, 173224		; 0002a4a8H
  00226	8b f4		 mov	 esi, esp
  00228	50		 push	 eax
  00229	8b 4d f8	 mov	 ecx, DWORD PTR _this$[ebp]
  0022c	81 c1 64 a4 02
	00		 add	 ecx, 173156		; 0002a464H
  00232	51		 push	 ecx
  00233	8b 55 c8	 mov	 edx, DWORD PTR _pModeInfo$[ebp]
  00236	8b 42 0c	 mov	 eax, DWORD PTR [edx+12]
  00239	83 c8 04	 or	 eax, 4
  0023c	50		 push	 eax
  0023d	8b 4d f8	 mov	 ecx, DWORD PTR _this$[ebp]
  00240	8b 91 9c a4 02
	00		 mov	 edx, DWORD PTR [ecx+173212]
  00246	52		 push	 edx
  00247	8b 45 d4	 mov	 eax, DWORD PTR _pDeviceInfo$[ebp]
  0024a	8b 08		 mov	 ecx, DWORD PTR [eax]
  0024c	51		 push	 ecx
  0024d	8b 55 f8	 mov	 edx, DWORD PTR _this$[ebp]
  00250	8b 82 48 a4 02
	00		 mov	 eax, DWORD PTR [edx+173128]
  00256	50		 push	 eax
  00257	8b 4d f8	 mov	 ecx, DWORD PTR _this$[ebp]
  0025a	8b 91 a4 a4 02
	00		 mov	 edx, DWORD PTR [ecx+173220]
  00260	8b 45 f8	 mov	 eax, DWORD PTR _this$[ebp]
  00263	8b 88 a4 a4 02
	00		 mov	 ecx, DWORD PTR [eax+173220]
  00269	8b 12		 mov	 edx, DWORD PTR [edx]
  0026b	51		 push	 ecx
  0026c	ff 52 3c	 call	 DWORD PTR [edx+60]
  0026f	3b f4		 cmp	 esi, esp
  00271	e8 00 00 00 00	 call	 __RTC_CheckEsp
  00276	89 45 ec	 mov	 DWORD PTR _hr$[ebp], eax

; 939  :     if( SUCCEEDED(hr) )

  00279	83 7d ec 00	 cmp	 DWORD PTR _hr$[ebp], 0
  0027d	0f 8c 67 04 00
	00		 jl	 $L85935

; 940  :     {
; 941  :         // When moving from fullscreen to windowed mode, it is important to
; 942  :         // adjust the window size after recreating the device rather than
; 943  :         // beforehand to ensure that you get the window size you want.  For
; 944  :         // example, when switching from 640x480 fullscreen to windowed with
; 945  :         // a 1000x600 window on a 1024x768 desktop, it is impossible to set
; 946  :         // the window size to 1000x600 until after the display mode has
; 947  :         // changed to 1024x768, because windows cannot be larger than the
; 948  :         // desktop.
; 949  :         if( m_bWindowed )

  00283	8b 45 f8	 mov	 eax, DWORD PTR _this$[ebp]
  00286	83 b8 4c a4 02
	00 00		 cmp	 DWORD PTR [eax+173132], 0
  0028d	74 57		 je	 SHORT $L85936

; 950  :         {
; 951  :             SetWindowPos( m_hWnd, HWND_NOTOPMOST,
; 952  :                           m_rcWindowBounds.left, m_rcWindowBounds.top,
; 953  :                           ( m_rcWindowBounds.right - m_rcWindowBounds.left ),
; 954  :                           ( m_rcWindowBounds.bottom - m_rcWindowBounds.top ),
; 955  :                           SWP_SHOWWINDOW );

  0028f	8b f4		 mov	 esi, esp
  00291	6a 40		 push	 64			; 00000040H
  00293	8b 45 f8	 mov	 eax, DWORD PTR _this$[ebp]
  00296	8b 4d f8	 mov	 ecx, DWORD PTR _this$[ebp]
  00299	8b 90 b4 a5 02
	00		 mov	 edx, DWORD PTR [eax+173492]
  0029f	2b 91 ac a5 02
	00		 sub	 edx, DWORD PTR [ecx+173484]
  002a5	52		 push	 edx
  002a6	8b 45 f8	 mov	 eax, DWORD PTR _this$[ebp]
  002a9	8b 4d f8	 mov	 ecx, DWORD PTR _this$[ebp]
  002ac	8b 90 b0 a5 02
	00		 mov	 edx, DWORD PTR [eax+173488]
  002b2	2b 91 a8 a5 02
	00		 sub	 edx, DWORD PTR [ecx+173480]
  002b8	52		 push	 edx
  002b9	8b 45 f8	 mov	 eax, DWORD PTR _this$[ebp]
  002bc	8b 88 ac a5 02
	00		 mov	 ecx, DWORD PTR [eax+173484]
  002c2	51		 push	 ecx
  002c3	8b 55 f8	 mov	 edx, DWORD PTR _this$[ebp]
  002c6	8b 82 a8 a5 02
	00		 mov	 eax, DWORD PTR [edx+173480]
  002cc	50		 push	 eax
  002cd	6a fe		 push	 -2			; fffffffeH
  002cf	8b 4d f8	 mov	 ecx, DWORD PTR _this$[ebp]
  002d2	8b 91 98 a4 02
	00		 mov	 edx, DWORD PTR [ecx+173208]
  002d8	52		 push	 edx
  002d9	ff 15 00 00 00
	00		 call	 DWORD PTR __imp__SetWindowPos@28
  002df	3b f4		 cmp	 esi, esp
  002e1	e8 00 00 00 00	 call	 __RTC_CheckEsp
$L85936:

; 956  :         }
; 957  : 
; 958  :         // Store device Caps
; 959  :         m_pd3dDevice->GetDeviceCaps( &m_d3dCaps );

  002e6	8b 45 f8	 mov	 eax, DWORD PTR _this$[ebp]
  002e9	05 ac a4 02 00	 add	 eax, 173228		; 0002a4acH
  002ee	8b f4		 mov	 esi, esp
  002f0	50		 push	 eax
  002f1	8b 4d f8	 mov	 ecx, DWORD PTR _this$[ebp]
  002f4	8b 91 a8 a4 02
	00		 mov	 edx, DWORD PTR [ecx+173224]
  002fa	8b 45 f8	 mov	 eax, DWORD PTR _this$[ebp]
  002fd	8b 88 a8 a4 02
	00		 mov	 ecx, DWORD PTR [eax+173224]
  00303	8b 12		 mov	 edx, DWORD PTR [edx]
  00305	51		 push	 ecx
  00306	ff 52 1c	 call	 DWORD PTR [edx+28]
  00309	3b f4		 cmp	 esi, esp
  0030b	e8 00 00 00 00	 call	 __RTC_CheckEsp

; 960  :         m_dwCreateFlags = pModeInfo->dwBehavior;

  00310	8b 45 f8	 mov	 eax, DWORD PTR _this$[ebp]
  00313	8b 4d c8	 mov	 ecx, DWORD PTR _pModeInfo$[ebp]
  00316	8b 51 0c	 mov	 edx, DWORD PTR [ecx+12]
  00319	89 90 a0 a5 02
	00		 mov	 DWORD PTR [eax+173472], edx

; 961  : 
; 962  :         // Store device description
; 963  :         if( pDeviceInfo->DeviceType == D3DDEVTYPE_REF )

  0031f	8b 45 d4	 mov	 eax, DWORD PTR _pDeviceInfo$[ebp]
  00322	83 38 02	 cmp	 DWORD PTR [eax], 2
  00325	75 1f		 jne	 SHORT $L85938

; 964  :             lstrcpy( m_strDeviceStats, TEXT("REF") );

  00327	8b f4		 mov	 esi, esp
  00329	68 00 00 00 00	 push	 OFFSET FLAT:??_C@_03GPMNEAGC@REF?$AA@
  0032e	8b 45 f8	 mov	 eax, DWORD PTR _this$[ebp]
  00331	05 d0 a5 02 00	 add	 eax, 173520		; 0002a5d0H
  00336	50		 push	 eax
  00337	ff 15 00 00 00
	00		 call	 DWORD PTR __imp__lstrcpyA@8
  0033d	3b f4		 cmp	 esi, esp
  0033f	e8 00 00 00 00	 call	 __RTC_CheckEsp

; 965  :         else if( pDeviceInfo->DeviceType == D3DDEVTYPE_HAL )

  00344	eb 4c		 jmp	 SHORT $L85939
$L85938:
  00346	8b 45 d4	 mov	 eax, DWORD PTR _pDeviceInfo$[ebp]
  00349	83 38 01	 cmp	 DWORD PTR [eax], 1
  0034c	75 1f		 jne	 SHORT $L85940

; 966  :             lstrcpy( m_strDeviceStats, TEXT("HAL") );

  0034e	8b f4		 mov	 esi, esp
  00350	68 00 00 00 00	 push	 OFFSET FLAT:??_C@_03KNIPLHMP@HAL?$AA@
  00355	8b 45 f8	 mov	 eax, DWORD PTR _this$[ebp]
  00358	05 d0 a5 02 00	 add	 eax, 173520		; 0002a5d0H
  0035d	50		 push	 eax
  0035e	ff 15 00 00 00
	00		 call	 DWORD PTR __imp__lstrcpyA@8
  00364	3b f4		 cmp	 esi, esp
  00366	e8 00 00 00 00	 call	 __RTC_CheckEsp

; 967  :         else if( pDeviceInfo->DeviceType == D3DDEVTYPE_SW )

  0036b	eb 25		 jmp	 SHORT $L85939
$L85940:
  0036d	8b 45 d4	 mov	 eax, DWORD PTR _pDeviceInfo$[ebp]
  00370	83 38 03	 cmp	 DWORD PTR [eax], 3
  00373	75 1d		 jne	 SHORT $L85939

; 968  :             lstrcpy( m_strDeviceStats, TEXT("SW") );

  00375	8b f4		 mov	 esi, esp
  00377	68 00 00 00 00	 push	 OFFSET FLAT:??_C@_02JLLOHNJH@SW?$AA@
  0037c	8b 45 f8	 mov	 eax, DWORD PTR _this$[ebp]
  0037f	05 d0 a5 02 00	 add	 eax, 173520		; 0002a5d0H
  00384	50		 push	 eax
  00385	ff 15 00 00 00
	00		 call	 DWORD PTR __imp__lstrcpyA@8
  0038b	3b f4		 cmp	 esi, esp
  0038d	e8 00 00 00 00	 call	 __RTC_CheckEsp
$L85939:

; 969  : 
; 970  :         if( pModeInfo->dwBehavior & D3DCREATE_HARDWARE_VERTEXPROCESSING &&
; 971  :             pModeInfo->dwBehavior & D3DCREATE_PUREDEVICE )

  00392	8b 45 c8	 mov	 eax, DWORD PTR _pModeInfo$[ebp]
  00395	8b 48 0c	 mov	 ecx, DWORD PTR [eax+12]
  00398	83 e1 40	 and	 ecx, 64			; 00000040H
  0039b	85 c9		 test	 ecx, ecx
  0039d	74 56		 je	 SHORT $L85944
  0039f	8b 45 c8	 mov	 eax, DWORD PTR _pModeInfo$[ebp]
  003a2	8b 48 0c	 mov	 ecx, DWORD PTR [eax+12]
  003a5	83 e1 10	 and	 ecx, 16			; 00000010H
  003a8	85 c9		 test	 ecx, ecx
  003aa	74 49		 je	 SHORT $L85944

; 972  :         {
; 973  :             if( pDeviceInfo->DeviceType == D3DDEVTYPE_HAL )

  003ac	8b 45 d4	 mov	 eax, DWORD PTR _pDeviceInfo$[ebp]
  003af	83 38 01	 cmp	 DWORD PTR [eax], 1
  003b2	75 1f		 jne	 SHORT $L85945

; 974  :                 lstrcat( m_strDeviceStats, TEXT(" (pure hw vp)") );

  003b4	8b f4		 mov	 esi, esp
  003b6	68 00 00 00 00	 push	 OFFSET FLAT:??_C@_0O@INAAPCCB@?5?$CIpure?5hw?5vp?$CJ?$AA@
  003bb	8b 45 f8	 mov	 eax, DWORD PTR _this$[ebp]
  003be	05 d0 a5 02 00	 add	 eax, 173520		; 0002a5d0H
  003c3	50		 push	 eax
  003c4	ff 15 00 00 00
	00		 call	 DWORD PTR __imp__lstrcatA@8
  003ca	3b f4		 cmp	 esi, esp
  003cc	e8 00 00 00 00	 call	 __RTC_CheckEsp

; 975  :             else

  003d1	eb 1d		 jmp	 SHORT $L85947
$L85945:

; 976  :                 lstrcat( m_strDeviceStats, TEXT(" (simulated pure hw vp)") );

  003d3	8b f4		 mov	 esi, esp
  003d5	68 00 00 00 00	 push	 OFFSET FLAT:??_C@_0BI@KADHBMJM@?5?$CIsimulated?5pure?5hw?5vp?$CJ?$AA@
  003da	8b 45 f8	 mov	 eax, DWORD PTR _this$[ebp]
  003dd	05 d0 a5 02 00	 add	 eax, 173520		; 0002a5d0H
  003e2	50		 push	 eax
  003e3	ff 15 00 00 00
	00		 call	 DWORD PTR __imp__lstrcatA@8
  003e9	3b f4		 cmp	 esi, esp
  003eb	e8 00 00 00 00	 call	 __RTC_CheckEsp
$L85947:

; 977  :         }
; 978  :         else if( pModeInfo->dwBehavior & D3DCREATE_HARDWARE_VERTEXPROCESSING )

  003f0	e9 d6 00 00 00	 jmp	 $L85949
$L85944:
  003f5	8b 45 c8	 mov	 eax, DWORD PTR _pModeInfo$[ebp]
  003f8	8b 48 0c	 mov	 ecx, DWORD PTR [eax+12]
  003fb	83 e1 40	 and	 ecx, 64			; 00000040H
  003fe	85 c9		 test	 ecx, ecx
  00400	74 49		 je	 SHORT $L85950

; 979  :         {
; 980  :             if( pDeviceInfo->DeviceType == D3DDEVTYPE_HAL )

  00402	8b 45 d4	 mov	 eax, DWORD PTR _pDeviceInfo$[ebp]
  00405	83 38 01	 cmp	 DWORD PTR [eax], 1
  00408	75 1f		 jne	 SHORT $L85951

; 981  :                 lstrcat( m_strDeviceStats, TEXT(" (hw vp)") );

  0040a	8b f4		 mov	 esi, esp
  0040c	68 00 00 00 00	 push	 OFFSET FLAT:??_C@_08IAMIAIBF@?5?$CIhw?5vp?$CJ?$AA@
  00411	8b 45 f8	 mov	 eax, DWORD PTR _this$[ebp]
  00414	05 d0 a5 02 00	 add	 eax, 173520		; 0002a5d0H
  00419	50		 push	 eax
  0041a	ff 15 00 00 00
	00		 call	 DWORD PTR __imp__lstrcatA@8
  00420	3b f4		 cmp	 esi, esp
  00422	e8 00 00 00 00	 call	 __RTC_CheckEsp

; 982  :             else

  00427	eb 1d		 jmp	 SHORT $L85953
$L85951:

; 983  :                 lstrcat( m_strDeviceStats, TEXT(" (simulated hw vp)") );

  00429	8b f4		 mov	 esi, esp
  0042b	68 00 00 00 00	 push	 OFFSET FLAT:??_C@_0BD@NNKCKNKM@?5?$CIsimulated?5hw?5vp?$CJ?$AA@
  00430	8b 45 f8	 mov	 eax, DWORD PTR _this$[ebp]
  00433	05 d0 a5 02 00	 add	 eax, 173520		; 0002a5d0H
  00438	50		 push	 eax
  00439	ff 15 00 00 00
	00		 call	 DWORD PTR __imp__lstrcatA@8
  0043f	3b f4		 cmp	 esi, esp
  00441	e8 00 00 00 00	 call	 __RTC_CheckEsp
$L85953:

; 984  :         }
; 985  :         else if( pModeInfo->dwBehavior & D3DCREATE_MIXED_VERTEXPROCESSING )

  00446	e9 80 00 00 00	 jmp	 $L85949
$L85950:
  0044b	8b 45 c8	 mov	 eax, DWORD PTR _pModeInfo$[ebp]
  0044e	8b 48 0c	 mov	 ecx, DWORD PTR [eax+12]
  00451	81 e1 80 00 00
	00		 and	 ecx, 128		; 00000080H
  00457	85 c9		 test	 ecx, ecx
  00459	74 46		 je	 SHORT $L85956

; 986  :         {
; 987  :             if( pDeviceInfo->DeviceType == D3DDEVTYPE_HAL )

  0045b	8b 45 d4	 mov	 eax, DWORD PTR _pDeviceInfo$[ebp]
  0045e	83 38 01	 cmp	 DWORD PTR [eax], 1
  00461	75 1f		 jne	 SHORT $L85957

; 988  :                 lstrcat( m_strDeviceStats, TEXT(" (mixed vp)") );

  00463	8b f4		 mov	 esi, esp
  00465	68 00 00 00 00	 push	 OFFSET FLAT:??_C@_0M@NOOBLHBB@?5?$CImixed?5vp?$CJ?$AA@
  0046a	8b 45 f8	 mov	 eax, DWORD PTR _this$[ebp]
  0046d	05 d0 a5 02 00	 add	 eax, 173520		; 0002a5d0H
  00472	50		 push	 eax
  00473	ff 15 00 00 00
	00		 call	 DWORD PTR __imp__lstrcatA@8
  00479	3b f4		 cmp	 esi, esp
  0047b	e8 00 00 00 00	 call	 __RTC_CheckEsp

; 989  :             else

  00480	eb 1d		 jmp	 SHORT $L85959
$L85957:

; 990  :                 lstrcat( m_strDeviceStats, TEXT(" (simulated mixed vp)") );

  00482	8b f4		 mov	 esi, esp
  00484	68 00 00 00 00	 push	 OFFSET FLAT:??_C@_0BG@GKHJLCDJ@?5?$CIsimulated?5mixed?5vp?$CJ?$AA@
  00489	8b 45 f8	 mov	 eax, DWORD PTR _this$[ebp]
  0048c	05 d0 a5 02 00	 add	 eax, 173520		; 0002a5d0H
  00491	50		 push	 eax
  00492	ff 15 00 00 00
	00		 call	 DWORD PTR __imp__lstrcatA@8
  00498	3b f4		 cmp	 esi, esp
  0049a	e8 00 00 00 00	 call	 __RTC_CheckEsp
$L85959:

; 991  :         }
; 992  :         else if( pModeInfo->dwBehavior & D3DCREATE_SOFTWARE_VERTEXPROCESSING )

  0049f	eb 2a		 jmp	 SHORT $L85949
$L85956:
  004a1	8b 45 c8	 mov	 eax, DWORD PTR _pModeInfo$[ebp]
  004a4	8b 48 0c	 mov	 ecx, DWORD PTR [eax+12]
  004a7	83 e1 20	 and	 ecx, 32			; 00000020H
  004aa	85 c9		 test	 ecx, ecx
  004ac	74 1d		 je	 SHORT $L85949

; 993  :         {
; 994  :             lstrcat( m_strDeviceStats, TEXT(" (sw vp)") );

  004ae	8b f4		 mov	 esi, esp
  004b0	68 00 00 00 00	 push	 OFFSET FLAT:??_C@_08OFBBMACB@?5?$CIsw?5vp?$CJ?$AA@
  004b5	8b 45 f8	 mov	 eax, DWORD PTR _this$[ebp]
  004b8	05 d0 a5 02 00	 add	 eax, 173520		; 0002a5d0H
  004bd	50		 push	 eax
  004be	ff 15 00 00 00
	00		 call	 DWORD PTR __imp__lstrcatA@8
  004c4	3b f4		 cmp	 esi, esp
  004c6	e8 00 00 00 00	 call	 __RTC_CheckEsp
$L85949:

; 995  :         }
; 996  : 
; 997  :         if( pDeviceInfo->DeviceType == D3DDEVTYPE_HAL )

  004cb	8b 45 d4	 mov	 eax, DWORD PTR _pDeviceInfo$[ebp]
  004ce	83 38 01	 cmp	 DWORD PTR [eax], 1
  004d1	75 3f		 jne	 SHORT $L85964

; 998  :         {
; 999  :             lstrcat( m_strDeviceStats, TEXT(": ") );

  004d3	8b f4		 mov	 esi, esp
  004d5	68 00 00 00 00	 push	 OFFSET FLAT:??_C@_02LMMGGCAJ@?3?5?$AA@
  004da	8b 45 f8	 mov	 eax, DWORD PTR _this$[ebp]
  004dd	05 d0 a5 02 00	 add	 eax, 173520		; 0002a5d0H
  004e2	50		 push	 eax
  004e3	ff 15 00 00 00
	00		 call	 DWORD PTR __imp__lstrcatA@8
  004e9	3b f4		 cmp	 esi, esp
  004eb	e8 00 00 00 00	 call	 __RTC_CheckEsp

; 1000 :             lstrcat( m_strDeviceStats, pAdapterInfo->d3dAdapterIdentifier.Description );

  004f0	8b 45 e0	 mov	 eax, DWORD PTR _pAdapterInfo$[ebp]
  004f3	05 00 02 00 00	 add	 eax, 512		; 00000200H
  004f8	8b f4		 mov	 esi, esp
  004fa	50		 push	 eax
  004fb	8b 4d f8	 mov	 ecx, DWORD PTR _this$[ebp]
  004fe	81 c1 d0 a5 02
	00		 add	 ecx, 173520		; 0002a5d0H
  00504	51		 push	 ecx
  00505	ff 15 00 00 00
	00		 call	 DWORD PTR __imp__lstrcatA@8
  0050b	3b f4		 cmp	 esi, esp
  0050d	e8 00 00 00 00	 call	 __RTC_CheckEsp
$L85964:

; 1001 :         }
; 1002 : 
; 1003 :         // Store render target surface desc
; 1004 :         LPDIRECT3DSURFACE8 pBackBuffer;
; 1005 :         m_pd3dDevice->GetBackBuffer( 0, D3DBACKBUFFER_TYPE_MONO, &pBackBuffer );

  00512	8b f4		 mov	 esi, esp
  00514	8d 45 bc	 lea	 eax, DWORD PTR _pBackBuffer$85966[ebp]
  00517	50		 push	 eax
  00518	6a 00		 push	 0
  0051a	6a 00		 push	 0
  0051c	8b 4d f8	 mov	 ecx, DWORD PTR _this$[ebp]
  0051f	8b 91 a8 a4 02
	00		 mov	 edx, DWORD PTR [ecx+173224]
  00525	8b 45 f8	 mov	 eax, DWORD PTR _this$[ebp]
  00528	8b 88 a8 a4 02
	00		 mov	 ecx, DWORD PTR [eax+173224]
  0052e	8b 12		 mov	 edx, DWORD PTR [edx]
  00530	51		 push	 ecx
  00531	ff 52 40	 call	 DWORD PTR [edx+64]
  00534	3b f4		 cmp	 esi, esp
  00536	e8 00 00 00 00	 call	 __RTC_CheckEsp

; 1006 :         pBackBuffer->GetDesc( &m_d3dsdBackBuffer );

  0053b	8b 45 f8	 mov	 eax, DWORD PTR _this$[ebp]
  0053e	05 80 a5 02 00	 add	 eax, 173440		; 0002a580H
  00543	8b f4		 mov	 esi, esp
  00545	50		 push	 eax
  00546	8b 4d bc	 mov	 ecx, DWORD PTR _pBackBuffer$85966[ebp]
  00549	8b 11		 mov	 edx, DWORD PTR [ecx]
  0054b	8b 45 bc	 mov	 eax, DWORD PTR _pBackBuffer$85966[ebp]
  0054e	50		 push	 eax
  0054f	ff 52 20	 call	 DWORD PTR [edx+32]
  00552	3b f4		 cmp	 esi, esp
  00554	e8 00 00 00 00	 call	 __RTC_CheckEsp

; 1007 :         pBackBuffer->Release();

  00559	8b 45 bc	 mov	 eax, DWORD PTR _pBackBuffer$85966[ebp]
  0055c	8b 08		 mov	 ecx, DWORD PTR [eax]
  0055e	8b f4		 mov	 esi, esp
  00560	8b 55 bc	 mov	 edx, DWORD PTR _pBackBuffer$85966[ebp]
  00563	52		 push	 edx
  00564	ff 51 08	 call	 DWORD PTR [ecx+8]
  00567	3b f4		 cmp	 esi, esp
  00569	e8 00 00 00 00	 call	 __RTC_CheckEsp

; 1008 : 
; 1009 :         // Set up the fullscreen cursor
; 1010 :         if( m_bShowCursorWhenFullscreen && !m_bWindowed )

  0056e	8b 45 f8	 mov	 eax, DWORD PTR _this$[ebp]
  00571	83 b8 9c a6 02
	00 00		 cmp	 DWORD PTR [eax+173724], 0
  00578	74 65		 je	 SHORT $L85967
  0057a	8b 45 f8	 mov	 eax, DWORD PTR _this$[ebp]
  0057d	83 b8 4c a4 02
	00 00		 cmp	 DWORD PTR [eax+173132], 0
  00584	75 59		 jne	 SHORT $L85967

; 1011 :         {
; 1012 :             HCURSOR hCursor;
; 1013 : #ifdef _WIN64
; 1014 :             hCursor = (HCURSOR)GetClassLongPtr( m_hWnd, GCLP_HCURSOR );
; 1015 : #else
; 1016 :             hCursor = (HCURSOR)GetClassLong( m_hWnd, GCL_HCURSOR );

  00586	8b f4		 mov	 esi, esp
  00588	6a f4		 push	 -12			; fffffff4H
  0058a	8b 45 f8	 mov	 eax, DWORD PTR _this$[ebp]
  0058d	8b 88 98 a4 02
	00		 mov	 ecx, DWORD PTR [eax+173208]
  00593	51		 push	 ecx
  00594	ff 15 00 00 00
	00		 call	 DWORD PTR __imp__GetClassLongA@8
  0059a	3b f4		 cmp	 esi, esp
  0059c	e8 00 00 00 00	 call	 __RTC_CheckEsp
  005a1	89 45 b0	 mov	 DWORD PTR _hCursor$85968[ebp], eax

; 1017 : #endif
; 1018 :             D3DUtil_SetDeviceCursor( m_pd3dDevice, hCursor, TRUE );

  005a4	6a 01		 push	 1
  005a6	8b 45 b0	 mov	 eax, DWORD PTR _hCursor$85968[ebp]
  005a9	50		 push	 eax
  005aa	8b 4d f8	 mov	 ecx, DWORD PTR _this$[ebp]
  005ad	8b 91 a8 a4 02
	00		 mov	 edx, DWORD PTR [ecx+173224]
  005b3	52		 push	 edx
  005b4	e8 00 00 00 00	 call	 ?D3DUtil_SetDeviceCursor@@YAJPAUIDirect3DDevice8@@PAUHICON__@@H@Z ; D3DUtil_SetDeviceCursor
  005b9	83 c4 0c	 add	 esp, 12			; 0000000cH

; 1019 :             m_pd3dDevice->ShowCursor( TRUE );

  005bc	8b f4		 mov	 esi, esp
  005be	6a 01		 push	 1
  005c0	8b 45 f8	 mov	 eax, DWORD PTR _this$[ebp]
  005c3	8b 88 a8 a4 02
	00		 mov	 ecx, DWORD PTR [eax+173224]
  005c9	8b 55 f8	 mov	 edx, DWORD PTR _this$[ebp]
  005cc	8b 82 a8 a4 02
	00		 mov	 eax, DWORD PTR [edx+173224]
  005d2	8b 09		 mov	 ecx, DWORD PTR [ecx]
  005d4	50		 push	 eax
  005d5	ff 51 30	 call	 DWORD PTR [ecx+48]
  005d8	3b f4		 cmp	 esi, esp
  005da	e8 00 00 00 00	 call	 __RTC_CheckEsp
$L85967:

; 1020 :         }
; 1021 : 
; 1022 :         // Confine cursor to fullscreen window
; 1023 :         if( m_bClipCursorWhenFullscreen )

  005df	8b 45 f8	 mov	 eax, DWORD PTR _this$[ebp]
  005e2	83 b8 a0 a6 02
	00 00		 cmp	 DWORD PTR [eax+173728], 0
  005e9	74 4f		 je	 SHORT $L85970

; 1024 :         {
; 1025 :             if (!m_bWindowed )

  005eb	8b 45 f8	 mov	 eax, DWORD PTR _this$[ebp]
  005ee	83 b8 4c a4 02
	00 00		 cmp	 DWORD PTR [eax+173132], 0
  005f5	75 32		 jne	 SHORT $L85971

; 1026 :             {
; 1027 :                 RECT rcWindow;
; 1028 :                 GetWindowRect( m_hWnd, &rcWindow );

  005f7	8b f4		 mov	 esi, esp
  005f9	8d 45 98	 lea	 eax, DWORD PTR _rcWindow$85972[ebp]
  005fc	50		 push	 eax
  005fd	8b 4d f8	 mov	 ecx, DWORD PTR _this$[ebp]
  00600	8b 91 98 a4 02
	00		 mov	 edx, DWORD PTR [ecx+173208]
  00606	52		 push	 edx
  00607	ff 15 00 00 00
	00		 call	 DWORD PTR __imp__GetWindowRect@8
  0060d	3b f4		 cmp	 esi, esp
  0060f	e8 00 00 00 00	 call	 __RTC_CheckEsp

; 1029 :                 ClipCursor( &rcWindow );

  00614	8b f4		 mov	 esi, esp
  00616	8d 45 98	 lea	 eax, DWORD PTR _rcWindow$85972[ebp]
  00619	50		 push	 eax
  0061a	ff 15 00 00 00
	00		 call	 DWORD PTR __imp__ClipCursor@4
  00620	3b f4		 cmp	 esi, esp
  00622	e8 00 00 00 00	 call	 __RTC_CheckEsp

; 1030 :             }
; 1031 :             else

  00627	eb 11		 jmp	 SHORT $L85970
$L85971:

; 1032 :             {
; 1033 :                 ClipCursor( NULL );

  00629	8b f4		 mov	 esi, esp
  0062b	6a 00		 push	 0
  0062d	ff 15 00 00 00
	00		 call	 DWORD PTR __imp__ClipCursor@4
  00633	3b f4		 cmp	 esi, esp
  00635	e8 00 00 00 00	 call	 __RTC_CheckEsp
$L85970:

; 1034 :             }
; 1035 :         }
; 1036 : 
; 1037 :         // Initialize the app's device-dependent objects
; 1038 :         hr = InitDeviceObjects();

  0063a	8b 45 f8	 mov	 eax, DWORD PTR _this$[ebp]
  0063d	8b 10		 mov	 edx, DWORD PTR [eax]
  0063f	8b f4		 mov	 esi, esp
  00641	8b 4d f8	 mov	 ecx, DWORD PTR _this$[ebp]
  00644	ff 52 0c	 call	 DWORD PTR [edx+12]
  00647	3b f4		 cmp	 esi, esp
  00649	e8 00 00 00 00	 call	 __RTC_CheckEsp
  0064e	89 45 ec	 mov	 DWORD PTR _hr$[ebp], eax

; 1039 :         if( SUCCEEDED(hr) )

  00651	83 7d ec 00	 cmp	 DWORD PTR _hr$[ebp], 0
  00655	7c 31		 jl	 SHORT $L85975

; 1040 :         {
; 1041 :             hr = RestoreDeviceObjects();

  00657	8b 45 f8	 mov	 eax, DWORD PTR _this$[ebp]
  0065a	8b 10		 mov	 edx, DWORD PTR [eax]
  0065c	8b f4		 mov	 esi, esp
  0065e	8b 4d f8	 mov	 ecx, DWORD PTR _this$[ebp]
  00661	ff 52 10	 call	 DWORD PTR [edx+16]
  00664	3b f4		 cmp	 esi, esp
  00666	e8 00 00 00 00	 call	 __RTC_CheckEsp
  0066b	89 45 ec	 mov	 DWORD PTR _hr$[ebp], eax

; 1042 :             if( SUCCEEDED(hr) )

  0066e	83 7d ec 00	 cmp	 DWORD PTR _hr$[ebp], 0
  00672	7c 14		 jl	 SHORT $L85975

; 1043 :             {
; 1044 :                 m_bActive = TRUE;

  00674	8b 45 f8	 mov	 eax, DWORD PTR _this$[ebp]
  00677	c7 80 50 a4 02
	00 01 00 00 00	 mov	 DWORD PTR [eax+173136], 1

; 1045 :                 return S_OK;

  00681	33 c0		 xor	 eax, eax
  00683	e9 a8 01 00 00	 jmp	 $L85920
$L85975:

; 1046 :             }
; 1047 :         }
; 1048 : 
; 1049 :         // Cleanup before we try again
; 1050 :         InvalidateDeviceObjects();

  00688	8b 45 f8	 mov	 eax, DWORD PTR _this$[ebp]
  0068b	8b 10		 mov	 edx, DWORD PTR [eax]
  0068d	8b f4		 mov	 esi, esp
  0068f	8b 4d f8	 mov	 ecx, DWORD PTR _this$[ebp]
  00692	ff 52 1c	 call	 DWORD PTR [edx+28]
  00695	3b f4		 cmp	 esi, esp
  00697	e8 00 00 00 00	 call	 __RTC_CheckEsp

; 1051 :         DeleteDeviceObjects();

  0069c	8b 45 f8	 mov	 eax, DWORD PTR _this$[ebp]
  0069f	8b 10		 mov	 edx, DWORD PTR [eax]
  006a1	8b f4		 mov	 esi, esp
  006a3	8b 4d f8	 mov	 ecx, DWORD PTR _this$[ebp]
  006a6	ff 52 20	 call	 DWORD PTR [edx+32]
  006a9	3b f4		 cmp	 esi, esp
  006ab	e8 00 00 00 00	 call	 __RTC_CheckEsp

; 1052 :         SAFE_RELEASE( m_pd3dDevice );

  006b0	8b 45 f8	 mov	 eax, DWORD PTR _this$[ebp]
  006b3	83 b8 a8 a4 02
	00 00		 cmp	 DWORD PTR [eax+173224], 0
  006ba	74 2e		 je	 SHORT $L85935
  006bc	8b 45 f8	 mov	 eax, DWORD PTR _this$[ebp]
  006bf	8b 88 a8 a4 02
	00		 mov	 ecx, DWORD PTR [eax+173224]
  006c5	8b 55 f8	 mov	 edx, DWORD PTR _this$[ebp]
  006c8	8b 82 a8 a4 02
	00		 mov	 eax, DWORD PTR [edx+173224]
  006ce	8b 09		 mov	 ecx, DWORD PTR [ecx]
  006d0	8b f4		 mov	 esi, esp
  006d2	50		 push	 eax
  006d3	ff 51 08	 call	 DWORD PTR [ecx+8]
  006d6	3b f4		 cmp	 esi, esp
  006d8	e8 00 00 00 00	 call	 __RTC_CheckEsp
  006dd	8b 45 f8	 mov	 eax, DWORD PTR _this$[ebp]
  006e0	c7 80 a8 a4 02
	00 00 00 00 00	 mov	 DWORD PTR [eax+173224], 0
$L85935:

; 1053 :     }
; 1054 : 
; 1055 :     // If that failed, fall back to the reference rasterizer
; 1056 :     if( pDeviceInfo->DeviceType == D3DDEVTYPE_HAL )

  006ea	8b 45 d4	 mov	 eax, DWORD PTR _pDeviceInfo$[ebp]
  006ed	83 38 01	 cmp	 DWORD PTR [eax], 1
  006f0	0f 85 37 01 00
	00		 jne	 $L85980

; 1057 :     {
; 1058 :         // Select the default adapter
; 1059 :         m_dwAdapter = 0L;

  006f6	8b 45 f8	 mov	 eax, DWORD PTR _this$[ebp]
  006f9	c7 80 48 a4 02
	00 00 00 00 00	 mov	 DWORD PTR [eax+173128], 0

; 1060 :         pAdapterInfo = &m_Adapters[m_dwAdapter];

  00703	8b 45 f8	 mov	 eax, DWORD PTR _this$[ebp]
  00706	8b 88 48 a4 02
	00		 mov	 ecx, DWORD PTR [eax+173128]
  0070c	69 c9 a0 43 00
	00		 imul	 ecx, 17312		; 000043a0H
  00712	8b 55 f8	 mov	 edx, DWORD PTR _this$[ebp]
  00715	8d 44 0a 04	 lea	 eax, DWORD PTR [edx+ecx+4]
  00719	89 45 e0	 mov	 DWORD PTR _pAdapterInfo$[ebp], eax

; 1061 : 
; 1062 :         // Look for a software device
; 1063 :         for( UINT i=0L; i<pAdapterInfo->dwNumDevices; i++ )

  0071c	c7 45 8c 00 00
	00 00		 mov	 DWORD PTR _i$85981[ebp], 0
  00723	eb 09		 jmp	 SHORT $L85982
$L85983:
  00725	8b 45 8c	 mov	 eax, DWORD PTR _i$85981[ebp]
  00728	83 c0 01	 add	 eax, 1
  0072b	89 45 8c	 mov	 DWORD PTR _i$85981[ebp], eax
$L85982:
  0072e	8b 45 e0	 mov	 eax, DWORD PTR _pAdapterInfo$[ebp]
  00731	8b 4d 8c	 mov	 ecx, DWORD PTR _i$85981[ebp]
  00734	3b 88 3c 04 00
	00		 cmp	 ecx, DWORD PTR [eax+1084]
  0073a	73 4e		 jae	 SHORT $L85984

; 1064 :         {
; 1065 :             if( pAdapterInfo->devices[i].DeviceType == D3DDEVTYPE_REF )

  0073c	8b 45 8c	 mov	 eax, DWORD PTR _i$85981[ebp]
  0073f	69 c0 ac 0c 00
	00		 imul	 eax, 3244		; 00000cacH
  00745	8b 4d e0	 mov	 ecx, DWORD PTR _pAdapterInfo$[ebp]
  00748	83 bc 01 40 04
	00 00 02	 cmp	 DWORD PTR [ecx+eax+1088], 2
  00750	75 36		 jne	 SHORT $L85985

; 1066 :             {
; 1067 :                 pAdapterInfo->dwCurrentDevice = i;

  00752	8b 45 e0	 mov	 eax, DWORD PTR _pAdapterInfo$[ebp]
  00755	8b 4d 8c	 mov	 ecx, DWORD PTR _i$85981[ebp]
  00758	89 88 9c 43 00
	00		 mov	 DWORD PTR [eax+17308], ecx

; 1068 :                 pDeviceInfo = &pAdapterInfo->devices[i];

  0075e	8b 45 8c	 mov	 eax, DWORD PTR _i$85981[ebp]
  00761	69 c0 ac 0c 00
	00		 imul	 eax, 3244		; 00000cacH
  00767	8b 4d e0	 mov	 ecx, DWORD PTR _pAdapterInfo$[ebp]
  0076a	8d 94 01 40 04
	00 00		 lea	 edx, DWORD PTR [ecx+eax+1088]
  00771	89 55 d4	 mov	 DWORD PTR _pDeviceInfo$[ebp], edx

; 1069 :                 m_bWindowed = pDeviceInfo->bWindowed;

  00774	8b 45 f8	 mov	 eax, DWORD PTR _this$[ebp]
  00777	8b 4d d4	 mov	 ecx, DWORD PTR _pDeviceInfo$[ebp]
  0077a	8b 91 a0 0c 00
	00		 mov	 edx, DWORD PTR [ecx+3232]
  00780	89 90 4c a4 02
	00		 mov	 DWORD PTR [eax+173132], edx

; 1070 :                 break;

  00786	eb 02		 jmp	 SHORT $L85984
$L85985:

; 1071 :             }
; 1072 :         }

  00788	eb 9b		 jmp	 SHORT $L85983
$L85984:

; 1073 : 
; 1074 :         // Try again, this time with the reference rasterizer
; 1075 :         if( pAdapterInfo->devices[pAdapterInfo->dwCurrentDevice].DeviceType ==
; 1076 :             D3DDEVTYPE_REF )

  0078a	8b 45 e0	 mov	 eax, DWORD PTR _pAdapterInfo$[ebp]
  0078d	8b 88 9c 43 00
	00		 mov	 ecx, DWORD PTR [eax+17308]
  00793	69 c9 ac 0c 00
	00		 imul	 ecx, 3244		; 00000cacH
  00799	8b 55 e0	 mov	 edx, DWORD PTR _pAdapterInfo$[ebp]
  0079c	83 bc 0a 40 04
	00 00 02	 cmp	 DWORD PTR [edx+ecx+1088], 2
  007a4	0f 85 83 00 00
	00		 jne	 $L85980

; 1077 :         {
; 1078 :             // Make sure main window isn't topmost, so error message is visible
; 1079 :             SetWindowPos( m_hWnd, HWND_NOTOPMOST,
; 1080 :                           m_rcWindowBounds.left, m_rcWindowBounds.top,
; 1081 :                           ( m_rcWindowBounds.right - m_rcWindowBounds.left ),
; 1082 :                           ( m_rcWindowBounds.bottom - m_rcWindowBounds.top ),
; 1083 :                           SWP_SHOWWINDOW );

  007aa	8b f4		 mov	 esi, esp
  007ac	6a 40		 push	 64			; 00000040H
  007ae	8b 45 f8	 mov	 eax, DWORD PTR _this$[ebp]
  007b1	8b 4d f8	 mov	 ecx, DWORD PTR _this$[ebp]
  007b4	8b 90 b4 a5 02
	00		 mov	 edx, DWORD PTR [eax+173492]
  007ba	2b 91 ac a5 02
	00		 sub	 edx, DWORD PTR [ecx+173484]
  007c0	52		 push	 edx
  007c1	8b 45 f8	 mov	 eax, DWORD PTR _this$[ebp]
  007c4	8b 4d f8	 mov	 ecx, DWORD PTR _this$[ebp]
  007c7	8b 90 b0 a5 02
	00		 mov	 edx, DWORD PTR [eax+173488]
  007cd	2b 91 a8 a5 02
	00		 sub	 edx, DWORD PTR [ecx+173480]
  007d3	52		 push	 edx
  007d4	8b 45 f8	 mov	 eax, DWORD PTR _this$[ebp]
  007d7	8b 88 ac a5 02
	00		 mov	 ecx, DWORD PTR [eax+173484]
  007dd	51		 push	 ecx
  007de	8b 55 f8	 mov	 edx, DWORD PTR _this$[ebp]
  007e1	8b 82 a8 a5 02
	00		 mov	 eax, DWORD PTR [edx+173480]
  007e7	50		 push	 eax
  007e8	6a fe		 push	 -2			; fffffffeH
  007ea	8b 4d f8	 mov	 ecx, DWORD PTR _this$[ebp]
  007ed	8b 91 98 a4 02
	00		 mov	 edx, DWORD PTR [ecx+173208]
  007f3	52		 push	 edx
  007f4	ff 15 00 00 00
	00		 call	 DWORD PTR __imp__SetWindowPos@28
  007fa	3b f4		 cmp	 esi, esp
  007fc	e8 00 00 00 00	 call	 __RTC_CheckEsp

; 1084 :             AdjustWindowForChange();

  00801	8b 45 f8	 mov	 eax, DWORD PTR _this$[ebp]
  00804	8b 10		 mov	 edx, DWORD PTR [eax]
  00806	8b f4		 mov	 esi, esp
  00808	8b 4d f8	 mov	 ecx, DWORD PTR _this$[ebp]
  0080b	ff 12		 call	 DWORD PTR [edx]
  0080d	3b f4		 cmp	 esi, esp
  0080f	e8 00 00 00 00	 call	 __RTC_CheckEsp

; 1085 : 
; 1086 :             // Let the user know we are switching from HAL to the reference rasterizer
; 1087 :             DisplayErrorMsg( hr, MSGWARN_SWITCHEDTOREF );

  00814	6a 02		 push	 2
  00816	8b 45 ec	 mov	 eax, DWORD PTR _hr$[ebp]
  00819	50		 push	 eax
  0081a	8b 4d f8	 mov	 ecx, DWORD PTR _this$[ebp]
  0081d	e8 00 00 00 00	 call	 ?DisplayErrorMsg@CD3DApplication@@IAEJJK@Z ; CD3DApplication::DisplayErrorMsg

; 1088 : 
; 1089 :             hr = Initialize3DEnvironment();

  00822	8b 4d f8	 mov	 ecx, DWORD PTR _this$[ebp]
  00825	e8 00 00 00 00	 call	 ?Initialize3DEnvironment@CD3DApplication@@IAEJXZ ; CD3DApplication::Initialize3DEnvironment
  0082a	89 45 ec	 mov	 DWORD PTR _hr$[ebp], eax
$L85980:

; 1090 :         }
; 1091 :     }
; 1092 : 
; 1093 :     return hr;

  0082d	8b 45 ec	 mov	 eax, DWORD PTR _hr$[ebp]
$L85920:

; 1094 : }

  00830	52		 push	 edx
  00831	8b cd		 mov	 ecx, ebp
  00833	50		 push	 eax
  00834	8d 15 00 00 00
	00		 lea	 edx, DWORD PTR $L86734
  0083a	e8 00 00 00 00	 call	 @_RTC_CheckStackVars@8
  0083f	58		 pop	 eax
  00840	5a		 pop	 edx
  00841	5f		 pop	 edi
  00842	5e		 pop	 esi
  00843	5b		 pop	 ebx
  00844	81 c4 38 01 00
	00		 add	 esp, 312		; 00000138H
  0084a	3b ec		 cmp	 ebp, esp
  0084c	e8 00 00 00 00	 call	 __RTC_CheckEsp
  00851	8b e5		 mov	 esp, ebp
  00853	5d		 pop	 ebp
  00854	c3		 ret	 0
$L86734:
  00855	02 00 00 00	 DD	 2
  00859	00 00 00 00	 DD	 $L86733
$L86733:
  0085d	bc ff ff ff	 DD	 -68			; ffffffbcH
  00861	04 00 00 00	 DD	 4
  00865	00 00 00 00	 DD	 $L86731
  00869	98 ff ff ff	 DD	 -104			; ffffff98H
  0086d	10 00 00 00	 DD	 16			; 00000010H
  00871	00 00 00 00	 DD	 $L86732
$L86732:
  00875	72		 DB	 114			; 00000072H
  00876	63		 DB	 99			; 00000063H
  00877	57		 DB	 87			; 00000057H
  00878	69		 DB	 105			; 00000069H
  00879	6e		 DB	 110			; 0000006eH
  0087a	64		 DB	 100			; 00000064H
  0087b	6f		 DB	 111			; 0000006fH
  0087c	77		 DB	 119			; 00000077H
  0087d	00		 DB	 0
$L86731:
  0087e	70		 DB	 112			; 00000070H
  0087f	42		 DB	 66			; 00000042H
  00880	61		 DB	 97			; 00000061H
  00881	63		 DB	 99			; 00000063H
  00882	6b		 DB	 107			; 0000006bH
  00883	42		 DB	 66			; 00000042H
  00884	75		 DB	 117			; 00000075H
  00885	66		 DB	 102			; 00000066H
  00886	66		 DB	 102			; 00000066H
  00887	65		 DB	 101			; 00000065H
  00888	72		 DB	 114			; 00000072H
  00889	00		 DB	 0
?Initialize3DEnvironment@CD3DApplication@@IAEJXZ ENDP	; CD3DApplication::Initialize3DEnvironment
; Function compile flags: /Odt /RTCsu /ZI
_TEXT	ENDS
;	COMDAT ?Resize3DEnvironment@CD3DApplication@@IAEJXZ
_TEXT	SEGMENT
_rcWindow$86002 = -68
_hCursor$85998 = -44
_pBackBuffer$ = -32
_hr$ = -20
_this$ = -8
?Resize3DEnvironment@CD3DApplication@@IAEJXZ PROC NEAR	; CD3DApplication::Resize3DEnvironment, COMDAT
; _this$ = ecx

; 1104 : {

  00000	55		 push	 ebp
  00001	8b ec		 mov	 ebp, esp
  00003	81 ec 08 01 00
	00		 sub	 esp, 264		; 00000108H
  00009	53		 push	 ebx
  0000a	56		 push	 esi
  0000b	57		 push	 edi
  0000c	51		 push	 ecx
  0000d	8d bd f8 fe ff
	ff		 lea	 edi, DWORD PTR [ebp-264]
  00013	b9 42 00 00 00	 mov	 ecx, 66			; 00000042H
  00018	b8 cc cc cc cc	 mov	 eax, -858993460		; ccccccccH
  0001d	f3 ab		 rep stosd
  0001f	59		 pop	 ecx
  00020	89 4d f8	 mov	 DWORD PTR _this$[ebp], ecx

; 1105 :     HRESULT hr;
; 1106 : 
; 1107 :     // Release all vidmem objects
; 1108 :     if( FAILED( hr = InvalidateDeviceObjects() ) )

  00023	8b 45 f8	 mov	 eax, DWORD PTR _this$[ebp]
  00026	8b 10		 mov	 edx, DWORD PTR [eax]
  00028	8b f4		 mov	 esi, esp
  0002a	8b 4d f8	 mov	 ecx, DWORD PTR _this$[ebp]
  0002d	ff 52 1c	 call	 DWORD PTR [edx+28]
  00030	3b f4		 cmp	 esi, esp
  00032	e8 00 00 00 00	 call	 __RTC_CheckEsp
  00037	89 45 ec	 mov	 DWORD PTR _hr$[ebp], eax
  0003a	83 7d ec 00	 cmp	 DWORD PTR _hr$[ebp], 0
  0003e	7d 08		 jge	 SHORT $L85993

; 1109 :         return hr;

  00040	8b 45 ec	 mov	 eax, DWORD PTR _hr$[ebp]
  00043	e9 b2 01 00 00	 jmp	 $L85990
$L85993:

; 1110 : 
; 1111 :     // Reset the device
; 1112 :     if( FAILED( hr = m_pd3dDevice->Reset( &m_d3dpp ) ) )

  00048	8b 45 f8	 mov	 eax, DWORD PTR _this$[ebp]
  0004b	05 64 a4 02 00	 add	 eax, 173156		; 0002a464H
  00050	8b f4		 mov	 esi, esp
  00052	50		 push	 eax
  00053	8b 4d f8	 mov	 ecx, DWORD PTR _this$[ebp]
  00056	8b 91 a8 a4 02
	00		 mov	 edx, DWORD PTR [ecx+173224]
  0005c	8b 45 f8	 mov	 eax, DWORD PTR _this$[ebp]
  0005f	8b 88 a8 a4 02
	00		 mov	 ecx, DWORD PTR [eax+173224]
  00065	8b 12		 mov	 edx, DWORD PTR [edx]
  00067	51		 push	 ecx
  00068	ff 52 38	 call	 DWORD PTR [edx+56]
  0006b	3b f4		 cmp	 esi, esp
  0006d	e8 00 00 00 00	 call	 __RTC_CheckEsp
  00072	89 45 ec	 mov	 DWORD PTR _hr$[ebp], eax
  00075	83 7d ec 00	 cmp	 DWORD PTR _hr$[ebp], 0
  00079	7d 08		 jge	 SHORT $L85995

; 1113 :         return hr;

  0007b	8b 45 ec	 mov	 eax, DWORD PTR _hr$[ebp]
  0007e	e9 77 01 00 00	 jmp	 $L85990
$L85995:

; 1114 : 
; 1115 :     // Store render target surface desc
; 1116 :     LPDIRECT3DSURFACE8 pBackBuffer;
; 1117 :     m_pd3dDevice->GetBackBuffer( 0, D3DBACKBUFFER_TYPE_MONO, &pBackBuffer );

  00083	8b f4		 mov	 esi, esp
  00085	8d 45 e0	 lea	 eax, DWORD PTR _pBackBuffer$[ebp]
  00088	50		 push	 eax
  00089	6a 00		 push	 0
  0008b	6a 00		 push	 0
  0008d	8b 4d f8	 mov	 ecx, DWORD PTR _this$[ebp]
  00090	8b 91 a8 a4 02
	00		 mov	 edx, DWORD PTR [ecx+173224]
  00096	8b 45 f8	 mov	 eax, DWORD PTR _this$[ebp]
  00099	8b 88 a8 a4 02
	00		 mov	 ecx, DWORD PTR [eax+173224]
  0009f	8b 12		 mov	 edx, DWORD PTR [edx]
  000a1	51		 push	 ecx
  000a2	ff 52 40	 call	 DWORD PTR [edx+64]
  000a5	3b f4		 cmp	 esi, esp
  000a7	e8 00 00 00 00	 call	 __RTC_CheckEsp

; 1118 :     pBackBuffer->GetDesc( &m_d3dsdBackBuffer );

  000ac	8b 45 f8	 mov	 eax, DWORD PTR _this$[ebp]
  000af	05 80 a5 02 00	 add	 eax, 173440		; 0002a580H
  000b4	8b f4		 mov	 esi, esp
  000b6	50		 push	 eax
  000b7	8b 4d e0	 mov	 ecx, DWORD PTR _pBackBuffer$[ebp]
  000ba	8b 11		 mov	 edx, DWORD PTR [ecx]
  000bc	8b 45 e0	 mov	 eax, DWORD PTR _pBackBuffer$[ebp]
  000bf	50		 push	 eax
  000c0	ff 52 20	 call	 DWORD PTR [edx+32]
  000c3	3b f4		 cmp	 esi, esp
  000c5	e8 00 00 00 00	 call	 __RTC_CheckEsp

; 1119 :     pBackBuffer->Release();

  000ca	8b 45 e0	 mov	 eax, DWORD PTR _pBackBuffer$[ebp]
  000cd	8b 08		 mov	 ecx, DWORD PTR [eax]
  000cf	8b f4		 mov	 esi, esp
  000d1	8b 55 e0	 mov	 edx, DWORD PTR _pBackBuffer$[ebp]
  000d4	52		 push	 edx
  000d5	ff 51 08	 call	 DWORD PTR [ecx+8]
  000d8	3b f4		 cmp	 esi, esp
  000da	e8 00 00 00 00	 call	 __RTC_CheckEsp

; 1120 : 
; 1121 :     // Set up the fullscreen cursor
; 1122 :     if( m_bShowCursorWhenFullscreen && !m_bWindowed )

  000df	8b 45 f8	 mov	 eax, DWORD PTR _this$[ebp]
  000e2	83 b8 9c a6 02
	00 00		 cmp	 DWORD PTR [eax+173724], 0
  000e9	74 65		 je	 SHORT $L85997
  000eb	8b 45 f8	 mov	 eax, DWORD PTR _this$[ebp]
  000ee	83 b8 4c a4 02
	00 00		 cmp	 DWORD PTR [eax+173132], 0
  000f5	75 59		 jne	 SHORT $L85997

; 1123 :     {
; 1124 :         HCURSOR hCursor;
; 1125 : #ifdef _WIN64
; 1126 :         hCursor = (HCURSOR)GetClassLongPtr( m_hWnd, GCLP_HCURSOR );
; 1127 : #else
; 1128 :         hCursor = (HCURSOR)GetClassLong( m_hWnd, GCL_HCURSOR );

  000f7	8b f4		 mov	 esi, esp
  000f9	6a f4		 push	 -12			; fffffff4H
  000fb	8b 45 f8	 mov	 eax, DWORD PTR _this$[ebp]
  000fe	8b 88 98 a4 02
	00		 mov	 ecx, DWORD PTR [eax+173208]
  00104	51		 push	 ecx
  00105	ff 15 00 00 00
	00		 call	 DWORD PTR __imp__GetClassLongA@8
  0010b	3b f4		 cmp	 esi, esp
  0010d	e8 00 00 00 00	 call	 __RTC_CheckEsp
  00112	89 45 d4	 mov	 DWORD PTR _hCursor$85998[ebp], eax

; 1129 : #endif
; 1130 :         D3DUtil_SetDeviceCursor( m_pd3dDevice, hCursor, TRUE );

  00115	6a 01		 push	 1
  00117	8b 45 d4	 mov	 eax, DWORD PTR _hCursor$85998[ebp]
  0011a	50		 push	 eax
  0011b	8b 4d f8	 mov	 ecx, DWORD PTR _this$[ebp]
  0011e	8b 91 a8 a4 02
	00		 mov	 edx, DWORD PTR [ecx+173224]
  00124	52		 push	 edx
  00125	e8 00 00 00 00	 call	 ?D3DUtil_SetDeviceCursor@@YAJPAUIDirect3DDevice8@@PAUHICON__@@H@Z ; D3DUtil_SetDeviceCursor
  0012a	83 c4 0c	 add	 esp, 12			; 0000000cH

; 1131 :         m_pd3dDevice->ShowCursor( TRUE );

  0012d	8b f4		 mov	 esi, esp
  0012f	6a 01		 push	 1
  00131	8b 45 f8	 mov	 eax, DWORD PTR _this$[ebp]
  00134	8b 88 a8 a4 02
	00		 mov	 ecx, DWORD PTR [eax+173224]
  0013a	8b 55 f8	 mov	 edx, DWORD PTR _this$[ebp]
  0013d	8b 82 a8 a4 02
	00		 mov	 eax, DWORD PTR [edx+173224]
  00143	8b 09		 mov	 ecx, DWORD PTR [ecx]
  00145	50		 push	 eax
  00146	ff 51 30	 call	 DWORD PTR [ecx+48]
  00149	3b f4		 cmp	 esi, esp
  0014b	e8 00 00 00 00	 call	 __RTC_CheckEsp
$L85997:

; 1132 :     }
; 1133 : 
; 1134 :     // Confine cursor to fullscreen window
; 1135 :     if( m_bClipCursorWhenFullscreen )

  00150	8b 45 f8	 mov	 eax, DWORD PTR _this$[ebp]
  00153	83 b8 a0 a6 02
	00 00		 cmp	 DWORD PTR [eax+173728], 0
  0015a	74 4f		 je	 SHORT $L86000

; 1136 :     {
; 1137 :         if (!m_bWindowed )

  0015c	8b 45 f8	 mov	 eax, DWORD PTR _this$[ebp]
  0015f	83 b8 4c a4 02
	00 00		 cmp	 DWORD PTR [eax+173132], 0
  00166	75 32		 jne	 SHORT $L86001

; 1138 :         {
; 1139 :             RECT rcWindow;
; 1140 :             GetWindowRect( m_hWnd, &rcWindow );

  00168	8b f4		 mov	 esi, esp
  0016a	8d 45 bc	 lea	 eax, DWORD PTR _rcWindow$86002[ebp]
  0016d	50		 push	 eax
  0016e	8b 4d f8	 mov	 ecx, DWORD PTR _this$[ebp]
  00171	8b 91 98 a4 02
	00		 mov	 edx, DWORD PTR [ecx+173208]
  00177	52		 push	 edx
  00178	ff 15 00 00 00
	00		 call	 DWORD PTR __imp__GetWindowRect@8
  0017e	3b f4		 cmp	 esi, esp
  00180	e8 00 00 00 00	 call	 __RTC_CheckEsp

; 1141 :             ClipCursor( &rcWindow );

  00185	8b f4		 mov	 esi, esp
  00187	8d 45 bc	 lea	 eax, DWORD PTR _rcWindow$86002[ebp]
  0018a	50		 push	 eax
  0018b	ff 15 00 00 00
	00		 call	 DWORD PTR __imp__ClipCursor@4
  00191	3b f4		 cmp	 esi, esp
  00193	e8 00 00 00 00	 call	 __RTC_CheckEsp

; 1142 :         }
; 1143 :         else

  00198	eb 11		 jmp	 SHORT $L86000
$L86001:

; 1144 :         {
; 1145 :             ClipCursor( NULL );

  0019a	8b f4		 mov	 esi, esp
  0019c	6a 00		 push	 0
  0019e	ff 15 00 00 00
	00		 call	 DWORD PTR __imp__ClipCursor@4
  001a4	3b f4		 cmp	 esi, esp
  001a6	e8 00 00 00 00	 call	 __RTC_CheckEsp
$L86000:

; 1146 :         }
; 1147 :     }
; 1148 : 
; 1149 :     // Initialize the app's device-dependent objects
; 1150 :     hr = RestoreDeviceObjects();

  001ab	8b 45 f8	 mov	 eax, DWORD PTR _this$[ebp]
  001ae	8b 10		 mov	 edx, DWORD PTR [eax]
  001b0	8b f4		 mov	 esi, esp
  001b2	8b 4d f8	 mov	 ecx, DWORD PTR _this$[ebp]
  001b5	ff 52 10	 call	 DWORD PTR [edx+16]
  001b8	3b f4		 cmp	 esi, esp
  001ba	e8 00 00 00 00	 call	 __RTC_CheckEsp
  001bf	89 45 ec	 mov	 DWORD PTR _hr$[ebp], eax

; 1151 :     if( FAILED(hr) )

  001c2	83 7d ec 00	 cmp	 DWORD PTR _hr$[ebp], 0
  001c6	7d 05		 jge	 SHORT $L86005

; 1152 :         return hr;

  001c8	8b 45 ec	 mov	 eax, DWORD PTR _hr$[ebp]
  001cb	eb 2d		 jmp	 SHORT $L85990
$L86005:

; 1153 : 
; 1154 :     // If the app is paused, trigger the rendering of the current frame
; 1155 :     if( FALSE == m_bFrameMoving )

  001cd	8b 45 f8	 mov	 eax, DWORD PTR _this$[ebp]
  001d0	83 b8 5c a4 02
	00 00		 cmp	 DWORD PTR [eax+173148], 0
  001d7	75 1f		 jne	 SHORT $L86006

; 1156 :     {
; 1157 :         m_bSingleStep = TRUE;

  001d9	8b 45 f8	 mov	 eax, DWORD PTR _this$[ebp]
  001dc	c7 80 60 a4 02
	00 01 00 00 00	 mov	 DWORD PTR [eax+173152], 1

; 1158 :         DXUtil_Timer( TIMER_START );

  001e6	6a 01		 push	 1
  001e8	e8 00 00 00 00	 call	 ?DXUtil_Timer@@YGMW4TIMER_COMMAND@@@Z ; DXUtil_Timer
  001ed	dd d8		 fstp	 ST(0)

; 1159 :         DXUtil_Timer( TIMER_STOP );

  001ef	6a 02		 push	 2
  001f1	e8 00 00 00 00	 call	 ?DXUtil_Timer@@YGMW4TIMER_COMMAND@@@Z ; DXUtil_Timer
  001f6	dd d8		 fstp	 ST(0)
$L86006:

; 1160 :     }
; 1161 : 
; 1162 :     return S_OK;

  001f8	33 c0		 xor	 eax, eax
$L85990:

; 1163 : }

  001fa	52		 push	 edx
  001fb	8b cd		 mov	 ecx, ebp
  001fd	50		 push	 eax
  001fe	8d 15 00 00 00
	00		 lea	 edx, DWORD PTR $L86740
  00204	e8 00 00 00 00	 call	 @_RTC_CheckStackVars@8
  00209	58		 pop	 eax
  0020a	5a		 pop	 edx
  0020b	5f		 pop	 edi
  0020c	5e		 pop	 esi
  0020d	5b		 pop	 ebx
  0020e	81 c4 08 01 00
	00		 add	 esp, 264		; 00000108H
  00214	3b ec		 cmp	 ebp, esp
  00216	e8 00 00 00 00	 call	 __RTC_CheckEsp
  0021b	8b e5		 mov	 esp, ebp
  0021d	5d		 pop	 ebp
  0021e	c3		 ret	 0
$L86740:
  0021f	02 00 00 00	 DD	 2
  00223	00 00 00 00	 DD	 $L86739
$L86739:
  00227	e0 ff ff ff	 DD	 -32			; ffffffe0H
  0022b	04 00 00 00	 DD	 4
  0022f	00 00 00 00	 DD	 $L86737
  00233	bc ff ff ff	 DD	 -68			; ffffffbcH
  00237	10 00 00 00	 DD	 16			; 00000010H
  0023b	00 00 00 00	 DD	 $L86738
$L86738:
  0023f	72		 DB	 114			; 00000072H
  00240	63		 DB	 99			; 00000063H
  00241	57		 DB	 87			; 00000057H
  00242	69		 DB	 105			; 00000069H
  00243	6e		 DB	 110			; 0000006eH
  00244	64		 DB	 100			; 00000064H
  00245	6f		 DB	 111			; 0000006fH
  00246	77		 DB	 119			; 00000077H
  00247	00		 DB	 0
$L86737:
  00248	70		 DB	 112			; 00000070H
  00249	42		 DB	 66			; 00000042H
  0024a	61		 DB	 97			; 00000061H
  0024b	63		 DB	 99			; 00000063H
  0024c	6b		 DB	 107			; 0000006bH
  0024d	42		 DB	 66			; 00000042H
  0024e	75		 DB	 117			; 00000075H
  0024f	66		 DB	 102			; 00000066H
  00250	66		 DB	 102			; 00000066H
  00251	65		 DB	 101			; 00000065H
  00252	72		 DB	 114			; 00000072H
  00253	00		 DB	 0
?Resize3DEnvironment@CD3DApplication@@IAEJXZ ENDP	; CD3DApplication::Resize3DEnvironment
_TEXT	ENDS
PUBLIC	?ForceWindowed@CD3DApplication@@IAEJXZ		; CD3DApplication::ForceWindowed
; Function compile flags: /Odt /RTCsu /ZI
;	COMDAT ?ToggleFullscreen@CD3DApplication@@IAEJXZ
_TEXT	SEGMENT
_m$86014 = -56
_pModeInfo$ = -44
_pDeviceInfo$ = -32
_pAdapterInfo$ = -20
_this$ = -8
?ToggleFullscreen@CD3DApplication@@IAEJXZ PROC NEAR	; CD3DApplication::ToggleFullscreen, COMDAT
; _this$ = ecx

; 1173 : {

  00000	55		 push	 ebp
  00001	8b ec		 mov	 ebp, esp
  00003	81 ec fc 00 00
	00		 sub	 esp, 252		; 000000fcH
  00009	53		 push	 ebx
  0000a	56		 push	 esi
  0000b	57		 push	 edi
  0000c	51		 push	 ecx
  0000d	8d bd 04 ff ff
	ff		 lea	 edi, DWORD PTR [ebp-252]
  00013	b9 3f 00 00 00	 mov	 ecx, 63			; 0000003fH
  00018	b8 cc cc cc cc	 mov	 eax, -858993460		; ccccccccH
  0001d	f3 ab		 rep stosd
  0001f	59		 pop	 ecx
  00020	89 4d f8	 mov	 DWORD PTR _this$[ebp], ecx

; 1174 :     // Get access to current adapter, device, and mode
; 1175 :     D3DAdapterInfo* pAdapterInfo = &m_Adapters[m_dwAdapter];

  00023	8b 45 f8	 mov	 eax, DWORD PTR _this$[ebp]
  00026	8b 88 48 a4 02
	00		 mov	 ecx, DWORD PTR [eax+173128]
  0002c	69 c9 a0 43 00
	00		 imul	 ecx, 17312		; 000043a0H
  00032	8b 55 f8	 mov	 edx, DWORD PTR _this$[ebp]
  00035	8d 44 0a 04	 lea	 eax, DWORD PTR [edx+ecx+4]
  00039	89 45 ec	 mov	 DWORD PTR _pAdapterInfo$[ebp], eax

; 1176 :     D3DDeviceInfo*  pDeviceInfo  = &pAdapterInfo->devices[pAdapterInfo->dwCurrentDevice];

  0003c	8b 45 ec	 mov	 eax, DWORD PTR _pAdapterInfo$[ebp]
  0003f	8b 88 9c 43 00
	00		 mov	 ecx, DWORD PTR [eax+17308]
  00045	69 c9 ac 0c 00
	00		 imul	 ecx, 3244		; 00000cacH
  0004b	8b 55 ec	 mov	 edx, DWORD PTR _pAdapterInfo$[ebp]
  0004e	8d 84 0a 40 04
	00 00		 lea	 eax, DWORD PTR [edx+ecx+1088]
  00055	89 45 e0	 mov	 DWORD PTR _pDeviceInfo$[ebp], eax

; 1177 : 	D3DModeInfo*    pModeInfo	 = &pDeviceInfo->modes[pDeviceInfo->dwCurrentMode];

  00058	8b 45 e0	 mov	 eax, DWORD PTR _pDeviceInfo$[ebp]
  0005b	8b 88 9c 0c 00
	00		 mov	 ecx, DWORD PTR [eax+3228]
  00061	6b c9 14	 imul	 ecx, 20			; 00000014H
  00064	8b 55 e0	 mov	 edx, DWORD PTR _pDeviceInfo$[ebp]
  00067	8d 84 0a e4 00
	00 00		 lea	 eax, DWORD PTR [edx+ecx+228]
  0006e	89 45 d4	 mov	 DWORD PTR _pModeInfo$[ebp], eax

; 1178 : 
; 1179 : 	// DM
; 1180 : 	for( DWORD m = 0 ; m < pDeviceInfo->dwNumModes ; m++ )

  00071	c7 45 c8 00 00
	00 00		 mov	 DWORD PTR _m$86014[ebp], 0
  00078	eb 09		 jmp	 SHORT $L86015
$L86016:
  0007a	8b 45 c8	 mov	 eax, DWORD PTR _m$86014[ebp]
  0007d	83 c0 01	 add	 eax, 1
  00080	89 45 c8	 mov	 DWORD PTR _m$86014[ebp], eax
$L86015:
  00083	8b 45 e0	 mov	 eax, DWORD PTR _pDeviceInfo$[ebp]
  00086	8b 4d c8	 mov	 ecx, DWORD PTR _m$86014[ebp]
  00089	3b 88 e0 00 00
	00		 cmp	 ecx, DWORD PTR [eax+224]
  0008f	73 76		 jae	 SHORT $L86017

; 1181 : 	{
; 1182 : 		if( pDeviceInfo->modes[m].Width == m_nFullScreenWidth &&
; 1183 : 			pDeviceInfo->modes[m].Height == m_nFullScreenHeight &&
; 1184 : 			(pDeviceInfo->modes[m].Format == D3DFMT_A8R8G8B8 || 
; 1185 : 			 pDeviceInfo->modes[m].Format == D3DFMT_X8R8G8B8) )

  00091	8b 45 c8	 mov	 eax, DWORD PTR _m$86014[ebp]
  00094	6b c0 14	 imul	 eax, 20			; 00000014H
  00097	8b 4d e0	 mov	 ecx, DWORD PTR _pDeviceInfo$[ebp]
  0009a	8b 55 f8	 mov	 edx, DWORD PTR _this$[ebp]
  0009d	8b 84 01 e4 00
	00 00		 mov	 eax, DWORD PTR [ecx+eax+228]
  000a4	3b 82 ac a6 02
	00		 cmp	 eax, DWORD PTR [edx+173740]
  000aa	75 56		 jne	 SHORT $L86018
  000ac	8b 45 c8	 mov	 eax, DWORD PTR _m$86014[ebp]
  000af	6b c0 14	 imul	 eax, 20			; 00000014H
  000b2	8b 4d e0	 mov	 ecx, DWORD PTR _pDeviceInfo$[ebp]
  000b5	8b 55 f8	 mov	 edx, DWORD PTR _this$[ebp]
  000b8	8b 84 01 e8 00
	00 00		 mov	 eax, DWORD PTR [ecx+eax+232]
  000bf	3b 82 b0 a6 02
	00		 cmp	 eax, DWORD PTR [edx+173744]
  000c5	75 3b		 jne	 SHORT $L86018
  000c7	8b 45 c8	 mov	 eax, DWORD PTR _m$86014[ebp]
  000ca	6b c0 14	 imul	 eax, 20			; 00000014H
  000cd	8b 4d e0	 mov	 ecx, DWORD PTR _pDeviceInfo$[ebp]
  000d0	83 bc 01 ec 00
	00 00 15	 cmp	 DWORD PTR [ecx+eax+236], 21 ; 00000015H
  000d8	74 13		 je	 SHORT $L86019
  000da	8b 45 c8	 mov	 eax, DWORD PTR _m$86014[ebp]
  000dd	6b c0 14	 imul	 eax, 20			; 00000014H
  000e0	8b 4d e0	 mov	 ecx, DWORD PTR _pDeviceInfo$[ebp]
  000e3	83 bc 01 ec 00
	00 00 16	 cmp	 DWORD PTR [ecx+eax+236], 22 ; 00000016H
  000eb	75 15		 jne	 SHORT $L86018
$L86019:

; 1186 : 		{
; 1187 : 	        pModeInfo = &pDeviceInfo->modes[m];

  000ed	8b 45 c8	 mov	 eax, DWORD PTR _m$86014[ebp]
  000f0	6b c0 14	 imul	 eax, 20			; 00000014H
  000f3	8b 4d e0	 mov	 ecx, DWORD PTR _pDeviceInfo$[ebp]
  000f6	8d 94 01 e4 00
	00 00		 lea	 edx, DWORD PTR [ecx+eax+228]
  000fd	89 55 d4	 mov	 DWORD PTR _pModeInfo$[ebp], edx

; 1188 : 			break ;

  00100	eb 05		 jmp	 SHORT $L86017
$L86018:

; 1189 : 		}
; 1190 : 	}

  00102	e9 73 ff ff ff	 jmp	 $L86016
$L86017:

; 1191 : 
; 1192 :     // Need device change if going windowed and the current device
; 1193 :     // can only be fullscreen
; 1194 :     if( !m_bWindowed && !pDeviceInfo->bCanDoWindowed )

  00107	8b 45 f8	 mov	 eax, DWORD PTR _this$[ebp]
  0010a	83 b8 4c a4 02
	00 00		 cmp	 DWORD PTR [eax+173132], 0
  00111	75 19		 jne	 SHORT $L86020
  00113	8b 45 e0	 mov	 eax, DWORD PTR _pDeviceInfo$[ebp]
  00116	83 b8 dc 00 00
	00 00		 cmp	 DWORD PTR [eax+220], 0
  0011d	75 0d		 jne	 SHORT $L86020

; 1195 :         return ForceWindowed();

  0011f	8b 4d f8	 mov	 ecx, DWORD PTR _this$[ebp]
  00122	e8 00 00 00 00	 call	 ?ForceWindowed@CD3DApplication@@IAEJXZ ; CD3DApplication::ForceWindowed
  00127	e9 12 02 00 00	 jmp	 $L86010
$L86020:

; 1196 : 
; 1197 :     m_bReady = FALSE;

  0012c	8b 45 f8	 mov	 eax, DWORD PTR _this$[ebp]
  0012f	c7 80 54 a4 02
	00 00 00 00 00	 mov	 DWORD PTR [eax+173140], 0

; 1198 : 
; 1199 :     // Toggle the windowed state
; 1200 :     m_bWindowed = !m_bWindowed;

  00139	8b 45 f8	 mov	 eax, DWORD PTR _this$[ebp]
  0013c	33 c9		 xor	 ecx, ecx
  0013e	83 b8 4c a4 02
	00 00		 cmp	 DWORD PTR [eax+173132], 0
  00145	0f 94 c1	 sete	 cl
  00148	8b 55 f8	 mov	 edx, DWORD PTR _this$[ebp]
  0014b	89 8a 4c a4 02
	00		 mov	 DWORD PTR [edx+173132], ecx

; 1201 :     pDeviceInfo->bWindowed = m_bWindowed;

  00151	8b 45 e0	 mov	 eax, DWORD PTR _pDeviceInfo$[ebp]
  00154	8b 4d f8	 mov	 ecx, DWORD PTR _this$[ebp]
  00157	8b 91 4c a4 02
	00		 mov	 edx, DWORD PTR [ecx+173132]
  0015d	89 90 a0 0c 00
	00		 mov	 DWORD PTR [eax+3232], edx

; 1202 : 
; 1203 :     // Prepare window for windowed/fullscreen change
; 1204 :     AdjustWindowForChange();

  00163	8b 45 f8	 mov	 eax, DWORD PTR _this$[ebp]
  00166	8b 10		 mov	 edx, DWORD PTR [eax]
  00168	8b f4		 mov	 esi, esp
  0016a	8b 4d f8	 mov	 ecx, DWORD PTR _this$[ebp]
  0016d	ff 12		 call	 DWORD PTR [edx]
  0016f	3b f4		 cmp	 esi, esp
  00171	e8 00 00 00 00	 call	 __RTC_CheckEsp

; 1205 : 
; 1206 :     // Set up the presentation parameters
; 1207 :     m_d3dpp.Windowed               = pDeviceInfo->bWindowed;

  00176	8b 45 f8	 mov	 eax, DWORD PTR _this$[ebp]
  00179	8b 4d e0	 mov	 ecx, DWORD PTR _pDeviceInfo$[ebp]
  0017c	8b 91 a0 0c 00
	00		 mov	 edx, DWORD PTR [ecx+3232]
  00182	89 90 80 a4 02
	00		 mov	 DWORD PTR [eax+173184], edx

; 1208 :     if( m_bWindowed )

  00188	8b 45 f8	 mov	 eax, DWORD PTR _this$[ebp]
  0018b	83 b8 4c a4 02
	00 00		 cmp	 DWORD PTR [eax+173132], 0
  00192	74 14		 je	 SHORT $L86021

; 1209 :         m_d3dpp.MultiSampleType    = pDeviceInfo->MultiSampleTypeWindowed;

  00194	8b 45 f8	 mov	 eax, DWORD PTR _this$[ebp]
  00197	8b 4d e0	 mov	 ecx, DWORD PTR _pDeviceInfo$[ebp]
  0019a	8b 91 a4 0c 00
	00		 mov	 edx, DWORD PTR [ecx+3236]
  001a0	89 90 74 a4 02
	00		 mov	 DWORD PTR [eax+173172], edx

; 1210 :     else

  001a6	eb 12		 jmp	 SHORT $L86022
$L86021:

; 1211 :         m_d3dpp.MultiSampleType    = pDeviceInfo->MultiSampleTypeFullscreen;

  001a8	8b 45 f8	 mov	 eax, DWORD PTR _this$[ebp]
  001ab	8b 4d e0	 mov	 ecx, DWORD PTR _pDeviceInfo$[ebp]
  001ae	8b 91 a8 0c 00
	00		 mov	 edx, DWORD PTR [ecx+3240]
  001b4	89 90 74 a4 02
	00		 mov	 DWORD PTR [eax+173172], edx
$L86022:

; 1212 : 
; 1213 : 	// DM
; 1214 : 	if( m_nFSAA != 0 )

  001ba	8b 45 f8	 mov	 eax, DWORD PTR _this$[ebp]
  001bd	83 b8 a8 a6 02
	00 00		 cmp	 DWORD PTR [eax+173736], 0
  001c4	74 12		 je	 SHORT $L86023

; 1215 : 		m_d3dpp.MultiSampleType	   = (D3DMULTISAMPLE_TYPE)m_nFSAA ;

  001c6	8b 45 f8	 mov	 eax, DWORD PTR _this$[ebp]
  001c9	8b 4d f8	 mov	 ecx, DWORD PTR _this$[ebp]
  001cc	8b 91 a8 a6 02
	00		 mov	 edx, DWORD PTR [ecx+173736]
  001d2	89 90 74 a4 02
	00		 mov	 DWORD PTR [eax+173172], edx
$L86023:

; 1216 : 
; 1217 :     m_d3dpp.AutoDepthStencilFormat = pModeInfo->DepthStencilFormat;

  001d8	8b 45 f8	 mov	 eax, DWORD PTR _this$[ebp]
  001db	8b 4d d4	 mov	 ecx, DWORD PTR _pModeInfo$[ebp]
  001de	8b 51 10	 mov	 edx, DWORD PTR [ecx+16]
  001e1	89 90 88 a4 02
	00		 mov	 DWORD PTR [eax+173192], edx

; 1218 :     m_d3dpp.hDeviceWindow          = m_hWnd;

  001e7	8b 45 f8	 mov	 eax, DWORD PTR _this$[ebp]
  001ea	8b 4d f8	 mov	 ecx, DWORD PTR _this$[ebp]
  001ed	8b 91 98 a4 02
	00		 mov	 edx, DWORD PTR [ecx+173208]
  001f3	89 90 7c a4 02
	00		 mov	 DWORD PTR [eax+173180], edx

; 1219 :     if( m_bWindowed )

  001f9	8b 45 f8	 mov	 eax, DWORD PTR _this$[ebp]
  001fc	83 b8 4c a4 02
	00 00		 cmp	 DWORD PTR [eax+173132], 0
  00203	74 4a		 je	 SHORT $L86025

; 1220 :     {
; 1221 :         m_d3dpp.BackBufferWidth  = m_rcWindowClient.right - m_rcWindowClient.left;

  00205	8b 45 f8	 mov	 eax, DWORD PTR _this$[ebp]
  00208	8b 4d f8	 mov	 ecx, DWORD PTR _this$[ebp]
  0020b	8b 90 c0 a5 02
	00		 mov	 edx, DWORD PTR [eax+173504]
  00211	2b 91 b8 a5 02
	00		 sub	 edx, DWORD PTR [ecx+173496]
  00217	8b 45 f8	 mov	 eax, DWORD PTR _this$[ebp]
  0021a	89 90 64 a4 02
	00		 mov	 DWORD PTR [eax+173156], edx

; 1222 :         m_d3dpp.BackBufferHeight = m_rcWindowClient.bottom - m_rcWindowClient.top;

  00220	8b 45 f8	 mov	 eax, DWORD PTR _this$[ebp]
  00223	8b 4d f8	 mov	 ecx, DWORD PTR _this$[ebp]
  00226	8b 90 c4 a5 02
	00		 mov	 edx, DWORD PTR [eax+173508]
  0022c	2b 91 bc a5 02
	00		 sub	 edx, DWORD PTR [ecx+173500]
  00232	8b 45 f8	 mov	 eax, DWORD PTR _this$[ebp]
  00235	89 90 68 a4 02
	00		 mov	 DWORD PTR [eax+173160], edx

; 1223 :         m_d3dpp.BackBufferFormat = pAdapterInfo->d3ddmDesktop.Format;

  0023b	8b 45 f8	 mov	 eax, DWORD PTR _this$[ebp]
  0023e	8b 4d ec	 mov	 ecx, DWORD PTR _pAdapterInfo$[ebp]
  00241	8b 91 38 04 00
	00		 mov	 edx, DWORD PTR [ecx+1080]
  00247	89 90 6c a4 02
	00		 mov	 DWORD PTR [eax+173164], edx

; 1224 :     }
; 1225 :     else

  0024d	eb 54		 jmp	 SHORT $L86026
$L86025:

; 1226 :     {
; 1227 :         m_d3dpp.BackBufferWidth  = pModeInfo->Width;

  0024f	8b 45 f8	 mov	 eax, DWORD PTR _this$[ebp]
  00252	8b 4d d4	 mov	 ecx, DWORD PTR _pModeInfo$[ebp]
  00255	8b 11		 mov	 edx, DWORD PTR [ecx]
  00257	89 90 64 a4 02
	00		 mov	 DWORD PTR [eax+173156], edx

; 1228 :         m_d3dpp.BackBufferHeight = pModeInfo->Height;

  0025d	8b 45 f8	 mov	 eax, DWORD PTR _this$[ebp]
  00260	8b 4d d4	 mov	 ecx, DWORD PTR _pModeInfo$[ebp]
  00263	8b 51 04	 mov	 edx, DWORD PTR [ecx+4]
  00266	89 90 68 a4 02
	00		 mov	 DWORD PTR [eax+173160], edx

; 1229 :         m_d3dpp.BackBufferFormat = pModeInfo->Format;

  0026c	8b 45 f8	 mov	 eax, DWORD PTR _this$[ebp]
  0026f	8b 4d d4	 mov	 ecx, DWORD PTR _pModeInfo$[ebp]
  00272	8b 51 08	 mov	 edx, DWORD PTR [ecx+8]
  00275	89 90 6c a4 02
	00		 mov	 DWORD PTR [eax+173164], edx

; 1230 : 
; 1231 : 		// DM
; 1232 : 		if( m_bVSync )

  0027b	8b 45 f8	 mov	 eax, DWORD PTR _this$[ebp]
  0027e	83 b8 a4 a6 02
	00 00		 cmp	 DWORD PTR [eax+173732], 0
  00285	74 0f		 je	 SHORT $L86027

; 1233 : 			m_d3dpp.FullScreen_PresentationInterval = D3DPRESENT_INTERVAL_DEFAULT ;

  00287	8b 45 f8	 mov	 eax, DWORD PTR _this$[ebp]
  0028a	c7 80 94 a4 02
	00 00 00 00 00	 mov	 DWORD PTR [eax+173204], 0

; 1234 : 		else

  00294	eb 0d		 jmp	 SHORT $L86026
$L86027:

; 1235 : 			m_d3dpp.FullScreen_PresentationInterval = D3DPRESENT_INTERVAL_IMMEDIATE ;

  00296	8b 45 f8	 mov	 eax, DWORD PTR _this$[ebp]
  00299	c7 80 94 a4 02
	00 00 00 00 80	 mov	 DWORD PTR [eax+173204], -2147483648 ; 80000000H
$L86026:

; 1236 :     }
; 1237 : 
; 1238 :     // Resize the 3D device
; 1239 :     if( FAILED( Resize3DEnvironment() ) )

  002a3	8b 4d f8	 mov	 ecx, DWORD PTR _this$[ebp]
  002a6	e8 00 00 00 00	 call	 ?Resize3DEnvironment@CD3DApplication@@IAEJXZ ; CD3DApplication::Resize3DEnvironment
  002ab	85 c0		 test	 eax, eax
  002ad	7d 1d		 jge	 SHORT $L86030

; 1240 :     {
; 1241 :         if( m_bWindowed )

  002af	8b 45 f8	 mov	 eax, DWORD PTR _this$[ebp]
  002b2	83 b8 4c a4 02
	00 00		 cmp	 DWORD PTR [eax+173132], 0
  002b9	74 0a		 je	 SHORT $L86031

; 1242 :             return ForceWindowed();

  002bb	8b 4d f8	 mov	 ecx, DWORD PTR _this$[ebp]
  002be	e8 00 00 00 00	 call	 ?ForceWindowed@CD3DApplication@@IAEJXZ ; CD3DApplication::ForceWindowed
  002c3	eb 79		 jmp	 SHORT $L86010
$L86031:

; 1243 :         else
; 1244 :             return E_FAIL;

  002c5	b8 05 40 00 80	 mov	 eax, -2147467259	; 80004005H
  002ca	eb 72		 jmp	 SHORT $L86010
$L86030:

; 1245 :     }
; 1246 : 
; 1247 :     // When moving from fullscreen to windowed mode, it is important to
; 1248 :     // adjust the window size after resetting the device rather than
; 1249 :     // beforehand to ensure that you get the window size you want.  For
; 1250 :     // example, when switching from 640x480 fullscreen to windowed with
; 1251 :     // a 1000x600 window on a 1024x768 desktop, it is impossible to set
; 1252 :     // the window size to 1000x600 until after the display mode has
; 1253 :     // changed to 1024x768, because windows cannot be larger than the
; 1254 :     // desktop.
; 1255 :     if( m_bWindowed )

  002cc	8b 45 f8	 mov	 eax, DWORD PTR _this$[ebp]
  002cf	83 b8 4c a4 02
	00 00		 cmp	 DWORD PTR [eax+173132], 0
  002d6	74 57		 je	 SHORT $L86034

; 1256 :     {
; 1257 :         SetWindowPos( m_hWnd, HWND_NOTOPMOST,
; 1258 :                       m_rcWindowBounds.left, m_rcWindowBounds.top,
; 1259 :                       ( m_rcWindowBounds.right - m_rcWindowBounds.left ),
; 1260 :                       ( m_rcWindowBounds.bottom - m_rcWindowBounds.top ),
; 1261 :                       SWP_SHOWWINDOW );

  002d8	8b f4		 mov	 esi, esp
  002da	6a 40		 push	 64			; 00000040H
  002dc	8b 45 f8	 mov	 eax, DWORD PTR _this$[ebp]
  002df	8b 4d f8	 mov	 ecx, DWORD PTR _this$[ebp]
  002e2	8b 90 b4 a5 02
	00		 mov	 edx, DWORD PTR [eax+173492]
  002e8	2b 91 ac a5 02
	00		 sub	 edx, DWORD PTR [ecx+173484]
  002ee	52		 push	 edx
  002ef	8b 45 f8	 mov	 eax, DWORD PTR _this$[ebp]
  002f2	8b 4d f8	 mov	 ecx, DWORD PTR _this$[ebp]
  002f5	8b 90 b0 a5 02
	00		 mov	 edx, DWORD PTR [eax+173488]
  002fb	2b 91 a8 a5 02
	00		 sub	 edx, DWORD PTR [ecx+173480]
  00301	52		 push	 edx
  00302	8b 45 f8	 mov	 eax, DWORD PTR _this$[ebp]
  00305	8b 88 ac a5 02
	00		 mov	 ecx, DWORD PTR [eax+173484]
  0030b	51		 push	 ecx
  0030c	8b 55 f8	 mov	 edx, DWORD PTR _this$[ebp]
  0030f	8b 82 a8 a5 02
	00		 mov	 eax, DWORD PTR [edx+173480]
  00315	50		 push	 eax
  00316	6a fe		 push	 -2			; fffffffeH
  00318	8b 4d f8	 mov	 ecx, DWORD PTR _this$[ebp]
  0031b	8b 91 98 a4 02
	00		 mov	 edx, DWORD PTR [ecx+173208]
  00321	52		 push	 edx
  00322	ff 15 00 00 00
	00		 call	 DWORD PTR __imp__SetWindowPos@28
  00328	3b f4		 cmp	 esi, esp
  0032a	e8 00 00 00 00	 call	 __RTC_CheckEsp
$L86034:

; 1262 :     }
; 1263 : 
; 1264 :     m_bReady = TRUE;

  0032f	8b 45 f8	 mov	 eax, DWORD PTR _this$[ebp]
  00332	c7 80 54 a4 02
	00 01 00 00 00	 mov	 DWORD PTR [eax+173140], 1

; 1265 : 
; 1266 :     return S_OK;

  0033c	33 c0		 xor	 eax, eax
$L86010:

; 1267 : }

  0033e	5f		 pop	 edi
  0033f	5e		 pop	 esi
  00340	5b		 pop	 ebx
  00341	81 c4 fc 00 00
	00		 add	 esp, 252		; 000000fcH
  00347	3b ec		 cmp	 ebp, esp
  00349	e8 00 00 00 00	 call	 __RTC_CheckEsp
  0034e	8b e5		 mov	 esp, ebp
  00350	5d		 pop	 ebp
  00351	c3		 ret	 0
?ToggleFullscreen@CD3DApplication@@IAEJXZ ENDP		; CD3DApplication::ToggleFullscreen
; Function compile flags: /Odt /RTCsu /ZI
_TEXT	ENDS
;	COMDAT ?ForceWindowed@CD3DApplication@@IAEJXZ
_TEXT	SEGMENT
_dwDevice$86049 = -104
_pDeviceInfo$86048 = -92
_dwAdapter$86047 = -80
_pAdapterInfo$86046 = -68
_bFoundDevice$ = -56
_pDeviceInfoCur$ = -44
_pAdapterInfoCur$ = -32
_hr$ = -20
_this$ = -8
?ForceWindowed@CD3DApplication@@IAEJXZ PROC NEAR	; CD3DApplication::ForceWindowed, COMDAT
; _this$ = ecx

; 1278 : {

  00000	55		 push	 ebp
  00001	8b ec		 mov	 ebp, esp
  00003	81 ec 2c 01 00
	00		 sub	 esp, 300		; 0000012cH
  00009	53		 push	 ebx
  0000a	56		 push	 esi
  0000b	57		 push	 edi
  0000c	51		 push	 ecx
  0000d	8d bd d4 fe ff
	ff		 lea	 edi, DWORD PTR [ebp-300]
  00013	b9 4b 00 00 00	 mov	 ecx, 75			; 0000004bH
  00018	b8 cc cc cc cc	 mov	 eax, -858993460		; ccccccccH
  0001d	f3 ab		 rep stosd
  0001f	59		 pop	 ecx
  00020	89 4d f8	 mov	 DWORD PTR _this$[ebp], ecx

; 1279 :     HRESULT hr;
; 1280 :     D3DAdapterInfo* pAdapterInfoCur = &m_Adapters[m_dwAdapter];

  00023	8b 45 f8	 mov	 eax, DWORD PTR _this$[ebp]
  00026	8b 88 48 a4 02
	00		 mov	 ecx, DWORD PTR [eax+173128]
  0002c	69 c9 a0 43 00
	00		 imul	 ecx, 17312		; 000043a0H
  00032	8b 55 f8	 mov	 edx, DWORD PTR _this$[ebp]
  00035	8d 44 0a 04	 lea	 eax, DWORD PTR [edx+ecx+4]
  00039	89 45 e0	 mov	 DWORD PTR _pAdapterInfoCur$[ebp], eax

; 1281 :     D3DDeviceInfo*  pDeviceInfoCur  = &pAdapterInfoCur->devices[pAdapterInfoCur->dwCurrentDevice];

  0003c	8b 45 e0	 mov	 eax, DWORD PTR _pAdapterInfoCur$[ebp]
  0003f	8b 88 9c 43 00
	00		 mov	 ecx, DWORD PTR [eax+17308]
  00045	69 c9 ac 0c 00
	00		 imul	 ecx, 3244		; 00000cacH
  0004b	8b 55 e0	 mov	 edx, DWORD PTR _pAdapterInfoCur$[ebp]
  0004e	8d 84 0a 40 04
	00 00		 lea	 eax, DWORD PTR [edx+ecx+1088]
  00055	89 45 d4	 mov	 DWORD PTR _pDeviceInfoCur$[ebp], eax

; 1282 :     BOOL bFoundDevice = FALSE;

  00058	c7 45 c8 00 00
	00 00		 mov	 DWORD PTR _bFoundDevice$[ebp], 0

; 1283 : 
; 1284 :     if( pDeviceInfoCur->bCanDoWindowed )

  0005f	8b 45 d4	 mov	 eax, DWORD PTR _pDeviceInfoCur$[ebp]
  00062	83 b8 dc 00 00
	00 00		 cmp	 DWORD PTR [eax+220], 0
  00069	74 0c		 je	 SHORT $L86044

; 1285 :     {
; 1286 :         bFoundDevice = TRUE;

  0006b	c7 45 c8 01 00
	00 00		 mov	 DWORD PTR _bFoundDevice$[ebp], 1

; 1287 :     }
; 1288 :     else

  00072	e9 af 00 00 00	 jmp	 $L86045
$L86044:

; 1289 :     {
; 1290 :         // Look for a windowable device on any adapter
; 1291 :         D3DAdapterInfo* pAdapterInfo;
; 1292 :         DWORD dwAdapter;
; 1293 :         D3DDeviceInfo* pDeviceInfo;
; 1294 :         DWORD dwDevice;
; 1295 :         for( dwAdapter = 0; dwAdapter < m_dwNumAdapters; dwAdapter++ )

  00077	c7 45 b0 00 00
	00 00		 mov	 DWORD PTR _dwAdapter$86047[ebp], 0
  0007e	eb 09		 jmp	 SHORT $L86050
$L86051:
  00080	8b 45 b0	 mov	 eax, DWORD PTR _dwAdapter$86047[ebp]
  00083	83 c0 01	 add	 eax, 1
  00086	89 45 b0	 mov	 DWORD PTR _dwAdapter$86047[ebp], eax
$L86050:
  00089	8b 45 f8	 mov	 eax, DWORD PTR _this$[ebp]
  0008c	8b 4d b0	 mov	 ecx, DWORD PTR _dwAdapter$86047[ebp]
  0008f	3b 88 44 a4 02
	00		 cmp	 ecx, DWORD PTR [eax+173124]
  00095	0f 83 8b 00 00
	00		 jae	 $L86045

; 1296 :         {
; 1297 :             pAdapterInfo = &m_Adapters[dwAdapter];

  0009b	8b 45 b0	 mov	 eax, DWORD PTR _dwAdapter$86047[ebp]
  0009e	69 c0 a0 43 00
	00		 imul	 eax, 17312		; 000043a0H
  000a4	8b 4d f8	 mov	 ecx, DWORD PTR _this$[ebp]
  000a7	8d 54 01 04	 lea	 edx, DWORD PTR [ecx+eax+4]
  000ab	89 55 bc	 mov	 DWORD PTR _pAdapterInfo$86046[ebp], edx

; 1298 :             for( dwDevice = 0; dwDevice < pAdapterInfo->dwNumDevices; dwDevice++ )

  000ae	c7 45 98 00 00
	00 00		 mov	 DWORD PTR _dwDevice$86049[ebp], 0
  000b5	eb 09		 jmp	 SHORT $L86053
$L86054:
  000b7	8b 45 98	 mov	 eax, DWORD PTR _dwDevice$86049[ebp]
  000ba	83 c0 01	 add	 eax, 1
  000bd	89 45 98	 mov	 DWORD PTR _dwDevice$86049[ebp], eax
$L86053:
  000c0	8b 45 bc	 mov	 eax, DWORD PTR _pAdapterInfo$86046[ebp]
  000c3	8b 4d 98	 mov	 ecx, DWORD PTR _dwDevice$86049[ebp]
  000c6	3b 88 3c 04 00
	00		 cmp	 ecx, DWORD PTR [eax+1084]
  000cc	73 4b		 jae	 SHORT $L86055

; 1299 :             {
; 1300 :                 pDeviceInfo = &pAdapterInfo->devices[dwDevice];

  000ce	8b 45 98	 mov	 eax, DWORD PTR _dwDevice$86049[ebp]
  000d1	69 c0 ac 0c 00
	00		 imul	 eax, 3244		; 00000cacH
  000d7	8b 4d bc	 mov	 ecx, DWORD PTR _pAdapterInfo$86046[ebp]
  000da	8d 94 01 40 04
	00 00		 lea	 edx, DWORD PTR [ecx+eax+1088]
  000e1	89 55 a4	 mov	 DWORD PTR _pDeviceInfo$86048[ebp], edx

; 1301 :                 if( pDeviceInfo->bCanDoWindowed )

  000e4	8b 45 a4	 mov	 eax, DWORD PTR _pDeviceInfo$86048[ebp]
  000e7	83 b8 dc 00 00
	00 00		 cmp	 DWORD PTR [eax+220], 0
  000ee	74 27		 je	 SHORT $L86056

; 1302 :                 {
; 1303 :                     m_dwAdapter = dwAdapter;

  000f0	8b 45 f8	 mov	 eax, DWORD PTR _this$[ebp]
  000f3	8b 4d b0	 mov	 ecx, DWORD PTR _dwAdapter$86047[ebp]
  000f6	89 88 48 a4 02
	00		 mov	 DWORD PTR [eax+173128], ecx

; 1304 :                     pDeviceInfoCur = pDeviceInfo;

  000fc	8b 45 a4	 mov	 eax, DWORD PTR _pDeviceInfo$86048[ebp]
  000ff	89 45 d4	 mov	 DWORD PTR _pDeviceInfoCur$[ebp], eax

; 1305 :                     pAdapterInfo->dwCurrentDevice = dwDevice;

  00102	8b 45 bc	 mov	 eax, DWORD PTR _pAdapterInfo$86046[ebp]
  00105	8b 4d 98	 mov	 ecx, DWORD PTR _dwDevice$86049[ebp]
  00108	89 88 9c 43 00
	00		 mov	 DWORD PTR [eax+17308], ecx

; 1306 :                     bFoundDevice = TRUE;

  0010e	c7 45 c8 01 00
	00 00		 mov	 DWORD PTR _bFoundDevice$[ebp], 1

; 1307 :                     break;

  00115	eb 02		 jmp	 SHORT $L86055
$L86056:

; 1308 :                 }
; 1309 :             }

  00117	eb 9e		 jmp	 SHORT $L86054
$L86055:

; 1310 :             if( bFoundDevice )

  00119	83 7d c8 00	 cmp	 DWORD PTR _bFoundDevice$[ebp], 0
  0011d	74 02		 je	 SHORT $L86057

; 1311 :                 break;

  0011f	eb 05		 jmp	 SHORT $L86045
$L86057:

; 1312 :         }

  00121	e9 5a ff ff ff	 jmp	 $L86051
$L86045:

; 1313 :     }
; 1314 : 
; 1315 :     if( !bFoundDevice )

  00126	83 7d c8 00	 cmp	 DWORD PTR _bFoundDevice$[ebp], 0
  0012a	75 0a		 jne	 SHORT $L86058

; 1316 :         return E_FAIL;

  0012c	b8 05 40 00 80	 mov	 eax, -2147467259	; 80004005H
  00131	e9 b5 00 00 00	 jmp	 $L86039
$L86058:

; 1317 : 
; 1318 :     pDeviceInfoCur->bWindowed = TRUE;

  00136	8b 45 d4	 mov	 eax, DWORD PTR _pDeviceInfoCur$[ebp]
  00139	c7 80 a0 0c 00
