; Listing generated by Microsoft (R) Optimizing Compiler Version 13.00.9466 

	TITLE	D3DFrame8.1 Custom\src\d3dfont_custom.cpp
	.386P
include listing.inc
if @Version gt 510
.model FLAT
else
_TEXT	SEGMENT PARA USE32 PUBLIC 'CODE'
_TEXT	ENDS
_DATA	SEGMENT DWORD USE32 PUBLIC 'DATA'
_DATA	ENDS
CONST	SEGMENT DWORD USE32 PUBLIC 'CONST'
CONST	ENDS
_BSS	SEGMENT DWORD USE32 PUBLIC 'BSS'
_BSS	ENDS
$$SYMBOLS	SEGMENT BYTE USE32 'DEBSYM'
$$SYMBOLS	ENDS
$$TYPES	SEGMENT BYTE USE32 'DEBTYP'
$$TYPES	ENDS
_TLS	SEGMENT DWORD USE32 PUBLIC 'TLS'
_TLS	ENDS
;	COMDAT ??_C@_01FJMABOPO@x?$AA@
CONST	SEGMENT DWORD USE32 PUBLIC 'CONST'
CONST	ENDS
;	COMDAT _IsEqualGUID
_TEXT	SEGMENT PARA USE32 PUBLIC 'CODE'
_TEXT	ENDS
;	COMDAT _==
_TEXT	SEGMENT PARA USE32 PUBLIC 'CODE'
_TEXT	ENDS
;	COMDAT _sqrtf
_TEXT	SEGMENT PARA USE32 PUBLIC 'CODE'
_TEXT	ENDS
;	COMDAT ??0D3DXVECTOR3@@QAE@XZ
_TEXT	SEGMENT PARA USE32 PUBLIC 'CODE'
_TEXT	ENDS
;	COMDAT ??0D3DXVECTOR4@@QAE@XZ
_TEXT	SEGMENT PARA USE32 PUBLIC 'CODE'
_TEXT	ENDS
;	COMDAT ??0D3DXMATRIX@@QAE@XZ
_TEXT	SEGMENT PARA USE32 PUBLIC 'CODE'
_TEXT	ENDS
;	COMDAT ??0D3DXQUATERNION@@QAE@XZ
_TEXT	SEGMENT PARA USE32 PUBLIC 'CODE'
_TEXT	ENDS
;	COMDAT ??0D3DXVECTOR2@@QAE@MM@Z
_TEXT	SEGMENT PARA USE32 PUBLIC 'CODE'
_TEXT	ENDS
;	COMDAT ??0D3DXVECTOR3@@QAE@MMM@Z
_TEXT	SEGMENT PARA USE32 PUBLIC 'CODE'
_TEXT	ENDS
;	COMDAT ??0D3DXVECTOR4@@QAE@MMMM@Z
_TEXT	SEGMENT PARA USE32 PUBLIC 'CODE'
_TEXT	ENDS
;	COMDAT ??0D3DXMATRIX@@QAE@PBM@Z
_TEXT	SEGMENT PARA USE32 PUBLIC 'CODE'
_TEXT	ENDS
;	COMDAT ??0D3DXMATRIX@@QAE@ABU_D3DMATRIX@@@Z
_TEXT	SEGMENT PARA USE32 PUBLIC 'CODE'
_TEXT	ENDS
;	COMDAT ??0D3DXMATRIX@@QAE@MMMMMMMMMMMMMMMM@Z
_TEXT	SEGMENT PARA USE32 PUBLIC 'CODE'
_TEXT	ENDS
;	COMDAT ??0D3DXQUATERNION@@QAE@MMMM@Z
_TEXT	SEGMENT PARA USE32 PUBLIC 'CODE'
_TEXT	ENDS
;	COMDAT ??0D3DXPLANE@@QAE@MMMM@Z
_TEXT	SEGMENT PARA USE32 PUBLIC 'CODE'
_TEXT	ENDS
;	COMDAT ??0D3DXCOLOR@@QAE@MMMM@Z
_TEXT	SEGMENT PARA USE32 PUBLIC 'CODE'
_TEXT	ENDS
;	COMDAT ?InitFont2DVertex@@YA?AUFONT2DVERTEX@@ABUD3DXVECTOR4@@KMM@Z
_TEXT	SEGMENT PARA USE32 PUBLIC 'CODE'
_TEXT	ENDS
;	COMDAT ??0FONT2DVERTEX@@QAE@XZ
_TEXT	SEGMENT PARA USE32 PUBLIC 'CODE'
_TEXT	ENDS
;	COMDAT ?InitFont3DVertex@@YA?AUFONT3DVERTEX@@ABUD3DXVECTOR3@@0MM@Z
_TEXT	SEGMENT PARA USE32 PUBLIC 'CODE'
_TEXT	ENDS
;	COMDAT ??0FONT3DVERTEX@@QAE@XZ
_TEXT	SEGMENT PARA USE32 PUBLIC 'CODE'
_TEXT	ENDS
;	COMDAT ??0CD3DFont@@QAE@PADKK@Z
_TEXT	SEGMENT PARA USE32 PUBLIC 'CODE'
_TEXT	ENDS
;	COMDAT ??1CD3DFont@@QAE@XZ
_TEXT	SEGMENT PARA USE32 PUBLIC 'CODE'
_TEXT	ENDS
;	COMDAT ?InitDeviceObjects@CD3DFont@@QAEJPAUIDirect3DDevice8@@@Z
_TEXT	SEGMENT PARA USE32 PUBLIC 'CODE'
_TEXT	ENDS
;	COMDAT ?RestoreDeviceObjects@CD3DFont@@QAEJXZ
_TEXT	SEGMENT PARA USE32 PUBLIC 'CODE'
_TEXT	ENDS
;	COMDAT ?InvalidateDeviceObjects@CD3DFont@@QAEJXZ
_TEXT	SEGMENT PARA USE32 PUBLIC 'CODE'
_TEXT	ENDS
;	COMDAT ?DeleteDeviceObjects@CD3DFont@@QAEJXZ
_TEXT	SEGMENT PARA USE32 PUBLIC 'CODE'
_TEXT	ENDS
;	COMDAT ?GetTextExtent@CD3DFont@@QAEJPADPAUtagSIZE@@@Z
_TEXT	SEGMENT PARA USE32 PUBLIC 'CODE'
_TEXT	ENDS
;	COMDAT ?DrawTextScaled@CD3DFont@@QAEJMMMMMKPADK@Z
_TEXT	SEGMENT PARA USE32 PUBLIC 'CODE'
_TEXT	ENDS
;	COMDAT ?DrawTextScaledDM@CD3DFont@@QAEJMMMMMKPADKPAU_D3DVIEWPORT8@@@Z
_TEXT	SEGMENT PARA USE32 PUBLIC 'CODE'
_TEXT	ENDS
;	COMDAT ?SetRenderStateDM@CD3DFont@@QAEXXZ
_TEXT	SEGMENT PARA USE32 PUBLIC 'CODE'
_TEXT	ENDS
;	COMDAT ?ResetRenderStateDM@CD3DFont@@QAEXXZ
_TEXT	SEGMENT PARA USE32 PUBLIC 'CODE'
_TEXT	ENDS
;	COMDAT ?DrawTextA@CD3DFont@@QAEJMMKPADK@Z
_TEXT	SEGMENT PARA USE32 PUBLIC 'CODE'
_TEXT	ENDS
;	COMDAT ?Render3DText@CD3DFont@@QAEJPADK@Z
_TEXT	SEGMENT PARA USE32 PUBLIC 'CODE'
_TEXT	ENDS
FLAT	GROUP _DATA, CONST, _BSS
	ASSUME	CS: FLAT, DS: FLAT, SS: FLAT
endif

INCLUDELIB LIBCMTD
INCLUDELIB OLDNAMES

PUBLIC	??0CD3DFont@@QAE@PADKK@Z			; CD3DFont::CD3DFont
EXTRN	_strcpy:NEAR
EXTRN	__RTC_InitBase:NEAR
EXTRN	__RTC_Shutdown:NEAR
EXTRN	__RTC_CheckEsp:NEAR
;	COMDAT rtc$IMZ
; File c:\documents and settings\dom\my documents\_dev\ae\xlr8a\x7g\d3dframe8.1 custom\src\d3dfont_custom.cpp
rtc$IMZ	SEGMENT
__RTC_InitBase.rtc$IMZ DD FLAT:__RTC_InitBase
rtc$IMZ	ENDS
;	COMDAT rtc$TMZ
rtc$TMZ	SEGMENT
__RTC_Shutdown.rtc$TMZ DD FLAT:__RTC_Shutdown
; Function compile flags: /Odt /RTCsu /ZI
rtc$TMZ	ENDS
;	COMDAT ??0CD3DFont@@QAE@PADKK@Z
_TEXT	SEGMENT
_this$ = -8
_strFontName$ = 8
_dwHeight$ = 12
_dwFlags$ = 16
??0CD3DFont@@QAE@PADKK@Z PROC NEAR			; CD3DFont::CD3DFont, COMDAT
; _this$ = ecx

; 53   : {

  00000	55		 push	 ebp
  00001	8b ec		 mov	 ebp, esp
  00003	81 ec cc 00 00
	00		 sub	 esp, 204		; 000000ccH
  00009	53		 push	 ebx
  0000a	56		 push	 esi
  0000b	57		 push	 edi
  0000c	51		 push	 ecx
  0000d	8d bd 34 ff ff
	ff		 lea	 edi, DWORD PTR [ebp-204]
  00013	b9 33 00 00 00	 mov	 ecx, 51			; 00000033H
  00018	b8 cc cc cc cc	 mov	 eax, -858993460		; ccccccccH
  0001d	f3 ab		 rep stosd
  0001f	59		 pop	 ecx
  00020	89 4d f8	 mov	 DWORD PTR _this$[ebp], ecx

; 54   :     _tcscpy( m_strFontName, strFontName );

  00023	8b 45 08	 mov	 eax, DWORD PTR _strFontName$[ebp]
  00026	50		 push	 eax
  00027	8b 4d f8	 mov	 ecx, DWORD PTR _this$[ebp]
  0002a	51		 push	 ecx
  0002b	e8 00 00 00 00	 call	 _strcpy
  00030	83 c4 08	 add	 esp, 8

; 55   :     m_dwFontHeight         = dwHeight;

  00033	8b 45 f8	 mov	 eax, DWORD PTR _this$[ebp]
  00036	8b 4d 0c	 mov	 ecx, DWORD PTR _dwHeight$[ebp]
  00039	89 48 50	 mov	 DWORD PTR [eax+80], ecx

; 56   :     m_dwFontFlags          = dwFlags;

  0003c	8b 45 f8	 mov	 eax, DWORD PTR _this$[ebp]
  0003f	8b 4d 10	 mov	 ecx, DWORD PTR _dwFlags$[ebp]
  00042	89 48 54	 mov	 DWORD PTR [eax+84], ecx

; 57   : 
; 58   :     m_pd3dDevice           = NULL;

  00045	8b 45 f8	 mov	 eax, DWORD PTR _this$[ebp]
  00048	c7 40 58 00 00
	00 00		 mov	 DWORD PTR [eax+88], 0

; 59   :     m_pTexture             = NULL;

  0004f	8b 45 f8	 mov	 eax, DWORD PTR _this$[ebp]
  00052	c7 40 5c 00 00
	00 00		 mov	 DWORD PTR [eax+92], 0

; 60   :     m_pVB                  = NULL;

  00059	8b 45 f8	 mov	 eax, DWORD PTR _this$[ebp]
  0005c	c7 40 60 00 00
	00 00		 mov	 DWORD PTR [eax+96], 0

; 61   : 
; 62   :     m_dwSavedStateBlock    = 0L;

  00063	8b 45 f8	 mov	 eax, DWORD PTR _this$[ebp]
  00066	c7 80 70 06 00
	00 00 00 00 00	 mov	 DWORD PTR [eax+1648], 0

; 63   :     m_dwDrawTextStateBlock = 0L;

  00070	8b 45 f8	 mov	 eax, DWORD PTR _this$[ebp]
  00073	c7 80 74 06 00
	00 00 00 00 00	 mov	 DWORD PTR [eax+1652], 0

; 64   : }

  0007d	8b 45 f8	 mov	 eax, DWORD PTR _this$[ebp]
  00080	5f		 pop	 edi
  00081	5e		 pop	 esi
  00082	5b		 pop	 ebx
  00083	81 c4 cc 00 00
	00		 add	 esp, 204		; 000000ccH
  00089	3b ec		 cmp	 ebp, esp
  0008b	e8 00 00 00 00	 call	 __RTC_CheckEsp
  00090	8b e5		 mov	 esp, ebp
  00092	5d		 pop	 ebp
  00093	c2 0c 00	 ret	 12			; 0000000cH
??0CD3DFont@@QAE@PADKK@Z ENDP				; CD3DFont::CD3DFont
_TEXT	ENDS
PUBLIC	?InvalidateDeviceObjects@CD3DFont@@QAEJXZ	; CD3DFont::InvalidateDeviceObjects
PUBLIC	?DeleteDeviceObjects@CD3DFont@@QAEJXZ		; CD3DFont::DeleteDeviceObjects
PUBLIC	??1CD3DFont@@QAE@XZ				; CD3DFont::~CD3DFont
; Function compile flags: /Odt /RTCsu /ZI
;	COMDAT ??1CD3DFont@@QAE@XZ
_TEXT	SEGMENT
_this$ = -8
??1CD3DFont@@QAE@XZ PROC NEAR				; CD3DFont::~CD3DFont, COMDAT
; _this$ = ecx

; 74   : {

  00000	55		 push	 ebp
  00001	8b ec		 mov	 ebp, esp
  00003	81 ec cc 00 00
	00		 sub	 esp, 204		; 000000ccH
  00009	53		 push	 ebx
  0000a	56		 push	 esi
  0000b	57		 push	 edi
  0000c	51		 push	 ecx
  0000d	8d bd 34 ff ff
	ff		 lea	 edi, DWORD PTR [ebp-204]
  00013	b9 33 00 00 00	 mov	 ecx, 51			; 00000033H
  00018	b8 cc cc cc cc	 mov	 eax, -858993460		; ccccccccH
  0001d	f3 ab		 rep stosd
  0001f	59		 pop	 ecx
  00020	89 4d f8	 mov	 DWORD PTR _this$[ebp], ecx

; 75   :     InvalidateDeviceObjects();

  00023	8b 4d f8	 mov	 ecx, DWORD PTR _this$[ebp]
  00026	e8 00 00 00 00	 call	 ?InvalidateDeviceObjects@CD3DFont@@QAEJXZ ; CD3DFont::InvalidateDeviceObjects

; 76   :     DeleteDeviceObjects();

  0002b	8b 4d f8	 mov	 ecx, DWORD PTR _this$[ebp]
  0002e	e8 00 00 00 00	 call	 ?DeleteDeviceObjects@CD3DFont@@QAEJXZ ; CD3DFont::DeleteDeviceObjects

; 77   : }

  00033	5f		 pop	 edi
  00034	5e		 pop	 esi
  00035	5b		 pop	 ebx
  00036	81 c4 cc 00 00
	00		 add	 esp, 204		; 000000ccH
  0003c	3b ec		 cmp	 ebp, esp
  0003e	e8 00 00 00 00	 call	 __RTC_CheckEsp
  00043	8b e5		 mov	 esp, ebp
  00045	5d		 pop	 ebp
  00046	c3		 ret	 0
??1CD3DFont@@QAE@XZ ENDP				; CD3DFont::~CD3DFont
_TEXT	ENDS
PUBLIC	?InitDeviceObjects@CD3DFont@@QAEJPAUIDirect3DDevice8@@@Z ; CD3DFont::InitDeviceObjects
PUBLIC	??_C@_01FJMABOPO@x?$AA@				; `string'
EXTRN	__imp__ExtTextOutA@32:NEAR
EXTRN	__imp__MulDiv@12:NEAR
EXTRN	__imp__GetDeviceCaps@8:NEAR
EXTRN	__imp__GetTextExtentPoint32A@16:NEAR
EXTRN	__imp__SelectObject@8:NEAR
EXTRN	__imp__SetBkColor@8:NEAR
EXTRN	__imp__SetMapMode@8:NEAR
EXTRN	__imp__SetTextColor@8:NEAR
EXTRN	__imp__SetTextAlign@8:NEAR
EXTRN	_memset:NEAR
EXTRN	__ftol2:NEAR
EXTRN	@_RTC_CheckStackVars@8:NEAR
EXTRN	__fltused:NEAR
EXTRN	__imp__CreateCompatibleDC@4:NEAR
EXTRN	__imp__CreateFontA@56:NEAR
EXTRN	__imp__CreateDIBSection@24:NEAR
EXTRN	__imp__DeleteDC@4:NEAR
EXTRN	__imp__DeleteObject@4:NEAR
;	COMDAT ??_C@_01FJMABOPO@x?$AA@
CONST	SEGMENT
??_C@_01FJMABOPO@x?$AA@ DB 'x', 00H			; `string'
; Function compile flags: /Odt /RTCsu /ZI
CONST	ENDS
;	COMDAT ?InitDeviceObjects@CD3DFont@@QAEJPAUIDirect3DDevice8@@@Z
_TEXT	SEGMENT
tv525 = -712
tv515 = -712
tv505 = -712
tv495 = -712
tv387 = -712
tv520 = -704
tv510 = -704
tv500 = -704
tv490 = -704
tv382 = -704
tv427 = -700
_bAlpha$ = -497
_pDst16$ = -488
_pDstRow$ = -476
_d3dlr$ = -464
_c$80333 = -445
_size$ = -436
_str$ = -420
_y$ = -408
_x$ = -396
_hFont$ = -384
_dwItalic$ = -372
_dwBold$ = -360
_nHeight$ = -348
_hbmBitmap$ = -336
_hDC$ = -324
_bmi$ = -312
_pBitmapBits$ = -260
_d3dCaps$ = -248
_hr$ = -20
_this$ = -8
_pd3dDevice$ = 8
?InitDeviceObjects@CD3DFont@@QAEJPAUIDirect3DDevice8@@@Z PROC NEAR ; CD3DFont::InitDeviceObjects, COMDAT
; _this$ = ecx

; 88   : {

  00000	55		 push	 ebp
  00001	8b ec		 mov	 ebp, esp
  00003	81 ec c8 02 00
	00		 sub	 esp, 712		; 000002c8H
  00009	53		 push	 ebx
  0000a	56		 push	 esi
  0000b	57		 push	 edi
  0000c	51		 push	 ecx
  0000d	8d bd 38 fd ff
	ff		 lea	 edi, DWORD PTR [ebp-712]
  00013	b9 b2 00 00 00	 mov	 ecx, 178		; 000000b2H
  00018	b8 cc cc cc cc	 mov	 eax, -858993460		; ccccccccH
  0001d	f3 ab		 rep stosd
  0001f	59		 pop	 ecx
  00020	89 4d f8	 mov	 DWORD PTR _this$[ebp], ecx

; 89   :     HRESULT hr;
; 90   : 
; 91   :     // Keep a local copy of the device
; 92   :     m_pd3dDevice = pd3dDevice;

  00023	8b 45 f8	 mov	 eax, DWORD PTR _this$[ebp]
  00026	8b 4d 08	 mov	 ecx, DWORD PTR _pd3dDevice$[ebp]
  00029	89 48 58	 mov	 DWORD PTR [eax+88], ecx

; 93   : 
; 94   :     // Establish the font and texture size
; 95   :     m_fTextScale  = 1.0f; // Draw fonts into texture without scaling

  0002c	8b 45 f8	 mov	 eax, DWORD PTR _this$[ebp]
  0002f	c7 40 6c 00 00
	80 3f		 mov	 DWORD PTR [eax+108], 1065353216 ; 3f800000H

; 96   : 
; 97   :     // Large fonts need larger textures
; 98   :     if( m_dwFontHeight > 40 )

  00036	8b 45 f8	 mov	 eax, DWORD PTR _this$[ebp]
  00039	83 78 50 28	 cmp	 DWORD PTR [eax+80], 40	; 00000028H
  0003d	76 16		 jbe	 SHORT $L80296

; 99   :         m_dwTexWidth = m_dwTexHeight = 1024;

  0003f	8b 45 f8	 mov	 eax, DWORD PTR _this$[ebp]
  00042	c7 40 68 00 04
	00 00		 mov	 DWORD PTR [eax+104], 1024 ; 00000400H
  00049	8b 4d f8	 mov	 ecx, DWORD PTR _this$[ebp]
  0004c	c7 41 64 00 04
	00 00		 mov	 DWORD PTR [ecx+100], 1024 ; 00000400H

; 100  :     else if( m_dwFontHeight > 20 )

  00053	eb 33		 jmp	 SHORT $L80297
$L80296:
  00055	8b 45 f8	 mov	 eax, DWORD PTR _this$[ebp]
  00058	83 78 50 14	 cmp	 DWORD PTR [eax+80], 20	; 00000014H
  0005c	76 16		 jbe	 SHORT $L80298

; 101  :         m_dwTexWidth = m_dwTexHeight = 512;

  0005e	8b 45 f8	 mov	 eax, DWORD PTR _this$[ebp]
  00061	c7 40 68 00 02
	00 00		 mov	 DWORD PTR [eax+104], 512 ; 00000200H
  00068	8b 4d f8	 mov	 ecx, DWORD PTR _this$[ebp]
  0006b	c7 41 64 00 02
	00 00		 mov	 DWORD PTR [ecx+100], 512 ; 00000200H

; 102  :     else

  00072	eb 14		 jmp	 SHORT $L80297
$L80298:

; 103  :         m_dwTexWidth  = m_dwTexHeight = 256;

  00074	8b 45 f8	 mov	 eax, DWORD PTR _this$[ebp]
  00077	c7 40 68 00 01
	00 00		 mov	 DWORD PTR [eax+104], 256 ; 00000100H
  0007e	8b 4d f8	 mov	 ecx, DWORD PTR _this$[ebp]
  00081	c7 41 64 00 01
	00 00		 mov	 DWORD PTR [ecx+100], 256 ; 00000100H
$L80297:

; 104  : 
; 105  :     // If requested texture is too big, use a smaller texture and smaller font,
; 106  :     // and scale up when rendering.
; 107  :     D3DCAPS8 d3dCaps;
; 108  :     m_pd3dDevice->GetDeviceCaps( &d3dCaps );

  00088	8b f4		 mov	 esi, esp
  0008a	8d 85 08 ff ff
	ff		 lea	 eax, DWORD PTR _d3dCaps$[ebp]
  00090	50		 push	 eax
  00091	8b 4d f8	 mov	 ecx, DWORD PTR _this$[ebp]
  00094	8b 51 58	 mov	 edx, DWORD PTR [ecx+88]
  00097	8b 45 f8	 mov	 eax, DWORD PTR _this$[ebp]
  0009a	8b 48 58	 mov	 ecx, DWORD PTR [eax+88]
  0009d	8b 12		 mov	 edx, DWORD PTR [edx]
  0009f	51		 push	 ecx
  000a0	ff 52 1c	 call	 DWORD PTR [edx+28]
  000a3	3b f4		 cmp	 esi, esp
  000a5	e8 00 00 00 00	 call	 __RTC_CheckEsp

; 109  : 
; 110  :     if( m_dwTexWidth > d3dCaps.MaxTextureWidth )

  000aa	8b 45 f8	 mov	 eax, DWORD PTR _this$[ebp]
  000ad	8b 48 64	 mov	 ecx, DWORD PTR [eax+100]
  000b0	3b 8d 60 ff ff
	ff		 cmp	 ecx, DWORD PTR _d3dCaps$[ebp+88]
  000b6	76 58		 jbe	 SHORT $L80301

; 111  :     {
; 112  :         m_fTextScale = (FLOAT)d3dCaps.MaxTextureWidth / (FLOAT)m_dwTexWidth;

  000b8	8b 85 60 ff ff
	ff		 mov	 eax, DWORD PTR _d3dCaps$[ebp+88]
  000be	89 85 40 fd ff
	ff		 mov	 DWORD PTR tv382[ebp], eax
  000c4	c7 85 44 fd ff
	ff 00 00 00 00	 mov	 DWORD PTR tv382[ebp+4], 0
  000ce	df ad 40 fd ff
	ff		 fild	 QWORD PTR tv382[ebp]
  000d4	8b 4d f8	 mov	 ecx, DWORD PTR _this$[ebp]
  000d7	8b 51 64	 mov	 edx, DWORD PTR [ecx+100]
  000da	89 95 38 fd ff
	ff		 mov	 DWORD PTR tv387[ebp], edx
  000e0	c7 85 3c fd ff
	ff 00 00 00 00	 mov	 DWORD PTR tv387[ebp+4], 0
  000ea	df ad 38 fd ff
	ff		 fild	 QWORD PTR tv387[ebp]
  000f0	de f9		 fdivp	 ST(1), ST(0)
  000f2	8b 45 f8	 mov	 eax, DWORD PTR _this$[ebp]
  000f5	d9 58 6c	 fstp	 DWORD PTR [eax+108]

; 113  :         m_dwTexWidth = m_dwTexHeight = d3dCaps.MaxTextureWidth;

  000f8	8b 45 f8	 mov	 eax, DWORD PTR _this$[ebp]
  000fb	8b 8d 60 ff ff
	ff		 mov	 ecx, DWORD PTR _d3dCaps$[ebp+88]
  00101	89 48 68	 mov	 DWORD PTR [eax+104], ecx
  00104	8b 55 f8	 mov	 edx, DWORD PTR _this$[ebp]
  00107	8b 85 60 ff ff
	ff		 mov	 eax, DWORD PTR _d3dCaps$[ebp+88]
  0010d	89 42 64	 mov	 DWORD PTR [edx+100], eax
$L80301:

; 114  :     }
; 115  : 
; 116  :     // Create a new texture for the font
; 117  :     hr = m_pd3dDevice->CreateTexture( m_dwTexWidth, m_dwTexHeight, 1,
; 118  :                                       0, D3DFMT_A4R4G4B4,
; 119  :                                       D3DPOOL_MANAGED, &m_pTexture );

  00110	8b 45 f8	 mov	 eax, DWORD PTR _this$[ebp]
  00113	83 c0 5c	 add	 eax, 92			; 0000005cH
  00116	8b f4		 mov	 esi, esp
  00118	50		 push	 eax
  00119	6a 01		 push	 1
  0011b	6a 1a		 push	 26			; 0000001aH
  0011d	6a 00		 push	 0
  0011f	6a 01		 push	 1
  00121	8b 4d f8	 mov	 ecx, DWORD PTR _this$[ebp]
  00124	8b 51 68	 mov	 edx, DWORD PTR [ecx+104]
  00127	52		 push	 edx
  00128	8b 45 f8	 mov	 eax, DWORD PTR _this$[ebp]
  0012b	8b 48 64	 mov	 ecx, DWORD PTR [eax+100]
  0012e	51		 push	 ecx
  0012f	8b 55 f8	 mov	 edx, DWORD PTR _this$[ebp]
  00132	8b 42 58	 mov	 eax, DWORD PTR [edx+88]
  00135	8b 4d f8	 mov	 ecx, DWORD PTR _this$[ebp]
  00138	8b 51 58	 mov	 edx, DWORD PTR [ecx+88]
  0013b	8b 00		 mov	 eax, DWORD PTR [eax]
  0013d	52		 push	 edx
  0013e	ff 50 50	 call	 DWORD PTR [eax+80]
  00141	3b f4		 cmp	 esi, esp
  00143	e8 00 00 00 00	 call	 __RTC_CheckEsp
  00148	89 45 ec	 mov	 DWORD PTR _hr$[ebp], eax

; 120  :     if( FAILED(hr) )

  0014b	83 7d ec 00	 cmp	 DWORD PTR _hr$[ebp], 0
  0014f	7d 08		 jge	 SHORT $L80305

; 121  :         return hr;

  00151	8b 45 ec	 mov	 eax, DWORD PTR _hr$[ebp]
  00154	e9 df 05 00 00	 jmp	 $L80294
$L80305:

; 122  : 
; 123  :     // Prepare to create a bitmap
; 124  :     DWORD*      pBitmapBits;
; 125  :     BITMAPINFO bmi;
; 126  :     ZeroMemory( &bmi.bmiHeader,  sizeof(BITMAPINFOHEADER) );

  00159	6a 28		 push	 40			; 00000028H
  0015b	6a 00		 push	 0
  0015d	8d 85 c8 fe ff
	ff		 lea	 eax, DWORD PTR _bmi$[ebp]
  00163	50		 push	 eax
  00164	e8 00 00 00 00	 call	 _memset
  00169	83 c4 0c	 add	 esp, 12			; 0000000cH

; 127  :     bmi.bmiHeader.biSize        = sizeof(BITMAPINFOHEADER);

  0016c	c7 85 c8 fe ff
	ff 28 00 00 00	 mov	 DWORD PTR _bmi$[ebp], 40 ; 00000028H

; 128  :     bmi.bmiHeader.biWidth       =  (int)m_dwTexWidth;

  00176	8b 45 f8	 mov	 eax, DWORD PTR _this$[ebp]
  00179	8b 48 64	 mov	 ecx, DWORD PTR [eax+100]
  0017c	89 8d cc fe ff
	ff		 mov	 DWORD PTR _bmi$[ebp+4], ecx

; 129  :     bmi.bmiHeader.biHeight      = -(int)m_dwTexHeight;

  00182	8b 45 f8	 mov	 eax, DWORD PTR _this$[ebp]
  00185	8b 48 68	 mov	 ecx, DWORD PTR [eax+104]
  00188	f7 d9		 neg	 ecx
  0018a	89 8d d0 fe ff
	ff		 mov	 DWORD PTR _bmi$[ebp+8], ecx

; 130  :     bmi.bmiHeader.biPlanes      = 1;

  00190	66 c7 85 d4 fe
	ff ff 01 00	 mov	 WORD PTR _bmi$[ebp+12], 1

; 131  :     bmi.bmiHeader.biCompression = BI_RGB;

  00199	c7 85 d8 fe ff
	ff 00 00 00 00	 mov	 DWORD PTR _bmi$[ebp+16], 0

; 132  :     bmi.bmiHeader.biBitCount    = 32;

  001a3	66 c7 85 d6 fe
	ff ff 20 00	 mov	 WORD PTR _bmi$[ebp+14], 32 ; 00000020H

; 133  : 
; 134  :     // Create a DC and a bitmap for the font
; 135  :     HDC     hDC       = CreateCompatibleDC( NULL );

  001ac	8b f4		 mov	 esi, esp
  001ae	6a 00		 push	 0
  001b0	ff 15 00 00 00
	00		 call	 DWORD PTR __imp__CreateCompatibleDC@4
  001b6	3b f4		 cmp	 esi, esp
  001b8	e8 00 00 00 00	 call	 __RTC_CheckEsp
  001bd	89 85 bc fe ff
	ff		 mov	 DWORD PTR _hDC$[ebp], eax

; 136  :     HBITMAP hbmBitmap = CreateDIBSection( hDC, &bmi, DIB_RGB_COLORS,
; 137  :                                           (VOID**)&pBitmapBits, NULL, 0 );

  001c3	8b f4		 mov	 esi, esp
  001c5	6a 00		 push	 0
  001c7	6a 00		 push	 0
  001c9	8d 85 fc fe ff
	ff		 lea	 eax, DWORD PTR _pBitmapBits$[ebp]
  001cf	50		 push	 eax
  001d0	6a 00		 push	 0
  001d2	8d 8d c8 fe ff
	ff		 lea	 ecx, DWORD PTR _bmi$[ebp]
  001d8	51		 push	 ecx
  001d9	8b 95 bc fe ff
	ff		 mov	 edx, DWORD PTR _hDC$[ebp]
  001df	52		 push	 edx
  001e0	ff 15 00 00 00
	00		 call	 DWORD PTR __imp__CreateDIBSection@24
  001e6	3b f4		 cmp	 esi, esp
  001e8	e8 00 00 00 00	 call	 __RTC_CheckEsp
  001ed	89 85 b0 fe ff
	ff		 mov	 DWORD PTR _hbmBitmap$[ebp], eax

; 138  :     SetMapMode( hDC, MM_TEXT );

  001f3	8b f4		 mov	 esi, esp
  001f5	6a 01		 push	 1
  001f7	8b 85 bc fe ff
	ff		 mov	 eax, DWORD PTR _hDC$[ebp]
  001fd	50		 push	 eax
  001fe	ff 15 00 00 00
	00		 call	 DWORD PTR __imp__SetMapMode@8
  00204	3b f4		 cmp	 esi, esp
  00206	e8 00 00 00 00	 call	 __RTC_CheckEsp

; 139  : 
; 140  :     // Create a font.  By specifying ANTIALIASED_QUALITY, we might get an
; 141  :     // antialiased font, but this is not guaranteed.
; 142  :     INT nHeight    = -MulDiv( m_dwFontHeight, 
; 143  :         (INT)(GetDeviceCaps(hDC, LOGPIXELSY) * m_fTextScale), 72 );

  0020b	8b f4		 mov	 esi, esp
  0020d	6a 48		 push	 72			; 00000048H
  0020f	8b fc		 mov	 edi, esp
  00211	6a 5a		 push	 90			; 0000005aH
  00213	8b 85 bc fe ff
	ff		 mov	 eax, DWORD PTR _hDC$[ebp]
  00219	50		 push	 eax
  0021a	ff 15 00 00 00
	00		 call	 DWORD PTR __imp__GetDeviceCaps@8
  00220	3b fc		 cmp	 edi, esp
  00222	e8 00 00 00 00	 call	 __RTC_CheckEsp
  00227	89 85 44 fd ff
	ff		 mov	 DWORD PTR tv427[ebp], eax
  0022d	db 85 44 fd ff
	ff		 fild	 DWORD PTR tv427[ebp]
  00233	8b 4d f8	 mov	 ecx, DWORD PTR _this$[ebp]
  00236	d8 49 6c	 fmul	 DWORD PTR [ecx+108]
  00239	e8 00 00 00 00	 call	 __ftol2
  0023e	50		 push	 eax
  0023f	8b 55 f8	 mov	 edx, DWORD PTR _this$[ebp]
  00242	8b 42 50	 mov	 eax, DWORD PTR [edx+80]
  00245	50		 push	 eax
  00246	ff 15 00 00 00
	00		 call	 DWORD PTR __imp__MulDiv@12
  0024c	3b f4		 cmp	 esi, esp
  0024e	e8 00 00 00 00	 call	 __RTC_CheckEsp
  00253	f7 d8		 neg	 eax
  00255	89 85 a4 fe ff
	ff		 mov	 DWORD PTR _nHeight$[ebp], eax

; 144  :     DWORD dwBold   = (m_dwFontFlags&D3DFONT_BOLD)   ? FW_BOLD : FW_NORMAL;

  0025b	8b 45 f8	 mov	 eax, DWORD PTR _this$[ebp]
  0025e	8b 48 54	 mov	 ecx, DWORD PTR [eax+84]
  00261	83 e1 01	 and	 ecx, 1
  00264	f7 d9		 neg	 ecx
  00266	1b c9		 sbb	 ecx, ecx
  00268	81 e1 2c 01 00
	00		 and	 ecx, 300		; 0000012cH
  0026e	81 c1 90 01 00
	00		 add	 ecx, 400		; 00000190H
  00274	89 8d 98 fe ff
	ff		 mov	 DWORD PTR _dwBold$[ebp], ecx

; 145  :     DWORD dwItalic = (m_dwFontFlags&D3DFONT_ITALIC) ? TRUE    : FALSE;

  0027a	8b 45 f8	 mov	 eax, DWORD PTR _this$[ebp]
  0027d	8b 48 54	 mov	 ecx, DWORD PTR [eax+84]
  00280	83 e1 02	 and	 ecx, 2
  00283	f7 d9		 neg	 ecx
  00285	1b c9		 sbb	 ecx, ecx
  00287	f7 d9		 neg	 ecx
  00289	89 8d 8c fe ff
	ff		 mov	 DWORD PTR _dwItalic$[ebp], ecx

; 146  :     HFONT hFont    = CreateFont( nHeight, 0, 0, 0, dwBold, dwItalic,
; 147  :                           FALSE, FALSE, DEFAULT_CHARSET, OUT_DEFAULT_PRECIS,
; 148  :                           CLIP_DEFAULT_PRECIS, ANTIALIASED_QUALITY,
; 149  :                           VARIABLE_PITCH, m_strFontName );

  0028f	8b f4		 mov	 esi, esp
  00291	8b 45 f8	 mov	 eax, DWORD PTR _this$[ebp]
  00294	50		 push	 eax
  00295	6a 02		 push	 2
  00297	6a 04		 push	 4
  00299	6a 00		 push	 0
  0029b	6a 00		 push	 0
  0029d	6a 01		 push	 1
  0029f	6a 00		 push	 0
  002a1	6a 00		 push	 0
  002a3	8b 8d 8c fe ff
	ff		 mov	 ecx, DWORD PTR _dwItalic$[ebp]
  002a9	51		 push	 ecx
  002aa	8b 95 98 fe ff
	ff		 mov	 edx, DWORD PTR _dwBold$[ebp]
  002b0	52		 push	 edx
  002b1	6a 00		 push	 0
  002b3	6a 00		 push	 0
  002b5	6a 00		 push	 0
  002b7	8b 85 a4 fe ff
	ff		 mov	 eax, DWORD PTR _nHeight$[ebp]
  002bd	50		 push	 eax
  002be	ff 15 00 00 00
	00		 call	 DWORD PTR __imp__CreateFontA@56
  002c4	3b f4		 cmp	 esi, esp
  002c6	e8 00 00 00 00	 call	 __RTC_CheckEsp
  002cb	89 85 80 fe ff
	ff		 mov	 DWORD PTR _hFont$[ebp], eax

; 150  :     if( NULL==hFont )

  002d1	83 bd 80 fe ff
	ff 00		 cmp	 DWORD PTR _hFont$[ebp], 0
  002d8	75 0a		 jne	 SHORT $L80320

; 151  :         return E_FAIL;

  002da	b8 05 40 00 80	 mov	 eax, -2147467259	; 80004005H
  002df	e9 54 04 00 00	 jmp	 $L80294
$L80320:

; 152  : 
; 153  :     SelectObject( hDC, hbmBitmap );

  002e4	8b f4		 mov	 esi, esp
  002e6	8b 85 b0 fe ff
	ff		 mov	 eax, DWORD PTR _hbmBitmap$[ebp]
  002ec	50		 push	 eax
  002ed	8b 8d bc fe ff
	ff		 mov	 ecx, DWORD PTR _hDC$[ebp]
  002f3	51		 push	 ecx
  002f4	ff 15 00 00 00
	00		 call	 DWORD PTR __imp__SelectObject@8
  002fa	3b f4		 cmp	 esi, esp
  002fc	e8 00 00 00 00	 call	 __RTC_CheckEsp

; 154  :     SelectObject( hDC, hFont );

  00301	8b f4		 mov	 esi, esp
  00303	8b 85 80 fe ff
	ff		 mov	 eax, DWORD PTR _hFont$[ebp]
  00309	50		 push	 eax
  0030a	8b 8d bc fe ff
	ff		 mov	 ecx, DWORD PTR _hDC$[ebp]
  00310	51		 push	 ecx
  00311	ff 15 00 00 00
	00		 call	 DWORD PTR __imp__SelectObject@8
  00317	3b f4		 cmp	 esi, esp
  00319	e8 00 00 00 00	 call	 __RTC_CheckEsp

; 155  : 
; 156  :     // Set text properties
; 157  :     SetTextColor( hDC, RGB(255,255,255) );

  0031e	8b f4		 mov	 esi, esp
  00320	68 ff ff ff 00	 push	 16777215		; 00ffffffH
  00325	8b 85 bc fe ff
	ff		 mov	 eax, DWORD PTR _hDC$[ebp]
  0032b	50		 push	 eax
  0032c	ff 15 00 00 00
	00		 call	 DWORD PTR __imp__SetTextColor@8
  00332	3b f4		 cmp	 esi, esp
  00334	e8 00 00 00 00	 call	 __RTC_CheckEsp

; 158  :     SetBkColor(   hDC, 0x00000000 );

  00339	8b f4		 mov	 esi, esp
  0033b	6a 00		 push	 0
  0033d	8b 85 bc fe ff
	ff		 mov	 eax, DWORD PTR _hDC$[ebp]
  00343	50		 push	 eax
  00344	ff 15 00 00 00
	00		 call	 DWORD PTR __imp__SetBkColor@8
  0034a	3b f4		 cmp	 esi, esp
  0034c	e8 00 00 00 00	 call	 __RTC_CheckEsp

; 159  :     SetTextAlign( hDC, TA_TOP );

  00351	8b f4		 mov	 esi, esp
  00353	6a 00		 push	 0
  00355	8b 85 bc fe ff
	ff		 mov	 eax, DWORD PTR _hDC$[ebp]
  0035b	50		 push	 eax
  0035c	ff 15 00 00 00
	00		 call	 DWORD PTR __imp__SetTextAlign@8
  00362	3b f4		 cmp	 esi, esp
  00364	e8 00 00 00 00	 call	 __RTC_CheckEsp

; 160  : 
; 161  :     // Loop through all printable character and output them to the bitmap..
; 162  :     // Meanwhile, keep track of the corresponding tex coords for each character.
; 163  :     DWORD x = 0;

  00369	c7 85 74 fe ff
	ff 00 00 00 00	 mov	 DWORD PTR _x$[ebp], 0

; 164  :     DWORD y = 0;

  00373	c7 85 68 fe ff
	ff 00 00 00 00	 mov	 DWORD PTR _y$[ebp], 0

; 165  :     TCHAR str[2] = _T("x");

  0037d	66 a1 00 00 00
	00		 mov	 ax, WORD PTR ??_C@_01FJMABOPO@x?$AA@
  00383	66 89 85 5c fe
	ff ff		 mov	 WORD PTR _str$[ebp], ax

; 166  :     SIZE size;
; 167  : 
; 168  :     for( TCHAR c=32; c<127; c++ )

  0038a	c6 85 43 fe ff
	ff 20		 mov	 BYTE PTR _c$80333[ebp], 32 ; 00000020H
  00391	eb 0e		 jmp	 SHORT $L80334
$L80335:
  00393	8a 85 43 fe ff
	ff		 mov	 al, BYTE PTR _c$80333[ebp]
  00399	04 01		 add	 al, 1
  0039b	88 85 43 fe ff
	ff		 mov	 BYTE PTR _c$80333[ebp], al
$L80334:
  003a1	0f be 85 43 fe
	ff ff		 movsx	 eax, BYTE PTR _c$80333[ebp]
  003a8	83 f8 7f	 cmp	 eax, 127		; 0000007fH
  003ab	0f 8d fc 01 00
	00		 jge	 $L80336

; 169  :     {
; 170  :         str[0] = c;

  003b1	8a 85 43 fe ff
	ff		 mov	 al, BYTE PTR _c$80333[ebp]
  003b7	88 85 5c fe ff
	ff		 mov	 BYTE PTR _str$[ebp], al

; 171  :         GetTextExtentPoint32( hDC, str, 1, &size );

  003bd	8b f4		 mov	 esi, esp
  003bf	8d 85 4c fe ff
	ff		 lea	 eax, DWORD PTR _size$[ebp]
  003c5	50		 push	 eax
  003c6	6a 01		 push	 1
  003c8	8d 8d 5c fe ff
	ff		 lea	 ecx, DWORD PTR _str$[ebp]
  003ce	51		 push	 ecx
  003cf	8b 95 bc fe ff
	ff		 mov	 edx, DWORD PTR _hDC$[ebp]
  003d5	52		 push	 edx
  003d6	ff 15 00 00 00
	00		 call	 DWORD PTR __imp__GetTextExtentPoint32A@16
  003dc	3b f4		 cmp	 esi, esp
  003de	e8 00 00 00 00	 call	 __RTC_CheckEsp

; 172  : 
; 173  :         if( (DWORD)(x+size.cx+1) > m_dwTexWidth )

  003e3	8b 85 4c fe ff
	ff		 mov	 eax, DWORD PTR _size$[ebp]
  003e9	8b 8d 74 fe ff
	ff		 mov	 ecx, DWORD PTR _x$[ebp]
  003ef	8d 54 01 01	 lea	 edx, DWORD PTR [ecx+eax+1]
  003f3	8b 45 f8	 mov	 eax, DWORD PTR _this$[ebp]
  003f6	3b 50 64	 cmp	 edx, DWORD PTR [eax+100]
  003f9	76 20		 jbe	 SHORT $L80338

; 174  :         {
; 175  :             x  = 0;

  003fb	c7 85 74 fe ff
	ff 00 00 00 00	 mov	 DWORD PTR _x$[ebp], 0

; 176  :             y += size.cy+1;

  00405	8b 85 50 fe ff
	ff		 mov	 eax, DWORD PTR _size$[ebp+4]
  0040b	8b 8d 68 fe ff
	ff		 mov	 ecx, DWORD PTR _y$[ebp]
  00411	8d 54 01 01	 lea	 edx, DWORD PTR [ecx+eax+1]
  00415	89 95 68 fe ff
	ff		 mov	 DWORD PTR _y$[ebp], edx
$L80338:

; 177  :         }
; 178  : 
; 179  :         ExtTextOut( hDC, x+0, y+0, ETO_OPAQUE, NULL, str, 1, NULL );

  0041b	8b f4		 mov	 esi, esp
  0041d	6a 00		 push	 0
  0041f	6a 01		 push	 1
  00421	8d 85 5c fe ff
	ff		 lea	 eax, DWORD PTR _str$[ebp]
  00427	50		 push	 eax
  00428	6a 00		 push	 0
  0042a	6a 02		 push	 2
  0042c	8b 8d 68 fe ff
	ff		 mov	 ecx, DWORD PTR _y$[ebp]
  00432	51		 push	 ecx
  00433	8b 95 74 fe ff
	ff		 mov	 edx, DWORD PTR _x$[ebp]
  00439	52		 push	 edx
  0043a	8b 85 bc fe ff
	ff		 mov	 eax, DWORD PTR _hDC$[ebp]
  00440	50		 push	 eax
  00441	ff 15 00 00 00
	00		 call	 DWORD PTR __imp__ExtTextOutA@32
  00447	3b f4		 cmp	 esi, esp
  00449	e8 00 00 00 00	 call	 __RTC_CheckEsp

; 180  : 
; 181  :         m_fTexCoords[c-32][0] = ((FLOAT)(x+0))/m_dwTexWidth;

  0044e	8b 85 74 fe ff
	ff		 mov	 eax, DWORD PTR _x$[ebp]
  00454	89 85 40 fd ff
	ff		 mov	 DWORD PTR tv490[ebp], eax
  0045a	c7 85 44 fd ff
	ff 00 00 00 00	 mov	 DWORD PTR tv490[ebp+4], 0
  00464	df ad 40 fd ff
	ff		 fild	 QWORD PTR tv490[ebp]
  0046a	8b 4d f8	 mov	 ecx, DWORD PTR _this$[ebp]
  0046d	8b 51 64	 mov	 edx, DWORD PTR [ecx+100]
  00470	89 95 38 fd ff
	ff		 mov	 DWORD PTR tv495[ebp], edx
  00476	c7 85 3c fd ff
	ff 00 00 00 00	 mov	 DWORD PTR tv495[ebp+4], 0
  00480	df ad 38 fd ff
	ff		 fild	 QWORD PTR tv495[ebp]
  00486	de f9		 fdivp	 ST(1), ST(0)
  00488	0f be 85 43 fe
	ff ff		 movsx	 eax, BYTE PTR _c$80333[ebp]
  0048f	83 e8 20	 sub	 eax, 32			; 00000020H
  00492	c1 e0 04	 shl	 eax, 4
  00495	8b 4d f8	 mov	 ecx, DWORD PTR _this$[ebp]
  00498	d9 5c 01 70	 fstp	 DWORD PTR [ecx+eax+112]

; 182  :         m_fTexCoords[c-32][1] = ((FLOAT)(y+0))/m_dwTexHeight;

  0049c	8b 85 68 fe ff
	ff		 mov	 eax, DWORD PTR _y$[ebp]
  004a2	89 85 40 fd ff
	ff		 mov	 DWORD PTR tv500[ebp], eax
  004a8	c7 85 44 fd ff
	ff 00 00 00 00	 mov	 DWORD PTR tv500[ebp+4], 0
  004b2	df ad 40 fd ff
	ff		 fild	 QWORD PTR tv500[ebp]
  004b8	8b 4d f8	 mov	 ecx, DWORD PTR _this$[ebp]
  004bb	8b 51 68	 mov	 edx, DWORD PTR [ecx+104]
  004be	89 95 38 fd ff
	ff		 mov	 DWORD PTR tv505[ebp], edx
  004c4	c7 85 3c fd ff
	ff 00 00 00 00	 mov	 DWORD PTR tv505[ebp+4], 0
  004ce	df ad 38 fd ff
	ff		 fild	 QWORD PTR tv505[ebp]
  004d4	de f9		 fdivp	 ST(1), ST(0)
  004d6	0f be 85 43 fe
	ff ff		 movsx	 eax, BYTE PTR _c$80333[ebp]
  004dd	83 e8 20	 sub	 eax, 32			; 00000020H
  004e0	c1 e0 04	 shl	 eax, 4
  004e3	8b 4d f8	 mov	 ecx, DWORD PTR _this$[ebp]
  004e6	d9 5c 01 74	 fstp	 DWORD PTR [ecx+eax+116]

; 183  :         m_fTexCoords[c-32][2] = ((FLOAT)(x+0+size.cx))/m_dwTexWidth;

  004ea	8b 85 74 fe ff
	ff		 mov	 eax, DWORD PTR _x$[ebp]
  004f0	03 85 4c fe ff
	ff		 add	 eax, DWORD PTR _size$[ebp]
  004f6	89 85 40 fd ff
	ff		 mov	 DWORD PTR tv510[ebp], eax
  004fc	c7 85 44 fd ff
	ff 00 00 00 00	 mov	 DWORD PTR tv510[ebp+4], 0
  00506	df ad 40 fd ff
	ff		 fild	 QWORD PTR tv510[ebp]
  0050c	8b 4d f8	 mov	 ecx, DWORD PTR _this$[ebp]
  0050f	8b 51 64	 mov	 edx, DWORD PTR [ecx+100]
  00512	89 95 38 fd ff
	ff		 mov	 DWORD PTR tv515[ebp], edx
  00518	c7 85 3c fd ff
	ff 00 00 00 00	 mov	 DWORD PTR tv515[ebp+4], 0
  00522	df ad 38 fd ff
	ff		 fild	 QWORD PTR tv515[ebp]
  00528	de f9		 fdivp	 ST(1), ST(0)
  0052a	0f be 85 43 fe
	ff ff		 movsx	 eax, BYTE PTR _c$80333[ebp]
  00531	83 e8 20	 sub	 eax, 32			; 00000020H
  00534	c1 e0 04	 shl	 eax, 4
  00537	8b 4d f8	 mov	 ecx, DWORD PTR _this$[ebp]
  0053a	d9 5c 01 78	 fstp	 DWORD PTR [ecx+eax+120]

; 184  :         m_fTexCoords[c-32][3] = ((FLOAT)(y+0+size.cy))/m_dwTexHeight;

  0053e	8b 85 68 fe ff
	ff		 mov	 eax, DWORD PTR _y$[ebp]
  00544	03 85 50 fe ff
	ff		 add	 eax, DWORD PTR _size$[ebp+4]
  0054a	89 85 40 fd ff
	ff		 mov	 DWORD PTR tv520[ebp], eax
  00550	c7 85 44 fd ff
	ff 00 00 00 00	 mov	 DWORD PTR tv520[ebp+4], 0
  0055a	df ad 40 fd ff
	ff		 fild	 QWORD PTR tv520[ebp]
  00560	8b 4d f8	 mov	 ecx, DWORD PTR _this$[ebp]
  00563	8b 51 68	 mov	 edx, DWORD PTR [ecx+104]
  00566	89 95 38 fd ff
	ff		 mov	 DWORD PTR tv525[ebp], edx
  0056c	c7 85 3c fd ff
	ff 00 00 00 00	 mov	 DWORD PTR tv525[ebp+4], 0
  00576	df ad 38 fd ff
	ff		 fild	 QWORD PTR tv525[ebp]
  0057c	de f9		 fdivp	 ST(1), ST(0)
  0057e	0f be 85 43 fe
	ff ff		 movsx	 eax, BYTE PTR _c$80333[ebp]
  00585	83 e8 20	 sub	 eax, 32			; 00000020H
  00588	c1 e0 04	 shl	 eax, 4
  0058b	8b 4d f8	 mov	 ecx, DWORD PTR _this$[ebp]
  0058e	d9 5c 01 7c	 fstp	 DWORD PTR [ecx+eax+124]

; 185  : 
; 186  :         x += size.cx+1;

  00592	8b 85 4c fe ff
	ff		 mov	 eax, DWORD PTR _size$[ebp]
  00598	8b 8d 74 fe ff
	ff		 mov	 ecx, DWORD PTR _x$[ebp]
  0059e	8d 54 01 01	 lea	 edx, DWORD PTR [ecx+eax+1]
  005a2	89 95 74 fe ff
	ff		 mov	 DWORD PTR _x$[ebp], edx

; 187  :     }

  005a8	e9 e6 fd ff ff	 jmp	 $L80335
$L80336:

; 188  : 
; 189  :     // Lock the surface and write the alpha values for the set pixels
; 190  :     D3DLOCKED_RECT d3dlr;
; 191  :     m_pTexture->LockRect( 0, &d3dlr, 0, 0 );

  005ad	8b f4		 mov	 esi, esp
  005af	6a 00		 push	 0
  005b1	6a 00		 push	 0
  005b3	8d 85 30 fe ff
	ff		 lea	 eax, DWORD PTR _d3dlr$[ebp]
  005b9	50		 push	 eax
  005ba	6a 00		 push	 0
  005bc	8b 4d f8	 mov	 ecx, DWORD PTR _this$[ebp]
  005bf	8b 51 5c	 mov	 edx, DWORD PTR [ecx+92]
  005c2	8b 45 f8	 mov	 eax, DWORD PTR _this$[ebp]
  005c5	8b 48 5c	 mov	 ecx, DWORD PTR [eax+92]
  005c8	8b 12		 mov	 edx, DWORD PTR [edx]
  005ca	51		 push	 ecx
  005cb	ff 52 40	 call	 DWORD PTR [edx+64]
  005ce	3b f4		 cmp	 esi, esp
  005d0	e8 00 00 00 00	 call	 __RTC_CheckEsp

; 192  :     BYTE* pDstRow = (BYTE*)d3dlr.pBits;

  005d5	8b 85 34 fe ff
	ff		 mov	 eax, DWORD PTR _d3dlr$[ebp+4]
  005db	89 85 24 fe ff
	ff		 mov	 DWORD PTR _pDstRow$[ebp], eax

; 193  :     WORD* pDst16;
; 194  :     BYTE bAlpha; // 4-bit measure of pixel intensity
; 195  : 
; 196  :     for( y=0; y < m_dwTexHeight; y++ )

  005e1	c7 85 68 fe ff
	ff 00 00 00 00	 mov	 DWORD PTR _y$[ebp], 0
  005eb	eb 0f		 jmp	 SHORT $L80348
$L80349:
  005ed	8b 85 68 fe ff
	ff		 mov	 eax, DWORD PTR _y$[ebp]
  005f3	83 c0 01	 add	 eax, 1
  005f6	89 85 68 fe ff
	ff		 mov	 DWORD PTR _y$[ebp], eax
$L80348:
  005fc	8b 45 f8	 mov	 eax, DWORD PTR _this$[ebp]
  005ff	8b 8d 68 fe ff
	ff		 mov	 ecx, DWORD PTR _y$[ebp]
  00605	3b 48 68	 cmp	 ecx, DWORD PTR [eax+104]
  00608	0f 83 c9 00 00
	00		 jae	 $L80350

; 197  :     {
; 198  :         pDst16 = (WORD*)pDstRow;

  0060e	8b 85 24 fe ff
	ff		 mov	 eax, DWORD PTR _pDstRow$[ebp]
  00614	89 85 18 fe ff
	ff		 mov	 DWORD PTR _pDst16$[ebp], eax

; 199  :         for( x=0; x < m_dwTexWidth; x++ )

  0061a	c7 85 74 fe ff
	ff 00 00 00 00	 mov	 DWORD PTR _x$[ebp], 0
  00624	eb 0f		 jmp	 SHORT $L80352
$L80353:
  00626	8b 85 74 fe ff
	ff		 mov	 eax, DWORD PTR _x$[ebp]
  0062c	83 c0 01	 add	 eax, 1
  0062f	89 85 74 fe ff
	ff		 mov	 DWORD PTR _x$[ebp], eax
$L80352:
  00635	8b 45 f8	 mov	 eax, DWORD PTR _this$[ebp]
  00638	8b 8d 74 fe ff
	ff		 mov	 ecx, DWORD PTR _x$[ebp]
  0063e	3b 48 64	 cmp	 ecx, DWORD PTR [eax+100]
  00641	73 7d		 jae	 SHORT $L80354

; 200  :         {
; 201  :             bAlpha = (BYTE)((pBitmapBits[m_dwTexWidth*y + x] & 0xff) >> 4);

  00643	8b 45 f8	 mov	 eax, DWORD PTR _this$[ebp]
  00646	8b 48 64	 mov	 ecx, DWORD PTR [eax+100]
  00649	0f af 8d 68 fe
	ff ff		 imul	 ecx, DWORD PTR _y$[ebp]
  00650	03 8d 74 fe ff
	ff		 add	 ecx, DWORD PTR _x$[ebp]
  00656	8b 95 fc fe ff
	ff		 mov	 edx, DWORD PTR _pBitmapBits$[ebp]
  0065c	8b 04 8a	 mov	 eax, DWORD PTR [edx+ecx*4]
  0065f	25 ff 00 00 00	 and	 eax, 255		; 000000ffH
  00664	c1 e8 04	 shr	 eax, 4
  00667	88 85 0f fe ff
	ff		 mov	 BYTE PTR _bAlpha$[ebp], al

; 202  :             if (bAlpha > 0)

  0066d	0f b6 85 0f fe
	ff ff		 movzx	 eax, BYTE PTR _bAlpha$[ebp]
  00674	85 c0		 test	 eax, eax
  00676	7e 29		 jle	 SHORT $L80356

; 203  :             {
; 204  :                 *pDst16++ = (bAlpha << 12) | 0x0fff;

  00678	0f b6 85 0f fe
	ff ff		 movzx	 eax, BYTE PTR _bAlpha$[ebp]
  0067f	c1 e0 0c	 shl	 eax, 12			; 0000000cH
  00682	0d ff 0f 00 00	 or	 eax, 4095		; 00000fffH
  00687	8b 8d 18 fe ff
	ff		 mov	 ecx, DWORD PTR _pDst16$[ebp]
  0068d	66 89 01	 mov	 WORD PTR [ecx], ax
  00690	8b 95 18 fe ff
	ff		 mov	 edx, DWORD PTR _pDst16$[ebp]
  00696	83 c2 02	 add	 edx, 2
  00699	89 95 18 fe ff
	ff		 mov	 DWORD PTR _pDst16$[ebp], edx

; 205  :             }
; 206  :             else

  0069f	eb 1a		 jmp	 SHORT $L80357
$L80356:

; 207  :             {
; 208  :                 *pDst16++ = 0x0000;

  006a1	8b 85 18 fe ff
	ff		 mov	 eax, DWORD PTR _pDst16$[ebp]
  006a7	66 c7 00 00 00	 mov	 WORD PTR [eax], 0
  006ac	8b 8d 18 fe ff
	ff		 mov	 ecx, DWORD PTR _pDst16$[ebp]
  006b2	83 c1 02	 add	 ecx, 2
  006b5	89 8d 18 fe ff
	ff		 mov	 DWORD PTR _pDst16$[ebp], ecx
$L80357:

; 209  :             }
; 210  :         }

  006bb	e9 66 ff ff ff	 jmp	 $L80353
$L80354:

; 211  :         pDstRow += d3dlr.Pitch;

  006c0	8b 85 24 fe ff
	ff		 mov	 eax, DWORD PTR _pDstRow$[ebp]
  006c6	03 85 30 fe ff
	ff		 add	 eax, DWORD PTR _d3dlr$[ebp]
  006cc	89 85 24 fe ff
	ff		 mov	 DWORD PTR _pDstRow$[ebp], eax

; 212  :     }

  006d2	e9 16 ff ff ff	 jmp	 $L80349
$L80350:

; 213  : 
; 214  :     // Done updating texture, so clean up used objects
; 215  :     m_pTexture->UnlockRect(0);

  006d7	8b f4		 mov	 esi, esp
  006d9	6a 00		 push	 0
  006db	8b 45 f8	 mov	 eax, DWORD PTR _this$[ebp]
  006de	8b 48 5c	 mov	 ecx, DWORD PTR [eax+92]
  006e1	8b 55 f8	 mov	 edx, DWORD PTR _this$[ebp]
  006e4	8b 42 5c	 mov	 eax, DWORD PTR [edx+92]
  006e7	8b 09		 mov	 ecx, DWORD PTR [ecx]
  006e9	50		 push	 eax
  006ea	ff 51 44	 call	 DWORD PTR [ecx+68]
  006ed	3b f4		 cmp	 esi, esp
  006ef	e8 00 00 00 00	 call	 __RTC_CheckEsp

; 216  :     DeleteObject( hbmBitmap );

  006f4	8b f4		 mov	 esi, esp
  006f6	8b 85 b0 fe ff
	ff		 mov	 eax, DWORD PTR _hbmBitmap$[ebp]
  006fc	50		 push	 eax
  006fd	ff 15 00 00 00
	00		 call	 DWORD PTR __imp__DeleteObject@4
  00703	3b f4		 cmp	 esi, esp
  00705	e8 00 00 00 00	 call	 __RTC_CheckEsp

; 217  :     DeleteDC( hDC );

  0070a	8b f4		 mov	 esi, esp
  0070c	8b 85 bc fe ff
	ff		 mov	 eax, DWORD PTR _hDC$[ebp]
  00712	50		 push	 eax
  00713	ff 15 00 00 00
	00		 call	 DWORD PTR __imp__DeleteDC@4
  00719	3b f4		 cmp	 esi, esp
  0071b	e8 00 00 00 00	 call	 __RTC_CheckEsp

; 218  :     DeleteObject( hFont );

  00720	8b f4		 mov	 esi, esp
  00722	8b 85 80 fe ff
	ff		 mov	 eax, DWORD PTR _hFont$[ebp]
  00728	50		 push	 eax
  00729	ff 15 00 00 00
	00		 call	 DWORD PTR __imp__DeleteObject@4
  0072f	3b f4		 cmp	 esi, esp
  00731	e8 00 00 00 00	 call	 __RTC_CheckEsp

; 219  : 
; 220  :     return S_OK;

  00736	33 c0		 xor	 eax, eax
$L80294:

; 221  : }

  00738	52		 push	 edx
  00739	8b cd		 mov	 ecx, ebp
  0073b	50		 push	 eax
  0073c	8d 15 00 00 00
	00		 lea	 edx, DWORD PTR $L80702
  00742	e8 00 00 00 00	 call	 @_RTC_CheckStackVars@8
  00747	58		 pop	 eax
  00748	5a		 pop	 edx
  00749	5f		 pop	 edi
  0074a	5e		 pop	 esi
  0074b	5b		 pop	 ebx
  0074c	81 c4 c8 02 00
	00		 add	 esp, 712		; 000002c8H
  00752	3b ec		 cmp	 ebp, esp
  00754	e8 00 00 00 00	 call	 __RTC_CheckEsp
  00759	8b e5		 mov	 esp, ebp
  0075b	5d		 pop	 ebp
  0075c	c2 04 00	 ret	 4
$L80702:
  0075f	06 00 00 00	 DD	 6
  00763	00 00 00 00	 DD	 $L80701
$L80701:
  00767	08 ff ff ff	 DD	 -248			; ffffff08H
  0076b	d4 00 00 00	 DD	 212			; 000000d4H
  0076f	00 00 00 00	 DD	 $L80695
  00773	fc fe ff ff	 DD	 -260			; fffffefcH
  00777	04 00 00 00	 DD	 4
  0077b	00 00 00 00	 DD	 $L80696
  0077f	c8 fe ff ff	 DD	 -312			; fffffec8H
  00783	2c 00 00 00	 DD	 44			; 0000002cH
  00787	00 00 00 00	 DD	 $L80697
  0078b	5c fe ff ff	 DD	 -420			; fffffe5cH
  0078f	02 00 00 00	 DD	 2
  00793	00 00 00 00	 DD	 $L80698
  00797	4c fe ff ff	 DD	 -436			; fffffe4cH
  0079b	08 00 00 00	 DD	 8
  0079f	00 00 00 00	 DD	 $L80699
  007a3	30 fe ff ff	 DD	 -464			; fffffe30H
  007a7	08 00 00 00	 DD	 8
  007ab	00 00 00 00	 DD	 $L80700
$L80700:
  007af	64		 DB	 100			; 00000064H
  007b0	33		 DB	 51			; 00000033H
  007b1	64		 DB	 100			; 00000064H
  007b2	6c		 DB	 108			; 0000006cH
  007b3	72		 DB	 114			; 00000072H
  007b4	00		 DB	 0
$L80699:
  007b5	73		 DB	 115			; 00000073H
  007b6	69		 DB	 105			; 00000069H
  007b7	7a		 DB	 122			; 0000007aH
  007b8	65		 DB	 101			; 00000065H
  007b9	00		 DB	 0
$L80698:
  007ba	73		 DB	 115			; 00000073H
  007bb	74		 DB	 116			; 00000074H
  007bc	72		 DB	 114			; 00000072H
  007bd	00		 DB	 0
$L80697:
  007be	62		 DB	 98			; 00000062H
  007bf	6d		 DB	 109			; 0000006dH
  007c0	69		 DB	 105			; 00000069H
  007c1	00		 DB	 0
$L80696:
  007c2	70		 DB	 112			; 00000070H
  007c3	42		 DB	 66			; 00000042H
  007c4	69		 DB	 105			; 00000069H
  007c5	74		 DB	 116			; 00000074H
  007c6	6d		 DB	 109			; 0000006dH
  007c7	61		 DB	 97			; 00000061H
  007c8	70		 DB	 112			; 00000070H
  007c9	42		 DB	 66			; 00000042H
  007ca	69		 DB	 105			; 00000069H
  007cb	74		 DB	 116			; 00000074H
  007cc	73		 DB	 115			; 00000073H
  007cd	00		 DB	 0
$L80695:
  007ce	64		 DB	 100			; 00000064H
  007cf	33		 DB	 51			; 00000033H
  007d0	64		 DB	 100			; 00000064H
  007d1	43		 DB	 67			; 00000043H
  007d2	61		 DB	 97			; 00000061H
  007d3	70		 DB	 112			; 00000070H
  007d4	73		 DB	 115			; 00000073H
  007d5	00		 DB	 0
?InitDeviceObjects@CD3DFont@@QAEJPAUIDirect3DDevice8@@@Z ENDP ; CD3DFont::InitDeviceObjects
_TEXT	ENDS
PUBLIC	?RestoreDeviceObjects@CD3DFont@@QAEJXZ		; CD3DFont::RestoreDeviceObjects
; Function compile flags: /Odt /RTCsu /ZI
;	COMDAT ?RestoreDeviceObjects@CD3DFont@@QAEJXZ
_TEXT	SEGMENT
_which$80366 = -32
_hr$ = -20
_this$ = -8
?RestoreDeviceObjects@CD3DFont@@QAEJXZ PROC NEAR	; CD3DFont::RestoreDeviceObjects, COMDAT
; _this$ = ecx

; 231  : {

  00000	55		 push	 ebp
  00001	8b ec		 mov	 ebp, esp
  00003	81 ec e4 00 00
	00		 sub	 esp, 228		; 000000e4H
  00009	53		 push	 ebx
  0000a	56		 push	 esi
  0000b	57		 push	 edi
  0000c	51		 push	 ecx
  0000d	8d bd 1c ff ff
	ff		 lea	 edi, DWORD PTR [ebp-228]
  00013	b9 39 00 00 00	 mov	 ecx, 57			; 00000039H
  00018	b8 cc cc cc cc	 mov	 eax, -858993460		; ccccccccH
  0001d	f3 ab		 rep stosd
  0001f	59		 pop	 ecx
  00020	89 4d f8	 mov	 DWORD PTR _this$[ebp], ecx

; 232  :     HRESULT hr;
; 233  : 
; 234  :     // Create vertex buffer for the letters
; 235  :     if( FAILED( hr = m_pd3dDevice->CreateVertexBuffer( MAX_NUM_VERTICES*sizeof(FONT2DVERTEX),
; 236  :                                                        D3DUSAGE_WRITEONLY | D3DUSAGE_DYNAMIC, 0,
; 237  :                                                        D3DPOOL_DEFAULT, &m_pVB ) ) )

  00023	8b 45 f8	 mov	 eax, DWORD PTR _this$[ebp]
  00026	83 c0 60	 add	 eax, 96			; 00000060H
  00029	8b f4		 mov	 esi, esp
  0002b	50		 push	 eax
  0002c	6a 00		 push	 0
  0002e	6a 00		 push	 0
  00030	68 08 02 00 00	 push	 520			; 00000208H
  00035	68 d0 20 00 00	 push	 8400			; 000020d0H
  0003a	8b 4d f8	 mov	 ecx, DWORD PTR _this$[ebp]
  0003d	8b 51 58	 mov	 edx, DWORD PTR [ecx+88]
  00040	8b 45 f8	 mov	 eax, DWORD PTR _this$[ebp]
  00043	8b 48 58	 mov	 ecx, DWORD PTR [eax+88]
  00046	8b 12		 mov	 edx, DWORD PTR [edx]
  00048	51		 push	 ecx
  00049	ff 52 5c	 call	 DWORD PTR [edx+92]
  0004c	3b f4		 cmp	 esi, esp
  0004e	e8 00 00 00 00	 call	 __RTC_CheckEsp
  00053	89 45 ec	 mov	 DWORD PTR _hr$[ebp], eax
  00056	83 7d ec 00	 cmp	 DWORD PTR _hr$[ebp], 0
  0005a	7d 08		 jge	 SHORT $L80365

; 238  :     {
; 239  :         return hr;

  0005c	8b 45 ec	 mov	 eax, DWORD PTR _hr$[ebp]
  0005f	e9 ef 04 00 00	 jmp	 $L80361
$L80365:

; 240  :     }
; 241  : 
; 242  :     // Create the state blocks for rendering text
; 243  :     for( UINT which=0; which<2; which++ )

  00064	c7 45 e0 00 00
	00 00		 mov	 DWORD PTR _which$80366[ebp], 0
  0006b	eb 09		 jmp	 SHORT $L80367
$L80368:
  0006d	8b 45 e0	 mov	 eax, DWORD PTR _which$80366[ebp]
  00070	83 c0 01	 add	 eax, 1
  00073	89 45 e0	 mov	 DWORD PTR _which$80366[ebp], eax
$L80367:
  00076	83 7d e0 02	 cmp	 DWORD PTR _which$80366[ebp], 2
  0007a	0f 83 d1 04 00
	00		 jae	 $L80369

; 244  :     {
; 245  :         m_pd3dDevice->BeginStateBlock();

  00080	8b 45 f8	 mov	 eax, DWORD PTR _this$[ebp]
  00083	8b 48 58	 mov	 ecx, DWORD PTR [eax+88]
  00086	8b 55 f8	 mov	 edx, DWORD PTR _this$[ebp]
  00089	8b 42 58	 mov	 eax, DWORD PTR [edx+88]
  0008c	8b 09		 mov	 ecx, DWORD PTR [ecx]
  0008e	8b f4		 mov	 esi, esp
  00090	50		 push	 eax
  00091	ff 91 d0 00 00
	00		 call	 DWORD PTR [ecx+208]
  00097	3b f4		 cmp	 esi, esp
  00099	e8 00 00 00 00	 call	 __RTC_CheckEsp

; 246  :         m_pd3dDevice->SetTexture( 0, m_pTexture );

  0009e	8b f4		 mov	 esi, esp
  000a0	8b 45 f8	 mov	 eax, DWORD PTR _this$[ebp]
  000a3	8b 48 5c	 mov	 ecx, DWORD PTR [eax+92]
  000a6	51		 push	 ecx
  000a7	6a 00		 push	 0
  000a9	8b 55 f8	 mov	 edx, DWORD PTR _this$[ebp]
  000ac	8b 42 58	 mov	 eax, DWORD PTR [edx+88]
  000af	8b 4d f8	 mov	 ecx, DWORD PTR _this$[ebp]
  000b2	8b 51 58	 mov	 edx, DWORD PTR [ecx+88]
  000b5	8b 00		 mov	 eax, DWORD PTR [eax]
  000b7	52		 push	 edx
  000b8	ff 90 f4 00 00
	00		 call	 DWORD PTR [eax+244]
  000be	3b f4		 cmp	 esi, esp
  000c0	e8 00 00 00 00	 call	 __RTC_CheckEsp

; 247  : 
; 248  :         if ( D3DFONT_ZENABLE & m_dwFontFlags )

  000c5	8b 45 f8	 mov	 eax, DWORD PTR _this$[ebp]
  000c8	8b 48 54	 mov	 ecx, DWORD PTR [eax+84]
  000cb	83 e1 04	 and	 ecx, 4
  000ce	85 c9		 test	 ecx, ecx
  000d0	74 24		 je	 SHORT $L80370

; 249  :             m_pd3dDevice->SetRenderState( D3DRS_ZENABLE, TRUE );

  000d2	8b f4		 mov	 esi, esp
  000d4	6a 01		 push	 1
  000d6	6a 07		 push	 7
  000d8	8b 45 f8	 mov	 eax, DWORD PTR _this$[ebp]
  000db	8b 48 58	 mov	 ecx, DWORD PTR [eax+88]
  000de	8b 55 f8	 mov	 edx, DWORD PTR _this$[ebp]
  000e1	8b 42 58	 mov	 eax, DWORD PTR [edx+88]
  000e4	8b 09		 mov	 ecx, DWORD PTR [ecx]
  000e6	50		 push	 eax
  000e7	ff 91 c8 00 00
	00		 call	 DWORD PTR [ecx+200]
  000ed	3b f4		 cmp	 esi, esp
  000ef	e8 00 00 00 00	 call	 __RTC_CheckEsp

; 250  :         else

  000f4	eb 22		 jmp	 SHORT $L80371
$L80370:

; 251  :             m_pd3dDevice->SetRenderState( D3DRS_ZENABLE, FALSE );

  000f6	8b f4		 mov	 esi, esp
  000f8	6a 00		 push	 0
  000fa	6a 07		 push	 7
  000fc	8b 45 f8	 mov	 eax, DWORD PTR _this$[ebp]
  000ff	8b 48 58	 mov	 ecx, DWORD PTR [eax+88]
  00102	8b 55 f8	 mov	 edx, DWORD PTR _this$[ebp]
  00105	8b 42 58	 mov	 eax, DWORD PTR [edx+88]
  00108	8b 09		 mov	 ecx, DWORD PTR [ecx]
  0010a	50		 push	 eax
  0010b	ff 91 c8 00 00
	00		 call	 DWORD PTR [ecx+200]
  00111	3b f4		 cmp	 esi, esp
  00113	e8 00 00 00 00	 call	 __RTC_CheckEsp
$L80371:

; 252  : 
; 253  :         m_pd3dDevice->SetRenderState( D3DRS_ALPHABLENDENABLE, TRUE );

  00118	8b f4		 mov	 esi, esp
  0011a	6a 01		 push	 1
  0011c	6a 1b		 push	 27			; 0000001bH
  0011e	8b 45 f8	 mov	 eax, DWORD PTR _this$[ebp]
  00121	8b 48 58	 mov	 ecx, DWORD PTR [eax+88]
  00124	8b 55 f8	 mov	 edx, DWORD PTR _this$[ebp]
  00127	8b 42 58	 mov	 eax, DWORD PTR [edx+88]
  0012a	8b 09		 mov	 ecx, DWORD PTR [ecx]
  0012c	50		 push	 eax
  0012d	ff 91 c8 00 00
	00		 call	 DWORD PTR [ecx+200]
  00133	3b f4		 cmp	 esi, esp
  00135	e8 00 00 00 00	 call	 __RTC_CheckEsp

; 254  :         m_pd3dDevice->SetRenderState( D3DRS_SRCBLEND,   D3DBLEND_SRCALPHA );

  0013a	8b f4		 mov	 esi, esp
  0013c	6a 05		 push	 5
  0013e	6a 13		 push	 19			; 00000013H
  00140	8b 45 f8	 mov	 eax, DWORD PTR _this$[ebp]
  00143	8b 48 58	 mov	 ecx, DWORD PTR [eax+88]
  00146	8b 55 f8	 mov	 edx, DWORD PTR _this$[ebp]
  00149	8b 42 58	 mov	 eax, DWORD PTR [edx+88]
  0014c	8b 09		 mov	 ecx, DWORD PTR [ecx]
  0014e	50		 push	 eax
  0014f	ff 91 c8 00 00
	00		 call	 DWORD PTR [ecx+200]
  00155	3b f4		 cmp	 esi, esp
  00157	e8 00 00 00 00	 call	 __RTC_CheckEsp

; 255  :         m_pd3dDevice->SetRenderState( D3DRS_DESTBLEND,  D3DBLEND_INVSRCALPHA );

  0015c	8b f4		 mov	 esi, esp
  0015e	6a 06		 push	 6
  00160	6a 14		 push	 20			; 00000014H
  00162	8b 45 f8	 mov	 eax, DWORD PTR _this$[ebp]
  00165	8b 48 58	 mov	 ecx, DWORD PTR [eax+88]
  00168	8b 55 f8	 mov	 edx, DWORD PTR _this$[ebp]
  0016b	8b 42 58	 mov	 eax, DWORD PTR [edx+88]
  0016e	8b 09		 mov	 ecx, DWORD PTR [ecx]
  00170	50		 push	 eax
  00171	ff 91 c8 00 00
	00		 call	 DWORD PTR [ecx+200]
  00177	3b f4		 cmp	 esi, esp
  00179	e8 00 00 00 00	 call	 __RTC_CheckEsp

; 256  :         m_pd3dDevice->SetRenderState( D3DRS_ALPHATESTENABLE,  TRUE );

  0017e	8b f4		 mov	 esi, esp
  00180	6a 01		 push	 1
  00182	6a 0f		 push	 15			; 0000000fH
  00184	8b 45 f8	 mov	 eax, DWORD PTR _this$[ebp]
  00187	8b 48 58	 mov	 ecx, DWORD PTR [eax+88]
  0018a	8b 55 f8	 mov	 edx, DWORD PTR _this$[ebp]
  0018d	8b 42 58	 mov	 eax, DWORD PTR [edx+88]
  00190	8b 09		 mov	 ecx, DWORD PTR [ecx]
  00192	50		 push	 eax
  00193	ff 91 c8 00 00
	00		 call	 DWORD PTR [ecx+200]
  00199	3b f4		 cmp	 esi, esp
  0019b	e8 00 00 00 00	 call	 __RTC_CheckEsp

; 257  :         m_pd3dDevice->SetRenderState( D3DRS_ALPHAREF,         0x08 );

  001a0	8b f4		 mov	 esi, esp
  001a2	6a 08		 push	 8
  001a4	6a 18		 push	 24			; 00000018H
  001a6	8b 45 f8	 mov	 eax, DWORD PTR _this$[ebp]
  001a9	8b 48 58	 mov	 ecx, DWORD PTR [eax+88]
  001ac	8b 55 f8	 mov	 edx, DWORD PTR _this$[ebp]
  001af	8b 42 58	 mov	 eax, DWORD PTR [edx+88]
  001b2	8b 09		 mov	 ecx, DWORD PTR [ecx]
  001b4	50		 push	 eax
  001b5	ff 91 c8 00 00
	00		 call	 DWORD PTR [ecx+200]
  001bb	3b f4		 cmp	 esi, esp
  001bd	e8 00 00 00 00	 call	 __RTC_CheckEsp

; 258  :         m_pd3dDevice->SetRenderState( D3DRS_ALPHAFUNC,  D3DCMP_GREATEREQUAL );

  001c2	8b f4		 mov	 esi, esp
  001c4	6a 07		 push	 7
  001c6	6a 19		 push	 25			; 00000019H
  001c8	8b 45 f8	 mov	 eax, DWORD PTR _this$[ebp]
  001cb	8b 48 58	 mov	 ecx, DWORD PTR [eax+88]
  001ce	8b 55 f8	 mov	 edx, DWORD PTR _this$[ebp]
  001d1	8b 42 58	 mov	 eax, DWORD PTR [edx+88]
  001d4	8b 09		 mov	 ecx, DWORD PTR [ecx]
  001d6	50		 push	 eax
  001d7	ff 91 c8 00 00
	00		 call	 DWORD PTR [ecx+200]
  001dd	3b f4		 cmp	 esi, esp
  001df	e8 00 00 00 00	 call	 __RTC_CheckEsp

; 259  :         m_pd3dDevice->SetRenderState( D3DRS_FILLMODE,   D3DFILL_SOLID );

  001e4	8b f4		 mov	 esi, esp
  001e6	6a 03		 push	 3
  001e8	6a 08		 push	 8
  001ea	8b 45 f8	 mov	 eax, DWORD PTR _this$[ebp]
  001ed	8b 48 58	 mov	 ecx, DWORD PTR [eax+88]
  001f0	8b 55 f8	 mov	 edx, DWORD PTR _this$[ebp]
  001f3	8b 42 58	 mov	 eax, DWORD PTR [edx+88]
  001f6	8b 09		 mov	 ecx, DWORD PTR [ecx]
  001f8	50		 push	 eax
  001f9	ff 91 c8 00 00
	00		 call	 DWORD PTR [ecx+200]
  001ff	3b f4		 cmp	 esi, esp
  00201	e8 00 00 00 00	 call	 __RTC_CheckEsp

; 260  :         m_pd3dDevice->SetRenderState( D3DRS_CULLMODE,   D3DCULL_CCW );

  00206	8b f4		 mov	 esi, esp
  00208	6a 03		 push	 3
  0020a	6a 16		 push	 22			; 00000016H
  0020c	8b 45 f8	 mov	 eax, DWORD PTR _this$[ebp]
  0020f	8b 48 58	 mov	 ecx, DWORD PTR [eax+88]
  00212	8b 55 f8	 mov	 edx, DWORD PTR _this$[ebp]
  00215	8b 42 58	 mov	 eax, DWORD PTR [edx+88]
  00218	8b 09		 mov	 ecx, DWORD PTR [ecx]
  0021a	50		 push	 eax
  0021b	ff 91 c8 00 00
	00		 call	 DWORD PTR [ecx+200]
  00221	3b f4		 cmp	 esi, esp
  00223	e8 00 00 00 00	 call	 __RTC_CheckEsp

; 261  :         m_pd3dDevice->SetRenderState( D3DRS_STENCILENABLE,    FALSE );

  00228	8b f4		 mov	 esi, esp
  0022a	6a 00		 push	 0
  0022c	6a 34		 push	 52			; 00000034H
  0022e	8b 45 f8	 mov	 eax, DWORD PTR _this$[ebp]
  00231	8b 48 58	 mov	 ecx, DWORD PTR [eax+88]
  00234	8b 55 f8	 mov	 edx, DWORD PTR _this$[ebp]
  00237	8b 42 58	 mov	 eax, DWORD PTR [edx+88]
  0023a	8b 09		 mov	 ecx, DWORD PTR [ecx]
  0023c	50		 push	 eax
  0023d	ff 91 c8 00 00
	00		 call	 DWORD PTR [ecx+200]
  00243	3b f4		 cmp	 esi, esp
  00245	e8 00 00 00 00	 call	 __RTC_CheckEsp

; 262  :         m_pd3dDevice->SetRenderState( D3DRS_CLIPPING,         TRUE );

  0024a	8b f4		 mov	 esi, esp
  0024c	6a 01		 push	 1
  0024e	68 88 00 00 00	 push	 136			; 00000088H
  00253	8b 45 f8	 mov	 eax, DWORD PTR _this$[ebp]
  00256	8b 48 58	 mov	 ecx, DWORD PTR [eax+88]
  00259	8b 55 f8	 mov	 edx, DWORD PTR _this$[ebp]
  0025c	8b 42 58	 mov	 eax, DWORD PTR [edx+88]
  0025f	8b 09		 mov	 ecx, DWORD PTR [ecx]
  00261	50		 push	 eax
  00262	ff 91 c8 00 00
	00		 call	 DWORD PTR [ecx+200]
  00268	3b f4		 cmp	 esi, esp
  0026a	e8 00 00 00 00	 call	 __RTC_CheckEsp

; 263  :         m_pd3dDevice->SetRenderState( D3DRS_EDGEANTIALIAS,    FALSE );

  0026f	8b f4		 mov	 esi, esp
  00271	6a 00		 push	 0
  00273	6a 28		 push	 40			; 00000028H
  00275	8b 45 f8	 mov	 eax, DWORD PTR _this$[ebp]
  00278	8b 48 58	 mov	 ecx, DWORD PTR [eax+88]
  0027b	8b 55 f8	 mov	 edx, DWORD PTR _this$[ebp]
  0027e	8b 42 58	 mov	 eax, DWORD PTR [edx+88]
  00281	8b 09		 mov	 ecx, DWORD PTR [ecx]
  00283	50		 push	 eax
  00284	ff 91 c8 00 00
	00		 call	 DWORD PTR [ecx+200]
  0028a	3b f4		 cmp	 esi, esp
  0028c	e8 00 00 00 00	 call	 __RTC_CheckEsp

; 264  :         m_pd3dDevice->SetRenderState( D3DRS_CLIPPLANEENABLE,  FALSE );

  00291	8b f4		 mov	 esi, esp
  00293	6a 00		 push	 0
  00295	68 98 00 00 00	 push	 152			; 00000098H
  0029a	8b 45 f8	 mov	 eax, DWORD PTR _this$[ebp]
  0029d	8b 48 58	 mov	 ecx, DWORD PTR [eax+88]
  002a0	8b 55 f8	 mov	 edx, DWORD PTR _this$[ebp]
  002a3	8b 42 58	 mov	 eax, DWORD PTR [edx+88]
  002a6	8b 09		 mov	 ecx, DWORD PTR [ecx]
  002a8	50		 push	 eax
  002a9	ff 91 c8 00 00
	00		 call	 DWORD PTR [ecx+200]
  002af	3b f4		 cmp	 esi, esp
  002b1	e8 00 00 00 00	 call	 __RTC_CheckEsp

; 265  :         m_pd3dDevice->SetRenderState( D3DRS_VERTEXBLEND,      FALSE );

  002b6	8b f4		 mov	 esi, esp
  002b8	6a 00		 push	 0
  002ba	68 97 00 00 00	 push	 151			; 00000097H
  002bf	8b 45 f8	 mov	 eax, DWORD PTR _this$[ebp]
  002c2	8b 48 58	 mov	 ecx, DWORD PTR [eax+88]
  002c5	8b 55 f8	 mov	 edx, DWORD PTR _this$[ebp]
  002c8	8b 42 58	 mov	 eax, DWORD PTR [edx+88]
  002cb	8b 09		 mov	 ecx, DWORD PTR [ecx]
  002cd	50		 push	 eax
  002ce	ff 91 c8 00 00
	00		 call	 DWORD PTR [ecx+200]
  002d4	3b f4		 cmp	 esi, esp
  002d6	e8 00 00 00 00	 call	 __RTC_CheckEsp

; 266  :         m_pd3dDevice->SetRenderState( D3DRS_INDEXEDVERTEXBLENDENABLE, FALSE );

  002db	8b f4		 mov	 esi, esp
  002dd	6a 00		 push	 0
  002df	68 a7 00 00 00	 push	 167			; 000000a7H
  002e4	8b 45 f8	 mov	 eax, DWORD PTR _this$[ebp]
  002e7	8b 48 58	 mov	 ecx, DWORD PTR [eax+88]
  002ea	8b 55 f8	 mov	 edx, DWORD PTR _this$[ebp]
  002ed	8b 42 58	 mov	 eax, DWORD PTR [edx+88]
  002f0	8b 09		 mov	 ecx, DWORD PTR [ecx]
  002f2	50		 push	 eax
  002f3	ff 91 c8 00 00
	00		 call	 DWORD PTR [ecx+200]
  002f9	3b f4		 cmp	 esi, esp
  002fb	e8 00 00 00 00	 call	 __RTC_CheckEsp

; 267  :         m_pd3dDevice->SetRenderState( D3DRS_FOGENABLE,        FALSE );

  00300	8b f4		 mov	 esi, esp
  00302	6a 00		 push	 0
  00304	6a 1c		 push	 28			; 0000001cH
  00306	8b 45 f8	 mov	 eax, DWORD PTR _this$[ebp]
  00309	8b 48 58	 mov	 ecx, DWORD PTR [eax+88]
  0030c	8b 55 f8	 mov	 edx, DWORD PTR _this$[ebp]
  0030f	8b 42 58	 mov	 eax, DWORD PTR [edx+88]
  00312	8b 09		 mov	 ecx, DWORD PTR [ecx]
  00314	50		 push	 eax
  00315	ff 91 c8 00 00
	00		 call	 DWORD PTR [ecx+200]
  0031b	3b f4		 cmp	 esi, esp
  0031d	e8 00 00 00 00	 call	 __RTC_CheckEsp

; 268  :         m_pd3dDevice->SetTextureStageState( 0, D3DTSS_COLOROP,   D3DTOP_MODULATE );

  00322	8b f4		 mov	 esi, esp
  00324	6a 04		 push	 4
  00326	6a 01		 push	 1
  00328	6a 00		 push	 0
  0032a	8b 45 f8	 mov	 eax, DWORD PTR _this$[ebp]
  0032d	8b 48 58	 mov	 ecx, DWORD PTR [eax+88]
  00330	8b 55 f8	 mov	 edx, DWORD PTR _this$[ebp]
  00333	8b 42 58	 mov	 eax, DWORD PTR [edx+88]
  00336	8b 09		 mov	 ecx, DWORD PTR [ecx]
  00338	50		 push	 eax
  00339	ff 91 fc 00 00
	00		 call	 DWORD PTR [ecx+252]
  0033f	3b f4		 cmp	 esi, esp
  00341	e8 00 00 00 00	 call	 __RTC_CheckEsp

; 269  :         m_pd3dDevice->SetTextureStageState( 0, D3DTSS_COLORARG1, D3DTA_TEXTURE );

  00346	8b f4		 mov	 esi, esp
  00348	6a 02		 push	 2
  0034a	6a 02		 push	 2
  0034c	6a 00		 push	 0
  0034e	8b 45 f8	 mov	 eax, DWORD PTR _this$[ebp]
  00351	8b 48 58	 mov	 ecx, DWORD PTR [eax+88]
  00354	8b 55 f8	 mov	 edx, DWORD PTR _this$[ebp]
  00357	8b 42 58	 mov	 eax, DWORD PTR [edx+88]
  0035a	8b 09		 mov	 ecx, DWORD PTR [ecx]
  0035c	50		 push	 eax
  0035d	ff 91 fc 00 00
	00		 call	 DWORD PTR [ecx+252]
  00363	3b f4		 cmp	 esi, esp
  00365	e8 00 00 00 00	 call	 __RTC_CheckEsp

; 270  :         m_pd3dDevice->SetTextureStageState( 0, D3DTSS_COLORARG2, D3DTA_DIFFUSE );

  0036a	8b f4		 mov	 esi, esp
  0036c	6a 00		 push	 0
  0036e	6a 03		 push	 3
  00370	6a 00		 push	 0
  00372	8b 45 f8	 mov	 eax, DWORD PTR _this$[ebp]
  00375	8b 48 58	 mov	 ecx, DWORD PTR [eax+88]
  00378	8b 55 f8	 mov	 edx, DWORD PTR _this$[ebp]
  0037b	8b 42 58	 mov	 eax, DWORD PTR [edx+88]
  0037e	8b 09		 mov	 ecx, DWORD PTR [ecx]
  00380	50		 push	 eax
  00381	ff 91 fc 00 00
	00		 call	 DWORD PTR [ecx+252]
  00387	3b f4		 cmp	 esi, esp
  00389	e8 00 00 00 00	 call	 __RTC_CheckEsp

; 271  :         m_pd3dDevice->SetTextureStageState( 0, D3DTSS_ALPHAOP,   D3DTOP_MODULATE );

  0038e	8b f4		 mov	 esi, esp
  00390	6a 04		 push	 4
  00392	6a 04		 push	 4
  00394	6a 00		 push	 0
  00396	8b 45 f8	 mov	 eax, DWORD PTR _this$[ebp]
  00399	8b 48 58	 mov	 ecx, DWORD PTR [eax+88]
  0039c	8b 55 f8	 mov	 edx, DWORD PTR _this$[ebp]
  0039f	8b 42 58	 mov	 eax, DWORD PTR [edx+88]
  003a2	8b 09		 mov	 ecx, DWORD PTR [ecx]
  003a4	50		 push	 eax
  003a5	ff 91 fc 00 00
	00		 call	 DWORD PTR [ecx+252]
  003ab	3b f4		 cmp	 esi, esp
  003ad	e8 00 00 00 00	 call	 __RTC_CheckEsp

; 272  :         m_pd3dDevice->SetTextureStageState( 0, D3DTSS_ALPHAARG1, D3DTA_TEXTURE );

  003b2	8b f4		 mov	 esi, esp
  003b4	6a 02		 push	 2
  003b6	6a 05		 push	 5
  003b8	6a 00		 push	 0
  003ba	8b 45 f8	 mov	 eax, DWORD PTR _this$[ebp]
  003bd	8b 48 58	 mov	 ecx, DWORD PTR [eax+88]
  003c0	8b 55 f8	 mov	 edx, DWORD PTR _this$[ebp]
  003c3	8b 42 58	 mov	 eax, DWORD PTR [edx+88]
  003c6	8b 09		 mov	 ecx, DWORD PTR [ecx]
  003c8	50		 push	 eax
  003c9	ff 91 fc 00 00
	00		 call	 DWORD PTR [ecx+252]
  003cf	3b f4		 cmp	 esi, esp
  003d1	e8 00 00 00 00	 call	 __RTC_CheckEsp

; 273  :         m_pd3dDevice->SetTextureStageState( 0, D3DTSS_ALPHAARG2, D3DTA_DIFFUSE );

  003d6	8b f4		 mov	 esi, esp
  003d8	6a 00		 push	 0
  003da	6a 06		 push	 6
  003dc	6a 00		 push	 0
  003de	8b 45 f8	 mov	 eax, DWORD PTR _this$[ebp]
  003e1	8b 48 58	 mov	 ecx, DWORD PTR [eax+88]
  003e4	8b 55 f8	 mov	 edx, DWORD PTR _this$[ebp]
  003e7	8b 42 58	 mov	 eax, DWORD PTR [edx+88]
  003ea	8b 09		 mov	 ecx, DWORD PTR [ecx]
  003ec	50		 push	 eax
  003ed	ff 91 fc 00 00
	00		 call	 DWORD PTR [ecx+252]
  003f3	3b f4		 cmp	 esi, esp
  003f5	e8 00 00 00 00	 call	 __RTC_CheckEsp

; 274  :         m_pd3dDevice->SetTextureStageState( 0, D3DTSS_MINFILTER, D3DTEXF_POINT );

  003fa	8b f4		 mov	 esi, esp
  003fc	6a 01		 push	 1
  003fe	6a 11		 push	 17			; 00000011H
  00400	6a 00		 push	 0
  00402	8b 45 f8	 mov	 eax, DWORD PTR _this$[ebp]
  00405	8b 48 58	 mov	 ecx, DWORD PTR [eax+88]
  00408	8b 55 f8	 mov	 edx, DWORD PTR _this$[ebp]
  0040b	8b 42 58	 mov	 eax, DWORD PTR [edx+88]
  0040e	8b 09		 mov	 ecx, DWORD PTR [ecx]
  00410	50		 push	 eax
  00411	ff 91 fc 00 00
	00		 call	 DWORD PTR [ecx+252]
  00417	3b f4		 cmp	 esi, esp
  00419	e8 00 00 00 00	 call	 __RTC_CheckEsp

; 275  :         m_pd3dDevice->SetTextureStageState( 0, D3DTSS_MAGFILTER, D3DTEXF_POINT );

  0041e	8b f4		 mov	 esi, esp
  00420	6a 01		 push	 1
  00422	6a 10		 push	 16			; 00000010H
  00424	6a 00		 push	 0
  00426	8b 45 f8	 mov	 eax, DWORD PTR _this$[ebp]
  00429	8b 48 58	 mov	 ecx, DWORD PTR [eax+88]
  0042c	8b 55 f8	 mov	 edx, DWORD PTR _this$[ebp]
  0042f	8b 42 58	 mov	 eax, DWORD PTR [edx+88]
  00432	8b 09		 mov	 ecx, DWORD PTR [ecx]
  00434	50		 push	 eax
  00435	ff 91 fc 00 00
	00		 call	 DWORD PTR [ecx+252]
  0043b	3b f4		 cmp	 esi, esp
  0043d	e8 00 00 00 00	 call	 __RTC_CheckEsp

; 276  :         m_pd3dDevice->SetTextureStageState( 0, D3DTSS_MIPFILTER, D3DTEXF_NONE );

  00442	8b f4		 mov	 esi, esp
  00444	6a 00		 push	 0
  00446	6a 12		 push	 18			; 00000012H
  00448	6a 00		 push	 0
  0044a	8b 45 f8	 mov	 eax, DWORD PTR _this$[ebp]
  0044d	8b 48 58	 mov	 ecx, DWORD PTR [eax+88]
  00450	8b 55 f8	 mov	 edx, DWORD PTR _this$[ebp]
  00453	8b 42 58	 mov	 eax, DWORD PTR [edx+88]
  00456	8b 09		 mov	 ecx, DWORD PTR [ecx]
  00458	50		 push	 eax
  00459	ff 91 fc 00 00
	00		 call	 DWORD PTR [ecx+252]
  0045f	3b f4		 cmp	 esi, esp
  00461	e8 00 00 00 00	 call	 __RTC_CheckEsp

; 277  :         m_pd3dDevice->SetTextureStageState( 0, D3DTSS_TEXCOORDINDEX, 0 );

  00466	8b f4		 mov	 esi, esp
  00468	6a 00		 push	 0
  0046a	6a 0b		 push	 11			; 0000000bH
  0046c	6a 00		 push	 0
  0046e	8b 45 f8	 mov	 eax, DWORD PTR _this$[ebp]
  00471	8b 48 58	 mov	 ecx, DWORD PTR [eax+88]
  00474	8b 55 f8	 mov	 edx, DWORD PTR _this$[ebp]
  00477	8b 42 58	 mov	 eax, DWORD PTR [edx+88]
  0047a	8b 09		 mov	 ecx, DWORD PTR [ecx]
  0047c	50		 push	 eax
  0047d	ff 91 fc 00 00
	00		 call	 DWORD PTR [ecx+252]
  00483	3b f4		 cmp	 esi, esp
  00485	e8 00 00 00 00	 call	 __RTC_CheckEsp

; 278  :         m_pd3dDevice->SetTextureStageState( 0, D3DTSS_TEXTURETRANSFORMFLAGS, D3DTTFF_DISABLE );

  0048a	8b f4		 mov	 esi, esp
  0048c	6a 00		 push	 0
  0048e	6a 18		 push	 24			; 00000018H
  00490	6a 00		 push	 0
  00492	8b 45 f8	 mov	 eax, DWORD PTR _this$[ebp]
  00495	8b 48 58	 mov	 ecx, DWORD PTR [eax+88]
  00498	8b 55 f8	 mov	 edx, DWORD PTR _this$[ebp]
  0049b	8b 42 58	 mov	 eax, DWORD PTR [edx+88]
  0049e	8b 09		 mov	 ecx, DWORD PTR [ecx]
  004a0	50		 push	 eax
  004a1	ff 91 fc 00 00
	00		 call	 DWORD PTR [ecx+252]
  004a7	3b f4		 cmp	 esi, esp
  004a9	e8 00 00 00 00	 call	 __RTC_CheckEsp

; 279  :         m_pd3dDevice->SetTextureStageState( 1, D3DTSS_COLOROP,   D3DTOP_DISABLE );

  004ae	8b f4		 mov	 esi, esp
  004b0	6a 01		 push	 1
  004b2	6a 01		 push	 1
  004b4	6a 01		 push	 1
  004b6	8b 45 f8	 mov	 eax, DWORD PTR _this$[ebp]
  004b9	8b 48 58	 mov	 ecx, DWORD PTR [eax+88]
  004bc	8b 55 f8	 mov	 edx, DWORD PTR _this$[ebp]
  004bf	8b 42 58	 mov	 eax, DWORD PTR [edx+88]
  004c2	8b 09		 mov	 ecx, DWORD PTR [ecx]
  004c4	50		 push	 eax
  004c5	ff 91 fc 00 00
	00		 call	 DWORD PTR [ecx+252]
  004cb	3b f4		 cmp	 esi, esp
  004cd	e8 00 00 00 00	 call	 __RTC_CheckEsp

; 280  :         m_pd3dDevice->SetTextureStageState( 1, D3DTSS_ALPHAOP,   D3DTOP_DISABLE );

  004d2	8b f4		 mov	 esi, esp
  004d4	6a 01		 push	 1
  004d6	6a 04		 push	 4
  004d8	6a 01		 push	 1
  004da	8b 45 f8	 mov	 eax, DWORD PTR _this$[ebp]
  004dd	8b 48 58	 mov	 ecx, DWORD PTR [eax+88]
  004e0	8b 55 f8	 mov	 edx, DWORD PTR _this$[ebp]
  004e3	8b 42 58	 mov	 eax, DWORD PTR [edx+88]
  004e6	8b 09		 mov	 ecx, DWORD PTR [ecx]
  004e8	50		 push	 eax
  004e9	ff 91 fc 00 00
	00		 call	 DWORD PTR [ecx+252]
  004ef	3b f4		 cmp	 esi, esp
  004f1	e8 00 00 00 00	 call	 __RTC_CheckEsp

; 281  : 
; 282  :         if( which==0 )

  004f6	83 7d e0 00	 cmp	 DWORD PTR _which$80366[ebp], 0
  004fa	75 29		 jne	 SHORT $L80372

; 283  :             m_pd3dDevice->EndStateBlock( &m_dwSavedStateBlock );

  004fc	8b 45 f8	 mov	 eax, DWORD PTR _this$[ebp]
  004ff	05 70 06 00 00	 add	 eax, 1648		; 00000670H
  00504	8b f4		 mov	 esi, esp
  00506	50		 push	 eax
  00507	8b 4d f8	 mov	 ecx, DWORD PTR _this$[ebp]
  0050a	8b 51 58	 mov	 edx, DWORD PTR [ecx+88]
  0050d	8b 45 f8	 mov	 eax, DWORD PTR _this$[ebp]
  00510	8b 48 58	 mov	 ecx, DWORD PTR [eax+88]
  00513	8b 12		 mov	 edx, DWORD PTR [edx]
  00515	51		 push	 ecx
  00516	ff 92 d4 00 00
	00		 call	 DWORD PTR [edx+212]
  0051c	3b f4		 cmp	 esi, esp
  0051e	e8 00 00 00 00	 call	 __RTC_CheckEsp

; 284  :         else

  00523	eb 27		 jmp	 SHORT $L80373
$L80372:

; 285  :             m_pd3dDevice->EndStateBlock( &m_dwDrawTextStateBlock );

  00525	8b 45 f8	 mov	 eax, DWORD PTR _this$[ebp]
  00528	05 74 06 00 00	 add	 eax, 1652		; 00000674H
  0052d	8b f4		 mov	 esi, esp
  0052f	50		 push	 eax
  00530	8b 4d f8	 mov	 ecx, DWORD PTR _this$[ebp]
  00533	8b 51 58	 mov	 edx, DWORD PTR [ecx+88]
  00536	8b 45 f8	 mov	 eax, DWORD PTR _this$[ebp]
  00539	8b 48 58	 mov	 ecx, DWORD PTR [eax+88]
  0053c	8b 12		 mov	 edx, DWORD PTR [edx]
  0053e	51		 push	 ecx
  0053f	ff 92 d4 00 00
	00		 call	 DWORD PTR [edx+212]
  00545	3b f4		 cmp	 esi, esp
  00547	e8 00 00 00 00	 call	 __RTC_CheckEsp
$L80373:

; 286  :     }

  0054c	e9 1c fb ff ff	 jmp	 $L80368
$L80369:

; 287  : 
; 288  :     return S_OK;

  00551	33 c0		 xor	 eax, eax
$L80361:

; 289  : }

  00553	5f		 pop	 edi
  00554	5e		 pop	 esi
  00555	5b		 pop	 ebx
  00556	81 c4 e4 00 00
	00		 add	 esp, 228		; 000000e4H
  0055c	3b ec		 cmp	 ebp, esp
  0055e	e8 00 00 00 00	 call	 __RTC_CheckEsp
  00563	8b e5		 mov	 esp, ebp
  00565	5d		 pop	 ebp
  00566	c3		 ret	 0
?RestoreDeviceObjects@CD3DFont@@QAEJXZ ENDP		; CD3DFont::RestoreDeviceObjects
; Function compile flags: /Odt /RTCsu /ZI
_TEXT	ENDS
;	COMDAT ?InvalidateDeviceObjects@CD3DFont@@QAEJXZ
_TEXT	SEGMENT
_this$ = -8
?InvalidateDeviceObjects@CD3DFont@@QAEJXZ PROC NEAR	; CD3DFont::InvalidateDeviceObjects, COMDAT
; _this$ = ecx

; 299  : {

  00000	55		 push	 ebp
  00001	8b ec		 mov	 ebp, esp
  00003	81 ec cc 00 00
	00		 sub	 esp, 204		; 000000ccH
  00009	53		 push	 ebx
  0000a	56		 push	 esi
  0000b	57		 push	 edi
  0000c	51		 push	 ecx
  0000d	8d bd 34 ff ff
	ff		 lea	 edi, DWORD PTR [ebp-204]
  00013	b9 33 00 00 00	 mov	 ecx, 51			; 00000033H
  00018	b8 cc cc cc cc	 mov	 eax, -858993460		; ccccccccH
  0001d	f3 ab		 rep stosd
  0001f	59		 pop	 ecx
  00020	89 4d f8	 mov	 DWORD PTR _this$[ebp], ecx

; 300  :     SAFE_RELEASE( m_pVB );

  00023	8b 45 f8	 mov	 eax, DWORD PTR _this$[ebp]
  00026	83 78 60 00	 cmp	 DWORD PTR [eax+96], 0
  0002a	74 25		 je	 SHORT $L80378
  0002c	8b 45 f8	 mov	 eax, DWORD PTR _this$[ebp]
  0002f	8b 48 60	 mov	 ecx, DWORD PTR [eax+96]
  00032	8b 55 f8	 mov	 edx, DWORD PTR _this$[ebp]
  00035	8b 42 60	 mov	 eax, DWORD PTR [edx+96]
  00038	8b 09		 mov	 ecx, DWORD PTR [ecx]
  0003a	8b f4		 mov	 esi, esp
  0003c	50		 push	 eax
  0003d	ff 51 08	 call	 DWORD PTR [ecx+8]
  00040	3b f4		 cmp	 esi, esp
  00042	e8 00 00 00 00	 call	 __RTC_CheckEsp
  00047	8b 45 f8	 mov	 eax, DWORD PTR _this$[ebp]
  0004a	c7 40 60 00 00
	00 00		 mov	 DWORD PTR [eax+96], 0
$L80378:

; 301  : 
; 302  :     // Delete the state blocks
; 303  :     if( m_pd3dDevice )

  00051	8b 45 f8	 mov	 eax, DWORD PTR _this$[ebp]
  00054	83 78 58 00	 cmp	 DWORD PTR [eax+88], 0
  00058	74 68		 je	 SHORT $L80379

; 304  :     {
; 305  :         if( m_dwSavedStateBlock )

  0005a	8b 45 f8	 mov	 eax, DWORD PTR _this$[ebp]
  0005d	83 b8 70 06 00
	00 00		 cmp	 DWORD PTR [eax+1648], 0
  00064	74 28		 je	 SHORT $L80380

; 306  :             m_pd3dDevice->DeleteStateBlock( m_dwSavedStateBlock );

  00066	8b f4		 mov	 esi, esp
  00068	8b 45 f8	 mov	 eax, DWORD PTR _this$[ebp]
  0006b	8b 88 70 06 00
	00		 mov	 ecx, DWORD PTR [eax+1648]
  00071	51		 push	 ecx
  00072	8b 55 f8	 mov	 edx, DWORD PTR _this$[ebp]
  00075	8b 42 58	 mov	 eax, DWORD PTR [edx+88]
  00078	8b 4d f8	 mov	 ecx, DWORD PTR _this$[ebp]
  0007b	8b 51 58	 mov	 edx, DWORD PTR [ecx+88]
  0007e	8b 00		 mov	 eax, DWORD PTR [eax]
  00080	52		 push	 edx
  00081	ff 90 e0 00 00
	00		 call	 DWORD PTR [eax+224]
  00087	3b f4		 cmp	 esi, esp
  00089	e8 00 00 00 00	 call	 __RTC_CheckEsp
$L80380:

; 307  :         if( m_dwDrawTextStateBlock )

  0008e	8b 45 f8	 mov	 eax, DWORD PTR _this$[ebp]
  00091	83 b8 74 06 00
	00 00		 cmp	 DWORD PTR [eax+1652], 0
  00098	74 28		 je	 SHORT $L80379

; 308  :             m_pd3dDevice->DeleteStateBlock( m_dwDrawTextStateBlock );

  0009a	8b f4		 mov	 esi, esp
  0009c	8b 45 f8	 mov	 eax, DWORD PTR _this$[ebp]
  0009f	8b 88 74 06 00
	00		 mov	 ecx, DWORD PTR [eax+1652]
  000a5	51		 push	 ecx
  000a6	8b 55 f8	 mov	 edx, DWORD PTR _this$[ebp]
  000a9	8b 42 58	 mov	 eax, DWORD PTR [edx+88]
  000ac	8b 4d f8	 mov	 ecx, DWORD PTR _this$[ebp]
  000af	8b 51 58	 mov	 edx, DWORD PTR [ecx+88]
  000b2	8b 00		 mov	 eax, DWORD PTR [eax]
  000b4	52		 push	 edx
  000b5	ff 90 e0 00 00
	00		 call	 DWORD PTR [eax+224]
  000bb	3b f4		 cmp	 esi, esp
  000bd	e8 00 00 00 00	 call	 __RTC_CheckEsp
$L80379:

; 309  :     }
; 310  : 
; 311  :     m_dwSavedStateBlock    = 0L;

  000c2	8b 45 f8	 mov	 eax, DWORD PTR _this$[ebp]
  000c5	c7 80 70 06 00
	00 00 00 00 00	 mov	 DWORD PTR [eax+1648], 0

; 312  :     m_dwDrawTextStateBlock = 0L;

  000cf	8b 45 f8	 mov	 eax, DWORD PTR _this$[ebp]
  000d2	c7 80 74 06 00
	00 00 00 00 00	 mov	 DWORD PTR [eax+1652], 0

; 313  : 
; 314  :     return S_OK;

  000dc	33 c0		 xor	 eax, eax

; 315  : }

  000de	5f		 pop	 edi
  000df	5e		 pop	 esi
  000e0	5b		 pop	 ebx
  000e1	81 c4 cc 00 00
	00		 add	 esp, 204		; 000000ccH
  000e7	3b ec		 cmp	 ebp, esp
  000e9	e8 00 00 00 00	 call	 __RTC_CheckEsp
  000ee	8b e5		 mov	 esp, ebp
  000f0	5d		 pop	 ebp
  000f1	c3		 ret	 0
?InvalidateDeviceObjects@CD3DFont@@QAEJXZ ENDP		; CD3DFont::InvalidateDeviceObjects
; Function compile flags: /Odt /RTCsu /ZI
_TEXT	ENDS
;	COMDAT ?DeleteDeviceObjects@CD3DFont@@QAEJXZ
_TEXT	SEGMENT
_this$ = -8
?DeleteDeviceObjects@CD3DFont@@QAEJXZ PROC NEAR		; CD3DFont::DeleteDeviceObjects, COMDAT
; _this$ = ecx

; 325  : {

  00000	55		 push	 ebp
  00001	8b ec		 mov	 ebp, esp
  00003	81 ec cc 00 00
	00		 sub	 esp, 204		; 000000ccH
  00009	53		 push	 ebx
  0000a	56		 push	 esi
  0000b	57		 push	 edi
  0000c	51		 push	 ecx
  0000d	8d bd 34 ff ff
	ff		 lea	 edi, DWORD PTR [ebp-204]
  00013	b9 33 00 00 00	 mov	 ecx, 51			; 00000033H
  00018	b8 cc cc cc cc	 mov	 eax, -858993460		; ccccccccH
  0001d	f3 ab		 rep stosd
  0001f	59		 pop	 ecx
  00020	89 4d f8	 mov	 DWORD PTR _this$[ebp], ecx

; 326  :     SAFE_RELEASE( m_pTexture );

  00023	8b 45 f8	 mov	 eax, DWORD PTR _this$[ebp]
  00026	83 78 5c 00	 cmp	 DWORD PTR [eax+92], 0
  0002a	74 25		 je	 SHORT $L80386
  0002c	8b 45 f8	 mov	 eax, DWORD PTR _this$[ebp]
  0002f	8b 48 5c	 mov	 ecx, DWORD PTR [eax+92]
  00032	8b 55 f8	 mov	 edx, DWORD PTR _this$[ebp]
  00035	8b 42 5c	 mov	 eax, DWORD PTR [edx+92]
  00038	8b 09		 mov	 ecx, DWORD PTR [ecx]
  0003a	8b f4		 mov	 esi, esp
  0003c	50		 push	 eax
  0003d	ff 51 08	 call	 DWORD PTR [ecx+8]
  00040	3b f4		 cmp	 esi, esp
  00042	e8 00 00 00 00	 call	 __RTC_CheckEsp
  00047	8b 45 f8	 mov	 eax, DWORD PTR _this$[ebp]
  0004a	c7 40 5c 00 00
	00 00		 mov	 DWORD PTR [eax+92], 0
$L80386:

; 327  :     m_pd3dDevice = NULL;

  00051	8b 45 f8	 mov	 eax, DWORD PTR _this$[ebp]
  00054	c7 40 58 00 00
	00 00		 mov	 DWORD PTR [eax+88], 0

; 328  : 
; 329  :     return S_OK;

  0005b	33 c0		 xor	 eax, eax

; 330  : }

  0005d	5f		 pop	 edi
  0005e	5e		 pop	 esi
  0005f	5b		 pop	 ebx
  00060	81 c4 cc 00 00
	00		 add	 esp, 204		; 000000ccH
  00066	3b ec		 cmp	 ebp, esp
  00068	e8 00 00 00 00	 call	 __RTC_CheckEsp
  0006d	8b e5		 mov	 esp, ebp
  0006f	5d		 pop	 ebp
  00070	c3		 ret	 0
?DeleteDeviceObjects@CD3DFont@@QAEJXZ ENDP		; CD3DFont::DeleteDeviceObjects
_TEXT	ENDS
PUBLIC	?GetTextExtent@CD3DFont@@QAEJPADPAUtagSIZE@@@Z	; CD3DFont::GetTextExtent
; Function compile flags: /Odt /RTCsu /ZI
;	COMDAT ?GetTextExtent@CD3DFont@@QAEJPADPAUtagSIZE@@@Z
_TEXT	SEGMENT
tv158 = -296
tv142 = -296
_tx2$80407 = -92
_tx1$80406 = -80
_c$80403 = -65
_fHeight$ = -56
_fWidth$ = -44
_fRowHeight$ = -32
_fRowWidth$ = -20
_this$ = -8
_strText$ = 8
_pSize$ = 12
?GetTextExtent@CD3DFont@@QAEJPADPAUtagSIZE@@@Z PROC NEAR ; CD3DFont::GetTextExtent, COMDAT
; _this$ = ecx

; 340  : {

  00000	55		 push	 ebp
  00001	8b ec		 mov	 ebp, esp
  00003	81 ec 28 01 00
	00		 sub	 esp, 296		; 00000128H
  00009	53		 push	 ebx
  0000a	56		 push	 esi
  0000b	57		 push	 edi
  0000c	51		 push	 ecx
  0000d	8d bd d8 fe ff
	ff		 lea	 edi, DWORD PTR [ebp-296]
  00013	b9 4a 00 00 00	 mov	 ecx, 74			; 0000004aH
  00018	b8 cc cc cc cc	 mov	 eax, -858993460		; ccccccccH
  0001d	f3 ab		 rep stosd
  0001f	59		 pop	 ecx
  00020	89 4d f8	 mov	 DWORD PTR _this$[ebp], ecx

; 341  :     if( NULL==strText || NULL==pSize )

  00023	83 7d 08 00	 cmp	 DWORD PTR _strText$[ebp], 0
  00027	74 06		 je	 SHORT $L80394
  00029	83 7d 0c 00	 cmp	 DWORD PTR _pSize$[ebp], 0
  0002d	75 0a		 jne	 SHORT $L80393
$L80394:

; 342  :         return E_FAIL;

  0002f	b8 05 40 00 80	 mov	 eax, -2147467259	; 80004005H
  00034	e9 0b 01 00 00	 jmp	 $L80392
$L80393:

; 343  : 
; 344  :     FLOAT fRowWidth  = 0.0f;

  00039	c7 45 ec 00 00
	00 00		 mov	 DWORD PTR _fRowWidth$[ebp], 0

; 345  :     FLOAT fRowHeight = (m_fTexCoords[0][3]-m_fTexCoords[0][1])*m_dwTexHeight;

  00040	8b 45 f8	 mov	 eax, DWORD PTR _this$[ebp]
  00043	8b 4d f8	 mov	 ecx, DWORD PTR _this$[ebp]
  00046	d9 40 7c	 fld	 DWORD PTR [eax+124]
  00049	d8 61 74	 fsub	 DWORD PTR [ecx+116]
  0004c	8b 55 f8	 mov	 edx, DWORD PTR _this$[ebp]
  0004f	8b 42 68	 mov	 eax, DWORD PTR [edx+104]
  00052	89 85 d8 fe ff
	ff		 mov	 DWORD PTR tv142[ebp], eax
  00058	c7 85 dc fe ff
	ff 00 00 00 00	 mov	 DWORD PTR tv142[ebp+4], 0
  00062	df ad d8 fe ff
	ff		 fild	 QWORD PTR tv142[ebp]
  00068	de c9		 fmulp	 ST(1), ST(0)
  0006a	d9 5d e0	 fstp	 DWORD PTR _fRowHeight$[ebp]

; 346  :     FLOAT fWidth     = 0.0f;

  0006d	c7 45 d4 00 00
	00 00		 mov	 DWORD PTR _fWidth$[ebp], 0

; 347  :     FLOAT fHeight    = fRowHeight;

  00074	8b 45 e0	 mov	 eax, DWORD PTR _fRowHeight$[ebp]
  00077	89 45 c8	 mov	 DWORD PTR _fHeight$[ebp], eax
$L80401:

; 348  : 
; 349  :     while( *strText )

  0007a	8b 45 08	 mov	 eax, DWORD PTR _strText$[ebp]
  0007d	0f be 08	 movsx	 ecx, BYTE PTR [eax]
  00080	85 c9		 test	 ecx, ecx
  00082	0f 84 9f 00 00
	00		 je	 $L80402

; 350  :     {
; 351  :         TCHAR c = *strText++;

  00088	8b 45 08	 mov	 eax, DWORD PTR _strText$[ebp]
  0008b	8a 08		 mov	 cl, BYTE PTR [eax]
  0008d	88 4d bf	 mov	 BYTE PTR _c$80403[ebp], cl
  00090	8b 55 08	 mov	 edx, DWORD PTR _strText$[ebp]
  00093	83 c2 01	 add	 edx, 1
  00096	89 55 08	 mov	 DWORD PTR _strText$[ebp], edx

; 352  : 
; 353  :         if( c == _T('\n') )

  00099	0f be 45 bf	 movsx	 eax, BYTE PTR _c$80403[ebp]
  0009d	83 f8 0a	 cmp	 eax, 10			; 0000000aH
  000a0	75 10		 jne	 SHORT $L80404

; 354  :         {
; 355  :             fRowWidth = 0.0f;

  000a2	c7 45 ec 00 00
	00 00		 mov	 DWORD PTR _fRowWidth$[ebp], 0

; 356  :             fHeight  += fRowHeight;

  000a9	d9 45 c8	 fld	 DWORD PTR _fHeight$[ebp]
  000ac	d8 45 e0	 fadd	 DWORD PTR _fRowHeight$[ebp]
  000af	d9 5d c8	 fstp	 DWORD PTR _fHeight$[ebp]
$L80404:

; 357  :         }
; 358  :         if( c < _T(' ') )

  000b2	0f be 45 bf	 movsx	 eax, BYTE PTR _c$80403[ebp]
  000b6	83 f8 20	 cmp	 eax, 32			; 00000020H
  000b9	7d 02		 jge	 SHORT $L80405

; 359  :             continue;

  000bb	eb bd		 jmp	 SHORT $L80401
$L80405:

; 360  : 
; 361  :         FLOAT tx1 = m_fTexCoords[c-32][0];

  000bd	0f be 45 bf	 movsx	 eax, BYTE PTR _c$80403[ebp]
  000c1	83 e8 20	 sub	 eax, 32			; 00000020H
  000c4	c1 e0 04	 shl	 eax, 4
  000c7	8b 4d f8	 mov	 ecx, DWORD PTR _this$[ebp]
  000ca	8b 54 01 70	 mov	 edx, DWORD PTR [ecx+eax+112]
  000ce	89 55 b0	 mov	 DWORD PTR _tx1$80406[ebp], edx

; 362  :         FLOAT tx2 = m_fTexCoords[c-32][2];

  000d1	0f be 45 bf	 movsx	 eax, BYTE PTR _c$80403[ebp]
  000d5	83 e8 20	 sub	 eax, 32			; 00000020H
  000d8	c1 e0 04	 shl	 eax, 4
  000db	8b 4d f8	 mov	 ecx, DWORD PTR _this$[ebp]
  000de	8b 54 01 78	 mov	 edx, DWORD PTR [ecx+eax+120]
  000e2	89 55 a4	 mov	 DWORD PTR _tx2$80407[ebp], edx

; 363  : 
; 364  :         fRowWidth += (tx2-tx1)*m_dwTexWidth;

  000e5	d9 45 a4	 fld	 DWORD PTR _tx2$80407[ebp]
  000e8	d8 65 b0	 fsub	 DWORD PTR _tx1$80406[ebp]
  000eb	8b 45 f8	 mov	 eax, DWORD PTR _this$[ebp]
  000ee	8b 48 64	 mov	 ecx, DWORD PTR [eax+100]
  000f1	89 8d d8 fe ff
	ff		 mov	 DWORD PTR tv158[ebp], ecx
  000f7	c7 85 dc fe ff
	ff 00 00 00 00	 mov	 DWORD PTR tv158[ebp+4], 0
  00101	df ad d8 fe ff
	ff		 fild	 QWORD PTR tv158[ebp]
  00107	de c9		 fmulp	 ST(1), ST(0)
  00109	d8 45 ec	 fadd	 DWORD PTR _fRowWidth$[ebp]
  0010c	d9 5d ec	 fstp	 DWORD PTR _fRowWidth$[ebp]

; 365  : 
; 366  :         if( fRowWidth > fWidth )

  0010f	d9 45 ec	 fld	 DWORD PTR _fRowWidth$[ebp]
  00112	d8 5d d4	 fcomp	 DWORD PTR _fWidth$[ebp]
  00115	df e0		 fnstsw	 ax
  00117	f6 c4 41	 test	 ah, 65			; 00000041H
  0011a	75 06		 jne	 SHORT $L80408

; 367  :             fWidth = fRowWidth;

  0011c	8b 45 ec	 mov	 eax, DWORD PTR _fRowWidth$[ebp]
  0011f	89 45 d4	 mov	 DWORD PTR _fWidth$[ebp], eax
$L80408:

; 368  :     }

  00122	e9 53 ff ff ff	 jmp	 $L80401
$L80402:

; 369  : 
; 370  :     pSize->cx = (int)fWidth;

  00127	d9 45 d4	 fld	 DWORD PTR _fWidth$[ebp]
  0012a	e8 00 00 00 00	 call	 __ftol2
  0012f	8b 4d 0c	 mov	 ecx, DWORD PTR _pSize$[ebp]
  00132	89 01		 mov	 DWORD PTR [ecx], eax

; 371  :     pSize->cy = (int)fHeight;

  00134	d9 45 c8	 fld	 DWORD PTR _fHeight$[ebp]
  00137	e8 00 00 00 00	 call	 __ftol2
  0013c	8b 4d 0c	 mov	 ecx, DWORD PTR _pSize$[ebp]
  0013f	89 41 04	 mov	 DWORD PTR [ecx+4], eax

; 372  : 
; 373  :     return S_OK;

  00142	33 c0		 xor	 eax, eax
$L80392:

; 374  : }

  00144	5f		 pop	 edi
  00145	5e		 pop	 esi
  00146	5b		 pop	 ebx
  00147	8b e5		 mov	 esp, ebp
  00149	5d		 pop	 ebp
  0014a	c2 08 00	 ret	 8
?GetTextExtent@CD3DFont@@QAEJPADPAUtagSIZE@@@Z ENDP	; CD3DFont::GetTextExtent
_TEXT	ENDS
PUBLIC	?DrawTextScaled@CD3DFont@@QAEJMMMMMKPADK@Z	; CD3DFont::DrawTextScaled
PUBLIC	?InitFont2DVertex@@YA?AUFONT2DVERTEX@@ABUD3DXVECTOR4@@KMM@Z ; InitFont2DVertex
PUBLIC	__real@3f800000
PUBLIC	__real@40000000
PUBLIC	__real@3f000000
PUBLIC	__real@00000000
PUBLIC	??0D3DXVECTOR4@@QAE@MMMM@Z			; D3DXVECTOR4::D3DXVECTOR4
;	COMDAT __real@3f800000
CONST	SEGMENT
__real@3f800000 DD 03f800000r			; 1
CONST	ENDS
;	COMDAT __real@40000000
CONST	SEGMENT
__real@40000000 DD 040000000r			; 2
CONST	ENDS
;	COMDAT __real@3f000000
CONST	SEGMENT
__real@3f000000 DD 03f000000r			; 0.5
CONST	ENDS
;	COMDAT __real@00000000
CONST	SEGMENT
__real@00000000 DD 000000000r			; 0
; Function compile flags: /Odt /RTCsu /ZI
CONST	ENDS
;	COMDAT ?DrawTextScaled@CD3DFont@@QAEJMMMMMKPADK@Z
_TEXT	SEGMENT
tv573 = -784
tv569 = -784
tv565 = -784
tv559 = -784
tv545 = -784
tv531 = -784
tv521 = -784
tv516 = -784
$T80727 = -772
$T80726 = -736
$T80725 = -712
$T80724 = -676
$T80723 = -652
$T80722 = -616
$T80721 = -592
$T80720 = -556
$T80719 = -532
$T80718 = -496
$T80717 = -472
$T80716 = -436
_h$80448 = -220
_w$80447 = -208
_ty2$80446 = -196
_tx2$80445 = -184
_ty1$80444 = -172
_tx1$80443 = -160
_c$80440 = -145
_dwNumTriangles$ = -136
_pVertices$ = -124
_fLineHeight$ = -112
_fStartX$ = -100
_rhw$ = -88
_sz$ = -76
_sy$ = -64
_sx$ = -52
_vp$ = -40
_this$ = -8
_x$ = 8
_y$ = 12
_z$ = 16
_fXScale$ = 20
_fYScale$ = 24
_dwColor$ = 28
_strText$ = 32
_dwFlags$ = 36
?DrawTextScaled@CD3DFont@@QAEJMMMMMKPADK@Z PROC NEAR	; CD3DFont::DrawTextScaled, COMDAT
; _this$ = ecx

; 390  : {

  00000	55		 push	 ebp
  00001	8b ec		 mov	 ebp, esp
  00003	81 ec 10 03 00
	00		 sub	 esp, 784		; 00000310H
  00009	53		 push	 ebx
  0000a	56		 push	 esi
  0000b	57		 push	 edi
  0000c	51		 push	 ecx
  0000d	8d bd f0 fc ff
	ff		 lea	 edi, DWORD PTR [ebp-784]
  00013	b9 c4 00 00 00	 mov	 ecx, 196		; 000000c4H
  00018	b8 cc cc cc cc	 mov	 eax, -858993460		; ccccccccH
  0001d	f3 ab		 rep stosd
  0001f	59		 pop	 ecx
  00020	89 4d f8	 mov	 DWORD PTR _this$[ebp], ecx

; 391  :     if( m_pd3dDevice == NULL )

  00023	8b 45 f8	 mov	 eax, DWORD PTR _this$[ebp]
  00026	83 78 58 00	 cmp	 DWORD PTR [eax+88], 0
  0002a	75 0a		 jne	 SHORT $L80423

; 392  :         return E_FAIL;

  0002c	b8 05 40 00 80	 mov	 eax, -2147467259	; 80004005H
  00031	e9 4b 07 00 00	 jmp	 $L80422
$L80423:

; 393  : 
; 394  :     // Set up renderstate
; 395  :     m_pd3dDevice->CaptureStateBlock( m_dwSavedStateBlock );

  00036	8b f4		 mov	 esi, esp
  00038	8b 45 f8	 mov	 eax, DWORD PTR _this$[ebp]
  0003b	8b 88 70 06 00
	00		 mov	 ecx, DWORD PTR [eax+1648]
  00041	51		 push	 ecx
  00042	8b 55 f8	 mov	 edx, DWORD PTR _this$[ebp]
  00045	8b 42 58	 mov	 eax, DWORD PTR [edx+88]
  00048	8b 4d f8	 mov	 ecx, DWORD PTR _this$[ebp]
  0004b	8b 51 58	 mov	 edx, DWORD PTR [ecx+88]
  0004e	8b 00		 mov	 eax, DWORD PTR [eax]
  00050	52		 push	 edx
  00051	ff 90 dc 00 00
	00		 call	 DWORD PTR [eax+220]
  00057	3b f4		 cmp	 esi, esp
  00059	e8 00 00 00 00	 call	 __RTC_CheckEsp

; 396  :     m_pd3dDevice->ApplyStateBlock( m_dwDrawTextStateBlock );

  0005e	8b f4		 mov	 esi, esp
  00060	8b 45 f8	 mov	 eax, DWORD PTR _this$[ebp]
  00063	8b 88 74 06 00
	00		 mov	 ecx, DWORD PTR [eax+1652]
  00069	51		 push	 ecx
  0006a	8b 55 f8	 mov	 edx, DWORD PTR _this$[ebp]
  0006d	8b 42 58	 mov	 eax, DWORD PTR [edx+88]
  00070	8b 4d f8	 mov	 ecx, DWORD PTR _this$[ebp]
  00073	8b 51 58	 mov	 edx, DWORD PTR [ecx+88]
  00076	8b 00		 mov	 eax, DWORD PTR [eax]
  00078	52		 push	 edx
  00079	ff 90 d8 00 00
	00		 call	 DWORD PTR [eax+216]
  0007f	3b f4		 cmp	 esi, esp
  00081	e8 00 00 00 00	 call	 __RTC_CheckEsp

; 397  :     m_pd3dDevice->SetVertexShader( D3DFVF_FONT2DVERTEX );

  00086	8b f4		 mov	 esi, esp
  00088	68 44 01 00 00	 push	 324			; 00000144H
  0008d	8b 45 f8	 mov	 eax, DWORD PTR _this$[ebp]
  00090	8b 48 58	 mov	 ecx, DWORD PTR [eax+88]
  00093	8b 55 f8	 mov	 edx, DWORD PTR _this$[ebp]
  00096	8b 42 58	 mov	 eax, DWORD PTR [edx+88]
  00099	8b 09		 mov	 ecx, DWORD PTR [ecx]
  0009b	50		 push	 eax
  0009c	ff 91 30 01 00
	00		 call	 DWORD PTR [ecx+304]
  000a2	3b f4		 cmp	 esi, esp
  000a4	e8 00 00 00 00	 call	 __RTC_CheckEsp

; 398  :     m_pd3dDevice->SetPixelShader( NULL );

  000a9	8b f4		 mov	 esi, esp
  000ab	6a 00		 push	 0
  000ad	8b 45 f8	 mov	 eax, DWORD PTR _this$[ebp]
  000b0	8b 48 58	 mov	 ecx, DWORD PTR [eax+88]
  000b3	8b 55 f8	 mov	 edx, DWORD PTR _this$[ebp]
  000b6	8b 42 58	 mov	 eax, DWORD PTR [edx+88]
  000b9	8b 09		 mov	 ecx, DWORD PTR [ecx]
  000bb	50		 push	 eax
  000bc	ff 91 60 01 00
	00		 call	 DWORD PTR [ecx+352]
  000c2	3b f4		 cmp	 esi, esp
  000c4	e8 00 00 00 00	 call	 __RTC_CheckEsp

; 399  :     m_pd3dDevice->SetStreamSource( 0, m_pVB, sizeof(FONT2DVERTEX) );

  000c9	8b f4		 mov	 esi, esp
  000cb	6a 1c		 push	 28			; 0000001cH
  000cd	8b 45 f8	 mov	 eax, DWORD PTR _this$[ebp]
  000d0	8b 48 60	 mov	 ecx, DWORD PTR [eax+96]
  000d3	51		 push	 ecx
  000d4	6a 00		 push	 0
  000d6	8b 55 f8	 mov	 edx, DWORD PTR _this$[ebp]
  000d9	8b 42 58	 mov	 eax, DWORD PTR [edx+88]
  000dc	8b 4d f8	 mov	 ecx, DWORD PTR _this$[ebp]
  000df	8b 51 58	 mov	 edx, DWORD PTR [ecx+88]
  000e2	8b 00		 mov	 eax, DWORD PTR [eax]
  000e4	52		 push	 edx
  000e5	ff 90 4c 01 00
	00		 call	 DWORD PTR [eax+332]
  000eb	3b f4		 cmp	 esi, esp
  000ed	e8 00 00 00 00	 call	 __RTC_CheckEsp

; 400  : 
; 401  :     // Set filter states
; 402  :     if( dwFlags & D3DFONT_FILTERED )

  000f2	8b 45 24	 mov	 eax, DWORD PTR _dwFlags$[ebp]
  000f5	83 e0 04	 and	 eax, 4
  000f8	85 c0		 test	 eax, eax
  000fa	74 48		 je	 SHORT $L80426

; 403  :     {
; 404  :         m_pd3dDevice->SetTextureStageState( 0, D3DTSS_MINFILTER, D3DTEXF_LINEAR );

  000fc	8b f4		 mov	 esi, esp
  000fe	6a 02		 push	 2
  00100	6a 11		 push	 17			; 00000011H
  00102	6a 00		 push	 0
  00104	8b 45 f8	 mov	 eax, DWORD PTR _this$[ebp]
  00107	8b 48 58	 mov	 ecx, DWORD PTR [eax+88]
  0010a	8b 55 f8	 mov	 edx, DWORD PTR _this$[ebp]
  0010d	8b 42 58	 mov	 eax, DWORD PTR [edx+88]
  00110	8b 09		 mov	 ecx, DWORD PTR [ecx]
  00112	50		 push	 eax
  00113	ff 91 fc 00 00
	00		 call	 DWORD PTR [ecx+252]
  00119	3b f4		 cmp	 esi, esp
  0011b	e8 00 00 00 00	 call	 __RTC_CheckEsp

; 405  :         m_pd3dDevice->SetTextureStageState( 0, D3DTSS_MAGFILTER, D3DTEXF_LINEAR );

  00120	8b f4		 mov	 esi, esp
  00122	6a 02		 push	 2
  00124	6a 10		 push	 16			; 00000010H
  00126	6a 00		 push	 0
  00128	8b 45 f8	 mov	 eax, DWORD PTR _this$[ebp]
  0012b	8b 48 58	 mov	 ecx, DWORD PTR [eax+88]
  0012e	8b 55 f8	 mov	 edx, DWORD PTR _this$[ebp]
  00131	8b 42 58	 mov	 eax, DWORD PTR [edx+88]
  00134	8b 09		 mov	 ecx, DWORD PTR [ecx]
  00136	50		 push	 eax
  00137	ff 91 fc 00 00
	00		 call	 DWORD PTR [ecx+252]
  0013d	3b f4		 cmp	 esi, esp
  0013f	e8 00 00 00 00	 call	 __RTC_CheckEsp
$L80426:

; 406  :     }
; 407  : 
; 408  :     D3DVIEWPORT8 vp;
; 409  :     m_pd3dDevice->GetViewport( &vp );

  00144	8b f4		 mov	 esi, esp
  00146	8d 45 d8	 lea	 eax, DWORD PTR _vp$[ebp]
  00149	50		 push	 eax
  0014a	8b 4d f8	 mov	 ecx, DWORD PTR _this$[ebp]
  0014d	8b 51 58	 mov	 edx, DWORD PTR [ecx+88]
  00150	8b 45 f8	 mov	 eax, DWORD PTR _this$[ebp]
  00153	8b 48 58	 mov	 ecx, DWORD PTR [eax+88]
  00156	8b 12		 mov	 edx, DWORD PTR [edx]
  00158	51		 push	 ecx
  00159	ff 92 a4 00 00
	00		 call	 DWORD PTR [edx+164]
  0015f	3b f4		 cmp	 esi, esp
  00161	e8 00 00 00 00	 call	 __RTC_CheckEsp

; 410  :     FLOAT sx  = (x+1.0f)*vp.Width/2;

  00166	d9 45 08	 fld	 DWORD PTR _x$[ebp]
  00169	d8 05 00 00 00
	00		 fadd	 DWORD PTR __real@3f800000
  0016f	8b 45 e0	 mov	 eax, DWORD PTR _vp$[ebp+8]
  00172	89 85 f0 fc ff
	ff		 mov	 DWORD PTR tv516[ebp], eax
  00178	c7 85 f4 fc ff
	ff 00 00 00 00	 mov	 DWORD PTR tv516[ebp+4], 0
  00182	df ad f0 fc ff
	ff		 fild	 QWORD PTR tv516[ebp]
  00188	de c9		 fmulp	 ST(1), ST(0)
  0018a	d8 35 00 00 00
	00		 fdiv	 DWORD PTR __real@40000000
  00190	d9 5d cc	 fstp	 DWORD PTR _sx$[ebp]

; 411  :     FLOAT sy  = (y+1.0f)*vp.Height/2;

  00193	d9 45 0c	 fld	 DWORD PTR _y$[ebp]
  00196	d8 05 00 00 00
	00		 fadd	 DWORD PTR __real@3f800000
  0019c	8b 45 e4	 mov	 eax, DWORD PTR _vp$[ebp+12]
  0019f	89 85 f0 fc ff
	ff		 mov	 DWORD PTR tv521[ebp], eax
  001a5	c7 85 f4 fc ff
	ff 00 00 00 00	 mov	 DWORD PTR tv521[ebp+4], 0
  001af	df ad f0 fc ff
	ff		 fild	 QWORD PTR tv521[ebp]
  001b5	de c9		 fmulp	 ST(1), ST(0)
  001b7	d8 35 00 00 00
	00		 fdiv	 DWORD PTR __real@40000000
  001bd	d9 5d c0	 fstp	 DWORD PTR _sy$[ebp]

; 412  :     FLOAT sz  = z;

  001c0	8b 45 10	 mov	 eax, DWORD PTR _z$[ebp]
  001c3	89 45 b4	 mov	 DWORD PTR _sz$[ebp], eax

; 413  :     FLOAT rhw = 1.0f;

  001c6	c7 45 a8 00 00
	80 3f		 mov	 DWORD PTR _rhw$[ebp], 1065353216 ; 3f800000H

; 414  :     FLOAT fStartX = sx;

  001cd	8b 45 cc	 mov	 eax, DWORD PTR _sx$[ebp]
  001d0	89 45 9c	 mov	 DWORD PTR _fStartX$[ebp], eax

; 415  : 
; 416  :     FLOAT fLineHeight = ( m_fTexCoords[0][3] - m_fTexCoords[0][1] ) * m_dwTexHeight;

  001d3	8b 45 f8	 mov	 eax, DWORD PTR _this$[ebp]
  001d6	8b 4d f8	 mov	 ecx, DWORD PTR _this$[ebp]
  001d9	d9 40 7c	 fld	 DWORD PTR [eax+124]
  001dc	d8 61 74	 fsub	 DWORD PTR [ecx+116]
  001df	8b 55 f8	 mov	 edx, DWORD PTR _this$[ebp]
  001e2	8b 42 68	 mov	 eax, DWORD PTR [edx+104]
  001e5	89 85 f0 fc ff
	ff		 mov	 DWORD PTR tv531[ebp], eax
  001eb	c7 85 f4 fc ff
	ff 00 00 00 00	 mov	 DWORD PTR tv531[ebp+4], 0
  001f5	df ad f0 fc ff
	ff		 fild	 QWORD PTR tv531[ebp]
  001fb	de c9		 fmulp	 ST(1), ST(0)
  001fd	d9 5d 90	 fstp	 DWORD PTR _fLineHeight$[ebp]

; 417  : 
; 418  :     // Fill vertex buffer
; 419  :     FONT2DVERTEX* pVertices;
; 420  :     DWORD         dwNumTriangles = 0L;

  00200	c7 85 78 ff ff
	ff 00 00 00 00	 mov	 DWORD PTR _dwNumTriangles$[ebp], 0

; 421  :     m_pVB->Lock( 0, 0, (BYTE**)&pVertices, D3DLOCK_DISCARD );

  0020a	8b f4		 mov	 esi, esp
  0020c	68 00 20 00 00	 push	 8192			; 00002000H
  00211	8d 45 84	 lea	 eax, DWORD PTR _pVertices$[ebp]
  00214	50		 push	 eax
  00215	6a 00		 push	 0
  00217	6a 00		 push	 0
  00219	8b 4d f8	 mov	 ecx, DWORD PTR _this$[ebp]
  0021c	8b 51 60	 mov	 edx, DWORD PTR [ecx+96]
  0021f	8b 45 f8	 mov	 eax, DWORD PTR _this$[ebp]
  00222	8b 48 60	 mov	 ecx, DWORD PTR [eax+96]
  00225	8b 12		 mov	 edx, DWORD PTR [edx]
  00227	51		 push	 ecx
  00228	ff 52 2c	 call	 DWORD PTR [edx+44]
  0022b	3b f4		 cmp	 esi, esp
  0022d	e8 00 00 00 00	 call	 __RTC_CheckEsp
$L80438:

; 422  : 
; 423  :     while( *strText )

  00232	8b 45 20	 mov	 eax, DWORD PTR _strText$[ebp]
  00235	0f be 08	 movsx	 ecx, BYTE PTR [eax]
  00238	85 c9		 test	 ecx, ecx
  0023a	0f 84 ca 04 00
	00		 je	 $L80439

; 424  :     {
; 425  :         TCHAR c = *strText++;

  00240	8b 45 20	 mov	 eax, DWORD PTR _strText$[ebp]
  00243	8a 08		 mov	 cl, BYTE PTR [eax]
  00245	88 8d 6f ff ff
	ff		 mov	 BYTE PTR _c$80440[ebp], cl
  0024b	8b 55 20	 mov	 edx, DWORD PTR _strText$[ebp]
  0024e	83 c2 01	 add	 edx, 1
  00251	89 55 20	 mov	 DWORD PTR _strText$[ebp], edx

; 426  : 
; 427  :         if( c == _T('\n') )

  00254	0f be 85 6f ff
	ff ff		 movsx	 eax, BYTE PTR _c$80440[ebp]
  0025b	83 f8 0a	 cmp	 eax, 10			; 0000000aH
  0025e	75 28		 jne	 SHORT $L80441

; 428  :         {
; 429  :             sx  = fStartX;

  00260	8b 45 9c	 mov	 eax, DWORD PTR _fStartX$[ebp]
  00263	89 45 cc	 mov	 DWORD PTR _sx$[ebp], eax

; 430  :             sy += fYScale*vp.Height;

  00266	8b 45 e4	 mov	 eax, DWORD PTR _vp$[ebp+12]
  00269	89 85 f0 fc ff
	ff		 mov	 DWORD PTR tv545[ebp], eax
  0026f	c7 85 f4 fc ff
	ff 00 00 00 00	 mov	 DWORD PTR tv545[ebp+4], 0
  00279	df ad f0 fc ff
	ff		 fild	 QWORD PTR tv545[ebp]
  0027f	d8 4d 18	 fmul	 DWORD PTR _fYScale$[ebp]
  00282	d8 45 c0	 fadd	 DWORD PTR _sy$[ebp]
  00285	d9 5d c0	 fstp	 DWORD PTR _sy$[ebp]
$L80441:

; 431  :         }
; 432  :         if( c < _T(' ') )

  00288	0f be 85 6f ff
	ff ff		 movsx	 eax, BYTE PTR _c$80440[ebp]
  0028f	83 f8 20	 cmp	 eax, 32			; 00000020H
  00292	7d 02		 jge	 SHORT $L80442

; 433  :             continue;

  00294	eb 9c		 jmp	 SHORT $L80438
$L80442:

; 434  : 
; 435  :         FLOAT tx1 = m_fTexCoords[c-32][0];

  00296	0f be 85 6f ff
	ff ff		 movsx	 eax, BYTE PTR _c$80440[ebp]
  0029d	83 e8 20	 sub	 eax, 32			; 00000020H
  002a0	c1 e0 04	 shl	 eax, 4
  002a3	8b 4d f8	 mov	 ecx, DWORD PTR _this$[ebp]
  002a6	8b 54 01 70	 mov	 edx, DWORD PTR [ecx+eax+112]
  002aa	89 95 60 ff ff
	ff		 mov	 DWORD PTR _tx1$80443[ebp], edx

; 436  :         FLOAT ty1 = m_fTexCoords[c-32][1];

  002b0	0f be 85 6f ff
	ff ff		 movsx	 eax, BYTE PTR _c$80440[ebp]
  002b7	83 e8 20	 sub	 eax, 32			; 00000020H
  002ba	c1 e0 04	 shl	 eax, 4
  002bd	8b 4d f8	 mov	 ecx, DWORD PTR _this$[ebp]
  002c0	8b 54 01 74	 mov	 edx, DWORD PTR [ecx+eax+116]
  002c4	89 95 54 ff ff
	ff		 mov	 DWORD PTR _ty1$80444[ebp], edx

; 437  :         FLOAT tx2 = m_fTexCoords[c-32][2];

  002ca	0f be 85 6f ff
	ff ff		 movsx	 eax, BYTE PTR _c$80440[ebp]
  002d1	83 e8 20	 sub	 eax, 32			; 00000020H
  002d4	c1 e0 04	 shl	 eax, 4
  002d7	8b 4d f8	 mov	 ecx, DWORD PTR _this$[ebp]
  002da	8b 54 01 78	 mov	 edx, DWORD PTR [ecx+eax+120]
  002de	89 95 48 ff ff
	ff		 mov	 DWORD PTR _tx2$80445[ebp], edx

; 438  :         FLOAT ty2 = m_fTexCoords[c-32][3];

  002e4	0f be 85 6f ff
	ff ff		 movsx	 eax, BYTE PTR _c$80440[ebp]
  002eb	83 e8 20	 sub	 eax, 32			; 00000020H
  002ee	c1 e0 04	 shl	 eax, 4
  002f1	8b 4d f8	 mov	 ecx, DWORD PTR _this$[ebp]
  002f4	8b 54 01 7c	 mov	 edx, DWORD PTR [ecx+eax+124]
  002f8	89 95 3c ff ff
	ff		 mov	 DWORD PTR _ty2$80446[ebp], edx

; 439  : 
; 440  :         FLOAT w = (tx2-tx1)*m_dwTexWidth;

  002fe	d9 85 48 ff ff
	ff		 fld	 DWORD PTR _tx2$80445[ebp]
  00304	d8 a5 60 ff ff
	ff		 fsub	 DWORD PTR _tx1$80443[ebp]
  0030a	8b 45 f8	 mov	 eax, DWORD PTR _this$[ebp]
  0030d	8b 48 64	 mov	 ecx, DWORD PTR [eax+100]
  00310	89 8d f0 fc ff
	ff		 mov	 DWORD PTR tv559[ebp], ecx
  00316	c7 85 f4 fc ff
	ff 00 00 00 00	 mov	 DWORD PTR tv559[ebp+4], 0
  00320	df ad f0 fc ff
	ff		 fild	 QWORD PTR tv559[ebp]
  00326	de c9		 fmulp	 ST(1), ST(0)
  00328	d9 9d 30 ff ff
	ff		 fstp	 DWORD PTR _w$80447[ebp]

; 441  :         FLOAT h = (ty2-ty1)*m_dwTexHeight;

  0032e	d9 85 3c ff ff
	ff		 fld	 DWORD PTR _ty2$80446[ebp]
  00334	d8 a5 54 ff ff
	ff		 fsub	 DWORD PTR _ty1$80444[ebp]
  0033a	8b 45 f8	 mov	 eax, DWORD PTR _this$[ebp]
  0033d	8b 48 68	 mov	 ecx, DWORD PTR [eax+104]
  00340	89 8d f0 fc ff
	ff		 mov	 DWORD PTR tv565[ebp], ecx
  00346	c7 85 f4 fc ff
	ff 00 00 00 00	 mov	 DWORD PTR tv565[ebp+4], 0
  00350	df ad f0 fc ff
	ff		 fild	 QWORD PTR tv565[ebp]
  00356	de c9		 fmulp	 ST(1), ST(0)
  00358	d9 9d 24 ff ff
	ff		 fstp	 DWORD PTR _h$80448[ebp]

; 442  : 
; 443  :         w *= (fXScale*vp.Width)/fLineHeight;

  0035e	8b 45 e0	 mov	 eax, DWORD PTR _vp$[ebp+8]
  00361	89 85 f0 fc ff
	ff		 mov	 DWORD PTR tv569[ebp], eax
  00367	c7 85 f4 fc ff
	ff 00 00 00 00	 mov	 DWORD PTR tv569[ebp+4], 0
  00371	df ad f0 fc ff
	ff		 fild	 QWORD PTR tv569[ebp]
  00377	d8 4d 14	 fmul	 DWORD PTR _fXScale$[ebp]
  0037a	d8 75 90	 fdiv	 DWORD PTR _fLineHeight$[ebp]
  0037d	d8 8d 30 ff ff
	ff		 fmul	 DWORD PTR _w$80447[ebp]
  00383	d9 9d 30 ff ff
	ff		 fstp	 DWORD PTR _w$80447[ebp]

; 444  :         h *= (fYScale*vp.Height)/fLineHeight;

  00389	8b 45 e4	 mov	 eax, DWORD PTR _vp$[ebp+12]
  0038c	89 85 f0 fc ff
	ff		 mov	 DWORD PTR tv573[ebp], eax
  00392	c7 85 f4 fc ff
	ff 00 00 00 00	 mov	 DWORD PTR tv573[ebp+4], 0
  0039c	df ad f0 fc ff
	ff		 fild	 QWORD PTR tv573[ebp]
  003a2	d8 4d 18	 fmul	 DWORD PTR _fYScale$[ebp]
  003a5	d8 75 90	 fdiv	 DWORD PTR _fLineHeight$[ebp]
  003a8	d8 8d 24 ff ff
	ff		 fmul	 DWORD PTR _h$80448[ebp]
  003ae	d9 9d 24 ff ff
	ff		 fstp	 DWORD PTR _h$80448[ebp]

; 445  : 
; 446  :         if( c != _T(' ') )

  003b4	0f be 85 6f ff
	ff ff		 movsx	 eax, BYTE PTR _c$80440[ebp]
  003bb	83 f8 20	 cmp	 eax, 32			; 00000020H
  003be	0f 84 35 03 00
	00		 je	 $L80449

; 447  :         {
; 448  :             *pVertices++ = InitFont2DVertex( D3DXVECTOR4(sx+0-0.5f,sy+h-0.5f,sz,rhw), dwColor, tx1, ty2 );

  003c4	8b 85 3c ff ff
	ff		 mov	 eax, DWORD PTR _ty2$80446[ebp]
  003ca	50		 push	 eax
  003cb	8b 8d 60 ff ff
	ff		 mov	 ecx, DWORD PTR _tx1$80443[ebp]
  003d1	51		 push	 ecx
  003d2	8b 55 1c	 mov	 edx, DWORD PTR _dwColor$[ebp]
  003d5	52		 push	 edx
  003d6	8b 45 a8	 mov	 eax, DWORD PTR _rhw$[ebp]
  003d9	50		 push	 eax
  003da	8b 4d b4	 mov	 ecx, DWORD PTR _sz$[ebp]
  003dd	51		 push	 ecx
  003de	d9 45 c0	 fld	 DWORD PTR _sy$[ebp]
  003e1	d8 85 24 ff ff
	ff		 fadd	 DWORD PTR _h$80448[ebp]
  003e7	d8 25 00 00 00
	00		 fsub	 DWORD PTR __real@3f000000
  003ed	51		 push	 ecx
  003ee	d9 1c 24	 fstp	 DWORD PTR [esp]
  003f1	d9 45 cc	 fld	 DWORD PTR _sx$[ebp]
  003f4	d8 05 00 00 00
	00		 fadd	 DWORD PTR __real@00000000
  003fa	d8 25 00 00 00
	00		 fsub	 DWORD PTR __real@3f000000
  00400	51		 push	 ecx
  00401	d9 1c 24	 fstp	 DWORD PTR [esp]
  00404	8d 8d 4c fe ff
	ff		 lea	 ecx, DWORD PTR $T80716[ebp]
  0040a	e8 00 00 00 00	 call	 ??0D3DXVECTOR4@@QAE@MMMM@Z ; D3DXVECTOR4::D3DXVECTOR4
  0040f	50		 push	 eax
  00410	8d 95 28 fe ff
	ff		 lea	 edx, DWORD PTR $T80717[ebp]
  00416	52		 push	 edx
  00417	e8 00 00 00 00	 call	 ?InitFont2DVertex@@YA?AUFONT2DVERTEX@@ABUD3DXVECTOR4@@KMM@Z ; InitFont2DVertex
  0041c	83 c4 14	 add	 esp, 20			; 00000014H
  0041f	b9 07 00 00 00	 mov	 ecx, 7
  00424	8b f0		 mov	 esi, eax
  00426	8b 7d 84	 mov	 edi, DWORD PTR _pVertices$[ebp]
  00429	f3 a5		 rep movsd
  0042b	8b 45 84	 mov	 eax, DWORD PTR _pVertices$[ebp]
  0042e	83 c0 1c	 add	 eax, 28			; 0000001cH
  00431	89 45 84	 mov	 DWORD PTR _pVertices$[ebp], eax

; 449  :             *pVertices++ = InitFont2DVertex( D3DXVECTOR4(sx+0-0.5f,sy+0-0.5f,sz,rhw), dwColor, tx1, ty1 );

  00434	8b 85 54 ff ff
	ff		 mov	 eax, DWORD PTR _ty1$80444[ebp]
  0043a	50		 push	 eax
  0043b	8b 8d 60 ff ff
	ff		 mov	 ecx, DWORD PTR _tx1$80443[ebp]
  00441	51		 push	 ecx
  00442	8b 55 1c	 mov	 edx, DWORD PTR _dwColor$[ebp]
  00445	52		 push	 edx
  00446	8b 45 a8	 mov	 eax, DWORD PTR _rhw$[ebp]
  00449	50		 push	 eax
  0044a	8b 4d b4	 mov	 ecx, DWORD PTR _sz$[ebp]
  0044d	51		 push	 ecx
  0044e	d9 45 c0	 fld	 DWORD PTR _sy$[ebp]
  00451	d8 05 00 00 00
	00		 fadd	 DWORD PTR __real@00000000
  00457	d8 25 00 00 00
	00		 fsub	 DWORD PTR __real@3f000000
  0045d	51		 push	 ecx
  0045e	d9 1c 24	 fstp	 DWORD PTR [esp]
  00461	d9 45 cc	 fld	 DWORD PTR _sx$[ebp]
  00464	d8 05 00 00 00
	00		 fadd	 DWORD PTR __real@00000000
  0046a	d8 25 00 00 00
	00		 fsub	 DWORD PTR __real@3f000000
  00470	51		 push	 ecx
  00471	d9 1c 24	 fstp	 DWORD PTR [esp]
  00474	8d 8d 10 fe ff
	ff		 lea	 ecx, DWORD PTR $T80718[ebp]
  0047a	e8 00 00 00 00	 call	 ??0D3DXVECTOR4@@QAE@MMMM@Z ; D3DXVECTOR4::D3DXVECTOR4
  0047f	50		 push	 eax
  00480	8d 95 ec fd ff
	ff		 lea	 edx, DWORD PTR $T80719[ebp]
  00486	52		 push	 edx
  00487	e8 00 00 00 00	 call	 ?InitFont2DVertex@@YA?AUFONT2DVERTEX@@ABUD3DXVECTOR4@@KMM@Z ; InitFont2DVertex
  0048c	83 c4 14	 add	 esp, 20			; 00000014H
  0048f	b9 07 00 00 00	 mov	 ecx, 7
  00494	8b f0		 mov	 esi, eax
  00496	8b 7d 84	 mov	 edi, DWORD PTR _pVertices$[ebp]
  00499	f3 a5		 rep movsd
  0049b	8b 45 84	 mov	 eax, DWORD PTR _pVertices$[ebp]
  0049e	83 c0 1c	 add	 eax, 28			; 0000001cH
  004a1	89 45 84	 mov	 DWORD PTR _pVertices$[ebp], eax

; 450  :             *pVertices++ = InitFont2DVertex( D3DXVECTOR4(sx+w-0.5f,sy+h-0.5f,sz,rhw), dwColor, tx2, ty2 );

  004a4	8b 85 3c ff ff
	ff		 mov	 eax, DWORD PTR _ty2$80446[ebp]
  004aa	50		 push	 eax
  004ab	8b 8d 48 ff ff
	ff		 mov	 ecx, DWORD PTR _tx2$80445[ebp]
  004b1	51		 push	 ecx
  004b2	8b 55 1c	 mov	 edx, DWORD PTR _dwColor$[ebp]
  004b5	52		 push	 edx
  004b6	8b 45 a8	 mov	 eax, DWORD PTR _rhw$[ebp]
  004b9	50		 push	 eax
  004ba	8b 4d b4	 mov	 ecx, DWORD PTR _sz$[ebp]
  004bd	51		 push	 ecx
  004be	d9 45 c0	 fld	 DWORD PTR _sy$[ebp]
  004c1	d8 85 24 ff ff
	ff		 fadd	 DWORD PTR _h$80448[ebp]
  004c7	d8 25 00 00 00
	00		 fsub	 DWORD PTR __real@3f000000
  004cd	51		 push	 ecx
  004ce	d9 1c 24	 fstp	 DWORD PTR [esp]
  004d1	d9 45 cc	 fld	 DWORD PTR _sx$[ebp]
  004d4	d8 85 30 ff ff
	ff		 fadd	 DWORD PTR _w$80447[ebp]
  004da	d8 25 00 00 00
	00		 fsub	 DWORD PTR __real@3f000000
  004e0	51		 push	 ecx
  004e1	d9 1c 24	 fstp	 DWORD PTR [esp]
  004e4	8d 8d d4 fd ff
	ff		 lea	 ecx, DWORD PTR $T80720[ebp]
  004ea	e8 00 00 00 00	 call	 ??0D3DXVECTOR4@@QAE@MMMM@Z ; D3DXVECTOR4::D3DXVECTOR4
  004ef	50		 push	 eax
  004f0	8d 95 b0 fd ff
	ff		 lea	 edx, DWORD PTR $T80721[ebp]
  004f6	52		 push	 edx
  004f7	e8 00 00 00 00	 call	 ?InitFont2DVertex@@YA?AUFONT2DVERTEX@@ABUD3DXVECTOR4@@KMM@Z ; InitFont2DVertex
  004fc	83 c4 14	 add	 esp, 20			; 00000014H
  004ff	b9 07 00 00 00	 mov	 ecx, 7
  00504	8b f0		 mov	 esi, eax
  00506	8b 7d 84	 mov	 edi, DWORD PTR _pVertices$[ebp]
  00509	f3 a5		 rep movsd
  0050b	8b 45 84	 mov	 eax, DWORD PTR _pVertices$[ebp]
  0050e	83 c0 1c	 add	 eax, 28			; 0000001cH
  00511	89 45 84	 mov	 DWORD PTR _pVertices$[ebp], eax

; 451  :             *pVertices++ = InitFont2DVertex( D3DXVECTOR4(sx+w-0.5f,sy+0-0.5f,sz,rhw), dwColor, tx2, ty1 );

  00514	8b 85 54 ff ff
	ff		 mov	 eax, DWORD PTR _ty1$80444[ebp]
  0051a	50		 push	 eax
  0051b	8b 8d 48 ff ff
	ff		 mov	 ecx, DWORD PTR _tx2$80445[ebp]
  00521	51		 push	 ecx
  00522	8b 55 1c	 mov	 edx, DWORD PTR _dwColor$[ebp]
  00525	52		 push	 edx
  00526	8b 45 a8	 mov	 eax, DWORD PTR _rhw$[ebp]
  00529	50		 push	 eax
  0052a	8b 4d b4	 mov	 ecx, DWORD PTR _sz$[ebp]
  0052d	51		 push	 ecx
  0052e	d9 45 c0	 fld	 DWORD PTR _sy$[ebp]
  00531	d8 05 00 00 00
	00		 fadd	 DWORD PTR __real@00000000
  00537	d8 25 00 00 00
	00		 fsub	 DWORD PTR __real@3f000000
  0053d	51		 push	 ecx
  0053e	d9 1c 24	 fstp	 DWORD PTR [esp]
  00541	d9 45 cc	 fld	 DWORD PTR _sx$[ebp]
  00544	d8 85 30 ff ff
	ff		 fadd	 DWORD PTR _w$80447[ebp]
  0054a	d8 25 00 00 00
	00		 fsub	 DWORD PTR __real@3f000000
  00550	51		 push	 ecx
  00551	d9 1c 24	 fstp	 DWORD PTR [esp]
  00554	8d 8d 98 fd ff
	ff		 lea	 ecx, DWORD PTR $T80722[ebp]
  0055a	e8 00 00 00 00	 call	 ??0D3DXVECTOR4@@QAE@MMMM@Z ; D3DXVECTOR4::D3DXVECTOR4
  0055f	50		 push	 eax
  00560	8d 95 74 fd ff
	ff		 lea	 edx, DWORD PTR $T80723[ebp]
  00566	52		 push	 edx
  00567	e8 00 00 00 00	 call	 ?InitFont2DVertex@@YA?AUFONT2DVERTEX@@ABUD3DXVECTOR4@@KMM@Z ; InitFont2DVertex
  0056c	83 c4 14	 add	 esp, 20			; 00000014H
  0056f	b9 07 00 00 00	 mov	 ecx, 7
  00574	8b f0		 mov	 esi, eax
  00576	8b 7d 84	 mov	 edi, DWORD PTR _pVertices$[ebp]
  00579	f3 a5		 rep movsd
  0057b	8b 45 84	 mov	 eax, DWORD PTR _pVertices$[ebp]
  0057e	83 c0 1c	 add	 eax, 28			; 0000001cH
  00581	89 45 84	 mov	 DWORD PTR _pVertices$[ebp], eax

; 452  :             *pVertices++ = InitFont2DVertex( D3DXVECTOR4(sx+w-0.5f,sy+h-0.5f,sz,rhw), dwColor, tx2, ty2 );

  00584	8b 85 3c ff ff
	ff		 mov	 eax, DWORD PTR _ty2$80446[ebp]
  0058a	50		 push	 eax
  0058b	8b 8d 48 ff ff
	ff		 mov	 ecx, DWORD PTR _tx2$80445[ebp]
  00591	51		 push	 ecx
  00592	8b 55 1c	 mov	 edx, DWORD PTR _dwColor$[ebp]
  00595	52		 push	 edx
  00596	8b 45 a8	 mov	 eax, DWORD PTR _rhw$[ebp]
  00599	50		 push	 eax
  0059a	8b 4d b4	 mov	 ecx, DWORD PTR _sz$[ebp]
  0059d	51		 push	 ecx
  0059e	d9 45 c0	 fld	 DWORD PTR _sy$[ebp]
  005a1	d8 85 24 ff ff
	ff		 fadd	 DWORD PTR _h$80448[ebp]
  005a7	d8 25 00 00 00
	00		 fsub	 DWORD PTR __real@3f000000
  005ad	51		 push	 ecx
  005ae	d9 1c 24	 fstp	 DWORD PTR [esp]
  005b1	d9 45 cc	 fld	 DWORD PTR _sx$[ebp]
  005b4	d8 85 30 ff ff
	ff		 fadd	 DWORD PTR _w$80447[ebp]
  005ba	d8 25 00 00 00
	00		 fsub	 DWORD PTR __real@3f000000
  005c0	51		 push	 ecx
  005c1	d9 1c 24	 fstp	 DWORD PTR [esp]
  005c4	8d 8d 5c fd ff
	ff		 lea	 ecx, DWORD PTR $T80724[ebp]
  005ca	e8 00 00 00 00	 call	 ??0D3DXVECTOR4@@QAE@MMMM@Z ; D3DXVECTOR4::D3DXVECTOR4
  005cf	50		 push	 eax
  005d0	8d 95 38 fd ff
	ff		 lea	 edx, DWORD PTR $T80725[ebp]
  005d6	52		 push	 edx
  005d7	e8 00 00 00 00	 call	 ?InitFont2DVertex@@YA?AUFONT2DVERTEX@@ABUD3DXVECTOR4@@KMM@Z ; InitFont2DVertex
  005dc	83 c4 14	 add	 esp, 20			; 00000014H
  005df	b9 07 00 00 00	 mov	 ecx, 7
  005e4	8b f0		 mov	 esi, eax
  005e6	8b 7d 84	 mov	 edi, DWORD PTR _pVertices$[ebp]
  005e9	f3 a5		 rep movsd
  005eb	8b 45 84	 mov	 eax, DWORD PTR _pVertices$[ebp]
  005ee	83 c0 1c	 add	 eax, 28			; 0000001cH
  005f1	89 45 84	 mov	 DWORD PTR _pVertices$[ebp], eax

; 453  :             *pVertices++ = InitFont2DVertex( D3DXVECTOR4(sx+0-0.5f,sy+0-0.5f,sz,rhw), dwColor, tx1, ty1 );

  005f4	8b 85 54 ff ff
	ff		 mov	 eax, DWORD PTR _ty1$80444[ebp]
  005fa	50		 push	 eax
  005fb	8b 8d 60 ff ff
	ff		 mov	 ecx, DWORD PTR _tx1$80443[ebp]
  00601	51		 push	 ecx
  00602	8b 55 1c	 mov	 edx, DWORD PTR _dwColor$[ebp]
  00605	52		 push	 edx
  00606	8b 45 a8	 mov	 eax, DWORD PTR _rhw$[ebp]
  00609	50		 push	 eax
  0060a	8b 4d b4	 mov	 ecx, DWORD PTR _sz$[ebp]
  0060d	51		 push	 ecx
  0060e	d9 45 c0	 fld	 DWORD PTR _sy$[ebp]
  00611	d8 05 00 00 00
	00		 fadd	 DWORD PTR __real@00000000
  00617	d8 25 00 00 00
	00		 fsub	 DWORD PTR __real@3f000000
  0061d	51		 push	 ecx
  0061e	d9 1c 24	 fstp	 DWORD PTR [esp]
  00621	d9 45 cc	 fld	 DWORD PTR _sx$[ebp]
  00624	d8 05 00 00 00
	00		 fadd	 DWORD PTR __real@00000000
  0062a	d8 25 00 00 00
	00		 fsub	 DWORD PTR __real@3f000000
  00630	51		 push	 ecx
  00631	d9 1c 24	 fstp	 DWORD PTR [esp]
  00634	8d 8d 20 fd ff
	ff		 lea	 ecx, DWORD PTR $T80726[ebp]
  0063a	e8 00 00 00 00	 call	 ??0D3DXVECTOR4@@QAE@MMMM@Z ; D3DXVECTOR4::D3DXVECTOR4
  0063f	50		 push	 eax
  00640	8d 95 fc fc ff
	ff		 lea	 edx, DWORD PTR $T80727[ebp]
  00646	52		 push	 edx
  00647	e8 00 00 00 00	 call	 ?InitFont2DVertex@@YA?AUFONT2DVERTEX@@ABUD3DXVECTOR4@@KMM@Z ; InitFont2DVertex
  0064c	83 c4 14	 add	 esp, 20			; 00000014H
  0064f	b9 07 00 00 00	 mov	 ecx, 7
  00654	8b f0		 mov	 esi, eax
  00656	8b 7d 84	 mov	 edi, DWORD PTR _pVertices$[ebp]
  00659	f3 a5		 rep movsd
  0065b	8b 45 84	 mov	 eax, DWORD PTR _pVertices$[ebp]
  0065e	83 c0 1c	 add	 eax, 28			; 0000001cH
  00661	89 45 84	 mov	 DWORD PTR _pVertices$[ebp], eax

; 454  :             dwNumTriangles += 2;

  00664	8b 85 78 ff ff
	ff		 mov	 eax, DWORD PTR _dwNumTriangles$[ebp]
  0066a	83 c0 02	 add	 eax, 2
  0066d	89 85 78 ff ff
	ff		 mov	 DWORD PTR _dwNumTriangles$[ebp], eax

; 455  : 
; 456  :             if( dwNumTriangles*3 > (MAX_NUM_VERTICES-6) )

  00673	8b 85 78 ff ff
	ff		 mov	 eax, DWORD PTR _dwNumTriangles$[ebp]
  00679	6b c0 03	 imul	 eax, 3
  0067c	3d 26 01 00 00	 cmp	 eax, 294		; 00000126H
  00681	76 76		 jbe	 SHORT $L80449

; 457  :             {
; 458  :                 // Unlock, render, and relock the vertex buffer
; 459  :                 m_pVB->Unlock();

  00683	8b 45 f8	 mov	 eax, DWORD PTR _this$[ebp]
  00686	8b 48 60	 mov	 ecx, DWORD PTR [eax+96]
  00689	8b 55 f8	 mov	 edx, DWORD PTR _this$[ebp]
  0068c	8b 42 60	 mov	 eax, DWORD PTR [edx+96]
  0068f	8b 09		 mov	 ecx, DWORD PTR [ecx]
  00691	8b f4		 mov	 esi, esp
  00693	50		 push	 eax
  00694	ff 51 30	 call	 DWORD PTR [ecx+48]
  00697	3b f4		 cmp	 esi, esp
  00699	e8 00 00 00 00	 call	 __RTC_CheckEsp

; 460  :                 m_pd3dDevice->DrawPrimitive( D3DPT_TRIANGLELIST, 0, dwNumTriangles );

  0069e	8b f4		 mov	 esi, esp
  006a0	8b 85 78 ff ff
	ff		 mov	 eax, DWORD PTR _dwNumTriangles$[ebp]
  006a6	50		 push	 eax
  006a7	6a 00		 push	 0
  006a9	6a 04		 push	 4
  006ab	8b 4d f8	 mov	 ecx, DWORD PTR _this$[ebp]
  006ae	8b 51 58	 mov	 edx, DWORD PTR [ecx+88]
  006b1	8b 45 f8	 mov	 eax, DWORD PTR _this$[ebp]
  006b4	8b 48 58	 mov	 ecx, DWORD PTR [eax+88]
  006b7	8b 12		 mov	 edx, DWORD PTR [edx]
  006b9	51		 push	 ecx
  006ba	ff 92 18 01 00
	00		 call	 DWORD PTR [edx+280]
  006c0	3b f4		 cmp	 esi, esp
  006c2	e8 00 00 00 00	 call	 __RTC_CheckEsp

; 461  :                 m_pVB->Lock( 0, 0, (BYTE**)&pVertices, D3DLOCK_DISCARD );

  006c7	8b f4		 mov	 esi, esp
  006c9	68 00 20 00 00	 push	 8192			; 00002000H
  006ce	8d 45 84	 lea	 eax, DWORD PTR _pVertices$[ebp]
  006d1	50		 push	 eax
  006d2	6a 00		 push	 0
  006d4	6a 00		 push	 0
  006d6	8b 4d f8	 mov	 ecx, DWORD PTR _this$[ebp]
  006d9	8b 51 60	 mov	 edx, DWORD PTR [ecx+96]
  006dc	8b 45 f8	 mov	 eax, DWORD PTR _this$[ebp]
  006df	8b 48 60	 mov	 ecx, DWORD PTR [eax+96]
  006e2	8b 12		 mov	 edx, DWORD PTR [edx]
  006e4	51		 push	 ecx
  006e5	ff 52 2c	 call	 DWORD PTR [edx+44]
  006e8	3b f4		 cmp	 esi, esp
  006ea	e8 00 00 00 00	 call	 __RTC_CheckEsp

; 462  :                 dwNumTriangles = 0L;

  006ef	c7 85 78 ff ff
	ff 00 00 00 00	 mov	 DWORD PTR _dwNumTriangles$[ebp], 0
$L80449:

; 463  :             }
; 464  :         }
; 465  : 
; 466  :         sx += w;

  006f9	d9 45 cc	 fld	 DWORD PTR _sx$[ebp]
  006fc	d8 85 30 ff ff
	ff		 fadd	 DWORD PTR _w$80447[ebp]
  00702	d9 5d cc	 fstp	 DWORD PTR _sx$[ebp]

; 467  :     }

  00705	e9 28 fb ff ff	 jmp	 $L80438
$L80439:

; 468  : 
; 469  :     // Unlock and render the vertex buffer
; 470  :     m_pVB->Unlock();

  0070a	8b 45 f8	 mov	 eax, DWORD PTR _this$[ebp]
  0070d	8b 48 60	 mov	 ecx, DWORD PTR [eax+96]
  00710	8b 55 f8	 mov	 edx, DWORD PTR _this$[ebp]
  00713	8b 42 60	 mov	 eax, DWORD PTR [edx+96]
  00716	8b 09		 mov	 ecx, DWORD PTR [ecx]
  00718	8b f4		 mov	 esi, esp
  0071a	50		 push	 eax
  0071b	ff 51 30	 call	 DWORD PTR [ecx+48]
  0071e	3b f4		 cmp	 esi, esp
  00720	e8 00 00 00 00	 call	 __RTC_CheckEsp

; 471  :     if( dwNumTriangles > 0 )

  00725	83 bd 78 ff ff
	ff 00		 cmp	 DWORD PTR _dwNumTriangles$[ebp], 0
  0072c	76 29		 jbe	 SHORT $L80464

; 472  :         m_pd3dDevice->DrawPrimitive( D3DPT_TRIANGLELIST, 0, dwNumTriangles );

  0072e	8b f4		 mov	 esi, esp
  00730	8b 85 78 ff ff
	ff		 mov	 eax, DWORD PTR _dwNumTriangles$[ebp]
  00736	50		 push	 eax
  00737	6a 00		 push	 0
  00739	6a 04		 push	 4
  0073b	8b 4d f8	 mov	 ecx, DWORD PTR _this$[ebp]
  0073e	8b 51 58	 mov	 edx, DWORD PTR [ecx+88]
  00741	8b 45 f8	 mov	 eax, DWORD PTR _this$[ebp]
  00744	8b 48 58	 mov	 ecx, DWORD PTR [eax+88]
  00747	8b 12		 mov	 edx, DWORD PTR [edx]
  00749	51		 push	 ecx
  0074a	ff 92 18 01 00
	00		 call	 DWORD PTR [edx+280]
  00750	3b f4		 cmp	 esi, esp
  00752	e8 00 00 00 00	 call	 __RTC_CheckEsp
$L80464:

; 473  : 
; 474  :     // Restore the modified renderstates
; 475  :     m_pd3dDevice->ApplyStateBlock( m_dwSavedStateBlock );

  00757	8b f4		 mov	 esi, esp
  00759	8b 45 f8	 mov	 eax, DWORD PTR _this$[ebp]
  0075c	8b 88 70 06 00
	00		 mov	 ecx, DWORD PTR [eax+1648]
  00762	51		 push	 ecx
  00763	8b 55 f8	 mov	 edx, DWORD PTR _this$[ebp]
  00766	8b 42 58	 mov	 eax, DWORD PTR [edx+88]
  00769	8b 4d f8	 mov	 ecx, DWORD PTR _this$[ebp]
  0076c	8b 51 58	 mov	 edx, DWORD PTR [ecx+88]
  0076f	8b 00		 mov	 eax, DWORD PTR [eax]
  00771	52		 push	 edx
  00772	ff 90 d8 00 00
	00		 call	 DWORD PTR [eax+216]
  00778	3b f4		 cmp	 esi, esp
  0077a	e8 00 00 00 00	 call	 __RTC_CheckEsp

; 476  : 
; 477  :     return S_OK;

  0077f	33 c0		 xor	 eax, eax
$L80422:

; 478  : }

  00781	52		 push	 edx
  00782	8b cd		 mov	 ecx, ebp
  00784	50		 push	 eax
  00785	8d 15 00 00 00
	00		 lea	 edx, DWORD PTR $L80740
  0078b	e8 00 00 00 00	 call	 @_RTC_CheckStackVars@8
  00790	58		 pop	 eax
  00791	5a		 pop	 edx
  00792	5f		 pop	 edi
  00793	5e		 pop	 esi
  00794	5b		 pop	 ebx
  00795	81 c4 10 03 00
	00		 add	 esp, 784		; 00000310H
  0079b	3b ec		 cmp	 ebp, esp
  0079d	e8 00 00 00 00	 call	 __RTC_CheckEsp
  007a2	8b e5		 mov	 esp, ebp
  007a4	5d		 pop	 ebp
  007a5	c2 20 00	 ret	 32			; 00000020H
$L80740:
  007a8	02 00 00 00	 DD	 2
  007ac	00 00 00 00	 DD	 $L80739
$L80739:
  007b0	d8 ff ff ff	 DD	 -40			; ffffffd8H
  007b4	18 00 00 00	 DD	 24			; 00000018H
  007b8	00 00 00 00	 DD	 $L80737
  007bc	84 ff ff ff	 DD	 -124			; ffffff84H
  007c0	04 00 00 00	 DD	 4
  007c4	00 00 00 00	 DD	 $L80738
$L80738:
  007c8	70		 DB	 112			; 00000070H
  007c9	56		 DB	 86			; 00000056H
  007ca	65		 DB	 101			; 00000065H
  007cb	72		 DB	 114			; 00000072H
  007cc	74		 DB	 116			; 00000074H
  007cd	69		 DB	 105			; 00000069H
  007ce	63		 DB	 99			; 00000063H
  007cf	65		 DB	 101			; 00000065H
  007d0	73		 DB	 115			; 00000073H
  007d1	00		 DB	 0
$L80737:
  007d2	76		 DB	 118			; 00000076H
  007d3	70		 DB	 112			; 00000070H
  007d4	00		 DB	 0
?DrawTextScaled@CD3DFont@@QAEJMMMMMKPADK@Z ENDP		; CD3DFont::DrawTextScaled
_TEXT	ENDS
PUBLIC	??0FONT2DVERTEX@@QAE@XZ				; FONT2DVERTEX::FONT2DVERTEX
; Function compile flags: /Odt /RTCsu /ZI
;	COMDAT ?InitFont2DVertex@@YA?AUFONT2DVERTEX@@ABUD3DXVECTOR4@@KMM@Z
_TEXT	SEGMENT
_v$ = -32
___$ReturnUdt$ = 8
_p$ = 12
_color$ = 16
_tu$ = 20
_tv$ = 24
?InitFont2DVertex@@YA?AUFONT2DVERTEX@@ABUD3DXVECTOR4@@KMM@Z PROC NEAR ; InitFont2DVertex, COMDAT

; 33   : {

  00000	55		 push	 ebp
  00001	8b ec		 mov	 ebp, esp
  00003	81 ec e4 00 00
	00		 sub	 esp, 228		; 000000e4H
  00009	53		 push	 ebx
  0000a	56		 push	 esi
  0000b	57		 push	 edi
  0000c	8d bd 1c ff ff
	ff		 lea	 edi, DWORD PTR [ebp-228]
  00012	b9 39 00 00 00	 mov	 ecx, 57			; 00000039H
  00017	b8 cc cc cc cc	 mov	 eax, -858993460		; ccccccccH
  0001c	f3 ab		 rep stosd

; 34   :     FONT2DVERTEX v;   v.p = p;   v.color = color;   v.tu = tu;   v.tv = tv;

  0001e	8d 4d e0	 lea	 ecx, DWORD PTR _v$[ebp]
  00021	e8 00 00 00 00	 call	 ??0FONT2DVERTEX@@QAE@XZ
  00026	8b 45 0c	 mov	 eax, DWORD PTR _p$[ebp]
  00029	8b 08		 mov	 ecx, DWORD PTR [eax]
  0002b	89 4d e0	 mov	 DWORD PTR _v$[ebp], ecx
  0002e	8b 50 04	 mov	 edx, DWORD PTR [eax+4]
  00031	89 55 e4	 mov	 DWORD PTR _v$[ebp+4], edx
  00034	8b 48 08	 mov	 ecx, DWORD PTR [eax+8]
  00037	89 4d e8	 mov	 DWORD PTR _v$[ebp+8], ecx
  0003a	8b 50 0c	 mov	 edx, DWORD PTR [eax+12]
  0003d	89 55 ec	 mov	 DWORD PTR _v$[ebp+12], edx
  00040	8b 45 10	 mov	 eax, DWORD PTR _color$[ebp]
  00043	89 45 f0	 mov	 DWORD PTR _v$[ebp+16], eax
  00046	8b 45 14	 mov	 eax, DWORD PTR _tu$[ebp]
  00049	89 45 f4	 mov	 DWORD PTR _v$[ebp+20], eax
  0004c	8b 45 18	 mov	 eax, DWORD PTR _tv$[ebp]
  0004f	89 45 f8	 mov	 DWORD PTR _v$[ebp+24], eax

; 35   :     return v;

  00052	b9 07 00 00 00	 mov	 ecx, 7
  00057	8d 75 e0	 lea	 esi, DWORD PTR _v$[ebp]
  0005a	8b 7d 08	 mov	 edi, DWORD PTR ___$ReturnUdt$[ebp]
  0005d	f3 a5		 rep movsd
  0005f	8b 45 08	 mov	 eax, DWORD PTR ___$ReturnUdt$[ebp]

; 36   : }

  00062	52		 push	 edx
  00063	8b cd		 mov	 ecx, ebp
  00065	50		 push	 eax
  00066	8d 15 00 00 00
	00		 lea	 edx, DWORD PTR $L80745
  0006c	e8 00 00 00 00	 call	 @_RTC_CheckStackVars@8
  00071	58		 pop	 eax
  00072	5a		 pop	 edx
  00073	5f		 pop	 edi
  00074	5e		 pop	 esi
  00075	5b		 pop	 ebx
  00076	81 c4 e4 00 00
	00		 add	 esp, 228		; 000000e4H
  0007c	3b ec		 cmp	 ebp, esp
  0007e	e8 00 00 00 00	 call	 __RTC_CheckEsp
  00083	8b e5		 mov	 esp, ebp
  00085	5d		 pop	 ebp
  00086	c3		 ret	 0
$L80745:
  00087	01 00 00 00	 DD	 1
  0008b	00 00 00 00	 DD	 $L80744
$L80744:
  0008f	e0 ff ff ff	 DD	 -32			; ffffffe0H
  00093	1c 00 00 00	 DD	 28			; 0000001cH
  00097	00 00 00 00	 DD	 $L80743
$L80743:
  0009b	76		 DB	 118			; 00000076H
  0009c	00		 DB	 0
?InitFont2DVertex@@YA?AUFONT2DVERTEX@@ABUD3DXVECTOR4@@KMM@Z ENDP ; InitFont2DVertex
_TEXT	ENDS
PUBLIC	??0D3DXVECTOR4@@QAE@XZ				; D3DXVECTOR4::D3DXVECTOR4
; Function compile flags: /Odt /RTCsu /ZI
;	COMDAT ??0FONT2DVERTEX@@QAE@XZ
_TEXT	SEGMENT
_this$ = -8
??0FONT2DVERTEX@@QAE@XZ PROC NEAR			; FONT2DVERTEX::FONT2DVERTEX, COMDAT
; _this$ = ecx
  00000	55		 push	 ebp
  00001	8b ec		 mov	 ebp, esp
  00003	81 ec cc 00 00
	00		 sub	 esp, 204		; 000000ccH
  00009	53		 push	 ebx
  0000a	56		 push	 esi
  0000b	57		 push	 edi
  0000c	51		 push	 ecx
  0000d	8d bd 34 ff ff
	ff		 lea	 edi, DWORD PTR [ebp-204]
  00013	b9 33 00 00 00	 mov	 ecx, 51			; 00000033H
  00018	b8 cc cc cc cc	 mov	 eax, -858993460		; ccccccccH
  0001d	f3 ab		 rep stosd
  0001f	59		 pop	 ecx
  00020	89 4d f8	 mov	 DWORD PTR _this$[ebp], ecx
  00023	8b 4d f8	 mov	 ecx, DWORD PTR _this$[ebp]
  00026	e8 00 00 00 00	 call	 ??0D3DXVECTOR4@@QAE@XZ	; D3DXVECTOR4::D3DXVECTOR4
  0002b	8b 45 f8	 mov	 eax, DWORD PTR _this$[ebp]
  0002e	5f		 pop	 edi
  0002f	5e		 pop	 esi
  00030	5b		 pop	 ebx
  00031	81 c4 cc 00 00
	00		 add	 esp, 204		; 000000ccH
  00037	3b ec		 cmp	 ebp, esp
  00039	e8 00 00 00 00	 call	 __RTC_CheckEsp
  0003e	8b e5		 mov	 esp, ebp
  00040	5d		 pop	 ebp
  00041	c3		 ret	 0
??0FONT2DVERTEX@@QAE@XZ ENDP				; FONT2DVERTEX::FONT2DVERTEX
_TEXT	ENDS
PUBLIC	?DrawTextScaledDM@CD3DFont@@QAEJMMMMMKPADKPAU_D3DVIEWPORT8@@@Z ; CD3DFont::DrawTextScaledDM
; Function compile flags: /Odt /RTCsu /ZI
;	COMDAT ?DrawTextScaledDM@CD3DFont@@QAEJMMMMMKPADKPAU_D3DVIEWPORT8@@@Z
_TEXT	SEGMENT
tv483 = -752
tv478 = -752
tv473 = -752
tv467 = -752
tv453 = -752
tv438 = -752
tv428 = -752
tv422 = -752
$T80761 = -740
$T80760 = -704
$T80759 = -680
$T80758 = -644
$T80757 = -620
$T80756 = -584
$T80755 = -560
$T80754 = -524
$T80753 = -500
$T80752 = -464
$T80751 = -440
$T80750 = -404
_h$80501 = -188
_w$80500 = -176
_ty2$80499 = -164
_tx2$80498 = -152
_ty1$80497 = -140
_tx1$80496 = -128
_c$80493 = -113
_dwNumTriangles$ = -104
_pVertices$ = -92
_fLineHeight$ = -80
_fStartX$ = -68
_rhw$ = -56
_sz$ = -44
_sy$ = -32
_sx$ = -20
_this$ = -8
_x$ = 8
_y$ = 12
_z$ = 16
_fXScale$ = 20
_fYScale$ = 24
_dwColor$ = 28
_strText$ = 32
_dwFlags$ = 36
_pVP$ = 40
?DrawTextScaledDM@CD3DFont@@QAEJMMMMMKPADKPAU_D3DVIEWPORT8@@@Z PROC NEAR ; CD3DFont::DrawTextScaledDM, COMDAT
; _this$ = ecx

; 485  : {

  00000	55		 push	 ebp
  00001	8b ec		 mov	 ebp, esp
  00003	81 ec f0 02 00
	00		 sub	 esp, 752		; 000002f0H
  00009	53		 push	 ebx
  0000a	56		 push	 esi
  0000b	57		 push	 edi
  0000c	51		 push	 ecx
  0000d	8d bd 10 fd ff
	ff		 lea	 edi, DWORD PTR [ebp-752]
  00013	b9 bc 00 00 00	 mov	 ecx, 188		; 000000bcH
  00018	b8 cc cc cc cc	 mov	 eax, -858993460		; ccccccccH
  0001d	f3 ab		 rep stosd
  0001f	59		 pop	 ecx
  00020	89 4d f8	 mov	 DWORD PTR _this$[ebp], ecx

; 486  :     if( m_pd3dDevice == NULL )

  00023	8b 45 f8	 mov	 eax, DWORD PTR _this$[ebp]
  00026	83 78 58 00	 cmp	 DWORD PTR [eax+88], 0
  0002a	75 0a		 jne	 SHORT $L80478

; 487  :         return E_FAIL;

  0002c	b8 05 40 00 80	 mov	 eax, -2147467259	; 80004005H
  00031	e9 15 06 00 00	 jmp	 $L80477
$L80478:

; 488  : 
; 489  :     // Set up renderstate
; 490  :     //m_pd3dDevice->CaptureStateBlock( m_dwSavedStateBlock );
; 491  :     //m_pd3dDevice->ApplyStateBlock( m_dwDrawTextStateBlock );
; 492  :     //m_pd3dDevice->SetVertexShader( D3DFVF_FONT2DVERTEX );
; 493  :     //m_pd3dDevice->SetPixelShader( NULL );
; 494  :     //m_pd3dDevice->SetStreamSource( 0, m_pVB, sizeof(FONT2DVERTEX) );
; 495  : 
; 496  :     // Set filter states
; 497  :     if( dwFlags & D3DFONT_FILTERED )

  00036	8b 45 24	 mov	 eax, DWORD PTR _dwFlags$[ebp]
  00039	83 e0 04	 and	 eax, 4
  0003c	85 c0		 test	 eax, eax
  0003e	74 48		 je	 SHORT $L80480

; 498  :     {
; 499  :         m_pd3dDevice->SetTextureStageState( 0, D3DTSS_MINFILTER, D3DTEXF_LINEAR );

  00040	8b f4		 mov	 esi, esp
  00042	6a 02		 push	 2
  00044	6a 11		 push	 17			; 00000011H
  00046	6a 00		 push	 0
  00048	8b 45 f8	 mov	 eax, DWORD PTR _this$[ebp]
  0004b	8b 48 58	 mov	 ecx, DWORD PTR [eax+88]
  0004e	8b 55 f8	 mov	 edx, DWORD PTR _this$[ebp]
  00051	8b 42 58	 mov	 eax, DWORD PTR [edx+88]
  00054	8b 09		 mov	 ecx, DWORD PTR [ecx]
  00056	50		 push	 eax
  00057	ff 91 fc 00 00
	00		 call	 DWORD PTR [ecx+252]
  0005d	3b f4		 cmp	 esi, esp
  0005f	e8 00 00 00 00	 call	 __RTC_CheckEsp

; 500  :         m_pd3dDevice->SetTextureStageState( 0, D3DTSS_MAGFILTER, D3DTEXF_LINEAR );

  00064	8b f4		 mov	 esi, esp
  00066	6a 02		 push	 2
  00068	6a 10		 push	 16			; 00000010H
  0006a	6a 00		 push	 0
  0006c	8b 45 f8	 mov	 eax, DWORD PTR _this$[ebp]
  0006f	8b 48 58	 mov	 ecx, DWORD PTR [eax+88]
  00072	8b 55 f8	 mov	 edx, DWORD PTR _this$[ebp]
  00075	8b 42 58	 mov	 eax, DWORD PTR [edx+88]
  00078	8b 09		 mov	 ecx, DWORD PTR [ecx]
  0007a	50		 push	 eax
  0007b	ff 91 fc 00 00
	00		 call	 DWORD PTR [ecx+252]
  00081	3b f4		 cmp	 esi, esp
  00083	e8 00 00 00 00	 call	 __RTC_CheckEsp
$L80480:

; 501  :     }
; 502  : 
; 503  :     FLOAT sx  = (x+1.0f)*pVP->Width/2;

  00088	d9 45 08	 fld	 DWORD PTR _x$[ebp]
  0008b	d8 05 00 00 00
	00		 fadd	 DWORD PTR __real@3f800000
  00091	8b 45 28	 mov	 eax, DWORD PTR _pVP$[ebp]
  00094	8b 48 08	 mov	 ecx, DWORD PTR [eax+8]
  00097	89 8d 10 fd ff
	ff		 mov	 DWORD PTR tv422[ebp], ecx
  0009d	c7 85 14 fd ff
	ff 00 00 00 00	 mov	 DWORD PTR tv422[ebp+4], 0
  000a7	df ad 10 fd ff
	ff		 fild	 QWORD PTR tv422[ebp]
  000ad	de c9		 fmulp	 ST(1), ST(0)
  000af	d8 35 00 00 00
	00		 fdiv	 DWORD PTR __real@40000000
  000b5	d9 5d ec	 fstp	 DWORD PTR _sx$[ebp]

; 504  :     FLOAT sy  = (y+1.0f)*pVP->Height/2;

  000b8	d9 45 0c	 fld	 DWORD PTR _y$[ebp]
  000bb	d8 05 00 00 00
	00		 fadd	 DWORD PTR __real@3f800000
  000c1	8b 45 28	 mov	 eax, DWORD PTR _pVP$[ebp]
  000c4	8b 48 0c	 mov	 ecx, DWORD PTR [eax+12]
  000c7	89 8d 10 fd ff
	ff		 mov	 DWORD PTR tv428[ebp], ecx
  000cd	c7 85 14 fd ff
	ff 00 00 00 00	 mov	 DWORD PTR tv428[ebp+4], 0
  000d7	df ad 10 fd ff
	ff		 fild	 QWORD PTR tv428[ebp]
  000dd	de c9		 fmulp	 ST(1), ST(0)
  000df	d8 35 00 00 00
	00		 fdiv	 DWORD PTR __real@40000000
  000e5	d9 5d e0	 fstp	 DWORD PTR _sy$[ebp]

; 505  :     FLOAT sz  = z;

  000e8	8b 45 10	 mov	 eax, DWORD PTR _z$[ebp]
  000eb	89 45 d4	 mov	 DWORD PTR _sz$[ebp], eax

; 506  :     FLOAT rhw = 1.0f;

  000ee	c7 45 c8 00 00
	80 3f		 mov	 DWORD PTR _rhw$[ebp], 1065353216 ; 3f800000H

; 507  :     FLOAT fStartX = sx;

  000f5	8b 45 ec	 mov	 eax, DWORD PTR _sx$[ebp]
  000f8	89 45 bc	 mov	 DWORD PTR _fStartX$[ebp], eax

; 508  : 
; 509  :     FLOAT fLineHeight = ( m_fTexCoords[0][3] - m_fTexCoords[0][1] ) * m_dwTexHeight;

  000fb	8b 45 f8	 mov	 eax, DWORD PTR _this$[ebp]
  000fe	8b 4d f8	 mov	 ecx, DWORD PTR _this$[ebp]
  00101	d9 40 7c	 fld	 DWORD PTR [eax+124]
  00104	d8 61 74	 fsub	 DWORD PTR [ecx+116]
  00107	8b 55 f8	 mov	 edx, DWORD PTR _this$[ebp]
  0010a	8b 42 68	 mov	 eax, DWORD PTR [edx+104]
  0010d	89 85 10 fd ff
	ff		 mov	 DWORD PTR tv438[ebp], eax
  00113	c7 85 14 fd ff
	ff 00 00 00 00	 mov	 DWORD PTR tv438[ebp+4], 0
  0011d	df ad 10 fd ff
	ff		 fild	 QWORD PTR tv438[ebp]
  00123	de c9		 fmulp	 ST(1), ST(0)
  00125	d9 5d b0	 fstp	 DWORD PTR _fLineHeight$[ebp]

; 510  : 
; 511  :     // Fill vertex buffer
; 512  :     FONT2DVERTEX* pVertices;
; 513  :     DWORD         dwNumTriangles = 0L;

  00128	c7 45 98 00 00
	00 00		 mov	 DWORD PTR _dwNumTriangles$[ebp], 0

; 514  :     m_pVB->Lock( 0, 0, (BYTE**)&pVertices, D3DLOCK_DISCARD );

  0012f	8b f4		 mov	 esi, esp
  00131	68 00 20 00 00	 push	 8192			; 00002000H
  00136	8d 45 a4	 lea	 eax, DWORD PTR _pVertices$[ebp]
  00139	50		 push	 eax
  0013a	6a 00		 push	 0
  0013c	6a 00		 push	 0
  0013e	8b 4d f8	 mov	 ecx, DWORD PTR _this$[ebp]
  00141	8b 51 60	 mov	 edx, DWORD PTR [ecx+96]
  00144	8b 45 f8	 mov	 eax, DWORD PTR _this$[ebp]
  00147	8b 48 60	 mov	 ecx, DWORD PTR [eax+96]
  0014a	8b 12		 mov	 edx, DWORD PTR [edx]
  0014c	51		 push	 ecx
  0014d	ff 52 2c	 call	 DWORD PTR [edx+44]
  00150	3b f4		 cmp	 esi, esp
  00152	e8 00 00 00 00	 call	 __RTC_CheckEsp
$L80491:

; 515  : 
; 516  :     while( *strText )

  00157	8b 45 20	 mov	 eax, DWORD PTR _strText$[ebp]
  0015a	0f be 08	 movsx	 ecx, BYTE PTR [eax]
  0015d	85 c9		 test	 ecx, ecx
  0015f	0f 84 9d 04 00
	00		 je	 $L80492

; 517  :     {
; 518  :         TCHAR c = *strText++;

  00165	8b 45 20	 mov	 eax, DWORD PTR _strText$[ebp]
  00168	8a 08		 mov	 cl, BYTE PTR [eax]
  0016a	88 4d 8f	 mov	 BYTE PTR _c$80493[ebp], cl
  0016d	8b 55 20	 mov	 edx, DWORD PTR _strText$[ebp]
  00170	83 c2 01	 add	 edx, 1
  00173	89 55 20	 mov	 DWORD PTR _strText$[ebp], edx

; 519  : 
; 520  :         if( c == _T('\n') )

  00176	0f be 45 8f	 movsx	 eax, BYTE PTR _c$80493[ebp]
  0017a	83 f8 0a	 cmp	 eax, 10			; 0000000aH
  0017d	75 2b		 jne	 SHORT $L80494

; 521  :         {
; 522  :             sx  = fStartX;

  0017f	8b 45 bc	 mov	 eax, DWORD PTR _fStartX$[ebp]
  00182	89 45 ec	 mov	 DWORD PTR _sx$[ebp], eax

; 523  :             sy += fYScale*pVP->Height;

  00185	8b 45 28	 mov	 eax, DWORD PTR _pVP$[ebp]
  00188	8b 48 0c	 mov	 ecx, DWORD PTR [eax+12]
  0018b	89 8d 10 fd ff
	ff		 mov	 DWORD PTR tv453[ebp], ecx
  00191	c7 85 14 fd ff
	ff 00 00 00 00	 mov	 DWORD PTR tv453[ebp+4], 0
  0019b	df ad 10 fd ff
	ff		 fild	 QWORD PTR tv453[ebp]
  001a1	d8 4d 18	 fmul	 DWORD PTR _fYScale$[ebp]
  001a4	d8 45 e0	 fadd	 DWORD PTR _sy$[ebp]
  001a7	d9 5d e0	 fstp	 DWORD PTR _sy$[ebp]
$L80494:

; 524  :         }
; 525  :         if( c < _T(' ') )

  001aa	0f be 45 8f	 movsx	 eax, BYTE PTR _c$80493[ebp]
  001ae	83 f8 20	 cmp	 eax, 32			; 00000020H
  001b1	7d 02		 jge	 SHORT $L80495

; 526  :             continue;

  001b3	eb a2		 jmp	 SHORT $L80491
$L80495:

; 527  : 
; 528  :         FLOAT tx1 = m_fTexCoords[c-32][0];

  001b5	0f be 45 8f	 movsx	 eax, BYTE PTR _c$80493[ebp]
  001b9	83 e8 20	 sub	 eax, 32			; 00000020H
  001bc	c1 e0 04	 shl	 eax, 4
  001bf	8b 4d f8	 mov	 ecx, DWORD PTR _this$[ebp]
  001c2	8b 54 01 70	 mov	 edx, DWORD PTR [ecx+eax+112]
  001c6	89 55 80	 mov	 DWORD PTR _tx1$80496[ebp], edx

; 529  :         FLOAT ty1 = m_fTexCoords[c-32][1];

  001c9	0f be 45 8f	 movsx	 eax, BYTE PTR _c$80493[ebp]
  001cd	83 e8 20	 sub	 eax, 32			; 00000020H
  001d0	c1 e0 04	 shl	 eax, 4
  001d3	8b 4d f8	 mov	 ecx, DWORD PTR _this$[ebp]
  001d6	8b 54 01 74	 mov	 edx, DWORD PTR [ecx+eax+116]
  001da	89 95 74 ff ff
	ff		 mov	 DWORD PTR _ty1$80497[ebp], edx

; 530  :         FLOAT tx2 = m_fTexCoords[c-32][2];

  001e0	0f be 45 8f	 movsx	 eax, BYTE PTR _c$80493[ebp]
  001e4	83 e8 20	 sub	 eax, 32			; 00000020H
  001e7	c1 e0 04	 shl	 eax, 4
  001ea	8b 4d f8	 mov	 ecx, DWORD PTR _this$[ebp]
  001ed	8b 54 01 78	 mov	 edx, DWORD PTR [ecx+eax+120]
  001f1	89 95 68 ff ff
	ff		 mov	 DWORD PTR _tx2$80498[ebp], edx

; 531  :         FLOAT ty2 = m_fTexCoords[c-32][3];

  001f7	0f be 45 8f	 movsx	 eax, BYTE PTR _c$80493[ebp]
  001fb	83 e8 20	 sub	 eax, 32			; 00000020H
  001fe	c1 e0 04	 shl	 eax, 4
  00201	8b 4d f8	 mov	 ecx, DWORD PTR _this$[ebp]
  00204	8b 54 01 7c	 mov	 edx, DWORD PTR [ecx+eax+124]
  00208	89 95 5c ff ff
	ff		 mov	 DWORD PTR _ty2$80499[ebp], edx

; 532  : 
; 533  :         FLOAT w = (tx2-tx1)*m_dwTexWidth;

  0020e	d9 85 68 ff ff
	ff		 fld	 DWORD PTR _tx2$80498[ebp]
  00214	d8 65 80	 fsub	 DWORD PTR _tx1$80496[ebp]
  00217	8b 45 f8	 mov	 eax, DWORD PTR _this$[ebp]
  0021a	8b 48 64	 mov	 ecx, DWORD PTR [eax+100]
  0021d	89 8d 10 fd ff
	ff		 mov	 DWORD PTR tv467[ebp], ecx
  00223	c7 85 14 fd ff
	ff 00 00 00 00	 mov	 DWORD PTR tv467[ebp+4], 0
  0022d	df ad 10 fd ff
	ff		 fild	 QWORD PTR tv467[ebp]
  00233	de c9		 fmulp	 ST(1), ST(0)
  00235	d9 9d 50 ff ff
	ff		 fstp	 DWORD PTR _w$80500[ebp]

; 534  :         FLOAT h = (ty2-ty1)*m_dwTexHeight;

  0023b	d9 85 5c ff ff
	ff		 fld	 DWORD PTR _ty2$80499[ebp]
  00241	d8 a5 74 ff ff
	ff		 fsub	 DWORD PTR _ty1$80497[ebp]
  00247	8b 45 f8	 mov	 eax, DWORD PTR _this$[ebp]
  0024a	8b 48 68	 mov	 ecx, DWORD PTR [eax+104]
  0024d	89 8d 10 fd ff
	ff		 mov	 DWORD PTR tv473[ebp], ecx
  00253	c7 85 14 fd ff
	ff 00 00 00 00	 mov	 DWORD PTR tv473[ebp+4], 0
  0025d	df ad 10 fd ff
	ff		 fild	 QWORD PTR tv473[ebp]
  00263	de c9		 fmulp	 ST(1), ST(0)
  00265	d9 9d 44 ff ff
	ff		 fstp	 DWORD PTR _h$80501[ebp]

; 535  : 
; 536  :         w *= (fXScale*pVP->Width)/fLineHeight;

  0026b	8b 45 28	 mov	 eax, DWORD PTR _pVP$[ebp]
  0026e	8b 48 08	 mov	 ecx, DWORD PTR [eax+8]
  00271	89 8d 10 fd ff
	ff		 mov	 DWORD PTR tv478[ebp], ecx
  00277	c7 85 14 fd ff
	ff 00 00 00 00	 mov	 DWORD PTR tv478[ebp+4], 0
  00281	df ad 10 fd ff
	ff		 fild	 QWORD PTR tv478[ebp]
  00287	d8 4d 14	 fmul	 DWORD PTR _fXScale$[ebp]
  0028a	d8 75 b0	 fdiv	 DWORD PTR _fLineHeight$[ebp]
  0028d	d8 8d 50 ff ff
	ff		 fmul	 DWORD PTR _w$80500[ebp]
  00293	d9 9d 50 ff ff
	ff		 fstp	 DWORD PTR _w$80500[ebp]

; 537  :         h *= (fYScale*pVP->Height)/fLineHeight;

  00299	8b 45 28	 mov	 eax, DWORD PTR _pVP$[ebp]
  0029c	8b 48 0c	 mov	 ecx, DWORD PTR [eax+12]
  0029f	89 8d 10 fd ff
	ff		 mov	 DWORD PTR tv483[ebp], ecx
  002a5	c7 85 14 fd ff
	ff 00 00 00 00	 mov	 DWORD PTR tv483[ebp+4], 0
  002af	df ad 10 fd ff
	ff		 fild	 QWORD PTR tv483[ebp]
  002b5	d8 4d 18	 fmul	 DWORD PTR _fYScale$[ebp]
  002b8	d8 75 b0	 fdiv	 DWORD PTR _fLineHeight$[ebp]
  002bb	d8 8d 44 ff ff
	ff		 fmul	 DWORD PTR _h$80501[ebp]
  002c1	d9 9d 44 ff ff
	ff		 fstp	 DWORD PTR _h$80501[ebp]

; 538  : 
; 539  :         if( c != _T(' ') )

  002c7	0f be 45 8f	 movsx	 eax, BYTE PTR _c$80493[ebp]
  002cb	83 f8 20	 cmp	 eax, 32			; 00000020H
  002ce	0f 84 1d 03 00
	00		 je	 $L80502

; 540  :         {
; 541  :             *pVertices++ = InitFont2DVertex( D3DXVECTOR4(sx+0-0.5f,sy+h-0.5f,sz,rhw), dwColor, tx1, ty2 );

  002d4	8b 85 5c ff ff
	ff		 mov	 eax, DWORD PTR _ty2$80499[ebp]
  002da	50		 push	 eax
  002db	8b 4d 80	 mov	 ecx, DWORD PTR _tx1$80496[ebp]
  002de	51		 push	 ecx
  002df	8b 55 1c	 mov	 edx, DWORD PTR _dwColor$[ebp]
  002e2	52		 push	 edx
  002e3	8b 45 c8	 mov	 eax, DWORD PTR _rhw$[ebp]
  002e6	50		 push	 eax
  002e7	8b 4d d4	 mov	 ecx, DWORD PTR _sz$[ebp]
  002ea	51		 push	 ecx
  002eb	d9 45 e0	 fld	 DWORD PTR _sy$[ebp]
  002ee	d8 85 44 ff ff
	ff		 fadd	 DWORD PTR _h$80501[ebp]
  002f4	d8 25 00 00 00
	00		 fsub	 DWORD PTR __real@3f000000
  002fa	51		 push	 ecx
  002fb	d9 1c 24	 fstp	 DWORD PTR [esp]
  002fe	d9 45 ec	 fld	 DWORD PTR _sx$[ebp]
  00301	d8 05 00 00 00
	00		 fadd	 DWORD PTR __real@00000000
  00307	d8 25 00 00 00
	00		 fsub	 DWORD PTR __real@3f000000
  0030d	51		 push	 ecx
  0030e	d9 1c 24	 fstp	 DWORD PTR [esp]
  00311	8d 8d 6c fe ff
	ff		 lea	 ecx, DWORD PTR $T80750[ebp]
  00317	e8 00 00 00 00	 call	 ??0D3DXVECTOR4@@QAE@MMMM@Z ; D3DXVECTOR4::D3DXVECTOR4
  0031c	50		 push	 eax
  0031d	8d 95 48 fe ff
	ff		 lea	 edx, DWORD PTR $T80751[ebp]
  00323	52		 push	 edx
  00324	e8 00 00 00 00	 call	 ?InitFont2DVertex@@YA?AUFONT2DVERTEX@@ABUD3DXVECTOR4@@KMM@Z ; InitFont2DVertex
  00329	83 c4 14	 add	 esp, 20			; 00000014H
  0032c	b9 07 00 00 00	 mov	 ecx, 7
  00331	8b f0		 mov	 esi, eax
  00333	8b 7d a4	 mov	 edi, DWORD PTR _pVertices$[ebp]
  00336	f3 a5		 rep movsd
  00338	8b 45 a4	 mov	 eax, DWORD PTR _pVertices$[ebp]
  0033b	83 c0 1c	 add	 eax, 28			; 0000001cH
  0033e	89 45 a4	 mov	 DWORD PTR _pVertices$[ebp], eax

; 542  :             *pVertices++ = InitFont2DVertex( D3DXVECTOR4(sx+0-0.5f,sy+0-0.5f,sz,rhw), dwColor, tx1, ty1 );

  00341	8b 85 74 ff ff
	ff		 mov	 eax, DWORD PTR _ty1$80497[ebp]
  00347	50		 push	 eax
  00348	8b 4d 80	 mov	 ecx, DWORD PTR _tx1$80496[ebp]
  0034b	51		 push	 ecx
  0034c	8b 55 1c	 mov	 edx, DWORD PTR _dwColor$[ebp]
  0034f	52		 push	 edx
  00350	8b 45 c8	 mov	 eax, DWORD PTR _rhw$[ebp]
  00353	50		 push	 eax
  00354	8b 4d d4	 mov	 ecx, DWORD PTR _sz$[ebp]
  00357	51		 push	 ecx
  00358	d9 45 e0	 fld	 DWORD PTR _sy$[ebp]
  0035b	d8 05 00 00 00
	00		 fadd	 DWORD PTR __real@00000000
  00361	d8 25 00 00 00
	00		 fsub	 DWORD PTR __real@3f000000
  00367	51		 push	 ecx
  00368	d9 1c 24	 fstp	 DWORD PTR [esp]
  0036b	d9 45 ec	 fld	 DWORD PTR _sx$[ebp]
  0036e	d8 05 00 00 00
	00		 fadd	 DWORD PTR __real@00000000
  00374	d8 25 00 00 00
	00		 fsub	 DWORD PTR __real@3f000000
  0037a	51		 push	 ecx
  0037b	d9 1c 24	 fstp	 DWORD PTR [esp]
  0037e	8d 8d 30 fe ff
	ff		 lea	 ecx, DWORD PTR $T80752[ebp]
  00384	e8 00 00 00 00	 call	 ??0D3DXVECTOR4@@QAE@MMMM@Z ; D3DXVECTOR4::D3DXVECTOR4
  00389	50		 push	 eax
  0038a	8d 95 0c fe ff
	ff		 lea	 edx, DWORD PTR $T80753[ebp]
  00390	52		 push	 edx
  00391	e8 00 00 00 00	 call	 ?InitFont2DVertex@@YA?AUFONT2DVERTEX@@ABUD3DXVECTOR4@@KMM@Z ; InitFont2DVertex
  00396	83 c4 14	 add	 esp, 20			; 00000014H
  00399	b9 07 00 00 00	 mov	 ecx, 7
  0039e	8b f0		 mov	 esi, eax
  003a0	8b 7d a4	 mov	 edi, DWORD PTR _pVertices$[ebp]
  003a3	f3 a5		 rep movsd
  003a5	8b 45 a4	 mov	 eax, DWORD PTR _pVertices$[ebp]
  003a8	83 c0 1c	 add	 eax, 28			; 0000001cH
  003ab	89 45 a4	 mov	 DWORD PTR _pVertices$[ebp], eax

; 543  :             *pVertices++ = InitFont2DVertex( D3DXVECTOR4(sx+w-0.5f,sy+h-0.5f,sz,rhw), dwColor, tx2, ty2 );

  003ae	8b 85 5c ff ff
	ff		 mov	 eax, DWORD PTR _ty2$80499[ebp]
  003b4	50		 push	 eax
  003b5	8b 8d 68 ff ff
	ff		 mov	 ecx, DWORD PTR _tx2$80498[ebp]
  003bb	51		 push	 ecx
  003bc	8b 55 1c	 mov	 edx, DWORD PTR _dwColor$[ebp]
  003bf	52		 push	 edx
  003c0	8b 45 c8	 mov	 eax, DWORD PTR _rhw$[ebp]
  003c3	50		 push	 eax
  003c4	8b 4d d4	 mov	 ecx, DWORD PTR _sz$[ebp]
  003c7	51		 push	 ecx
  003c8	d9 45 e0	 fld	 DWORD PTR _sy$[ebp]
  003cb	d8 85 44 ff ff
	ff		 fadd	 DWORD PTR _h$80501[ebp]
  003d1	d8 25 00 00 00
	00		 fsub	 DWORD PTR __real@3f000000
  003d7	51		 push	 ecx
  003d8	d9 1c 24	 fstp	 DWORD PTR [esp]
  003db	d9 45 ec	 fld	 DWORD PTR _sx$[ebp]
  003de	d8 85 50 ff ff
	ff		 fadd	 DWORD PTR _w$80500[ebp]
  003e4	d8 25 00 00 00
	00		 fsub	 DWORD PTR __real@3f000000
  003ea	51		 push	 ecx
  003eb	d9 1c 24	 fstp	 DWORD PTR [esp]
  003ee	8d 8d f4 fd ff
	ff		 lea	 ecx, DWORD PTR $T80754[ebp]
  003f4	e8 00 00 00 00	 call	 ??0D3DXVECTOR4@@QAE@MMMM@Z ; D3DXVECTOR4::D3DXVECTOR4
  003f9	50		 push	 eax
  003fa	8d 95 d0 fd ff
	ff		 lea	 edx, DWORD PTR $T80755[ebp]
  00400	52		 push	 edx
  00401	e8 00 00 00 00	 call	 ?InitFont2DVertex@@YA?AUFONT2DVERTEX@@ABUD3DXVECTOR4@@KMM@Z ; InitFont2DVertex
  00406	83 c4 14	 add	 esp, 20			; 00000014H
  00409	b9 07 00 00 00	 mov	 ecx, 7
  0040e	8b f0		 mov	 esi, eax
  00410	8b 7d a4	 mov	 edi, DWORD PTR _pVertices$[ebp]
  00413	f3 a5		 rep movsd
  00415	8b 45 a4	 mov	 eax, DWORD PTR _pVertices$[ebp]
  00418	83 c0 1c	 add	 eax, 28			; 0000001cH
  0041b	89 45 a4	 mov	 DWORD PTR _pVertices$[ebp], eax

; 544  :             *pVertices++ = InitFont2DVertex( D3DXVECTOR4(sx+w-0.5f,sy+0-0.5f,sz,rhw), dwColor, tx2, ty1 );

  0041e	8b 85 74 ff ff
	ff		 mov	 eax, DWORD PTR _ty1$80497[ebp]
  00424	50		 push	 eax
  00425	8b 8d 68 ff ff
	ff		 mov	 ecx, DWORD PTR _tx2$80498[ebp]
  0042b	51		 push	 ecx
  0042c	8b 55 1c	 mov	 edx, DWORD PTR _dwColor$[ebp]
  0042f	52		 push	 edx
  00430	8b 45 c8	 mov	 eax, DWORD PTR _rhw$[ebp]
  00433	50		 push	 eax
  00434	8b 4d d4	 mov	 ecx, DWORD PTR _sz$[ebp]
  00437	51		 push	 ecx
  00438	d9 45 e0	 fld	 DWORD PTR _sy$[ebp]
  0043b	d8 05 00 00 00
	00		 fadd	 DWORD PTR __real@00000000
  00441	d8 25 00 00 00
	00		 fsub	 DWORD PTR __real@3f000000
  00447	51		 push	 ecx
  00448	d9 1c 24	 fstp	 DWORD PTR [esp]
  0044b	d9 45 ec	 fld	 DWORD PTR _sx$[ebp]
  0044e	d8 85 50 ff ff
	ff		 fadd	 DWORD PTR _w$80500[ebp]
  00454	d8 25 00 00 00
	00		 fsub	 DWORD PTR __real@3f000000
  0045a	51		 push	 ecx
  0045b	d9 1c 24	 fstp	 DWORD PTR [esp]
  0045e	8d 8d b8 fd ff
	ff		 lea	 ecx, DWORD PTR $T80756[ebp]
  00464	e8 00 00 00 00	 call	 ??0D3DXVECTOR4@@QAE@MMMM@Z ; D3DXVECTOR4::D3DXVECTOR4
  00469	50		 push	 eax
  0046a	8d 95 94 fd ff
	ff		 lea	 edx, DWORD PTR $T80757[ebp]
  00470	52		 push	 edx
  00471	e8 00 00 00 00	 call	 ?InitFont2DVertex@@YA?AUFONT2DVERTEX@@ABUD3DXVECTOR4@@KMM@Z ; InitFont2DVertex
  00476	83 c4 14	 add	 esp, 20			; 00000014H
  00479	b9 07 00 00 00	 mov	 ecx, 7
  0047e	8b f0		 mov	 esi, eax
  00480	8b 7d a4	 mov	 edi, DWORD PTR _pVertices$[ebp]
  00483	f3 a5		 rep movsd
  00485	8b 45 a4	 mov	 eax, DWORD PTR _pVertices$[ebp]
  00488	83 c0 1c	 add	 eax, 28			; 0000001cH
  0048b	89 45 a4	 mov	 DWORD PTR _pVertices$[ebp], eax

; 545  :             *pVertices++ = InitFont2DVertex( D3DXVECTOR4(sx+w-0.5f,sy+h-0.5f,sz,rhw), dwColor, tx2, ty2 );

  0048e	8b 85 5c ff ff
	ff		 mov	 eax, DWORD PTR _ty2$80499[ebp]
  00494	50		 push	 eax
  00495	8b 8d 68 ff ff
	ff		 mov	 ecx, DWORD PTR _tx2$80498[ebp]
  0049b	51		 push	 ecx
  0049c	8b 55 1c	 mov	 edx, DWORD PTR _dwColor$[ebp]
  0049f	52		 push	 edx
  004a0	8b 45 c8	 mov	 eax, DWORD PTR _rhw$[ebp]
  004a3	50		 push	 eax
  004a4	8b 4d d4	 mov	 ecx, DWORD PTR _sz$[ebp]
  004a7	51		 push	 ecx
  004a8	d9 45 e0	 fld	 DWORD PTR _sy$[ebp]
  004ab	d8 85 44 ff ff
	ff		 fadd	 DWORD PTR _h$80501[ebp]
  004b1	d8 25 00 00 00
	00		 fsub	 DWORD PTR __real@3f000000
  004b7	51		 push	 ecx
  004b8	d9 1c 24	 fstp	 DWORD PTR [esp]
  004bb	d9 45 ec	 fld	 DWORD PTR _sx$[ebp]
  004be	d8 85 50 ff ff
	ff		 fadd	 DWORD PTR _w$80500[ebp]
  004c4	d8 25 00 00 00
	00		 fsub	 DWORD PTR __real@3f000000
  004ca	51		 push	 ecx
  004cb	d9 1c 24	 fstp	 DWORD PTR [esp]
  004ce	8d 8d 7c fd ff
	ff		 lea	 ecx, DWORD PTR $T80758[ebp]
  004d4	e8 00 00 00 00	 call	 ??0D3DXVECTOR4@@QAE@MMMM@Z ; D3DXVECTOR4::D3DXVECTOR4
  004d9	50		 push	 eax
  004da	8d 95 58 fd ff
	ff		 lea	 edx, DWORD PTR $T80759[ebp]
  004e0	52		 push	 edx
  004e1	e8 00 00 00 00	 call	 ?InitFont2DVertex@@YA?AUFONT2DVERTEX@@ABUD3DXVECTOR4@@KMM@Z ; InitFont2DVertex
  004e6	83 c4 14	 add	 esp, 20			; 00000014H
  004e9	b9 07 00 00 00	 mov	 ecx, 7
  004ee	8b f0		 mov	 esi, eax
  004f0	8b 7d a4	 mov	 edi, DWORD PTR _pVertices$[ebp]
  004f3	f3 a5		 rep movsd
  004f5	8b 45 a4	 mov	 eax, DWORD PTR _pVertices$[ebp]
  004f8	83 c0 1c	 add	 eax, 28			; 0000001cH
  004fb	89 45 a4	 mov	 DWORD PTR _pVertices$[ebp], eax

; 546  :             *pVertices++ = InitFont2DVertex( D3DXVECTOR4(sx+0-0.5f,sy+0-0.5f,sz,rhw), dwColor, tx1, ty1 );

  004fe	8b 85 74 ff ff
	ff		 mov	 eax, DWORD PTR _ty1$80497[ebp]
  00504	50		 push	 eax
  00505	8b 4d 80	 mov	 ecx, DWORD PTR _tx1$80496[ebp]
  00508	51		 push	 ecx
  00509	8b 55 1c	 mov	 edx, DWORD PTR _dwColor$[ebp]
  0050c	52		 push	 edx
  0050d	8b 45 c8	 mov	 eax, DWORD PTR _rhw$[ebp]
  00510	50		 push	 eax
  00511	8b 4d d4	 mov	 ecx, DWORD PTR _sz$[ebp]
  00514	51		 push	 ecx
  00515	d9 45 e0	 fld	 DWORD PTR _sy$[ebp]
  00518	d8 05 00 00 00
	00		 fadd	 DWORD PTR __real@00000000
  0051e	d8 25 00 00 00
	00		 fsub	 DWORD PTR __real@3f000000
  00524	51		 push	 ecx
  00525	d9 1c 24	 fstp	 DWORD PTR [esp]
  00528	d9 45 ec	 fld	 DWORD PTR _sx$[ebp]
  0052b	d8 05 00 00 00
	00		 fadd	 DWORD PTR __real@00000000
  00531	d8 25 00 00 00
	00		 fsub	 DWORD PTR __real@3f000000
  00537	51		 push	 ecx
  00538	d9 1c 24	 fstp	 DWORD PTR [esp]
  0053b	8d 8d 40 fd ff
	ff		 lea	 ecx, DWORD PTR $T80760[ebp]
  00541	e8 00 00 00 00	 call	 ??0D3DXVECTOR4@@QAE@MMMM@Z ; D3DXVECTOR4::D3DXVECTOR4
  00546	50		 push	 eax
  00547	8d 95 1c fd ff
	ff		 lea	 edx, DWORD PTR $T80761[ebp]
  0054d	52		 push	 edx
  0054e	e8 00 00 00 00	 call	 ?InitFont2DVertex@@YA?AUFONT2DVERTEX@@ABUD3DXVECTOR4@@KMM@Z ; InitFont2DVertex
  00553	83 c4 14	 add	 esp, 20			; 00000014H
  00556	b9 07 00 00 00	 mov	 ecx, 7
  0055b	8b f0		 mov	 esi, eax
  0055d	8b 7d a4	 mov	 edi, DWORD PTR _pVertices$[ebp]
  00560	f3 a5		 rep movsd
  00562	8b 45 a4	 mov	 eax, DWORD PTR _pVertices$[ebp]
  00565	83 c0 1c	 add	 eax, 28			; 0000001cH
  00568	89 45 a4	 mov	 DWORD PTR _pVertices$[ebp], eax

; 547  :             dwNumTriangles += 2;

  0056b	8b 45 98	 mov	 eax, DWORD PTR _dwNumTriangles$[ebp]
  0056e	83 c0 02	 add	 eax, 2
  00571	89 45 98	 mov	 DWORD PTR _dwNumTriangles$[ebp], eax

; 548  : 
; 549  :             if( dwNumTriangles*3 > (MAX_NUM_VERTICES-6) )

  00574	8b 45 98	 mov	 eax, DWORD PTR _dwNumTriangles$[ebp]
  00577	6b c0 03	 imul	 eax, 3
  0057a	3d 26 01 00 00	 cmp	 eax, 294		; 00000126H
  0057f	76 70		 jbe	 SHORT $L80502

; 550  :             {
; 551  :                 // Unlock, render, and relock the vertex buffer
; 552  :                 m_pVB->Unlock();

  00581	8b 45 f8	 mov	 eax, DWORD PTR _this$[ebp]
  00584	8b 48 60	 mov	 ecx, DWORD PTR [eax+96]
  00587	8b 55 f8	 mov	 edx, DWORD PTR _this$[ebp]
  0058a	8b 42 60	 mov	 eax, DWORD PTR [edx+96]
  0058d	8b 09		 mov	 ecx, DWORD PTR [ecx]
  0058f	8b f4		 mov	 esi, esp
  00591	50		 push	 eax
  00592	ff 51 30	 call	 DWORD PTR [ecx+48]
  00595	3b f4		 cmp	 esi, esp
  00597	e8 00 00 00 00	 call	 __RTC_CheckEsp

; 553  :                 m_pd3dDevice->DrawPrimitive( D3DPT_TRIANGLELIST, 0, dwNumTriangles );

  0059c	8b f4		 mov	 esi, esp
  0059e	8b 45 98	 mov	 eax, DWORD PTR _dwNumTriangles$[ebp]
  005a1	50		 push	 eax
  005a2	6a 00		 push	 0
  005a4	6a 04		 push	 4
  005a6	8b 4d f8	 mov	 ecx, DWORD PTR _this$[ebp]
  005a9	8b 51 58	 mov	 edx, DWORD PTR [ecx+88]
  005ac	8b 45 f8	 mov	 eax, DWORD PTR _this$[ebp]
  005af	8b 48 58	 mov	 ecx, DWORD PTR [eax+88]
  005b2	8b 12		 mov	 edx, DWORD PTR [edx]
  005b4	51		 push	 ecx
  005b5	ff 92 18 01 00
	00		 call	 DWORD PTR [edx+280]
  005bb	3b f4		 cmp	 esi, esp
  005bd	e8 00 00 00 00	 call	 __RTC_CheckEsp

; 554  :                 m_pVB->Lock( 0, 0, (BYTE**)&pVertices, D3DLOCK_DISCARD );

  005c2	8b f4		 mov	 esi, esp
  005c4	68 00 20 00 00	 push	 8192			; 00002000H
  005c9	8d 45 a4	 lea	 eax, DWORD PTR _pVertices$[ebp]
  005cc	50		 push	 eax
  005cd	6a 00		 push	 0
  005cf	6a 00		 push	 0
  005d1	8b 4d f8	 mov	 ecx, DWORD PTR _this$[ebp]
  005d4	8b 51 60	 mov	 edx, DWORD PTR [ecx+96]
  005d7	8b 45 f8	 mov	 eax, DWORD PTR _this$[ebp]
  005da	8b 48 60	 mov	 ecx, DWORD PTR [eax+96]
  005dd	8b 12		 mov	 edx, DWORD PTR [edx]
  005df	51		 push	 ecx
  005e0	ff 52 2c	 call	 DWORD PTR [edx+44]
  005e3	3b f4		 cmp	 esi, esp
  005e5	e8 00 00 00 00	 call	 __RTC_CheckEsp

; 555  :                 dwNumTriangles = 0L;

  005ea	c7 45 98 00 00
	00 00		 mov	 DWORD PTR _dwNumTriangles$[ebp], 0
$L80502:

; 556  :             }
; 557  :         }
; 558  : 
; 559  :         sx += w;

  005f1	d9 45 ec	 fld	 DWORD PTR _sx$[ebp]
  005f4	d8 85 50 ff ff
	ff		 fadd	 DWORD PTR _w$80500[ebp]
  005fa	d9 5d ec	 fstp	 DWORD PTR _sx$[ebp]

; 560  :     }

  005fd	e9 55 fb ff ff	 jmp	 $L80491
$L80492:

; 561  : 
; 562  :     // Unlock and render the vertex buffer
; 563  :     m_pVB->Unlock();

  00602	8b 45 f8	 mov	 eax, DWORD PTR _this$[ebp]
  00605	8b 48 60	 mov	 ecx, DWORD PTR [eax+96]
  00608	8b 55 f8	 mov	 edx, DWORD PTR _this$[ebp]
  0060b	8b 42 60	 mov	 eax, DWORD PTR [edx+96]
  0060e	8b 09		 mov	 ecx, DWORD PTR [ecx]
  00610	8b f4		 mov	 esi, esp
  00612	50		 push	 eax
  00613	ff 51 30	 call	 DWORD PTR [ecx+48]
  00616	3b f4		 cmp	 esi, esp
  00618	e8 00 00 00 00	 call	 __RTC_CheckEsp

; 564  :     if( dwNumTriangles > 0 )

  0061d	83 7d 98 00	 cmp	 DWORD PTR _dwNumTriangles$[ebp], 0
  00621	76 26		 jbe	 SHORT $L80517

; 565  :         m_pd3dDevice->DrawPrimitive( D3DPT_TRIANGLELIST, 0, dwNumTriangles );

  00623	8b f4		 mov	 esi, esp
  00625	8b 45 98	 mov	 eax, DWORD PTR _dwNumTriangles$[ebp]
  00628	50		 push	 eax
  00629	6a 00		 push	 0
  0062b	6a 04		 push	 4
  0062d	8b 4d f8	 mov	 ecx, DWORD PTR _this$[ebp]
  00630	8b 51 58	 mov	 edx, DWORD PTR [ecx+88]
  00633	8b 45 f8	 mov	 eax, DWORD PTR _this$[ebp]
  00636	8b 48 58	 mov	 ecx, DWORD PTR [eax+88]
  00639	8b 12		 mov	 edx, DWORD PTR [edx]
  0063b	51		 push	 ecx
  0063c	ff 92 18 01 00
	00		 call	 DWORD PTR [edx+280]
  00642	3b f4		 cmp	 esi, esp
  00644	e8 00 00 00 00	 call	 __RTC_CheckEsp
$L80517:

; 566  : 
; 567  :     // Restore the modified renderstates
; 568  :     //m_pd3dDevice->ApplyStateBlock( m_dwSavedStateBlock );
; 569  : 
; 570  :     return S_OK;

  00649	33 c0		 xor	 eax, eax
$L80477:

; 571  : }

  0064b	52		 push	 edx
  0064c	8b cd		 mov	 ecx, ebp
  0064e	50		 push	 eax
  0064f	8d 15 00 00 00
	00		 lea	 edx, DWORD PTR $L80765
  00655	e8 00 00 00 00	 call	 @_RTC_CheckStackVars@8
  0065a	58		 pop	 eax
  0065b	5a		 pop	 edx
  0065c	5f		 pop	 edi
  0065d	5e		 pop	 esi
  0065e	5b		 pop	 ebx
  0065f	81 c4 f0 02 00
	00		 add	 esp, 752		; 000002f0H
  00665	3b ec		 cmp	 ebp, esp
  00667	e8 00 00 00 00	 call	 __RTC_CheckEsp
  0066c	8b e5		 mov	 esp, ebp
  0066e	5d		 pop	 ebp
  0066f	c2 24 00	 ret	 36			; 00000024H
$L80765:
  00672	01 00 00 00	 DD	 1
  00676	00 00 00 00	 DD	 $L80764
$L80764:
  0067a	a4 ff ff ff	 DD	 -92			; ffffffa4H
  0067e	04 00 00 00	 DD	 4
  00682	00 00 00 00	 DD	 $L80763
$L80763:
  00686	70		 DB	 112			; 00000070H
  00687	56		 DB	 86			; 00000056H
  00688	65		 DB	 101			; 00000065H
  00689	72		 DB	 114			; 00000072H
  0068a	74		 DB	 116			; 00000074H
  0068b	69		 DB	 105			; 00000069H
  0068c	63		 DB	 99			; 00000063H
  0068d	65		 DB	 101			; 00000065H
  0068e	73		 DB	 115			; 00000073H
  0068f	00		 DB	 0
?DrawTextScaledDM@CD3DFont@@QAEJMMMMMKPADKPAU_D3DVIEWPORT8@@@Z ENDP ; CD3DFont::DrawTextScaledDM
_TEXT	ENDS
PUBLIC	?SetRenderStateDM@CD3DFont@@QAEXXZ		; CD3DFont::SetRenderStateDM
; Function compile flags: /Odt /RTCsu /ZI
;	COMDAT ?SetRenderStateDM@CD3DFont@@QAEXXZ
_TEXT	SEGMENT
_this$ = -8
?SetRenderStateDM@CD3DFont@@QAEXXZ PROC NEAR		; CD3DFont::SetRenderStateDM, COMDAT
; _this$ = ecx

; 574  : {

  00000	55		 push	 ebp
  00001	8b ec		 mov	 ebp, esp
  00003	81 ec cc 00 00
	00		 sub	 esp, 204		; 000000ccH
  00009	53		 push	 ebx
  0000a	56		 push	 esi
  0000b	57		 push	 edi
  0000c	51		 push	 ecx
  0000d	8d bd 34 ff ff
	ff		 lea	 edi, DWORD PTR [ebp-204]
  00013	b9 33 00 00 00	 mov	 ecx, 51			; 00000033H
  00018	b8 cc cc cc cc	 mov	 eax, -858993460		; ccccccccH
  0001d	f3 ab		 rep stosd
  0001f	59		 pop	 ecx
  00020	89 4d f8	 mov	 DWORD PTR _this$[ebp], ecx

; 575  :     // Set up renderstate
; 576  :     m_pd3dDevice->CaptureStateBlock( m_dwSavedStateBlock );

  00023	8b f4		 mov	 esi, esp
  00025	8b 45 f8	 mov	 eax, DWORD PTR _this$[ebp]
  00028	8b 88 70 06 00
	00		 mov	 ecx, DWORD PTR [eax+1648]
  0002e	51		 push	 ecx
  0002f	8b 55 f8	 mov	 edx, DWORD PTR _this$[ebp]
  00032	8b 42 58	 mov	 eax, DWORD PTR [edx+88]
  00035	8b 4d f8	 mov	 ecx, DWORD PTR _this$[ebp]
  00038	8b 51 58	 mov	 edx, DWORD PTR [ecx+88]
  0003b	8b 00		 mov	 eax, DWORD PTR [eax]
  0003d	52		 push	 edx
  0003e	ff 90 dc 00 00
	00		 call	 DWORD PTR [eax+220]
  00044	3b f4		 cmp	 esi, esp
  00046	e8 00 00 00 00	 call	 __RTC_CheckEsp

; 577  :     m_pd3dDevice->ApplyStateBlock( m_dwDrawTextStateBlock );

  0004b	8b f4		 mov	 esi, esp
  0004d	8b 45 f8	 mov	 eax, DWORD PTR _this$[ebp]
  00050	8b 88 74 06 00
	00		 mov	 ecx, DWORD PTR [eax+1652]
  00056	51		 push	 ecx
  00057	8b 55 f8	 mov	 edx, DWORD PTR _this$[ebp]
  0005a	8b 42 58	 mov	 eax, DWORD PTR [edx+88]
  0005d	8b 4d f8	 mov	 ecx, DWORD PTR _this$[ebp]
  00060	8b 51 58	 mov	 edx, DWORD PTR [ecx+88]
  00063	8b 00		 mov	 eax, DWORD PTR [eax]
  00065	52		 push	 edx
  00066	ff 90 d8 00 00
	00		 call	 DWORD PTR [eax+216]
  0006c	3b f4		 cmp	 esi, esp
  0006e	e8 00 00 00 00	 call	 __RTC_CheckEsp

; 578  :     m_pd3dDevice->SetVertexShader( D3DFVF_FONT2DVERTEX );

  00073	8b f4		 mov	 esi, esp
  00075	68 44 01 00 00	 push	 324			; 00000144H
  0007a	8b 45 f8	 mov	 eax, DWORD PTR _this$[ebp]
  0007d	8b 48 58	 mov	 ecx, DWORD PTR [eax+88]
  00080	8b 55 f8	 mov	 edx, DWORD PTR _this$[ebp]
  00083	8b 42 58	 mov	 eax, DWORD PTR [edx+88]
  00086	8b 09		 mov	 ecx, DWORD PTR [ecx]
  00088	50		 push	 eax
  00089	ff 91 30 01 00
	00		 call	 DWORD PTR [ecx+304]
  0008f	3b f4		 cmp	 esi, esp
  00091	e8 00 00 00 00	 call	 __RTC_CheckEsp

; 579  :     m_pd3dDevice->SetPixelShader( NULL );

  00096	8b f4		 mov	 esi, esp
  00098	6a 00		 push	 0
  0009a	8b 45 f8	 mov	 eax, DWORD PTR _this$[ebp]
  0009d	8b 48 58	 mov	 ecx, DWORD PTR [eax+88]
  000a0	8b 55 f8	 mov	 edx, DWORD PTR _this$[ebp]
  000a3	8b 42 58	 mov	 eax, DWORD PTR [edx+88]
  000a6	8b 09		 mov	 ecx, DWORD PTR [ecx]
  000a8	50		 push	 eax
  000a9	ff 91 60 01 00
	00		 call	 DWORD PTR [ecx+352]
  000af	3b f4		 cmp	 esi, esp
  000b1	e8 00 00 00 00	 call	 __RTC_CheckEsp

; 580  :     m_pd3dDevice->SetStreamSource( 0, m_pVB, sizeof(FONT2DVERTEX) );

  000b6	8b f4		 mov	 esi, esp
  000b8	6a 1c		 push	 28			; 0000001cH
  000ba	8b 45 f8	 mov	 eax, DWORD PTR _this$[ebp]
  000bd	8b 48 60	 mov	 ecx, DWORD PTR [eax+96]
  000c0	51		 push	 ecx
  000c1	6a 00		 push	 0
  000c3	8b 55 f8	 mov	 edx, DWORD PTR _this$[ebp]
  000c6	8b 42 58	 mov	 eax, DWORD PTR [edx+88]
  000c9	8b 4d f8	 mov	 ecx, DWORD PTR _this$[ebp]
  000cc	8b 51 58	 mov	 edx, DWORD PTR [ecx+88]
  000cf	8b 00		 mov	 eax, DWORD PTR [eax]
  000d1	52		 push	 edx
  000d2	ff 90 4c 01 00
	00		 call	 DWORD PTR [eax+332]
  000d8	3b f4		 cmp	 esi, esp
  000da	e8 00 00 00 00	 call	 __RTC_CheckEsp

; 581  : }

  000df	5f		 pop	 edi
  000e0	5e		 pop	 esi
  000e1	5b		 pop	 ebx
  000e2	81 c4 cc 00 00
	00		 add	 esp, 204		; 000000ccH
  000e8	3b ec		 cmp	 ebp, esp
  000ea	e8 00 00 00 00	 call	 __RTC_CheckEsp
  000ef	8b e5		 mov	 esp, ebp
  000f1	5d		 pop	 ebp
  000f2	c3		 ret	 0
?SetRenderStateDM@CD3DFont@@QAEXXZ ENDP			; CD3DFont::SetRenderStateDM
; Function compile flags: /Odt /RTCsu /ZI
; File c:\dxsdk\include\d3dx8math.h
_TEXT	ENDS
;	COMDAT ??0D3DXVECTOR4@@QAE@XZ
_TEXT	SEGMENT
_this$ = -8
??0D3DXVECTOR4@@QAE@XZ PROC NEAR			; D3DXVECTOR4::D3DXVECTOR4, COMDAT
; _this$ = ecx

; 133  :     D3DXVECTOR4() {};

  00000	55		 push	 ebp
  00001	8b ec		 mov	 ebp, esp
  00003	81 ec cc 00 00
	00		 sub	 esp, 204		; 000000ccH
  00009	53		 push	 ebx
  0000a	56		 push	 esi
  0000b	57		 push	 edi
  0000c	51		 push	 ecx
  0000d	8d bd 34 ff ff
	ff		 lea	 edi, DWORD PTR [ebp-204]
  00013	b9 33 00 00 00	 mov	 ecx, 51			; 00000033H
  00018	b8 cc cc cc cc	 mov	 eax, -858993460		; ccccccccH
  0001d	f3 ab		 rep stosd
  0001f	59		 pop	 ecx
  00020	89 4d f8	 mov	 DWORD PTR _this$[ebp], ecx
  00023	8b 45 f8	 mov	 eax, DWORD PTR _this$[ebp]
  00026	5f		 pop	 edi
  00027	5e		 pop	 esi
  00028	5b		 pop	 ebx
  00029	8b e5		 mov	 esp, ebp
  0002b	5d		 pop	 ebp
  0002c	c3		 ret	 0
??0D3DXVECTOR4@@QAE@XZ ENDP				; D3DXVECTOR4::D3DXVECTOR4
_TEXT	ENDS
PUBLIC	?ResetRenderStateDM@CD3DFont@@QAEXXZ		; CD3DFont::ResetRenderStateDM
; Function compile flags: /Odt /RTCsu /ZI
; File c:\documents and settings\dom\my documents\_dev\ae\xlr8a\x7g\d3dframe8.1 custom\src\d3dfont_custom.cpp
;	COMDAT ?ResetRenderStateDM@CD3DFont@@QAEXXZ
_TEXT	SEGMENT
_this$ = -8
?ResetRenderStateDM@CD3DFont@@QAEXXZ PROC NEAR		; CD3DFont::ResetRenderStateDM, COMDAT
; _this$ = ecx

; 584  : {

  00000	55		 push	 ebp
  00001	8b ec		 mov	 ebp, esp
  00003	81 ec cc 00 00
	00		 sub	 esp, 204		; 000000ccH
  00009	53		 push	 ebx
  0000a	56		 push	 esi
  0000b	57		 push	 edi
  0000c	51		 push	 ecx
  0000d	8d bd 34 ff ff
	ff		 lea	 edi, DWORD PTR [ebp-204]
  00013	b9 33 00 00 00	 mov	 ecx, 51			; 00000033H
  00018	b8 cc cc cc cc	 mov	 eax, -858993460		; ccccccccH
  0001d	f3 ab		 rep stosd
  0001f	59		 pop	 ecx
  00020	89 4d f8	 mov	 DWORD PTR _this$[ebp], ecx

; 585  :     // Restore the modified renderstates
; 586  :     m_pd3dDevice->ApplyStateBlock( m_dwSavedStateBlock );

  00023	8b f4		 mov	 esi, esp
  00025	8b 45 f8	 mov	 eax, DWORD PTR _this$[ebp]
  00028	8b 88 70 06 00
	00		 mov	 ecx, DWORD PTR [eax+1648]
  0002e	51		 push	 ecx
  0002f	8b 55 f8	 mov	 edx, DWORD PTR _this$[ebp]
  00032	8b 42 58	 mov	 eax, DWORD PTR [edx+88]
  00035	8b 4d f8	 mov	 ecx, DWORD PTR _this$[ebp]
  00038	8b 51 58	 mov	 edx, DWORD PTR [ecx+88]
  0003b	8b 00		 mov	 eax, DWORD PTR [eax]
  0003d	52		 push	 edx
  0003e	ff 90 d8 00 00
	00		 call	 DWORD PTR [eax+216]
  00044	3b f4		 cmp	 esi, esp
  00046	e8 00 00 00 00	 call	 __RTC_CheckEsp

; 587  : }

  0004b	5f		 pop	 edi
  0004c	5e		 pop	 esi
  0004d	5b		 pop	 ebx
  0004e	81 c4 cc 00 00
	00		 add	 esp, 204		; 000000ccH
  00054	3b ec		 cmp	 ebp, esp
  00056	e8 00 00 00 00	 call	 __RTC_CheckEsp
  0005b	8b e5		 mov	 esp, ebp
  0005d	5d		 pop	 ebp
  0005e	c3		 ret	 0
?ResetRenderStateDM@CD3DFont@@QAEXXZ ENDP		; CD3DFont::ResetRenderStateDM
_TEXT	ENDS
PUBLIC	?DrawTextA@CD3DFont@@QAEJMMKPADK@Z		; CD3DFont::DrawTextA
; Function compile flags: /Odt /RTCsu /ZI
;	COMDAT ?DrawTextA@CD3DFont@@QAEJMMKPADK@Z
_TEXT	SEGMENT
tv519 = -692
tv512 = -692
tv466 = -692
$T80785 = -680
$T80784 = -644
$T80783 = -620
$T80782 = -584
$T80781 = -560
$T80780 = -524
$T80779 = -500
$T80778 = -464
$T80777 = -440
$T80776 = -404
$T80775 = -380
$T80774 = -344
_h$80553 = -128
_w$80552 = -116
_ty2$80551 = -104
_tx2$80550 = -92
_ty1$80549 = -80
_tx1$80548 = -68
_c$80545 = -53
_dwNumTriangles$ = -44
_pVertices$ = -32
_fStartX$ = -20
_this$ = -8
_sx$ = 8
_sy$ = 12
_dwColor$ = 16
_strText$ = 20
_dwFlags$ = 24
?DrawTextA@CD3DFont@@QAEJMMKPADK@Z PROC NEAR		; CD3DFont::DrawTextA, COMDAT
; _this$ = ecx

; 596  : {

  00000	55		 push	 ebp
  00001	8b ec		 mov	 ebp, esp
  00003	81 ec b4 02 00
	00		 sub	 esp, 692		; 000002b4H
  00009	53		 push	 ebx
  0000a	56		 push	 esi
  0000b	57		 push	 edi
  0000c	51		 push	 ecx
  0000d	8d bd 4c fd ff
	ff		 lea	 edi, DWORD PTR [ebp-692]
  00013	b9 ad 00 00 00	 mov	 ecx, 173		; 000000adH
  00018	b8 cc cc cc cc	 mov	 eax, -858993460		; ccccccccH
  0001d	f3 ab		 rep stosd
  0001f	59		 pop	 ecx
  00020	89 4d f8	 mov	 DWORD PTR _this$[ebp], ecx

; 597  :     if( m_pd3dDevice == NULL )

  00023	8b 45 f8	 mov	 eax, DWORD PTR _this$[ebp]
  00026	83 78 58 00	 cmp	 DWORD PTR [eax+88], 0
  0002a	75 0a		 jne	 SHORT $L80534

; 598  :         return E_FAIL;

  0002c	b8 05 40 00 80	 mov	 eax, -2147467259	; 80004005H
  00031	e9 ec 05 00 00	 jmp	 $L80533
$L80534:

; 599  : 
; 600  :     // Setup renderstate
; 601  :     m_pd3dDevice->CaptureStateBlock( m_dwSavedStateBlock );

  00036	8b f4		 mov	 esi, esp
  00038	8b 45 f8	 mov	 eax, DWORD PTR _this$[ebp]
  0003b	8b 88 70 06 00
	00		 mov	 ecx, DWORD PTR [eax+1648]
  00041	51		 push	 ecx
  00042	8b 55 f8	 mov	 edx, DWORD PTR _this$[ebp]
  00045	8b 42 58	 mov	 eax, DWORD PTR [edx+88]
  00048	8b 4d f8	 mov	 ecx, DWORD PTR _this$[ebp]
  0004b	8b 51 58	 mov	 edx, DWORD PTR [ecx+88]
  0004e	8b 00		 mov	 eax, DWORD PTR [eax]
  00050	52		 push	 edx
  00051	ff 90 dc 00 00
	00		 call	 DWORD PTR [eax+220]
  00057	3b f4		 cmp	 esi, esp
  00059	e8 00 00 00 00	 call	 __RTC_CheckEsp

; 602  :     m_pd3dDevice->ApplyStateBlock( m_dwDrawTextStateBlock );

  0005e	8b f4		 mov	 esi, esp
  00060	8b 45 f8	 mov	 eax, DWORD PTR _this$[ebp]
  00063	8b 88 74 06 00
	00		 mov	 ecx, DWORD PTR [eax+1652]
  00069	51		 push	 ecx
  0006a	8b 55 f8	 mov	 edx, DWORD PTR _this$[ebp]
  0006d	8b 42 58	 mov	 eax, DWORD PTR [edx+88]
  00070	8b 4d f8	 mov	 ecx, DWORD PTR _this$[ebp]
  00073	8b 51 58	 mov	 edx, DWORD PTR [ecx+88]
  00076	8b 00		 mov	 eax, DWORD PTR [eax]
  00078	52		 push	 edx
  00079	ff 90 d8 00 00
	00		 call	 DWORD PTR [eax+216]
  0007f	3b f4		 cmp	 esi, esp
  00081	e8 00 00 00 00	 call	 __RTC_CheckEsp

; 603  :     m_pd3dDevice->SetVertexShader( D3DFVF_FONT2DVERTEX );

  00086	8b f4		 mov	 esi, esp
  00088	68 44 01 00 00	 push	 324			; 00000144H
  0008d	8b 45 f8	 mov	 eax, DWORD PTR _this$[ebp]
  00090	8b 48 58	 mov	 ecx, DWORD PTR [eax+88]
  00093	8b 55 f8	 mov	 edx, DWORD PTR _this$[ebp]
  00096	8b 42 58	 mov	 eax, DWORD PTR [edx+88]
  00099	8b 09		 mov	 ecx, DWORD PTR [ecx]
  0009b	50		 push	 eax
  0009c	ff 91 30 01 00
	00		 call	 DWORD PTR [ecx+304]
  000a2	3b f4		 cmp	 esi, esp
  000a4	e8 00 00 00 00	 call	 __RTC_CheckEsp

; 604  :     m_pd3dDevice->SetPixelShader( NULL );

  000a9	8b f4		 mov	 esi, esp
  000ab	6a 00		 push	 0
  000ad	8b 45 f8	 mov	 eax, DWORD PTR _this$[ebp]
  000b0	8b 48 58	 mov	 ecx, DWORD PTR [eax+88]
  000b3	8b 55 f8	 mov	 edx, DWORD PTR _this$[ebp]
  000b6	8b 42 58	 mov	 eax, DWORD PTR [edx+88]
  000b9	8b 09		 mov	 ecx, DWORD PTR [ecx]
  000bb	50		 push	 eax
  000bc	ff 91 60 01 00
	00		 call	 DWORD PTR [ecx+352]
  000c2	3b f4		 cmp	 esi, esp
  000c4	e8 00 00 00 00	 call	 __RTC_CheckEsp

; 605  :     m_pd3dDevice->SetStreamSource( 0, m_pVB, sizeof(FONT2DVERTEX) );

  000c9	8b f4		 mov	 esi, esp
  000cb	6a 1c		 push	 28			; 0000001cH
  000cd	8b 45 f8	 mov	 eax, DWORD PTR _this$[ebp]
  000d0	8b 48 60	 mov	 ecx, DWORD PTR [eax+96]
  000d3	51		 push	 ecx
  000d4	6a 00		 push	 0
  000d6	8b 55 f8	 mov	 edx, DWORD PTR _this$[ebp]
  000d9	8b 42 58	 mov	 eax, DWORD PTR [edx+88]
  000dc	8b 4d f8	 mov	 ecx, DWORD PTR _this$[ebp]
  000df	8b 51 58	 mov	 edx, DWORD PTR [ecx+88]
  000e2	8b 00		 mov	 eax, DWORD PTR [eax]
  000e4	52		 push	 edx
  000e5	ff 90 4c 01 00
	00		 call	 DWORD PTR [eax+332]
  000eb	3b f4		 cmp	 esi, esp
  000ed	e8 00 00 00 00	 call	 __RTC_CheckEsp

; 606  : 
; 607  :     // Set filter states
; 608  :     if( dwFlags & D3DFONT_FILTERED )

  000f2	8b 45 18	 mov	 eax, DWORD PTR _dwFlags$[ebp]
  000f5	83 e0 04	 and	 eax, 4
  000f8	85 c0		 test	 eax, eax
  000fa	74 48		 je	 SHORT $L80537

; 609  :     {
; 610  :         m_pd3dDevice->SetTextureStageState( 0, D3DTSS_MINFILTER, D3DTEXF_LINEAR );

  000fc	8b f4		 mov	 esi, esp
  000fe	6a 02		 push	 2
  00100	6a 11		 push	 17			; 00000011H
  00102	6a 00		 push	 0
  00104	8b 45 f8	 mov	 eax, DWORD PTR _this$[ebp]
  00107	8b 48 58	 mov	 ecx, DWORD PTR [eax+88]
  0010a	8b 55 f8	 mov	 edx, DWORD PTR _this$[ebp]
  0010d	8b 42 58	 mov	 eax, DWORD PTR [edx+88]
  00110	8b 09		 mov	 ecx, DWORD PTR [ecx]
  00112	50		 push	 eax
  00113	ff 91 fc 00 00
	00		 call	 DWORD PTR [ecx+252]
  00119	3b f4		 cmp	 esi, esp
  0011b	e8 00 00 00 00	 call	 __RTC_CheckEsp

; 611  :         m_pd3dDevice->SetTextureStageState( 0, D3DTSS_MAGFILTER, D3DTEXF_LINEAR );

  00120	8b f4		 mov	 esi, esp
  00122	6a 02		 push	 2
  00124	6a 10		 push	 16			; 00000010H
  00126	6a 00		 push	 0
  00128	8b 45 f8	 mov	 eax, DWORD PTR _this$[ebp]
  0012b	8b 48 58	 mov	 ecx, DWORD PTR [eax+88]
  0012e	8b 55 f8	 mov	 edx, DWORD PTR _this$[ebp]
  00131	8b 42 58	 mov	 eax, DWORD PTR [edx+88]
  00134	8b 09		 mov	 ecx, DWORD PTR [ecx]
  00136	50		 push	 eax
  00137	ff 91 fc 00 00
	00		 call	 DWORD PTR [ecx+252]
  0013d	3b f4		 cmp	 esi, esp
  0013f	e8 00 00 00 00	 call	 __RTC_CheckEsp
$L80537:

; 612  :     }
; 613  : 
; 614  :     FLOAT fStartX = sx;

  00144	8b 45 08	 mov	 eax, DWORD PTR _sx$[ebp]
  00147	89 45 ec	 mov	 DWORD PTR _fStartX$[ebp], eax

; 615  : 
; 616  :     // Fill vertex buffer
; 617  :     FONT2DVERTEX* pVertices = NULL;

  0014a	c7 45 e0 00 00
	00 00		 mov	 DWORD PTR _pVertices$[ebp], 0

; 618  :     DWORD         dwNumTriangles = 0;

  00151	c7 45 d4 00 00
	00 00		 mov	 DWORD PTR _dwNumTriangles$[ebp], 0

; 619  :     m_pVB->Lock( 0, 0, (BYTE**)&pVertices, D3DLOCK_DISCARD );

  00158	8b f4		 mov	 esi, esp
  0015a	68 00 20 00 00	 push	 8192			; 00002000H
  0015f	8d 45 e0	 lea	 eax, DWORD PTR _pVertices$[ebp]
  00162	50		 push	 eax
  00163	6a 00		 push	 0
  00165	6a 00		 push	 0
  00167	8b 4d f8	 mov	 ecx, DWORD PTR _this$[ebp]
  0016a	8b 51 60	 mov	 edx, DWORD PTR [ecx+96]
  0016d	8b 45 f8	 mov	 eax, DWORD PTR _this$[ebp]
  00170	8b 48 60	 mov	 ecx, DWORD PTR [eax+96]
  00173	8b 12		 mov	 edx, DWORD PTR [edx]
  00175	51		 push	 ecx
  00176	ff 52 2c	 call	 DWORD PTR [edx+44]
  00179	3b f4		 cmp	 esi, esp
  0017b	e8 00 00 00 00	 call	 __RTC_CheckEsp
$L80543:

; 620  : 
; 621  :     while( *strText )

  00180	8b 45 14	 mov	 eax, DWORD PTR _strText$[ebp]
  00183	0f be 08	 movsx	 ecx, BYTE PTR [eax]
  00186	85 c9		 test	 ecx, ecx
  00188	0f 84 23 04 00
	00		 je	 $L80544

; 622  :     {
; 623  :         TCHAR c = *strText++;

  0018e	8b 45 14	 mov	 eax, DWORD PTR _strText$[ebp]
  00191	8a 08		 mov	 cl, BYTE PTR [eax]
  00193	88 4d cb	 mov	 BYTE PTR _c$80545[ebp], cl
  00196	8b 55 14	 mov	 edx, DWORD PTR _strText$[ebp]
  00199	83 c2 01	 add	 edx, 1
  0019c	89 55 14	 mov	 DWORD PTR _strText$[ebp], edx

; 624  : 
; 625  :         if( c == _T('\n') )

  0019f	0f be 45 cb	 movsx	 eax, BYTE PTR _c$80545[ebp]
  001a3	83 f8 0a	 cmp	 eax, 10			; 0000000aH
  001a6	75 36		 jne	 SHORT $L80546

; 626  :         {
; 627  :             sx = fStartX;

  001a8	8b 45 ec	 mov	 eax, DWORD PTR _fStartX$[ebp]
  001ab	89 45 08	 mov	 DWORD PTR _sx$[ebp], eax

; 628  :             sy += (m_fTexCoords[0][3]-m_fTexCoords[0][1])*m_dwTexHeight;

  001ae	8b 45 f8	 mov	 eax, DWORD PTR _this$[ebp]
  001b1	8b 4d f8	 mov	 ecx, DWORD PTR _this$[ebp]
  001b4	d9 40 7c	 fld	 DWORD PTR [eax+124]
  001b7	d8 61 74	 fsub	 DWORD PTR [ecx+116]
  001ba	8b 55 f8	 mov	 edx, DWORD PTR _this$[ebp]
  001bd	8b 42 68	 mov	 eax, DWORD PTR [edx+104]
  001c0	89 85 4c fd ff
	ff		 mov	 DWORD PTR tv466[ebp], eax
  001c6	c7 85 50 fd ff
	ff 00 00 00 00	 mov	 DWORD PTR tv466[ebp+4], 0
  001d0	df ad 4c fd ff
	ff		 fild	 QWORD PTR tv466[ebp]
  001d6	de c9		 fmulp	 ST(1), ST(0)
  001d8	d8 45 0c	 fadd	 DWORD PTR _sy$[ebp]
  001db	d9 5d 0c	 fstp	 DWORD PTR _sy$[ebp]
$L80546:

; 629  :         }
; 630  :         if( c < _T(' ') )

  001de	0f be 45 cb	 movsx	 eax, BYTE PTR _c$80545[ebp]
  001e2	83 f8 20	 cmp	 eax, 32			; 00000020H
  001e5	7d 02		 jge	 SHORT $L80547

; 631  :             continue;

  001e7	eb 97		 jmp	 SHORT $L80543
$L80547:

; 632  : 
; 633  :         FLOAT tx1 = m_fTexCoords[c-32][0];

  001e9	0f be 45 cb	 movsx	 eax, BYTE PTR _c$80545[ebp]
  001ed	83 e8 20	 sub	 eax, 32			; 00000020H
  001f0	c1 e0 04	 shl	 eax, 4
  001f3	8b 4d f8	 mov	 ecx, DWORD PTR _this$[ebp]
  001f6	8b 54 01 70	 mov	 edx, DWORD PTR [ecx+eax+112]
  001fa	89 55 bc	 mov	 DWORD PTR _tx1$80548[ebp], edx

; 634  :         FLOAT ty1 = m_fTexCoords[c-32][1];

  001fd	0f be 45 cb	 movsx	 eax, BYTE PTR _c$80545[ebp]
  00201	83 e8 20	 sub	 eax, 32			; 00000020H
  00204	c1 e0 04	 shl	 eax, 4
  00207	8b 4d f8	 mov	 ecx, DWORD PTR _this$[ebp]
  0020a	8b 54 01 74	 mov	 edx, DWORD PTR [ecx+eax+116]
  0020e	89 55 b0	 mov	 DWORD PTR _ty1$80549[ebp], edx

; 635  :         FLOAT tx2 = m_fTexCoords[c-32][2];

  00211	0f be 45 cb	 movsx	 eax, BYTE PTR _c$80545[ebp]
  00215	83 e8 20	 sub	 eax, 32			; 00000020H
  00218	c1 e0 04	 shl	 eax, 4
  0021b	8b 4d f8	 mov	 ecx, DWORD PTR _this$[ebp]
  0021e	8b 54 01 78	 mov	 edx, DWORD PTR [ecx+eax+120]
  00222	89 55 a4	 mov	 DWORD PTR _tx2$80550[ebp], edx

; 636  :         FLOAT ty2 = m_fTexCoords[c-32][3];

  00225	0f be 45 cb	 movsx	 eax, BYTE PTR _c$80545[ebp]
  00229	83 e8 20	 sub	 eax, 32			; 00000020H
  0022c	c1 e0 04	 shl	 eax, 4
  0022f	8b 4d f8	 mov	 ecx, DWORD PTR _this$[ebp]
  00232	8b 54 01 7c	 mov	 edx, DWORD PTR [ecx+eax+124]
  00236	89 55 98	 mov	 DWORD PTR _ty2$80551[ebp], edx

; 637  : 
; 638  :         FLOAT w = (tx2-tx1) *  m_dwTexWidth / m_fTextScale;

  00239	d9 45 a4	 fld	 DWORD PTR _tx2$80550[ebp]
  0023c	d8 65 bc	 fsub	 DWORD PTR _tx1$80548[ebp]
  0023f	8b 45 f8	 mov	 eax, DWORD PTR _this$[ebp]
  00242	8b 48 64	 mov	 ecx, DWORD PTR [eax+100]
  00245	89 8d 4c fd ff
	ff		 mov	 DWORD PTR tv512[ebp], ecx
  0024b	c7 85 50 fd ff
	ff 00 00 00 00	 mov	 DWORD PTR tv512[ebp+4], 0
  00255	df ad 4c fd ff
	ff		 fild	 QWORD PTR tv512[ebp]
  0025b	de c9		 fmulp	 ST(1), ST(0)
  0025d	8b 55 f8	 mov	 edx, DWORD PTR _this$[ebp]
  00260	d8 72 6c	 fdiv	 DWORD PTR [edx+108]
  00263	d9 5d 8c	 fstp	 DWORD PTR _w$80552[ebp]

; 639  :         FLOAT h = (ty2-ty1) * m_dwTexHeight / m_fTextScale;

  00266	d9 45 98	 fld	 DWORD PTR _ty2$80551[ebp]
  00269	d8 65 b0	 fsub	 DWORD PTR _ty1$80549[ebp]
  0026c	8b 45 f8	 mov	 eax, DWORD PTR _this$[ebp]
  0026f	8b 48 68	 mov	 ecx, DWORD PTR [eax+104]
  00272	89 8d 4c fd ff
	ff		 mov	 DWORD PTR tv519[ebp], ecx
  00278	c7 85 50 fd ff
	ff 00 00 00 00	 mov	 DWORD PTR tv519[ebp+4], 0
  00282	df ad 4c fd ff
	ff		 fild	 QWORD PTR tv519[ebp]
  00288	de c9		 fmulp	 ST(1), ST(0)
  0028a	8b 55 f8	 mov	 edx, DWORD PTR _this$[ebp]
  0028d	d8 72 6c	 fdiv	 DWORD PTR [edx+108]
  00290	d9 5d 80	 fstp	 DWORD PTR _h$80553[ebp]

; 640  : 
; 641  :         if( c != _T(' ') )

  00293	0f be 45 cb	 movsx	 eax, BYTE PTR _c$80545[ebp]
  00297	83 f8 20	 cmp	 eax, 32			; 00000020H
  0029a	0f 84 03 03 00
	00		 je	 $L80554

; 642  :         {
; 643  :             *pVertices++ = InitFont2DVertex( D3DXVECTOR4(sx+0-0.5f,sy+h-0.5f,0.9f,1.0f), dwColor, tx1, ty2 );

  002a0	8b 45 98	 mov	 eax, DWORD PTR _ty2$80551[ebp]
  002a3	50		 push	 eax
  002a4	8b 4d bc	 mov	 ecx, DWORD PTR _tx1$80548[ebp]
  002a7	51		 push	 ecx
  002a8	8b 55 10	 mov	 edx, DWORD PTR _dwColor$[ebp]
  002ab	52		 push	 edx
  002ac	68 00 00 80 3f	 push	 1065353216		; 3f800000H
  002b1	68 66 66 66 3f	 push	 1063675494		; 3f666666H
  002b6	d9 45 0c	 fld	 DWORD PTR _sy$[ebp]
  002b9	d8 45 80	 fadd	 DWORD PTR _h$80553[ebp]
  002bc	d8 25 00 00 00
	00		 fsub	 DWORD PTR __real@3f000000
  002c2	51		 push	 ecx
  002c3	d9 1c 24	 fstp	 DWORD PTR [esp]
  002c6	d9 45 08	 fld	 DWORD PTR _sx$[ebp]
  002c9	d8 05 00 00 00
	00		 fadd	 DWORD PTR __real@00000000
  002cf	d8 25 00 00 00
	00		 fsub	 DWORD PTR __real@3f000000
  002d5	51		 push	 ecx
  002d6	d9 1c 24	 fstp	 DWORD PTR [esp]
  002d9	8d 8d a8 fe ff
	ff		 lea	 ecx, DWORD PTR $T80774[ebp]
  002df	e8 00 00 00 00	 call	 ??0D3DXVECTOR4@@QAE@MMMM@Z ; D3DXVECTOR4::D3DXVECTOR4
  002e4	50		 push	 eax
  002e5	8d 85 84 fe ff
	ff		 lea	 eax, DWORD PTR $T80775[ebp]
  002eb	50		 push	 eax
  002ec	e8 00 00 00 00	 call	 ?InitFont2DVertex@@YA?AUFONT2DVERTEX@@ABUD3DXVECTOR4@@KMM@Z ; InitFont2DVertex
  002f1	83 c4 14	 add	 esp, 20			; 00000014H
  002f4	b9 07 00 00 00	 mov	 ecx, 7
  002f9	8b f0		 mov	 esi, eax
  002fb	8b 7d e0	 mov	 edi, DWORD PTR _pVertices$[ebp]
  002fe	f3 a5		 rep movsd
  00300	8b 4d e0	 mov	 ecx, DWORD PTR _pVertices$[ebp]
  00303	83 c1 1c	 add	 ecx, 28			; 0000001cH
  00306	89 4d e0	 mov	 DWORD PTR _pVertices$[ebp], ecx

; 644  :             *pVertices++ = InitFont2DVertex( D3DXVECTOR4(sx+0-0.5f,sy+0-0.5f,0.9f,1.0f), dwColor, tx1, ty1 );

  00309	8b 45 b0	 mov	 eax, DWORD PTR _ty1$80549[ebp]
  0030c	50		 push	 eax
  0030d	8b 4d bc	 mov	 ecx, DWORD PTR _tx1$80548[ebp]
  00310	51		 push	 ecx
  00311	8b 55 10	 mov	 edx, DWORD PTR _dwColor$[ebp]
  00314	52		 push	 edx
  00315	68 00 00 80 3f	 push	 1065353216		; 3f800000H
  0031a	68 66 66 66 3f	 push	 1063675494		; 3f666666H
  0031f	d9 45 0c	 fld	 DWORD PTR _sy$[ebp]
  00322	d8 05 00 00 00
	00		 fadd	 DWORD PTR __real@00000000
  00328	d8 25 00 00 00
	00		 fsub	 DWORD PTR __real@3f000000
  0032e	51		 push	 ecx
  0032f	d9 1c 24	 fstp	 DWORD PTR [esp]
  00332	d9 45 08	 fld	 DWORD PTR _sx$[ebp]
  00335	d8 05 00 00 00
	00		 fadd	 DWORD PTR __real@00000000
  0033b	d8 25 00 00 00
	00		 fsub	 DWORD PTR __real@3f000000
  00341	51		 push	 ecx
  00342	d9 1c 24	 fstp	 DWORD PTR [esp]
  00345	8d 8d 6c fe ff
	ff		 lea	 ecx, DWORD PTR $T80776[ebp]
  0034b	e8 00 00 00 00	 call	 ??0D3DXVECTOR4@@QAE@MMMM@Z ; D3DXVECTOR4::D3DXVECTOR4
  00350	50		 push	 eax
  00351	8d 85 48 fe ff
	ff		 lea	 eax, DWORD PTR $T80777[ebp]
  00357	50		 push	 eax
  00358	e8 00 00 00 00	 call	 ?InitFont2DVertex@@YA?AUFONT2DVERTEX@@ABUD3DXVECTOR4@@KMM@Z ; InitFont2DVertex
  0035d	83 c4 14	 add	 esp, 20			; 00000014H
  00360	b9 07 00 00 00	 mov	 ecx, 7
  00365	8b f0		 mov	 esi, eax
  00367	8b 7d e0	 mov	 edi, DWORD PTR _pVertices$[ebp]
  0036a	f3 a5		 rep movsd
  0036c	8b 4d e0	 mov	 ecx, DWORD PTR _pVertices$[ebp]
  0036f	83 c1 1c	 add	 ecx, 28			; 0000001cH
  00372	89 4d e0	 mov	 DWORD PTR _pVertices$[ebp], ecx

; 645  :             *pVertices++ = InitFont2DVertex( D3DXVECTOR4(sx+w-0.5f,sy+h-0.5f,0.9f,1.0f), dwColor, tx2, ty2 );

  00375	8b 45 98	 mov	 eax, DWORD PTR _ty2$80551[ebp]
  00378	50		 push	 eax
  00379	8b 4d a4	 mov	 ecx, DWORD PTR _tx2$80550[ebp]
  0037c	51		 push	 ecx
  0037d	8b 55 10	 mov	 edx, DWORD PTR _dwColor$[ebp]
  00380	52		 push	 edx
  00381	68 00 00 80 3f	 push	 1065353216		; 3f800000H
  00386	68 66 66 66 3f	 push	 1063675494		; 3f666666H
  0038b	d9 45 0c	 fld	 DWORD PTR _sy$[ebp]
  0038e	d8 45 80	 fadd	 DWORD PTR _h$80553[ebp]
  00391	d8 25 00 00 00
	00		 fsub	 DWORD PTR __real@3f000000
  00397	51		 push	 ecx
  00398	d9 1c 24	 fstp	 DWORD PTR [esp]
  0039b	d9 45 08	 fld	 DWORD PTR _sx$[ebp]
  0039e	d8 45 8c	 fadd	 DWORD PTR _w$80552[ebp]
  003a1	d8 25 00 00 00
	00		 fsub	 DWORD PTR __real@3f000000
  003a7	51		 push	 ecx
  003a8	d9 1c 24	 fstp	 DWORD PTR [esp]
  003ab	8d 8d 30 fe ff
	ff		 lea	 ecx, DWORD PTR $T80778[ebp]
  003b1	e8 00 00 00 00	 call	 ??0D3DXVECTOR4@@QAE@MMMM@Z ; D3DXVECTOR4::D3DXVECTOR4
  003b6	50		 push	 eax
  003b7	8d 85 0c fe ff
	ff		 lea	 eax, DWORD PTR $T80779[ebp]
  003bd	50		 push	 eax
  003be	e8 00 00 00 00	 call	 ?InitFont2DVertex@@YA?AUFONT2DVERTEX@@ABUD3DXVECTOR4@@KMM@Z ; InitFont2DVertex
  003c3	83 c4 14	 add	 esp, 20			; 00000014H
  003c6	b9 07 00 00 00	 mov	 ecx, 7
  003cb	8b f0		 mov	 esi, eax
  003cd	8b 7d e0	 mov	 edi, DWORD PTR _pVertices$[ebp]
  003d0	f3 a5		 rep movsd
  003d2	8b 4d e0	 mov	 ecx, DWORD PTR _pVertices$[ebp]
  003d5	83 c1 1c	 add	 ecx, 28			; 0000001cH
  003d8	89 4d e0	 mov	 DWORD PTR _pVertices$[ebp], ecx

; 646  :             *pVertices++ = InitFont2DVertex( D3DXVECTOR4(sx+w-0.5f,sy+0-0.5f,0.9f,1.0f), dwColor, tx2, ty1 );

  003db	8b 45 b0	 mov	 eax, DWORD PTR _ty1$80549[ebp]
  003de	50		 push	 eax
  003df	8b 4d a4	 mov	 ecx, DWORD PTR _tx2$80550[ebp]
  003e2	51		 push	 ecx
  003e3	8b 55 10	 mov	 edx, DWORD PTR _dwColor$[ebp]
  003e6	52		 push	 edx
  003e7	68 00 00 80 3f	 push	 1065353216		; 3f800000H
  003ec	68 66 66 66 3f	 push	 1063675494		; 3f666666H
  003f1	d9 45 0c	 fld	 DWORD PTR _sy$[ebp]
  003f4	d8 05 00 00 00
	00		 fadd	 DWORD PTR __real@00000000
  003fa	d8 25 00 00 00
	00		 fsub	 DWORD PTR __real@3f000000
  00400	51		 push	 ecx
  00401	d9 1c 24	 fstp	 DWORD PTR [esp]
  00404	d9 45 08	 fld	 DWORD PTR _sx$[ebp]
  00407	d8 45 8c	 fadd	 DWORD PTR _w$80552[ebp]
  0040a	d8 25 00 00 00
	00		 fsub	 DWORD PTR __real@3f000000
  00410	51		 push	 ecx
  00411	d9 1c 24	 fstp	 DWORD PTR [esp]
  00414	8d 8d f4 fd ff
	ff		 lea	 ecx, DWORD PTR $T80780[ebp]
  0041a	e8 00 00 00 00	 call	 ??0D3DXVECTOR4@@QAE@MMMM@Z ; D3DXVECTOR4::D3DXVECTOR4
  0041f	50		 push	 eax
  00420	8d 85 d0 fd ff
	ff		 lea	 eax, DWORD PTR $T80781[ebp]
  00426	50		 push	 eax
  00427	e8 00 00 00 00	 call	 ?InitFont2DVertex@@YA?AUFONT2DVERTEX@@ABUD3DXVECTOR4@@KMM@Z ; InitFont2DVertex
  0042c	83 c4 14	 add	 esp, 20			; 00000014H
  0042f	b9 07 00 00 00	 mov	 ecx, 7
  00434	8b f0		 mov	 esi, eax
  00436	8b 7d e0	 mov	 edi, DWORD PTR _pVertices$[ebp]
  00439	f3 a5		 rep movsd
  0043b	8b 4d e0	 mov	 ecx, DWORD PTR _pVertices$[ebp]
  0043e	83 c1 1c	 add	 ecx, 28			; 0000001cH
  00441	89 4d e0	 mov	 DWORD PTR _pVertices$[ebp], ecx

; 647  :             *pVertices++ = InitFont2DVertex( D3DXVECTOR4(sx+w-0.5f,sy+h-0.5f,0.9f,1.0f), dwColor, tx2, ty2 );

  00444	8b 45 98	 mov	 eax, DWORD PTR _ty2$80551[ebp]
  00447	50		 push	 eax
  00448	8b 4d a4	 mov	 ecx, DWORD PTR _tx2$80550[ebp]
  0044b	51		 push	 ecx
  0044c	8b 55 10	 mov	 edx, DWORD PTR _dwColor$[ebp]
  0044f	52		 push	 edx
  00450	68 00 00 80 3f	 push	 1065353216		; 3f800000H
  00455	68 66 66 66 3f	 push	 1063675494		; 3f666666H
  0045a	d9 45 0c	 fld	 DWORD PTR _sy$[ebp]
  0045d	d8 45 80	 fadd	 DWORD PTR _h$80553[ebp]
  00460	d8 25 00 00 00
	00		 fsub	 DWORD PTR __real@3f000000
  00466	51		 push	 ecx
  00467	d9 1c 24	 fstp	 DWORD PTR [esp]
  0046a	d9 45 08	 fld	 DWORD PTR _sx$[ebp]
  0046d	d8 45 8c	 fadd	 DWORD PTR _w$80552[ebp]
  00470	d8 25 00 00 00
	00		 fsub	 DWORD PTR __real@3f000000
  00476	51		 push	 ecx
  00477	d9 1c 24	 fstp	 DWORD PTR [esp]
  0047a	8d 8d b8 fd ff
	ff		 lea	 ecx, DWORD PTR $T80782[ebp]
  00480	e8 00 00 00 00	 call	 ??0D3DXVECTOR4@@QAE@MMMM@Z ; D3DXVECTOR4::D3DXVECTOR4
  00485	50		 push	 eax
  00486	8d 85 94 fd ff
	ff		 lea	 eax, DWORD PTR $T80783[ebp]
  0048c	50		 push	 eax
  0048d	e8 00 00 00 00	 call	 ?InitFont2DVertex@@YA?AUFONT2DVERTEX@@ABUD3DXVECTOR4@@KMM@Z ; InitFont2DVertex
  00492	83 c4 14	 add	 esp, 20			; 00000014H
  00495	b9 07 00 00 00	 mov	 ecx, 7
  0049a	8b f0		 mov	 esi, eax
  0049c	8b 7d e0	 mov	 edi, DWORD PTR _pVertices$[ebp]
  0049f	f3 a5		 rep movsd
  004a1	8b 4d e0	 mov	 ecx, DWORD PTR _pVertices$[ebp]
  004a4	83 c1 1c	 add	 ecx, 28			; 0000001cH
  004a7	89 4d e0	 mov	 DWORD PTR _pVertices$[ebp], ecx

; 648  :             *pVertices++ = InitFont2DVertex( D3DXVECTOR4(sx+0-0.5f,sy+0-0.5f,0.9f,1.0f), dwColor, tx1, ty1 );

  004aa	8b 45 b0	 mov	 eax, DWORD PTR _ty1$80549[ebp]
  004ad	50		 push	 eax
  004ae	8b 4d bc	 mov	 ecx, DWORD PTR _tx1$80548[ebp]
  004b1	51		 push	 ecx
  004b2	8b 55 10	 mov	 edx, DWORD PTR _dwColor$[ebp]
  004b5	52		 push	 edx
  004b6	68 00 00 80 3f	 push	 1065353216		; 3f800000H
  004bb	68 66 66 66 3f	 push	 1063675494		; 3f666666H
  004c0	d9 45 0c	 fld	 DWORD PTR _sy$[ebp]
  004c3	d8 05 00 00 00
	00		 fadd	 DWORD PTR __real@00000000
  004c9	d8 25 00 00 00
	00		 fsub	 DWORD PTR __real@3f000000
  004cf	51		 push	 ecx
  004d0	d9 1c 24	 fstp	 DWORD PTR [esp]
  004d3	d9 45 08	 fld	 DWORD PTR _sx$[ebp]
  004d6	d8 05 00 00 00
	00		 fadd	 DWORD PTR __real@00000000
  004dc	d8 25 00 00 00
	00		 fsub	 DWORD PTR __real@3f000000
  004e2	51		 push	 ecx
  004e3	d9 1c 24	 fstp	 DWORD PTR [esp]
  004e6	8d 8d 7c fd ff
	ff		 lea	 ecx, DWORD PTR $T80784[ebp]
  004ec	e8 00 00 00 00	 call	 ??0D3DXVECTOR4@@QAE@MMMM@Z ; D3DXVECTOR4::D3DXVECTOR4
  004f1	50		 push	 eax
  004f2	8d 85 58 fd ff
	ff		 lea	 eax, DWORD PTR $T80785[ebp]
  004f8	50		 push	 eax
  004f9	e8 00 00 00 00	 call	 ?InitFont2DVertex@@YA?AUFONT2DVERTEX@@ABUD3DXVECTOR4@@KMM@Z ; InitFont2DVertex
  004fe	83 c4 14	 add	 esp, 20			; 00000014H
  00501	b9 07 00 00 00	 mov	 ecx, 7
  00506	8b f0		 mov	 esi, eax
  00508	8b 7d e0	 mov	 edi, DWORD PTR _pVertices$[ebp]
  0050b	f3 a5		 rep movsd
  0050d	8b 4d e0	 mov	 ecx, DWORD PTR _pVertices$[ebp]
  00510	83 c1 1c	 add	 ecx, 28			; 0000001cH
  00513	89 4d e0	 mov	 DWORD PTR _pVertices$[ebp], ecx

; 649  :             dwNumTriangles += 2;

  00516	8b 45 d4	 mov	 eax, DWORD PTR _dwNumTriangles$[ebp]
  00519	83 c0 02	 add	 eax, 2
  0051c	89 45 d4	 mov	 DWORD PTR _dwNumTriangles$[ebp], eax

; 650  : 
; 651  :             if( dwNumTriangles*3 > (MAX_NUM_VERTICES-6) )

  0051f	8b 45 d4	 mov	 eax, DWORD PTR _dwNumTriangles$[ebp]
  00522	6b c0 03	 imul	 eax, 3
  00525	3d 26 01 00 00	 cmp	 eax, 294		; 00000126H
  0052a	76 77		 jbe	 SHORT $L80554

; 652  :             {
; 653  :                 // Unlock, render, and relock the vertex buffer
; 654  :                 m_pVB->Unlock();

  0052c	8b 45 f8	 mov	 eax, DWORD PTR _this$[ebp]
  0052f	8b 48 60	 mov	 ecx, DWORD PTR [eax+96]
  00532	8b 55 f8	 mov	 edx, DWORD PTR _this$[ebp]
  00535	8b 42 60	 mov	 eax, DWORD PTR [edx+96]
  00538	8b 09		 mov	 ecx, DWORD PTR [ecx]
  0053a	8b f4		 mov	 esi, esp
  0053c	50		 push	 eax
  0053d	ff 51 30	 call	 DWORD PTR [ecx+48]
  00540	3b f4		 cmp	 esi, esp
  00542	e8 00 00 00 00	 call	 __RTC_CheckEsp

; 655  :                 m_pd3dDevice->DrawPrimitive( D3DPT_TRIANGLELIST, 0, dwNumTriangles );

  00547	8b f4		 mov	 esi, esp
  00549	8b 45 d4	 mov	 eax, DWORD PTR _dwNumTriangles$[ebp]
  0054c	50		 push	 eax
  0054d	6a 00		 push	 0
  0054f	6a 04		 push	 4
  00551	8b 4d f8	 mov	 ecx, DWORD PTR _this$[ebp]
  00554	8b 51 58	 mov	 edx, DWORD PTR [ecx+88]
  00557	8b 45 f8	 mov	 eax, DWORD PTR _this$[ebp]
  0055a	8b 48 58	 mov	 ecx, DWORD PTR [eax+88]
  0055d	8b 12		 mov	 edx, DWORD PTR [edx]
  0055f	51		 push	 ecx
  00560	ff 92 18 01 00
	00		 call	 DWORD PTR [edx+280]
  00566	3b f4		 cmp	 esi, esp
  00568	e8 00 00 00 00	 call	 __RTC_CheckEsp

; 656  :                 pVertices = NULL;

  0056d	c7 45 e0 00 00
	00 00		 mov	 DWORD PTR _pVertices$[ebp], 0

; 657  :                 m_pVB->Lock( 0, 0, (BYTE**)&pVertices, D3DLOCK_DISCARD );

  00574	8b f4		 mov	 esi, esp
  00576	68 00 20 00 00	 push	 8192			; 00002000H
  0057b	8d 45 e0	 lea	 eax, DWORD PTR _pVertices$[ebp]
  0057e	50		 push	 eax
  0057f	6a 00		 push	 0
  00581	6a 00		 push	 0
  00583	8b 4d f8	 mov	 ecx, DWORD PTR _this$[ebp]
  00586	8b 51 60	 mov	 edx, DWORD PTR [ecx+96]
  00589	8b 45 f8	 mov	 eax, DWORD PTR _this$[ebp]
  0058c	8b 48 60	 mov	 ecx, DWORD PTR [eax+96]
  0058f	8b 12		 mov	 edx, DWORD PTR [edx]
  00591	51		 push	 ecx
  00592	ff 52 2c	 call	 DWORD PTR [edx+44]
  00595	3b f4		 cmp	 esi, esp
  00597	e8 00 00 00 00	 call	 __RTC_CheckEsp

; 658  :                 dwNumTriangles = 0L;

  0059c	c7 45 d4 00 00
	00 00		 mov	 DWORD PTR _dwNumTriangles$[ebp], 0
$L80554:

; 659  :             }
; 660  :         }
; 661  : 
; 662  :         sx += w;

  005a3	d9 45 08	 fld	 DWORD PTR _sx$[ebp]
  005a6	d8 45 8c	 fadd	 DWORD PTR _w$80552[ebp]
  005a9	d9 5d 08	 fstp	 DWORD PTR _sx$[ebp]

; 663  :     }

  005ac	e9 cf fb ff ff	 jmp	 $L80543
$L80544:

; 664  : 
; 665  :     // Unlock and render the vertex buffer
; 666  :     m_pVB->Unlock();

  005b1	8b 45 f8	 mov	 eax, DWORD PTR _this$[ebp]
  005b4	8b 48 60	 mov	 ecx, DWORD PTR [eax+96]
  005b7	8b 55 f8	 mov	 edx, DWORD PTR _this$[ebp]
  005ba	8b 42 60	 mov	 eax, DWORD PTR [edx+96]
  005bd	8b 09		 mov	 ecx, DWORD PTR [ecx]
  005bf	8b f4		 mov	 esi, esp
  005c1	50		 push	 eax
  005c2	ff 51 30	 call	 DWORD PTR [ecx+48]
  005c5	3b f4		 cmp	 esi, esp
  005c7	e8 00 00 00 00	 call	 __RTC_CheckEsp

; 667  :     if( dwNumTriangles > 0 )

  005cc	83 7d d4 00	 cmp	 DWORD PTR _dwNumTriangles$[ebp], 0
  005d0	76 26		 jbe	 SHORT $L80569

; 668  :         m_pd3dDevice->DrawPrimitive( D3DPT_TRIANGLELIST, 0, dwNumTriangles );

  005d2	8b f4		 mov	 esi, esp
  005d4	8b 45 d4	 mov	 eax, DWORD PTR _dwNumTriangles$[ebp]
  005d7	50		 push	 eax
  005d8	6a 00		 push	 0
  005da	6a 04		 push	 4
  005dc	8b 4d f8	 mov	 ecx, DWORD PTR _this$[ebp]
  005df	8b 51 58	 mov	 edx, DWORD PTR [ecx+88]
  005e2	8b 45 f8	 mov	 eax, DWORD PTR _this$[ebp]
  005e5	8b 48 58	 mov	 ecx, DWORD PTR [eax+88]
  005e8	8b 12		 mov	 edx, DWORD PTR [edx]
  005ea	51		 push	 ecx
  005eb	ff 92 18 01 00
	00		 call	 DWORD PTR [edx+280]
  005f1	3b f4		 cmp	 esi, esp
  005f3	e8 00 00 00 00	 call	 __RTC_CheckEsp
$L80569:

; 669  : 
; 670  :     // Restore the modified renderstates
; 671  :     m_pd3dDevice->ApplyStateBlock( m_dwSavedStateBlock );

  005f8	8b f4		 mov	 esi, esp
  005fa	8b 45 f8	 mov	 eax, DWORD PTR _this$[ebp]
  005fd	8b 88 70 06 00
	00		 mov	 ecx, DWORD PTR [eax+1648]
  00603	51		 push	 ecx
  00604	8b 55 f8	 mov	 edx, DWORD PTR _this$[ebp]
  00607	8b 42 58	 mov	 eax, DWORD PTR [edx+88]
  0060a	8b 4d f8	 mov	 ecx, DWORD PTR _this$[ebp]
  0060d	8b 51 58	 mov	 edx, DWORD PTR [ecx+88]
  00610	8b 00		 mov	 eax, DWORD PTR [eax]
  00612	52		 push	 edx
  00613	ff 90 d8 00 00
	00		 call	 DWORD PTR [eax+216]
  00619	3b f4		 cmp	 esi, esp
  0061b	e8 00 00 00 00	 call	 __RTC_CheckEsp

; 672  : 
; 673  :     return S_OK;

  00620	33 c0		 xor	 eax, eax
$L80533:

; 674  : }

  00622	52		 push	 edx
  00623	8b cd		 mov	 ecx, ebp
  00625	50		 push	 eax
  00626	8d 15 00 00 00
	00		 lea	 edx, DWORD PTR $L80789
  0062c	e8 00 00 00 00	 call	 @_RTC_CheckStackVars@8
  00631	58		 pop	 eax
  00632	5a		 pop	 edx
  00633	5f		 pop	 edi
  00634	5e		 pop	 esi
  00635	5b		 pop	 ebx
  00636	81 c4 b4 02 00
	00		 add	 esp, 692		; 000002b4H
  0063c	3b ec		 cmp	 ebp, esp
  0063e	e8 00 00 00 00	 call	 __RTC_CheckEsp
  00643	8b e5		 mov	 esp, ebp
  00645	5d		 pop	 ebp
  00646	c2 14 00	 ret	 20			; 00000014H
$L80789:
  00649	01 00 00 00	 DD	 1
  0064d	00 00 00 00	 DD	 $L80788
$L80788:
  00651	e0 ff ff ff	 DD	 -32			; ffffffe0H
  00655	04 00 00 00	 DD	 4
  00659	00 00 00 00	 DD	 $L80787
$L80787:
  0065d	70		 DB	 112			; 00000070H
  0065e	56		 DB	 86			; 00000056H
  0065f	65		 DB	 101			; 00000065H
  00660	72		 DB	 114			; 00000072H
  00661	74		 DB	 116			; 00000074H
  00662	69		 DB	 105			; 00000069H
  00663	63		 DB	 99			; 00000063H
  00664	65		 DB	 101			; 00000065H
  00665	73		 DB	 115			; 00000073H
  00666	00		 DB	 0
?DrawTextA@CD3DFont@@QAEJMMKPADK@Z ENDP			; CD3DFont::DrawTextA
_TEXT	ENDS
PUBLIC	?Render3DText@CD3DFont@@QAEJPADK@Z		; CD3DFont::Render3DText
PUBLIC	?InitFont3DVertex@@YA?AUFONT3DVERTEX@@ABUD3DXVECTOR3@@0MM@Z ; InitFont3DVertex
PUBLIC	__real@41200000
PUBLIC	??0D3DXVECTOR3@@QAE@MMM@Z			; D3DXVECTOR3::D3DXVECTOR3
;	COMDAT __real@41200000
CONST	SEGMENT
__real@41200000 DD 041200000r			; 10
; Function compile flags: /Odt /RTCsu /ZI
CONST	ENDS
;	COMDAT ?Render3DText@CD3DFont@@QAEJPADK@Z
_TEXT	SEGMENT
tv575 = -864
tv567 = -864
tv553 = -864
tv205 = -857
$T80809 = -852
$T80808 = -812
$T80807 = -792
$T80806 = -772
$T80805 = -732
$T80804 = -712
$T80803 = -692
$T80802 = -652
$T80801 = -632
$T80800 = -612
$T80799 = -572
$T80798 = -552
$T80797 = -532
$T80796 = -492
$T80795 = -472
$T80794 = -452
$T80793 = -412
$T80792 = -392
_h$80603 = -180
_w$80602 = -168
_ty2$80601 = -156
_tx2$80600 = -144
_ty1$80599 = -132
_tx1$80598 = -120
_dwNumTriangles$ = -108
_dwVertex$ = -96
_pVertices$ = -84
_c$ = -69
_fStartX$ = -60
_sz$80583 = -48
_y$ = -32
_x$ = -20
_this$ = -8
_strText$ = 8
_dwFlags$ = 12
?Render3DText@CD3DFont@@QAEJPADK@Z PROC NEAR		; CD3DFont::Render3DText, COMDAT
; _this$ = ecx

; 684  : {

  00000	55		 push	 ebp
  00001	8b ec		 mov	 ebp, esp
  00003	81 ec 60 03 00
	00		 sub	 esp, 864		; 00000360H
  00009	53		 push	 ebx
  0000a	56		 push	 esi
  0000b	57		 push	 edi
  0000c	51		 push	 ecx
  0000d	8d bd a0 fc ff
	ff		 lea	 edi, DWORD PTR [ebp-864]
  00013	b9 d8 00 00 00	 mov	 ecx, 216		; 000000d8H
  00018	b8 cc cc cc cc	 mov	 eax, -858993460		; ccccccccH
  0001d	f3 ab		 rep stosd
  0001f	59		 pop	 ecx
  00020	89 4d f8	 mov	 DWORD PTR _this$[ebp], ecx

; 685  :     if( m_pd3dDevice == NULL )

  00023	8b 45 f8	 mov	 eax, DWORD PTR _this$[ebp]
  00026	83 78 58 00	 cmp	 DWORD PTR [eax+88], 0
  0002a	75 0a		 jne	 SHORT $L80576

; 686  :         return E_FAIL;

  0002c	b8 05 40 00 80	 mov	 eax, -2147467259	; 80004005H
  00031	e9 b7 06 00 00	 jmp	 $L80575
$L80576:

; 687  : 
; 688  :     // Setup renderstate
; 689  :     m_pd3dDevice->CaptureStateBlock( m_dwSavedStateBlock );

  00036	8b f4		 mov	 esi, esp
  00038	8b 45 f8	 mov	 eax, DWORD PTR _this$[ebp]
  0003b	8b 88 70 06 00
	00		 mov	 ecx, DWORD PTR [eax+1648]
  00041	51		 push	 ecx
  00042	8b 55 f8	 mov	 edx, DWORD PTR _this$[ebp]
  00045	8b 42 58	 mov	 eax, DWORD PTR [edx+88]
  00048	8b 4d f8	 mov	 ecx, DWORD PTR _this$[ebp]
  0004b	8b 51 58	 mov	 edx, DWORD PTR [ecx+88]
  0004e	8b 00		 mov	 eax, DWORD PTR [eax]
  00050	52		 push	 edx
  00051	ff 90 dc 00 00
	00		 call	 DWORD PTR [eax+220]
  00057	3b f4		 cmp	 esi, esp
  00059	e8 00 00 00 00	 call	 __RTC_CheckEsp

; 690  :     m_pd3dDevice->ApplyStateBlock( m_dwDrawTextStateBlock );

  0005e	8b f4		 mov	 esi, esp
  00060	8b 45 f8	 mov	 eax, DWORD PTR _this$[ebp]
  00063	8b 88 74 06 00
	00		 mov	 ecx, DWORD PTR [eax+1652]
  00069	51		 push	 ecx
  0006a	8b 55 f8	 mov	 edx, DWORD PTR _this$[ebp]
  0006d	8b 42 58	 mov	 eax, DWORD PTR [edx+88]
  00070	8b 4d f8	 mov	 ecx, DWORD PTR _this$[ebp]
  00073	8b 51 58	 mov	 edx, DWORD PTR [ecx+88]
  00076	8b 00		 mov	 eax, DWORD PTR [eax]
  00078	52		 push	 edx
  00079	ff 90 d8 00 00
	00		 call	 DWORD PTR [eax+216]
  0007f	3b f4		 cmp	 esi, esp
  00081	e8 00 00 00 00	 call	 __RTC_CheckEsp

; 691  :     m_pd3dDevice->SetVertexShader( D3DFVF_FONT3DVERTEX );

  00086	8b f4		 mov	 esi, esp
  00088	68 12 01 00 00	 push	 274			; 00000112H
  0008d	8b 45 f8	 mov	 eax, DWORD PTR _this$[ebp]
  00090	8b 48 58	 mov	 ecx, DWORD PTR [eax+88]
  00093	8b 55 f8	 mov	 edx, DWORD PTR _this$[ebp]
  00096	8b 42 58	 mov	 eax, DWORD PTR [edx+88]
  00099	8b 09		 mov	 ecx, DWORD PTR [ecx]
  0009b	50		 push	 eax
  0009c	ff 91 30 01 00
	00		 call	 DWORD PTR [ecx+304]
  000a2	3b f4		 cmp	 esi, esp
  000a4	e8 00 00 00 00	 call	 __RTC_CheckEsp

; 692  :     m_pd3dDevice->SetPixelShader( NULL );

  000a9	8b f4		 mov	 esi, esp
  000ab	6a 00		 push	 0
  000ad	8b 45 f8	 mov	 eax, DWORD PTR _this$[ebp]
  000b0	8b 48 58	 mov	 ecx, DWORD PTR [eax+88]
  000b3	8b 55 f8	 mov	 edx, DWORD PTR _this$[ebp]
  000b6	8b 42 58	 mov	 eax, DWORD PTR [edx+88]
  000b9	8b 09		 mov	 ecx, DWORD PTR [ecx]
  000bb	50		 push	 eax
  000bc	ff 91 60 01 00
	00		 call	 DWORD PTR [ecx+352]
  000c2	3b f4		 cmp	 esi, esp
  000c4	e8 00 00 00 00	 call	 __RTC_CheckEsp

; 693  :     m_pd3dDevice->SetStreamSource( 0, m_pVB, sizeof(FONT3DVERTEX) );

  000c9	8b f4		 mov	 esi, esp
  000cb	6a 20		 push	 32			; 00000020H
  000cd	8b 45 f8	 mov	 eax, DWORD PTR _this$[ebp]
  000d0	8b 48 60	 mov	 ecx, DWORD PTR [eax+96]
  000d3	51		 push	 ecx
  000d4	6a 00		 push	 0
  000d6	8b 55 f8	 mov	 edx, DWORD PTR _this$[ebp]
  000d9	8b 42 58	 mov	 eax, DWORD PTR [edx+88]
  000dc	8b 4d f8	 mov	 ecx, DWORD PTR _this$[ebp]
  000df	8b 51 58	 mov	 edx, DWORD PTR [ecx+88]
  000e2	8b 00		 mov	 eax, DWORD PTR [eax]
  000e4	52		 push	 edx
  000e5	ff 90 4c 01 00
	00		 call	 DWORD PTR [eax+332]
  000eb	3b f4		 cmp	 esi, esp
  000ed	e8 00 00 00 00	 call	 __RTC_CheckEsp

; 694  : 
; 695  :     // Set filter states
; 696  :     if( dwFlags & D3DFONT_FILTERED )

  000f2	8b 45 0c	 mov	 eax, DWORD PTR _dwFlags$[ebp]
  000f5	83 e0 04	 and	 eax, 4
  000f8	85 c0		 test	 eax, eax
  000fa	74 48		 je	 SHORT $L80579

; 697  :     {
; 698  :         m_pd3dDevice->SetTextureStageState( 0, D3DTSS_MINFILTER, D3DTEXF_LINEAR );

  000fc	8b f4		 mov	 esi, esp
  000fe	6a 02		 push	 2
  00100	6a 11		 push	 17			; 00000011H
  00102	6a 00		 push	 0
  00104	8b 45 f8	 mov	 eax, DWORD PTR _this$[ebp]
  00107	8b 48 58	 mov	 ecx, DWORD PTR [eax+88]
  0010a	8b 55 f8	 mov	 edx, DWORD PTR _this$[ebp]
  0010d	8b 42 58	 mov	 eax, DWORD PTR [edx+88]
  00110	8b 09		 mov	 ecx, DWORD PTR [ecx]
  00112	50		 push	 eax
  00113	ff 91 fc 00 00
	00		 call	 DWORD PTR [ecx+252]
  00119	3b f4		 cmp	 esi, esp
  0011b	e8 00 00 00 00	 call	 __RTC_CheckEsp

; 699  :         m_pd3dDevice->SetTextureStageState( 0, D3DTSS_MAGFILTER, D3DTEXF_LINEAR );

  00120	8b f4		 mov	 esi, esp
  00122	6a 02		 push	 2
  00124	6a 10		 push	 16			; 00000010H
  00126	6a 00		 push	 0
  00128	8b 45 f8	 mov	 eax, DWORD PTR _this$[ebp]
  0012b	8b 48 58	 mov	 ecx, DWORD PTR [eax+88]
  0012e	8b 55 f8	 mov	 edx, DWORD PTR _this$[ebp]
  00131	8b 42 58	 mov	 eax, DWORD PTR [edx+88]
  00134	8b 09		 mov	 ecx, DWORD PTR [ecx]
  00136	50		 push	 eax
  00137	ff 91 fc 00 00
	00		 call	 DWORD PTR [ecx+252]
  0013d	3b f4		 cmp	 esi, esp
  0013f	e8 00 00 00 00	 call	 __RTC_CheckEsp
$L80579:

; 700  :     }
; 701  : 
; 702  :     // Position for each text element
; 703  :     FLOAT x = 0.0f;

  00144	c7 45 ec 00 00
	00 00		 mov	 DWORD PTR _x$[ebp], 0

; 704  :     FLOAT y = 0.0f;

  0014b	c7 45 e0 00 00
	00 00		 mov	 DWORD PTR _y$[ebp], 0

; 705  : 
; 706  :     // Center the text block at the origin
; 707  :     if( dwFlags & D3DFONT_CENTERED )

  00152	8b 45 0c	 mov	 eax, DWORD PTR _dwFlags$[ebp]
  00155	83 e0 01	 and	 eax, 1
  00158	85 c0		 test	 eax, eax
  0015a	74 38		 je	 SHORT $L80582

; 708  :     {
; 709  :         SIZE sz;
; 710  :         GetTextExtent( strText, &sz );

  0015c	8d 45 d0	 lea	 eax, DWORD PTR _sz$80583[ebp]
  0015f	50		 push	 eax
  00160	8b 4d 08	 mov	 ecx, DWORD PTR _strText$[ebp]
  00163	51		 push	 ecx
  00164	8b 4d f8	 mov	 ecx, DWORD PTR _this$[ebp]
  00167	e8 00 00 00 00	 call	 ?GetTextExtent@CD3DFont@@QAEJPADPAUtagSIZE@@@Z ; CD3DFont::GetTextExtent

; 711  :         x = -(((FLOAT)sz.cx)/10.0f)/2.0f;

  0016c	db 45 d0	 fild	 DWORD PTR _sz$80583[ebp]
  0016f	d8 35 00 00 00
	00		 fdiv	 DWORD PTR __real@41200000
  00175	d9 e0		 fchs
  00177	d8 35 00 00 00
	00		 fdiv	 DWORD PTR __real@40000000
  0017d	d9 5d ec	 fstp	 DWORD PTR _x$[ebp]

; 712  :         y = -(((FLOAT)sz.cy)/10.0f)/2.0f;

  00180	db 45 d4	 fild	 DWORD PTR _sz$80583[ebp+4]
  00183	d8 35 00 00 00
	00		 fdiv	 DWORD PTR __real@41200000
  00189	d9 e0		 fchs
  0018b	d8 35 00 00 00
	00		 fdiv	 DWORD PTR __real@40000000
  00191	d9 5d e0	 fstp	 DWORD PTR _y$[ebp]
$L80582:

; 713  :     }
; 714  : 
; 715  :     // Turn off culling for two-sided text
; 716  :     if( dwFlags & D3DFONT_TWOSIDED )

  00194	8b 45 0c	 mov	 eax, DWORD PTR _dwFlags$[ebp]
  00197	83 e0 02	 and	 eax, 2
  0019a	85 c0		 test	 eax, eax
  0019c	74 22		 je	 SHORT $L80586

; 717  :         m_pd3dDevice->SetRenderState( D3DRS_CULLMODE, D3DCULL_NONE );

  0019e	8b f4		 mov	 esi, esp
  001a0	6a 01		 push	 1
  001a2	6a 16		 push	 22			; 00000016H
  001a4	8b 45 f8	 mov	 eax, DWORD PTR _this$[ebp]
  001a7	8b 48 58	 mov	 ecx, DWORD PTR [eax+88]
  001aa	8b 55 f8	 mov	 edx, DWORD PTR _this$[ebp]
  001ad	8b 42 58	 mov	 eax, DWORD PTR [edx+88]
  001b0	8b 09		 mov	 ecx, DWORD PTR [ecx]
  001b2	50		 push	 eax
  001b3	ff 91 c8 00 00
	00		 call	 DWORD PTR [ecx+200]
  001b9	3b f4		 cmp	 esi, esp
  001bb	e8 00 00 00 00	 call	 __RTC_CheckEsp
$L80586:

; 718  : 
; 719  :     FLOAT fStartX = x;

  001c0	8b 45 ec	 mov	 eax, DWORD PTR _x$[ebp]
  001c3	89 45 c4	 mov	 DWORD PTR _fStartX$[ebp], eax

; 720  :     TCHAR c;
; 721  : 
; 722  :     // Fill vertex buffer
; 723  :     FONT3DVERTEX* pVertices;
; 724  :     DWORD         dwVertex       = 0L;

  001c6	c7 45 a0 00 00
	00 00		 mov	 DWORD PTR _dwVertex$[ebp], 0

; 725  :     DWORD         dwNumTriangles = 0L;

  001cd	c7 45 94 00 00
	00 00		 mov	 DWORD PTR _dwNumTriangles$[ebp], 0

; 726  :     m_pVB->Lock( 0, 0, (BYTE**)&pVertices, D3DLOCK_DISCARD );

  001d4	8b f4		 mov	 esi, esp
  001d6	68 00 20 00 00	 push	 8192			; 00002000H
  001db	8d 45 ac	 lea	 eax, DWORD PTR _pVertices$[ebp]
  001de	50		 push	 eax
  001df	6a 00		 push	 0
  001e1	6a 00		 push	 0
  001e3	8b 4d f8	 mov	 ecx, DWORD PTR _this$[ebp]
  001e6	8b 51 60	 mov	 edx, DWORD PTR [ecx+96]
  001e9	8b 45 f8	 mov	 eax, DWORD PTR _this$[ebp]
  001ec	8b 48 60	 mov	 ecx, DWORD PTR [eax+96]
  001ef	8b 12		 mov	 edx, DWORD PTR [edx]
  001f1	51		 push	 ecx
  001f2	ff 52 2c	 call	 DWORD PTR [edx+44]
  001f5	3b f4		 cmp	 esi, esp
  001f7	e8 00 00 00 00	 call	 __RTC_CheckEsp
$L80594:

; 727  : 
; 728  :     while( c = *strText++ )

  001fc	8b 45 08	 mov	 eax, DWORD PTR _strText$[ebp]
  001ff	8a 08		 mov	 cl, BYTE PTR [eax]
  00201	88 4d bb	 mov	 BYTE PTR _c$[ebp], cl
  00204	8a 55 bb	 mov	 dl, BYTE PTR _c$[ebp]
  00207	88 95 a7 fc ff
	ff		 mov	 BYTE PTR tv205[ebp], dl
  0020d	8b 45 08	 mov	 eax, DWORD PTR _strText$[ebp]
  00210	83 c0 01	 add	 eax, 1
  00213	89 45 08	 mov	 DWORD PTR _strText$[ebp], eax
  00216	0f be 8d a7 fc
	ff ff		 movsx	 ecx, BYTE PTR tv205[ebp]
  0021d	85 c9		 test	 ecx, ecx
  0021f	0f 84 57 04 00
	00		 je	 $L80595

; 729  :     {
; 730  :         if( c == '\n' )

  00225	0f be 45 bb	 movsx	 eax, BYTE PTR _c$[ebp]
  00229	83 f8 0a	 cmp	 eax, 10			; 0000000aH
  0022c	75 3c		 jne	 SHORT $L80596

; 731  :         {
; 732  :             x = fStartX;

  0022e	8b 45 c4	 mov	 eax, DWORD PTR _fStartX$[ebp]
  00231	89 45 ec	 mov	 DWORD PTR _x$[ebp], eax

; 733  :             y -= (m_fTexCoords[0][3]-m_fTexCoords[0][1])*m_dwTexHeight/10.0f;

  00234	8b 45 f8	 mov	 eax, DWORD PTR _this$[ebp]
  00237	8b 4d f8	 mov	 ecx, DWORD PTR _this$[ebp]
  0023a	d9 40 7c	 fld	 DWORD PTR [eax+124]
  0023d	d8 61 74	 fsub	 DWORD PTR [ecx+116]
  00240	8b 55 f8	 mov	 edx, DWORD PTR _this$[ebp]
  00243	8b 42 68	 mov	 eax, DWORD PTR [edx+104]
  00246	89 85 a0 fc ff
	ff		 mov	 DWORD PTR tv553[ebp], eax
  0024c	c7 85 a4 fc ff
	ff 00 00 00 00	 mov	 DWORD PTR tv553[ebp+4], 0
  00256	df ad a0 fc ff
	ff		 fild	 QWORD PTR tv553[ebp]
  0025c	de c9		 fmulp	 ST(1), ST(0)
  0025e	d8 35 00 00 00
	00		 fdiv	 DWORD PTR __real@41200000
  00264	d8 6d e0	 fsubr	 DWORD PTR _y$[ebp]
  00267	d9 5d e0	 fstp	 DWORD PTR _y$[ebp]
$L80596:

; 734  :         }
; 735  :         if( c < 32 )

  0026a	0f be 45 bb	 movsx	 eax, BYTE PTR _c$[ebp]
  0026e	83 f8 20	 cmp	 eax, 32			; 00000020H
  00271	7d 02		 jge	 SHORT $L80597

; 736  :             continue;

  00273	eb 87		 jmp	 SHORT $L80594
$L80597:

; 737  : 
; 738  :         FLOAT tx1 = m_fTexCoords[c-32][0];

  00275	0f be 45 bb	 movsx	 eax, BYTE PTR _c$[ebp]
  00279	83 e8 20	 sub	 eax, 32			; 00000020H
  0027c	c1 e0 04	 shl	 eax, 4
  0027f	8b 4d f8	 mov	 ecx, DWORD PTR _this$[ebp]
  00282	8b 54 01 70	 mov	 edx, DWORD PTR [ecx+eax+112]
  00286	89 55 88	 mov	 DWORD PTR _tx1$80598[ebp], edx

; 739  :         FLOAT ty1 = m_fTexCoords[c-32][1];

  00289	0f be 45 bb	 movsx	 eax, BYTE PTR _c$[ebp]
  0028d	83 e8 20	 sub	 eax, 32			; 00000020H
  00290	c1 e0 04	 shl	 eax, 4
  00293	8b 4d f8	 mov	 ecx, DWORD PTR _this$[ebp]
  00296	8b 54 01 74	 mov	 edx, DWORD PTR [ecx+eax+116]
  0029a	89 95 7c ff ff
	ff		 mov	 DWORD PTR _ty1$80599[ebp], edx

; 740  :         FLOAT tx2 = m_fTexCoords[c-32][2];

  002a0	0f be 45 bb	 movsx	 eax, BYTE PTR _c$[ebp]
  002a4	83 e8 20	 sub	 eax, 32			; 00000020H
  002a7	c1 e0 04	 shl	 eax, 4
  002aa	8b 4d f8	 mov	 ecx, DWORD PTR _this$[ebp]
  002ad	8b 54 01 78	 mov	 edx, DWORD PTR [ecx+eax+120]
  002b1	89 95 70 ff ff
	ff		 mov	 DWORD PTR _tx2$80600[ebp], edx

; 741  :         FLOAT ty2 = m_fTexCoords[c-32][3];

  002b7	0f be 45 bb	 movsx	 eax, BYTE PTR _c$[ebp]
  002bb	83 e8 20	 sub	 eax, 32			; 00000020H
  002be	c1 e0 04	 shl	 eax, 4
  002c1	8b 4d f8	 mov	 ecx, DWORD PTR _this$[ebp]
  002c4	8b 54 01 7c	 mov	 edx, DWORD PTR [ecx+eax+124]
  002c8	89 95 64 ff ff
	ff		 mov	 DWORD PTR _ty2$80601[ebp], edx

; 742  : 
; 743  :         FLOAT w = (tx2-tx1) * m_dwTexWidth  / ( 10.0f * m_fTextScale );

  002ce	d9 85 70 ff ff
	ff		 fld	 DWORD PTR _tx2$80600[ebp]
  002d4	d8 65 88	 fsub	 DWORD PTR _tx1$80598[ebp]
  002d7	8b 45 f8	 mov	 eax, DWORD PTR _this$[ebp]
  002da	8b 48 64	 mov	 ecx, DWORD PTR [eax+100]
  002dd	89 8d a0 fc ff
	ff		 mov	 DWORD PTR tv567[ebp], ecx
  002e3	c7 85 a4 fc ff
	ff 00 00 00 00	 mov	 DWORD PTR tv567[ebp+4], 0
  002ed	df ad a0 fc ff
	ff		 fild	 QWORD PTR tv567[ebp]
  002f3	de c9		 fmulp	 ST(1), ST(0)
  002f5	8b 55 f8	 mov	 edx, DWORD PTR _this$[ebp]
  002f8	d9 05 00 00 00
	00		 fld	 DWORD PTR __real@41200000
  002fe	d8 4a 6c	 fmul	 DWORD PTR [edx+108]
  00301	de f9		 fdivp	 ST(1), ST(0)
  00303	d9 9d 58 ff ff
	ff		 fstp	 DWORD PTR _w$80602[ebp]

; 744  :         FLOAT h = (ty2-ty1) * m_dwTexHeight / ( 10.0f * m_fTextScale );

  00309	d9 85 64 ff ff
	ff		 fld	 DWORD PTR _ty2$80601[ebp]
  0030f	d8 a5 7c ff ff
	ff		 fsub	 DWORD PTR _ty1$80599[ebp]
  00315	8b 45 f8	 mov	 eax, DWORD PTR _this$[ebp]
  00318	8b 48 68	 mov	 ecx, DWORD PTR [eax+104]
  0031b	89 8d a0 fc ff
	ff		 mov	 DWORD PTR tv575[ebp], ecx
  00321	c7 85 a4 fc ff
	ff 00 00 00 00	 mov	 DWORD PTR tv575[ebp+4], 0
  0032b	df ad a0 fc ff
	ff		 fild	 QWORD PTR tv575[ebp]
  00331	de c9		 fmulp	 ST(1), ST(0)
  00333	8b 55 f8	 mov	 edx, DWORD PTR _this$[ebp]
  00336	d9 05 00 00 00
	00		 fld	 DWORD PTR __real@41200000
  0033c	d8 4a 6c	 fmul	 DWORD PTR [edx+108]
  0033f	de f9		 fdivp	 ST(1), ST(0)
  00341	d9 9d 4c ff ff
	ff		 fstp	 DWORD PTR _h$80603[ebp]

; 745  : 
; 746  :         if( c != _T(' ') )

  00347	0f be 45 bb	 movsx	 eax, BYTE PTR _c$[ebp]
  0034b	83 f8 20	 cmp	 eax, 32			; 00000020H
  0034e	0f 84 17 03 00
	00		 je	 $L80604

; 747  :         {
; 748  :             *pVertices++ = InitFont3DVertex( D3DXVECTOR3(x+0,y+0,0), D3DXVECTOR3(0,0,-1), tx1, ty2 );

  00354	8b 85 64 ff ff
	ff		 mov	 eax, DWORD PTR _ty2$80601[ebp]
  0035a	50		 push	 eax
  0035b	8b 4d 88	 mov	 ecx, DWORD PTR _tx1$80598[ebp]
  0035e	51		 push	 ecx
  0035f	68 00 00 80 bf	 push	 -1082130432		; bf800000H
  00364	6a 00		 push	 0
  00366	6a 00		 push	 0
  00368	8d 8d 78 fe ff
	ff		 lea	 ecx, DWORD PTR $T80792[ebp]
  0036e	e8 00 00 00 00	 call	 ??0D3DXVECTOR3@@QAE@MMM@Z ; D3DXVECTOR3::D3DXVECTOR3
  00373	50		 push	 eax
  00374	6a 00		 push	 0
  00376	d9 45 e0	 fld	 DWORD PTR _y$[ebp]
  00379	d8 05 00 00 00
	00		 fadd	 DWORD PTR __real@00000000
  0037f	51		 push	 ecx
  00380	d9 1c 24	 fstp	 DWORD PTR [esp]
  00383	d9 45 ec	 fld	 DWORD PTR _x$[ebp]
  00386	d8 05 00 00 00
	00		 fadd	 DWORD PTR __real@00000000
  0038c	51		 push	 ecx
  0038d	d9 1c 24	 fstp	 DWORD PTR [esp]
  00390	8d 8d 64 fe ff
	ff		 lea	 ecx, DWORD PTR $T80793[ebp]
  00396	e8 00 00 00 00	 call	 ??0D3DXVECTOR3@@QAE@MMM@Z ; D3DXVECTOR3::D3DXVECTOR3
  0039b	50		 push	 eax
  0039c	8d 95 3c fe ff
	ff		 lea	 edx, DWORD PTR $T80794[ebp]
  003a2	52		 push	 edx
  003a3	e8 00 00 00 00	 call	 ?InitFont3DVertex@@YA?AUFONT3DVERTEX@@ABUD3DXVECTOR3@@0MM@Z ; InitFont3DVertex
  003a8	83 c4 14	 add	 esp, 20			; 00000014H
  003ab	b9 08 00 00 00	 mov	 ecx, 8
  003b0	8b f0		 mov	 esi, eax
  003b2	8b 7d ac	 mov	 edi, DWORD PTR _pVertices$[ebp]
  003b5	f3 a5		 rep movsd
  003b7	8b 45 ac	 mov	 eax, DWORD PTR _pVertices$[ebp]
  003ba	83 c0 20	 add	 eax, 32			; 00000020H
  003bd	89 45 ac	 mov	 DWORD PTR _pVertices$[ebp], eax

; 749  :             *pVertices++ = InitFont3DVertex( D3DXVECTOR3(x+0,y+h,0), D3DXVECTOR3(0,0,-1), tx1, ty1 );

  003c0	8b 85 7c ff ff
	ff		 mov	 eax, DWORD PTR _ty1$80599[ebp]
  003c6	50		 push	 eax
  003c7	8b 4d 88	 mov	 ecx, DWORD PTR _tx1$80598[ebp]
  003ca	51		 push	 ecx
  003cb	68 00 00 80 bf	 push	 -1082130432		; bf800000H
  003d0	6a 00		 push	 0
  003d2	6a 00		 push	 0
  003d4	8d 8d 28 fe ff
	ff		 lea	 ecx, DWORD PTR $T80795[ebp]
  003da	e8 00 00 00 00	 call	 ??0D3DXVECTOR3@@QAE@MMM@Z ; D3DXVECTOR3::D3DXVECTOR3
  003df	50		 push	 eax
  003e0	6a 00		 push	 0
  003e2	d9 45 e0	 fld	 DWORD PTR _y$[ebp]
  003e5	d8 85 4c ff ff
	ff		 fadd	 DWORD PTR _h$80603[ebp]
  003eb	51		 push	 ecx
  003ec	d9 1c 24	 fstp	 DWORD PTR [esp]
  003ef	d9 45 ec	 fld	 DWORD PTR _x$[ebp]
  003f2	d8 05 00 00 00
	00		 fadd	 DWORD PTR __real@00000000
  003f8	51		 push	 ecx
  003f9	d9 1c 24	 fstp	 DWORD PTR [esp]
  003fc	8d 8d 14 fe ff
	ff		 lea	 ecx, DWORD PTR $T80796[ebp]
  00402	e8 00 00 00 00	 call	 ??0D3DXVECTOR3@@QAE@MMM@Z ; D3DXVECTOR3::D3DXVECTOR3
  00407	50		 push	 eax
  00408	8d 95 ec fd ff
	ff		 lea	 edx, DWORD PTR $T80797[ebp]
  0040e	52		 push	 edx
  0040f	e8 00 00 00 00	 call	 ?InitFont3DVertex@@YA?AUFONT3DVERTEX@@ABUD3DXVECTOR3@@0MM@Z ; InitFont3DVertex
  00414	83 c4 14	 add	 esp, 20			; 00000014H
  00417	b9 08 00 00 00	 mov	 ecx, 8
  0041c	8b f0		 mov	 esi, eax
  0041e	8b 7d ac	 mov	 edi, DWORD PTR _pVertices$[ebp]
  00421	f3 a5		 rep movsd
  00423	8b 45 ac	 mov	 eax, DWORD PTR _pVertices$[ebp]
  00426	83 c0 20	 add	 eax, 32			; 00000020H
  00429	89 45 ac	 mov	 DWORD PTR _pVertices$[ebp], eax

; 750  :             *pVertices++ = InitFont3DVertex( D3DXVECTOR3(x+w,y+0,0), D3DXVECTOR3(0,0,-1), tx2, ty2 );

  0042c	8b 85 64 ff ff
	ff		 mov	 eax, DWORD PTR _ty2$80601[ebp]
  00432	50		 push	 eax
  00433	8b 8d 70 ff ff
	ff		 mov	 ecx, DWORD PTR _tx2$80600[ebp]
  00439	51		 push	 ecx
  0043a	68 00 00 80 bf	 push	 -1082130432		; bf800000H
  0043f	6a 00		 push	 0
  00441	6a 00		 push	 0
  00443	8d 8d d8 fd ff
	ff		 lea	 ecx, DWORD PTR $T80798[ebp]
  00449	e8 00 00 00 00	 call	 ??0D3DXVECTOR3@@QAE@MMM@Z ; D3DXVECTOR3::D3DXVECTOR3
  0044e	50		 push	 eax
  0044f	6a 00		 push	 0
  00451	d9 45 e0	 fld	 DWORD PTR _y$[ebp]
  00454	d8 05 00 00 00
	00		 fadd	 DWORD PTR __real@00000000
  0045a	51		 push	 ecx
  0045b	d9 1c 24	 fstp	 DWORD PTR [esp]
  0045e	d9 45 ec	 fld	 DWORD PTR _x$[ebp]
  00461	d8 85 58 ff ff
	ff		 fadd	 DWORD PTR _w$80602[ebp]
  00467	51		 push	 ecx
  00468	d9 1c 24	 fstp	 DWORD PTR [esp]
  0046b	8d 8d c4 fd ff
	ff		 lea	 ecx, DWORD PTR $T80799[ebp]
  00471	e8 00 00 00 00	 call	 ??0D3DXVECTOR3@@QAE@MMM@Z ; D3DXVECTOR3::D3DXVECTOR3
  00476	50		 push	 eax
  00477	8d 95 9c fd ff
	ff		 lea	 edx, DWORD PTR $T80800[ebp]
  0047d	52		 push	 edx
  0047e	e8 00 00 00 00	 call	 ?InitFont3DVertex@@YA?AUFONT3DVERTEX@@ABUD3DXVECTOR3@@0MM@Z ; InitFont3DVertex
  00483	83 c4 14	 add	 esp, 20			; 00000014H
  00486	b9 08 00 00 00	 mov	 ecx, 8
  0048b	8b f0		 mov	 esi, eax
  0048d	8b 7d ac	 mov	 edi, DWORD PTR _pVertices$[ebp]
  00490	f3 a5		 rep movsd
  00492	8b 45 ac	 mov	 eax, DWORD PTR _pVertices$[ebp]
  00495	83 c0 20	 add	 eax, 32			; 00000020H
  00498	89 45 ac	 mov	 DWORD PTR _pVertices$[ebp], eax

; 751  :             *pVertices++ = InitFont3DVertex( D3DXVECTOR3(x+w,y+h,0), D3DXVECTOR3(0,0,-1), tx2, ty1 );

  0049b	8b 85 7c ff ff
	ff		 mov	 eax, DWORD PTR _ty1$80599[ebp]
  004a1	50		 push	 eax
  004a2	8b 8d 70 ff ff
	ff		 mov	 ecx, DWORD PTR _tx2$80600[ebp]
  004a8	51		 push	 ecx
  004a9	68 00 00 80 bf	 push	 -1082130432		; bf800000H
  004ae	6a 00		 push	 0
  004b0	6a 00		 push	 0
  004b2	8d 8d 88 fd ff
	ff		 lea	 ecx, DWORD PTR $T80801[ebp]
  004b8	e8 00 00 00 00	 call	 ??0D3DXVECTOR3@@QAE@MMM@Z ; D3DXVECTOR3::D3DXVECTOR3
  004bd	50		 push	 eax
  004be	6a 00		 push	 0
  004c0	d9 45 e0	 fld	 DWORD PTR _y$[ebp]
  004c3	d8 85 4c ff ff
	ff		 fadd	 DWORD PTR _h$80603[ebp]
  004c9	51		 push	 ecx
  004ca	d9 1c 24	 fstp	 DWORD PTR [esp]
  004cd	d9 45 ec	 fld	 DWORD PTR _x$[ebp]
  004d0	d8 85 58 ff ff
	ff		 fadd	 DWORD PTR _w$80602[ebp]
  004d6	51		 push	 ecx
  004d7	d9 1c 24	 fstp	 DWORD PTR [esp]
  004da	8d 8d 74 fd ff
	ff		 lea	 ecx, DWORD PTR $T80802[ebp]
  004e0	e8 00 00 00 00	 call	 ??0D3DXVECTOR3@@QAE@MMM@Z ; D3DXVECTOR3::D3DXVECTOR3
  004e5	50		 push	 eax
  004e6	8d 95 4c fd ff
	ff		 lea	 edx, DWORD PTR $T80803[ebp]
  004ec	52		 push	 edx
  004ed	e8 00 00 00 00	 call	 ?InitFont3DVertex@@YA?AUFONT3DVERTEX@@ABUD3DXVECTOR3@@0MM@Z ; InitFont3DVertex
  004f2	83 c4 14	 add	 esp, 20			; 00000014H
  004f5	b9 08 00 00 00	 mov	 ecx, 8
  004fa	8b f0		 mov	 esi, eax
  004fc	8b 7d ac	 mov	 edi, DWORD PTR _pVertices$[ebp]
  004ff	f3 a5		 rep movsd
  00501	8b 45 ac	 mov	 eax, DWORD PTR _pVertices$[ebp]
  00504	83 c0 20	 add	 eax, 32			; 00000020H
  00507	89 45 ac	 mov	 DWORD PTR _pVertices$[ebp], eax

; 752  :             *pVertices++ = InitFont3DVertex( D3DXVECTOR3(x+w,y+0,0), D3DXVECTOR3(0,0,-1), tx2, ty2 );

  0050a	8b 85 64 ff ff
	ff		 mov	 eax, DWORD PTR _ty2$80601[ebp]
  00510	50		 push	 eax
  00511	8b 8d 70 ff ff
	ff		 mov	 ecx, DWORD PTR _tx2$80600[ebp]
  00517	51		 push	 ecx
  00518	68 00 00 80 bf	 push	 -1082130432		; bf800000H
  0051d	6a 00		 push	 0
  0051f	6a 00		 push	 0
  00521	8d 8d 38 fd ff
	ff		 lea	 ecx, DWORD PTR $T80804[ebp]
  00527	e8 00 00 00 00	 call	 ??0D3DXVECTOR3@@QAE@MMM@Z ; D3DXVECTOR3::D3DXVECTOR3
  0052c	50		 push	 eax
  0052d	6a 00		 push	 0
  0052f	d9 45 e0	 fld	 DWORD PTR _y$[ebp]
  00532	d8 05 00 00 00
	00		 fadd	 DWORD PTR __real@00000000
  00538	51		 push	 ecx
  00539	d9 1c 24	 fstp	 DWORD PTR [esp]
  0053c	d9 45 ec	 fld	 DWORD PTR _x$[ebp]
  0053f	d8 85 58 ff ff
	ff		 fadd	 DWORD PTR _w$80602[ebp]
  00545	51		 push	 ecx
  00546	d9 1c 24	 fstp	 DWORD PTR [esp]
  00549	8d 8d 24 fd ff
	ff		 lea	 ecx, DWORD PTR $T80805[ebp]
  0054f	e8 00 00 00 00	 call	 ??0D3DXVECTOR3@@QAE@MMM@Z ; D3DXVECTOR3::D3DXVECTOR3
  00554	50		 push	 eax
  00555	8d 95 fc fc ff
	ff		 lea	 edx, DWORD PTR $T80806[ebp]
  0055b	52		 push	 edx
  0055c	e8 00 00 00 00	 call	 ?InitFont3DVertex@@YA?AUFONT3DVERTEX@@ABUD3DXVECTOR3@@0MM@Z ; InitFont3DVertex
  00561	83 c4 14	 add	 esp, 20			; 00000014H
  00564	b9 08 00 00 00	 mov	 ecx, 8
  00569	8b f0		 mov	 esi, eax
  0056b	8b 7d ac	 mov	 edi, DWORD PTR _pVertices$[ebp]
  0056e	f3 a5		 rep movsd
  00570	8b 45 ac	 mov	 eax, DWORD PTR _pVertices$[ebp]
  00573	83 c0 20	 add	 eax, 32			; 00000020H
  00576	89 45 ac	 mov	 DWORD PTR _pVertices$[ebp], eax

; 753  :             *pVertices++ = InitFont3DVertex( D3DXVECTOR3(x+0,y+h,0), D3DXVECTOR3(0,0,-1), tx1, ty1 );

  00579	8b 85 7c ff ff
	ff		 mov	 eax, DWORD PTR _ty1$80599[ebp]
  0057f	50		 push	 eax
  00580	8b 4d 88	 mov	 ecx, DWORD PTR _tx1$80598[ebp]
  00583	51		 push	 ecx
  00584	68 00 00 80 bf	 push	 -1082130432		; bf800000H
  00589	6a 00		 push	 0
  0058b	6a 00		 push	 0
  0058d	8d 8d e8 fc ff
	ff		 lea	 ecx, DWORD PTR $T80807[ebp]
  00593	e8 00 00 00 00	 call	 ??0D3DXVECTOR3@@QAE@MMM@Z ; D3DXVECTOR3::D3DXVECTOR3
  00598	50		 push	 eax
  00599	6a 00		 push	 0
  0059b	d9 45 e0	 fld	 DWORD PTR _y$[ebp]
  0059e	d8 85 4c ff ff
	ff		 fadd	 DWORD PTR _h$80603[ebp]
  005a4	51		 push	 ecx
  005a5	d9 1c 24	 fstp	 DWORD PTR [esp]
  005a8	d9 45 ec	 fld	 DWORD PTR _x$[ebp]
  005ab	d8 05 00 00 00
	00		 fadd	 DWORD PTR __real@00000000
  005b1	51		 push	 ecx
  005b2	d9 1c 24	 fstp	 DWORD PTR [esp]
  005b5	8d 8d d4 fc ff
	ff		 lea	 ecx, DWORD PTR $T80808[ebp]
  005bb	e8 00 00 00 00	 call	 ??0D3DXVECTOR3@@QAE@MMM@Z ; D3DXVECTOR3::D3DXVECTOR3
  005c0	50		 push	 eax
  005c1	8d 95 ac fc ff
	ff		 lea	 edx, DWORD PTR $T80809[ebp]
  005c7	52		 push	 edx
  005c8	e8 00 00 00 00	 call	 ?InitFont3DVertex@@YA?AUFONT3DVERTEX@@ABUD3DXVECTOR3@@0MM@Z ; InitFont3DVertex
  005cd	83 c4 14	 add	 esp, 20			; 00000014H
  005d0	b9 08 00 00 00	 mov	 ecx, 8
  005d5	8b f0		 mov	 esi, eax
  005d7	8b 7d ac	 mov	 edi, DWORD PTR _pVertices$[ebp]
  005da	f3 a5		 rep movsd
  005dc	8b 45 ac	 mov	 eax, DWORD PTR _pVertices$[ebp]
  005df	83 c0 20	 add	 eax, 32			; 00000020H
  005e2	89 45 ac	 mov	 DWORD PTR _pVertices$[ebp], eax

; 754  :             dwNumTriangles += 2;

  005e5	8b 45 94	 mov	 eax, DWORD PTR _dwNumTriangles$[ebp]
  005e8	83 c0 02	 add	 eax, 2
  005eb	89 45 94	 mov	 DWORD PTR _dwNumTriangles$[ebp], eax

; 755  : 
; 756  :             if( dwNumTriangles*3 > (MAX_NUM_VERTICES-6) )

  005ee	8b 45 94	 mov	 eax, DWORD PTR _dwNumTriangles$[ebp]
  005f1	6b c0 03	 imul	 eax, 3
  005f4	3d 26 01 00 00	 cmp	 eax, 294		; 00000126H
  005f9	76 70		 jbe	 SHORT $L80604

; 757  :             {
; 758  :                 // Unlock, render, and relock the vertex buffer
; 759  :                 m_pVB->Unlock();

  005fb	8b 45 f8	 mov	 eax, DWORD PTR _this$[ebp]
  005fe	8b 48 60	 mov	 ecx, DWORD PTR [eax+96]
  00601	8b 55 f8	 mov	 edx, DWORD PTR _this$[ebp]
  00604	8b 42 60	 mov	 eax, DWORD PTR [edx+96]
  00607	8b 09		 mov	 ecx, DWORD PTR [ecx]
  00609	8b f4		 mov	 esi, esp
  0060b	50		 push	 eax
  0060c	ff 51 30	 call	 DWORD PTR [ecx+48]
  0060f	3b f4		 cmp	 esi, esp
  00611	e8 00 00 00 00	 call	 __RTC_CheckEsp

; 760  :                 m_pd3dDevice->DrawPrimitive( D3DPT_TRIANGLELIST, 0, dwNumTriangles );

  00616	8b f4		 mov	 esi, esp
  00618	8b 45 94	 mov	 eax, DWORD PTR _dwNumTriangles$[ebp]
  0061b	50		 push	 eax
  0061c	6a 00		 push	 0
  0061e	6a 04		 push	 4
  00620	8b 4d f8	 mov	 ecx, DWORD PTR _this$[ebp]
  00623	8b 51 58	 mov	 edx, DWORD PTR [ecx+88]
  00626	8b 45 f8	 mov	 eax, DWORD PTR _this$[ebp]
  00629	8b 48 58	 mov	 ecx, DWORD PTR [eax+88]
  0062c	8b 12		 mov	 edx, DWORD PTR [edx]
  0062e	51		 push	 ecx
  0062f	ff 92 18 01 00
	00		 call	 DWORD PTR [edx+280]
  00635	3b f4		 cmp	 esi, esp
  00637	e8 00 00 00 00	 call	 __RTC_CheckEsp

; 761  :                 m_pVB->Lock( 0, 0, (BYTE**)&pVertices, D3DLOCK_DISCARD );

  0063c	8b f4		 mov	 esi, esp
  0063e	68 00 20 00 00	 push	 8192			; 00002000H
  00643	8d 45 ac	 lea	 eax, DWORD PTR _pVertices$[ebp]
  00646	50		 push	 eax
  00647	6a 00		 push	 0
  00649	6a 00		 push	 0
  0064b	8b 4d f8	 mov	 ecx, DWORD PTR _this$[ebp]
  0064e	8b 51 60	 mov	 edx, DWORD PTR [ecx+96]
  00651	8b 45 f8	 mov	 eax, DWORD PTR _this$[ebp]
  00654	8b 48 60	 mov	 ecx, DWORD PTR [eax+96]
  00657	8b 12		 mov	 edx, DWORD PTR [edx]
  00659	51		 push	 ecx
  0065a	ff 52 2c	 call	 DWORD PTR [edx+44]
  0065d	3b f4		 cmp	 esi, esp
  0065f	e8 00 00 00 00	 call	 __RTC_CheckEsp

; 762  :                 dwNumTriangles = 0L;

  00664	c7 45 94 00 00
	00 00		 mov	 DWORD PTR _dwNumTriangles$[ebp], 0
$L80604:

; 763  :             }
; 764  :         }
; 765  : 
; 766  :         x += w;

  0066b	d9 45 ec	 fld	 DWORD PTR _x$[ebp]
  0066e	d8 85 58 ff ff
	ff		 fadd	 DWORD PTR _w$80602[ebp]
  00674	d9 5d ec	 fstp	 DWORD PTR _x$[ebp]

; 767  :     }

  00677	e9 80 fb ff ff	 jmp	 $L80594
$L80595:

; 768  : 
; 769  :     // Unlock and render the vertex buffer
; 770  :     m_pVB->Unlock();

  0067c	8b 45 f8	 mov	 eax, DWORD PTR _this$[ebp]
  0067f	8b 48 60	 mov	 ecx, DWORD PTR [eax+96]
  00682	8b 55 f8	 mov	 edx, DWORD PTR _this$[ebp]
  00685	8b 42 60	 mov	 eax, DWORD PTR [edx+96]
  00688	8b 09		 mov	 ecx, DWORD PTR [ecx]
  0068a	8b f4		 mov	 esi, esp
  0068c	50		 push	 eax
  0068d	ff 51 30	 call	 DWORD PTR [ecx+48]
  00690	3b f4		 cmp	 esi, esp
  00692	e8 00 00 00 00	 call	 __RTC_CheckEsp

; 771  :     if( dwNumTriangles > 0 )

  00697	83 7d 94 00	 cmp	 DWORD PTR _dwNumTriangles$[ebp], 0
  0069b	76 26		 jbe	 SHORT $L80625

; 772  :         m_pd3dDevice->DrawPrimitive( D3DPT_TRIANGLELIST, 0, dwNumTriangles );

  0069d	8b f4		 mov	 esi, esp
  0069f	8b 45 94	 mov	 eax, DWORD PTR _dwNumTriangles$[ebp]
  006a2	50		 push	 eax
  006a3	6a 00		 push	 0
  006a5	6a 04		 push	 4
  006a7	8b 4d f8	 mov	 ecx, DWORD PTR _this$[ebp]
  006aa	8b 51 58	 mov	 edx, DWORD PTR [ecx+88]
  006ad	8b 45 f8	 mov	 eax, DWORD PTR _this$[ebp]
  006b0	8b 48 58	 mov	 ecx, DWORD PTR [eax+88]
  006b3	8b 12		 mov	 edx, DWORD PTR [edx]
  006b5	51		 push	 ecx
  006b6	ff 92 18 01 00
	00		 call	 DWORD PTR [edx+280]
  006bc	3b f4		 cmp	 esi, esp
  006be	e8 00 00 00 00	 call	 __RTC_CheckEsp
$L80625:

; 773  : 
; 774  :     // Restore the modified renderstates
; 775  :     m_pd3dDevice->ApplyStateBlock( m_dwSavedStateBlock );

  006c3	8b f4		 mov	 esi, esp
  006c5	8b 45 f8	 mov	 eax, DWORD PTR _this$[ebp]
  006c8	8b 88 70 06 00
	00		 mov	 ecx, DWORD PTR [eax+1648]
  006ce	51		 push	 ecx
  006cf	8b 55 f8	 mov	 edx, DWORD PTR _this$[ebp]
  006d2	8b 42 58	 mov	 eax, DWORD PTR [edx+88]
  006d5	8b 4d f8	 mov	 ecx, DWORD PTR _this$[ebp]
  006d8	8b 51 58	 mov	 edx, DWORD PTR [ecx+88]
  006db	8b 00		 mov	 eax, DWORD PTR [eax]
  006dd	52		 push	 edx
  006de	ff 90 d8 00 00
	00		 call	 DWORD PTR [eax+216]
  006e4	3b f4		 cmp	 esi, esp
  006e6	e8 00 00 00 00	 call	 __RTC_CheckEsp

; 776  : 
; 777  :     return S_OK;

  006eb	33 c0		 xor	 eax, eax
$L80575:

; 778  : }

  006ed	52		 push	 edx
  006ee	8b cd		 mov	 ecx, ebp
  006f0	50		 push	 eax
  006f1	8d 15 00 00 00
	00		 lea	 edx, DWORD PTR $L80816
  006f7	e8 00 00 00 00	 call	 @_RTC_CheckStackVars@8
  006fc	58		 pop	 eax
  006fd	5a		 pop	 edx
  006fe	5f		 pop	 edi
  006ff	5e		 pop	 esi
  00700	5b		 pop	 ebx
  00701	81 c4 60 03 00
	00		 add	 esp, 864		; 00000360H
  00707	3b ec		 cmp	 ebp, esp
  00709	e8 00 00 00 00	 call	 __RTC_CheckEsp
  0070e	8b e5		 mov	 esp, ebp
  00710	5d		 pop	 ebp
  00711	c2 08 00	 ret	 8
$L80816:
  00714	02 00 00 00	 DD	 2
  00718	00 00 00 00	 DD	 $L80815
$L80815:
  0071c	d0 ff ff ff	 DD	 -48			; ffffffd0H
  00720	08 00 00 00	 DD	 8
  00724	00 00 00 00	 DD	 $L80813
  00728	ac ff ff ff	 DD	 -84			; ffffffacH
  0072c	04 00 00 00	 DD	 4
  00730	00 00 00 00	 DD	 $L80814
$L80814:
  00734	70		 DB	 112			; 00000070H
  00735	56		 DB	 86			; 00000056H
  00736	65		 DB	 101			; 00000065H
  00737	72		 DB	 114			; 00000072H
  00738	74		 DB	 116			; 00000074H
  00739	69		 DB	 105			; 00000069H
  0073a	63		 DB	 99			; 00000063H
  0073b	65		 DB	 101			; 00000065H
  0073c	73		 DB	 115			; 00000073H
  0073d	00		 DB	 0
$L80813:
  0073e	73		 DB	 115			; 00000073H
  0073f	7a		 DB	 122			; 0000007aH
  00740	00		 DB	 0
?Render3DText@CD3DFont@@QAEJPADK@Z ENDP			; CD3DFont::Render3DText
_TEXT	ENDS
PUBLIC	??0FONT3DVERTEX@@QAE@XZ				; FONT3DVERTEX::FONT3DVERTEX
; Function compile flags: /Odt /RTCsu /ZI
;	COMDAT ?InitFont3DVertex@@YA?AUFONT3DVERTEX@@ABUD3DXVECTOR3@@0MM@Z
_TEXT	SEGMENT
_v$ = -36
___$ReturnUdt$ = 8
_p$ = 12
_n$ = 16
_tu$ = 20
_tv$ = 24
?InitFont3DVertex@@YA?AUFONT3DVERTEX@@ABUD3DXVECTOR3@@0MM@Z PROC NEAR ; InitFont3DVertex, COMDAT

; 40   : {

  00000	55		 push	 ebp
  00001	8b ec		 mov	 ebp, esp
  00003	81 ec e8 00 00
	00		 sub	 esp, 232		; 000000e8H
  00009	53		 push	 ebx
  0000a	56		 push	 esi
  0000b	57		 push	 edi
  0000c	8d bd 18 ff ff
	ff		 lea	 edi, DWORD PTR [ebp-232]
  00012	b9 3a 00 00 00	 mov	 ecx, 58			; 0000003aH
  00017	b8 cc cc cc cc	 mov	 eax, -858993460		; ccccccccH
  0001c	f3 ab		 rep stosd

; 41   :     FONT3DVERTEX v;   v.p = p;   v.n = n;   v.tu = tu;   v.tv = tv;

  0001e	8d 4d dc	 lea	 ecx, DWORD PTR _v$[ebp]
  00021	e8 00 00 00 00	 call	 ??0FONT3DVERTEX@@QAE@XZ
  00026	8b 45 0c	 mov	 eax, DWORD PTR _p$[ebp]
  00029	8b 08		 mov	 ecx, DWORD PTR [eax]
  0002b	89 4d dc	 mov	 DWORD PTR _v$[ebp], ecx
  0002e	8b 50 04	 mov	 edx, DWORD PTR [eax+4]
  00031	89 55 e0	 mov	 DWORD PTR _v$[ebp+4], edx
  00034	8b 40 08	 mov	 eax, DWORD PTR [eax+8]
  00037	89 45 e4	 mov	 DWORD PTR _v$[ebp+8], eax
  0003a	8b 45 10	 mov	 eax, DWORD PTR _n$[ebp]
  0003d	8b 08		 mov	 ecx, DWORD PTR [eax]
  0003f	89 4d e8	 mov	 DWORD PTR _v$[ebp+12], ecx
  00042	8b 50 04	 mov	 edx, DWORD PTR [eax+4]
  00045	89 55 ec	 mov	 DWORD PTR _v$[ebp+16], edx
  00048	8b 40 08	 mov	 eax, DWORD PTR [eax+8]
  0004b	89 45 f0	 mov	 DWORD PTR _v$[ebp+20], eax
  0004e	8b 45 14	 mov	 eax, DWORD PTR _tu$[ebp]
  00051	89 45 f4	 mov	 DWORD PTR _v$[ebp+24], eax
  00054	8b 45 18	 mov	 eax, DWORD PTR _tv$[ebp]
  00057	89 45 f8	 mov	 DWORD PTR _v$[ebp+28], eax

; 42   :     return v;

  0005a	b9 08 00 00 00	 mov	 ecx, 8
  0005f	8d 75 dc	 lea	 esi, DWORD PTR _v$[ebp]
  00062	8b 7d 08	 mov	 edi, DWORD PTR ___$ReturnUdt$[ebp]
  00065	f3 a5		 rep movsd
  00067	8b 45 08	 mov	 eax, DWORD PTR ___$ReturnUdt$[ebp]

; 43   : }

  0006a	52		 push	 edx
  0006b	8b cd		 mov	 ecx, ebp
  0006d	50		 push	 eax
  0006e	8d 15 00 00 00
	00		 lea	 edx, DWORD PTR $L80821
  00074	e8 00 00 00 00	 call	 @_RTC_CheckStackVars@8
  00079	58		 pop	 eax
  0007a	5a		 pop	 edx
  0007b	5f		 pop	 edi
  0007c	5e		 pop	 esi
  0007d	5b		 pop	 ebx
  0007e	81 c4 e8 00 00
	00		 add	 esp, 232		; 000000e8H
  00084	3b ec		 cmp	 ebp, esp
  00086	e8 00 00 00 00	 call	 __RTC_CheckEsp
  0008b	8b e5		 mov	 esp, ebp
  0008d	5d		 pop	 ebp
  0008e	c3		 ret	 0
$L80821:
  0008f	01 00 00 00	 DD	 1
  00093	00 00 00 00	 DD	 $L80820
$L80820:
  00097	dc ff ff ff	 DD	 -36			; ffffffdcH
  0009b	20 00 00 00	 DD	 32			; 00000020H
  0009f	00 00 00 00	 DD	 $L80819
$L80819:
  000a3	76		 DB	 118			; 00000076H
  000a4	00		 DB	 0
?InitFont3DVertex@@YA?AUFONT3DVERTEX@@ABUD3DXVECTOR3@@0MM@Z ENDP ; InitFont3DVertex
_TEXT	ENDS
PUBLIC	??0D3DXVECTOR3@@QAE@XZ				; D3DXVECTOR3::D3DXVECTOR3
; Function compile flags: /Odt /RTCsu /ZI
;	COMDAT ??0FONT3DVERTEX@@QAE@XZ
_TEXT	SEGMENT
_this$ = -8
??0FONT3DVERTEX@@QAE@XZ PROC NEAR			; FONT3DVERTEX::FONT3DVERTEX, COMDAT
; _this$ = ecx
  00000	55		 push	 ebp
  00001	8b ec		 mov	 ebp, esp
  00003	81 ec cc 00 00
	00		 sub	 esp, 204		; 000000ccH
  00009	53		 push	 ebx
  0000a	56		 push	 esi
  0000b	57		 push	 edi
  0000c	51		 push	 ecx
  0000d	8d bd 34 ff ff
	ff		 lea	 edi, DWORD PTR [ebp-204]
  00013	b9 33 00 00 00	 mov	 ecx, 51			; 00000033H
  00018	b8 cc cc cc cc	 mov	 eax, -858993460		; ccccccccH
  0001d	f3 ab		 rep stosd
  0001f	59		 pop	 ecx
  00020	89 4d f8	 mov	 DWORD PTR _this$[ebp], ecx
  00023	8b 4d f8	 mov	 ecx, DWORD PTR _this$[ebp]
  00026	e8 00 00 00 00	 call	 ??0D3DXVECTOR3@@QAE@XZ	; D3DXVECTOR3::D3DXVECTOR3
  0002b	8b 4d f8	 mov	 ecx, DWORD PTR _this$[ebp]
  0002e	83 c1 0c	 add	 ecx, 12			; 0000000cH
  00031	e8 00 00 00 00	 call	 ??0D3DXVECTOR3@@QAE@XZ	; D3DXVECTOR3::D3DXVECTOR3
  00036	8b 45 f8	 mov	 eax, DWORD PTR _this$[ebp]
  00039	5f		 pop	 edi
  0003a	5e		 pop	 esi
  0003b	5b		 pop	 ebx
  0003c	81 c4 cc 00 00
	00		 add	 esp, 204		; 000000ccH
  00042	3b ec		 cmp	 ebp, esp
  00044	e8 00 00 00 00	 call	 __RTC_CheckEsp
  00049	8b e5		 mov	 esp, ebp
  0004b	5d		 pop	 ebp
  0004c	c3		 ret	 0
??0FONT3DVERTEX@@QAE@XZ ENDP				; FONT3DVERTEX::FONT3DVERTEX
; Function compile flags: /Odt /RTCsu /ZI
; File c:\dxsdk\include\d3dx8math.h
_TEXT	ENDS
;	COMDAT ??0D3DXVECTOR3@@QAE@XZ
_TEXT	SEGMENT
_this$ = -8
??0D3DXVECTOR3@@QAE@XZ PROC NEAR			; D3DXVECTOR3::D3DXVECTOR3, COMDAT
; _this$ = ecx

; 89   :     D3DXVECTOR3() {};

  00000	55		 push	 ebp
  00001	8b ec		 mov	 ebp, esp
  00003	81 ec cc 00 00
	00		 sub	 esp, 204		; 000000ccH
  00009	53		 push	 ebx
  0000a	56		 push	 esi
  0000b	57		 push	 edi
  0000c	51		 push	 ecx
  0000d	8d bd 34 ff ff
	ff		 lea	 edi, DWORD PTR [ebp-204]
  00013	b9 33 00 00 00	 mov	 ecx, 51			; 00000033H
  00018	b8 cc cc cc cc	 mov	 eax, -858993460		; ccccccccH
  0001d	f3 ab		 rep stosd
  0001f	59		 pop	 ecx
  00020	89 4d f8	 mov	 DWORD PTR _this$[ebp], ecx
  00023	8b 45 f8	 mov	 eax, DWORD PTR _this$[ebp]
  00026	5f		 pop	 edi
  00027	5e		 pop	 esi
  00028	5b		 pop	 ebx
  00029	8b e5		 mov	 esp, ebp
  0002b	5d		 pop	 ebp
  0002c	c3		 ret	 0
??0D3DXVECTOR3@@QAE@XZ ENDP				; D3DXVECTOR3::D3DXVECTOR3
; Function compile flags: /Odt /RTCsu /ZI
; File c:\dxsdk\include\d3dx8math.inl
_TEXT	ENDS
;	COMDAT ??0D3DXVECTOR3@@QAE@MMM@Z
_TEXT	SEGMENT
_this$ = -8
_fx$ = 8
_fy$ = 12
_fz$ = 16
??0D3DXVECTOR3@@QAE@MMM@Z PROC NEAR			; D3DXVECTOR3::D3DXVECTOR3, COMDAT
; _this$ = ecx

; 179  : {

  00000	55		 push	 ebp
  00001	8b ec		 mov	 ebp, esp
  00003	81 ec cc 00 00
	00		 sub	 esp, 204		; 000000ccH
  00009	53		 push	 ebx
  0000a	56		 push	 esi
  0000b	57		 push	 edi
  0000c	51		 push	 ecx
  0000d	8d bd 34 ff ff
	ff		 lea	 edi, DWORD PTR [ebp-204]
  00013	b9 33 00 00 00	 mov	 ecx, 51			; 00000033H
  00018	b8 cc cc cc cc	 mov	 eax, -858993460		; ccccccccH
  0001d	f3 ab		 rep stosd
  0001f	59		 pop	 ecx
  00020	89 4d f8	 mov	 DWORD PTR _this$[ebp], ecx

; 180  :     x = fx;

  00023	8b 45 f8	 mov	 eax, DWORD PTR _this$[ebp]
  00026	8b 4d 08	 mov	 ecx, DWORD PTR _fx$[ebp]
  00029	89 08		 mov	 DWORD PTR [eax], ecx

; 181  :     y = fy;

  0002b	8b 45 f8	 mov	 eax, DWORD PTR _this$[ebp]
  0002e	8b 4d 0c	 mov	 ecx, DWORD PTR _fy$[ebp]
  00031	89 48 04	 mov	 DWORD PTR [eax+4], ecx

; 182  :     z = fz;

  00034	8b 45 f8	 mov	 eax, DWORD PTR _this$[ebp]
  00037	8b 4d 10	 mov	 ecx, DWORD PTR _fz$[ebp]
  0003a	89 48 08	 mov	 DWORD PTR [eax+8], ecx

; 183  : }

  0003d	8b 45 f8	 mov	 eax, DWORD PTR _this$[ebp]
  00040	5f		 pop	 edi
  00041	5e		 pop	 esi
  00042	5b		 pop	 ebx
  00043	8b e5		 mov	 esp, ebp
  00045	5d		 pop	 ebp
  00046	c2 0c 00	 ret	 12			; 0000000cH
??0D3DXVECTOR3@@QAE@MMM@Z ENDP				; D3DXVECTOR3::D3DXVECTOR3
; Function compile flags: /Odt /RTCsu /ZI
_TEXT	ENDS
;	COMDAT ??0D3DXVECTOR4@@QAE@MMMM@Z
_TEXT	SEGMENT
_this$ = -8
_fx$ = 8
_fy$ = 12
_fz$ = 16
_fw$ = 20
??0D3DXVECTOR4@@QAE@MMMM@Z PROC NEAR			; D3DXVECTOR4::D3DXVECTOR4, COMDAT
; _this$ = ecx

; 320  : {

  00000	55		 push	 ebp
  00001	8b ec		 mov	 ebp, esp
  00003	81 ec cc 00 00
	00		 sub	 esp, 204		; 000000ccH
  00009	53		 push	 ebx
  0000a	56		 push	 esi
  0000b	57		 push	 edi
  0000c	51		 push	 ecx
  0000d	8d bd 34 ff ff
	ff		 lea	 edi, DWORD PTR [ebp-204]
  00013	b9 33 00 00 00	 mov	 ecx, 51			; 00000033H
  00018	b8 cc cc cc cc	 mov	 eax, -858993460		; ccccccccH
  0001d	f3 ab		 rep stosd
  0001f	59		 pop	 ecx
  00020	89 4d f8	 mov	 DWORD PTR _this$[ebp], ecx

; 321  :     x = fx;

  00023	8b 45 f8	 mov	 eax, DWORD PTR _this$[ebp]
  00026	8b 4d 08	 mov	 ecx, DWORD PTR _fx$[ebp]
  00029	89 08		 mov	 DWORD PTR [eax], ecx

; 322  :     y = fy;

  0002b	8b 45 f8	 mov	 eax, DWORD PTR _this$[ebp]
  0002e	8b 4d 0c	 mov	 ecx, DWORD PTR _fy$[ebp]
  00031	89 48 04	 mov	 DWORD PTR [eax+4], ecx

; 323  :     z = fz;

  00034	8b 45 f8	 mov	 eax, DWORD PTR _this$[ebp]
  00037	8b 4d 10	 mov	 ecx, DWORD PTR _fz$[ebp]
  0003a	89 48 08	 mov	 DWORD PTR [eax+8], ecx

; 324  :     w = fw;

  0003d	8b 45 f8	 mov	 eax, DWORD PTR _this$[ebp]
  00040	8b 4d 14	 mov	 ecx, DWORD PTR _fw$[ebp]
  00043	89 48 0c	 mov	 DWORD PTR [eax+12], ecx

; 325  : }

  00046	8b 45 f8	 mov	 eax, DWORD PTR _this$[ebp]
  00049	5f		 pop	 edi
  0004a	5e		 pop	 esi
  0004b	5b		 pop	 ebx
  0004c	8b e5		 mov	 esp, ebp
  0004e	5d		 pop	 ebp
  0004f	c2 10 00	 ret	 16			; 00000010H
??0D3DXVECTOR4@@QAE@MMMM@Z ENDP				; D3DXVECTOR4::D3DXVECTOR4
_TEXT	ENDS
END
