; Listing generated by Microsoft (R) Optimizing Compiler Version 13.00.9466 

	TITLE	X7.cpp
	.386P
include listing.inc
if @Version gt 510
.model FLAT
else
_TEXT	SEGMENT PARA USE32 PUBLIC 'CODE'
_TEXT	ENDS
_DATA	SEGMENT DWORD USE32 PUBLIC 'DATA'
_DATA	ENDS
CONST	SEGMENT DWORD USE32 PUBLIC 'CONST'
CONST	ENDS
_BSS	SEGMENT DWORD USE32 PUBLIC 'BSS'
_BSS	ENDS
$$SYMBOLS	SEGMENT BYTE USE32 'DEBSYM'
$$SYMBOLS	ENDS
$$TYPES	SEGMENT BYTE USE32 'DEBTYP'
$$TYPES	ENDS
_TLS	SEGMENT DWORD USE32 PUBLIC 'TLS'
_TLS	ENDS
;	COMDAT ??_C@_0P@DILOLPKO@?$LH?$JH?$JH?$JH?$JF?5?W?$KM?5?$JF?$JH?$JH?$JH?$LH?$AA@
CONST	SEGMENT DWORD USE32 PUBLIC 'CONST'
CONST	ENDS
;	COMDAT ??_C@_0BA@DKEMLFPL@DepthBufMinBits?$AA@
CONST	SEGMENT DWORD USE32 PUBLIC 'CONST'
CONST	ENDS
;	COMDAT ??_C@_08NENJCHMC@WinWidth?$AA@
CONST	SEGMENT DWORD USE32 PUBLIC 'CONST'
CONST	ENDS
;	COMDAT ??_C@_09GCIFNGNF@WinHeight?$AA@
CONST	SEGMENT DWORD USE32 PUBLIC 'CONST'
CONST	ENDS
;	COMDAT ??_C@_04MFOLJCMG@WinX?$AA@
CONST	SEGMENT DWORD USE32 PUBLIC 'CONST'
CONST	ENDS
;	COMDAT ??_C@_04NMPAKDIH@WinY?$AA@
CONST	SEGMENT DWORD USE32 PUBLIC 'CONST'
CONST	ENDS
;	COMDAT ??_C@_05PBPHDBPF@VSync?$AA@
CONST	SEGMENT DWORD USE32 PUBLIC 'CONST'
CONST	ENDS
;	COMDAT ??_C@_04KPOMJMPE@FSAA?$AA@
CONST	SEGMENT DWORD USE32 PUBLIC 'CONST'
CONST	ENDS
;	COMDAT ??_C@_0BA@JLAIPFCC@FullscreenWidth?$AA@
CONST	SEGMENT DWORD USE32 PUBLIC 'CONST'
CONST	ENDS
;	COMDAT ??_C@_0BB@MCMAOFHP@FullscreenHeight?$AA@
CONST	SEGMENT DWORD USE32 PUBLIC 'CONST'
CONST	ENDS
;	COMDAT ??_C@_05KOHFLOFG@Level?$AA@
CONST	SEGMENT DWORD USE32 PUBLIC 'CONST'
CONST	ENDS
;	COMDAT ??_C@_03JKGCGCNJ@God?$AA@
CONST	SEGMENT DWORD USE32 PUBLIC 'CONST'
CONST	ENDS
;	COMDAT ??_C@_0N@HDBIPGGB@PlayerDamage?$AA@
CONST	SEGMENT DWORD USE32 PUBLIC 'CONST'
CONST	ENDS
;	COMDAT ??_C@_0EE@BKJCFEJB@c?3?2documents?5and?5settings?2dom?2my@
CONST	SEGMENT DWORD USE32 PUBLIC 'CONST'
CONST	ENDS
;	COMDAT ??_C@_0O@PJNMEPAE@m_pOverlayMan?$AA@
CONST	SEGMENT DWORD USE32 PUBLIC 'CONST'
CONST	ENDS
;	COMDAT ??_C@_0L@DCMLFMBH@m_pMenuTex?$AA@
CONST	SEGMENT DWORD USE32 PUBLIC 'CONST'
CONST	ENDS
;	COMDAT ??_C@_0M@IMAOCLDF@m_pMainMenu?$AA@
CONST	SEGMENT DWORD USE32 PUBLIC 'CONST'
CONST	ENDS
;	COMDAT ??_C@_0O@NFIIIECE@m_pInGameMenu?$AA@
CONST	SEGMENT DWORD USE32 PUBLIC 'CONST'
CONST	ENDS
;	COMDAT ??_C@_07PDFGPLJL@SoundFX?$AA@
CONST	SEGMENT DWORD USE32 PUBLIC 'CONST'
CONST	ENDS
;	COMDAT ??_C@_0L@KHMMEHJK@SoundMusic?$AA@
CONST	SEGMENT DWORD USE32 PUBLIC 'CONST'
CONST	ENDS
;	COMDAT ??_C@_0BB@GKJEGOEC@?4?4?2resource?2wav2?$AA@
CONST	SEGMENT DWORD USE32 PUBLIC 'CONST'
CONST	ENDS
;	COMDAT ??_C@_09DKMBABDM@MusicPath?$AA@
CONST	SEGMENT DWORD USE32 PUBLIC 'CONST'
CONST	ENDS
;	COMDAT ??_C@_08FKPFDOAB@m_pSound?$AA@
CONST	SEGMENT DWORD USE32 PUBLIC 'CONST'
CONST	ENDS
;	COMDAT ??_C@_0M@KGGAJAJ@Courier?5New?$AA@
CONST	SEGMENT DWORD USE32 PUBLIC 'CONST'
CONST	ENDS
;	COMDAT ??_C@_0N@MCMJAAFH@m_pStatsFont?$AA@
CONST	SEGMENT DWORD USE32 PUBLIC 'CONST'
CONST	ENDS
;	COMDAT ??_C@_0M@PGOBHJFA@Arial?5Black?$AA@
CONST	SEGMENT DWORD USE32 PUBLIC 'CONST'
CONST	ENDS
;	COMDAT ??_C@_0N@MIHPLCGI@m_pTitleFont?$AA@
CONST	SEGMENT DWORD USE32 PUBLIC 'CONST'
CONST	ENDS
;	COMDAT ??_C@_05MPFIAJAP@Arial?$AA@
CONST	SEGMENT DWORD USE32 PUBLIC 'CONST'
CONST	ENDS
;	COMDAT ??_C@_0BA@JNJLEIFH@m_pSubtitleFont?$AA@
CONST	SEGMENT DWORD USE32 PUBLIC 'CONST'
CONST	ENDS
;	COMDAT ??_C@_0P@NLMDHBFL@MouseExclusive?$AA@
CONST	SEGMENT DWORD USE32 PUBLIC 'CONST'
CONST	ENDS
;	COMDAT ??_C@_0M@CNKOLOHB@MouseInvert?$AA@
CONST	SEGMENT DWORD USE32 PUBLIC 'CONST'
CONST	ENDS
;	COMDAT ??_C@_09FNNILOCL@InputSens?$AA@
CONST	SEGMENT DWORD USE32 PUBLIC 'CONST'
CONST	ENDS
;	COMDAT ??_C@_0P@CCPDIAAJ@NonStickyMouse?$AA@
CONST	SEGMENT DWORD USE32 PUBLIC 'CONST'
CONST	ENDS
;	COMDAT ??_C@_0N@HFGNEP@m_pUserInput?$AA@
CONST	SEGMENT DWORD USE32 PUBLIC 'CONST'
CONST	ENDS
;	COMDAT ??_C@_0M@GNFDLDGE@m_pTextures?$AA@
CONST	SEGMENT DWORD USE32 PUBLIC 'CONST'
CONST	ENDS
;	COMDAT ??_C@_0M@EGAMCFJO@m_pTestRace?$AA@
CONST	SEGMENT DWORD USE32 PUBLIC 'CONST'
CONST	ENDS
;	COMDAT ??_C@_0CC@OJDEPIEF@m_pTextures?9?$DORestoreDeviceObject@
CONST	SEGMENT DWORD USE32 PUBLIC 'CONST'
CONST	ENDS
;	COMDAT ??_C@_08OFPOHIDN@hr?$DN?$DNS_OK?$AA@
CONST	SEGMENT DWORD USE32 PUBLIC 'CONST'
CONST	ENDS
;	COMDAT ??_C@_0CC@HAFELBOM@m_pTestRace?9?$DORestoreDeviceObject@
CONST	SEGMENT DWORD USE32 PUBLIC 'CONST'
CONST	ENDS
;	COMDAT ??_C@_09JLCJHCBH@AutoStart?$AA@
CONST	SEGMENT DWORD USE32 PUBLIC 'CONST'
CONST	ENDS
;	COMDAT ??_C@_0L@OOJOFIBJ@Fullscreen?$AA@
CONST	SEGMENT DWORD USE32 PUBLIC 'CONST'
CONST	ENDS
;	COMDAT ??_C@_0BA@JJLOIBMH@FRAMERATE?5ERROR?$AA@
CONST	SEGMENT DWORD USE32 PUBLIC 'CONST'
CONST	ENDS
;	COMDAT ??_C@_0BM@NLFNLAND@Min?5?$DN?5?$CF0?41f?0?5Actual?5?$DN?5?$CF0?49f?$AA@
CONST	SEGMENT DWORD USE32 PUBLIC 'CONST'
CONST	ENDS
;	COMDAT ??_C@_0CL@MEPBKDJD@If?5this?5doesn?8t?5go?5away?0?5then?5pl@
CONST	SEGMENT DWORD USE32 PUBLIC 'CONST'
CONST	ENDS
;	COMDAT ??_C@_08FNJLKAEH@LEVEL?5?$CFd?$AA@
CONST	SEGMENT DWORD USE32 PUBLIC 'CONST'
CONST	ENDS
;	COMDAT ??_C@_06HHKMCLEN@?$CF02?40f?$AA@
CONST	SEGMENT DWORD USE32 PUBLIC 'CONST'
CONST	ENDS
;	COMDAT ??_C@_0P@FBNAFMPM@?$CF01d?3?$CF02d?4?$CFc?$CFc?$AA@
CONST	SEGMENT DWORD USE32 PUBLIC 'CONST'
CONST	ENDS
;	COMDAT ??_C@_0BI@KBOFDKNM@?$CFss?5?1?5?$CFd?5?1?5?$CFd?5?1?5?$CFd?5bots?$AA@
CONST	SEGMENT DWORD USE32 PUBLIC 'CONST'
CONST	ENDS
;	COMDAT ??_C@_0BC@LNLJFNJN@Click?5to?5start?4?4?4?$AA@
CONST	SEGMENT DWORD USE32 PUBLIC 'CONST'
CONST	ENDS
;	COMDAT ??_C@_08PPKINLHH@13?302?344?$AA@
CONST	SEGMENT DWORD USE32 PUBLIC 'CONST'
CONST	ENDS
;	COMDAT ??_C@_0M@BCNHKICP@Jul?520?52002?$AA@
CONST	SEGMENT DWORD USE32 PUBLIC 'CONST'
CONST	ENDS
;	COMDAT ??_C@_0CK@OGILCEPP@Ver?4?5?$CFd?4?$CF02d?5?$CFs?5?9?9?5?$CFs?5Build?5?9?9?5V@
CONST	SEGMENT DWORD USE32 PUBLIC 'CONST'
CONST	ENDS
;	COMDAT ??_C@_0BH@MOMPLKPI@Joystick?3?5?$CFd?5?$FL?$CFs?$FN?5?$FL?$CFs?$FN?$AA@
CONST	SEGMENT DWORD USE32 PUBLIC 'CONST'
CONST	ENDS
;	COMDAT ??_C@_0CF@LDNOCHOK@?5?5?5?5?5?5?5?5?5vEyePt?3?5?$CF0?41f?0?5?$CF0?41f?0?5?$CF@
CONST	SEGMENT DWORD USE32 PUBLIC 'CONST'
CONST	ENDS
;	COMDAT ??_C@_0CF@DGEKGGKN@?5?5?5?5?5?5vLookAtPt?3?5?$CF0?41f?0?5?$CF0?41f?0?5?$CF@
CONST	SEGMENT DWORD USE32 PUBLIC 'CONST'
CONST	ENDS
;	COMDAT ??_C@_0CF@PPGHHDFG@?5m_vOrientation?3?5?$CF0?46f?0?5?$CF0?46f?0?5?$CF@
CONST	SEGMENT DWORD USE32 PUBLIC 'CONST'
CONST	ENDS
;	COMDAT ??_C@_0DM@OMBAONAD@?5?5?5?5?5Terrain?5BV?3?5?$CF0?41f?0?5?$CF0?41f?0?5?$CF@
CONST	SEGMENT DWORD USE32 PUBLIC 'CONST'
CONST	ENDS
;	COMDAT ??_C@_0CB@HHHAIGKL@?5?5?5?5?5?5?5?5?5Camera?3?5?$FL?$CFd?$FN?5MinY?$DN?$CF0?42f@
CONST	SEGMENT DWORD USE32 PUBLIC 'CONST'
CONST	ENDS
;	COMDAT ??_C@_0EC@HDEICIJC@?5?5?5?5?5?5?5?5Terrain?3?5?$CF0?40f?5KB?5?$CI?$CFd?$FL?$CFd@
CONST	SEGMENT DWORD USE32 PUBLIC 'CONST'
CONST	ENDS
;	COMDAT ??_C@_0CL@CFPKKECI@?5?5?5?5?5?5Heightmap?3?5?$CFd?5x?5?$CFd?5?$FL?$CF0?42f?5@
CONST	SEGMENT DWORD USE32 PUBLIC 'CONST'
CONST	ENDS
;	COMDAT ??_C@_0BF@MJBEPPKC@?5Vertices?1Patch?3?5?$CFlu?$AA@
CONST	SEGMENT DWORD USE32 PUBLIC 'CONST'
CONST	ENDS
;	COMDAT ??_C@_0BF@GBLDODFD@?5?5Indices?1Patch?3?5?$CFlu?$AA@
CONST	SEGMENT DWORD USE32 PUBLIC 'CONST'
CONST	ENDS
;	COMDAT ??_C@_0O@DBJGHLHH@?$FLSB?$DN?$CFs?5DB?$DN?$CFs?$FN?$AA@
CONST	SEGMENT DWORD USE32 PUBLIC 'CONST'
CONST	ENDS
;	COMDAT ??_C@_0L@KIFDLFLH@weapon?3?5?$CFd?$AA@
CONST	SEGMENT DWORD USE32 PUBLIC 'CONST'
CONST	ENDS
;	COMDAT ??_C@_03JNOOAHCF@FPS?$AA@
CONST	SEGMENT DWORD USE32 PUBLIC 'CONST'
CONST	ENDS
;	COMDAT ??_C@_0BB@BICHHDPD@?$CF03?40f?5?$CFlu?5?$CF0?41f?$AA@
CONST	SEGMENT DWORD USE32 PUBLIC 'CONST'
CONST	ENDS
;	COMDAT ??_C@_03GEJHJOGM@TC?$CB?$AA@
CONST	SEGMENT DWORD USE32 PUBLIC 'CONST'
CONST	ENDS
;	COMDAT ??_C@_0BB@LCLDOCNK@Multisample?3?5?$CFdx?$AA@
CONST	SEGMENT DWORD USE32 PUBLIC 'CONST'
CONST	ENDS
;	COMDAT ??_C@_0BL@OGMMPGLM@?$CFs?5?9?5PPF?3?5?$CFlu?5?$FL?$CF0?42f?5MT?1s?$FN?$AA@
CONST	SEGMENT DWORD USE32 PUBLIC 'CONST'
CONST	ENDS
;	COMDAT ??_C@_0CA@JAPAKDMH@FPS?3?5?$CF0?40f?5?9?5?$CF0?40f?5?$FLAvg?3?5?$CF0?40f?$FN?$AA@
CONST	SEGMENT DWORD USE32 PUBLIC 'CONST'
CONST	ENDS
;	COMDAT ??_C@_03ICICOMAL@yes?$AA@
CONST	SEGMENT DWORD USE32 PUBLIC 'CONST'
CONST	ENDS
;	COMDAT ??_C@_02KAJCLHKP@no?$AA@
CONST	SEGMENT DWORD USE32 PUBLIC 'CONST'
CONST	ENDS
;	COMDAT ??_C@_0FD@GGBIMOKD@?$FLMaxActiveLights?3?50x?$CFx?$FN?5?$FLDirecti@
CONST	SEGMENT DWORD USE32 PUBLIC 'CONST'
CONST	ENDS
;	COMDAT ??_C@_0EG@FKOMAMOI@?$FLMaxPointSize?3?5?$CF0?41f?$FN?5?$FLBackBuffe@
CONST	SEGMENT DWORD USE32 PUBLIC 'CONST'
CONST	ENDS
;	COMDAT ??_C@_0EI@NFLACNPO@?$FLMaxSimulTex?3?5?$CFd?$FN?5?$FLMaxTexBlendSt@
CONST	SEGMENT DWORD USE32 PUBLIC 'CONST'
CONST	ENDS
;	COMDAT ??_C@_0DO@OKDMGFFA@?$FLMultiSampType?3?5?$CFd?$FN?5?$FLMinFLin?3?5?$CFs@
CONST	SEGMENT DWORD USE32 PUBLIC 'CONST'
CONST	ENDS
;	COMDAT ??_C@_0EA@HFGIOOG@?$FLMaxPrimCount?3?50x?$CFX?$FN?5?$FLMaxVertexI@
CONST	SEGMENT DWORD USE32 PUBLIC 'CONST'
CONST	ENDS
;	COMDAT ??_C@_0CE@CNLCJMNO@?$FLFSAASupport?3?5?$CFd?$FN?5?$FLFSAAEnabled?3?5@
CONST	SEGMENT DWORD USE32 PUBLIC 'CONST'
CONST	ENDS
;	COMDAT ??_C@_08OABBGOCK@AutoGrab?$AA@
CONST	SEGMENT DWORD USE32 PUBLIC 'CONST'
CONST	ENDS
;	COMDAT ??_C@_0BE@KILIOHON@InitDeviceObjects?$CI?$CJ?$AA@
CONST	SEGMENT DWORD USE32 PUBLIC 'CONST'
CONST	ENDS
;	COMDAT ??_C@_0BL@NJPADEBK@Cx7?3?3RestoreDeviceObjects?6?$AA@
CONST	SEGMENT DWORD USE32 PUBLIC 'CONST'
CONST	ENDS
;	COMDAT ??_C@_0BH@LOGCKKMA@RestoreDeviceObjects?$CI?$CJ?$AA@
CONST	SEGMENT DWORD USE32 PUBLIC 'CONST'
CONST	ENDS
;	COMDAT ??_C@_0BK@GFEDDFNA@InvalidateDeviceObjects?$CI?$CJ?$AA@
CONST	SEGMENT DWORD USE32 PUBLIC 'CONST'
CONST	ENDS
;	COMDAT ??_C@_08KGAJFAOA@AvgStats?$AA@
CONST	SEGMENT DWORD USE32 PUBLIC 'CONST'
CONST	ENDS
;	COMDAT ??_C@_0IE@IFKHNBAA@Min?5FPS?3?5?$CF0?42f?6Max?5FPS?3?5?$CF0?42f?6Av@
CONST	SEGMENT DWORD USE32 PUBLIC 'CONST'
CONST	ENDS
;	COMDAT ??_C@_00CNPNBAHC@?$AA@
CONST	SEGMENT DWORD USE32 PUBLIC 'CONST'
CONST	ENDS
;	COMDAT ??_C@_0P@JPHBNPKP@FinalCleanup?$CI?$CJ?$AA@
CONST	SEGMENT DWORD USE32 PUBLIC 'CONST'
CONST	ENDS
;	COMDAT ??_C@_0BG@NJGCNAHE@?5got?5hdrop?$DL?6file?$DN?8?$CFs?8?$AA@
CONST	SEGMENT DWORD USE32 PUBLIC 'CONST'
CONST	ENDS
;	COMDAT ??_C@_0L@KJLEIMLM@D3D_OK?$DN?$DNhr?$AA@
CONST	SEGMENT DWORD USE32 PUBLIC 'CONST'
CONST	ENDS
;	COMDAT ??_C@_09OHLCLMFJ@?4?4?2images?$AA@
CONST	SEGMENT DWORD USE32 PUBLIC 'CONST'
CONST	ENDS
;	COMDAT ??_C@_0BG@GHFKNJHN@?$CFs?2Screenshot_?$CFlu?4BMP?$AA@
CONST	SEGMENT DWORD USE32 PUBLIC 'CONST'
CONST	ENDS
;	COMDAT _IsEqualGUID
_TEXT	SEGMENT PARA USE32 PUBLIC 'CODE'
_TEXT	ENDS
;	COMDAT _==
_TEXT	SEGMENT PARA USE32 PUBLIC 'CODE'
_TEXT	ENDS
;	COMDAT _floorf
_TEXT	SEGMENT PARA USE32 PUBLIC 'CODE'
_TEXT	ENDS
;	COMDAT _fmodf
_TEXT	SEGMENT PARA USE32 PUBLIC 'CODE'
_TEXT	ENDS
;	COMDAT _sqrtf
_TEXT	SEGMENT PARA USE32 PUBLIC 'CODE'
_TEXT	ENDS
;	COMDAT ??0D3DXVECTOR3@@QAE@XZ
_TEXT	SEGMENT PARA USE32 PUBLIC 'CODE'
_TEXT	ENDS
;	COMDAT ??0D3DXMATRIX@@QAE@XZ
_TEXT	SEGMENT PARA USE32 PUBLIC 'CODE'
_TEXT	ENDS
;	COMDAT ??0D3DXQUATERNION@@QAE@XZ
_TEXT	SEGMENT PARA USE32 PUBLIC 'CODE'
_TEXT	ENDS
;	COMDAT ??0D3DXCOLOR@@QAE@XZ
_TEXT	SEGMENT PARA USE32 PUBLIC 'CODE'
_TEXT	ENDS
;	COMDAT ??0D3DXVECTOR2@@QAE@MM@Z
_TEXT	SEGMENT PARA USE32 PUBLIC 'CODE'
_TEXT	ENDS
;	COMDAT ??0D3DXVECTOR3@@QAE@MMM@Z
_TEXT	SEGMENT PARA USE32 PUBLIC 'CODE'
_TEXT	ENDS
;	COMDAT ??0D3DXVECTOR4@@QAE@MMMM@Z
_TEXT	SEGMENT PARA USE32 PUBLIC 'CODE'
_TEXT	ENDS
;	COMDAT ??0D3DXMATRIX@@QAE@PBM@Z
_TEXT	SEGMENT PARA USE32 PUBLIC 'CODE'
_TEXT	ENDS
;	COMDAT ??0D3DXMATRIX@@QAE@ABU_D3DMATRIX@@@Z
_TEXT	SEGMENT PARA USE32 PUBLIC 'CODE'
_TEXT	ENDS
;	COMDAT ??0D3DXMATRIX@@QAE@MMMMMMMMMMMMMMMM@Z
_TEXT	SEGMENT PARA USE32 PUBLIC 'CODE'
_TEXT	ENDS
;	COMDAT ??0D3DXQUATERNION@@QAE@MMMM@Z
_TEXT	SEGMENT PARA USE32 PUBLIC 'CODE'
_TEXT	ENDS
;	COMDAT ??0D3DXPLANE@@QAE@MMMM@Z
_TEXT	SEGMENT PARA USE32 PUBLIC 'CODE'
_TEXT	ENDS
;	COMDAT ??0D3DXCOLOR@@QAE@MMMM@Z
_TEXT	SEGMENT PARA USE32 PUBLIC 'CODE'
_TEXT	ENDS
;	COMDAT ??BD3DXCOLOR@@QBEKXZ
_TEXT	SEGMENT PARA USE32 PUBLIC 'CODE'
_TEXT	ENDS
;	COMDAT ?D3DXMatrixIdentity@@YAPAUD3DXMATRIX@@PAU1@@Z
_TEXT	SEGMENT PARA USE32 PUBLIC 'CODE'
_TEXT	ENDS
;	COMDAT _WinMain@16
_TEXT	SEGMENT PARA USE32 PUBLIC 'CODE'
_TEXT	ENDS
;	COMDAT ??1Cx7@@UAE@XZ
_TEXT	SEGMENT PARA USE32 PUBLIC 'CODE'
_TEXT	ENDS
;	COMDAT ??0Cx7@@QAE@PAVCCmdLineParser@@@Z
_TEXT	SEGMENT PARA USE32 PUBLIC 'CODE'
_TEXT	ENDS
;	COMDAT ??_GCx7@@UAEPAXI@Z
_TEXT	SEGMENT PARA USE32 PUBLIC 'CODE'
_TEXT	ENDS
;	COMDAT ?OneTimeSceneInit@Cx7@@UAEJXZ
_TEXT	SEGMENT PARA USE32 PUBLIC 'CODE'
_TEXT	ENDS
;	COMDAT ?StartGame@Cx7@@QAEXXZ
_TEXT	SEGMENT PARA USE32 PUBLIC 'CODE'
_TEXT	ENDS
;	COMDAT ?StartNextLevel@Cx7@@QAEXXZ
_TEXT	SEGMENT PARA USE32 PUBLIC 'CODE'
_TEXT	ENDS
;	COMDAT ??_GCRace@@QAEPAXI@Z
_TEXT	SEGMENT PARA USE32 PUBLIC 'CODE'
_TEXT	ENDS
;	COMDAT ??_GCTextures@@QAEPAXI@Z
_TEXT	SEGMENT PARA USE32 PUBLIC 'CODE'
_TEXT	ENDS
;	COMDAT ?ThreadProc@Cx7@@UAEKXZ
_TEXT	SEGMENT PARA USE32 PUBLIC 'CODE'
_TEXT	ENDS
;	COMDAT ?GetTimeForLevel@Cx7@@QAEMH@Z
_TEXT	SEGMENT PARA USE32 PUBLIC 'CODE'
_TEXT	ENDS
;	COMDAT ?GetOceanColourForLevel@Cx7@@QAEXHPAUD3DXCOLOR@@@Z
_TEXT	SEGMENT PARA USE32 PUBLIC 'CODE'
_TEXT	ENDS
;	COMDAT ?GetOceanTextureForLevel@Cx7@@QAEHH@Z
_TEXT	SEGMENT PARA USE32 PUBLIC 'CODE'
_TEXT	ENDS
;	COMDAT ?GetLightingAndSkyboxTexturesForLevel@Cx7@@QAE?AW4e_LightingType@@HPAUD3DXCOLOR@@PAH@Z
_TEXT	SEGMENT PARA USE32 PUBLIC 'CODE'
_TEXT	ENDS
;	COMDAT ?GetTerrainTexturesForLevel@Cx7@@QAEXHPAH0@Z
_TEXT	SEGMENT PARA USE32 PUBLIC 'CODE'
_TEXT	ENDS
;	COMDAT ?FrameMove@Cx7@@UAEJXZ
_TEXT	SEGMENT PARA USE32 PUBLIC 'CODE'
_TEXT	ENDS
;	COMDAT ?Render@Cx7@@UAEJXZ
_TEXT	SEGMENT PARA USE32 PUBLIC 'CODE'
_TEXT	ENDS
;	COMDAT ?InitDeviceObjects@Cx7@@UAEJXZ
_TEXT	SEGMENT PARA USE32 PUBLIC 'CODE'
_TEXT	ENDS
;	COMDAT ?RestoreDeviceObjects@Cx7@@UAEJXZ
_TEXT	SEGMENT PARA USE32 PUBLIC 'CODE'
_TEXT	ENDS
;	COMDAT ?InvalidateDeviceObjects@Cx7@@UAEJXZ
_TEXT	SEGMENT PARA USE32 PUBLIC 'CODE'
_TEXT	ENDS
;	COMDAT ?DeleteDeviceObjects@Cx7@@UAEJXZ
_TEXT	SEGMENT PARA USE32 PUBLIC 'CODE'
_TEXT	ENDS
;	COMDAT ?FinalCleanup@Cx7@@UAEJXZ
_TEXT	SEGMENT PARA USE32 PUBLIC 'CODE'
_TEXT	ENDS
;	COMDAT ??_GCScreenOverlayManager@@QAEPAXI@Z
_TEXT	SEGMENT PARA USE32 PUBLIC 'CODE'
_TEXT	ENDS
;	COMDAT ??_GCMainMenu@@QAEPAXI@Z
_TEXT	SEGMENT PARA USE32 PUBLIC 'CODE'
_TEXT	ENDS
;	COMDAT ??_GCInGameMenu@@QAEPAXI@Z
_TEXT	SEGMENT PARA USE32 PUBLIC 'CODE'
_TEXT	ENDS
;	COMDAT ??_GCMenuTextures@@QAEPAXI@Z
_TEXT	SEGMENT PARA USE32 PUBLIC 'CODE'
_TEXT	ENDS
;	COMDAT ??_GCD3DFont@@QAEPAXI@Z
_TEXT	SEGMENT PARA USE32 PUBLIC 'CODE'
_TEXT	ENDS
;	COMDAT ??_GCUserInput@@QAEPAXI@Z
_TEXT	SEGMENT PARA USE32 PUBLIC 'CODE'
_TEXT	ENDS
;	COMDAT ??_GCSoundManager@@QAEPAXI@Z
_TEXT	SEGMENT PARA USE32 PUBLIC 'CODE'
_TEXT	ENDS
;	COMDAT ?MsgProc@Cx7@@UAEJPAUHWND__@@IIJ@Z
_TEXT	SEGMENT PARA USE32 PUBLIC 'CODE'
_TEXT	ENDS
;	COMDAT ?ConfirmDevice@Cx7@@UAEJPAU_D3DCAPS8@@KW4_D3DFORMAT@@@Z
_TEXT	SEGMENT PARA USE32 PUBLIC 'CODE'
_TEXT	ENDS
;	COMDAT ?Screengrab@Cx7@@QAEJXZ
_TEXT	SEGMENT PARA USE32 PUBLIC 'CODE'
_TEXT	ENDS
;	COMDAT ?__LINE__Var@?1??Screengrab@Cx7@@QAEJXZ@4JA
_DATA	SEGMENT DWORD USE32 PUBLIC 'DATA'
_DATA	ENDS
;	COMDAT ?__LINE__Var@?1??RestoreDeviceObjects@Cx7@@UAEJXZ@4JA
_DATA	SEGMENT DWORD USE32 PUBLIC 'DATA'
_DATA	ENDS
;	COMDAT ?__LINE__Var@?1??ThreadProc@Cx7@@UAEKXZ@4JA
_DATA	SEGMENT DWORD USE32 PUBLIC 'DATA'
_DATA	ENDS
;	COMDAT ?__LINE__Var@?1??OneTimeSceneInit@Cx7@@UAEJXZ@4JA
_DATA	SEGMENT DWORD USE32 PUBLIC 'DATA'
_DATA	ENDS
;	COMDAT ??_7Cx7@@6BCThread@@@
CONST	SEGMENT DWORD USE32 PUBLIC 'CONST'
CONST	ENDS
;	COMDAT ??_7Cx7@@6BCD3DApplication@@@
CONST	SEGMENT DWORD USE32 PUBLIC 'CONST'
CONST	ENDS
FLAT	GROUP _DATA, CONST, _BSS
	ASSUME	CS: FLAT, DS: FLAT, SS: FLAT
endif

INCLUDELIB LIBCMTD
INCLUDELIB OLDNAMES

PUBLIC	?g_nAppVerMaj@@3HA				; g_nAppVerMaj
PUBLIC	?g_nAppVerMin@@3HA				; g_nAppVerMin
PUBLIC	?g_szAppRelease@@3PADA				; g_szAppRelease
PUBLIC	?g_szAppBuild@@3PADA				; g_szAppBuild
_BSS	SEGMENT
?g_nAppVerMaj@@3HA DD 01H DUP (?)			; g_nAppVerMaj
?g_nAppVerMin@@3HA DD 01H DUP (?)			; g_nAppVerMin
?fTime@?N@??Render@Cx7@@UAEJXZ@4MA DD 01H DUP (?)	; `Cx7::Render'::`13'::fTime
?nKey@?N@??Render@Cx7@@UAEJXZ@4HA DD 01H DUP (?)	; `Cx7::Render'::`13'::nKey
?fTimeSinceLastScreengrab@?FE@??Render@Cx7@@UAEJXZ@4MA DD 01H DUP (?) ; `Cx7::Render'::`84'::fTimeSinceLastScreengrab
_BSS	ENDS
_DATA	SEGMENT
?g_szAppRelease@@3PADA DB 'Alpha', 00H			; g_szAppRelease
	ORG $+2
?g_szAppBuild@@3PADA DB 'Debug', 00H			; g_szAppBuild
	ORG $+2
?bFirstFrameMove@?CH@??FrameMove@Cx7@@UAEJXZ@4HA DD 01H	; `Cx7::FrameMove'::`39'::bFirstFrameMove
_DATA	ENDS
PUBLIC	?D3DXMatrixIdentity@@YAPAUD3DXMATRIX@@PAU1@@Z	; D3DXMatrixIdentity
PUBLIC	_WinMain@16
PUBLIC	??0Cx7@@QAE@PAVCCmdLineParser@@@Z		; Cx7::Cx7
PUBLIC	??1Cx7@@UAE@XZ					; Cx7::~Cx7
EXTRN	??0CCmdLineParser@@QAE@PAD@Z:NEAR		; CCmdLineParser::CCmdLineParser
EXTRN	??1CCmdLineParser@@QAE@XZ:NEAR			; CCmdLineParser::~CCmdLineParser
EXTRN	__RTC_InitBase:NEAR
EXTRN	__RTC_Shutdown:NEAR
EXTRN	__chkstk:NEAR
EXTRN	___security_cookie:DWORD
EXTRN	@_RTC_CheckStackVars@8:NEAR
EXTRN	@__security_check_cookie@4:NEAR
EXTRN	__RTC_CheckEsp:NEAR
EXTRN	?Create@CD3DApplication@@UAEJPAUHINSTANCE__@@@Z:NEAR ; CD3DApplication::Create
EXTRN	?Run@CD3DApplication@@UAEHXZ:NEAR		; CD3DApplication::Run
EXTRN	?g_matIdent@@3UD3DXMATRIX@@A:BYTE		; g_matIdent
;	COMDAT rtc$IMZ
; File c:\documents and settings\dom\my documents\_dev\ae\xlr8a\x7g\x7.cpp
rtc$IMZ	SEGMENT
__RTC_InitBase.rtc$IMZ DD FLAT:__RTC_InitBase
rtc$IMZ	ENDS
;	COMDAT rtc$TMZ
rtc$TMZ	SEGMENT
__RTC_Shutdown.rtc$TMZ DD FLAT:__RTC_Shutdown
; Function compile flags: /Odt /RTCsu /ZI
rtc$TMZ	ENDS
;	COMDAT _WinMain@16
_TEXT	SEGMENT
$T94498 = -175796
$T94497 = -175784
_r$ = -175580
_d3dApp$ = -175568
_CmdLine$ = -1040
__$ArrayPad$ = -4
__$ReturnAddr$ = 4
_hInst$ = 8
___formal$ = 12
_szCmdLine$ = 16
___formal$ = 20
_WinMain@16 PROC NEAR					; COMDAT

; 282  : 	{

  00000	55		 push	 ebp
  00001	8b ec		 mov	 ebp, esp
  00003	b8 b8 ae 02 00	 mov	 eax, 175800		; 0002aeb8H
  00008	e8 00 00 00 00	 call	 __chkstk
  0000d	53		 push	 ebx
  0000e	56		 push	 esi
  0000f	57		 push	 edi
  00010	8d bd 48 51 fd
	ff		 lea	 edi, DWORD PTR [ebp-175800]
  00016	b9 ae ab 00 00	 mov	 ecx, 43950		; 0000abaeH
  0001b	b8 cc cc cc cc	 mov	 eax, -858993460		; ccccccccH
  00020	f3 ab		 rep stosd
  00022	a1 00 00 00 00	 mov	 eax, DWORD PTR ___security_cookie
  00027	33 45 04	 xor	 eax, DWORD PTR __$ReturnAddr$[ebp]
  0002a	89 45 fc	 mov	 DWORD PTR __$ArrayPad$[ebp], eax

; 283  : 		CCmdLineParser CmdLine( szCmdLine );

  0002d	8b 45 10	 mov	 eax, DWORD PTR _szCmdLine$[ebp]
  00030	50		 push	 eax
  00031	8d 8d f0 fb ff
	ff		 lea	 ecx, DWORD PTR _CmdLine$[ebp]
  00037	e8 00 00 00 00	 call	 ??0CCmdLineParser@@QAE@PAD@Z ; CCmdLineParser::CCmdLineParser

; 284  : 		Cx7 d3dApp( &CmdLine );

  0003c	8d 85 f0 fb ff
	ff		 lea	 eax, DWORD PTR _CmdLine$[ebp]
  00042	50		 push	 eax
  00043	8d 8d 30 52 fd
	ff		 lea	 ecx, DWORD PTR _d3dApp$[ebp]
  00049	e8 00 00 00 00	 call	 ??0Cx7@@QAE@PAVCCmdLineParser@@@Z ; Cx7::Cx7

; 285  : 
; 286  : 		/*short s1 = 1 ;
; 287  : 		D3DXMATRIX mat1 ;
; 288  : 		BYTE b = 2 ;
; 289  : 		D3DXMATRIXA16 mat2;
; 290  : 
; 291  : 		 if (reinterpret_cast<int>(&mat2) & 15)
; 292  : 			 Msg2("******test D3DXMATRIXA16 NOT aligned!!");
; 293  : 		 else
; 294  : 			 Msg2("test D3DXMATRIXA16 IS aligned!!");
; 295  : 
; 296  : 		 if (reinterpret_cast<int>(&mat1) & 15)
; 297  : 			 Msg2("test D3DXMATRIX NOT aligned!!");
; 298  : 		 else
; 299  : 			 Msg2("test D3DXMATRIX IS aligned!!");*/
; 300  : 
; 301  : 		//Msg2( "sizeof(COLOREDVERTEXWITHNORMAL2TEX)=%d\n", (int)sizeof(COLOREDVERTEXWITHNORMAL2TEX) );
; 302  : 		//Msg2( "sizeof(COLOREDVERTEXWITHNORMAL)=%d\n", (int)sizeof(COLOREDVERTEXWITHNORMAL) );
; 303  : 		//Msg2( "sizeof(POINTSPRITEVERTEX)=%d\n", (int)sizeof(POINTSPRITEVERTEX) );
; 304  : 		//Msg2(" %d ", D3DXSphereBoundProbe( &xVec3(0,10,0), 1, &xVec3(0,0,0), &xVec3(0,100.01f,0) ) );
; 305  : 
; 306  : 		/*xVec3 vI1, vI2 ;
; 307  : 		int n ;
; 308  : 		BOOL b ;
; 309  : 		b = SphereLineTest( &xVec3(0,12,0), &xVec3(0,13,0), &xVec3(0,10,0), 1, &n, &vI1, &vI2 );
; 310  : 		Msg2("%d [%d (%0.3f,%0.3f,%0.3f) (%0.3f,%0.3f,%0.3f)]", b, n, vI1.x, vI1.y, vI1.z, vI2.x, vI2.y, vI2.z );*/
; 311  : 
; 312  : 		//Msg2( "sizeof(xVec3)=%d", (int)sizeof(xVec3) );
; 313  : 
; 314  : 		D3DXMatrixIdentity( &g_matIdent );

  0004e	68 00 00 00 00	 push	 OFFSET FLAT:?g_matIdent@@3UD3DXMATRIX@@A ; g_matIdent
  00053	e8 00 00 00 00	 call	 ?D3DXMatrixIdentity@@YAPAUD3DXMATRIX@@PAU1@@Z ; D3DXMatrixIdentity
  00058	83 c4 04	 add	 esp, 4

; 315  : 
; 316  : 		if (FAILED(d3dApp.Create(hInst)))

  0005b	8b 45 08	 mov	 eax, DWORD PTR _hInst$[ebp]
  0005e	50		 push	 eax
  0005f	8d 8d 30 52 fd
	ff		 lea	 ecx, DWORD PTR _d3dApp$[ebp]
  00065	e8 00 00 00 00	 call	 ?Create@CD3DApplication@@UAEJPAUHINSTANCE__@@@Z ; CD3DApplication::Create
  0006a	85 c0		 test	 eax, eax
  0006c	7d 28		 jge	 SHORT $L93682

; 317  : 			return 0 ;

  0006e	c7 85 58 51 fd
	ff 00 00 00 00	 mov	 DWORD PTR $T94497[ebp], 0
  00078	8d 8d f8 f9 ff
	ff		 lea	 ecx, DWORD PTR _d3dApp$[ebp+174024]
  0007e	e8 00 00 00 00	 call	 ??1Cx7@@UAE@XZ
  00083	8d 8d f0 fb ff
	ff		 lea	 ecx, DWORD PTR _CmdLine$[ebp]
  00089	e8 00 00 00 00	 call	 ??1CCmdLineParser@@QAE@XZ ; CCmdLineParser::~CCmdLineParser
  0008e	8b 85 58 51 fd
	ff		 mov	 eax, DWORD PTR $T94497[ebp]
  00094	eb 39		 jmp	 SHORT $L93678
$L93682:

; 318  : 		INT r = d3dApp.Run() ;

  00096	8d 8d 30 52 fd
	ff		 lea	 ecx, DWORD PTR _d3dApp$[ebp]
  0009c	e8 00 00 00 00	 call	 ?Run@CD3DApplication@@UAEHXZ ; CD3DApplication::Run
  000a1	89 85 24 52 fd
	ff		 mov	 DWORD PTR _r$[ebp], eax

; 319  : 		
; 320  : 		return r ;

  000a7	8b 85 24 52 fd
	ff		 mov	 eax, DWORD PTR _r$[ebp]
  000ad	89 85 4c 51 fd
	ff		 mov	 DWORD PTR $T94498[ebp], eax
  000b3	8d 8d f8 f9 ff
	ff		 lea	 ecx, DWORD PTR _d3dApp$[ebp+174024]
  000b9	e8 00 00 00 00	 call	 ??1Cx7@@UAE@XZ
  000be	8d 8d f0 fb ff
	ff		 lea	 ecx, DWORD PTR _CmdLine$[ebp]
  000c4	e8 00 00 00 00	 call	 ??1CCmdLineParser@@QAE@XZ ; CCmdLineParser::~CCmdLineParser
  000c9	8b 85 4c 51 fd
	ff		 mov	 eax, DWORD PTR $T94498[ebp]
$L93678:

; 321  : 	}

  000cf	52		 push	 edx
  000d0	8b cd		 mov	 ecx, ebp
  000d2	50		 push	 eax
  000d3	8d 15 00 00 00
	00		 lea	 edx, DWORD PTR $L94511
  000d9	e8 00 00 00 00	 call	 @_RTC_CheckStackVars@8
  000de	58		 pop	 eax
  000df	5a		 pop	 edx
  000e0	8b 4d fc	 mov	 ecx, DWORD PTR __$ArrayPad$[ebp]
  000e3	33 4d 04	 xor	 ecx, DWORD PTR __$ReturnAddr$[ebp]
  000e6	e8 00 00 00 00	 call	 @__security_check_cookie@4
  000eb	5f		 pop	 edi
  000ec	5e		 pop	 esi
  000ed	5b		 pop	 ebx
  000ee	81 c4 b8 ae 02
	00		 add	 esp, 175800		; 0002aeb8H
  000f4	3b ec		 cmp	 ebp, esp
  000f6	e8 00 00 00 00	 call	 __RTC_CheckEsp
  000fb	8b e5		 mov	 esp, ebp
  000fd	5d		 pop	 ebp
  000fe	c2 10 00	 ret	 16			; 00000010H
$L94511:
  00101	02 00 00 00	 DD	 2
  00105	00 00 00 00	 DD	 $L94510
$L94510:
  00109	f0 fb ff ff	 DD	 -1040			; fffffbf0H
  0010d	04 04 00 00	 DD	 1028			; 00000404H
  00111	00 00 00 00	 DD	 $L94505
  00115	30 52 fd ff	 DD	 -175568			; fffd5230H
  00119	b8 a9 02 00	 DD	 174520			; 0002a9b8H
  0011d	00 00 00 00	 DD	 $L94506
$L94506:
  00121	64		 DB	 100			; 00000064H
  00122	33		 DB	 51			; 00000033H
  00123	64		 DB	 100			; 00000064H
  00124	41		 DB	 65			; 00000041H
  00125	70		 DB	 112			; 00000070H
  00126	70		 DB	 112			; 00000070H
  00127	00		 DB	 0
$L94505:
  00128	43		 DB	 67			; 00000043H
  00129	6d		 DB	 109			; 0000006dH
  0012a	64		 DB	 100			; 00000064H
  0012b	4c		 DB	 76			; 0000004cH
  0012c	69		 DB	 105			; 00000069H
  0012d	6e		 DB	 110			; 0000006eH
  0012e	65		 DB	 101			; 00000065H
  0012f	00		 DB	 0
_WinMain@16 ENDP
_TEXT	ENDS
EXTRN	??1CThread@@UAE@XZ:NEAR				; CThread::~CThread
; Function compile flags: /Odt /RTCsu /ZI
;	COMDAT ??1Cx7@@UAE@XZ
_TEXT	SEGMENT
tv68 = -208
_this$ = -8
??1Cx7@@UAE@XZ PROC NEAR				; Cx7::~Cx7, COMDAT
; _this$ = ecx
  00000	55		 push	 ebp
  00001	8b ec		 mov	 ebp, esp
  00003	81 ec d0 00 00
	00		 sub	 esp, 208		; 000000d0H
  00009	53		 push	 ebx
  0000a	56		 push	 esi
  0000b	57		 push	 edi
  0000c	51		 push	 ecx
  0000d	8d bd 30 ff ff
	ff		 lea	 edi, DWORD PTR [ebp-208]
  00013	b9 34 00 00 00	 mov	 ecx, 52			; 00000034H
  00018	b8 cc cc cc cc	 mov	 eax, -858993460		; ccccccccH
  0001d	f3 ab		 rep stosd
  0001f	59		 pop	 ecx
  00020	89 4d f8	 mov	 DWORD PTR _this$[ebp], ecx
  00023	8b 45 f8	 mov	 eax, DWORD PTR _this$[ebp]
  00026	2d c8 a7 02 00	 sub	 eax, 174024		; 0002a7c8H
  0002b	85 c0		 test	 eax, eax
  0002d	74 0b		 je	 SHORT $L94519
  0002f	8b 4d f8	 mov	 ecx, DWORD PTR _this$[ebp]
  00032	89 8d 30 ff ff
	ff		 mov	 DWORD PTR tv68[ebp], ecx
  00038	eb 0a		 jmp	 SHORT $L94520
$L94519:
  0003a	c7 85 30 ff ff
	ff 00 00 00 00	 mov	 DWORD PTR tv68[ebp], 0
$L94520:
  00044	8b 8d 30 ff ff
	ff		 mov	 ecx, DWORD PTR tv68[ebp]
  0004a	e8 00 00 00 00	 call	 ??1CThread@@UAE@XZ	; CThread::~CThread
  0004f	5f		 pop	 edi
  00050	5e		 pop	 esi
  00051	5b		 pop	 ebx
  00052	81 c4 d0 00 00
	00		 add	 esp, 208		; 000000d0H
  00058	3b ec		 cmp	 ebp, esp
  0005a	e8 00 00 00 00	 call	 __RTC_CheckEsp
  0005f	8b e5		 mov	 esp, ebp
  00061	5d		 pop	 ebp
  00062	c3		 ret	 0
??1Cx7@@UAE@XZ ENDP					; Cx7::~Cx7
_TEXT	ENDS
PUBLIC	?OneTimeSceneInit@Cx7@@UAEJXZ			; Cx7::OneTimeSceneInit
PUBLIC	?InitDeviceObjects@Cx7@@UAEJXZ			; Cx7::InitDeviceObjects
PUBLIC	?RestoreDeviceObjects@Cx7@@UAEJXZ		; Cx7::RestoreDeviceObjects
PUBLIC	?InvalidateDeviceObjects@Cx7@@UAEJXZ		; Cx7::InvalidateDeviceObjects
PUBLIC	?DeleteDeviceObjects@Cx7@@UAEJXZ		; Cx7::DeleteDeviceObjects
PUBLIC	?Render@Cx7@@UAEJXZ				; Cx7::Render
PUBLIC	?FrameMove@Cx7@@UAEJXZ				; Cx7::FrameMove
PUBLIC	?ConfirmDevice@Cx7@@UAEJPAU_D3DCAPS8@@KW4_D3DFORMAT@@@Z ; Cx7::ConfirmDevice
PUBLIC	?FinalCleanup@Cx7@@UAEJXZ			; Cx7::FinalCleanup
PUBLIC	?MsgProc@Cx7@@UAEJPAUHWND__@@IIJ@Z		; Cx7::MsgProc
PUBLIC	?ThreadProc@Cx7@@UAEKXZ				; Cx7::ThreadProc
PUBLIC	??_7Cx7@@6BCD3DApplication@@@			; Cx7::`vftable'
PUBLIC	??_7Cx7@@6BCThread@@@				; Cx7::`vftable'
PUBLIC	??_GCx7@@UAEPAXI@Z				; Cx7::`scalar deleting destructor'
PUBLIC	??_C@_0P@DILOLPKO@?$LH?$JH?$JH?$JH?$JF?5?W?$KM?5?$JF?$JH?$JH?$JH?$LH?$AA@ ; `string'
PUBLIC	??_C@_0BA@DKEMLFPL@DepthBufMinBits?$AA@		; `string'
PUBLIC	??_C@_08NENJCHMC@WinWidth?$AA@			; `string'
PUBLIC	??_C@_09GCIFNGNF@WinHeight?$AA@			; `string'
PUBLIC	??_C@_04MFOLJCMG@WinX?$AA@			; `string'
PUBLIC	??_C@_04NMPAKDIH@WinY?$AA@			; `string'
PUBLIC	??_C@_05PBPHDBPF@VSync?$AA@			; `string'
PUBLIC	??_C@_04KPOMJMPE@FSAA?$AA@			; `string'
PUBLIC	??_C@_0BA@JLAIPFCC@FullscreenWidth?$AA@		; `string'
PUBLIC	??_C@_0BB@MCMAOFHP@FullscreenHeight?$AA@	; `string'
PUBLIC	??_C@_05KOHFLOFG@Level?$AA@			; `string'
PUBLIC	??_C@_03JKGCGCNJ@God?$AA@			; `string'
PUBLIC	??_C@_0N@HDBIPGGB@PlayerDamage?$AA@		; `string'
PUBLIC	??0D3DXMATRIX@@QAE@XZ				; D3DXMATRIX::D3DXMATRIX
EXTRN	?GetInt@CCmdLineParser@@QAEHPADH@Z:NEAR		; CCmdLineParser::GetInt
EXTRN	?GetDWord@CCmdLineParser@@QAEKPADK@Z:NEAR	; CCmdLineParser::GetDWord
EXTRN	_time:NEAR
EXTRN	__fltused:NEAR
EXTRN	?AdjustWindowForChange@CD3DApplication@@MAEJXZ:NEAR ; CD3DApplication::AdjustWindowForChange
EXTRN	?Pause@CD3DApplication@@UAEXH@Z:NEAR		; CD3DApplication::Pause
EXTRN	??0CD3DApplication@@QAE@XZ:NEAR			; CD3DApplication::CD3DApplication
EXTRN	_srand:NEAR
EXTRN	??_ECx7@@UAEPAXI@Z:NEAR				; Cx7::`vector deleting destructor'
EXTRN	??0CThread@@QAE@XZ:NEAR				; CThread::CThread
;	COMDAT ??_7Cx7@@6BCD3DApplication@@@
CONST	SEGMENT
??_7Cx7@@6BCD3DApplication@@@ DD FLAT:?AdjustWindowForChange@CD3DApplication@@MAEJXZ ; Cx7::`vftable'
	DD	FLAT:?ConfirmDevice@Cx7@@UAEJPAU_D3DCAPS8@@KW4_D3DFORMAT@@@Z
	DD	FLAT:?OneTimeSceneInit@Cx7@@UAEJXZ
	DD	FLAT:?InitDeviceObjects@Cx7@@UAEJXZ
	DD	FLAT:?RestoreDeviceObjects@Cx7@@UAEJXZ
	DD	FLAT:?FrameMove@Cx7@@UAEJXZ
	DD	FLAT:?Render@Cx7@@UAEJXZ
	DD	FLAT:?InvalidateDeviceObjects@Cx7@@UAEJXZ
	DD	FLAT:?DeleteDeviceObjects@Cx7@@UAEJXZ
	DD	FLAT:?FinalCleanup@Cx7@@UAEJXZ
	DD	FLAT:?Create@CD3DApplication@@UAEJPAUHINSTANCE__@@@Z
	DD	FLAT:?Run@CD3DApplication@@UAEHXZ
	DD	FLAT:?MsgProc@Cx7@@UAEJPAUHWND__@@IIJ@Z
	DD	FLAT:?Pause@CD3DApplication@@UAEXH@Z
CONST	ENDS
;	COMDAT ??_7Cx7@@6BCThread@@@
CONST	SEGMENT
??_7Cx7@@6BCThread@@@ DD FLAT:??_ECx7@@UAEPAXI@Z	; Cx7::`vftable'
	DD	FLAT:?ThreadProc@Cx7@@UAEKXZ
CONST	ENDS
;	COMDAT ??_C@_0P@DILOLPKO@?$LH?$JH?$JH?$JH?$JF?5?W?$KM?5?$JF?$JH?$JH?$JH?$LH?$AA@
CONST	SEGMENT
??_C@_0P@DILOLPKO@?$LH?$JH?$JH?$JH?$JF?5?W?$KM?5?$JF?$JH?$JH?$JH?$LH?$AA@ DB 0b7H
	DB	097H, 097H, 097H, 095H, ' ', 0d7H, 0acH, ' ', 095H, 097H, 097H
	DB	097H, 0b7H, 00H				; `string'
CONST	ENDS
;	COMDAT ??_C@_0BA@DKEMLFPL@DepthBufMinBits?$AA@
CONST	SEGMENT
??_C@_0BA@DKEMLFPL@DepthBufMinBits?$AA@ DB 'DepthBufMinBits', 00H ; `string'
CONST	ENDS
;	COMDAT ??_C@_08NENJCHMC@WinWidth?$AA@
CONST	SEGMENT
??_C@_08NENJCHMC@WinWidth?$AA@ DB 'WinWidth', 00H	; `string'
CONST	ENDS
;	COMDAT ??_C@_09GCIFNGNF@WinHeight?$AA@
CONST	SEGMENT
??_C@_09GCIFNGNF@WinHeight?$AA@ DB 'WinHeight', 00H	; `string'
CONST	ENDS
;	COMDAT ??_C@_04MFOLJCMG@WinX?$AA@
CONST	SEGMENT
??_C@_04MFOLJCMG@WinX?$AA@ DB 'WinX', 00H		; `string'
CONST	ENDS
;	COMDAT ??_C@_04NMPAKDIH@WinY?$AA@
CONST	SEGMENT
??_C@_04NMPAKDIH@WinY?$AA@ DB 'WinY', 00H		; `string'
CONST	ENDS
;	COMDAT ??_C@_05PBPHDBPF@VSync?$AA@
CONST	SEGMENT
??_C@_05PBPHDBPF@VSync?$AA@ DB 'VSync', 00H		; `string'
CONST	ENDS
;	COMDAT ??_C@_04KPOMJMPE@FSAA?$AA@
CONST	SEGMENT
??_C@_04KPOMJMPE@FSAA?$AA@ DB 'FSAA', 00H		; `string'
CONST	ENDS
;	COMDAT ??_C@_0BA@JLAIPFCC@FullscreenWidth?$AA@
CONST	SEGMENT
??_C@_0BA@JLAIPFCC@FullscreenWidth?$AA@ DB 'FullscreenWidth', 00H ; `string'
CONST	ENDS
;	COMDAT ??_C@_0BB@MCMAOFHP@FullscreenHeight?$AA@
CONST	SEGMENT
??_C@_0BB@MCMAOFHP@FullscreenHeight?$AA@ DB 'FullscreenHeight', 00H ; `string'
CONST	ENDS
;	COMDAT ??_C@_05KOHFLOFG@Level?$AA@
CONST	SEGMENT
??_C@_05KOHFLOFG@Level?$AA@ DB 'Level', 00H		; `string'
CONST	ENDS
;	COMDAT ??_C@_03JKGCGCNJ@God?$AA@
CONST	SEGMENT
??_C@_03JKGCGCNJ@God?$AA@ DB 'God', 00H			; `string'
CONST	ENDS
;	COMDAT ??_C@_0N@HDBIPGGB@PlayerDamage?$AA@
CONST	SEGMENT
??_C@_0N@HDBIPGGB@PlayerDamage?$AA@ DB 'PlayerDamage', 00H ; `string'
; Function compile flags: /Odt /RTCsu /ZI
CONST	ENDS
;	COMDAT ??0Cx7@@QAE@PAVCCmdLineParser@@@Z
_TEXT	SEGMENT
_this$ = -8
_pCmdLine$ = 8
??0Cx7@@QAE@PAVCCmdLineParser@@@Z PROC NEAR		; Cx7::Cx7, COMDAT
; _this$ = ecx

; 331  : 	{

  00000	55		 push	 ebp
  00001	8b ec		 mov	 ebp, esp
  00003	81 ec cc 00 00
	00		 sub	 esp, 204		; 000000ccH
  00009	53		 push	 ebx
  0000a	56		 push	 esi
  0000b	57		 push	 edi
  0000c	51		 push	 ecx
  0000d	8d bd 34 ff ff
	ff		 lea	 edi, DWORD PTR [ebp-204]
  00013	b9 33 00 00 00	 mov	 ecx, 51			; 00000033H
  00018	b8 cc cc cc cc	 mov	 eax, -858993460		; ccccccccH
  0001d	f3 ab		 rep stosd
  0001f	59		 pop	 ecx
  00020	89 4d f8	 mov	 DWORD PTR _this$[ebp], ecx
  00023	8b 4d f8	 mov	 ecx, DWORD PTR _this$[ebp]
  00026	e8 00 00 00 00	 call	 ??0CD3DApplication@@QAE@XZ ; CD3DApplication::CD3DApplication
  0002b	8b 4d f8	 mov	 ecx, DWORD PTR _this$[ebp]
  0002e	81 c1 c8 a7 02
	00		 add	 ecx, 174024		; 0002a7c8H
  00034	e8 00 00 00 00	 call	 ??0CThread@@QAE@XZ	; CThread::CThread
  00039	8b 45 f8	 mov	 eax, DWORD PTR _this$[ebp]
  0003c	c7 00 00 00 00
	00		 mov	 DWORD PTR [eax], OFFSET FLAT:??_7Cx7@@6BCD3DApplication@@@
  00042	8b 45 f8	 mov	 eax, DWORD PTR _this$[ebp]
  00045	c7 80 c8 a7 02
	00 00 00 00 00	 mov	 DWORD PTR [eax+174024], OFFSET FLAT:??_7Cx7@@6BCThread@@@
  0004f	8b 4d f8	 mov	 ecx, DWORD PTR _this$[ebp]
  00052	81 c1 54 a9 02
	00		 add	 ecx, 174420		; 0002a954H
  00058	e8 00 00 00 00	 call	 ??0D3DXMATRIX@@QAE@XZ	; D3DXMATRIX::D3DXMATRIX

; 332  : 	    srand( (unsigned)time( NULL ) << 16 );

  0005d	6a 00		 push	 0
  0005f	e8 00 00 00 00	 call	 _time
  00064	83 c4 04	 add	 esp, 4
  00067	c1 e0 10	 shl	 eax, 16			; 00000010H
  0006a	50		 push	 eax
  0006b	e8 00 00 00 00	 call	 _srand
  00070	83 c4 04	 add	 esp, 4

; 333  : 
; 334  : 
; 335  : 	//
; 336  : 	// Misc. Initializations:
; 337  : 	//
; 338  : //#ifndef _DEBUG
; 339  : //		SetPriorityClass(GetCurrentProcess(), HIGH_PRIORITY_CLASS) ;
; 340  : //#endif
; 341  : 
; 342  : 	//
; 343  : 	// Cmd-line:
; 344  : 	//
; 345  : 		m_pCmdLine = pCmdLine ;

  00073	8b 45 f8	 mov	 eax, DWORD PTR _this$[ebp]
  00076	8b 4d 08	 mov	 ecx, DWORD PTR _pCmdLine$[ebp]
  00079	89 88 d4 a8 02
	00		 mov	 DWORD PTR [eax+174292], ecx

; 346  : 
; 347  : 	//
; 348  : 	// D3DFrame Member Overrides:
; 349  : 	// 
; 350  : 		m_strWindowTitle    = _T("·———• ×¬ •———·") ;  //ë??? .ø.ÐÆ ™²æ •—·øØ©øø1——Æ™——Ø¹·®®°·©ØØ1—æ™--×¬--

  0007f	8b 45 f8	 mov	 eax, DWORD PTR _this$[ebp]
  00082	c7 80 84 a6 02
	00 00 00 00 00	 mov	 DWORD PTR [eax+173700], OFFSET FLAT:??_C@_0P@DILOLPKO@?$LH?$JH?$JH?$JH?$JF?5?W?$KM?5?$JF?$JH?$JH?$JH?$LH?$AA@

; 351  : 		m_bUseDepthBuffer   = TRUE ;

  0008c	8b 45 f8	 mov	 eax, DWORD PTR _this$[ebp]
  0008f	c7 80 88 a6 02
	00 01 00 00 00	 mov	 DWORD PTR [eax+173704], 1

; 352  : 		m_dwMinDepthBits	= m_pCmdLine->GetInt( "DepthBufMinBits", 24 );

  00099	6a 18		 push	 24			; 00000018H
  0009b	68 00 00 00 00	 push	 OFFSET FLAT:??_C@_0BA@DKEMLFPL@DepthBufMinBits?$AA@
  000a0	8b 45 f8	 mov	 eax, DWORD PTR _this$[ebp]
  000a3	8b 88 d4 a8 02
	00		 mov	 ecx, DWORD PTR [eax+174292]
  000a9	e8 00 00 00 00	 call	 ?GetInt@CCmdLineParser@@QAEHPADH@Z ; CCmdLineParser::GetInt
  000ae	8b 4d f8	 mov	 ecx, DWORD PTR _this$[ebp]
  000b1	89 81 8c a6 02
	00		 mov	 DWORD PTR [ecx+173708], eax

; 353  : 		m_dwCreationWidth   = m_pCmdLine->GetInt( "WinWidth", 400  );

  000b7	68 90 01 00 00	 push	 400			; 00000190H
  000bc	68 00 00 00 00	 push	 OFFSET FLAT:??_C@_08NENJCHMC@WinWidth?$AA@
  000c1	8b 45 f8	 mov	 eax, DWORD PTR _this$[ebp]
  000c4	8b 88 d4 a8 02
	00		 mov	 ecx, DWORD PTR [eax+174292]
  000ca	e8 00 00 00 00	 call	 ?GetInt@CCmdLineParser@@QAEHPADH@Z ; CCmdLineParser::GetInt
  000cf	8b 4d f8	 mov	 ecx, DWORD PTR _this$[ebp]
  000d2	89 81 94 a6 02
	00		 mov	 DWORD PTR [ecx+173716], eax

; 354  : 		m_dwCreationHeight  = m_pCmdLine->GetInt( "WinHeight", 300 );

  000d8	68 2c 01 00 00	 push	 300			; 0000012cH
  000dd	68 00 00 00 00	 push	 OFFSET FLAT:??_C@_09GCIFNGNF@WinHeight?$AA@
  000e2	8b 45 f8	 mov	 eax, DWORD PTR _this$[ebp]
  000e5	8b 88 d4 a8 02
	00		 mov	 ecx, DWORD PTR [eax+174292]
  000eb	e8 00 00 00 00	 call	 ?GetInt@CCmdLineParser@@QAEHPADH@Z ; CCmdLineParser::GetInt
  000f0	8b 4d f8	 mov	 ecx, DWORD PTR _this$[ebp]
  000f3	89 81 98 a6 02
	00		 mov	 DWORD PTR [ecx+173720], eax

; 355  : 		m_dwCreationX		= m_pCmdLine->GetDWord( "WinX", CW_USEDEFAULT );

  000f9	68 00 00 00 80	 push	 -2147483648		; 80000000H
  000fe	68 00 00 00 00	 push	 OFFSET FLAT:??_C@_04MFOLJCMG@WinX?$AA@
  00103	8b 45 f8	 mov	 eax, DWORD PTR _this$[ebp]
  00106	8b 88 d4 a8 02
	00		 mov	 ecx, DWORD PTR [eax+174292]
  0010c	e8 00 00 00 00	 call	 ?GetDWord@CCmdLineParser@@QAEKPADK@Z ; CCmdLineParser::GetDWord
  00111	8b 4d f8	 mov	 ecx, DWORD PTR _this$[ebp]
  00114	89 81 b8 a7 02
	00		 mov	 DWORD PTR [ecx+174008], eax

; 356  : 		m_dwCreationY		= m_pCmdLine->GetDWord( "WinY", CW_USEDEFAULT );

  0011a	68 00 00 00 80	 push	 -2147483648		; 80000000H
  0011f	68 00 00 00 00	 push	 OFFSET FLAT:??_C@_04NMPAKDIH@WinY?$AA@
  00124	8b 45 f8	 mov	 eax, DWORD PTR _this$[ebp]
  00127	8b 88 d4 a8 02
	00		 mov	 ecx, DWORD PTR [eax+174292]
  0012d	e8 00 00 00 00	 call	 ?GetDWord@CCmdLineParser@@QAEKPADK@Z ; CCmdLineParser::GetDWord
  00132	8b 4d f8	 mov	 ecx, DWORD PTR _this$[ebp]
  00135	89 81 bc a7 02
	00		 mov	 DWORD PTR [ecx+174012], eax

; 357  : 		m_bVSync			= m_pCmdLine->GetInt( "VSync", 0 );

  0013b	6a 00		 push	 0
  0013d	68 00 00 00 00	 push	 OFFSET FLAT:??_C@_05PBPHDBPF@VSync?$AA@
  00142	8b 45 f8	 mov	 eax, DWORD PTR _this$[ebp]
  00145	8b 88 d4 a8 02
	00		 mov	 ecx, DWORD PTR [eax+174292]
  0014b	e8 00 00 00 00	 call	 ?GetInt@CCmdLineParser@@QAEHPADH@Z ; CCmdLineParser::GetInt
  00150	8b 4d f8	 mov	 ecx, DWORD PTR _this$[ebp]
  00153	89 81 a4 a6 02
	00		 mov	 DWORD PTR [ecx+173732], eax

; 358  : 		m_nFSAA				= m_pCmdLine->GetInt( "FSAA", 0 );

  00159	6a 00		 push	 0
  0015b	68 00 00 00 00	 push	 OFFSET FLAT:??_C@_04KPOMJMPE@FSAA?$AA@
  00160	8b 45 f8	 mov	 eax, DWORD PTR _this$[ebp]
  00163	8b 88 d4 a8 02
	00		 mov	 ecx, DWORD PTR [eax+174292]
  00169	e8 00 00 00 00	 call	 ?GetInt@CCmdLineParser@@QAEHPADH@Z ; CCmdLineParser::GetInt
  0016e	8b 4d f8	 mov	 ecx, DWORD PTR _this$[ebp]
  00171	89 81 a8 a6 02
	00		 mov	 DWORD PTR [ecx+173736], eax

; 359  : 		m_nFullScreenWidth  = m_pCmdLine->GetInt( "FullscreenWidth", 640 );

  00177	68 80 02 00 00	 push	 640			; 00000280H
  0017c	68 00 00 00 00	 push	 OFFSET FLAT:??_C@_0BA@JLAIPFCC@FullscreenWidth?$AA@
  00181	8b 45 f8	 mov	 eax, DWORD PTR _this$[ebp]
  00184	8b 88 d4 a8 02
	00		 mov	 ecx, DWORD PTR [eax+174292]
  0018a	e8 00 00 00 00	 call	 ?GetInt@CCmdLineParser@@QAEHPADH@Z ; CCmdLineParser::GetInt
  0018f	8b 4d f8	 mov	 ecx, DWORD PTR _this$[ebp]
  00192	89 81 ac a6 02
	00		 mov	 DWORD PTR [ecx+173740], eax

; 360  : 		m_nFullScreenHeight = m_pCmdLine->GetInt( "FullscreenHeight", 480 );

  00198	68 e0 01 00 00	 push	 480			; 000001e0H
  0019d	68 00 00 00 00	 push	 OFFSET FLAT:??_C@_0BB@MCMAOFHP@FullscreenHeight?$AA@
  001a2	8b 45 f8	 mov	 eax, DWORD PTR _this$[ebp]
  001a5	8b 88 d4 a8 02
	00		 mov	 ecx, DWORD PTR [eax+174292]
  001ab	e8 00 00 00 00	 call	 ?GetInt@CCmdLineParser@@QAEHPADH@Z ; CCmdLineParser::GetInt
  001b0	8b 4d f8	 mov	 ecx, DWORD PTR _this$[ebp]
  001b3	89 81 b0 a6 02
	00		 mov	 DWORD PTR [ecx+173744], eax

; 361  : 
; 362  : 	//
; 363  : 	// Application State:
; 364  : 	//
; 365  : 		m_bLoadingGame = false ;

  001b9	8b 45 f8	 mov	 eax, DWORD PTR _this$[ebp]
  001bc	c6 80 d9 a7 02
	00 00		 mov	 BYTE PTR [eax+174041], 0

; 366  : 		m_bWaitingToStartGame = false ;

  001c3	8b 45 f8	 mov	 eax, DWORD PTR _this$[ebp]
  001c6	c6 80 da a7 02
	00 00		 mov	 BYTE PTR [eax+174042], 0

; 367  : 		m_bInGame = false ;

  001cd	8b 45 f8	 mov	 eax, DWORD PTR _this$[ebp]
  001d0	c6 80 db a7 02
	00 00		 mov	 BYTE PTR [eax+174043], 0

; 368  : 		m_bGamePaused = false ;

  001d7	8b 45 f8	 mov	 eax, DWORD PTR _this$[ebp]
  001da	c6 80 dc a7 02
	00 00		 mov	 BYTE PTR [eax+174044], 0

; 369  : 		m_bInMainMenu = false ;

  001e1	8b 45 f8	 mov	 eax, DWORD PTR _this$[ebp]
  001e4	c6 80 d8 a7 02
	00 00		 mov	 BYTE PTR [eax+174040], 0

; 370  : 		m_bAppMustExit = false ;

  001eb	8b 45 f8	 mov	 eax, DWORD PTR _this$[ebp]
  001ee	c6 80 dd a7 02
	00 00		 mov	 BYTE PTR [eax+174045], 0

; 371  : 		m_bInLevelTransition = false ;

  001f5	8b 45 f8	 mov	 eax, DWORD PTR _this$[ebp]
  001f8	c6 80 de a7 02
	00 00		 mov	 BYTE PTR [eax+174046], 0

; 372  : 		m_bPlayerJustLost = false ;

  001ff	8b 45 f8	 mov	 eax, DWORD PTR _this$[ebp]
  00202	c6 80 df a7 02
	00 00		 mov	 BYTE PTR [eax+174047], 0

; 373  : 		m_bRaceCreated = false ;

  00209	8b 45 f8	 mov	 eax, DWORD PTR _this$[ebp]
  0020c	c6 80 e0 a7 02
	00 00		 mov	 BYTE PTR [eax+174048], 0

; 374  : 
; 375  : 
; 376  : 		m_szLoadingGameStatus[0] = '\x0' ;

  00213	8b 45 f8	 mov	 eax, DWORD PTR _this$[ebp]
  00216	c6 80 e1 a7 02
	00 00		 mov	 BYTE PTR [eax+174049], 0

; 377  : 		m_szLoadingGameInfo1[0] = '\x0' ;

  0021d	8b 45 f8	 mov	 eax, DWORD PTR _this$[ebp]
  00220	c6 80 31 a8 02
	00 00		 mov	 BYTE PTR [eax+174129], 0

; 378  : 		m_szLoadingGameInfo2[0] = '\x0' ;

  00227	8b 45 f8	 mov	 eax, DWORD PTR _this$[ebp]
  0022a	c6 80 81 a8 02
	00 00		 mov	 BYTE PTR [eax+174209], 0

; 379  : 		
; 380  : 	//
; 381  : 	// Object Instances:
; 382  : 	//
; 383  : 		m_pMenuTex = NULL ;

  00231	8b 45 f8	 mov	 eax, DWORD PTR _this$[ebp]
  00234	c7 80 dc a8 02
	00 00 00 00 00	 mov	 DWORD PTR [eax+174300], 0

; 384  : 		m_pOverlayMan = NULL ;

  0023e	8b 45 f8	 mov	 eax, DWORD PTR _this$[ebp]
  00241	c7 80 d8 a8 02
	00 00 00 00 00	 mov	 DWORD PTR [eax+174296], 0

; 385  : 		m_pTestRace = NULL ;

  0024b	8b 45 f8	 mov	 eax, DWORD PTR _this$[ebp]
  0024e	c7 80 ec a8 02
	00 00 00 00 00	 mov	 DWORD PTR [eax+174316], 0

; 386  : 		m_pTextures = NULL ;

  00258	8b 45 f8	 mov	 eax, DWORD PTR _this$[ebp]
  0025b	c7 80 e8 a8 02
	00 00 00 00 00	 mov	 DWORD PTR [eax+174312], 0

; 387  : 		m_pStatsFont = NULL ;

  00265	8b 45 f8	 mov	 eax, DWORD PTR _this$[ebp]
  00268	c7 80 f0 a8 02
	00 00 00 00 00	 mov	 DWORD PTR [eax+174320], 0

; 388  : 		m_pTitleFont = NULL ;

  00272	8b 45 f8	 mov	 eax, DWORD PTR _this$[ebp]
  00275	c7 80 f4 a8 02
	00 00 00 00 00	 mov	 DWORD PTR [eax+174324], 0

; 389  : 		m_pSubtitleFont = NULL ;

  0027f	8b 45 f8	 mov	 eax, DWORD PTR _this$[ebp]
  00282	c7 80 f8 a8 02
	00 00 00 00 00	 mov	 DWORD PTR [eax+174328], 0

; 390  : 		m_pUserInput = NULL ;

  0028c	8b 45 f8	 mov	 eax, DWORD PTR _this$[ebp]
  0028f	c7 80 fc a8 02
	00 00 00 00 00	 mov	 DWORD PTR [eax+174332], 0

; 391  : 		m_pSound = NULL ;

  00299	8b 45 f8	 mov	 eax, DWORD PTR _this$[ebp]
  0029c	c7 80 00 a9 02
	00 00 00 00 00	 mov	 DWORD PTR [eax+174336], 0

; 392  : 		m_pMainMenu = NULL ;

  002a6	8b 45 f8	 mov	 eax, DWORD PTR _this$[ebp]
  002a9	c7 80 e0 a8 02
	00 00 00 00 00	 mov	 DWORD PTR [eax+174304], 0

; 393  : 		m_pInGameMenu = NULL ;

  002b3	8b 45 f8	 mov	 eax, DWORD PTR _this$[ebp]
  002b6	c7 80 e4 a8 02
	00 00 00 00 00	 mov	 DWORD PTR [eax+174308], 0

; 394  : 
; 395  : 		m_nLevel = m_pCmdLine->GetInt( "Level", 1 );

  002c0	6a 01		 push	 1
  002c2	68 00 00 00 00	 push	 OFFSET FLAT:??_C@_05KOHFLOFG@Level?$AA@
  002c7	8b 45 f8	 mov	 eax, DWORD PTR _this$[ebp]
  002ca	8b 88 d4 a8 02
	00		 mov	 ecx, DWORD PTR [eax+174292]
  002d0	e8 00 00 00 00	 call	 ?GetInt@CCmdLineParser@@QAEHPADH@Z ; CCmdLineParser::GetInt
  002d5	8b 4d f8	 mov	 ecx, DWORD PTR _this$[ebp]
  002d8	89 81 04 a9 02
	00		 mov	 DWORD PTR [ecx+174340], eax

; 396  : 		m_fScore = 0 ;

  002de	8b 45 f8	 mov	 eax, DWORD PTR _this$[ebp]
  002e1	c7 80 08 a9 02
	00 00 00 00 00	 mov	 DWORD PTR [eax+174344], 0

; 397  : 		m_nLives = 3 ;

  002eb	8b 45 f8	 mov	 eax, DWORD PTR _this$[ebp]
  002ee	c7 80 0c a9 02
	00 03 00 00 00	 mov	 DWORD PTR [eax+174348], 3

; 398  : 
; 399  : 	//
; 400  : 	// Timing and Performance Counters:
; 401  : 	//
; 402  : 		m_fMinFPS = 0.0f ;

  002f8	8b 45 f8	 mov	 eax, DWORD PTR _this$[ebp]
  002fb	c7 80 10 a9 02
	00 00 00 00 00	 mov	 DWORD PTR [eax+174352], 0

; 403  : 		m_fMaxFPS = 0.0f ;

  00305	8b 45 f8	 mov	 eax, DWORD PTR _this$[ebp]
  00308	c7 80 14 a9 02
	00 00 00 00 00	 mov	 DWORD PTR [eax+174356], 0

; 404  : 		m_fAvgFPS = 0.0f ;

  00312	8b 45 f8	 mov	 eax, DWORD PTR _this$[ebp]
  00315	c7 80 18 a9 02
	00 00 00 00 00	 mov	 DWORD PTR [eax+174360], 0

; 405  : 		m_ulPPF = 0 ;

  0031f	8b 45 f8	 mov	 eax, DWORD PTR _this$[ebp]
  00322	c7 80 1c a9 02
	00 00 00 00 00	 mov	 DWORD PTR [eax+174364], 0

; 406  : 		m_ulMinPPF = 0 ;

  0032c	8b 45 f8	 mov	 eax, DWORD PTR _this$[ebp]
  0032f	c7 80 20 a9 02
	00 00 00 00 00	 mov	 DWORD PTR [eax+174368], 0

; 407  : 		m_ulMaxPPF = 0 ;

  00339	8b 45 f8	 mov	 eax, DWORD PTR _this$[ebp]
  0033c	c7 80 24 a9 02
	00 00 00 00 00	 mov	 DWORD PTR [eax+174372], 0

; 408  : 		m_ulAvgPPF = 0 ;

  00346	8b 45 f8	 mov	 eax, DWORD PTR _this$[ebp]
  00349	c7 80 28 a9 02
	00 00 00 00 00	 mov	 DWORD PTR [eax+174376], 0

; 409  : 		m_fMTS = 0.0f ;

  00353	8b 45 f8	 mov	 eax, DWORD PTR _this$[ebp]
  00356	c7 80 2c a9 02
	00 00 00 00 00	 mov	 DWORD PTR [eax+174380], 0

; 410  : 		m_fMinMTS = 0.0f ;

  00360	8b 45 f8	 mov	 eax, DWORD PTR _this$[ebp]
  00363	c7 80 30 a9 02
	00 00 00 00 00	 mov	 DWORD PTR [eax+174384], 0

; 411  : 		m_fMaxMTS = 0.0f ;

  0036d	8b 45 f8	 mov	 eax, DWORD PTR _this$[ebp]
  00370	c7 80 34 a9 02
	00 00 00 00 00	 mov	 DWORD PTR [eax+174388], 0

; 412  : 		m_fAvgMTS = 0.0f ;

  0037a	8b 45 f8	 mov	 eax, DWORD PTR _this$[ebp]
  0037d	c7 80 38 a9 02
	00 00 00 00 00	 mov	 DWORD PTR [eax+174392], 0

; 413  : 
; 414  : 	//
; 415  : 	// Top-level Display Settings:
; 416  : 	//
; 417  : 		m_bWireframe = FALSE ;

  00387	8b 45 f8	 mov	 eax, DWORD PTR _this$[ebp]
  0038a	c7 80 94 a9 02
	00 00 00 00 00	 mov	 DWORD PTR [eax+174484], 0

; 418  : 		m_bStats = FALSE ;

  00394	8b 45 f8	 mov	 eax, DWORD PTR _this$[ebp]
  00397	c7 80 98 a9 02
	00 00 00 00 00	 mov	 DWORD PTR [eax+174488], 0

; 419  : 		m_bFSAA_Supported = FALSE ;

  003a1	8b 45 f8	 mov	 eax, DWORD PTR _this$[ebp]
  003a4	c7 80 9c a9 02
	00 00 00 00 00	 mov	 DWORD PTR [eax+174492], 0

; 420  : 		m_bFSAA_Enabled = FALSE ;

  003ae	8b 45 f8	 mov	 eax, DWORD PTR _this$[ebp]
  003b1	c7 80 a0 a9 02
	00 00 00 00 00	 mov	 DWORD PTR [eax+174496], 0

; 421  : 
; 422  : 	//
; 423  : 	// Debug:
; 424  : 	//
; 425  : 		SB = DB = D3DBLEND_ZERO ;

  003bb	8b 45 f8	 mov	 eax, DWORD PTR _this$[ebp]
  003be	c7 80 b0 a9 02
	00 01 00 00 00	 mov	 DWORD PTR [eax+174512], 1
  003c8	8b 4d f8	 mov	 ecx, DWORD PTR _this$[ebp]
  003cb	c7 81 ac a9 02
	00 01 00 00 00	 mov	 DWORD PTR [ecx+174508], 1

; 426  : 		m_bGodMode = ( 1 == pCmdLine->GetInt( "God", 0 ) );

  003d5	6a 00		 push	 0
  003d7	68 00 00 00 00	 push	 OFFSET FLAT:??_C@_03JKGCGCNJ@God?$AA@
  003dc	8b 4d 08	 mov	 ecx, DWORD PTR _pCmdLine$[ebp]
  003df	e8 00 00 00 00	 call	 ?GetInt@CCmdLineParser@@QAEHPADH@Z ; CCmdLineParser::GetInt
  003e4	83 e8 01	 sub	 eax, 1
  003e7	f7 d8		 neg	 eax
  003e9	1b c0		 sbb	 eax, eax
  003eb	40		 inc	 eax
  003ec	8b 4d f8	 mov	 ecx, DWORD PTR _this$[ebp]
  003ef	88 81 b4 a9 02
	00		 mov	 BYTE PTR [ecx+174516], al

; 427  : 		m_bPlayerDamage = ( 1 == pCmdLine->GetInt( "PlayerDamage", 1 ) );

  003f5	6a 01		 push	 1
  003f7	68 00 00 00 00	 push	 OFFSET FLAT:??_C@_0N@HDBIPGGB@PlayerDamage?$AA@
  003fc	8b 4d 08	 mov	 ecx, DWORD PTR _pCmdLine$[ebp]
  003ff	e8 00 00 00 00	 call	 ?GetInt@CCmdLineParser@@QAEHPADH@Z ; CCmdLineParser::GetInt
  00404	83 e8 01	 sub	 eax, 1
  00407	f7 d8		 neg	 eax
  00409	1b c0		 sbb	 eax, eax
  0040b	40		 inc	 eax
  0040c	8b 4d f8	 mov	 ecx, DWORD PTR _this$[ebp]
  0040f	88 81 b5 a9 02
	00		 mov	 BYTE PTR [ecx+174517], al

; 428  : 	}

  00415	8b 45 f8	 mov	 eax, DWORD PTR _this$[ebp]
  00418	5f		 pop	 edi
  00419	5e		 pop	 esi
  0041a	5b		 pop	 ebx
  0041b	81 c4 cc 00 00
	00		 add	 esp, 204		; 000000ccH
  00421	3b ec		 cmp	 ebp, esp
  00423	e8 00 00 00 00	 call	 __RTC_CheckEsp
  00428	8b e5		 mov	 esp, ebp
  0042a	5d		 pop	 ebp
  0042b	c2 04 00	 ret	 4
??0Cx7@@QAE@PAVCCmdLineParser@@@Z ENDP			; Cx7::Cx7
_TEXT	ENDS
EXTRN	??3@YAXPAX@Z:NEAR				; operator delete
; Function compile flags: /Odt /RTCsu /ZI
;	COMDAT ??_GCx7@@UAEPAXI@Z
_TEXT	SEGMENT
_this$ = -8
___flags$ = 8
??_GCx7@@UAEPAXI@Z PROC NEAR				; Cx7::`scalar deleting destructor', COMDAT
; _this$ = ecx
  00000	55		 push	 ebp
  00001	8b ec		 mov	 ebp, esp
  00003	81 ec cc 00 00
	00		 sub	 esp, 204		; 000000ccH
  00009	53		 push	 ebx
  0000a	56		 push	 esi
  0000b	57		 push	 edi
  0000c	51		 push	 ecx
  0000d	8d bd 34 ff ff
	ff		 lea	 edi, DWORD PTR [ebp-204]
  00013	b9 33 00 00 00	 mov	 ecx, 51			; 00000033H
  00018	b8 cc cc cc cc	 mov	 eax, -858993460		; ccccccccH
  0001d	f3 ab		 rep stosd
  0001f	59		 pop	 ecx
  00020	89 4d f8	 mov	 DWORD PTR _this$[ebp], ecx
  00023	8b 4d f8	 mov	 ecx, DWORD PTR _this$[ebp]
  00026	e8 00 00 00 00	 call	 ??1Cx7@@UAE@XZ
  0002b	8b 45 08	 mov	 eax, DWORD PTR ___flags$[ebp]
  0002e	83 e0 01	 and	 eax, 1
  00031	85 c0		 test	 eax, eax
  00033	74 11		 je	 SHORT $L93711
  00035	8b 45 f8	 mov	 eax, DWORD PTR _this$[ebp]
  00038	2d c8 a7 02 00	 sub	 eax, 174024		; 0002a7c8H
  0003d	50		 push	 eax
  0003e	e8 00 00 00 00	 call	 ??3@YAXPAX@Z		; operator delete
  00043	83 c4 04	 add	 esp, 4
$L93711:
  00046	8b 45 f8	 mov	 eax, DWORD PTR _this$[ebp]
  00049	2d c8 a7 02 00	 sub	 eax, 174024		; 0002a7c8H
  0004e	5f		 pop	 edi
  0004f	5e		 pop	 esi
  00050	5b		 pop	 ebx
  00051	81 c4 cc 00 00
	00		 add	 esp, 204		; 000000ccH
  00057	3b ec		 cmp	 ebp, esp
  00059	e8 00 00 00 00	 call	 __RTC_CheckEsp
  0005e	8b e5		 mov	 esp, ebp
  00060	5d		 pop	 ebp
  00061	c2 04 00	 ret	 4
??_GCx7@@UAEPAXI@Z ENDP					; Cx7::`scalar deleting destructor'
_TEXT	ENDS
PUBLIC	__real@437f0000
PUBLIC	?__LINE__Var@?1??OneTimeSceneInit@Cx7@@UAEJXZ@4JA ; `Cx7::OneTimeSceneInit'::`2'::__LINE__Var
PUBLIC	??_C@_0EE@BKJCFEJB@c?3?2documents?5and?5settings?2dom?2my@ ; `string'
PUBLIC	??_C@_0O@PJNMEPAE@m_pOverlayMan?$AA@		; `string'
PUBLIC	??_C@_0L@DCMLFMBH@m_pMenuTex?$AA@		; `string'
PUBLIC	??_C@_0M@IMAOCLDF@m_pMainMenu?$AA@		; `string'
PUBLIC	??_C@_0O@NFIIIECE@m_pInGameMenu?$AA@		; `string'
PUBLIC	??_C@_07PDFGPLJL@SoundFX?$AA@			; `string'
PUBLIC	??_C@_0L@KHMMEHJK@SoundMusic?$AA@		; `string'
PUBLIC	??_C@_0BB@GKJEGOEC@?4?4?2resource?2wav2?$AA@	; `string'
PUBLIC	??_C@_09DKMBABDM@MusicPath?$AA@			; `string'
PUBLIC	??_C@_08FKPFDOAB@m_pSound?$AA@			; `string'
PUBLIC	??_C@_0M@KGGAJAJ@Courier?5New?$AA@		; `string'
PUBLIC	??_C@_0N@MCMJAAFH@m_pStatsFont?$AA@		; `string'
PUBLIC	??_C@_0M@PGOBHJFA@Arial?5Black?$AA@		; `string'
PUBLIC	??_C@_0N@MIHPLCGI@m_pTitleFont?$AA@		; `string'
PUBLIC	??_C@_05MPFIAJAP@Arial?$AA@			; `string'
PUBLIC	??_C@_0BA@JNJLEIFH@m_pSubtitleFont?$AA@		; `string'
PUBLIC	??_C@_0P@NLMDHBFL@MouseExclusive?$AA@		; `string'
PUBLIC	??_C@_0M@CNKOLOHB@MouseInvert?$AA@		; `string'
PUBLIC	??_C@_09FNNILOCL@InputSens?$AA@			; `string'
PUBLIC	??_C@_0P@CCPDIAAJ@NonStickyMouse?$AA@		; `string'
PUBLIC	??_C@_0N@HFGNEP@m_pUserInput?$AA@		; `string'
EXTRN	__assert:NEAR
EXTRN	??2@YAPAXI@Z:NEAR				; operator new
EXTRN	??0CMenuTextures@@QAE@XZ:NEAR			; CMenuTextures::CMenuTextures
EXTRN	?GetString@CCmdLineParser@@QAEPADPAD0@Z:NEAR	; CCmdLineParser::GetString
EXTRN	??0CD3DFont@@QAE@PADKK@Z:NEAR			; CD3DFont::CD3DFont
EXTRN	??0CSoundManager@@QAE@PADHH@Z:NEAR		; CSoundManager::CSoundManager
EXTRN	??0CMainMenu@@QAE@PAVCx7@@@Z:NEAR		; CMainMenu::CMainMenu
EXTRN	??0CInGameMenu@@QAE@PAVCx7@@@Z:NEAR		; CInGameMenu::CInGameMenu
EXTRN	__imp__GetMenu@4:NEAR
EXTRN	__imp__CheckMenuItem@12:NEAR
EXTRN	__imp__EnableMenuItem@12:NEAR
EXTRN	??0CScreenOverlayManager@@QAE@XZ:NEAR		; CScreenOverlayManager::CScreenOverlayManager
EXTRN	??0CUserInput@@QAE@PAUHWND__@@_NM11@Z:NEAR	; CUserInput::CUserInput
;	COMDAT ?__LINE__Var@?1??OneTimeSceneInit@Cx7@@UAEJXZ@4JA
_DATA	SEGMENT
?__LINE__Var@?1??OneTimeSceneInit@Cx7@@UAEJXZ@4JA DD 01b6H ; `Cx7::OneTimeSceneInit'::`2'::__LINE__Var
_DATA	ENDS
;	COMDAT ??_C@_0EE@BKJCFEJB@c?3?2documents?5and?5settings?2dom?2my@
CONST	SEGMENT
??_C@_0EE@BKJCFEJB@c?3?2documents?5and?5settings?2dom?2my@ DB 'c:\documen'
	DB	'ts and settings\dom\my documents\_dev\ae\xlr8a\x7g\x7.cpp', 00H ; `string'
CONST	ENDS
;	COMDAT ??_C@_0O@PJNMEPAE@m_pOverlayMan?$AA@
CONST	SEGMENT
??_C@_0O@PJNMEPAE@m_pOverlayMan?$AA@ DB 'm_pOverlayMan', 00H ; `string'
CONST	ENDS
;	COMDAT ??_C@_0L@DCMLFMBH@m_pMenuTex?$AA@
CONST	SEGMENT
??_C@_0L@DCMLFMBH@m_pMenuTex?$AA@ DB 'm_pMenuTex', 00H	; `string'
CONST	ENDS
;	COMDAT ??_C@_0M@IMAOCLDF@m_pMainMenu?$AA@
CONST	SEGMENT
??_C@_0M@IMAOCLDF@m_pMainMenu?$AA@ DB 'm_pMainMenu', 00H ; `string'
CONST	ENDS
;	COMDAT ??_C@_0O@NFIIIECE@m_pInGameMenu?$AA@
CONST	SEGMENT
??_C@_0O@NFIIIECE@m_pInGameMenu?$AA@ DB 'm_pInGameMenu', 00H ; `string'
CONST	ENDS
;	COMDAT ??_C@_07PDFGPLJL@SoundFX?$AA@
CONST	SEGMENT
??_C@_07PDFGPLJL@SoundFX?$AA@ DB 'SoundFX', 00H		; `string'
CONST	ENDS
;	COMDAT ??_C@_0L@KHMMEHJK@SoundMusic?$AA@
CONST	SEGMENT
??_C@_0L@KHMMEHJK@SoundMusic?$AA@ DB 'SoundMusic', 00H	; `string'
CONST	ENDS
;	COMDAT ??_C@_0BB@GKJEGOEC@?4?4?2resource?2wav2?$AA@
CONST	SEGMENT
??_C@_0BB@GKJEGOEC@?4?4?2resource?2wav2?$AA@ DB '..\resource\wav2', 00H ; `string'
CONST	ENDS
;	COMDAT ??_C@_09DKMBABDM@MusicPath?$AA@
CONST	SEGMENT
??_C@_09DKMBABDM@MusicPath?$AA@ DB 'MusicPath', 00H	; `string'
CONST	ENDS
;	COMDAT ??_C@_08FKPFDOAB@m_pSound?$AA@
CONST	SEGMENT
??_C@_08FKPFDOAB@m_pSound?$AA@ DB 'm_pSound', 00H	; `string'
CONST	ENDS
;	COMDAT ??_C@_0M@KGGAJAJ@Courier?5New?$AA@
CONST	SEGMENT
??_C@_0M@KGGAJAJ@Courier?5New?$AA@ DB 'Courier New', 00H ; `string'
CONST	ENDS
;	COMDAT ??_C@_0N@MCMJAAFH@m_pStatsFont?$AA@
CONST	SEGMENT
??_C@_0N@MCMJAAFH@m_pStatsFont?$AA@ DB 'm_pStatsFont', 00H ; `string'
CONST	ENDS
;	COMDAT ??_C@_0M@PGOBHJFA@Arial?5Black?$AA@
CONST	SEGMENT
??_C@_0M@PGOBHJFA@Arial?5Black?$AA@ DB 'Arial Black', 00H ; `string'
CONST	ENDS
;	COMDAT ??_C@_0N@MIHPLCGI@m_pTitleFont?$AA@
CONST	SEGMENT
??_C@_0N@MIHPLCGI@m_pTitleFont?$AA@ DB 'm_pTitleFont', 00H ; `string'
CONST	ENDS
;	COMDAT ??_C@_05MPFIAJAP@Arial?$AA@
CONST	SEGMENT
??_C@_05MPFIAJAP@Arial?$AA@ DB 'Arial', 00H		; `string'
CONST	ENDS
;	COMDAT ??_C@_0BA@JNJLEIFH@m_pSubtitleFont?$AA@
CONST	SEGMENT
??_C@_0BA@JNJLEIFH@m_pSubtitleFont?$AA@ DB 'm_pSubtitleFont', 00H ; `string'
CONST	ENDS
;	COMDAT ??_C@_0P@NLMDHBFL@MouseExclusive?$AA@
CONST	SEGMENT
??_C@_0P@NLMDHBFL@MouseExclusive?$AA@ DB 'MouseExclusive', 00H ; `string'
CONST	ENDS
;	COMDAT ??_C@_0M@CNKOLOHB@MouseInvert?$AA@
CONST	SEGMENT
??_C@_0M@CNKOLOHB@MouseInvert?$AA@ DB 'MouseInvert', 00H ; `string'
CONST	ENDS
;	COMDAT ??_C@_09FNNILOCL@InputSens?$AA@
CONST	SEGMENT
??_C@_09FNNILOCL@InputSens?$AA@ DB 'InputSens', 00H	; `string'
CONST	ENDS
;	COMDAT __real@437f0000
CONST	SEGMENT
__real@437f0000 DD 0437f0000r			; 255
CONST	ENDS
;	COMDAT ??_C@_0P@CCPDIAAJ@NonStickyMouse?$AA@
CONST	SEGMENT
??_C@_0P@CCPDIAAJ@NonStickyMouse?$AA@ DB 'NonStickyMouse', 00H ; `string'
CONST	ENDS
;	COMDAT ??_C@_0N@HFGNEP@m_pUserInput?$AA@
CONST	SEGMENT
??_C@_0N@HFGNEP@m_pUserInput?$AA@ DB 'm_pUserInput', 00H ; `string'
; Function compile flags: /Odt /RTCsu /ZI
CONST	ENDS
;	COMDAT ?OneTimeSceneInit@Cx7@@UAEJXZ
_TEXT	SEGMENT
tv310 = -320
tv426 = -316
tv258 = -316
tv241 = -316
tv224 = -316
tv207 = -316
tv172 = -316
tv157 = -316
tv142 = -316
tv128 = -316
$T94560 = -308
$T94556 = -296
$T94552 = -284
$T94548 = -272
$T94544 = -260
$T94540 = -248
$T94536 = -236
$T94532 = -224
$T94528 = -212
_this$ = -8
?OneTimeSceneInit@Cx7@@UAEJXZ PROC NEAR			; Cx7::OneTimeSceneInit, COMDAT
; _this$ = ecx

; 438  : 	{

  00000	55		 push	 ebp
  00001	8b ec		 mov	 ebp, esp
  00003	81 ec 40 01 00
	00		 sub	 esp, 320		; 00000140H
  00009	53		 push	 ebx
  0000a	56		 push	 esi
  0000b	57		 push	 edi
  0000c	51		 push	 ecx
  0000d	8d bd c0 fe ff
	ff		 lea	 edi, DWORD PTR [ebp-320]
  00013	b9 50 00 00 00	 mov	 ecx, 80			; 00000050H
  00018	b8 cc cc cc cc	 mov	 eax, -858993460		; ccccccccH
  0001d	f3 ab		 rep stosd
  0001f	59		 pop	 ecx
  00020	89 4d f8	 mov	 DWORD PTR _this$[ebp], ecx

; 439  : 		m_hMenu = GetMenu(m_hWnd) ;

  00023	8b f4		 mov	 esi, esp
  00025	8b 45 f8	 mov	 eax, DWORD PTR _this$[ebp]
  00028	8b 88 98 a4 02
	00		 mov	 ecx, DWORD PTR [eax+173208]
  0002e	51		 push	 ecx
  0002f	ff 15 00 00 00
	00		 call	 DWORD PTR __imp__GetMenu@4
  00035	3b f4		 cmp	 esi, esp
  00037	e8 00 00 00 00	 call	 __RTC_CheckEsp
  0003c	8b 55 f8	 mov	 edx, DWORD PTR _this$[ebp]
  0003f	89 82 a8 a9 02
	00		 mov	 DWORD PTR [edx+174504], eax

; 440  : 
; 441  : 		EnableMenuItem(m_hMenu, ID_VIEW_WIREFRAME, MF_ENABLED) ;

  00045	8b f4		 mov	 esi, esp
  00047	6a 00		 push	 0
  00049	68 50 9c 00 00	 push	 40016			; 00009c50H
  0004e	8b 45 f8	 mov	 eax, DWORD PTR _this$[ebp]
  00051	8b 88 a8 a9 02
	00		 mov	 ecx, DWORD PTR [eax+174504]
  00057	51		 push	 ecx
  00058	ff 15 00 00 00
	00		 call	 DWORD PTR __imp__EnableMenuItem@12
  0005e	3b f4		 cmp	 esi, esp
  00060	e8 00 00 00 00	 call	 __RTC_CheckEsp

; 442  : 		CheckMenuItem(m_hMenu,  ID_VIEW_WIREFRAME, m_bWireframe ? MF_CHECKED : MF_UNCHECKED) ;

  00065	8b 45 f8	 mov	 eax, DWORD PTR _this$[ebp]
  00068	8b 88 94 a9 02
	00		 mov	 ecx, DWORD PTR [eax+174484]
  0006e	f7 d9		 neg	 ecx
  00070	1b c9		 sbb	 ecx, ecx
  00072	83 e1 08	 and	 ecx, 8
  00075	8b f4		 mov	 esi, esp
  00077	51		 push	 ecx
  00078	68 50 9c 00 00	 push	 40016			; 00009c50H
  0007d	8b 55 f8	 mov	 edx, DWORD PTR _this$[ebp]
  00080	8b 82 a8 a9 02
	00		 mov	 eax, DWORD PTR [edx+174504]
  00086	50		 push	 eax
  00087	ff 15 00 00 00
	00		 call	 DWORD PTR __imp__CheckMenuItem@12
  0008d	3b f4		 cmp	 esi, esp
  0008f	e8 00 00 00 00	 call	 __RTC_CheckEsp

; 443  : 
; 444  : 		EnableMenuItem(m_hMenu, ID_VIEW_STATS, MF_ENABLED) ;

  00094	8b f4		 mov	 esi, esp
  00096	6a 00		 push	 0
  00098	68 54 9c 00 00	 push	 40020			; 00009c54H
  0009d	8b 45 f8	 mov	 eax, DWORD PTR _this$[ebp]
  000a0	8b 88 a8 a9 02
	00		 mov	 ecx, DWORD PTR [eax+174504]
  000a6	51		 push	 ecx
  000a7	ff 15 00 00 00
	00		 call	 DWORD PTR __imp__EnableMenuItem@12
  000ad	3b f4		 cmp	 esi, esp
  000af	e8 00 00 00 00	 call	 __RTC_CheckEsp

; 445  : 		CheckMenuItem(m_hMenu,  ID_VIEW_STATS, m_bStats ? MF_CHECKED : MF_UNCHECKED) ;

  000b4	8b 45 f8	 mov	 eax, DWORD PTR _this$[ebp]
  000b7	8b 88 98 a9 02
	00		 mov	 ecx, DWORD PTR [eax+174488]
  000bd	f7 d9		 neg	 ecx
  000bf	1b c9		 sbb	 ecx, ecx
  000c1	83 e1 08	 and	 ecx, 8
  000c4	8b f4		 mov	 esi, esp
  000c6	51		 push	 ecx
  000c7	68 54 9c 00 00	 push	 40020			; 00009c54H
  000cc	8b 55 f8	 mov	 edx, DWORD PTR _this$[ebp]
  000cf	8b 82 a8 a9 02
	00		 mov	 eax, DWORD PTR [edx+174504]
  000d5	50		 push	 eax
  000d6	ff 15 00 00 00
	00		 call	 DWORD PTR __imp__CheckMenuItem@12
  000dc	3b f4		 cmp	 esi, esp
  000de	e8 00 00 00 00	 call	 __RTC_CheckEsp

; 446  : 
; 447  : 		m_pOverlayMan = new CScreenOverlayManager() ;

  000e3	68 98 02 00 00	 push	 664			; 00000298H
  000e8	e8 00 00 00 00	 call	 ??2@YAPAXI@Z		; operator new
  000ed	83 c4 04	 add	 esp, 4
  000f0	89 85 2c ff ff
	ff		 mov	 DWORD PTR $T94528[ebp], eax
  000f6	83 bd 2c ff ff
	ff 00		 cmp	 DWORD PTR $T94528[ebp], 0
  000fd	74 13		 je	 SHORT $L94529
  000ff	8b 8d 2c ff ff
	ff		 mov	 ecx, DWORD PTR $T94528[ebp]
  00105	e8 00 00 00 00	 call	 ??0CScreenOverlayManager@@QAE@XZ ; CScreenOverlayManager::CScreenOverlayManager
  0010a	89 85 c4 fe ff
	ff		 mov	 DWORD PTR tv128[ebp], eax
  00110	eb 0a		 jmp	 SHORT $L94530
$L94529:
  00112	c7 85 c4 fe ff
	ff 00 00 00 00	 mov	 DWORD PTR tv128[ebp], 0
$L94530:
  0011c	8b 45 f8	 mov	 eax, DWORD PTR _this$[ebp]
  0011f	8b 8d c4 fe ff
	ff		 mov	 ecx, DWORD PTR tv128[ebp]
  00125	89 88 d8 a8 02
	00		 mov	 DWORD PTR [eax+174296], ecx

; 448  : 		assert( m_pOverlayMan );

  0012b	8b 45 f8	 mov	 eax, DWORD PTR _this$[ebp]
  0012e	83 b8 d8 a8 02
	00 00		 cmp	 DWORD PTR [eax+174296], 0
  00135	75 1c		 jne	 SHORT $L94531
  00137	8b 0d 00 00 00
	00		 mov	 ecx, DWORD PTR ?__LINE__Var@?1??OneTimeSceneInit@Cx7@@UAEJXZ@4JA
  0013d	83 c1 0a	 add	 ecx, 10			; 0000000aH
  00140	51		 push	 ecx
  00141	68 00 00 00 00	 push	 OFFSET FLAT:??_C@_0EE@BKJCFEJB@c?3?2documents?5and?5settings?2dom?2my@
  00146	68 00 00 00 00	 push	 OFFSET FLAT:??_C@_0O@PJNMEPAE@m_pOverlayMan?$AA@
  0014b	e8 00 00 00 00	 call	 __assert
  00150	83 c4 0c	 add	 esp, 12			; 0000000cH
$L94531:

; 449  : 		
; 450  : 		m_pMenuTex = new CMenuTextures() ;

  00153	68 04 10 00 00	 push	 4100			; 00001004H
  00158	e8 00 00 00 00	 call	 ??2@YAPAXI@Z		; operator new
  0015d	83 c4 04	 add	 esp, 4
  00160	89 85 20 ff ff
	ff		 mov	 DWORD PTR $T94532[ebp], eax
  00166	83 bd 20 ff ff
	ff 00		 cmp	 DWORD PTR $T94532[ebp], 0
  0016d	74 13		 je	 SHORT $L94533
  0016f	8b 8d 20 ff ff
	ff		 mov	 ecx, DWORD PTR $T94532[ebp]
  00175	e8 00 00 00 00	 call	 ??0CMenuTextures@@QAE@XZ ; CMenuTextures::CMenuTextures
  0017a	89 85 c4 fe ff
	ff		 mov	 DWORD PTR tv142[ebp], eax
  00180	eb 0a		 jmp	 SHORT $L94534
$L94533:
  00182	c7 85 c4 fe ff
	ff 00 00 00 00	 mov	 DWORD PTR tv142[ebp], 0
$L94534:
  0018c	8b 45 f8	 mov	 eax, DWORD PTR _this$[ebp]
  0018f	8b 8d c4 fe ff
	ff		 mov	 ecx, DWORD PTR tv142[ebp]
  00195	89 88 dc a8 02
	00		 mov	 DWORD PTR [eax+174300], ecx

; 451  : 		assert( m_pMenuTex );

  0019b	8b 45 f8	 mov	 eax, DWORD PTR _this$[ebp]
  0019e	83 b8 dc a8 02
	00 00		 cmp	 DWORD PTR [eax+174300], 0
  001a5	75 1c		 jne	 SHORT $L94535
  001a7	8b 0d 00 00 00
	00		 mov	 ecx, DWORD PTR ?__LINE__Var@?1??OneTimeSceneInit@Cx7@@UAEJXZ@4JA
  001ad	83 c1 0d	 add	 ecx, 13			; 0000000dH
  001b0	51		 push	 ecx
  001b1	68 00 00 00 00	 push	 OFFSET FLAT:??_C@_0EE@BKJCFEJB@c?3?2documents?5and?5settings?2dom?2my@
  001b6	68 00 00 00 00	 push	 OFFSET FLAT:??_C@_0L@DCMLFMBH@m_pMenuTex?$AA@
  001bb	e8 00 00 00 00	 call	 __assert
  001c0	83 c4 0c	 add	 esp, 12			; 0000000cH
$L94535:

; 452  : 
; 453  : 		m_pMainMenu = new CMainMenu(this) ;

  001c3	6a 30		 push	 48			; 00000030H
  001c5	e8 00 00 00 00	 call	 ??2@YAPAXI@Z		; operator new
  001ca	83 c4 04	 add	 esp, 4
  001cd	89 85 14 ff ff
	ff		 mov	 DWORD PTR $T94536[ebp], eax
  001d3	83 bd 14 ff ff
	ff 00		 cmp	 DWORD PTR $T94536[ebp], 0
  001da	74 17		 je	 SHORT $L94537
  001dc	8b 45 f8	 mov	 eax, DWORD PTR _this$[ebp]
  001df	50		 push	 eax
  001e0	8b 8d 14 ff ff
	ff		 mov	 ecx, DWORD PTR $T94536[ebp]
  001e6	e8 00 00 00 00	 call	 ??0CMainMenu@@QAE@PAVCx7@@@Z ; CMainMenu::CMainMenu
  001eb	89 85 c4 fe ff
	ff		 mov	 DWORD PTR tv157[ebp], eax
  001f1	eb 0a		 jmp	 SHORT $L94538
$L94537:
  001f3	c7 85 c4 fe ff
	ff 00 00 00 00	 mov	 DWORD PTR tv157[ebp], 0
$L94538:
  001fd	8b 4d f8	 mov	 ecx, DWORD PTR _this$[ebp]
  00200	8b 95 c4 fe ff
	ff		 mov	 edx, DWORD PTR tv157[ebp]
  00206	89 91 e0 a8 02
	00		 mov	 DWORD PTR [ecx+174304], edx

; 454  : 		assert( m_pMainMenu );

  0020c	8b 45 f8	 mov	 eax, DWORD PTR _this$[ebp]
  0020f	83 b8 e0 a8 02
	00 00		 cmp	 DWORD PTR [eax+174304], 0
  00216	75 1c		 jne	 SHORT $L94539
  00218	8b 0d 00 00 00
	00		 mov	 ecx, DWORD PTR ?__LINE__Var@?1??OneTimeSceneInit@Cx7@@UAEJXZ@4JA
  0021e	83 c1 10	 add	 ecx, 16			; 00000010H
  00221	51		 push	 ecx
  00222	68 00 00 00 00	 push	 OFFSET FLAT:??_C@_0EE@BKJCFEJB@c?3?2documents?5and?5settings?2dom?2my@
  00227	68 00 00 00 00	 push	 OFFSET FLAT:??_C@_0M@IMAOCLDF@m_pMainMenu?$AA@
  0022c	e8 00 00 00 00	 call	 __assert
  00231	83 c4 0c	 add	 esp, 12			; 0000000cH
$L94539:

; 455  : 		
; 456  : 		m_pInGameMenu = new CInGameMenu(this) ;

  00234	6a 28		 push	 40			; 00000028H
  00236	e8 00 00 00 00	 call	 ??2@YAPAXI@Z		; operator new
  0023b	83 c4 04	 add	 esp, 4
  0023e	89 85 08 ff ff
	ff		 mov	 DWORD PTR $T94540[ebp], eax
  00244	83 bd 08 ff ff
	ff 00		 cmp	 DWORD PTR $T94540[ebp], 0
  0024b	74 17		 je	 SHORT $L94541
  0024d	8b 45 f8	 mov	 eax, DWORD PTR _this$[ebp]
  00250	50		 push	 eax
  00251	8b 8d 08 ff ff
	ff		 mov	 ecx, DWORD PTR $T94540[ebp]
  00257	e8 00 00 00 00	 call	 ??0CInGameMenu@@QAE@PAVCx7@@@Z ; CInGameMenu::CInGameMenu
  0025c	89 85 c4 fe ff
	ff		 mov	 DWORD PTR tv172[ebp], eax
  00262	eb 0a		 jmp	 SHORT $L94542
$L94541:
  00264	c7 85 c4 fe ff
	ff 00 00 00 00	 mov	 DWORD PTR tv172[ebp], 0
$L94542:
  0026e	8b 4d f8	 mov	 ecx, DWORD PTR _this$[ebp]
  00271	8b 95 c4 fe ff
	ff		 mov	 edx, DWORD PTR tv172[ebp]
  00277	89 91 e4 a8 02
	00		 mov	 DWORD PTR [ecx+174308], edx

; 457  : 		assert( m_pInGameMenu );

  0027d	8b 45 f8	 mov	 eax, DWORD PTR _this$[ebp]
  00280	83 b8 e4 a8 02
	00 00		 cmp	 DWORD PTR [eax+174308], 0
  00287	75 1c		 jne	 SHORT $L94543
  00289	8b 0d 00 00 00
	00		 mov	 ecx, DWORD PTR ?__LINE__Var@?1??OneTimeSceneInit@Cx7@@UAEJXZ@4JA
  0028f	83 c1 13	 add	 ecx, 19			; 00000013H
  00292	51		 push	 ecx
  00293	68 00 00 00 00	 push	 OFFSET FLAT:??_C@_0EE@BKJCFEJB@c?3?2documents?5and?5settings?2dom?2my@
  00298	68 00 00 00 00	 push	 OFFSET FLAT:??_C@_0O@NFIIIECE@m_pInGameMenu?$AA@
  0029d	e8 00 00 00 00	 call	 __assert
  002a2	83 c4 0c	 add	 esp, 12			; 0000000cH
$L94543:

; 458  : 
; 459  : 		m_pSound = new CSoundManager( m_pCmdLine->GetString( "MusicPath", "..\\resource\\wav2" ),
; 460  : 									  m_pCmdLine->GetInt( "SoundMusic", 200 ),
; 461  : 									  m_pCmdLine->GetInt( "SoundFX", 200 ) );

  002a5	68 44 1c 00 00	 push	 7236			; 00001c44H
  002aa	e8 00 00 00 00	 call	 ??2@YAPAXI@Z		; operator new
  002af	83 c4 04	 add	 esp, 4
  002b2	89 85 fc fe ff
	ff		 mov	 DWORD PTR $T94544[ebp], eax
  002b8	83 bd fc fe ff
	ff 00		 cmp	 DWORD PTR $T94544[ebp], 0
  002bf	74 5e		 je	 SHORT $L94545
  002c1	68 c8 00 00 00	 push	 200			; 000000c8H
  002c6	68 00 00 00 00	 push	 OFFSET FLAT:??_C@_07PDFGPLJL@SoundFX?$AA@
  002cb	8b 45 f8	 mov	 eax, DWORD PTR _this$[ebp]
  002ce	8b 88 d4 a8 02
	00		 mov	 ecx, DWORD PTR [eax+174292]
  002d4	e8 00 00 00 00	 call	 ?GetInt@CCmdLineParser@@QAEHPADH@Z ; CCmdLineParser::GetInt
  002d9	50		 push	 eax
  002da	68 c8 00 00 00	 push	 200			; 000000c8H
  002df	68 00 00 00 00	 push	 OFFSET FLAT:??_C@_0L@KHMMEHJK@SoundMusic?$AA@
  002e4	8b 4d f8	 mov	 ecx, DWORD PTR _this$[ebp]
  002e7	8b 89 d4 a8 02
	00		 mov	 ecx, DWORD PTR [ecx+174292]
  002ed	e8 00 00 00 00	 call	 ?GetInt@CCmdLineParser@@QAEHPADH@Z ; CCmdLineParser::GetInt
  002f2	50		 push	 eax
  002f3	68 00 00 00 00	 push	 OFFSET FLAT:??_C@_0BB@GKJEGOEC@?4?4?2resource?2wav2?$AA@
  002f8	68 00 00 00 00	 push	 OFFSET FLAT:??_C@_09DKMBABDM@MusicPath?$AA@
  002fd	8b 55 f8	 mov	 edx, DWORD PTR _this$[ebp]
  00300	8b 8a d4 a8 02
	00		 mov	 ecx, DWORD PTR [edx+174292]
  00306	e8 00 00 00 00	 call	 ?GetString@CCmdLineParser@@QAEPADPAD0@Z ; CCmdLineParser::GetString
  0030b	50		 push	 eax
  0030c	8b 8d fc fe ff
	ff		 mov	 ecx, DWORD PTR $T94544[ebp]
  00312	e8 00 00 00 00	 call	 ??0CSoundManager@@QAE@PADHH@Z ; CSoundManager::CSoundManager
  00317	89 85 c4 fe ff
	ff		 mov	 DWORD PTR tv207[ebp], eax
  0031d	eb 0a		 jmp	 SHORT $L94546
$L94545:
  0031f	c7 85 c4 fe ff
	ff 00 00 00 00	 mov	 DWORD PTR tv207[ebp], 0
$L94546:
  00329	8b 45 f8	 mov	 eax, DWORD PTR _this$[ebp]
  0032c	8b 8d c4 fe ff
	ff		 mov	 ecx, DWORD PTR tv207[ebp]
  00332	89 88 00 a9 02
	00		 mov	 DWORD PTR [eax+174336], ecx

; 462  : 		assert( m_pSound );

  00338	8b 45 f8	 mov	 eax, DWORD PTR _this$[ebp]
  0033b	83 b8 00 a9 02
	00 00		 cmp	 DWORD PTR [eax+174336], 0
  00342	75 1c		 jne	 SHORT $L94547
  00344	8b 0d 00 00 00
	00		 mov	 ecx, DWORD PTR ?__LINE__Var@?1??OneTimeSceneInit@Cx7@@UAEJXZ@4JA
  0034a	83 c1 18	 add	 ecx, 24			; 00000018H
  0034d	51		 push	 ecx
  0034e	68 00 00 00 00	 push	 OFFSET FLAT:??_C@_0EE@BKJCFEJB@c?3?2documents?5and?5settings?2dom?2my@
  00353	68 00 00 00 00	 push	 OFFSET FLAT:??_C@_08FKPFDOAB@m_pSound?$AA@
  00358	e8 00 00 00 00	 call	 __assert
  0035d	83 c4 0c	 add	 esp, 12			; 0000000cH
$L94547:

; 463  : 
; 464  : 		m_pStatsFont = new CD3DFont(_T("Courier New"), 9) ;

  00360	68 78 06 00 00	 push	 1656			; 00000678H
  00365	e8 00 00 00 00	 call	 ??2@YAPAXI@Z		; operator new
  0036a	83 c4 04	 add	 esp, 4
  0036d	89 85 f0 fe ff
	ff		 mov	 DWORD PTR $T94548[ebp], eax
  00373	83 bd f0 fe ff
	ff 00		 cmp	 DWORD PTR $T94548[ebp], 0
  0037a	74 1c		 je	 SHORT $L94549
  0037c	6a 00		 push	 0
  0037e	6a 09		 push	 9
  00380	68 00 00 00 00	 push	 OFFSET FLAT:??_C@_0M@KGGAJAJ@Courier?5New?$AA@
  00385	8b 8d f0 fe ff
	ff		 mov	 ecx, DWORD PTR $T94548[ebp]
  0038b	e8 00 00 00 00	 call	 ??0CD3DFont@@QAE@PADKK@Z ; CD3DFont::CD3DFont
  00390	89 85 c4 fe ff
	ff		 mov	 DWORD PTR tv224[ebp], eax
  00396	eb 0a		 jmp	 SHORT $L94550
$L94549:
  00398	c7 85 c4 fe ff
	ff 00 00 00 00	 mov	 DWORD PTR tv224[ebp], 0
$L94550:
  003a2	8b 45 f8	 mov	 eax, DWORD PTR _this$[ebp]
  003a5	8b 8d c4 fe ff
	ff		 mov	 ecx, DWORD PTR tv224[ebp]
  003ab	89 88 f0 a8 02
	00		 mov	 DWORD PTR [eax+174320], ecx

; 465  : 		assert( m_pStatsFont );

  003b1	8b 45 f8	 mov	 eax, DWORD PTR _this$[ebp]
  003b4	83 b8 f0 a8 02
	00 00		 cmp	 DWORD PTR [eax+174320], 0
  003bb	75 1c		 jne	 SHORT $L94551
  003bd	8b 0d 00 00 00
	00		 mov	 ecx, DWORD PTR ?__LINE__Var@?1??OneTimeSceneInit@Cx7@@UAEJXZ@4JA
  003c3	83 c1 1b	 add	 ecx, 27			; 0000001bH
  003c6	51		 push	 ecx
  003c7	68 00 00 00 00	 push	 OFFSET FLAT:??_C@_0EE@BKJCFEJB@c?3?2documents?5and?5settings?2dom?2my@
  003cc	68 00 00 00 00	 push	 OFFSET FLAT:??_C@_0N@MCMJAAFH@m_pStatsFont?$AA@
  003d1	e8 00 00 00 00	 call	 __assert
  003d6	83 c4 0c	 add	 esp, 12			; 0000000cH
$L94551:

; 466  : 
; 467  : 		m_pTitleFont = new CD3DFont(_T("Arial Black"), 25, 0/*D3DFONT_BOLD*/) ;

  003d9	68 78 06 00 00	 push	 1656			; 00000678H
  003de	e8 00 00 00 00	 call	 ??2@YAPAXI@Z		; operator new
  003e3	83 c4 04	 add	 esp, 4
  003e6	89 85 e4 fe ff
	ff		 mov	 DWORD PTR $T94552[ebp], eax
  003ec	83 bd e4 fe ff
	ff 00		 cmp	 DWORD PTR $T94552[ebp], 0
  003f3	74 1c		 je	 SHORT $L94553
  003f5	6a 00		 push	 0
  003f7	6a 19		 push	 25			; 00000019H
  003f9	68 00 00 00 00	 push	 OFFSET FLAT:??_C@_0M@PGOBHJFA@Arial?5Black?$AA@
  003fe	8b 8d e4 fe ff
	ff		 mov	 ecx, DWORD PTR $T94552[ebp]
  00404	e8 00 00 00 00	 call	 ??0CD3DFont@@QAE@PADKK@Z ; CD3DFont::CD3DFont
  00409	89 85 c4 fe ff
	ff		 mov	 DWORD PTR tv241[ebp], eax
  0040f	eb 0a		 jmp	 SHORT $L94554
$L94553:
  00411	c7 85 c4 fe ff
	ff 00 00 00 00	 mov	 DWORD PTR tv241[ebp], 0
$L94554:
  0041b	8b 45 f8	 mov	 eax, DWORD PTR _this$[ebp]
  0041e	8b 8d c4 fe ff
	ff		 mov	 ecx, DWORD PTR tv241[ebp]
  00424	89 88 f4 a8 02
	00		 mov	 DWORD PTR [eax+174324], ecx

; 468  : 		assert( m_pTitleFont );

  0042a	8b 45 f8	 mov	 eax, DWORD PTR _this$[ebp]
  0042d	83 b8 f4 a8 02
	00 00		 cmp	 DWORD PTR [eax+174324], 0
  00434	75 1c		 jne	 SHORT $L94555
  00436	8b 0d 00 00 00
	00		 mov	 ecx, DWORD PTR ?__LINE__Var@?1??OneTimeSceneInit@Cx7@@UAEJXZ@4JA
  0043c	83 c1 1e	 add	 ecx, 30			; 0000001eH
  0043f	51		 push	 ecx
  00440	68 00 00 00 00	 push	 OFFSET FLAT:??_C@_0EE@BKJCFEJB@c?3?2documents?5and?5settings?2dom?2my@
  00445	68 00 00 00 00	 push	 OFFSET FLAT:??_C@_0N@MIHPLCGI@m_pTitleFont?$AA@
  0044a	e8 00 00 00 00	 call	 __assert
  0044f	83 c4 0c	 add	 esp, 12			; 0000000cH
$L94555:

; 469  : 
; 470  : 		m_pSubtitleFont = new CD3DFont(_T("Arial"), 8, 0/*D3DFONT_BOLD*/) ;

  00452	68 78 06 00 00	 push	 1656			; 00000678H
  00457	e8 00 00 00 00	 call	 ??2@YAPAXI@Z		; operator new
  0045c	83 c4 04	 add	 esp, 4
  0045f	89 85 d8 fe ff
	ff		 mov	 DWORD PTR $T94556[ebp], eax
  00465	83 bd d8 fe ff
	ff 00		 cmp	 DWORD PTR $T94556[ebp], 0
  0046c	74 1c		 je	 SHORT $L94557
  0046e	6a 00		 push	 0
  00470	6a 08		 push	 8
  00472	68 00 00 00 00	 push	 OFFSET FLAT:??_C@_05MPFIAJAP@Arial?$AA@
  00477	8b 8d d8 fe ff
	ff		 mov	 ecx, DWORD PTR $T94556[ebp]
  0047d	e8 00 00 00 00	 call	 ??0CD3DFont@@QAE@PADKK@Z ; CD3DFont::CD3DFont
  00482	89 85 c4 fe ff
	ff		 mov	 DWORD PTR tv258[ebp], eax
  00488	eb 0a		 jmp	 SHORT $L94558
$L94557:
  0048a	c7 85 c4 fe ff
	ff 00 00 00 00	 mov	 DWORD PTR tv258[ebp], 0
$L94558:
  00494	8b 45 f8	 mov	 eax, DWORD PTR _this$[ebp]
  00497	8b 8d c4 fe ff
	ff		 mov	 ecx, DWORD PTR tv258[ebp]
  0049d	89 88 f8 a8 02
	00		 mov	 DWORD PTR [eax+174328], ecx

; 471  : 		assert( m_pSubtitleFont );

  004a3	8b 45 f8	 mov	 eax, DWORD PTR _this$[ebp]
  004a6	83 b8 f8 a8 02
	00 00		 cmp	 DWORD PTR [eax+174328], 0
  004ad	75 1c		 jne	 SHORT $L94559
  004af	8b 0d 00 00 00
	00		 mov	 ecx, DWORD PTR ?__LINE__Var@?1??OneTimeSceneInit@Cx7@@UAEJXZ@4JA
  004b5	83 c1 21	 add	 ecx, 33			; 00000021H
  004b8	51		 push	 ecx
  004b9	68 00 00 00 00	 push	 OFFSET FLAT:??_C@_0EE@BKJCFEJB@c?3?2documents?5and?5settings?2dom?2my@
  004be	68 00 00 00 00	 push	 OFFSET FLAT:??_C@_0BA@JNJLEIFH@m_pSubtitleFont?$AA@
  004c3	e8 00 00 00 00	 call	 __assert
  004c8	83 c4 0c	 add	 esp, 12			; 0000000cH
$L94559:

; 472  : 
; 473  : 		m_pUserInput = new CUserInput( m_hWnd,
; 474  : 									   m_pCmdLine->GetInt( "NonStickyMouse", 0 ) == 1 ? true : false,
; 475  : 									   (float)m_pCmdLine->GetInt( "InputSens", 100 ) / 255,
; 476  : 									   m_pCmdLine->GetInt( "MouseInvert", 0 ) == 1 ? true : false,
; 477  : 									   m_pCmdLine->GetInt( "MouseExclusive", 1 ) == 1 ? true : false );

  004cb	68 e8 08 00 00	 push	 2280			; 000008e8H
  004d0	e8 00 00 00 00	 call	 ??2@YAPAXI@Z		; operator new
  004d5	83 c4 04	 add	 esp, 4
  004d8	89 85 cc fe ff
	ff		 mov	 DWORD PTR $T94560[ebp], eax
  004de	83 bd cc fe ff
	ff 00		 cmp	 DWORD PTR $T94560[ebp], 0
  004e5	0f 84 a5 00 00
	00		 je	 $L94561
  004eb	6a 01		 push	 1
  004ed	68 00 00 00 00	 push	 OFFSET FLAT:??_C@_0P@NLMDHBFL@MouseExclusive?$AA@
  004f2	8b 45 f8	 mov	 eax, DWORD PTR _this$[ebp]
  004f5	8b 88 d4 a8 02
	00		 mov	 ecx, DWORD PTR [eax+174292]
  004fb	e8 00 00 00 00	 call	 ?GetInt@CCmdLineParser@@QAEHPADH@Z ; CCmdLineParser::GetInt
  00500	83 e8 01	 sub	 eax, 1
  00503	f7 d8		 neg	 eax
  00505	1a c0		 sbb	 al, al
  00507	fe c0		 inc	 al
  00509	50		 push	 eax
  0050a	6a 00		 push	 0
  0050c	68 00 00 00 00	 push	 OFFSET FLAT:??_C@_0M@CNKOLOHB@MouseInvert?$AA@
  00511	8b 4d f8	 mov	 ecx, DWORD PTR _this$[ebp]
  00514	8b 89 d4 a8 02
	00		 mov	 ecx, DWORD PTR [ecx+174292]
  0051a	e8 00 00 00 00	 call	 ?GetInt@CCmdLineParser@@QAEHPADH@Z ; CCmdLineParser::GetInt
  0051f	83 e8 01	 sub	 eax, 1
  00522	f7 d8		 neg	 eax
  00524	1a c0		 sbb	 al, al
  00526	fe c0		 inc	 al
  00528	50		 push	 eax
  00529	6a 64		 push	 100			; 00000064H
  0052b	68 00 00 00 00	 push	 OFFSET FLAT:??_C@_09FNNILOCL@InputSens?$AA@
  00530	8b 55 f8	 mov	 edx, DWORD PTR _this$[ebp]
  00533	8b 8a d4 a8 02
	00		 mov	 ecx, DWORD PTR [edx+174292]
  00539	e8 00 00 00 00	 call	 ?GetInt@CCmdLineParser@@QAEHPADH@Z ; CCmdLineParser::GetInt
  0053e	89 85 c4 fe ff
	ff		 mov	 DWORD PTR tv426[ebp], eax
  00544	db 85 c4 fe ff
	ff		 fild	 DWORD PTR tv426[ebp]
  0054a	d8 35 00 00 00
	00		 fdiv	 DWORD PTR __real@437f0000
  00550	51		 push	 ecx
  00551	d9 1c 24	 fstp	 DWORD PTR [esp]
  00554	6a 00		 push	 0
  00556	68 00 00 00 00	 push	 OFFSET FLAT:??_C@_0P@CCPDIAAJ@NonStickyMouse?$AA@
  0055b	8b 45 f8	 mov	 eax, DWORD PTR _this$[ebp]
  0055e	8b 88 d4 a8 02
	00		 mov	 ecx, DWORD PTR [eax+174292]
  00564	e8 00 00 00 00	 call	 ?GetInt@CCmdLineParser@@QAEHPADH@Z ; CCmdLineParser::GetInt
  00569	83 e8 01	 sub	 eax, 1
  0056c	f7 d8		 neg	 eax
  0056e	1a c0		 sbb	 al, al
  00570	fe c0		 inc	 al
  00572	50		 push	 eax
  00573	8b 4d f8	 mov	 ecx, DWORD PTR _this$[ebp]
  00576	8b 91 98 a4 02
	00		 mov	 edx, DWORD PTR [ecx+173208]
  0057c	52		 push	 edx
  0057d	8b 8d cc fe ff
	ff		 mov	 ecx, DWORD PTR $T94560[ebp]
  00583	e8 00 00 00 00	 call	 ??0CUserInput@@QAE@PAUHWND__@@_NM11@Z ; CUserInput::CUserInput
  00588	89 85 c0 fe ff
	ff		 mov	 DWORD PTR tv310[ebp], eax
  0058e	eb 0a		 jmp	 SHORT $L94562
$L94561:
  00590	c7 85 c0 fe ff
	ff 00 00 00 00	 mov	 DWORD PTR tv310[ebp], 0
$L94562:
  0059a	8b 45 f8	 mov	 eax, DWORD PTR _this$[ebp]
  0059d	8b 8d c0 fe ff
	ff		 mov	 ecx, DWORD PTR tv310[ebp]
  005a3	89 88 fc a8 02
	00		 mov	 DWORD PTR [eax+174332], ecx

; 478  : 		assert( m_pUserInput );

  005a9	8b 45 f8	 mov	 eax, DWORD PTR _this$[ebp]
  005ac	83 b8 fc a8 02
	00 00		 cmp	 DWORD PTR [eax+174332], 0
  005b3	75 1c		 jne	 SHORT $L94563
  005b5	8b 0d 00 00 00
	00		 mov	 ecx, DWORD PTR ?__LINE__Var@?1??OneTimeSceneInit@Cx7@@UAEJXZ@4JA
  005bb	83 c1 28	 add	 ecx, 40			; 00000028H
  005be	51		 push	 ecx
  005bf	68 00 00 00 00	 push	 OFFSET FLAT:??_C@_0EE@BKJCFEJB@c?3?2documents?5and?5settings?2dom?2my@
  005c4	68 00 00 00 00	 push	 OFFSET FLAT:??_C@_0N@HFGNEP@m_pUserInput?$AA@
  005c9	e8 00 00 00 00	 call	 __assert
  005ce	83 c4 0c	 add	 esp, 12			; 0000000cH
$L94563:

; 479  : 
; 480  : 		m_bInMainMenu = TRUE ;

  005d1	8b 45 f8	 mov	 eax, DWORD PTR _this$[ebp]
  005d4	c6 80 d8 a7 02
	00 01		 mov	 BYTE PTR [eax+174040], 1

; 481  : 		
; 482  : 		return S_OK ;

  005db	33 c0		 xor	 eax, eax

; 483  : 	}

  005dd	5f		 pop	 edi
  005de	5e		 pop	 esi
  005df	5b		 pop	 ebx
  005e0	81 c4 40 01 00
	00		 add	 esp, 320		; 00000140H
  005e6	3b ec		 cmp	 ebp, esp
  005e8	e8 00 00 00 00	 call	 __RTC_CheckEsp
  005ed	8b e5		 mov	 esp, ebp
  005ef	5d		 pop	 ebp
  005f0	c3		 ret	 0
?OneTimeSceneInit@Cx7@@UAEJXZ ENDP			; Cx7::OneTimeSceneInit
_TEXT	ENDS
PUBLIC	?StartGame@Cx7@@QAEXXZ				; Cx7::StartGame
EXTRN	?BeginThreadProc@CThread@@QAEXXZ:NEAR		; CThread::BeginThreadProc
; Function compile flags: /Odt /RTCsu /ZI
;	COMDAT ?StartGame@Cx7@@QAEXXZ
_TEXT	SEGMENT
_this$ = -8
?StartGame@Cx7@@QAEXXZ PROC NEAR			; Cx7::StartGame, COMDAT
; _this$ = ecx

; 493  : 	{

  00000	55		 push	 ebp
  00001	8b ec		 mov	 ebp, esp
  00003	81 ec cc 00 00
	00		 sub	 esp, 204		; 000000ccH
  00009	53		 push	 ebx
  0000a	56		 push	 esi
  0000b	57		 push	 edi
  0000c	51		 push	 ecx
  0000d	8d bd 34 ff ff
	ff		 lea	 edi, DWORD PTR [ebp-204]
  00013	b9 33 00 00 00	 mov	 ecx, 51			; 00000033H
  00018	b8 cc cc cc cc	 mov	 eax, -858993460		; ccccccccH
  0001d	f3 ab		 rep stosd
  0001f	59		 pop	 ecx
  00020	89 4d f8	 mov	 DWORD PTR _this$[ebp], ecx

; 494  : 		m_bLoadingGame = TRUE ;

  00023	8b 45 f8	 mov	 eax, DWORD PTR _this$[ebp]
  00026	c6 80 d9 a7 02
	00 01		 mov	 BYTE PTR [eax+174041], 1

; 495  : 		BeginThreadProc() ;

  0002d	8b 4d f8	 mov	 ecx, DWORD PTR _this$[ebp]
  00030	81 c1 c8 a7 02
	00		 add	 ecx, 174024		; 0002a7c8H
  00036	e8 00 00 00 00	 call	 ?BeginThreadProc@CThread@@QAEXXZ ; CThread::BeginThreadProc

; 496  : 	}

  0003b	5f		 pop	 edi
  0003c	5e		 pop	 esi
  0003d	5b		 pop	 ebx
  0003e	81 c4 cc 00 00
	00		 add	 esp, 204		; 000000ccH
  00044	3b ec		 cmp	 ebp, esp
  00046	e8 00 00 00 00	 call	 __RTC_CheckEsp
  0004b	8b e5		 mov	 esp, ebp
  0004d	5d		 pop	 ebp
  0004e	c3		 ret	 0
?StartGame@Cx7@@QAEXXZ ENDP				; Cx7::StartGame
_TEXT	ENDS
PUBLIC	?StartNextLevel@Cx7@@QAEXXZ			; Cx7::StartNextLevel
PUBLIC	??_GCTextures@@QAEPAXI@Z			; CTextures::`scalar deleting destructor'
PUBLIC	??_GCRace@@QAEPAXI@Z				; CRace::`scalar deleting destructor'
; Function compile flags: /Odt /RTCsu /ZI
;	COMDAT ?StartNextLevel@Cx7@@QAEXXZ
_TEXT	SEGMENT
tv84 = -256
tv75 = -256
$T94575 = -248
$T94574 = -236
$T94571 = -224
$T94570 = -212
_this$ = -8
?StartNextLevel@Cx7@@QAEXXZ PROC NEAR			; Cx7::StartNextLevel, COMDAT
; _this$ = ecx

; 499  : 	{

  00000	55		 push	 ebp
  00001	8b ec		 mov	 ebp, esp
  00003	81 ec 00 01 00
	00		 sub	 esp, 256		; 00000100H
  00009	53		 push	 ebx
  0000a	56		 push	 esi
  0000b	57		 push	 edi
  0000c	51		 push	 ecx
  0000d	8d bd 00 ff ff
	ff		 lea	 edi, DWORD PTR [ebp-256]
  00013	b9 40 00 00 00	 mov	 ecx, 64			; 00000040H
  00018	b8 cc cc cc cc	 mov	 eax, -858993460		; ccccccccH
  0001d	f3 ab		 rep stosd
  0001f	59		 pop	 ecx
  00020	89 4d f8	 mov	 DWORD PTR _this$[ebp], ecx

; 500  : 		InvalidateDeviceObjects() ;

  00023	8b 45 f8	 mov	 eax, DWORD PTR _this$[ebp]
  00026	8b 10		 mov	 edx, DWORD PTR [eax]
  00028	8b f4		 mov	 esi, esp
  0002a	8b 4d f8	 mov	 ecx, DWORD PTR _this$[ebp]
  0002d	ff 52 1c	 call	 DWORD PTR [edx+28]
  00030	3b f4		 cmp	 esi, esp
  00032	e8 00 00 00 00	 call	 __RTC_CheckEsp

; 501  : 		m_bRaceCreated = false ;

  00037	8b 45 f8	 mov	 eax, DWORD PTR _this$[ebp]
  0003a	c6 80 e0 a7 02
	00 00		 mov	 BYTE PTR [eax+174048], 0

; 502  : 		SAFE_DELETE( m_pTestRace )

  00041	8b 45 f8	 mov	 eax, DWORD PTR _this$[ebp]
  00044	83 b8 ec a8 02
	00 00		 cmp	 DWORD PTR [eax+174316], 0
  0004b	74 50		 je	 SHORT $L93772
  0004d	8b 45 f8	 mov	 eax, DWORD PTR _this$[ebp]
  00050	8b 88 ec a8 02
	00		 mov	 ecx, DWORD PTR [eax+174316]
  00056	89 8d 20 ff ff
	ff		 mov	 DWORD PTR $T94571[ebp], ecx
  0005c	8b 95 20 ff ff
	ff		 mov	 edx, DWORD PTR $T94571[ebp]
  00062	89 95 2c ff ff
	ff		 mov	 DWORD PTR $T94570[ebp], edx
  00068	83 bd 2c ff ff
	ff 00		 cmp	 DWORD PTR $T94570[ebp], 0
  0006f	74 15		 je	 SHORT $L94572
  00071	6a 01		 push	 1
  00073	8b 8d 2c ff ff
	ff		 mov	 ecx, DWORD PTR $T94570[ebp]
  00079	e8 00 00 00 00	 call	 ??_GCRace@@QAEPAXI@Z
  0007e	89 85 00 ff ff
	ff		 mov	 DWORD PTR tv75[ebp], eax
  00084	eb 0a		 jmp	 SHORT $L94573
$L94572:
  00086	c7 85 00 ff ff
	ff 00 00 00 00	 mov	 DWORD PTR tv75[ebp], 0
$L94573:
  00090	8b 45 f8	 mov	 eax, DWORD PTR _this$[ebp]
  00093	c7 80 ec a8 02
	00 00 00 00 00	 mov	 DWORD PTR [eax+174316], 0
$L93772:

; 503  : 		SAFE_DELETE( m_pTextures )

  0009d	8b 45 f8	 mov	 eax, DWORD PTR _this$[ebp]
  000a0	83 b8 e8 a8 02
	00 00		 cmp	 DWORD PTR [eax+174312], 0
  000a7	74 50		 je	 SHORT $L93775
  000a9	8b 45 f8	 mov	 eax, DWORD PTR _this$[ebp]
  000ac	8b 88 e8 a8 02
	00		 mov	 ecx, DWORD PTR [eax+174312]
  000b2	89 8d 08 ff ff
	ff		 mov	 DWORD PTR $T94575[ebp], ecx
  000b8	8b 95 08 ff ff
	ff		 mov	 edx, DWORD PTR $T94575[ebp]
  000be	89 95 14 ff ff
	ff		 mov	 DWORD PTR $T94574[ebp], edx
  000c4	83 bd 14 ff ff
	ff 00		 cmp	 DWORD PTR $T94574[ebp], 0
  000cb	74 15		 je	 SHORT $L94576
  000cd	6a 01		 push	 1
  000cf	8b 8d 14 ff ff
	ff		 mov	 ecx, DWORD PTR $T94574[ebp]
  000d5	e8 00 00 00 00	 call	 ??_GCTextures@@QAEPAXI@Z
  000da	89 85 00 ff ff
	ff		 mov	 DWORD PTR tv84[ebp], eax
  000e0	eb 0a		 jmp	 SHORT $L94577
$L94576:
  000e2	c7 85 00 ff ff
	ff 00 00 00 00	 mov	 DWORD PTR tv84[ebp], 0
$L94577:
  000ec	8b 45 f8	 mov	 eax, DWORD PTR _this$[ebp]
  000ef	c7 80 e8 a8 02
	00 00 00 00 00	 mov	 DWORD PTR [eax+174312], 0
$L93775:

; 504  : 		RestoreDeviceObjects() ;

  000f9	8b 45 f8	 mov	 eax, DWORD PTR _this$[ebp]
  000fc	8b 10		 mov	 edx, DWORD PTR [eax]
  000fe	8b f4		 mov	 esi, esp
  00100	8b 4d f8	 mov	 ecx, DWORD PTR _this$[ebp]
  00103	ff 52 10	 call	 DWORD PTR [edx+16]
  00106	3b f4		 cmp	 esi, esp
  00108	e8 00 00 00 00	 call	 __RTC_CheckEsp

; 505  : 		m_nLevel++ ;

  0010d	8b 45 f8	 mov	 eax, DWORD PTR _this$[ebp]
  00110	8b 88 04 a9 02
	00		 mov	 ecx, DWORD PTR [eax+174340]
  00116	83 c1 01	 add	 ecx, 1
  00119	8b 55 f8	 mov	 edx, DWORD PTR _this$[ebp]
  0011c	89 8a 04 a9 02
	00		 mov	 DWORD PTR [edx+174340], ecx

; 506  : 		StartGame() ;

  00122	8b 4d f8	 mov	 ecx, DWORD PTR _this$[ebp]
  00125	e8 00 00 00 00	 call	 ?StartGame@Cx7@@QAEXXZ	; Cx7::StartGame

; 507  : 	}

  0012a	5f		 pop	 edi
  0012b	5e		 pop	 esi
  0012c	5b		 pop	 ebx
  0012d	81 c4 00 01 00
	00		 add	 esp, 256		; 00000100H
  00133	3b ec		 cmp	 ebp, esp
  00135	e8 00 00 00 00	 call	 __RTC_CheckEsp
  0013a	8b e5		 mov	 esp, ebp
  0013c	5d		 pop	 ebp
  0013d	c3		 ret	 0
?StartNextLevel@Cx7@@QAEXXZ ENDP			; Cx7::StartNextLevel
_TEXT	ENDS
EXTRN	??1CRace@@QAE@XZ:NEAR				; CRace::~CRace
; Function compile flags: /Odt /RTCsu /ZI
;	COMDAT ??_GCRace@@QAEPAXI@Z
_TEXT	SEGMENT
_this$ = -8
___flags$ = 8
??_GCRace@@QAEPAXI@Z PROC NEAR				; CRace::`scalar deleting destructor', COMDAT
; _this$ = ecx
  00000	55		 push	 ebp
  00001	8b ec		 mov	 ebp, esp
  00003	81 ec cc 00 00
	00		 sub	 esp, 204		; 000000ccH
  00009	53		 push	 ebx
  0000a	56		 push	 esi
  0000b	57		 push	 edi
  0000c	51		 push	 ecx
  0000d	8d bd 34 ff ff
	ff		 lea	 edi, DWORD PTR [ebp-204]
  00013	b9 33 00 00 00	 mov	 ecx, 51			; 00000033H
  00018	b8 cc cc cc cc	 mov	 eax, -858993460		; ccccccccH
  0001d	f3 ab		 rep stosd
  0001f	59		 pop	 ecx
  00020	89 4d f8	 mov	 DWORD PTR _this$[ebp], ecx
  00023	8b 4d f8	 mov	 ecx, DWORD PTR _this$[ebp]
  00026	e8 00 00 00 00	 call	 ??1CRace@@QAE@XZ	; CRace::~CRace
  0002b	8b 45 08	 mov	 eax, DWORD PTR ___flags$[ebp]
  0002e	83 e0 01	 and	 eax, 1
  00031	85 c0		 test	 eax, eax
  00033	74 0c		 je	 SHORT $L93782
  00035	8b 45 f8	 mov	 eax, DWORD PTR _this$[ebp]
  00038	50		 push	 eax
  00039	e8 00 00 00 00	 call	 ??3@YAXPAX@Z		; operator delete
  0003e	83 c4 04	 add	 esp, 4
$L93782:
  00041	8b 45 f8	 mov	 eax, DWORD PTR _this$[ebp]
  00044	5f		 pop	 edi
  00045	5e		 pop	 esi
  00046	5b		 pop	 ebx
  00047	81 c4 cc 00 00
	00		 add	 esp, 204		; 000000ccH
  0004d	3b ec		 cmp	 ebp, esp
  0004f	e8 00 00 00 00	 call	 __RTC_CheckEsp
  00054	8b e5		 mov	 esp, ebp
  00056	5d		 pop	 ebp
  00057	c2 04 00	 ret	 4
??_GCRace@@QAEPAXI@Z ENDP				; CRace::`scalar deleting destructor'
_TEXT	ENDS
EXTRN	??1CTextures@@QAE@XZ:NEAR			; CTextures::~CTextures
; Function compile flags: /Odt /RTCsu /ZI
;	COMDAT ??_GCTextures@@QAEPAXI@Z
_TEXT	SEGMENT
_this$ = -8
___flags$ = 8
??_GCTextures@@QAEPAXI@Z PROC NEAR			; CTextures::`scalar deleting destructor', COMDAT
; _this$ = ecx
  00000	55		 push	 ebp
  00001	8b ec		 mov	 ebp, esp
  00003	81 ec cc 00 00
	00		 sub	 esp, 204		; 000000ccH
  00009	53		 push	 ebx
  0000a	56		 push	 esi
  0000b	57		 push	 edi
  0000c	51		 push	 ecx
  0000d	8d bd 34 ff ff
	ff		 lea	 edi, DWORD PTR [ebp-204]
  00013	b9 33 00 00 00	 mov	 ecx, 51			; 00000033H
  00018	b8 cc cc cc cc	 mov	 eax, -858993460		; ccccccccH
  0001d	f3 ab		 rep stosd
  0001f	59		 pop	 ecx
  00020	89 4d f8	 mov	 DWORD PTR _this$[ebp], ecx
  00023	8b 4d f8	 mov	 ecx, DWORD PTR _this$[ebp]
  00026	e8 00 00 00 00	 call	 ??1CTextures@@QAE@XZ	; CTextures::~CTextures
  0002b	8b 45 08	 mov	 eax, DWORD PTR ___flags$[ebp]
  0002e	83 e0 01	 and	 eax, 1
  00031	85 c0		 test	 eax, eax
  00033	74 0c		 je	 SHORT $L93785
  00035	8b 45 f8	 mov	 eax, DWORD PTR _this$[ebp]
  00038	50		 push	 eax
  00039	e8 00 00 00 00	 call	 ??3@YAXPAX@Z		; operator delete
  0003e	83 c4 04	 add	 esp, 4
$L93785:
  00041	8b 45 f8	 mov	 eax, DWORD PTR _this$[ebp]
  00044	5f		 pop	 edi
  00045	5e		 pop	 esi
  00046	5b		 pop	 ebx
  00047	81 c4 cc 00 00
	00		 add	 esp, 204		; 000000ccH
  0004d	3b ec		 cmp	 ebp, esp
  0004f	e8 00 00 00 00	 call	 __RTC_CheckEsp
  00054	8b e5		 mov	 esp, ebp
  00056	5d		 pop	 ebp
  00057	c2 04 00	 ret	 4
??_GCTextures@@QAEPAXI@Z ENDP				; CTextures::`scalar deleting destructor'
_TEXT	ENDS
PUBLIC	__real@41200000
PUBLIC	__real@453b8000
PUBLIC	__real@40a00000
PUBLIC	__real@44480000
PUBLIC	__real@41100000
PUBLIC	?GetTimeForLevel@Cx7@@QAEMH@Z			; Cx7::GetTimeForLevel
PUBLIC	?GetOceanColourForLevel@Cx7@@QAEXHPAUD3DXCOLOR@@@Z ; Cx7::GetOceanColourForLevel
PUBLIC	?GetOceanTextureForLevel@Cx7@@QAEHH@Z		; Cx7::GetOceanTextureForLevel
PUBLIC	?GetLightingAndSkyboxTexturesForLevel@Cx7@@QAE?AW4e_LightingType@@HPAUD3DXCOLOR@@PAH@Z ; Cx7::GetLightingAndSkyboxTexturesForLevel
PUBLIC	?GetTerrainTexturesForLevel@Cx7@@QAEXHPAH0@Z	; Cx7::GetTerrainTexturesForLevel
PUBLIC	??_C@_0M@GNFDLDGE@m_pTextures?$AA@		; `string'
PUBLIC	?__LINE__Var@?1??ThreadProc@Cx7@@UAEKXZ@4JA	; `Cx7::ThreadProc'::`2'::__LINE__Var
PUBLIC	??_C@_0M@EGAMCFJO@m_pTestRace?$AA@		; `string'
PUBLIC	??_C@_0CC@OJDEPIEF@m_pTextures?9?$DORestoreDeviceObject@ ; `string'
PUBLIC	??_C@_08OFPOHIDN@hr?$DN?$DNS_OK?$AA@		; `string'
PUBLIC	??_C@_0CC@HAFELBOM@m_pTestRace?9?$DORestoreDeviceObject@ ; `string'
PUBLIC	??0D3DXCOLOR@@QAE@XZ				; D3DXCOLOR::D3DXCOLOR
PUBLIC	??BD3DXCOLOR@@QBEKXZ				; D3DXCOLOR::operator unsigned long
EXTRN	_strcpy:NEAR
EXTRN	__ftol2:NEAR
EXTRN	??0CTextures@@QAE@PAD0W4e_LightingType@@HHH@Z:NEAR ; CTextures::CTextures
EXTRN	?RestoreDeviceObjects@CTextures@@QAEJPAUIDirect3D8@@PAUIDirect3DDevice8@@@Z:NEAR ; CTextures::RestoreDeviceObjects
EXTRN	??0CRace@@QAE@PAVCx7@@PAUIDirect3DDevice8@@HMHPAUD3DXCOLOR@@_N3KMHHII@Z:NEAR ; CRace::CRace
EXTRN	?RestoreDeviceObjects@CRace@@QAEJPAUIDirect3D8@@PAUIDirect3DDevice8@@MPAVCScreenOverlayManager@@PAVCTextures@@@Z:NEAR ; CRace::RestoreDeviceObjects
;	COMDAT ??_C@_0M@GNFDLDGE@m_pTextures?$AA@
CONST	SEGMENT
??_C@_0M@GNFDLDGE@m_pTextures?$AA@ DB 'm_pTextures', 00H ; `string'
CONST	ENDS
;	COMDAT ?__LINE__Var@?1??ThreadProc@Cx7@@UAEKXZ@4JA
_DATA	SEGMENT
?__LINE__Var@?1??ThreadProc@Cx7@@UAEKXZ@4JA DD 0204H	; `Cx7::ThreadProc'::`2'::__LINE__Var
_DATA	ENDS
;	COMDAT ??_C@_0M@EGAMCFJO@m_pTestRace?$AA@
CONST	SEGMENT
??_C@_0M@EGAMCFJO@m_pTestRace?$AA@ DB 'm_pTestRace', 00H ; `string'
CONST	ENDS
;	COMDAT __real@41200000
CONST	SEGMENT
__real@41200000 DD 041200000r			; 10
CONST	ENDS
;	COMDAT __real@453b8000
CONST	SEGMENT
__real@453b8000 DD 0453b8000r			; 3000
CONST	ENDS
;	COMDAT __real@40a00000
CONST	SEGMENT
__real@40a00000 DD 040a00000r			; 5
CONST	ENDS
;	COMDAT __real@44480000
CONST	SEGMENT
__real@44480000 DD 044480000r			; 800
CONST	ENDS
;	COMDAT __real@41100000
CONST	SEGMENT
__real@41100000 DD 041100000r			; 9
CONST	ENDS
;	COMDAT ??_C@_0CC@OJDEPIEF@m_pTextures?9?$DORestoreDeviceObject@
CONST	SEGMENT
??_C@_0CC@OJDEPIEF@m_pTextures?9?$DORestoreDeviceObject@ DB 'm_pTextures-'
	DB	'>RestoreDeviceObjects', 00H			; `string'
CONST	ENDS
;	COMDAT ??_C@_08OFPOHIDN@hr?$DN?$DNS_OK?$AA@
CONST	SEGMENT
??_C@_08OFPOHIDN@hr?$DN?$DNS_OK?$AA@ DB 'hr==S_OK', 00H	; `string'
CONST	ENDS
;	COMDAT ??_C@_0CC@HAFELBOM@m_pTestRace?9?$DORestoreDeviceObject@
CONST	SEGMENT
??_C@_0CC@HAFELBOM@m_pTestRace?9?$DORestoreDeviceObject@ DB 'm_pTestRace-'
	DB	'>RestoreDeviceObjects', 00H			; `string'
; Function compile flags: /Odt /RTCsu /ZI
CONST	ENDS
;	COMDAT ?ThreadProc@Cx7@@UAEKXZ
_TEXT	SEGMENT
tv303 = -364
tv228 = -364
tv361 = -360
tv352 = -356
tv298 = -356
tv343 = -352
tv149 = -352
$T94588 = -344
$T94584 = -332
_nTerrainTex2$ = -128
_nTerrainTex1$ = -116
_light_type$ = -104
_Ambient$ = -92
_nSkyboxFolder$ = -68
_OceanColour$ = -56
_fAspect$ = -32
_hr$ = -20
_this$ = -8
?ThreadProc@Cx7@@UAEKXZ PROC NEAR			; Cx7::ThreadProc, COMDAT
; _this$ = ecx

; 516  : 	{

  00000	55		 push	 ebp
  00001	8b ec		 mov	 ebp, esp
  00003	81 ec 6c 01 00
	00		 sub	 esp, 364		; 0000016cH
  00009	53		 push	 ebx
  0000a	56		 push	 esi
  0000b	57		 push	 edi
  0000c	51		 push	 ecx
  0000d	8d bd 94 fe ff
	ff		 lea	 edi, DWORD PTR [ebp-364]
  00013	b9 5b 00 00 00	 mov	 ecx, 91			; 0000005bH
  00018	b8 cc cc cc cc	 mov	 eax, -858993460		; ccccccccH
  0001d	f3 ab		 rep stosd
  0001f	59		 pop	 ecx
  00020	89 4d f8	 mov	 DWORD PTR _this$[ebp], ecx

; 517  : 		HRESULT hr ;
; 518  : 		FLOAT fAspect = m_d3dsdBackBuffer.Width / (FLOAT)m_d3dsdBackBuffer.Height ;

  00023	8b 45 f8	 mov	 eax, DWORD PTR _this$[ebp]
  00026	8b 88 d0 fd ff
	ff		 mov	 ecx, DWORD PTR [eax-560]
  0002c	89 8d 9c fe ff
	ff		 mov	 DWORD PTR tv298[ebp], ecx
  00032	c7 85 a0 fe ff
	ff 00 00 00 00	 mov	 DWORD PTR tv298[ebp+4], 0
  0003c	df ad 9c fe ff
	ff		 fild	 QWORD PTR tv298[ebp]
  00042	8b 55 f8	 mov	 edx, DWORD PTR _this$[ebp]
  00045	8b 82 d4 fd ff
	ff		 mov	 eax, DWORD PTR [edx-556]
  0004b	89 85 94 fe ff
	ff		 mov	 DWORD PTR tv303[ebp], eax
  00051	c7 85 98 fe ff
	ff 00 00 00 00	 mov	 DWORD PTR tv303[ebp+4], 0
  0005b	df ad 94 fe ff
	ff		 fild	 QWORD PTR tv303[ebp]
  00061	de f9		 fdivp	 ST(1), ST(0)
  00063	d9 5d e0	 fstp	 DWORD PTR _fAspect$[ebp]

; 519  : 
; 520  : 	//
; 521  : 	// Get some of the level attributes:
; 522  : 	//
; 523  : 		D3DXCOLOR OceanColour ;								

  00066	8d 4d c8	 lea	 ecx, DWORD PTR _OceanColour$[ebp]
  00069	e8 00 00 00 00	 call	 ??0D3DXCOLOR@@QAE@XZ	; D3DXCOLOR::D3DXCOLOR

; 524  : 		int nSkyboxFolder ;
; 525  : 		D3DXCOLOR Ambient ;

  0006e	8d 4d a4	 lea	 ecx, DWORD PTR _Ambient$[ebp]
  00071	e8 00 00 00 00	 call	 ??0D3DXCOLOR@@QAE@XZ	; D3DXCOLOR::D3DXCOLOR

; 526  : 		e_LightingType light_type ;
; 527  : 		int nTerrainTex1, nTerrainTex2 ;
; 528  : 
; 529  : 		GetOceanColourForLevel( m_nLevel, &OceanColour );

  00076	8d 45 c8	 lea	 eax, DWORD PTR _OceanColour$[ebp]
  00079	50		 push	 eax
  0007a	8b 4d f8	 mov	 ecx, DWORD PTR _this$[ebp]
  0007d	8b 91 3c 01 00
	00		 mov	 edx, DWORD PTR [ecx+316]
  00083	52		 push	 edx
  00084	8b 4d f8	 mov	 ecx, DWORD PTR _this$[ebp]
  00087	81 e9 c8 a7 02
	00		 sub	 ecx, 174024		; 0002a7c8H
  0008d	e8 00 00 00 00	 call	 ?GetOceanColourForLevel@Cx7@@QAEXHPAUD3DXCOLOR@@@Z ; Cx7::GetOceanColourForLevel

; 530  : 		light_type = GetLightingAndSkyboxTexturesForLevel( m_nLevel, &Ambient, &nSkyboxFolder );

  00092	8d 45 bc	 lea	 eax, DWORD PTR _nSkyboxFolder$[ebp]
  00095	50		 push	 eax
  00096	8d 4d a4	 lea	 ecx, DWORD PTR _Ambient$[ebp]
  00099	51		 push	 ecx
  0009a	8b 55 f8	 mov	 edx, DWORD PTR _this$[ebp]
  0009d	8b 82 3c 01 00
	00		 mov	 eax, DWORD PTR [edx+316]
  000a3	50		 push	 eax
  000a4	8b 4d f8	 mov	 ecx, DWORD PTR _this$[ebp]
  000a7	81 e9 c8 a7 02
	00		 sub	 ecx, 174024		; 0002a7c8H
  000ad	e8 00 00 00 00	 call	 ?GetLightingAndSkyboxTexturesForLevel@Cx7@@QAE?AW4e_LightingType@@HPAUD3DXCOLOR@@PAH@Z ; Cx7::GetLightingAndSkyboxTexturesForLevel
  000b2	89 45 98	 mov	 DWORD PTR _light_type$[ebp], eax

; 531  : 		GetTerrainTexturesForLevel( m_nLevel, &nTerrainTex1, &nTerrainTex2 );

  000b5	8d 45 80	 lea	 eax, DWORD PTR _nTerrainTex2$[ebp]
  000b8	50		 push	 eax
  000b9	8d 4d 8c	 lea	 ecx, DWORD PTR _nTerrainTex1$[ebp]
  000bc	51		 push	 ecx
  000bd	8b 55 f8	 mov	 edx, DWORD PTR _this$[ebp]
  000c0	8b 82 3c 01 00
	00		 mov	 eax, DWORD PTR [edx+316]
  000c6	50		 push	 eax
  000c7	8b 4d f8	 mov	 ecx, DWORD PTR _this$[ebp]
  000ca	81 e9 c8 a7 02
	00		 sub	 ecx, 174024		; 0002a7c8H
  000d0	e8 00 00 00 00	 call	 ?GetTerrainTexturesForLevel@Cx7@@QAEXHPAH0@Z ; Cx7::GetTerrainTexturesForLevel

; 532  : 
; 533  : 	//
; 534  : 	// Load texture pool, informing tex. manager of our some of our level's attributes.
; 535  : 	// This is to stop it loading all resources for these types, and just the ones
; 536  : 	// that we will be drawing with.
; 537  : 	//
; 538  : 		strcpy(m_szLoadingGameStatus, "m_pTextures") ;

  000d5	68 00 00 00 00	 push	 OFFSET FLAT:??_C@_0M@GNFDLDGE@m_pTextures?$AA@
  000da	8b 45 f8	 mov	 eax, DWORD PTR _this$[ebp]
  000dd	83 c0 19	 add	 eax, 25			; 00000019H
  000e0	50		 push	 eax
  000e1	e8 00 00 00 00	 call	 _strcpy
  000e6	83 c4 08	 add	 esp, 8

; 539  : 		m_pTextures = new CTextures( m_szLoadingGameInfo1, m_szLoadingGameInfo2, light_type, nSkyboxFolder, nTerrainTex1, nTerrainTex2 );

  000e9	68 1c 10 00 00	 push	 4124			; 0000101cH
  000ee	e8 00 00 00 00	 call	 ??2@YAPAXI@Z		; operator new
  000f3	83 c4 04	 add	 esp, 4
  000f6	89 85 b4 fe ff
	ff		 mov	 DWORD PTR $T94584[ebp], eax
  000fc	83 bd b4 fe ff
	ff 00		 cmp	 DWORD PTR $T94584[ebp], 0
  00103	74 34		 je	 SHORT $L94585
  00105	8b 45 80	 mov	 eax, DWORD PTR _nTerrainTex2$[ebp]
  00108	50		 push	 eax
  00109	8b 4d 8c	 mov	 ecx, DWORD PTR _nTerrainTex1$[ebp]
  0010c	51		 push	 ecx
  0010d	8b 55 bc	 mov	 edx, DWORD PTR _nSkyboxFolder$[ebp]
  00110	52		 push	 edx
  00111	8b 45 98	 mov	 eax, DWORD PTR _light_type$[ebp]
  00114	50		 push	 eax
  00115	8b 4d f8	 mov	 ecx, DWORD PTR _this$[ebp]
  00118	81 c1 b9 00 00
	00		 add	 ecx, 185		; 000000b9H
  0011e	51		 push	 ecx
  0011f	8b 55 f8	 mov	 edx, DWORD PTR _this$[ebp]
  00122	83 c2 69	 add	 edx, 105		; 00000069H
  00125	52		 push	 edx
  00126	8b 8d b4 fe ff
	ff		 mov	 ecx, DWORD PTR $T94584[ebp]
  0012c	e8 00 00 00 00	 call	 ??0CTextures@@QAE@PAD0W4e_LightingType@@HHH@Z ; CTextures::CTextures
  00131	89 85 a0 fe ff
	ff		 mov	 DWORD PTR tv149[ebp], eax
  00137	eb 0a		 jmp	 SHORT $L94586
$L94585:
  00139	c7 85 a0 fe ff
	ff 00 00 00 00	 mov	 DWORD PTR tv149[ebp], 0
$L94586:
  00143	8b 45 f8	 mov	 eax, DWORD PTR _this$[ebp]
  00146	8b 8d a0 fe ff
	ff		 mov	 ecx, DWORD PTR tv149[ebp]
  0014c	89 88 20 01 00
	00		 mov	 DWORD PTR [eax+288], ecx

; 540  : 		assert( m_pTextures );

  00152	8b 45 f8	 mov	 eax, DWORD PTR _this$[ebp]
  00155	83 b8 20 01 00
	00 00		 cmp	 DWORD PTR [eax+288], 0
  0015c	75 1c		 jne	 SHORT $L94587
  0015e	8b 0d 00 00 00
	00		 mov	 ecx, DWORD PTR ?__LINE__Var@?1??ThreadProc@Cx7@@UAEKXZ@4JA
  00164	83 c1 18	 add	 ecx, 24			; 00000018H
  00167	51		 push	 ecx
  00168	68 00 00 00 00	 push	 OFFSET FLAT:??_C@_0EE@BKJCFEJB@c?3?2documents?5and?5settings?2dom?2my@
  0016d	68 00 00 00 00	 push	 OFFSET FLAT:??_C@_0M@GNFDLDGE@m_pTextures?$AA@
  00172	e8 00 00 00 00	 call	 __assert
  00177	83 c4 0c	 add	 esp, 12			; 0000000cH
$L94587:

; 541  : 
; 542  : 	//
; 543  : 	// Load race manager:
; 544  : 	//
; 545  : 		strcpy(m_szLoadingGameStatus, "m_pTestRace") ;

  0017a	68 00 00 00 00	 push	 OFFSET FLAT:??_C@_0M@EGAMCFJO@m_pTestRace?$AA@
  0017f	8b 45 f8	 mov	 eax, DWORD PTR _this$[ebp]
  00182	83 c0 19	 add	 eax, 25			; 00000019H
  00185	50		 push	 eax
  00186	e8 00 00 00 00	 call	 _strcpy
  0018b	83 c4 08	 add	 esp, 8

; 546  : 
; 547  : 		m_pTestRace = new CRace( this,
; 548  : 								 m_pd3dDevice,
; 549  : 								 m_nLevel,
; 550  : 								 GetTimeForLevel( m_nLevel ),
; 551  : 								 GetOceanTextureForLevel( m_nLevel ),
; 552  : 								 &OceanColour,
; 553  : 					 		     false,												/* bSolidOcean */
; 554  : 								 ( light_type == LT_NIGHT ),						/* bNight */
; 555  : 								 Ambient,
; 556  : 								 ((float)(m_nLevel % 10) / 9),						/* fMountainFactor */
; 557  : 								 nTerrainTex1,
; 558  : 								 nTerrainTex2,
; 559  : 								 (unsigned)(((float)(m_nLevel % 5) / 5) * 800),		/* nNoisePatches1 */
; 560  : 								 (unsigned)(((float)(m_nLevel % 10) / 10) * 3000)	/* nNoisePatches2 */
; 561  : 								 );

  0018e	68 14 01 00 00	 push	 276			; 00000114H
  00193	e8 00 00 00 00	 call	 ??2@YAPAXI@Z		; operator new
  00198	83 c4 04	 add	 esp, 4
  0019b	89 85 a8 fe ff
	ff		 mov	 DWORD PTR $T94588[ebp], eax
  001a1	83 bd a8 fe ff
	ff 00		 cmp	 DWORD PTR $T94588[ebp], 0
  001a8	0f 84 09 01 00
	00		 je	 $L94589
  001ae	8b 45 f8	 mov	 eax, DWORD PTR _this$[ebp]
  001b1	8b 80 3c 01 00
	00		 mov	 eax, DWORD PTR [eax+316]
  001b7	99		 cdq
  001b8	b9 0a 00 00 00	 mov	 ecx, 10			; 0000000aH
  001bd	f7 f9		 idiv	 ecx
  001bf	89 95 a0 fe ff
	ff		 mov	 DWORD PTR tv343[ebp], edx
  001c5	db 85 a0 fe ff
	ff		 fild	 DWORD PTR tv343[ebp]
  001cb	d8 35 00 00 00
	00		 fdiv	 DWORD PTR __real@41200000
  001d1	d8 0d 00 00 00
	00		 fmul	 DWORD PTR __real@453b8000
  001d7	e8 00 00 00 00	 call	 __ftol2
  001dc	50		 push	 eax
  001dd	8b 55 f8	 mov	 edx, DWORD PTR _this$[ebp]
  001e0	8b 82 3c 01 00
	00		 mov	 eax, DWORD PTR [edx+316]
  001e6	99		 cdq
  001e7	b9 05 00 00 00	 mov	 ecx, 5
  001ec	f7 f9		 idiv	 ecx
  001ee	89 95 9c fe ff
	ff		 mov	 DWORD PTR tv352[ebp], edx
  001f4	db 85 9c fe ff
	ff		 fild	 DWORD PTR tv352[ebp]
  001fa	d8 35 00 00 00
	00		 fdiv	 DWORD PTR __real@40a00000
  00200	d8 0d 00 00 00
	00		 fmul	 DWORD PTR __real@44480000
  00206	e8 00 00 00 00	 call	 __ftol2
  0020b	50		 push	 eax
  0020c	8b 55 80	 mov	 edx, DWORD PTR _nTerrainTex2$[ebp]
  0020f	52		 push	 edx
  00210	8b 45 8c	 mov	 eax, DWORD PTR _nTerrainTex1$[ebp]
  00213	50		 push	 eax
  00214	8b 4d f8	 mov	 ecx, DWORD PTR _this$[ebp]
  00217	8b 81 3c 01 00
	00		 mov	 eax, DWORD PTR [ecx+316]
  0021d	99		 cdq
  0021e	b9 0a 00 00 00	 mov	 ecx, 10			; 0000000aH
  00223	f7 f9		 idiv	 ecx
  00225	89 95 98 fe ff
	ff		 mov	 DWORD PTR tv361[ebp], edx
  0022b	db 85 98 fe ff
	ff		 fild	 DWORD PTR tv361[ebp]
  00231	d8 35 00 00 00
	00		 fdiv	 DWORD PTR __real@41100000
  00237	51		 push	 ecx
  00238	d9 1c 24	 fstp	 DWORD PTR [esp]
  0023b	8d 4d a4	 lea	 ecx, DWORD PTR _Ambient$[ebp]
  0023e	e8 00 00 00 00	 call	 ??BD3DXCOLOR@@QBEKXZ	; D3DXCOLOR::operator unsigned long
  00243	50		 push	 eax
  00244	83 7d 98 02	 cmp	 DWORD PTR _light_type$[ebp], 2
  00248	0f 94 c2	 sete	 dl
  0024b	52		 push	 edx
  0024c	6a 00		 push	 0
  0024e	8d 45 c8	 lea	 eax, DWORD PTR _OceanColour$[ebp]
  00251	50		 push	 eax
  00252	8b 4d f8	 mov	 ecx, DWORD PTR _this$[ebp]
  00255	8b 91 3c 01 00
	00		 mov	 edx, DWORD PTR [ecx+316]
  0025b	52		 push	 edx
  0025c	8b 4d f8	 mov	 ecx, DWORD PTR _this$[ebp]
  0025f	81 e9 c8 a7 02
	00		 sub	 ecx, 174024		; 0002a7c8H
  00265	e8 00 00 00 00	 call	 ?GetOceanTextureForLevel@Cx7@@QAEHH@Z ; Cx7::GetOceanTextureForLevel
  0026a	50		 push	 eax
  0026b	8b 45 f8	 mov	 eax, DWORD PTR _this$[ebp]
  0026e	8b 88 3c 01 00
	00		 mov	 ecx, DWORD PTR [eax+316]
  00274	51		 push	 ecx
  00275	8b 4d f8	 mov	 ecx, DWORD PTR _this$[ebp]
  00278	81 e9 c8 a7 02
	00		 sub	 ecx, 174024		; 0002a7c8H
  0027e	e8 00 00 00 00	 call	 ?GetTimeForLevel@Cx7@@QAEMH@Z ; Cx7::GetTimeForLevel
  00283	51		 push	 ecx
  00284	d9 1c 24	 fstp	 DWORD PTR [esp]
  00287	8b 55 f8	 mov	 edx, DWORD PTR _this$[ebp]
  0028a	8b 82 3c 01 00
	00		 mov	 eax, DWORD PTR [edx+316]
  00290	50		 push	 eax
  00291	8b 4d f8	 mov	 ecx, DWORD PTR _this$[ebp]
  00294	8b 91 e0 fc ff
	ff		 mov	 edx, DWORD PTR [ecx-800]
  0029a	52		 push	 edx
  0029b	8b 45 f8	 mov	 eax, DWORD PTR _this$[ebp]
  0029e	2d c8 a7 02 00	 sub	 eax, 174024		; 0002a7c8H
  002a3	50		 push	 eax
  002a4	8b 8d a8 fe ff
	ff		 mov	 ecx, DWORD PTR $T94588[ebp]
  002aa	e8 00 00 00 00	 call	 ??0CRace@@QAE@PAVCx7@@PAUIDirect3DDevice8@@HMHPAUD3DXCOLOR@@_N3KMHHII@Z ; CRace::CRace
  002af	89 85 94 fe ff
	ff		 mov	 DWORD PTR tv228[ebp], eax
  002b5	eb 0a		 jmp	 SHORT $L94590
$L94589:
  002b7	c7 85 94 fe ff
	ff 00 00 00 00	 mov	 DWORD PTR tv228[ebp], 0
$L94590:
  002c1	8b 4d f8	 mov	 ecx, DWORD PTR _this$[ebp]
  002c4	8b 95 94 fe ff
	ff		 mov	 edx, DWORD PTR tv228[ebp]
  002ca	89 91 24 01 00
	00		 mov	 DWORD PTR [ecx+292], edx

; 562  : 		assert( m_pTestRace );

  002d0	8b 45 f8	 mov	 eax, DWORD PTR _this$[ebp]
  002d3	83 b8 24 01 00
	00 00		 cmp	 DWORD PTR [eax+292], 0
  002da	75 1c		 jne	 SHORT $L94591
  002dc	8b 0d 00 00 00
	00		 mov	 ecx, DWORD PTR ?__LINE__Var@?1??ThreadProc@Cx7@@UAEKXZ@4JA
  002e2	83 c1 2e	 add	 ecx, 46			; 0000002eH
  002e5	51		 push	 ecx
  002e6	68 00 00 00 00	 push	 OFFSET FLAT:??_C@_0EE@BKJCFEJB@c?3?2documents?5and?5settings?2dom?2my@
  002eb	68 00 00 00 00	 push	 OFFSET FLAT:??_C@_0M@EGAMCFJO@m_pTestRace?$AA@
  002f0	e8 00 00 00 00	 call	 __assert
  002f5	83 c4 0c	 add	 esp, 12			; 0000000cH
$L94591:

; 563  : 		m_bRaceCreated = true ;

  002f8	8b 45 f8	 mov	 eax, DWORD PTR _this$[ebp]
  002fb	c6 40 18 01	 mov	 BYTE PTR [eax+24], 1

; 564  : 
; 565  : 		/*EnableMenuItem(m_hMenu, ID_VIEW_OBJECTS_SKYDOME, m_pTestRace->m_pSky ? MF_ENABLED : MF_GRAYED) ;
; 566  : 		CheckMenuItem(m_hMenu,  ID_VIEW_OBJECTS_SKYDOME, m_pTestRace->m_pSky && m_pTestRace->m_bShowSky ? MF_CHECKED : MF_UNCHECKED) ;
; 567  : 		EnableMenuItem(m_hMenu, ID_VIEW_OBJECTS_TERRAIN2,  m_pTestRace->m_pTerrain ? MF_ENABLED : MF_GRAYED) ;
; 568  : 		CheckMenuItem(m_hMenu,  ID_VIEW_OBJECTS_TERRAIN2,  m_pTestRace->m_pTerrain && m_pTestRace->m_bShowTerrain ? MF_CHECKED : MF_UNCHECKED) ;
; 569  : 		EnableMenuItem(m_hMenu, ID_VIEW_OBJECTS_FIGHTER, m_pTestRace->m_pFighter ? MF_ENABLED : MF_GRAYED) ;
; 570  : 		CheckMenuItem(m_hMenu,  ID_VIEW_OBJECTS_FIGHTER, m_pTestRace->m_pFighter && m_pTestRace->m_bShowFighter ? MF_CHECKED : MF_UNCHECKED) ;
; 571  : 		EnableMenuItem(m_hMenu, ID_VIEW_OBJECTS_FLATGROUND, m_pTestRace->m_pOcean ? MF_ENABLED : MF_GRAYED) ;
; 572  : 		CheckMenuItem(m_hMenu,  ID_VIEW_OBJECTS_FLATGROUND, m_pTestRace->m_pOcean && m_pTestRace->m_bShowOcean ? MF_CHECKED : MF_UNCHECKED) ;
; 573  : 		
; 574  : 		CheckMenuItem(m_hMenu,  ID_VIEW_HUD, m_pTestRace->m_bShowHUD ? MF_CHECKED : MF_UNCHECKED) ;
; 575  : 
; 576  : 		CheckMenuItem(m_hMenu,  ID_VIEW_CAMERA_FREE, m_pTestRace->m_pFighter && m_pTestRace->m_ctCamMode == CT_FREE ? MF_CHECKED : MF_UNCHECKED) ;
; 577  : 		CheckMenuItem(m_hMenu,  ID_VIEW_CAMERA_BEHINDFIXED1, m_pTestRace->m_pFighter && m_pTestRace->m_ctCamMode == CT_BEHIND_FIXED1 ? MF_CHECKED : MF_UNCHECKED) ;
; 578  : 		CheckMenuItem(m_hMenu,  ID_VIEW_CAMERA_BEHINDFIXED2, m_pTestRace->m_pFighter && m_pTestRace->m_ctCamMode == CT_BEHIND_FIXED2 ? MF_CHECKED : MF_UNCHECKED) ;
; 579  : 		CheckMenuItem(m_hMenu,  ID_VIEW_CAMERA_BEHINDFIXED2, m_pTestRace->m_pFighter && m_pTestRace->m_ctCamMode == CT_BEHIND_FIXED3 ? MF_CHECKED : MF_UNCHECKED) ;
; 580  : 		CheckMenuItem(m_hMenu,  ID_VIEW_CAMERA_BEHINDVARIABLE1, m_pTestRace->m_pFighter && m_pTestRace->m_ctCamMode == CT_BEHIND_VARIABLE1 ? MF_CHECKED : MF_UNCHECKED) ;
; 581  : 		CheckMenuItem(m_hMenu,  ID_VIEW_CAMERA_BEHINDVARIABLE2, m_pTestRace->m_pFighter && m_pTestRace->m_ctCamMode == CT_BEHIND_VARIABLE2 ? MF_CHECKED : MF_UNCHECKED) ;
; 582  : 		CheckMenuItem(m_hMenu,  ID_VIEW_CAMERA_BEHINDVARIABLE2, m_pTestRace->m_pFighter && m_pTestRace->m_ctCamMode == CT_BEHIND_VARIABLE3 ? MF_CHECKED : MF_UNCHECKED) ;
; 583  : 		CheckMenuItem(m_hMenu,  ID_VIEW_CAMERA_COCKPITFIXED, m_pTestRace->m_pFighter && m_pTestRace->m_ctCamMode == CT_COCKPIT_FIXED ? MF_CHECKED : MF_UNCHECKED) ;
; 584  : 		CheckMenuItem(m_hMenu,  ID_VIEW_CAMERA_COCKPITROLL, m_pTestRace->m_pFighter && m_pTestRace->m_ctCamMode == CT_COCKPIT_ROLL ? MF_CHECKED : MF_UNCHECKED) ;
; 585  : 		CheckMenuItem(m_hMenu,  ID_VIEW_CAMERA_SHOWOFF, m_pTestRace->m_pFighter && m_pTestRace->m_ctCamMode == CT_SHOWOFF ? MF_CHECKED : MF_UNCHECKED) ;
; 586  : 
; 587  : 		CheckMenuItem(m_hMenu,  ID_VIEW_FIGHTER_NORMAL, m_pTestRace->m_pFighter && m_pTestRace->m_rtFighterMode == FRT_NORMAL ? MF_CHECKED : MF_UNCHECKED) ;
; 588  : 		CheckMenuItem(m_hMenu,  ID_VIEW_FIGHTER_CHROME, m_pTestRace->m_pFighter && m_pTestRace->m_rtFighterMode  == FRT_CHROME ? MF_CHECKED : MF_UNCHECKED) ;
; 589  : 		CheckMenuItem(m_hMenu,  ID_VIEW_FIGHTER_GLASS, m_pTestRace->m_pFighter && m_pTestRace->m_rtFighterMode  == FRT_GLASS ? MF_CHECKED : MF_UNCHECKED) ;*/
; 590  : 
; 591  : 	//
; 592  : 	// Create D3D device-dependent render objects:
; 593  : 	//
; 594  : 		strcpy(m_szLoadingGameStatus, "m_pTextures->RestoreDeviceObjects") ;

  002ff	68 00 00 00 00	 push	 OFFSET FLAT:??_C@_0CC@OJDEPIEF@m_pTextures?9?$DORestoreDeviceObject@
  00304	8b 45 f8	 mov	 eax, DWORD PTR _this$[ebp]
  00307	83 c0 19	 add	 eax, 25			; 00000019H
  0030a	50		 push	 eax
  0030b	e8 00 00 00 00	 call	 _strcpy
  00310	83 c4 08	 add	 esp, 8

; 595  : 		if (m_pTextures)

  00313	8b 45 f8	 mov	 eax, DWORD PTR _this$[ebp]
  00316	83 b8 20 01 00
	00 00		 cmp	 DWORD PTR [eax+288], 0
  0031d	74 46		 je	 SHORT $L93813

; 596  : 		{
; 597  : 			hr = m_pTextures->RestoreDeviceObjects(m_pD3D, m_pd3dDevice) ;

  0031f	8b 45 f8	 mov	 eax, DWORD PTR _this$[ebp]
  00322	8b 88 e0 fc ff
	ff		 mov	 ecx, DWORD PTR [eax-800]
  00328	51		 push	 ecx
  00329	8b 55 f8	 mov	 edx, DWORD PTR _this$[ebp]
  0032c	8b 82 dc fc ff
	ff		 mov	 eax, DWORD PTR [edx-804]
  00332	50		 push	 eax
  00333	8b 4d f8	 mov	 ecx, DWORD PTR _this$[ebp]
  00336	8b 89 20 01 00
	00		 mov	 ecx, DWORD PTR [ecx+288]
  0033c	e8 00 00 00 00	 call	 ?RestoreDeviceObjects@CTextures@@QAEJPAUIDirect3D8@@PAUIDirect3DDevice8@@@Z ; CTextures::RestoreDeviceObjects
  00341	89 45 ec	 mov	 DWORD PTR _hr$[ebp], eax

; 598  : 			assert( hr==S_OK );

  00344	83 7d ec 00	 cmp	 DWORD PTR _hr$[ebp], 0
  00348	74 1b		 je	 SHORT $L93813
  0034a	a1 00 00 00 00	 mov	 eax, DWORD PTR ?__LINE__Var@?1??ThreadProc@Cx7@@UAEKXZ@4JA
  0034f	83 c0 52	 add	 eax, 82			; 00000052H
  00352	50		 push	 eax
  00353	68 00 00 00 00	 push	 OFFSET FLAT:??_C@_0EE@BKJCFEJB@c?3?2documents?5and?5settings?2dom?2my@
  00358	68 00 00 00 00	 push	 OFFSET FLAT:??_C@_08OFPOHIDN@hr?$DN?$DNS_OK?$AA@
  0035d	e8 00 00 00 00	 call	 __assert
  00362	83 c4 0c	 add	 esp, 12			; 0000000cH
$L93813:

; 599  : 		}
; 600  : 
; 601  : 		strcpy(m_szLoadingGameStatus, "m_pTestRace->RestoreDeviceObjects") ;

  00365	68 00 00 00 00	 push	 OFFSET FLAT:??_C@_0CC@HAFELBOM@m_pTestRace?9?$DORestoreDeviceObject@
  0036a	8b 45 f8	 mov	 eax, DWORD PTR _this$[ebp]
  0036d	83 c0 19	 add	 eax, 25			; 00000019H
  00370	50		 push	 eax
  00371	e8 00 00 00 00	 call	 _strcpy
  00376	83 c4 08	 add	 esp, 8

; 602  : 		if (m_pTestRace)

  00379	8b 45 f8	 mov	 eax, DWORD PTR _this$[ebp]
  0037c	83 b8 24 01 00
	00 00		 cmp	 DWORD PTR [eax+292], 0
  00383	74 5e		 je	 SHORT $L93818

; 603  : 		{
; 604  : 			hr = m_pTestRace->RestoreDeviceObjects(m_pD3D, m_pd3dDevice, fAspect, m_pOverlayMan, m_pTextures);

  00385	8b 45 f8	 mov	 eax, DWORD PTR _this$[ebp]
  00388	8b 88 20 01 00
	00		 mov	 ecx, DWORD PTR [eax+288]
  0038e	51		 push	 ecx
  0038f	8b 55 f8	 mov	 edx, DWORD PTR _this$[ebp]
  00392	8b 82 10 01 00
	00		 mov	 eax, DWORD PTR [edx+272]
  00398	50		 push	 eax
  00399	8b 4d e0	 mov	 ecx, DWORD PTR _fAspect$[ebp]
  0039c	51		 push	 ecx
  0039d	8b 55 f8	 mov	 edx, DWORD PTR _this$[ebp]
  003a0	8b 82 e0 fc ff
	ff		 mov	 eax, DWORD PTR [edx-800]
  003a6	50		 push	 eax
  003a7	8b 4d f8	 mov	 ecx, DWORD PTR _this$[ebp]
  003aa	8b 91 dc fc ff
	ff		 mov	 edx, DWORD PTR [ecx-804]
  003b0	52		 push	 edx
  003b1	8b 45 f8	 mov	 eax, DWORD PTR _this$[ebp]
  003b4	8b 88 24 01 00
	00		 mov	 ecx, DWORD PTR [eax+292]
  003ba	e8 00 00 00 00	 call	 ?RestoreDeviceObjects@CRace@@QAEJPAUIDirect3D8@@PAUIDirect3DDevice8@@MPAVCScreenOverlayManager@@PAVCTextures@@@Z ; CRace::RestoreDeviceObjects
  003bf	89 45 ec	 mov	 DWORD PTR _hr$[ebp], eax

; 605  : 			assert( hr==S_OK );

  003c2	83 7d ec 00	 cmp	 DWORD PTR _hr$[ebp], 0
  003c6	74 1b		 je	 SHORT $L93818
  003c8	a1 00 00 00 00	 mov	 eax, DWORD PTR ?__LINE__Var@?1??ThreadProc@Cx7@@UAEKXZ@4JA
  003cd	83 c0 59	 add	 eax, 89			; 00000059H
  003d0	50		 push	 eax
  003d1	68 00 00 00 00	 push	 OFFSET FLAT:??_C@_0EE@BKJCFEJB@c?3?2documents?5and?5settings?2dom?2my@
  003d6	68 00 00 00 00	 push	 OFFSET FLAT:??_C@_08OFPOHIDN@hr?$DN?$DNS_OK?$AA@
  003db	e8 00 00 00 00	 call	 __assert
  003e0	83 c4 0c	 add	 esp, 12			; 0000000cH
$L93818:

; 606  : 		}
; 607  : 
; 608  : 
; 609  : 		m_bWaitingToStartGame = TRUE ;

  003e3	8b 45 f8	 mov	 eax, DWORD PTR _this$[ebp]
  003e6	c6 40 12 01	 mov	 BYTE PTR [eax+18], 1

; 610  : 
; 611  : 		//m_bAppMustExit = TRUE ;
; 612  : 
; 613  : 		return 1 ;

  003ea	b8 01 00 00 00	 mov	 eax, 1

; 614  : 	}

  003ef	52		 push	 edx
  003f0	8b cd		 mov	 ecx, ebp
  003f2	50		 push	 eax
  003f3	8d 15 00 00 00
	00		 lea	 edx, DWORD PTR $L94611
  003f9	e8 00 00 00 00	 call	 @_RTC_CheckStackVars@8
  003fe	58		 pop	 eax
  003ff	5a		 pop	 edx
  00400	5f		 pop	 edi
  00401	5e		 pop	 esi
  00402	5b		 pop	 ebx
  00403	81 c4 6c 01 00
	00		 add	 esp, 364		; 0000016cH
  00409	3b ec		 cmp	 ebp, esp
  0040b	e8 00 00 00 00	 call	 __RTC_CheckEsp
  00410	8b e5		 mov	 esp, ebp
  00412	5d		 pop	 ebp
  00413	c3		 ret	 0
$L94611:
  00414	05 00 00 00	 DD	 5
  00418	00 00 00 00	 DD	 $L94610
$L94610:
  0041c	c8 ff ff ff	 DD	 -56			; ffffffc8H
  00420	10 00 00 00	 DD	 16			; 00000010H
  00424	00 00 00 00	 DD	 $L94605
  00428	bc ff ff ff	 DD	 -68			; ffffffbcH
  0042c	04 00 00 00	 DD	 4
  00430	00 00 00 00	 DD	 $L94606
  00434	a4 ff ff ff	 DD	 -92			; ffffffa4H
  00438	10 00 00 00	 DD	 16			; 00000010H
  0043c	00 00 00 00	 DD	 $L94607
  00440	8c ff ff ff	 DD	 -116			; ffffff8cH
  00444	04 00 00 00	 DD	 4
  00448	00 00 00 00	 DD	 $L94608
  0044c	80 ff ff ff	 DD	 -128			; ffffff80H
  00450	04 00 00 00	 DD	 4
  00454	00 00 00 00	 DD	 $L94609
$L94609:
  00458	6e		 DB	 110			; 0000006eH
  00459	54		 DB	 84			; 00000054H
  0045a	65		 DB	 101			; 00000065H
  0045b	72		 DB	 114			; 00000072H
  0045c	72		 DB	 114			; 00000072H
  0045d	61		 DB	 97			; 00000061H
  0045e	69		 DB	 105			; 00000069H
  0045f	6e		 DB	 110			; 0000006eH
  00460	54		 DB	 84			; 00000054H
  00461	65		 DB	 101			; 00000065H
  00462	78		 DB	 120			; 00000078H
  00463	32		 DB	 50			; 00000032H
  00464	00		 DB	 0
$L94608:
  00465	6e		 DB	 110			; 0000006eH
  00466	54		 DB	 84			; 00000054H
  00467	65		 DB	 101			; 00000065H
  00468	72		 DB	 114			; 00000072H
  00469	72		 DB	 114			; 00000072H
  0046a	61		 DB	 97			; 00000061H
  0046b	69		 DB	 105			; 00000069H
  0046c	6e		 DB	 110			; 0000006eH
  0046d	54		 DB	 84			; 00000054H
  0046e	65		 DB	 101			; 00000065H
  0046f	78		 DB	 120			; 00000078H
  00470	31		 DB	 49			; 00000031H
  00471	00		 DB	 0
$L94607:
  00472	41		 DB	 65			; 00000041H
  00473	6d		 DB	 109			; 0000006dH
  00474	62		 DB	 98			; 00000062H
  00475	69		 DB	 105			; 00000069H
  00476	65		 DB	 101			; 00000065H
  00477	6e		 DB	 110			; 0000006eH
  00478	74		 DB	 116			; 00000074H
  00479	00		 DB	 0
$L94606:
  0047a	6e		 DB	 110			; 0000006eH
  0047b	53		 DB	 83			; 00000053H
  0047c	6b		 DB	 107			; 0000006bH
  0047d	79		 DB	 121			; 00000079H
  0047e	62		 DB	 98			; 00000062H
  0047f	6f		 DB	 111			; 0000006fH
  00480	78		 DB	 120			; 00000078H
  00481	46		 DB	 70			; 00000046H
  00482	6f		 DB	 111			; 0000006fH
  00483	6c		 DB	 108			; 0000006cH
  00484	64		 DB	 100			; 00000064H
  00485	65		 DB	 101			; 00000065H
  00486	72		 DB	 114			; 00000072H
  00487	00		 DB	 0
$L94605:
  00488	4f		 DB	 79			; 0000004fH
  00489	63		 DB	 99			; 00000063H
  0048a	65		 DB	 101			; 00000065H
  0048b	61		 DB	 97			; 00000061H
  0048c	6e		 DB	 110			; 0000006eH
  0048d	43		 DB	 67			; 00000043H
  0048e	6f		 DB	 111			; 0000006fH
  0048f	6c		 DB	 108			; 0000006cH
  00490	6f		 DB	 111			; 0000006fH
  00491	75		 DB	 117			; 00000075H
  00492	72		 DB	 114			; 00000072H
  00493	00		 DB	 0
?ThreadProc@Cx7@@UAEKXZ ENDP				; Cx7::ThreadProc
_TEXT	ENDS
PUBLIC	__real@43fa0000
PUBLIC	__real@447a0000
PUBLIC	__real@3f800000
PUBLIC	__real@00000000
PUBLIC	__real@41f00000
;	COMDAT __real@43fa0000
CONST	SEGMENT
__real@43fa0000 DD 043fa0000r			; 500
CONST	ENDS
;	COMDAT __real@447a0000
CONST	SEGMENT
__real@447a0000 DD 0447a0000r			; 1000
CONST	ENDS
;	COMDAT __real@3f800000
CONST	SEGMENT
__real@3f800000 DD 03f800000r			; 1
CONST	ENDS
;	COMDAT __real@00000000
CONST	SEGMENT
__real@00000000 DD 000000000r			; 0
CONST	ENDS
;	COMDAT __real@41f00000
CONST	SEGMENT
__real@41f00000 DD 041f00000r			; 30
; Function compile flags: /Odt /RTCsu /ZI
CONST	ENDS
;	COMDAT ?GetTimeForLevel@Cx7@@QAEMH@Z
_TEXT	SEGMENT
tv86 = -244
_fTime$ = -44
_fDec$ = -32
_fMaxTime$ = -20
_this$ = -8
_lev$ = 8
?GetTimeForLevel@Cx7@@QAEMH@Z PROC NEAR			; Cx7::GetTimeForLevel, COMDAT
; _this$ = ecx

; 623  : 	{

  00000	55		 push	 ebp
  00001	8b ec		 mov	 ebp, esp
  00003	81 ec f4 00 00
	00		 sub	 esp, 244		; 000000f4H
  00009	53		 push	 ebx
  0000a	56		 push	 esi
  0000b	57		 push	 edi
  0000c	51		 push	 ecx
  0000d	8d bd 0c ff ff
	ff		 lea	 edi, DWORD PTR [ebp-244]
  00013	b9 3d 00 00 00	 mov	 ecx, 61			; 0000003dH
  00018	b8 cc cc cc cc	 mov	 eax, -858993460		; ccccccccH
  0001d	f3 ab		 rep stosd
  0001f	59		 pop	 ecx
  00020	89 4d f8	 mov	 DWORD PTR _this$[ebp], ecx

; 624  : 		float fMaxTime = 60 * 3 ;

  00023	c7 45 ec 00 00
	34 43		 mov	 DWORD PTR _fMaxTime$[ebp], 1127481344 ; 43340000H

; 625  : 		float fDec = (fMaxTime / (float)MAX_LEV) * 1000 * (1-(float)lev/(float)MAX_LEV) ;

  0002a	d9 45 ec	 fld	 DWORD PTR _fMaxTime$[ebp]
  0002d	d8 35 00 00 00
	00		 fdiv	 DWORD PTR __real@43fa0000
  00033	d8 0d 00 00 00
	00		 fmul	 DWORD PTR __real@447a0000
  00039	db 45 08	 fild	 DWORD PTR _lev$[ebp]
  0003c	d8 35 00 00 00
	00		 fdiv	 DWORD PTR __real@43fa0000
  00042	d8 2d 00 00 00
	00		 fsubr	 DWORD PTR __real@3f800000
  00048	de c9		 fmulp	 ST(1), ST(0)
  0004a	d9 5d e0	 fstp	 DWORD PTR _fDec$[ebp]

; 626  : 		float fTime = ( fMaxTime - ( (float)((lev-1) * fDec) * (float)lev/(float)MAX_LEV ) );

  0004d	8b 45 08	 mov	 eax, DWORD PTR _lev$[ebp]
  00050	83 e8 01	 sub	 eax, 1
  00053	89 85 0c ff ff
	ff		 mov	 DWORD PTR tv86[ebp], eax
  00059	db 85 0c ff ff
	ff		 fild	 DWORD PTR tv86[ebp]
  0005f	d8 4d e0	 fmul	 DWORD PTR _fDec$[ebp]
  00062	da 4d 08	 fimul	 DWORD PTR _lev$[ebp]
  00065	d8 35 00 00 00
	00		 fdiv	 DWORD PTR __real@43fa0000
  0006b	d8 6d ec	 fsubr	 DWORD PTR _fMaxTime$[ebp]
  0006e	d9 5d d4	 fstp	 DWORD PTR _fTime$[ebp]

; 627  : 		if( fTime < 0 ) fTime = 0 ;

  00071	d9 45 d4	 fld	 DWORD PTR _fTime$[ebp]
  00074	d8 1d 00 00 00
	00		 fcomp	 DWORD PTR __real@00000000
  0007a	df e0		 fnstsw	 ax
  0007c	f6 c4 05	 test	 ah, 5
  0007f	7a 07		 jp	 SHORT $L93834
  00081	c7 45 d4 00 00
	00 00		 mov	 DWORD PTR _fTime$[ebp], 0
$L93834:

; 628  : 		return fTime + 30 ;

  00088	d9 45 d4	 fld	 DWORD PTR _fTime$[ebp]
  0008b	d8 05 00 00 00
	00		 fadd	 DWORD PTR __real@41f00000

; 629  : 	}

  00091	5f		 pop	 edi
  00092	5e		 pop	 esi
  00093	5b		 pop	 ebx
  00094	8b e5		 mov	 esp, ebp
  00096	5d		 pop	 ebp
  00097	c2 04 00	 ret	 4
?GetTimeForLevel@Cx7@@QAEMH@Z ENDP			; Cx7::GetTimeForLevel
_TEXT	ENDS
PUBLIC	__real@43160000
PUBLIC	__real@43960000
PUBLIC	__real@43e10000
PUBLIC	__real@3f000000
PUBLIC	__real@3e800000
EXTRN	?rnd@@YAMXZ:NEAR				; rnd
;	COMDAT __real@43160000
CONST	SEGMENT
__real@43160000 DD 043160000r			; 150
CONST	ENDS
;	COMDAT __real@43960000
CONST	SEGMENT
__real@43960000 DD 043960000r			; 300
CONST	ENDS
;	COMDAT __real@43e10000
CONST	SEGMENT
__real@43e10000 DD 043e10000r			; 450
CONST	ENDS
;	COMDAT __real@3f000000
CONST	SEGMENT
__real@3f000000 DD 03f000000r			; 0.5
CONST	ENDS
;	COMDAT __real@3e800000
CONST	SEGMENT
__real@3e800000 DD 03e800000r			; 0.25
; Function compile flags: /Odt /RTCsu /ZI
CONST	ENDS
;	COMDAT ?GetOceanColourForLevel@Cx7@@QAEXHPAUD3DXCOLOR@@@Z
_TEXT	SEGMENT
_b$ = -44
_g$ = -32
_r$ = -20
_this$ = -8
_lev$ = 8
_pColour$ = 12
?GetOceanColourForLevel@Cx7@@QAEXHPAUD3DXCOLOR@@@Z PROC NEAR ; Cx7::GetOceanColourForLevel, COMDAT
; _this$ = ecx

; 632  : 	{

  00000	55		 push	 ebp
  00001	8b ec		 mov	 ebp, esp
  00003	81 ec f0 00 00
	00		 sub	 esp, 240		; 000000f0H
  00009	53		 push	 ebx
  0000a	56		 push	 esi
  0000b	57		 push	 edi
  0000c	51		 push	 ecx
  0000d	8d bd 10 ff ff
	ff		 lea	 edi, DWORD PTR [ebp-240]
  00013	b9 3c 00 00 00	 mov	 ecx, 60			; 0000003cH
  00018	b8 cc cc cc cc	 mov	 eax, -858993460		; ccccccccH
  0001d	f3 ab		 rep stosd
  0001f	59		 pop	 ecx
  00020	89 4d f8	 mov	 DWORD PTR _this$[ebp], ecx

; 633  : 		float r = (float)lev / ( (float)MAX_LEV * 0.3f );

  00023	db 45 08	 fild	 DWORD PTR _lev$[ebp]
  00026	d8 35 00 00 00
	00		 fdiv	 DWORD PTR __real@43160000
  0002c	d9 5d ec	 fstp	 DWORD PTR _r$[ebp]

; 634  : 		if( r > 1 ) r = 1 ;

  0002f	d9 45 ec	 fld	 DWORD PTR _r$[ebp]
  00032	d8 1d 00 00 00
	00		 fcomp	 DWORD PTR __real@3f800000
  00038	df e0		 fnstsw	 ax
  0003a	f6 c4 41	 test	 ah, 65			; 00000041H
  0003d	75 07		 jne	 SHORT $L93843
  0003f	c7 45 ec 00 00
	80 3f		 mov	 DWORD PTR _r$[ebp], 1065353216 ; 3f800000H
$L93843:

; 635  : 
; 636  : 		float g = (float)lev / ( (float)MAX_LEV * 0.6f );

  00046	db 45 08	 fild	 DWORD PTR _lev$[ebp]
  00049	d8 35 00 00 00
	00		 fdiv	 DWORD PTR __real@43960000
  0004f	d9 5d e0	 fstp	 DWORD PTR _g$[ebp]

; 637  : 		if( g > 1 ) g = 1 ;

  00052	d9 45 e0	 fld	 DWORD PTR _g$[ebp]
  00055	d8 1d 00 00 00
	00		 fcomp	 DWORD PTR __real@3f800000
  0005b	df e0		 fnstsw	 ax
  0005d	f6 c4 41	 test	 ah, 65			; 00000041H
  00060	75 07		 jne	 SHORT $L93847
  00062	c7 45 e0 00 00
	80 3f		 mov	 DWORD PTR _g$[ebp], 1065353216 ; 3f800000H
$L93847:

; 638  : 
; 639  : 		float b = (float)lev / ( (float)MAX_LEV * 0.9f );

  00069	db 45 08	 fild	 DWORD PTR _lev$[ebp]
  0006c	d8 35 00 00 00
	00		 fdiv	 DWORD PTR __real@43e10000
  00072	d9 5d d4	 fstp	 DWORD PTR _b$[ebp]

; 640  : 		if( b > 1 ) b = 1 ;

  00075	d9 45 d4	 fld	 DWORD PTR _b$[ebp]
  00078	d8 1d 00 00 00
	00		 fcomp	 DWORD PTR __real@3f800000
  0007e	df e0		 fnstsw	 ax
  00080	f6 c4 41	 test	 ah, 65			; 00000041H
  00083	75 07		 jne	 SHORT $L93851
  00085	c7 45 d4 00 00
	80 3f		 mov	 DWORD PTR _b$[ebp], 1065353216 ; 3f800000H
$L93851:

; 641  : 		b = 1 - b ;

  0008c	d9 05 00 00 00
	00		 fld	 DWORD PTR __real@3f800000
  00092	d8 65 d4	 fsub	 DWORD PTR _b$[ebp]
  00095	d9 5d d4	 fstp	 DWORD PTR _b$[ebp]

; 642  : 
; 643  : 		pColour->r = r ;

  00098	8b 45 0c	 mov	 eax, DWORD PTR _pColour$[ebp]
  0009b	8b 4d ec	 mov	 ecx, DWORD PTR _r$[ebp]
  0009e	89 08		 mov	 DWORD PTR [eax], ecx

; 644  : 		pColour->g = g ;

  000a0	8b 45 0c	 mov	 eax, DWORD PTR _pColour$[ebp]
  000a3	8b 4d e0	 mov	 ecx, DWORD PTR _g$[ebp]
  000a6	89 48 04	 mov	 DWORD PTR [eax+4], ecx

; 645  : 		pColour->b = b ;

  000a9	8b 45 0c	 mov	 eax, DWORD PTR _pColour$[ebp]
  000ac	8b 4d d4	 mov	 ecx, DWORD PTR _b$[ebp]
  000af	89 48 08	 mov	 DWORD PTR [eax+8], ecx

; 646  : 		pColour->a = 0.25f + ( rnd() * 0.5f );

  000b2	e8 00 00 00 00	 call	 ?rnd@@YAMXZ		; rnd
  000b7	d8 0d 00 00 00
	00		 fmul	 DWORD PTR __real@3f000000
  000bd	d8 05 00 00 00
	00		 fadd	 DWORD PTR __real@3e800000
  000c3	8b 45 0c	 mov	 eax, DWORD PTR _pColour$[ebp]
  000c6	d9 58 0c	 fstp	 DWORD PTR [eax+12]

; 647  : 	}

  000c9	5f		 pop	 edi
  000ca	5e		 pop	 esi
  000cb	5b		 pop	 ebx
  000cc	81 c4 f0 00 00
	00		 add	 esp, 240		; 000000f0H
  000d2	3b ec		 cmp	 ebp, esp
  000d4	e8 00 00 00 00	 call	 __RTC_CheckEsp
  000d9	8b e5		 mov	 esp, ebp
  000db	5d		 pop	 ebp
  000dc	c2 08 00	 ret	 8
?GetOceanColourForLevel@Cx7@@QAEXHPAUD3DXCOLOR@@@Z ENDP	; Cx7::GetOceanColourForLevel
; Function compile flags: /Odt /RTCsu /ZI
; File c:\dxsdk\include\d3dx8math.h
_TEXT	ENDS
;	COMDAT ??0D3DXMATRIX@@QAE@XZ
_TEXT	SEGMENT
_this$ = -8
??0D3DXMATRIX@@QAE@XZ PROC NEAR				; D3DXMATRIX::D3DXMATRIX, COMDAT
; _this$ = ecx

; 177  :     D3DXMATRIX() {};

  00000	55		 push	 ebp
  00001	8b ec		 mov	 ebp, esp
  00003	81 ec cc 00 00
	00		 sub	 esp, 204		; 000000ccH
  00009	53		 push	 ebx
  0000a	56		 push	 esi
  0000b	57		 push	 edi
  0000c	51		 push	 ecx
  0000d	8d bd 34 ff ff
	ff		 lea	 edi, DWORD PTR [ebp-204]
  00013	b9 33 00 00 00	 mov	 ecx, 51			; 00000033H
  00018	b8 cc cc cc cc	 mov	 eax, -858993460		; ccccccccH
  0001d	f3 ab		 rep stosd
  0001f	59		 pop	 ecx
  00020	89 4d f8	 mov	 DWORD PTR _this$[ebp], ecx
  00023	8b 45 f8	 mov	 eax, DWORD PTR _this$[ebp]
  00026	5f		 pop	 edi
  00027	5e		 pop	 esi
  00028	5b		 pop	 ebx
  00029	8b e5		 mov	 esp, ebp
  0002b	5d		 pop	 ebp
  0002c	c3		 ret	 0
??0D3DXMATRIX@@QAE@XZ ENDP				; D3DXMATRIX::D3DXMATRIX
; Function compile flags: /Odt /RTCsu /ZI
; File c:\documents and settings\dom\my documents\_dev\ae\xlr8a\x7g\x7.cpp
_TEXT	ENDS
;	COMDAT ?GetOceanTextureForLevel@Cx7@@QAEHH@Z
_TEXT	SEGMENT
_this$ = -8
_lev$ = 8
?GetOceanTextureForLevel@Cx7@@QAEHH@Z PROC NEAR		; Cx7::GetOceanTextureForLevel, COMDAT
; _this$ = ecx

; 649  : 	{

  00000	55		 push	 ebp
  00001	8b ec		 mov	 ebp, esp
  00003	81 ec cc 00 00
	00		 sub	 esp, 204		; 000000ccH
  00009	53		 push	 ebx
  0000a	56		 push	 esi
  0000b	57		 push	 edi
  0000c	51		 push	 ecx
  0000d	8d bd 34 ff ff
	ff		 lea	 edi, DWORD PTR [ebp-204]
  00013	b9 33 00 00 00	 mov	 ecx, 51			; 00000033H
  00018	b8 cc cc cc cc	 mov	 eax, -858993460		; ccccccccH
  0001d	f3 ab		 rep stosd
  0001f	59		 pop	 ecx
  00020	89 4d f8	 mov	 DWORD PTR _this$[ebp], ecx

; 650  : 		if( lev % 2 == 0 )

  00023	8b 45 08	 mov	 eax, DWORD PTR _lev$[ebp]
  00026	25 01 00 00 80	 and	 eax, -2147483647	; 80000001H
  0002b	79 05		 jns	 SHORT $L94640
  0002d	48		 dec	 eax
  0002e	83 c8 fe	 or	 eax, -2			; fffffffeH
  00031	40		 inc	 eax
$L94640:
  00032	85 c0		 test	 eax, eax
  00034	75 07		 jne	 SHORT $L93856

; 651  : 			return CAUSTIC_TEX_START ;

  00036	b8 c2 01 00 00	 mov	 eax, 450		; 000001c2H
  0003b	eb 05		 jmp	 SHORT $L93855
$L93856:

; 652  : 		else
; 653  : 			return CAUSTIC2_TEX_START ;

  0003d	b8 f4 01 00 00	 mov	 eax, 500		; 000001f4H
$L93855:

; 654  : 	}

  00042	5f		 pop	 edi
  00043	5e		 pop	 esi
  00044	5b		 pop	 ebx
  00045	8b e5		 mov	 esp, ebp
  00047	5d		 pop	 ebp
  00048	c2 04 00	 ret	 4
?GetOceanTextureForLevel@Cx7@@QAEHH@Z ENDP		; Cx7::GetOceanTextureForLevel
_TEXT	ENDS
PUBLIC	??0D3DXCOLOR@@QAE@MMMM@Z			; D3DXCOLOR::D3DXCOLOR
; Function compile flags: /Odt /RTCsu /ZI
;	COMDAT ?GetLightingAndSkyboxTexturesForLevel@Cx7@@QAE?AW4e_LightingType@@HPAUD3DXCOLOR@@PAH@Z
_TEXT	SEGMENT
$T94645 = -308
$T94644 = -284
$T94643 = -260
_nSkyboxes$93871 = -44
_nSkyboxes$93868 = -32
_nSkyboxes$93865 = -20
_this$ = -8
_lev$ = 8
_pAmbient$ = 12
_nSkyboxFolder$ = 16
?GetLightingAndSkyboxTexturesForLevel@Cx7@@QAE?AW4e_LightingType@@HPAUD3DXCOLOR@@PAH@Z PROC NEAR ; Cx7::GetLightingAndSkyboxTexturesForLevel, COMDAT
; _this$ = ecx

; 660  : 	{

  00000	55		 push	 ebp
  00001	8b ec		 mov	 ebp, esp
  00003	81 ec 38 01 00
	00		 sub	 esp, 312		; 00000138H
  00009	53		 push	 ebx
  0000a	56		 push	 esi
  0000b	57		 push	 edi
  0000c	51		 push	 ecx
  0000d	8d bd c8 fe ff
	ff		 lea	 edi, DWORD PTR [ebp-312]
  00013	b9 4e 00 00 00	 mov	 ecx, 78			; 0000004eH
  00018	b8 cc cc cc cc	 mov	 eax, -858993460		; ccccccccH
  0001d	f3 ab		 rep stosd
  0001f	59		 pop	 ecx
  00020	89 4d f8	 mov	 DWORD PTR _this$[ebp], ecx

; 661  : 		if( lev % 3 == 1 )

  00023	8b 45 08	 mov	 eax, DWORD PTR _lev$[ebp]
  00026	99		 cdq
  00027	b9 03 00 00 00	 mov	 ecx, 3
  0002c	f7 f9		 idiv	 ecx
  0002e	83 fa 01	 cmp	 edx, 1
  00031	75 4f		 jne	 SHORT $L93864

; 662  : 		{	// dusk
; 663  : 			int nSkyboxes = 1 ;

  00033	c7 45 ec 01 00
	00 00		 mov	 DWORD PTR _nSkyboxes$93865[ebp], 1

; 664  : 			*pAmbient = D3DXCOLOR( 0.25f,0.25f,0.25f,0 );

  0003a	6a 00		 push	 0
  0003c	68 00 00 80 3e	 push	 1048576000		; 3e800000H
  00041	68 00 00 80 3e	 push	 1048576000		; 3e800000H
  00046	68 00 00 80 3e	 push	 1048576000		; 3e800000H
  0004b	8d 8d fc fe ff
	ff		 lea	 ecx, DWORD PTR $T94643[ebp]
  00051	e8 00 00 00 00	 call	 ??0D3DXCOLOR@@QAE@MMMM@Z ; D3DXCOLOR::D3DXCOLOR
  00056	8b 4d 0c	 mov	 ecx, DWORD PTR _pAmbient$[ebp]
  00059	8b 10		 mov	 edx, DWORD PTR [eax]
  0005b	89 11		 mov	 DWORD PTR [ecx], edx
  0005d	8b 50 04	 mov	 edx, DWORD PTR [eax+4]
  00060	89 51 04	 mov	 DWORD PTR [ecx+4], edx
  00063	8b 50 08	 mov	 edx, DWORD PTR [eax+8]
  00066	89 51 08	 mov	 DWORD PTR [ecx+8], edx
  00069	8b 40 0c	 mov	 eax, DWORD PTR [eax+12]
  0006c	89 41 0c	 mov	 DWORD PTR [ecx+12], eax

; 665  : 			*nSkyboxFolder = 1 ;

  0006f	8b 45 10	 mov	 eax, DWORD PTR _nSkyboxFolder$[ebp]
  00072	c7 00 01 00 00
	00		 mov	 DWORD PTR [eax], 1

; 666  : 			return LT_DUSK ;

  00078	b8 01 00 00 00	 mov	 eax, 1
  0007d	e9 a3 00 00 00	 jmp	 $L93863
$L93864:

; 667  : 		}
; 668  : 		if( lev % 3 == 2 )

  00082	8b 45 08	 mov	 eax, DWORD PTR _lev$[ebp]
  00085	99		 cdq
  00086	b9 03 00 00 00	 mov	 ecx, 3
  0008b	f7 f9		 idiv	 ecx
  0008d	83 fa 02	 cmp	 edx, 2
  00090	75 49		 jne	 SHORT $L93867

; 669  : 		{	// full bright
; 670  : 			int nSkyboxes = 1 ;

  00092	c7 45 e0 01 00
	00 00		 mov	 DWORD PTR _nSkyboxes$93868[ebp], 1

; 671  : 			*pAmbient = D3DXCOLOR( 0.5f,0.5f,0.5f,0 );

  00099	6a 00		 push	 0
  0009b	68 00 00 00 3f	 push	 1056964608		; 3f000000H
  000a0	68 00 00 00 3f	 push	 1056964608		; 3f000000H
  000a5	68 00 00 00 3f	 push	 1056964608		; 3f000000H
  000aa	8d 8d e4 fe ff
	ff		 lea	 ecx, DWORD PTR $T94644[ebp]
  000b0	e8 00 00 00 00	 call	 ??0D3DXCOLOR@@QAE@MMMM@Z ; D3DXCOLOR::D3DXCOLOR
  000b5	8b 4d 0c	 mov	 ecx, DWORD PTR _pAmbient$[ebp]
  000b8	8b 10		 mov	 edx, DWORD PTR [eax]
  000ba	89 11		 mov	 DWORD PTR [ecx], edx
  000bc	8b 50 04	 mov	 edx, DWORD PTR [eax+4]
  000bf	89 51 04	 mov	 DWORD PTR [ecx+4], edx
  000c2	8b 50 08	 mov	 edx, DWORD PTR [eax+8]
  000c5	89 51 08	 mov	 DWORD PTR [ecx+8], edx
  000c8	8b 40 0c	 mov	 eax, DWORD PTR [eax+12]
  000cb	89 41 0c	 mov	 DWORD PTR [ecx+12], eax

; 672  : 			*nSkyboxFolder = 1 ;

  000ce	8b 45 10	 mov	 eax, DWORD PTR _nSkyboxFolder$[ebp]
  000d1	c7 00 01 00 00
	00		 mov	 DWORD PTR [eax], 1

; 673  : 			return LT_DAY ;

  000d7	33 c0		 xor	 eax, eax
  000d9	eb 4a		 jmp	 SHORT $L93863
$L93867:

; 674  : 		}
; 675  : 		else//( lev % 3 == 2 )
; 676  : 		{
; 677  : 			int nSkyboxes = 1 ;

  000db	c7 45 d4 01 00
	00 00		 mov	 DWORD PTR _nSkyboxes$93871[ebp], 1

; 678  : 			*pAmbient = D3DXCOLOR( 0.15f,0.15f,0.15f,0 );

  000e2	6a 00		 push	 0
  000e4	68 9a 99 19 3e	 push	 1041865114		; 3e19999aH
  000e9	68 9a 99 19 3e	 push	 1041865114		; 3e19999aH
  000ee	68 9a 99 19 3e	 push	 1041865114		; 3e19999aH
  000f3	8d 8d cc fe ff
	ff		 lea	 ecx, DWORD PTR $T94645[ebp]
  000f9	e8 00 00 00 00	 call	 ??0D3DXCOLOR@@QAE@MMMM@Z ; D3DXCOLOR::D3DXCOLOR
  000fe	8b 4d 0c	 mov	 ecx, DWORD PTR _pAmbient$[ebp]
  00101	8b 10		 mov	 edx, DWORD PTR [eax]
  00103	89 11		 mov	 DWORD PTR [ecx], edx
  00105	8b 50 04	 mov	 edx, DWORD PTR [eax+4]
  00108	89 51 04	 mov	 DWORD PTR [ecx+4], edx
  0010b	8b 50 08	 mov	 edx, DWORD PTR [eax+8]
  0010e	89 51 08	 mov	 DWORD PTR [ecx+8], edx
  00111	8b 40 0c	 mov	 eax, DWORD PTR [eax+12]
  00114	89 41 0c	 mov	 DWORD PTR [ecx+12], eax

; 679  : 			*nSkyboxFolder = 1 ;

  00117	8b 45 10	 mov	 eax, DWORD PTR _nSkyboxFolder$[ebp]
  0011a	c7 00 01 00 00
	00		 mov	 DWORD PTR [eax], 1

; 680  : 			return LT_NIGHT ;

  00120	b8 02 00 00 00	 mov	 eax, 2
$L93863:

; 681  : 		}
; 682  : 	}

  00125	5f		 pop	 edi
  00126	5e		 pop	 esi
  00127	5b		 pop	 ebx
  00128	81 c4 38 01 00
	00		 add	 esp, 312		; 00000138H
  0012e	3b ec		 cmp	 ebp, esp
  00130	e8 00 00 00 00	 call	 __RTC_CheckEsp
  00135	8b e5		 mov	 esp, ebp
  00137	5d		 pop	 ebp
  00138	c2 0c 00	 ret	 12			; 0000000cH
?GetLightingAndSkyboxTexturesForLevel@Cx7@@QAE?AW4e_LightingType@@HPAUD3DXCOLOR@@PAH@Z ENDP ; Cx7::GetLightingAndSkyboxTexturesForLevel
; Function compile flags: /Odt /RTCsu /ZI
_TEXT	ENDS
;	COMDAT ?GetTerrainTexturesForLevel@Cx7@@QAEXHPAH0@Z
_TEXT	SEGMENT
tv91 = -220
tv80 = -220
_nTerrainTextures$ = -20
_this$ = -8
_lev$ = 8
_tex1$ = 12
_tex2$ = 16
?GetTerrainTexturesForLevel@Cx7@@QAEXHPAH0@Z PROC NEAR	; Cx7::GetTerrainTexturesForLevel, COMDAT
; _this$ = ecx

; 688  : 	{

  00000	55		 push	 ebp
  00001	8b ec		 mov	 ebp, esp
  00003	81 ec dc 00 00
	00		 sub	 esp, 220		; 000000dcH
  00009	53		 push	 ebx
  0000a	56		 push	 esi
  0000b	57		 push	 edi
  0000c	51		 push	 ecx
  0000d	8d bd 24 ff ff
	ff		 lea	 edi, DWORD PTR [ebp-220]
  00013	b9 37 00 00 00	 mov	 ecx, 55			; 00000037H
  00018	b8 cc cc cc cc	 mov	 eax, -858993460		; ccccccccH
  0001d	f3 ab		 rep stosd
  0001f	59		 pop	 ecx
  00020	89 4d f8	 mov	 DWORD PTR _this$[ebp], ecx

; 689  : 		int nTerrainTextures = 18 ;

  00023	c7 45 ec 12 00
	00 00		 mov	 DWORD PTR _nTerrainTextures$[ebp], 18 ; 00000012H

; 690  : 
; 691  : 		{
; 692  : 			*tex1 = (int)( TERRAIN_TEX_START + rnd() * (float)(nTerrainTextures-1) );

  0002a	e8 00 00 00 00	 call	 ?rnd@@YAMXZ		; rnd
  0002f	8b 45 ec	 mov	 eax, DWORD PTR _nTerrainTextures$[ebp]
  00032	83 e8 01	 sub	 eax, 1
  00035	89 85 24 ff ff
	ff		 mov	 DWORD PTR tv80[ebp], eax
  0003b	da 8d 24 ff ff
	ff		 fimul	 DWORD PTR tv80[ebp]
  00041	d8 05 00 00 00
	00		 fadd	 DWORD PTR __real@43160000
  00047	e8 00 00 00 00	 call	 __ftol2
  0004c	8b 4d 0c	 mov	 ecx, DWORD PTR _tex1$[ebp]
  0004f	89 01		 mov	 DWORD PTR [ecx], eax

; 693  : 			
; 694  : 			*tex2 = *tex1 ;

  00051	8b 45 10	 mov	 eax, DWORD PTR _tex2$[ebp]
  00054	8b 4d 0c	 mov	 ecx, DWORD PTR _tex1$[ebp]
  00057	8b 11		 mov	 edx, DWORD PTR [ecx]
  00059	89 10		 mov	 DWORD PTR [eax], edx
$L93883:

; 695  : 			while( *tex2 == *tex1 )

  0005b	8b 45 10	 mov	 eax, DWORD PTR _tex2$[ebp]
  0005e	8b 4d 0c	 mov	 ecx, DWORD PTR _tex1$[ebp]
  00061	8b 10		 mov	 edx, DWORD PTR [eax]
  00063	3b 11		 cmp	 edx, DWORD PTR [ecx]
  00065	75 29		 jne	 SHORT $L93878

; 696  : 				*tex2 = (int)( TERRAIN_TEX_START + rnd() * (float)(nTerrainTextures-1) );

  00067	e8 00 00 00 00	 call	 ?rnd@@YAMXZ		; rnd
  0006c	8b 45 ec	 mov	 eax, DWORD PTR _nTerrainTextures$[ebp]
  0006f	83 e8 01	 sub	 eax, 1
  00072	89 85 24 ff ff
	ff		 mov	 DWORD PTR tv91[ebp], eax
  00078	da 8d 24 ff ff
	ff		 fimul	 DWORD PTR tv91[ebp]
  0007e	d8 05 00 00 00
	00		 fadd	 DWORD PTR __real@43160000
  00084	e8 00 00 00 00	 call	 __ftol2
  00089	8b 4d 10	 mov	 ecx, DWORD PTR _tex2$[ebp]
  0008c	89 01		 mov	 DWORD PTR [ecx], eax
  0008e	eb cb		 jmp	 SHORT $L93883
$L93878:

; 697  : 		}
; 698  : 	}

  00090	5f		 pop	 edi
  00091	5e		 pop	 esi
  00092	5b		 pop	 ebx
  00093	81 c4 dc 00 00
	00		 add	 esp, 220		; 000000dcH
  00099	3b ec		 cmp	 ebp, esp
  0009b	e8 00 00 00 00	 call	 __RTC_CheckEsp
  000a0	8b e5		 mov	 esp, ebp
  000a2	5d		 pop	 ebp
  000a3	c2 0c 00	 ret	 12			; 0000000cH
?GetTerrainTexturesForLevel@Cx7@@QAEXHPAH0@Z ENDP	; Cx7::GetTerrainTexturesForLevel
_TEXT	ENDS
PUBLIC	__real@3dcccccd
PUBLIC	__real@42700000
PUBLIC	??_C@_09JLCJHCBH@AutoStart?$AA@			; `string'
PUBLIC	??_C@_0L@OOJOFIBJ@Fullscreen?$AA@		; `string'
EXTRN	?SongSkip@CSoundManager@@QAEHH@Z:NEAR		; CSoundManager::SongSkip
EXTRN	?FrameMoveSkip@CSoundManager@@QAEXXZ:NEAR	; CSoundManager::FrameMoveSkip
EXTRN	?FrameMove@CMainMenu@@QAEJPAUIDirect3DDevice8@@MPAVCScreenOverlayManager@@PAVCUserInput@@PAVCSoundManager@@MH@Z:NEAR ; CMainMenu::FrameMove
EXTRN	?EnterMenu@CInGameMenu@@QAEHXZ:NEAR		; CInGameMenu::EnterMenu
EXTRN	?ExitMenu@CInGameMenu@@QAEHXZ:NEAR		; CInGameMenu::ExitMenu
EXTRN	?FrameMove@CInGameMenu@@QAEJPAUIDirect3DDevice8@@MPAVCScreenOverlayManager@@PAVCUserInput@@PAVCSoundManager@@@Z:NEAR ; CInGameMenu::FrameMove
EXTRN	?ToggleFullscreen@CD3DApplication@@IAEJXZ:NEAR	; CD3DApplication::ToggleFullscreen
EXTRN	__imp__PostMessageA@16:NEAR
EXTRN	?LockVB@CScreenOverlayManager@@QAEJXZ:NEAR	; CScreenOverlayManager::LockVB
EXTRN	?UnlockVB@CScreenOverlayManager@@QAEJXZ:NEAR	; CScreenOverlayManager::UnlockVB
EXTRN	?FrameMove@CScreenOverlayManager@@QAEJPAUIDirect3DDevice8@@MM@Z:NEAR ; CScreenOverlayManager::FrameMove
EXTRN	?Init@CUserInput@@QAEHXZ:NEAR			; CUserInput::Init
EXTRN	?Poll@CUserInput@@QAEJ_N@Z:NEAR			; CUserInput::Poll
EXTRN	?EnableHUDs@CRace@@QAEHH@Z:NEAR			; CRace::EnableHUDs
EXTRN	?FrameMove@CRace@@QAEJPAUIDirect3DDevice8@@PAVCUserInput@@M@Z:NEAR ; CRace::FrameMove
;	COMDAT ??_C@_09JLCJHCBH@AutoStart?$AA@
CONST	SEGMENT
??_C@_09JLCJHCBH@AutoStart?$AA@ DB 'AutoStart', 00H	; `string'
CONST	ENDS
;	COMDAT ??_C@_0L@OOJOFIBJ@Fullscreen?$AA@
CONST	SEGMENT
??_C@_0L@OOJOFIBJ@Fullscreen?$AA@ DB 'Fullscreen', 00H	; `string'
CONST	ENDS
;	COMDAT __real@3dcccccd
CONST	SEGMENT
__real@3dcccccd DD 03dcccccdr			; 0.1
CONST	ENDS
;	COMDAT __real@42700000
CONST	SEGMENT
__real@42700000 DD 042700000r			; 60
; Function compile flags: /Odt /RTCsu /ZI
CONST	ENDS
;	COMDAT ?FrameMove@Cx7@@UAEJXZ
_TEXT	SEGMENT
tv403 = -280
tv398 = -272
tv221 = -268
tv212 = -268
$T94655 = -260
$T94654 = -248
$T94651 = -236
$T94650 = -224
_fAspect$ = -20
_this$ = -8
?FrameMove@Cx7@@UAEJXZ PROC NEAR			; Cx7::FrameMove, COMDAT
; _this$ = ecx

; 706  : 	{

  00000	55		 push	 ebp
  00001	8b ec		 mov	 ebp, esp
  00003	81 ec 18 01 00
	00		 sub	 esp, 280		; 00000118H
  00009	53		 push	 ebx
  0000a	56		 push	 esi
  0000b	57		 push	 edi
  0000c	51		 push	 ecx
  0000d	8d bd e8 fe ff
	ff		 lea	 edi, DWORD PTR [ebp-280]
  00013	b9 46 00 00 00	 mov	 ecx, 70			; 00000046H
  00018	b8 cc cc cc cc	 mov	 eax, -858993460		; ccccccccH
  0001d	f3 ab		 rep stosd
  0001f	59		 pop	 ecx
  00020	89 4d f8	 mov	 DWORD PTR _this$[ebp], ecx

; 707  : 		FLOAT fAspect = m_d3dsdBackBuffer.Width / (FLOAT)m_d3dsdBackBuffer.Height ;

  00023	8b 45 f8	 mov	 eax, DWORD PTR _this$[ebp]
  00026	8b 88 98 a5 02
	00		 mov	 ecx, DWORD PTR [eax+173464]
  0002c	89 8d f0 fe ff
	ff		 mov	 DWORD PTR tv398[ebp], ecx
  00032	c7 85 f4 fe ff
	ff 00 00 00 00	 mov	 DWORD PTR tv398[ebp+4], 0
  0003c	df ad f0 fe ff
	ff		 fild	 QWORD PTR tv398[ebp]
  00042	8b 55 f8	 mov	 edx, DWORD PTR _this$[ebp]
  00045	8b 82 9c a5 02
	00		 mov	 eax, DWORD PTR [edx+173468]
  0004b	89 85 e8 fe ff
	ff		 mov	 DWORD PTR tv403[ebp], eax
  00051	c7 85 ec fe ff
	ff 00 00 00 00	 mov	 DWORD PTR tv403[ebp+4], 0
  0005b	df ad e8 fe ff
	ff		 fild	 QWORD PTR tv403[ebp]
  00061	de f9		 fdivp	 ST(1), ST(0)
  00063	d9 5d ec	 fstp	 DWORD PTR _fAspect$[ebp]

; 708  : 
; 709  : #ifdef _DEBUG
; 710  : 	// DBG; maintain sourceblend and destblend debug cycles;
; 711  : 		if( m_pUserInput->m_bKB_Pressed[ DIK_Z ] )

  00066	8b 45 f8	 mov	 eax, DWORD PTR _this$[ebp]
  00069	8b 88 fc a8 02
	00		 mov	 ecx, DWORD PTR [eax+174332]
  0006f	83 b9 b8 02 00
	00 00		 cmp	 DWORD PTR [ecx+696], 0
  00076	74 2e		 je	 SHORT $L93892

; 712  : 			if( ++SB == 14 ) SB = D3DBLEND_ZERO ;

  00078	8b 45 f8	 mov	 eax, DWORD PTR _this$[ebp]
  0007b	8b 88 ac a9 02
	00		 mov	 ecx, DWORD PTR [eax+174508]
  00081	83 c1 01	 add	 ecx, 1
  00084	8b 55 f8	 mov	 edx, DWORD PTR _this$[ebp]
  00087	89 8a ac a9 02
	00		 mov	 DWORD PTR [edx+174508], ecx
  0008d	8b 45 f8	 mov	 eax, DWORD PTR _this$[ebp]
  00090	83 b8 ac a9 02
	00 0e		 cmp	 DWORD PTR [eax+174508], 14 ; 0000000eH
  00097	75 0d		 jne	 SHORT $L93892
  00099	8b 45 f8	 mov	 eax, DWORD PTR _this$[ebp]
  0009c	c7 80 ac a9 02
	00 01 00 00 00	 mov	 DWORD PTR [eax+174508], 1
$L93892:

; 713  : 		if( m_pUserInput->m_bKB_Pressed[ DIK_X ] )

  000a6	8b 45 f8	 mov	 eax, DWORD PTR _this$[ebp]
  000a9	8b 88 fc a8 02
	00		 mov	 ecx, DWORD PTR [eax+174332]
  000af	83 b9 bc 02 00
	00 00		 cmp	 DWORD PTR [ecx+700], 0
  000b6	74 2e		 je	 SHORT $L93894

; 714  : 			if( ++DB == 14 ) DB = D3DBLEND_ZERO ;

  000b8	8b 45 f8	 mov	 eax, DWORD PTR _this$[ebp]
  000bb	8b 88 b0 a9 02
	00		 mov	 ecx, DWORD PTR [eax+174512]
  000c1	83 c1 01	 add	 ecx, 1
  000c4	8b 55 f8	 mov	 edx, DWORD PTR _this$[ebp]
  000c7	89 8a b0 a9 02
	00		 mov	 DWORD PTR [edx+174512], ecx
  000cd	8b 45 f8	 mov	 eax, DWORD PTR _this$[ebp]
  000d0	83 b8 b0 a9 02
	00 0e		 cmp	 DWORD PTR [eax+174512], 14 ; 0000000eH
  000d7	75 0d		 jne	 SHORT $L93894
  000d9	8b 45 f8	 mov	 eax, DWORD PTR _this$[ebp]
  000dc	c7 80 b0 a9 02
	00 01 00 00 00	 mov	 DWORD PTR [eax+174512], 1
$L93894:

; 715  : #endif
; 716  : 
; 717  : 	//
; 718  : 	// Wait for a keypress when we're ready to start level:
; 719  : 	//
; 720  : 		if( m_bWaitingToStartGame )

  000e6	8b 45 f8	 mov	 eax, DWORD PTR _this$[ebp]
  000e9	0f b6 88 da a7
	02 00		 movzx	 ecx, BYTE PTR [eax+174042]
  000f0	85 c9		 test	 ecx, ecx
  000f2	0f 84 8d 00 00
	00		 je	 $L93896

; 721  : 		{
; 722  : 			if( m_pUserInput->m_bAnyKey ||
; 723  : 				m_pUserInput->m_bMouseLB || m_pUserInput->m_bMouseCB || m_pUserInput->m_bMouseRB ||
; 724  : 				m_pCmdLine->GetInt( "AutoStart", 0 ) )

  000f8	8b 45 f8	 mov	 eax, DWORD PTR _this$[ebp]
  000fb	8b 88 fc a8 02
	00		 mov	 ecx, DWORD PTR [eax+174332]
  00101	83 b9 3c 06 00
	00 00		 cmp	 DWORD PTR [ecx+1596], 0
  00108	75 4f		 jne	 SHORT $L93898
  0010a	8b 45 f8	 mov	 eax, DWORD PTR _this$[ebp]
  0010d	8b 88 fc a8 02
	00		 mov	 ecx, DWORD PTR [eax+174332]
  00113	83 b9 60 06 00
	00 00		 cmp	 DWORD PTR [ecx+1632], 0
  0011a	75 3d		 jne	 SHORT $L93898
  0011c	8b 45 f8	 mov	 eax, DWORD PTR _this$[ebp]
  0011f	8b 88 fc a8 02
	00		 mov	 ecx, DWORD PTR [eax+174332]
  00125	83 b9 64 06 00
	00 00		 cmp	 DWORD PTR [ecx+1636], 0
  0012c	75 2b		 jne	 SHORT $L93898
  0012e	8b 45 f8	 mov	 eax, DWORD PTR _this$[ebp]
  00131	8b 88 fc a8 02
	00		 mov	 ecx, DWORD PTR [eax+174332]
  00137	83 b9 68 06 00
	00 00		 cmp	 DWORD PTR [ecx+1640], 0
  0013e	75 19		 jne	 SHORT $L93898
  00140	6a 00		 push	 0
  00142	68 00 00 00 00	 push	 OFFSET FLAT:??_C@_09JLCJHCBH@AutoStart?$AA@
  00147	8b 45 f8	 mov	 eax, DWORD PTR _this$[ebp]
  0014a	8b 88 d4 a8 02
	00		 mov	 ecx, DWORD PTR [eax+174292]
  00150	e8 00 00 00 00	 call	 ?GetInt@CCmdLineParser@@QAEHPADH@Z ; CCmdLineParser::GetInt
  00155	85 c0		 test	 eax, eax
  00157	74 2c		 je	 SHORT $L93896
$L93898:

; 725  : 			{
; 726  : 				m_bWaitingToStartGame = FALSE ;

  00159	8b 45 f8	 mov	 eax, DWORD PTR _this$[ebp]
  0015c	c6 80 da a7 02
	00 00		 mov	 BYTE PTR [eax+174042], 0

; 727  : 				m_bLoadingGame = FALSE ;

  00163	8b 45 f8	 mov	 eax, DWORD PTR _this$[ebp]
  00166	c6 80 d9 a7 02
	00 00		 mov	 BYTE PTR [eax+174041], 0

; 728  : 				m_bInGame = TRUE ;

  0016d	8b 45 f8	 mov	 eax, DWORD PTR _this$[ebp]
  00170	c6 80 db a7 02
	00 01		 mov	 BYTE PTR [eax+174043], 1

; 729  : 				m_pUserInput->Init() ;

  00177	8b 45 f8	 mov	 eax, DWORD PTR _this$[ebp]
  0017a	8b 88 fc a8 02
	00		 mov	 ecx, DWORD PTR [eax+174332]
  00180	e8 00 00 00 00	 call	 ?Init@CUserInput@@QAEHXZ ; CUserInput::Init
$L93896:

; 730  : 			}
; 731  : 		}
; 732  : 
; 733  : 	//
; 734  : 	// Process track skipping:
; 735  : 	//
; 736  : 		if( m_pSound && m_pUserInput )

  00185	8b 45 f8	 mov	 eax, DWORD PTR _this$[ebp]
  00188	83 b8 00 a9 02
	00 00		 cmp	 DWORD PTR [eax+174336], 0
  0018f	0f 84 82 00 00
	00		 je	 $L93900
  00195	8b 45 f8	 mov	 eax, DWORD PTR _this$[ebp]
  00198	83 b8 fc a8 02
	00 00		 cmp	 DWORD PTR [eax+174332], 0
  0019f	74 76		 je	 SHORT $L93900

; 737  : 		{
; 738  : 			if( m_pUserInput->m_bKB_Pressed[ DIK_LEFT ] || m_pUserInput->m_bKB_Pressed[ DIK_NUMPAD4 ] /*&& 
; 739  : 			   (m_pUserInput->m_bKB_Cur[ DIK_LCONTROL ] || m_pUserInput->m_bKB_Cur[ DIK_RCONTROL ])*/ )

  001a1	8b 45 f8	 mov	 eax, DWORD PTR _this$[ebp]
  001a4	8b 88 fc a8 02
	00		 mov	 ecx, DWORD PTR [eax+174332]
  001aa	83 b9 34 05 00
	00 00		 cmp	 DWORD PTR [ecx+1332], 0
  001b1	75 12		 jne	 SHORT $L93902
  001b3	8b 45 f8	 mov	 eax, DWORD PTR _this$[ebp]
  001b6	8b 88 fc a8 02
	00		 mov	 ecx, DWORD PTR [eax+174332]
  001bc	83 b9 34 03 00
	00 00		 cmp	 DWORD PTR [ecx+820], 0
  001c3	74 10		 je	 SHORT $L93901
$L93902:

; 740  : 			   m_pSound->SongSkip( -1 );

  001c5	6a ff		 push	 -1
  001c7	8b 45 f8	 mov	 eax, DWORD PTR _this$[ebp]
  001ca	8b 88 00 a9 02
	00		 mov	 ecx, DWORD PTR [eax+174336]
  001d0	e8 00 00 00 00	 call	 ?SongSkip@CSoundManager@@QAEHH@Z ; CSoundManager::SongSkip
$L93901:

; 741  : 			
; 742  : 			if( m_pUserInput->m_bKB_Pressed[ DIK_RIGHT ] || m_pUserInput->m_bKB_Pressed[ DIK_NUMPAD6 ] /*&& 
; 743  : 			   (m_pUserInput->m_bKB_Cur[ DIK_LCONTROL ] || m_pUserInput->m_bKB_Cur[ DIK_RCONTROL ])*/ )

  001d5	8b 45 f8	 mov	 eax, DWORD PTR _this$[ebp]
  001d8	8b 88 fc a8 02
	00		 mov	 ecx, DWORD PTR [eax+174332]
  001de	83 b9 3c 05 00
	00 00		 cmp	 DWORD PTR [ecx+1340], 0
  001e5	75 12		 jne	 SHORT $L93904
  001e7	8b 45 f8	 mov	 eax, DWORD PTR _this$[ebp]
  001ea	8b 88 fc a8 02
	00		 mov	 ecx, DWORD PTR [eax+174332]
  001f0	83 b9 3c 03 00
	00 00		 cmp	 DWORD PTR [ecx+828], 0
  001f7	74 10		 je	 SHORT $L93903
$L93904:

; 744  : 			   m_pSound->SongSkip( +1 );

  001f9	6a 01		 push	 1
  001fb	8b 45 f8	 mov	 eax, DWORD PTR _this$[ebp]
  001fe	8b 88 00 a9 02
	00		 mov	 ecx, DWORD PTR [eax+174336]
  00204	e8 00 00 00 00	 call	 ?SongSkip@CSoundManager@@QAEHH@Z ; CSoundManager::SongSkip
$L93903:

; 745  : 
; 746  : 			m_pSound->FrameMoveSkip() ;

  00209	8b 45 f8	 mov	 eax, DWORD PTR _this$[ebp]
  0020c	8b 88 00 a9 02
	00		 mov	 ecx, DWORD PTR [eax+174336]
  00212	e8 00 00 00 00	 call	 ?FrameMoveSkip@CSoundManager@@QAEXXZ ; CSoundManager::FrameMoveSkip
$L93900:

; 747  : 		}
; 748  : 
; 749  : 	//
; 750  : 	// Process Level Transition:
; 751  : 	//
; 752  : 		if( m_bInLevelTransition )

  00217	8b 45 f8	 mov	 eax, DWORD PTR _this$[ebp]
  0021a	0f b6 88 de a7
	02 00		 movzx	 ecx, BYTE PTR [eax+174046]
  00221	85 c9		 test	 ecx, ecx
  00223	74 19		 je	 SHORT $L93905

; 753  : 		{
; 754  : 			m_bInLevelTransition = FALSE ;

  00225	8b 45 f8	 mov	 eax, DWORD PTR _this$[ebp]
  00228	c6 80 de a7 02
	00 00		 mov	 BYTE PTR [eax+174046], 0

; 755  : 			StartNextLevel() ;

  0022f	8b 4d f8	 mov	 ecx, DWORD PTR _this$[ebp]
  00232	e8 00 00 00 00	 call	 ?StartNextLevel@Cx7@@QAEXXZ ; Cx7::StartNextLevel

; 756  : 			return S_OK ;

  00237	33 c0		 xor	 eax, eax
  00239	e9 81 04 00 00	 jmp	 $L93889
$L93905:

; 757  : 		}
; 758  : 
; 759  : 	//
; 760  : 	// Process GameOver:
; 761  : 	//
; 762  : 		if( m_bPlayerJustLost )

  0023e	8b 45 f8	 mov	 eax, DWORD PTR _this$[ebp]
  00241	0f b6 88 df a7
	02 00		 movzx	 ecx, BYTE PTR [eax+174047]
  00248	85 c9		 test	 ecx, ecx
  0024a	0f 84 3d 01 00
	00		 je	 $L93907

; 763  : 		{
; 764  : 			m_bPlayerJustLost = FALSE ;

  00250	8b 45 f8	 mov	 eax, DWORD PTR _this$[ebp]
  00253	c6 80 df a7 02
	00 00		 mov	 BYTE PTR [eax+174047], 0

; 765  : 
; 766  : 			m_nLevel = m_pCmdLine->GetInt( "Level", 1 );

  0025a	6a 01		 push	 1
  0025c	68 00 00 00 00	 push	 OFFSET FLAT:??_C@_05KOHFLOFG@Level?$AA@
  00261	8b 45 f8	 mov	 eax, DWORD PTR _this$[ebp]
  00264	8b 88 d4 a8 02
	00		 mov	 ecx, DWORD PTR [eax+174292]
  0026a	e8 00 00 00 00	 call	 ?GetInt@CCmdLineParser@@QAEHPADH@Z ; CCmdLineParser::GetInt
  0026f	8b 4d f8	 mov	 ecx, DWORD PTR _this$[ebp]
  00272	89 81 04 a9 02
	00		 mov	 DWORD PTR [ecx+174340], eax

; 767  : 			m_fScore = 0 ;

  00278	8b 45 f8	 mov	 eax, DWORD PTR _this$[ebp]
  0027b	c7 80 08 a9 02
	00 00 00 00 00	 mov	 DWORD PTR [eax+174344], 0

; 768  : 			m_nLives = 3 ;

  00285	8b 45 f8	 mov	 eax, DWORD PTR _this$[ebp]
  00288	c7 80 0c a9 02
	00 03 00 00 00	 mov	 DWORD PTR [eax+174348], 3

; 769  : 			m_bInMainMenu = TRUE ;

  00292	8b 45 f8	 mov	 eax, DWORD PTR _this$[ebp]
  00295	c6 80 d8 a7 02
	00 01		 mov	 BYTE PTR [eax+174040], 1

; 770  : 			InvalidateDeviceObjects() ;

  0029c	8b 45 f8	 mov	 eax, DWORD PTR _this$[ebp]
  0029f	8b 10		 mov	 edx, DWORD PTR [eax]
  002a1	8b f4		 mov	 esi, esp
  002a3	8b 4d f8	 mov	 ecx, DWORD PTR _this$[ebp]
  002a6	ff 52 1c	 call	 DWORD PTR [edx+28]
  002a9	3b f4		 cmp	 esi, esp
  002ab	e8 00 00 00 00	 call	 __RTC_CheckEsp

; 771  : 			m_bRaceCreated = false ;

  002b0	8b 45 f8	 mov	 eax, DWORD PTR _this$[ebp]
  002b3	c6 80 e0 a7 02
	00 00		 mov	 BYTE PTR [eax+174048], 0

; 772  : 			SAFE_DELETE( m_pTestRace )

  002ba	8b 45 f8	 mov	 eax, DWORD PTR _this$[ebp]
  002bd	83 b8 ec a8 02
	00 00		 cmp	 DWORD PTR [eax+174316], 0
  002c4	74 50		 je	 SHORT $L93908
  002c6	8b 45 f8	 mov	 eax, DWORD PTR _this$[ebp]
  002c9	8b 88 ec a8 02
	00		 mov	 ecx, DWORD PTR [eax+174316]
  002cf	89 8d 14 ff ff
	ff		 mov	 DWORD PTR $T94651[ebp], ecx
  002d5	8b 95 14 ff ff
	ff		 mov	 edx, DWORD PTR $T94651[ebp]
  002db	89 95 20 ff ff
	ff		 mov	 DWORD PTR $T94650[ebp], edx
  002e1	83 bd 20 ff ff
	ff 00		 cmp	 DWORD PTR $T94650[ebp], 0
  002e8	74 15		 je	 SHORT $L94652
  002ea	6a 01		 push	 1
  002ec	8b 8d 20 ff ff
	ff		 mov	 ecx, DWORD PTR $T94650[ebp]
  002f2	e8 00 00 00 00	 call	 ??_GCRace@@QAEPAXI@Z
  002f7	89 85 f4 fe ff
	ff		 mov	 DWORD PTR tv212[ebp], eax
  002fd	eb 0a		 jmp	 SHORT $L94653
$L94652:
  002ff	c7 85 f4 fe ff
	ff 00 00 00 00	 mov	 DWORD PTR tv212[ebp], 0
$L94653:
  00309	8b 45 f8	 mov	 eax, DWORD PTR _this$[ebp]
  0030c	c7 80 ec a8 02
	00 00 00 00 00	 mov	 DWORD PTR [eax+174316], 0
$L93908:

; 773  : 			SAFE_DELETE( m_pTextures )

  00316	8b 45 f8	 mov	 eax, DWORD PTR _this$[ebp]
  00319	83 b8 e8 a8 02
	00 00		 cmp	 DWORD PTR [eax+174312], 0
  00320	74 50		 je	 SHORT $L93911
  00322	8b 45 f8	 mov	 eax, DWORD PTR _this$[ebp]
  00325	8b 88 e8 a8 02
	00		 mov	 ecx, DWORD PTR [eax+174312]
  0032b	89 8d fc fe ff
	ff		 mov	 DWORD PTR $T94655[ebp], ecx
  00331	8b 95 fc fe ff
	ff		 mov	 edx, DWORD PTR $T94655[ebp]
  00337	89 95 08 ff ff
	ff		 mov	 DWORD PTR $T94654[ebp], edx
  0033d	83 bd 08 ff ff
	ff 00		 cmp	 DWORD PTR $T94654[ebp], 0
  00344	74 15		 je	 SHORT $L94656
  00346	6a 01		 push	 1
  00348	8b 8d 08 ff ff
	ff		 mov	 ecx, DWORD PTR $T94654[ebp]
  0034e	e8 00 00 00 00	 call	 ??_GCTextures@@QAEPAXI@Z
  00353	89 85 f4 fe ff
	ff		 mov	 DWORD PTR tv221[ebp], eax
  00359	eb 0a		 jmp	 SHORT $L94657
$L94656:
  0035b	c7 85 f4 fe ff
	ff 00 00 00 00	 mov	 DWORD PTR tv221[ebp], 0
$L94657:
  00365	8b 45 f8	 mov	 eax, DWORD PTR _this$[ebp]
  00368	c7 80 e8 a8 02
	00 00 00 00 00	 mov	 DWORD PTR [eax+174312], 0
$L93911:

; 774  : 			RestoreDeviceObjects() ;

  00372	8b 45 f8	 mov	 eax, DWORD PTR _this$[ebp]
  00375	8b 10		 mov	 edx, DWORD PTR [eax]
  00377	8b f4		 mov	 esi, esp
  00379	8b 4d f8	 mov	 ecx, DWORD PTR _this$[ebp]
  0037c	ff 52 10	 call	 DWORD PTR [edx+16]
  0037f	3b f4		 cmp	 esi, esp
  00381	e8 00 00 00 00	 call	 __RTC_CheckEsp

; 775  : 			return S_OK ;

  00386	33 c0		 xor	 eax, eax
  00388	e9 32 03 00 00	 jmp	 $L93889
$L93907:

; 776  : 		}
; 777  : 
; 778  : 	//
; 779  : 	// Process kill flag:
; 780  : 	//
; 781  : 		if (m_bAppMustExit)

  0038d	8b 45 f8	 mov	 eax, DWORD PTR _this$[ebp]
  00390	0f b6 88 dd a7
	02 00		 movzx	 ecx, BYTE PTR [eax+174045]
  00397	85 c9		 test	 ecx, ecx
  00399	74 1f		 je	 SHORT $L93915

; 782  : 	        PostMessage( m_hWnd, WM_CLOSE, 0, 0 );

  0039b	8b f4		 mov	 esi, esp
  0039d	6a 00		 push	 0
  0039f	6a 00		 push	 0
  003a1	6a 10		 push	 16			; 00000010H
  003a3	8b 45 f8	 mov	 eax, DWORD PTR _this$[ebp]
  003a6	8b 88 98 a4 02
	00		 mov	 ecx, DWORD PTR [eax+173208]
  003ac	51		 push	 ecx
  003ad	ff 15 00 00 00
	00		 call	 DWORD PTR __imp__PostMessageA@16
  003b3	3b f4		 cmp	 esi, esp
  003b5	e8 00 00 00 00	 call	 __RTC_CheckEsp
$L93915:

; 783  : 
; 784  : 	//
; 785  : 	// Go fullscreen:
; 786  : 	//
; 787  : 		static BOOL bFirstFrameMove = TRUE ;
; 788  : 		if ( bFirstFrameMove && m_bActive && m_bReady )

  003ba	83 3d 00 00 00
	00 00		 cmp	 DWORD PTR ?bFirstFrameMove@?CH@??FrameMove@Cx7@@UAEJXZ@4HA, 0
  003c1	74 43		 je	 SHORT $L93918
  003c3	8b 45 f8	 mov	 eax, DWORD PTR _this$[ebp]
  003c6	83 b8 50 a4 02
	00 00		 cmp	 DWORD PTR [eax+173136], 0
  003cd	74 37		 je	 SHORT $L93918
  003cf	8b 45 f8	 mov	 eax, DWORD PTR _this$[ebp]
  003d2	83 b8 54 a4 02
	00 00		 cmp	 DWORD PTR [eax+173140], 0
  003d9	74 2b		 je	 SHORT $L93918

; 789  : 		{
; 790  : 			bFirstFrameMove = FALSE ;

  003db	c7 05 00 00 00
	00 00 00 00 00	 mov	 DWORD PTR ?bFirstFrameMove@?CH@??FrameMove@Cx7@@UAEJXZ@4HA, 0

; 791  : 			if( m_pCmdLine->GetInt( "Fullscreen", 0 ) )

  003e5	6a 00		 push	 0
  003e7	68 00 00 00 00	 push	 OFFSET FLAT:??_C@_0L@OOJOFIBJ@Fullscreen?$AA@
  003ec	8b 45 f8	 mov	 eax, DWORD PTR _this$[ebp]
  003ef	8b 88 d4 a8 02
	00		 mov	 ecx, DWORD PTR [eax+174292]
  003f5	e8 00 00 00 00	 call	 ?GetInt@CCmdLineParser@@QAEHPADH@Z ; CCmdLineParser::GetInt
  003fa	85 c0		 test	 eax, eax
  003fc	74 08		 je	 SHORT $L93918

; 792  : 				ToggleFullscreen() ;

  003fe	8b 4d f8	 mov	 ecx, DWORD PTR _this$[ebp]
  00401	e8 00 00 00 00	 call	 ?ToggleFullscreen@CD3DApplication@@IAEJXZ ; CD3DApplication::ToggleFullscreen
$L93918:

; 793  : 		}
; 794  : 
; 795  : 	//
; 796  : 	// Poll (unbuffered) user-input devices:
; 797  : 	//
; 798  : 		if (m_pUserInput)

  00406	8b 45 f8	 mov	 eax, DWORD PTR _this$[ebp]
  00409	83 b8 fc a8 02
	00 00		 cmp	 DWORD PTR [eax+174332], 0
  00410	74 18		 je	 SHORT $L93921

; 799  : 		{
; 800  : 			m_pUserInput->Poll( m_bInGame );

  00412	8b 45 f8	 mov	 eax, DWORD PTR _this$[ebp]
  00415	8a 88 db a7 02
	00		 mov	 cl, BYTE PTR [eax+174043]
  0041b	51		 push	 ecx
  0041c	8b 55 f8	 mov	 edx, DWORD PTR _this$[ebp]
  0041f	8b 8a fc a8 02
	00		 mov	 ecx, DWORD PTR [edx+174332]
  00425	e8 00 00 00 00	 call	 ?Poll@CUserInput@@QAEJ_N@Z ; CUserInput::Poll
$L93921:

; 801  : 		}
; 802  : 
; 803  : 	//
; 804  : 	// Overlays Lock + FrameMove
; 805  : 	//
; 806  : 		if (m_fFPS > MIN_ERROR_FPS)

  0042a	8b 45 f8	 mov	 eax, DWORD PTR _this$[ebp]
  0042d	d9 80 cc a5 02
	00		 fld	 DWORD PTR [eax+173516]
  00433	d8 1d 00 00 00
	00		 fcomp	 DWORD PTR __real@3dcccccd
  00439	df e0		 fnstsw	 ax
  0043b	f6 c4 41	 test	 ah, 65			; 00000041H
  0043e	75 49		 jne	 SHORT $L93922

; 807  : 			if (m_pOverlayMan)

  00440	8b 45 f8	 mov	 eax, DWORD PTR _this$[ebp]
  00443	83 b8 d8 a8 02
	00 00		 cmp	 DWORD PTR [eax+174296], 0
  0044a	74 3d		 je	 SHORT $L93922

; 808  : 			{
; 809  : 				m_pOverlayMan->LockVB() ;

  0044c	8b 45 f8	 mov	 eax, DWORD PTR _this$[ebp]
  0044f	8b 88 d8 a8 02
	00		 mov	 ecx, DWORD PTR [eax+174296]
  00455	e8 00 00 00 00	 call	 ?LockVB@CScreenOverlayManager@@QAEJXZ ; CScreenOverlayManager::LockVB

; 810  : 				m_pOverlayMan->FrameMove( m_pd3dDevice, (60.0f / m_fFPS), fAspect );

  0045a	8b 45 ec	 mov	 eax, DWORD PTR _fAspect$[ebp]
  0045d	50		 push	 eax
  0045e	8b 4d f8	 mov	 ecx, DWORD PTR _this$[ebp]
  00461	d9 05 00 00 00
	00		 fld	 DWORD PTR __real@42700000
  00467	d8 b1 cc a5 02
	00		 fdiv	 DWORD PTR [ecx+173516]
  0046d	51		 push	 ecx
  0046e	d9 1c 24	 fstp	 DWORD PTR [esp]
  00471	8b 55 f8	 mov	 edx, DWORD PTR _this$[ebp]
  00474	8b 82 a8 a4 02
	00		 mov	 eax, DWORD PTR [edx+173224]
  0047a	50		 push	 eax
  0047b	8b 4d f8	 mov	 ecx, DWORD PTR _this$[ebp]
  0047e	8b 89 d8 a8 02
	00		 mov	 ecx, DWORD PTR [ecx+174296]
  00484	e8 00 00 00 00	 call	 ?FrameMove@CScreenOverlayManager@@QAEJPAUIDirect3DDevice8@@MM@Z ; CScreenOverlayManager::FrameMove
$L93922:

; 811  : 			}
; 812  : 			
; 813  : 	//
; 814  : 	// Main Menu & InGame Menu
; 815  : 	//
; 816  : 		if (m_fFPS > MIN_ERROR_FPS)

  00489	8b 45 f8	 mov	 eax, DWORD PTR _this$[ebp]
  0048c	d9 80 cc a5 02
	00		 fld	 DWORD PTR [eax+173516]
  00492	d8 1d 00 00 00
	00		 fcomp	 DWORD PTR __real@3dcccccd
  00498	df e0		 fnstsw	 ax
  0049a	f6 c4 41	 test	 ah, 65			; 00000041H
  0049d	0f 85 d4 00 00
	00		 jne	 $L93924

; 817  : 		{
; 818  : 			if (m_pMainMenu && m_bInMainMenu)

  004a3	8b 45 f8	 mov	 eax, DWORD PTR _this$[ebp]
  004a6	83 b8 e0 a8 02
	00 00		 cmp	 DWORD PTR [eax+174304], 0
  004ad	74 6e		 je	 SHORT $L93925
  004af	8b 45 f8	 mov	 eax, DWORD PTR _this$[ebp]
  004b2	0f b6 88 d8 a7
	02 00		 movzx	 ecx, BYTE PTR [eax+174040]
  004b9	85 c9		 test	 ecx, ecx
  004bb	74 60		 je	 SHORT $L93925

; 819  : 				m_pMainMenu->FrameMove( m_pd3dDevice, m_fFPS, m_pOverlayMan, m_pUserInput, m_pSound, m_fElapsedTime, m_pCmdLine->GetInt( "AutoStart", 0 ) );

  004bd	6a 00		 push	 0
  004bf	68 00 00 00 00	 push	 OFFSET FLAT:??_C@_09JLCJHCBH@AutoStart?$AA@
  004c4	8b 45 f8	 mov	 eax, DWORD PTR _this$[ebp]
  004c7	8b 88 d4 a8 02
	00		 mov	 ecx, DWORD PTR [eax+174292]
  004cd	e8 00 00 00 00	 call	 ?GetInt@CCmdLineParser@@QAEHPADH@Z ; CCmdLineParser::GetInt
  004d2	50		 push	 eax
  004d3	8b 4d f8	 mov	 ecx, DWORD PTR _this$[ebp]
  004d6	8b 91 c8 a5 02
	00		 mov	 edx, DWORD PTR [ecx+173512]
  004dc	52		 push	 edx
  004dd	8b 45 f8	 mov	 eax, DWORD PTR _this$[ebp]
  004e0	8b 88 00 a9 02
	00		 mov	 ecx, DWORD PTR [eax+174336]
  004e6	51		 push	 ecx
  004e7	8b 55 f8	 mov	 edx, DWORD PTR _this$[ebp]
  004ea	8b 82 fc a8 02
	00		 mov	 eax, DWORD PTR [edx+174332]
  004f0	50		 push	 eax
  004f1	8b 4d f8	 mov	 ecx, DWORD PTR _this$[ebp]
  004f4	8b 91 d8 a8 02
	00		 mov	 edx, DWORD PTR [ecx+174296]
  004fa	52		 push	 edx
  004fb	8b 45 f8	 mov	 eax, DWORD PTR _this$[ebp]
  004fe	8b 88 cc a5 02
	00		 mov	 ecx, DWORD PTR [eax+173516]
  00504	51		 push	 ecx
  00505	8b 55 f8	 mov	 edx, DWORD PTR _this$[ebp]
  00508	8b 82 a8 a4 02
	00		 mov	 eax, DWORD PTR [edx+173224]
  0050e	50		 push	 eax
  0050f	8b 4d f8	 mov	 ecx, DWORD PTR _this$[ebp]
  00512	8b 89 e0 a8 02
	00		 mov	 ecx, DWORD PTR [ecx+174304]
  00518	e8 00 00 00 00	 call	 ?FrameMove@CMainMenu@@QAEJPAUIDirect3DDevice8@@MPAVCScreenOverlayManager@@PAVCUserInput@@PAVCSoundManager@@MH@Z ; CMainMenu::FrameMove
$L93925:

; 820  : 			
; 821  : 			if (m_pInGameMenu && m_bGamePaused)

  0051d	8b 45 f8	 mov	 eax, DWORD PTR _this$[ebp]
  00520	83 b8 e4 a8 02
	00 00		 cmp	 DWORD PTR [eax+174308], 0
  00527	74 4e		 je	 SHORT $L93924
  00529	8b 45 f8	 mov	 eax, DWORD PTR _this$[ebp]
  0052c	0f b6 88 dc a7
	02 00		 movzx	 ecx, BYTE PTR [eax+174044]
  00533	85 c9		 test	 ecx, ecx
  00535	74 40		 je	 SHORT $L93924

; 822  : 				m_pInGameMenu->FrameMove( m_pd3dDevice, m_fFPS, m_pOverlayMan, m_pUserInput, m_pSound );

  00537	8b 45 f8	 mov	 eax, DWORD PTR _this$[ebp]
  0053a	8b 88 00 a9 02
	00		 mov	 ecx, DWORD PTR [eax+174336]
  00540	51		 push	 ecx
  00541	8b 55 f8	 mov	 edx, DWORD PTR _this$[ebp]
  00544	8b 82 fc a8 02
	00		 mov	 eax, DWORD PTR [edx+174332]
  0054a	50		 push	 eax
  0054b	8b 4d f8	 mov	 ecx, DWORD PTR _this$[ebp]
  0054e	8b 91 d8 a8 02
	00		 mov	 edx, DWORD PTR [ecx+174296]
  00554	52		 push	 edx
  00555	8b 45 f8	 mov	 eax, DWORD PTR _this$[ebp]
  00558	8b 88 cc a5 02
	00		 mov	 ecx, DWORD PTR [eax+173516]
  0055e	51		 push	 ecx
  0055f	8b 55 f8	 mov	 edx, DWORD PTR _this$[ebp]
  00562	8b 82 a8 a4 02
	00		 mov	 eax, DWORD PTR [edx+173224]
  00568	50		 push	 eax
  00569	8b 4d f8	 mov	 ecx, DWORD PTR _this$[ebp]
  0056c	8b 89 e4 a8 02
	00		 mov	 ecx, DWORD PTR [ecx+174308]
  00572	e8 00 00 00 00	 call	 ?FrameMove@CInGameMenu@@QAEJPAUIDirect3DDevice8@@MPAVCScreenOverlayManager@@PAVCUserInput@@PAVCSoundManager@@@Z ; CInGameMenu::FrameMove
$L93924:

; 823  : 		}
; 824  : 
; 825  : 	//
; 826  : 	// Check for InGame Menu enter/exit status
; 827  : 	//
; 828  : 		if (m_pUserInput->m_bKB_Pressed[DIK_ESCAPE] && m_bInGame && m_pInGameMenu)

  00577	8b 45 f8	 mov	 eax, DWORD PTR _this$[ebp]
  0057a	8b 88 fc a8 02
	00		 mov	 ecx, DWORD PTR [eax+174332]
  00580	83 b9 0c 02 00
	00 00		 cmp	 DWORD PTR [ecx+524], 0
  00587	0f 84 8a 00 00
	00		 je	 $L93927
  0058d	8b 45 f8	 mov	 eax, DWORD PTR _this$[ebp]
  00590	0f b6 88 db a7
	02 00		 movzx	 ecx, BYTE PTR [eax+174043]
  00597	85 c9		 test	 ecx, ecx
  00599	74 7c		 je	 SHORT $L93927
  0059b	8b 45 f8	 mov	 eax, DWORD PTR _this$[ebp]
  0059e	83 b8 e4 a8 02
	00 00		 cmp	 DWORD PTR [eax+174308], 0
  005a5	74 70		 je	 SHORT $L93927

; 829  : 		{
; 830  : 			m_bGamePaused = !m_bGamePaused ;

  005a7	8b 45 f8	 mov	 eax, DWORD PTR _this$[ebp]
  005aa	0f b6 88 dc a7
	02 00		 movzx	 ecx, BYTE PTR [eax+174044]
  005b1	f7 d9		 neg	 ecx
  005b3	1b c9		 sbb	 ecx, ecx
  005b5	41		 inc	 ecx
  005b6	8b 55 f8	 mov	 edx, DWORD PTR _this$[ebp]
  005b9	88 8a dc a7 02
	00		 mov	 BYTE PTR [edx+174044], cl

; 831  : 			if (m_bGamePaused)

  005bf	8b 45 f8	 mov	 eax, DWORD PTR _this$[ebp]
  005c2	0f b6 88 dc a7
	02 00		 movzx	 ecx, BYTE PTR [eax+174044]
  005c9	85 c9		 test	 ecx, ecx
  005cb	74 1e		 je	 SHORT $L93928

; 832  : 			{
; 833  : 				m_pInGameMenu->EnterMenu() ;

  005cd	8b 45 f8	 mov	 eax, DWORD PTR _this$[ebp]
  005d0	8b 88 e4 a8 02
	00		 mov	 ecx, DWORD PTR [eax+174308]
  005d6	e8 00 00 00 00	 call	 ?EnterMenu@CInGameMenu@@QAEHXZ ; CInGameMenu::EnterMenu

; 834  : 				m_pTestRace->EnableHUDs( FALSE );

  005db	6a 00		 push	 0
  005dd	8b 45 f8	 mov	 eax, DWORD PTR _this$[ebp]
  005e0	8b 88 ec a8 02
	00		 mov	 ecx, DWORD PTR [eax+174316]
  005e6	e8 00 00 00 00	 call	 ?EnableHUDs@CRace@@QAEHH@Z ; CRace::EnableHUDs
$L93928:

; 835  : 			}
; 836  : 			if (!m_bGamePaused)

  005eb	8b 45 f8	 mov	 eax, DWORD PTR _this$[ebp]
  005ee	0f b6 88 dc a7
	02 00		 movzx	 ecx, BYTE PTR [eax+174044]
  005f5	85 c9		 test	 ecx, ecx
  005f7	75 1e		 jne	 SHORT $L93927

; 837  : 			{
; 838  : 				m_pInGameMenu->ExitMenu() ;

  005f9	8b 45 f8	 mov	 eax, DWORD PTR _this$[ebp]
  005fc	8b 88 e4 a8 02
	00		 mov	 ecx, DWORD PTR [eax+174308]
  00602	e8 00 00 00 00	 call	 ?ExitMenu@CInGameMenu@@QAEHXZ ; CInGameMenu::ExitMenu

; 839  : 				m_pTestRace->EnableHUDs( TRUE );

  00607	6a 01		 push	 1
  00609	8b 45 f8	 mov	 eax, DWORD PTR _this$[ebp]
  0060c	8b 88 ec a8 02
	00		 mov	 ecx, DWORD PTR [eax+174316]
  00612	e8 00 00 00 00	 call	 ?EnableHUDs@CRace@@QAEHH@Z ; CRace::EnableHUDs
$L93927:

; 840  : 			}
; 841  : 		}
; 842  : 
; 843  : 	//
; 844  : 	// Game
; 845  : 	//
; 846  : 		if (m_fFPS > MIN_PHYSICS_FPS)

  00617	8b 45 f8	 mov	 eax, DWORD PTR _this$[ebp]
  0061a	d9 80 cc a5 02
	00		 fld	 DWORD PTR [eax+173516]
  00620	d8 1d 00 00 00
	00		 fcomp	 DWORD PTR __real@3dcccccd
  00626	df e0		 fnstsw	 ax
  00628	f6 c4 41	 test	 ah, 65			; 00000041H
  0062b	75 60		 jne	 SHORT $L93930

; 847  : 			if (m_bReady && m_bInGame && !m_bGamePaused)

  0062d	8b 45 f8	 mov	 eax, DWORD PTR _this$[ebp]
  00630	83 b8 54 a4 02
	00 00		 cmp	 DWORD PTR [eax+173140], 0
  00637	74 54		 je	 SHORT $L93930
  00639	8b 45 f8	 mov	 eax, DWORD PTR _this$[ebp]
  0063c	0f b6 88 db a7
	02 00		 movzx	 ecx, BYTE PTR [eax+174043]
  00643	85 c9		 test	 ecx, ecx
  00645	74 46		 je	 SHORT $L93930
  00647	8b 45 f8	 mov	 eax, DWORD PTR _this$[ebp]
  0064a	0f b6 88 dc a7
	02 00		 movzx	 ecx, BYTE PTR [eax+174044]
  00651	85 c9		 test	 ecx, ecx
  00653	75 38		 jne	 SHORT $L93930

; 848  : 				if (m_pTestRace)

  00655	8b 45 f8	 mov	 eax, DWORD PTR _this$[ebp]
  00658	83 b8 ec a8 02
	00 00		 cmp	 DWORD PTR [eax+174316], 0
  0065f	74 2c		 je	 SHORT $L93930

; 849  : 					m_pTestRace->FrameMove( m_pd3dDevice, m_pUserInput, m_fFPS );

  00661	8b 45 f8	 mov	 eax, DWORD PTR _this$[ebp]
  00664	8b 88 cc a5 02
	00		 mov	 ecx, DWORD PTR [eax+173516]
  0066a	51		 push	 ecx
  0066b	8b 55 f8	 mov	 edx, DWORD PTR _this$[ebp]
  0066e	8b 82 fc a8 02
	00		 mov	 eax, DWORD PTR [edx+174332]
  00674	50		 push	 eax
  00675	8b 4d f8	 mov	 ecx, DWORD PTR _this$[ebp]
  00678	8b 91 a8 a4 02
	00		 mov	 edx, DWORD PTR [ecx+173224]
  0067e	52		 push	 edx
  0067f	8b 45 f8	 mov	 eax, DWORD PTR _this$[ebp]
  00682	8b 88 ec a8 02
	00		 mov	 ecx, DWORD PTR [eax+174316]
  00688	e8 00 00 00 00	 call	 ?FrameMove@CRace@@QAEJPAUIDirect3DDevice8@@PAVCUserInput@@M@Z ; CRace::FrameMove
$L93930:

; 850  : 
; 851  : 	//
; 852  : 	// Overlays unlock
; 853  : 	//
; 854  : 		if (m_fFPS > MIN_ERROR_FPS)

  0068d	8b 45 f8	 mov	 eax, DWORD PTR _this$[ebp]
  00690	d9 80 cc a5 02
	00		 fld	 DWORD PTR [eax+173516]
  00696	d8 1d 00 00 00
	00		 fcomp	 DWORD PTR __real@3dcccccd
  0069c	df e0		 fnstsw	 ax
  0069e	f6 c4 41	 test	 ah, 65			; 00000041H
  006a1	75 1a		 jne	 SHORT $L93933

; 855  : 			if (m_pOverlayMan)

  006a3	8b 45 f8	 mov	 eax, DWORD PTR _this$[ebp]
  006a6	83 b8 d8 a8 02
	00 00		 cmp	 DWORD PTR [eax+174296], 0
  006ad	74 0e		 je	 SHORT $L93933

; 856  : 				m_pOverlayMan->UnlockVB() ;

  006af	8b 45 f8	 mov	 eax, DWORD PTR _this$[ebp]
  006b2	8b 88 d8 a8 02
	00		 mov	 ecx, DWORD PTR [eax+174296]
  006b8	e8 00 00 00 00	 call	 ?UnlockVB@CScreenOverlayManager@@QAEJXZ ; CScreenOverlayManager::UnlockVB
$L93933:

; 857  : 
; 858  : 		return S_OK ;

  006bd	33 c0		 xor	 eax, eax
$L93889:

; 859  : 	}

  006bf	5f		 pop	 edi
  006c0	5e		 pop	 esi
  006c1	5b		 pop	 ebx
  006c2	81 c4 18 01 00
	00		 add	 esp, 280		; 00000118H
  006c8	3b ec		 cmp	 ebp, esp
  006ca	e8 00 00 00 00	 call	 __RTC_CheckEsp
  006cf	8b e5		 mov	 esp, ebp
  006d1	5d		 pop	 ebp
  006d2	c3		 ret	 0
?FrameMove@Cx7@@UAEJXZ ENDP				; Cx7::FrameMove
; Function compile flags: /Odt /RTCsu /ZI
; File c:\dxsdk\include\d3dx8math.h
_TEXT	ENDS
;	COMDAT ??0D3DXCOLOR@@QAE@XZ
_TEXT	SEGMENT
_this$ = -8
??0D3DXCOLOR@@QAE@XZ PROC NEAR				; D3DXCOLOR::D3DXCOLOR, COMDAT
; _this$ = ecx

; 409  :     D3DXCOLOR() {}

  00000	55		 push	 ebp
  00001	8b ec		 mov	 ebp, esp
  00003	81 ec cc 00 00
	00		 sub	 esp, 204		; 000000ccH
  00009	53		 push	 ebx
  0000a	56		 push	 esi
  0000b	57		 push	 edi
  0000c	51		 push	 ecx
  0000d	8d bd 34 ff ff
	ff		 lea	 edi, DWORD PTR [ebp-204]
  00013	b9 33 00 00 00	 mov	 ecx, 51			; 00000033H
  00018	b8 cc cc cc cc	 mov	 eax, -858993460		; ccccccccH
  0001d	f3 ab		 rep stosd
  0001f	59		 pop	 ecx
  00020	89 4d f8	 mov	 DWORD PTR _this$[ebp], ecx
  00023	8b 45 f8	 mov	 eax, DWORD PTR _this$[ebp]
  00026	5f		 pop	 edi
  00027	5e		 pop	 esi
  00028	5b		 pop	 ebx
  00029	8b e5		 mov	 esp, ebp
  0002b	5d		 pop	 ebp
  0002c	c3		 ret	 0
??0D3DXCOLOR@@QAE@XZ ENDP				; D3DXCOLOR::D3DXCOLOR
_TEXT	ENDS
PUBLIC	_floorf
PUBLIC	_fmodf
PUBLIC	?Screengrab@Cx7@@QAEJXZ				; Cx7::Screengrab
PUBLIC	__real@42c80000
PUBLIC	__real@3f666666
PUBLIC	__real@40000000
PUBLIC	__real@49742400
PUBLIC	__real@44800000
PUBLIC	??_C@_0BA@JJLOIBMH@FRAMERATE?5ERROR?$AA@	; `string'
PUBLIC	??_C@_0BM@NLFNLAND@Min?5?$DN?5?$CF0?41f?0?5Actual?5?$DN?5?$CF0?49f?$AA@ ; `string'
PUBLIC	??_C@_0CL@MEPBKDJD@If?5this?5doesn?8t?5go?5away?0?5then?5pl@ ; `string'
PUBLIC	??_C@_08FNJLKAEH@LEVEL?5?$CFd?$AA@		; `string'
PUBLIC	??_C@_06HHKMCLEN@?$CF02?40f?$AA@		; `string'
PUBLIC	??_C@_0P@FBNAFMPM@?$CF01d?3?$CF02d?4?$CFc?$CFc?$AA@ ; `string'
PUBLIC	??_C@_0BI@KBOFDKNM@?$CFss?5?1?5?$CFd?5?1?5?$CFd?5?1?5?$CFd?5bots?$AA@ ; `string'
PUBLIC	??_C@_0BC@LNLJFNJN@Click?5to?5start?4?4?4?$AA@	; `string'
PUBLIC	??_C@_08PPKINLHH@13?302?344?$AA@		; `string'
PUBLIC	??_C@_0M@BCNHKICP@Jul?520?52002?$AA@		; `string'
PUBLIC	??_C@_0CK@OGILCEPP@Ver?4?5?$CFd?4?$CF02d?5?$CFs?5?9?9?5?$CFs?5Build?5?9?9?5V@ ; `string'
PUBLIC	??_C@_0BH@MOMPLKPI@Joystick?3?5?$CFd?5?$FL?$CFs?$FN?5?$FL?$CFs?$FN?$AA@ ; `string'
PUBLIC	??_C@_0CF@LDNOCHOK@?5?5?5?5?5?5?5?5?5vEyePt?3?5?$CF0?41f?0?5?$CF0?41f?0?5?$CF@ ; `string'
PUBLIC	??_C@_0CF@DGEKGGKN@?5?5?5?5?5?5vLookAtPt?3?5?$CF0?41f?0?5?$CF0?41f?0?5?$CF@ ; `string'
PUBLIC	??_C@_0CF@PPGHHDFG@?5m_vOrientation?3?5?$CF0?46f?0?5?$CF0?46f?0?5?$CF@ ; `string'
PUBLIC	??_C@_0DM@OMBAONAD@?5?5?5?5?5Terrain?5BV?3?5?$CF0?41f?0?5?$CF0?41f?0?5?$CF@ ; `string'
PUBLIC	??_C@_0CB@HHHAIGKL@?5?5?5?5?5?5?5?5?5Camera?3?5?$FL?$CFd?$FN?5MinY?$DN?$CF0?42f@ ; `string'
PUBLIC	??_C@_0EC@HDEICIJC@?5?5?5?5?5?5?5?5Terrain?3?5?$CF0?40f?5KB?5?$CI?$CFd?$FL?$CFd@ ; `string'
PUBLIC	??_C@_0CL@CFPKKECI@?5?5?5?5?5?5Heightmap?3?5?$CFd?5x?5?$CFd?5?$FL?$CF0?42f?5@ ; `string'
PUBLIC	??_C@_0BF@MJBEPPKC@?5Vertices?1Patch?3?5?$CFlu?$AA@ ; `string'
PUBLIC	??_C@_0BF@GBLDODFD@?5?5Indices?1Patch?3?5?$CFlu?$AA@ ; `string'
PUBLIC	??_C@_0O@DBJGHLHH@?$FLSB?$DN?$CFs?5DB?$DN?$CFs?$FN?$AA@ ; `string'
PUBLIC	??_C@_0L@KIFDLFLH@weapon?3?5?$CFd?$AA@		; `string'
PUBLIC	??_C@_03JNOOAHCF@FPS?$AA@			; `string'
PUBLIC	??_C@_0BB@BICHHDPD@?$CF03?40f?5?$CFlu?5?$CF0?41f?$AA@ ; `string'
PUBLIC	??_C@_03GEJHJOGM@TC?$CB?$AA@			; `string'
PUBLIC	??_C@_0BB@LCLDOCNK@Multisample?3?5?$CFdx?$AA@	; `string'
PUBLIC	??_C@_0BL@OGMMPGLM@?$CFs?5?9?5PPF?3?5?$CFlu?5?$FL?$CF0?42f?5MT?1s?$FN?$AA@ ; `string'
PUBLIC	??_C@_0CA@JAPAKDMH@FPS?3?5?$CF0?40f?5?9?5?$CF0?40f?5?$FLAvg?3?5?$CF0?40f?$FN?$AA@ ; `string'
PUBLIC	??_C@_03ICICOMAL@yes?$AA@			; `string'
PUBLIC	??_C@_02KAJCLHKP@no?$AA@			; `string'
PUBLIC	??_C@_0FD@GGBIMOKD@?$FLMaxActiveLights?3?50x?$CFx?$FN?5?$FLDirecti@ ; `string'
PUBLIC	??_C@_0EG@FKOMAMOI@?$FLMaxPointSize?3?5?$CF0?41f?$FN?5?$FLBackBuffe@ ; `string'
PUBLIC	??_C@_0EI@NFLACNPO@?$FLMaxSimulTex?3?5?$CFd?$FN?5?$FLMaxTexBlendSt@ ; `string'
PUBLIC	??_C@_0DO@OKDMGFFA@?$FLMultiSampType?3?5?$CFd?$FN?5?$FLMinFLin?3?5?$CFs@ ; `string'
PUBLIC	??_C@_0EA@HFGIOOG@?$FLMaxPrimCount?3?50x?$CFX?$FN?5?$FLMaxVertexI@ ; `string'
PUBLIC	??_C@_0CE@CNLCJMNO@?$FLFSAASupport?3?5?$CFd?$FN?5?$FLFSAAEnabled?3?5@ ; `string'
PUBLIC	??_C@_08OABBGOCK@AutoGrab?$AA@			; `string'
EXTRN	_D3DXMatrixPerspectiveFovLH@20:NEAR
EXTRN	?DrawTextA@CD3DFont@@QAEJMMKPADK@Z:NEAR		; CD3DFont::DrawTextA
EXTRN	?Render@CSoundManager@@QAEJPAVCx7@@M@Z:NEAR	; CSoundManager::Render
EXTRN	?Render@CMainMenu@@QAEJPAUIDirect3DDevice8@@PAVCScreenOverlayManager@@@Z:NEAR ; CMainMenu::Render
EXTRN	?Render@CInGameMenu@@QAEJPAUIDirect3DDevice8@@PAVCScreenOverlayManager@@@Z:NEAR ; CInGameMenu::Render
EXTRN	_sprintf:NEAR
EXTRN	?QueryMemUsage@CTerrain@@QAEKXZ:NEAR		; CTerrain::QueryMemUsage
EXTRN	?SetKey@@YAXHH@Z:NEAR				; SetKey
EXTRN	?D3DFormat2Str@@YAXKPAD@Z:NEAR			; D3DFormat2Str
EXTRN	?D3DBlend2Str@@YAXKPAD@Z:NEAR			; D3DBlend2Str
EXTRN	?Render@CRace@@QAEJPAUIDirect3DDevice8@@PAVCTextures@@PAKMMH@Z:NEAR ; CRace::Render
;	COMDAT ??_C@_0BA@JJLOIBMH@FRAMERATE?5ERROR?$AA@
; File c:\documents and settings\dom\my documents\_dev\ae\xlr8a\x7g\x7.cpp
CONST	SEGMENT
??_C@_0BA@JJLOIBMH@FRAMERATE?5ERROR?$AA@ DB 'FRAMERATE ERROR', 00H ; `string'
CONST	ENDS
;	COMDAT ??_C@_0BM@NLFNLAND@Min?5?$DN?5?$CF0?41f?0?5Actual?5?$DN?5?$CF0?49f?$AA@
CONST	SEGMENT
??_C@_0BM@NLFNLAND@Min?5?$DN?5?$CF0?41f?0?5Actual?5?$DN?5?$CF0?49f?$AA@ DB 'M'
	DB	'in = %0.1f, Actual = %0.9f', 00H		; `string'
CONST	ENDS
;	COMDAT ??_C@_0CL@MEPBKDJD@If?5this?5doesn?8t?5go?5away?0?5then?5pl@
CONST	SEGMENT
??_C@_0CL@MEPBKDJD@If?5this?5doesn?8t?5go?5away?0?5then?5pl@ DB 'If this '
	DB	'doesn''t go away, then please exit.', 00H	; `string'
CONST	ENDS
;	COMDAT ??_C@_08FNJLKAEH@LEVEL?5?$CFd?$AA@
CONST	SEGMENT
??_C@_08FNJLKAEH@LEVEL?5?$CFd?$AA@ DB 'LEVEL %d', 00H	; `string'
CONST	ENDS
;	COMDAT __real@42c80000
CONST	SEGMENT
__real@42c80000 DD 042c80000r			; 100
CONST	ENDS
;	COMDAT ??_C@_06HHKMCLEN@?$CF02?40f?$AA@
CONST	SEGMENT
??_C@_06HHKMCLEN@?$CF02?40f?$AA@ DB '%02.0f', 00H	; `string'
CONST	ENDS
;	COMDAT ??_C@_0P@FBNAFMPM@?$CF01d?3?$CF02d?4?$CFc?$CFc?$AA@
CONST	SEGMENT
??_C@_0P@FBNAFMPM@?$CF01d?3?$CF02d?4?$CFc?$CFc?$AA@ DB '%01d:%02d.%c%c', 00H ; `string'
CONST	ENDS
;	COMDAT ??_C@_0BI@KBOFDKNM@?$CFss?5?1?5?$CFd?5?1?5?$CFd?5?1?5?$CFd?5bots?$AA@
CONST	SEGMENT
??_C@_0BI@KBOFDKNM@?$CFss?5?1?5?$CFd?5?1?5?$CFd?5?1?5?$CFd?5bots?$AA@ DB '%'
	DB	'ss / %d / %d / %d bots', 00H		; `string'
CONST	ENDS
;	COMDAT ??_C@_0BC@LNLJFNJN@Click?5to?5start?4?4?4?$AA@
CONST	SEGMENT
??_C@_0BC@LNLJFNJN@Click?5to?5start?4?4?4?$AA@ DB 'Click to start...', 00H ; `string'
CONST	ENDS
;	COMDAT ??_C@_08PPKINLHH@13?302?344?$AA@
CONST	SEGMENT
??_C@_08PPKINLHH@13?302?344?$AA@ DB '13:02:44', 00H	; `string'
CONST	ENDS
;	COMDAT ??_C@_0M@BCNHKICP@Jul?520?52002?$AA@
CONST	SEGMENT
??_C@_0M@BCNHKICP@Jul?520?52002?$AA@ DB 'Jul 20 2002', 00H ; `string'
CONST	ENDS
;	COMDAT ??_C@_0CK@OGILCEPP@Ver?4?5?$CFd?4?$CF02d?5?$CFs?5?9?9?5?$CFs?5Build?5?9?9?5V@
CONST	SEGMENT
??_C@_0CK@OGILCEPP@Ver?4?5?$CFd?4?$CF02d?5?$CFs?5?9?9?5?$CFs?5Build?5?9?9?5V@ DB 'V'
	DB	'er. %d.%02d %s -- %s Build -- VC%d %s %s', 00H ; `string'
CONST	ENDS
;	COMDAT __real@3f666666
CONST	SEGMENT
__real@3f666666 DD 03f666666r			; 0.9
CONST	ENDS
;	COMDAT __real@40000000
CONST	SEGMENT
__real@40000000 DD 040000000r			; 2
CONST	ENDS
;	COMDAT __real@49742400
CONST	SEGMENT
__real@49742400 DD 049742400r			; 1e+006
CONST	ENDS
;	COMDAT ??_C@_0BH@MOMPLKPI@Joystick?3?5?$CFd?5?$FL?$CFs?$FN?5?$FL?$CFs?$FN?$AA@
CONST	SEGMENT
??_C@_0BH@MOMPLKPI@Joystick?3?5?$CFd?5?$FL?$CFs?$FN?5?$FL?$CFs?$FN?$AA@ DB 'J'
	DB	'oystick: %d [%s] [%s]', 00H			; `string'
CONST	ENDS
;	COMDAT ??_C@_0CF@LDNOCHOK@?5?5?5?5?5?5?5?5?5vEyePt?3?5?$CF0?41f?0?5?$CF0?41f?0?5?$CF@
CONST	SEGMENT
??_C@_0CF@LDNOCHOK@?5?5?5?5?5?5?5?5?5vEyePt?3?5?$CF0?41f?0?5?$CF0?41f?0?5?$CF@ DB ' '
	DB	'        vEyePt: %0.1f, %0.1f, %0.1f', 00H	; `string'
CONST	ENDS
;	COMDAT ??_C@_0CF@DGEKGGKN@?5?5?5?5?5?5vLookAtPt?3?5?$CF0?41f?0?5?$CF0?41f?0?5?$CF@
CONST	SEGMENT
??_C@_0CF@DGEKGGKN@?5?5?5?5?5?5vLookAtPt?3?5?$CF0?41f?0?5?$CF0?41f?0?5?$CF@ DB ' '
	DB	'     vLookAtPt: %0.1f, %0.1f, %0.1f', 00H	; `string'
CONST	ENDS
;	COMDAT ??_C@_0CF@PPGHHDFG@?5m_vOrientation?3?5?$CF0?46f?0?5?$CF0?46f?0?5?$CF@
CONST	SEGMENT
??_C@_0CF@PPGHHDFG@?5m_vOrientation?3?5?$CF0?46f?0?5?$CF0?46f?0?5?$CF@ DB ' '
	DB	'm_vOrientation: %0.6f, %0.6f, %0.6f', 00H	; `string'
CONST	ENDS
;	COMDAT ??_C@_0DM@OMBAONAD@?5?5?5?5?5Terrain?5BV?3?5?$CF0?41f?0?5?$CF0?41f?0?5?$CF@
CONST	SEGMENT
??_C@_0DM@OMBAONAD@?5?5?5?5?5Terrain?5BV?3?5?$CF0?41f?0?5?$CF0?41f?0?5?$CF@ DB ' '
	DB	'    Terrain BV: %0.1f, %0.1f, %0.1f -- %0.1f, %0.1f, %0.1f', 00H ; `string'
CONST	ENDS
;	COMDAT ??_C@_0CB@HHHAIGKL@?5?5?5?5?5?5?5?5?5Camera?3?5?$FL?$CFd?$FN?5MinY?$DN?$CF0?42f@
CONST	SEGMENT
??_C@_0CB@HHHAIGKL@?5?5?5?5?5?5?5?5?5Camera?3?5?$FL?$CFd?$FN?5MinY?$DN?$CF0?42f@ DB ' '
	DB	'        Camera: [%d] MinY=%0.2f', 00H	; `string'
CONST	ENDS
;	COMDAT __real@44800000
CONST	SEGMENT
__real@44800000 DD 044800000r			; 1024
CONST	ENDS
;	COMDAT ??_C@_0EC@HDEICIJC@?5?5?5?5?5?5?5?5Terrain?3?5?$CF0?40f?5KB?5?$CI?$CFd?$FL?$CFd@
CONST	SEGMENT
??_C@_0EC@HDEICIJC@?5?5?5?5?5?5?5?5Terrain?3?5?$CF0?40f?5KB?5?$CI?$CFd?$FL?$CFd@ DB ' '
	DB	'       Terrain: %0.0f KB (%d[%d] patches, each @ %dx%d max. L'
	DB	'OD)', 00H					; `string'
CONST	ENDS
;	COMDAT ??_C@_0CL@CFPKKECI@?5?5?5?5?5?5Heightmap?3?5?$CFd?5x?5?$CFd?5?$FL?$CF0?42f?5@
CONST	SEGMENT
??_C@_0CL@CFPKKECI@?5?5?5?5?5?5Heightmap?3?5?$CFd?5x?5?$CFd?5?$FL?$CF0?42f?5@ DB ' '
	DB	'     Heightmap: %d x %d [%0.2f unit size]', 00H ; `string'
CONST	ENDS
;	COMDAT ??_C@_0BF@MJBEPPKC@?5Vertices?1Patch?3?5?$CFlu?$AA@
CONST	SEGMENT
??_C@_0BF@MJBEPPKC@?5Vertices?1Patch?3?5?$CFlu?$AA@ DB ' Vertices/Patch: '
	DB	'%lu', 00H					; `string'
CONST	ENDS
;	COMDAT ??_C@_0BF@GBLDODFD@?5?5Indices?1Patch?3?5?$CFlu?$AA@
CONST	SEGMENT
??_C@_0BF@GBLDODFD@?5?5Indices?1Patch?3?5?$CFlu?$AA@ DB '  Indices/Patch:'
	DB	' %lu', 00H					; `string'
CONST	ENDS
;	COMDAT ??_C@_0O@DBJGHLHH@?$FLSB?$DN?$CFs?5DB?$DN?$CFs?$FN?$AA@
CONST	SEGMENT
??_C@_0O@DBJGHLHH@?$FLSB?$DN?$CFs?5DB?$DN?$CFs?$FN?$AA@ DB '[SB=%s DB=%s]'
	DB	00H						; `string'
CONST	ENDS
;	COMDAT ??_C@_0L@KIFDLFLH@weapon?3?5?$CFd?$AA@
CONST	SEGMENT
??_C@_0L@KIFDLFLH@weapon?3?5?$CFd?$AA@ DB 'weapon: %d', 00H ; `string'
CONST	ENDS
;	COMDAT ??_C@_03JNOOAHCF@FPS?$AA@
CONST	SEGMENT
??_C@_03JNOOAHCF@FPS?$AA@ DB 'FPS', 00H			; `string'
CONST	ENDS
;	COMDAT ??_C@_0BB@BICHHDPD@?$CF03?40f?5?$CFlu?5?$CF0?41f?$AA@
CONST	SEGMENT
??_C@_0BB@BICHHDPD@?$CF03?40f?5?$CFlu?5?$CF0?41f?$AA@ DB '%03.0f %lu %0.1'
	DB	'f', 00H					; `string'
CONST	ENDS
;	COMDAT ??_C@_03GEJHJOGM@TC?$CB?$AA@
CONST	SEGMENT
??_C@_03GEJHJOGM@TC?$CB?$AA@ DB 'TC!', 00H		; `string'
CONST	ENDS
;	COMDAT ??_C@_0BB@LCLDOCNK@Multisample?3?5?$CFdx?$AA@
CONST	SEGMENT
??_C@_0BB@LCLDOCNK@Multisample?3?5?$CFdx?$AA@ DB 'Multisample: %dx', 00H ; `string'
CONST	ENDS
;	COMDAT ??_C@_0BL@OGMMPGLM@?$CFs?5?9?5PPF?3?5?$CFlu?5?$FL?$CF0?42f?5MT?1s?$FN?$AA@
CONST	SEGMENT
??_C@_0BL@OGMMPGLM@?$CFs?5?9?5PPF?3?5?$CFlu?5?$FL?$CF0?42f?5MT?1s?$FN?$AA@ DB '%'
	DB	's - PPF: %lu [%0.2f MT/s]', 00H		; `string'
CONST	ENDS
;	COMDAT ??_C@_0CA@JAPAKDMH@FPS?3?5?$CF0?40f?5?9?5?$CF0?40f?5?$FLAvg?3?5?$CF0?40f?$FN?$AA@
CONST	SEGMENT
??_C@_0CA@JAPAKDMH@FPS?3?5?$CF0?40f?5?9?5?$CF0?40f?5?$FLAvg?3?5?$CF0?40f?$FN?$AA@ DB 'F'
	DB	'PS: %0.0f - %0.0f [Avg: %0.0f]', 00H	; `string'
CONST	ENDS
;	COMDAT ??_C@_03ICICOMAL@yes?$AA@
CONST	SEGMENT
??_C@_03ICICOMAL@yes?$AA@ DB 'yes', 00H			; `string'
CONST	ENDS
;	COMDAT ??_C@_02KAJCLHKP@no?$AA@
CONST	SEGMENT
??_C@_02KAJCLHKP@no?$AA@ DB 'no', 00H			; `string'
CONST	ENDS
;	COMDAT ??_C@_0FD@GGBIMOKD@?$FLMaxActiveLights?3?50x?$CFx?$FN?5?$FLDirecti@
CONST	SEGMENT
??_C@_0FD@GGBIMOKD@?$FLMaxActiveLights?3?50x?$CFx?$FN?5?$FLDirecti@ DB '['
	DB	'MaxActiveLights: 0x%x] [DirectionLights: %s] [MaxTexWidth: %d'
	DB	'] [MaxTexHeight: %d]', 00H			; `string'
CONST	ENDS
;	COMDAT ??_C@_0EG@FKOMAMOI@?$FLMaxPointSize?3?5?$CF0?41f?$FN?5?$FLBackBuffe@
CONST	SEGMENT
??_C@_0EG@FKOMAMOI@?$FLMaxPointSize?3?5?$CF0?41f?$FN?5?$FLBackBuffe@ DB '['
	DB	'MaxPointSize: %0.1f] [BackBuffer: %s] [DepthBuffer: %s] [WBuf'
	DB	'OK: %s]', 00H				; `string'
CONST	ENDS
;	COMDAT ??_C@_0EI@NFLACNPO@?$FLMaxSimulTex?3?5?$CFd?$FN?5?$FLMaxTexBlendSt@
CONST	SEGMENT
??_C@_0EI@NFLACNPO@?$FLMaxSimulTex?3?5?$CFd?$FN?5?$FLMaxTexBlendSt@ DB '['
	DB	'MaxSimulTex: %d] [MaxTexBlendStages: %d] [NoPasses4AlphaBlend'
	DB	'2Tex: %d]', 00H				; `string'
CONST	ENDS
;	COMDAT ??_C@_0DO@OKDMGFFA@?$FLMultiSampType?3?5?$CFd?$FN?5?$FLMinFLin?3?5?$CFs@
CONST	SEGMENT
??_C@_0DO@OKDMGFFA@?$FLMultiSampType?3?5?$CFd?$FN?5?$FLMinFLin?3?5?$CFs@ DB '['
	DB	'MultiSampType: %d] [MinFLin: %s] [MaxFLin: %s] [MipFLin: %s]', 00H ; `string'
CONST	ENDS
;	COMDAT ??_C@_0EA@HFGIOOG@?$FLMaxPrimCount?3?50x?$CFX?$FN?5?$FLMaxVertexI@
CONST	SEGMENT
??_C@_0EA@HFGIOOG@?$FLMaxPrimCount?3?50x?$CFX?$FN?5?$FLMaxVertexI@ DB '[M'
	DB	'axPrimCount: 0x%X] [MaxVertexIndex: 0x%X] [MaxAnisotropy: %d]'
	DB	00H						; `string'
CONST	ENDS
;	COMDAT ??_C@_0CE@CNLCJMNO@?$FLFSAASupport?3?5?$CFd?$FN?5?$FLFSAAEnabled?3?5@
CONST	SEGMENT
??_C@_0CE@CNLCJMNO@?$FLFSAASupport?3?5?$CFd?$FN?5?$FLFSAAEnabled?3?5@ DB '['
	DB	'FSAASupport: %d] [FSAAEnabled: %d]', 00H	; `string'
CONST	ENDS
;	COMDAT ??_C@_08OABBGOCK@AutoGrab?$AA@
CONST	SEGMENT
??_C@_08OABBGOCK@AutoGrab?$AA@ DB 'AutoGrab', 00H	; `string'
; Function compile flags: /Odt /RTCsu /ZI
CONST	ENDS
;	COMDAT ?Render@Cx7@@UAEJXZ
_TEXT	SEGMENT
tv1861 = -1988
tv1567 = -1988
tv1468 = -1988
tv1413 = -1988
tv1157 = -1984
tv1856 = -1980
tv1806 = -1980
tv1670 = -1980
tv1641 = -1980
tv1630 = -1980
tv1562 = -1980
tv1548 = -1980
tv1463 = -1980
tv1408 = -1980
tv1151 = -1980
tv1145 = -1976
tv1103 = -1976
tv1083 = -1976
tv461 = -1976
tv275 = -1976
tv264 = -1976
_szDepthBFormat$94062 = -1776
_szBBFormat$94061 = -1512
_szDB$94047 = -1248
_szSB$94046 = -984
_fAspect$94042 = -716
_fAspect$93994 = -704
_nLightsToUse$93993 = -692
_szTime$93973 = -680
_szMillis$93972 = -592
_fAspect$93966 = -328
_fAspect$93955 = -316
_sz$93945 = -304
_d$93944 = -36
_y$93943 = -24
_this$ = -12
__$ArrayPad$ = -4
__$ReturnAddr$ = 4
?Render@Cx7@@UAEJXZ PROC NEAR				; Cx7::Render, COMDAT
; _this$ = ecx

; 872  : 	{

  00000	55		 push	 ebp
  00001	8b ec		 mov	 ebp, esp
  00003	81 ec c4 07 00
	00		 sub	 esp, 1988		; 000007c4H
  00009	53		 push	 ebx
  0000a	56		 push	 esi
  0000b	57		 push	 edi
  0000c	51		 push	 ecx
  0000d	8d bd 3c f8 ff
	ff		 lea	 edi, DWORD PTR [ebp-1988]
  00013	b9 f1 01 00 00	 mov	 ecx, 497		; 000001f1H
  00018	b8 cc cc cc cc	 mov	 eax, -858993460		; ccccccccH
  0001d	f3 ab		 rep stosd
  0001f	59		 pop	 ecx
  00020	a1 00 00 00 00	 mov	 eax, DWORD PTR ___security_cookie
  00025	33 45 04	 xor	 eax, DWORD PTR __$ReturnAddr$[ebp]
  00028	89 45 fc	 mov	 DWORD PTR __$ArrayPad$[ebp], eax
  0002b	89 4d f4	 mov	 DWORD PTR _this$[ebp], ecx

; 873  : 		//static DWORD dwFramesInGame = 0 ;
; 874  : 		//static float fTimeInGameS = 0 ;
; 875  : 
; 876  : 		m_ulPPF = 0 ;

  0002e	8b 45 f4	 mov	 eax, DWORD PTR _this$[ebp]
  00031	c7 80 1c a9 02
	00 00 00 00 00	 mov	 DWORD PTR [eax+174364], 0

; 877  : 
; 878  : 	//
; 879  : 	// Wait for framerate to be available:
; 880  : 	//
; 881  : 		if (m_fFPS == 0.0f)

  0003b	8b 45 f4	 mov	 eax, DWORD PTR _this$[ebp]
  0003e	d9 80 cc a5 02
	00		 fld	 DWORD PTR [eax+173516]
  00044	d8 1d 00 00 00
	00		 fcomp	 DWORD PTR __real@00000000
  0004a	df e0		 fnstsw	 ax
  0004c	f6 c4 44	 test	 ah, 68			; 00000044H
  0004f	7a 07		 jp	 SHORT $L93939

; 882  : 			return S_OK ;

  00051	33 c0		 xor	 eax, eax
  00053	e9 e0 18 00 00	 jmp	 $L93938
$L93939:

; 883  : 
; 884  : 	//
; 885  : 	// RenderStates we know and love:
; 886  : 	//
; 887  : 		m_pd3dDevice->SetRenderState(D3DRS_FILLMODE, m_bWireframe ? D3DFILL_WIREFRAME : D3DFILL_SOLID) ;

  00058	8b 45 f4	 mov	 eax, DWORD PTR _this$[ebp]
  0005b	8b 88 94 a9 02
	00		 mov	 ecx, DWORD PTR [eax+174484]
  00061	f7 d9		 neg	 ecx
  00063	1b c9		 sbb	 ecx, ecx
  00065	83 c1 03	 add	 ecx, 3
  00068	8b f4		 mov	 esi, esp
  0006a	51		 push	 ecx
  0006b	6a 08		 push	 8
  0006d	8b 55 f4	 mov	 edx, DWORD PTR _this$[ebp]
  00070	8b 82 a8 a4 02
	00		 mov	 eax, DWORD PTR [edx+173224]
  00076	8b 4d f4	 mov	 ecx, DWORD PTR _this$[ebp]
  00079	8b 91 a8 a4 02
	00		 mov	 edx, DWORD PTR [ecx+173224]
  0007f	8b 00		 mov	 eax, DWORD PTR [eax]
  00081	52		 push	 edx
  00082	ff 90 c8 00 00
	00		 call	 DWORD PTR [eax+200]
  00088	3b f4		 cmp	 esi, esp
  0008a	e8 00 00 00 00	 call	 __RTC_CheckEsp

; 888  : 		m_pd3dDevice->SetRenderState(D3DRS_SRCBLEND, D3DBLEND_SRCALPHA) ;

  0008f	8b f4		 mov	 esi, esp
  00091	6a 05		 push	 5
  00093	6a 13		 push	 19			; 00000013H
  00095	8b 45 f4	 mov	 eax, DWORD PTR _this$[ebp]
  00098	8b 88 a8 a4 02
	00		 mov	 ecx, DWORD PTR [eax+173224]
  0009e	8b 55 f4	 mov	 edx, DWORD PTR _this$[ebp]
  000a1	8b 82 a8 a4 02
	00		 mov	 eax, DWORD PTR [edx+173224]
  000a7	8b 09		 mov	 ecx, DWORD PTR [ecx]
  000a9	50		 push	 eax
  000aa	ff 91 c8 00 00
	00		 call	 DWORD PTR [ecx+200]
  000b0	3b f4		 cmp	 esi, esp
  000b2	e8 00 00 00 00	 call	 __RTC_CheckEsp

; 889  : 		m_pd3dDevice->SetRenderState(D3DRS_DESTBLEND, D3DBLEND_INVSRCALPHA) ;

  000b7	8b f4		 mov	 esi, esp
  000b9	6a 06		 push	 6
  000bb	6a 14		 push	 20			; 00000014H
  000bd	8b 45 f4	 mov	 eax, DWORD PTR _this$[ebp]
  000c0	8b 88 a8 a4 02
	00		 mov	 ecx, DWORD PTR [eax+173224]
  000c6	8b 55 f4	 mov	 edx, DWORD PTR _this$[ebp]
  000c9	8b 82 a8 a4 02
	00		 mov	 eax, DWORD PTR [edx+173224]
  000cf	8b 09		 mov	 ecx, DWORD PTR [ecx]
  000d1	50		 push	 eax
  000d2	ff 91 c8 00 00
	00		 call	 DWORD PTR [ecx+200]
  000d8	3b f4		 cmp	 esi, esp
  000da	e8 00 00 00 00	 call	 __RTC_CheckEsp

; 890  : 		m_pd3dDevice->SetRenderState(D3DRS_AMBIENTMATERIALSOURCE, D3DMCS_COLOR1) ;

  000df	8b f4		 mov	 esi, esp
  000e1	6a 01		 push	 1
  000e3	68 93 00 00 00	 push	 147			; 00000093H
  000e8	8b 45 f4	 mov	 eax, DWORD PTR _this$[ebp]
  000eb	8b 88 a8 a4 02
	00		 mov	 ecx, DWORD PTR [eax+173224]
  000f1	8b 55 f4	 mov	 edx, DWORD PTR _this$[ebp]
  000f4	8b 82 a8 a4 02
	00		 mov	 eax, DWORD PTR [edx+173224]
  000fa	8b 09		 mov	 ecx, DWORD PTR [ecx]
  000fc	50		 push	 eax
  000fd	ff 91 c8 00 00
	00		 call	 DWORD PTR [ecx+200]
  00103	3b f4		 cmp	 esi, esp
  00105	e8 00 00 00 00	 call	 __RTC_CheckEsp

; 891  : 		m_pd3dDevice->SetRenderState(D3DRS_MULTISAMPLEANTIALIAS, m_bFSAA_Enabled) ;

  0010a	8b f4		 mov	 esi, esp
  0010c	8b 45 f4	 mov	 eax, DWORD PTR _this$[ebp]
  0010f	8b 88 a0 a9 02
	00		 mov	 ecx, DWORD PTR [eax+174496]
  00115	51		 push	 ecx
  00116	68 a1 00 00 00	 push	 161			; 000000a1H
  0011b	8b 55 f4	 mov	 edx, DWORD PTR _this$[ebp]
  0011e	8b 82 a8 a4 02
	00		 mov	 eax, DWORD PTR [edx+173224]
  00124	8b 4d f4	 mov	 ecx, DWORD PTR _this$[ebp]
  00127	8b 91 a8 a4 02
	00		 mov	 edx, DWORD PTR [ecx+173224]
  0012d	8b 00		 mov	 eax, DWORD PTR [eax]
  0012f	52		 push	 edx
  00130	ff 90 c8 00 00
	00		 call	 DWORD PTR [eax+200]
  00136	3b f4		 cmp	 esi, esp
  00138	e8 00 00 00 00	 call	 __RTC_CheckEsp

; 892  : 
; 893  : 	//
; 894  : 	// Render:
; 895  : 	//
; 896  : 		if (SUCCEEDED(m_pd3dDevice->BeginScene()))

  0013d	8b 45 f4	 mov	 eax, DWORD PTR _this$[ebp]
  00140	8b 88 a8 a4 02
	00		 mov	 ecx, DWORD PTR [eax+173224]
  00146	8b 55 f4	 mov	 edx, DWORD PTR _this$[ebp]
  00149	8b 82 a8 a4 02
	00		 mov	 eax, DWORD PTR [edx+173224]
  0014f	8b 09		 mov	 ecx, DWORD PTR [ecx]
  00151	8b f4		 mov	 esi, esp
  00153	50		 push	 eax
  00154	ff 91 88 00 00
	00		 call	 DWORD PTR [ecx+136]
  0015a	3b f4		 cmp	 esi, esp
  0015c	e8 00 00 00 00	 call	 __RTC_CheckEsp
  00161	85 c0		 test	 eax, eax
  00163	0f 8c 54 17 00
	00		 jl	 $L93942

; 897  : 		{
; 898  : 			float y = 110, d = 10 ;

  00169	c7 45 e8 00 00
	dc 42		 mov	 DWORD PTR _y$93943[ebp], 1121714176 ; 42dc0000H
  00170	c7 45 dc 00 00
	20 41		 mov	 DWORD PTR _d$93944[ebp], 1092616192 ; 41200000H

; 899  : 			char sz[256] ;
; 900  : 
; 901  : 		// validate framerate
; 902  : 			if (m_fFPS < MIN_ERROR_FPS)

  00177	8b 45 f4	 mov	 eax, DWORD PTR _this$[ebp]
  0017a	d9 80 cc a5 02
	00		 fld	 DWORD PTR [eax+173516]
  00180	d8 1d 00 00 00
	00		 fcomp	 DWORD PTR __real@3dcccccd
  00186	df e0		 fnstsw	 ax
  00188	f6 c4 05	 test	 ah, 5
  0018b	0f 8a 22 01 00
	00		 jp	 $L93946

; 903  : 			{
; 904  : 				m_pd3dDevice->Clear(0, NULL, D3DCLEAR_TARGET|D3DCLEAR_ZBUFFER, 0x00ff0000, 1.0f, 0) ;

  00191	8b f4		 mov	 esi, esp
  00193	6a 00		 push	 0
  00195	68 00 00 80 3f	 push	 1065353216		; 3f800000H
  0019a	68 00 00 ff 00	 push	 16711680		; 00ff0000H
  0019f	6a 03		 push	 3
  001a1	6a 00		 push	 0
  001a3	6a 00		 push	 0
  001a5	8b 45 f4	 mov	 eax, DWORD PTR _this$[ebp]
  001a8	8b 88 a8 a4 02
	00		 mov	 ecx, DWORD PTR [eax+173224]
  001ae	8b 55 f4	 mov	 edx, DWORD PTR _this$[ebp]
  001b1	8b 82 a8 a4 02
	00		 mov	 eax, DWORD PTR [edx+173224]
  001b7	8b 09		 mov	 ecx, DWORD PTR [ecx]
  001b9	50		 push	 eax
  001ba	ff 91 90 00 00
	00		 call	 DWORD PTR [ecx+144]
  001c0	3b f4		 cmp	 esi, esp
  001c2	e8 00 00 00 00	 call	 __RTC_CheckEsp

; 905  : 				sprintf(sz, "FRAMERATE ERROR") ;

  001c7	68 00 00 00 00	 push	 OFFSET FLAT:??_C@_0BA@JJLOIBMH@FRAMERATE?5ERROR?$AA@
  001cc	8d 85 d0 fe ff
	ff		 lea	 eax, DWORD PTR _sz$93945[ebp]
  001d2	50		 push	 eax
  001d3	e8 00 00 00 00	 call	 _sprintf
  001d8	83 c4 08	 add	 esp, 8

; 906  : 				m_pSubtitleFont->DrawText(2, 0, D3DCOLOR_ARGB(255,255,255,255), sz) ;

  001db	6a 00		 push	 0
  001dd	8d 85 d0 fe ff
	ff		 lea	 eax, DWORD PTR _sz$93945[ebp]
  001e3	50		 push	 eax
  001e4	6a ff		 push	 -1
  001e6	6a 00		 push	 0
  001e8	68 00 00 00 40	 push	 1073741824		; 40000000H
  001ed	8b 4d f4	 mov	 ecx, DWORD PTR _this$[ebp]
  001f0	8b 89 f8 a8 02
	00		 mov	 ecx, DWORD PTR [ecx+174328]
  001f6	e8 00 00 00 00	 call	 ?DrawTextA@CD3DFont@@QAEJMMKPADK@Z ; CD3DFont::DrawTextA

; 907  : 				sprintf(sz, "Min = %0.1f, Actual = %0.9f", MIN_ERROR_FPS, m_fFPS) ;

  001fb	8b 45 f4	 mov	 eax, DWORD PTR _this$[ebp]
  001fe	d9 80 cc a5 02
	00		 fld	 DWORD PTR [eax+173516]
  00204	83 ec 08	 sub	 esp, 8
  00207	dd 1c 24	 fstp	 QWORD PTR [esp]
  0020a	68 99 99 b9 3f	 push	 1069128089		; 3fb99999H
  0020f	68 00 00 00 a0	 push	 -1610612736		; a0000000H
  00214	68 00 00 00 00	 push	 OFFSET FLAT:??_C@_0BM@NLFNLAND@Min?5?$DN?5?$CF0?41f?0?5Actual?5?$DN?5?$CF0?49f?$AA@
  00219	8d 8d d0 fe ff
	ff		 lea	 ecx, DWORD PTR _sz$93945[ebp]
  0021f	51		 push	 ecx
  00220	e8 00 00 00 00	 call	 _sprintf
  00225	83 c4 18	 add	 esp, 24			; 00000018H

; 908  : 				m_pSubtitleFont->DrawText(2, 15, D3DCOLOR_ARGB(255,180,180,180), sz) ;

  00228	6a 00		 push	 0
  0022a	8d 85 d0 fe ff
	ff		 lea	 eax, DWORD PTR _sz$93945[ebp]
  00230	50		 push	 eax
  00231	68 b4 b4 b4 ff	 push	 -4934476		; ffb4b4b4H
  00236	68 00 00 70 41	 push	 1097859072		; 41700000H
  0023b	68 00 00 00 40	 push	 1073741824		; 40000000H
  00240	8b 4d f4	 mov	 ecx, DWORD PTR _this$[ebp]
  00243	8b 89 f8 a8 02
	00		 mov	 ecx, DWORD PTR [ecx+174328]
  00249	e8 00 00 00 00	 call	 ?DrawTextA@CD3DFont@@QAEJMMKPADK@Z ; CD3DFont::DrawTextA

; 909  : 				sprintf(sz, "If this doesn't go away, then please exit.") ;

  0024e	68 00 00 00 00	 push	 OFFSET FLAT:??_C@_0CL@MEPBKDJD@If?5this?5doesn?8t?5go?5away?0?5then?5pl@
  00253	8d 85 d0 fe ff
	ff		 lea	 eax, DWORD PTR _sz$93945[ebp]
  00259	50		 push	 eax
  0025a	e8 00 00 00 00	 call	 _sprintf
  0025f	83 c4 08	 add	 esp, 8

; 910  : 				m_pSubtitleFont->DrawText(2, 30, D3DCOLOR_ARGB(255,180,180,180), sz) ;

  00262	6a 00		 push	 0
  00264	8d 85 d0 fe ff
	ff		 lea	 eax, DWORD PTR _sz$93945[ebp]
  0026a	50		 push	 eax
  0026b	68 b4 b4 b4 ff	 push	 -4934476		; ffb4b4b4H
  00270	68 00 00 f0 41	 push	 1106247680		; 41f00000H
  00275	68 00 00 00 40	 push	 1073741824		; 40000000H
  0027a	8b 4d f4	 mov	 ecx, DWORD PTR _this$[ebp]
  0027d	8b 89 f8 a8 02
	00		 mov	 ecx, DWORD PTR [ecx+174328]
  00283	e8 00 00 00 00	 call	 ?DrawTextA@CD3DFont@@QAEJMMKPADK@Z ; CD3DFont::DrawTextA

; 911  : 				m_pd3dDevice->EndScene() ;

  00288	8b 45 f4	 mov	 eax, DWORD PTR _this$[ebp]
  0028b	8b 88 a8 a4 02
	00		 mov	 ecx, DWORD PTR [eax+173224]
  00291	8b 55 f4	 mov	 edx, DWORD PTR _this$[ebp]
  00294	8b 82 a8 a4 02
	00		 mov	 eax, DWORD PTR [edx+173224]
  0029a	8b 09		 mov	 ecx, DWORD PTR [ecx]
  0029c	8b f4		 mov	 esi, esp
  0029e	50		 push	 eax
  0029f	ff 91 8c 00 00
	00		 call	 DWORD PTR [ecx+140]
  002a5	3b f4		 cmp	 esi, esp
  002a7	e8 00 00 00 00	 call	 __RTC_CheckEsp

; 912  : 				return S_OK ;

  002ac	33 c0		 xor	 eax, eax
  002ae	e9 85 16 00 00	 jmp	 $L93938
$L93946:

; 913  : 			}
; 914  : 
; 915  : 		// main menu
; 916  : 			if (m_bInMainMenu)

  002b3	8b 45 f4	 mov	 eax, DWORD PTR _this$[ebp]
  002b6	0f b6 88 d8 a7
	02 00		 movzx	 ecx, BYTE PTR [eax+174040]
  002bd	85 c9		 test	 ecx, ecx
  002bf	0f 84 d6 01 00
	00		 je	 $L93954

; 917  : 			{
; 918  : 				FLOAT fAspect = m_d3dsdBackBuffer.Width / (FLOAT)m_d3dsdBackBuffer.Height ;

  002c5	8b 45 f4	 mov	 eax, DWORD PTR _this$[ebp]
  002c8	8b 88 98 a5 02
	00		 mov	 ecx, DWORD PTR [eax+173464]
  002ce	89 8d 44 f8 ff
	ff		 mov	 DWORD PTR tv1408[ebp], ecx
  002d4	c7 85 48 f8 ff
	ff 00 00 00 00	 mov	 DWORD PTR tv1408[ebp+4], 0
  002de	df ad 44 f8 ff
	ff		 fild	 QWORD PTR tv1408[ebp]
  002e4	8b 55 f4	 mov	 edx, DWORD PTR _this$[ebp]
  002e7	8b 82 9c a5 02
	00		 mov	 eax, DWORD PTR [edx+173468]
  002ed	89 85 3c f8 ff
	ff		 mov	 DWORD PTR tv1413[ebp], eax
  002f3	c7 85 40 f8 ff
	ff 00 00 00 00	 mov	 DWORD PTR tv1413[ebp+4], 0
  002fd	df ad 3c f8 ff
	ff		 fild	 QWORD PTR tv1413[ebp]
  00303	de f9		 fdivp	 ST(1), ST(0)
  00305	d9 9d c4 fe ff
	ff		 fstp	 DWORD PTR _fAspect$93955[ebp]

; 919  : 				D3DXMatrixPerspectiveFovLH(&m_matProj, D3DX_PI/4, fAspect, 0.01f, 1000.0f) ;

  0030b	68 00 00 7a 44	 push	 1148846080		; 447a0000H
  00310	68 0a d7 23 3c	 push	 1008981770		; 3c23d70aH
  00315	8b 85 c4 fe ff
	ff		 mov	 eax, DWORD PTR _fAspect$93955[ebp]
  0031b	50		 push	 eax
  0031c	68 db 0f 49 3f	 push	 1061752795		; 3f490fdbH
  00321	8b 4d f4	 mov	 ecx, DWORD PTR _this$[ebp]
  00324	81 c1 54 a9 02
	00		 add	 ecx, 174420		; 0002a954H
  0032a	51		 push	 ecx
  0032b	e8 00 00 00 00	 call	 _D3DXMatrixPerspectiveFovLH@20

; 920  : 				m_pd3dDevice->SetTransform(D3DTS_PROJECTION, &m_matProj) ;

  00330	8b 45 f4	 mov	 eax, DWORD PTR _this$[ebp]
  00333	05 54 a9 02 00	 add	 eax, 174420		; 0002a954H
  00338	8b f4		 mov	 esi, esp
  0033a	50		 push	 eax
  0033b	6a 03		 push	 3
  0033d	8b 4d f4	 mov	 ecx, DWORD PTR _this$[ebp]
  00340	8b 91 a8 a4 02
	00		 mov	 edx, DWORD PTR [ecx+173224]
  00346	8b 45 f4	 mov	 eax, DWORD PTR _this$[ebp]
  00349	8b 88 a8 a4 02
	00		 mov	 ecx, DWORD PTR [eax+173224]
  0034f	8b 12		 mov	 edx, DWORD PTR [edx]
  00351	51		 push	 ecx
  00352	ff 92 94 00 00
	00		 call	 DWORD PTR [edx+148]
  00358	3b f4		 cmp	 esi, esp
  0035a	e8 00 00 00 00	 call	 __RTC_CheckEsp

; 921  : 				m_pd3dDevice->Clear(0, NULL, D3DCLEAR_TARGET|D3DCLEAR_ZBUFFER, 0x00, 1.0f, 0) ;

  0035f	8b f4		 mov	 esi, esp
  00361	6a 00		 push	 0
  00363	68 00 00 80 3f	 push	 1065353216		; 3f800000H
  00368	6a 00		 push	 0
  0036a	6a 03		 push	 3
  0036c	6a 00		 push	 0
  0036e	6a 00		 push	 0
  00370	8b 45 f4	 mov	 eax, DWORD PTR _this$[ebp]
  00373	8b 88 a8 a4 02
	00		 mov	 ecx, DWORD PTR [eax+173224]
  00379	8b 55 f4	 mov	 edx, DWORD PTR _this$[ebp]
  0037c	8b 82 a8 a4 02
	00		 mov	 eax, DWORD PTR [edx+173224]
  00382	8b 09		 mov	 ecx, DWORD PTR [ecx]
  00384	50		 push	 eax
  00385	ff 91 90 00 00
	00		 call	 DWORD PTR [ecx+144]
  0038b	3b f4		 cmp	 esi, esp
  0038d	e8 00 00 00 00	 call	 __RTC_CheckEsp

; 922  : 				m_pMainMenu->Render(m_pd3dDevice, m_pOverlayMan) ;

  00392	8b 45 f4	 mov	 eax, DWORD PTR _this$[ebp]
  00395	8b 88 d8 a8 02
	00		 mov	 ecx, DWORD PTR [eax+174296]
  0039b	51		 push	 ecx
  0039c	8b 55 f4	 mov	 edx, DWORD PTR _this$[ebp]
  0039f	8b 82 a8 a4 02
	00		 mov	 eax, DWORD PTR [edx+173224]
  003a5	50		 push	 eax
  003a6	8b 4d f4	 mov	 ecx, DWORD PTR _this$[ebp]
  003a9	8b 89 e0 a8 02
	00		 mov	 ecx, DWORD PTR [ecx+174304]
  003af	e8 00 00 00 00	 call	 ?Render@CMainMenu@@QAEJPAUIDirect3DDevice8@@PAVCScreenOverlayManager@@@Z ; CMainMenu::Render

; 923  : 				
; 924  : 				static float fTime = 0.0f ;
; 925  : 				static int nKey = 0 ;
; 926  : 				if( fTime == 0.0f )

  003b4	d9 05 00 00 00
	00		 fld	 DWORD PTR ?fTime@?N@??Render@Cx7@@UAEJXZ@4MA
  003ba	d8 1d 00 00 00
	00		 fcomp	 DWORD PTR __real@00000000
  003c0	df e0		 fnstsw	 ax
  003c2	f6 c4 44	 test	 ah, 68			; 00000044H
  003c5	7a 3e		 jp	 SHORT $L93962

; 927  : 					SetKey( nKey==0?VK_NUMLOCK:
; 928  : 							nKey==1?VK_CAPITAL:VK_SCROLL, 1 );

  003c7	83 3d 00 00 00
	00 00		 cmp	 DWORD PTR ?nKey@?N@??Render@Cx7@@UAEJXZ@4HA, 0
  003ce	75 0c		 jne	 SHORT $L94667
  003d0	c7 85 48 f8 ff
	ff 90 00 00 00	 mov	 DWORD PTR tv264[ebp], 144 ; 00000090H
  003da	eb 18		 jmp	 SHORT $L94668
$L94667:
  003dc	a1 00 00 00 00	 mov	 eax, DWORD PTR ?nKey@?N@??Render@Cx7@@UAEJXZ@4HA
  003e1	83 e8 01	 sub	 eax, 1
  003e4	f7 d8		 neg	 eax
  003e6	1b c0		 sbb	 eax, eax
  003e8	83 e0 7d	 and	 eax, 125		; 0000007dH
  003eb	83 c0 14	 add	 eax, 20			; 00000014H
  003ee	89 85 48 f8 ff
	ff		 mov	 DWORD PTR tv264[ebp], eax
$L94668:
  003f4	6a 01		 push	 1
  003f6	8b 8d 48 f8 ff
	ff		 mov	 ecx, DWORD PTR tv264[ebp]
  003fc	51		 push	 ecx
  003fd	e8 00 00 00 00	 call	 ?SetKey@@YAXHH@Z	; SetKey
  00402	83 c4 08	 add	 esp, 8
$L93962:

; 929  : 				fTime += (1.0f/m_fFPS);

  00405	8b 45 f4	 mov	 eax, DWORD PTR _this$[ebp]
  00408	d9 05 00 00 00
	00		 fld	 DWORD PTR __real@3f800000
  0040e	d8 b0 cc a5 02
	00		 fdiv	 DWORD PTR [eax+173516]
  00414	d8 05 00 00 00
	00		 fadd	 DWORD PTR ?fTime@?N@??Render@Cx7@@UAEJXZ@4MA
  0041a	d9 1d 00 00 00
	00		 fstp	 DWORD PTR ?fTime@?N@??Render@Cx7@@UAEJXZ@4MA

; 930  : 				if( fTime >= 0.1f )

  00420	d9 05 00 00 00
	00		 fld	 DWORD PTR ?fTime@?N@??Render@Cx7@@UAEJXZ@4MA
  00426	d8 1d 00 00 00
	00		 fcomp	 DWORD PTR __real@3dcccccd
  0042c	df e0		 fnstsw	 ax
  0042e	f6 c4 01	 test	 ah, 1
  00431	75 68		 jne	 SHORT $L93954

; 931  : 				{
; 932  : 					SetKey( nKey==0?VK_NUMLOCK:
; 933  : 							nKey==1?VK_CAPITAL:VK_SCROLL, 0 );

  00433	83 3d 00 00 00
	00 00		 cmp	 DWORD PTR ?nKey@?N@??Render@Cx7@@UAEJXZ@4HA, 0
  0043a	75 0c		 jne	 SHORT $L94669
  0043c	c7 85 48 f8 ff
	ff 90 00 00 00	 mov	 DWORD PTR tv275[ebp], 144 ; 00000090H
  00446	eb 18		 jmp	 SHORT $L94670
$L94669:
  00448	a1 00 00 00 00	 mov	 eax, DWORD PTR ?nKey@?N@??Render@Cx7@@UAEJXZ@4HA
  0044d	83 e8 01	 sub	 eax, 1
  00450	f7 d8		 neg	 eax
  00452	1b c0		 sbb	 eax, eax
  00454	83 e0 7d	 and	 eax, 125		; 0000007dH
  00457	83 c0 14	 add	 eax, 20			; 00000014H
  0045a	89 85 48 f8 ff
	ff		 mov	 DWORD PTR tv275[ebp], eax
$L94670:
  00460	6a 00		 push	 0
  00462	8b 8d 48 f8 ff
	ff		 mov	 ecx, DWORD PTR tv275[ebp]
  00468	51		 push	 ecx
  00469	e8 00 00 00 00	 call	 ?SetKey@@YAXHH@Z	; SetKey
  0046e	83 c4 08	 add	 esp, 8

; 934  : 					nKey++ ;

  00471	a1 00 00 00 00	 mov	 eax, DWORD PTR ?nKey@?N@??Render@Cx7@@UAEJXZ@4HA
  00476	83 c0 01	 add	 eax, 1
  00479	a3 00 00 00 00	 mov	 DWORD PTR ?nKey@?N@??Render@Cx7@@UAEJXZ@4HA, eax

; 935  : 					fTime=0.0f;

  0047e	c7 05 00 00 00
	00 00 00 00 00	 mov	 DWORD PTR ?fTime@?N@??Render@Cx7@@UAEJXZ@4MA, 0

; 936  : 					if(nKey==3)

  00488	83 3d 00 00 00
	00 03		 cmp	 DWORD PTR ?nKey@?N@??Render@Cx7@@UAEJXZ@4HA, 3
  0048f	75 0a		 jne	 SHORT $L93954

; 937  : 						nKey=0;

  00491	c7 05 00 00 00
	00 00 00 00 00	 mov	 DWORD PTR ?nKey@?N@??Render@Cx7@@UAEJXZ@4HA, 0
$L93954:

; 938  : 				}
; 939  : 			}
; 940  : 
; 941  : 		// loading
; 942  : 			if (m_bLoadingGame)

  0049b	8b 45 f4	 mov	 eax, DWORD PTR _this$[ebp]
  0049e	0f b6 88 d9 a7
	02 00		 movzx	 ecx, BYTE PTR [eax+174041]
  004a5	85 c9		 test	 ecx, ecx
  004a7	0f 84 f2 02 00
	00		 je	 $L93965

; 943  : 			{
; 944  : 				FLOAT fAspect = m_d3dsdBackBuffer.Width / (FLOAT)m_d3dsdBackBuffer.Height ;

  004ad	8b 45 f4	 mov	 eax, DWORD PTR _this$[ebp]
  004b0	8b 88 98 a5 02
	00		 mov	 ecx, DWORD PTR [eax+173464]
  004b6	89 8d 44 f8 ff
	ff		 mov	 DWORD PTR tv1463[ebp], ecx
  004bc	c7 85 48 f8 ff
	ff 00 00 00 00	 mov	 DWORD PTR tv1463[ebp+4], 0
  004c6	df ad 44 f8 ff
	ff		 fild	 QWORD PTR tv1463[ebp]
  004cc	8b 55 f4	 mov	 edx, DWORD PTR _this$[ebp]
  004cf	8b 82 9c a5 02
	00		 mov	 eax, DWORD PTR [edx+173468]
  004d5	89 85 3c f8 ff
	ff		 mov	 DWORD PTR tv1468[ebp], eax
  004db	c7 85 40 f8 ff
	ff 00 00 00 00	 mov	 DWORD PTR tv1468[ebp+4], 0
  004e5	df ad 3c f8 ff
	ff		 fild	 QWORD PTR tv1468[ebp]
  004eb	de f9		 fdivp	 ST(1), ST(0)
  004ed	d9 9d b8 fe ff
	ff		 fstp	 DWORD PTR _fAspect$93966[ebp]

; 945  : 				D3DXMatrixPerspectiveFovLH(&m_matProj, D3DX_PI/4, fAspect, 0.01f, 1000.0f) ;

  004f3	68 00 00 7a 44	 push	 1148846080		; 447a0000H
  004f8	68 0a d7 23 3c	 push	 1008981770		; 3c23d70aH
  004fd	8b 85 b8 fe ff
	ff		 mov	 eax, DWORD PTR _fAspect$93966[ebp]
  00503	50		 push	 eax
  00504	68 db 0f 49 3f	 push	 1061752795		; 3f490fdbH
  00509	8b 4d f4	 mov	 ecx, DWORD PTR _this$[ebp]
  0050c	81 c1 54 a9 02
	00		 add	 ecx, 174420		; 0002a954H
  00512	51		 push	 ecx
  00513	e8 00 00 00 00	 call	 _D3DXMatrixPerspectiveFovLH@20

; 946  : 				m_pd3dDevice->SetTransform(D3DTS_PROJECTION, &m_matProj) ;

  00518	8b 45 f4	 mov	 eax, DWORD PTR _this$[ebp]
  0051b	05 54 a9 02 00	 add	 eax, 174420		; 0002a954H
  00520	8b f4		 mov	 esi, esp
  00522	50		 push	 eax
  00523	6a 03		 push	 3
  00525	8b 4d f4	 mov	 ecx, DWORD PTR _this$[ebp]
  00528	8b 91 a8 a4 02
	00		 mov	 edx, DWORD PTR [ecx+173224]
  0052e	8b 45 f4	 mov	 eax, DWORD PTR _this$[ebp]
  00531	8b 88 a8 a4 02
	00		 mov	 ecx, DWORD PTR [eax+173224]
  00537	8b 12		 mov	 edx, DWORD PTR [edx]
  00539	51		 push	 ecx
  0053a	ff 92 94 00 00
	00		 call	 DWORD PTR [edx+148]
  00540	3b f4		 cmp	 esi, esp
  00542	e8 00 00 00 00	 call	 __RTC_CheckEsp

; 947  : 				m_pd3dDevice->Clear(0, NULL, D3DCLEAR_TARGET|D3DCLEAR_ZBUFFER, 0x00, 1.0f, 0) ;

  00547	8b f4		 mov	 esi, esp
  00549	6a 00		 push	 0
  0054b	68 00 00 80 3f	 push	 1065353216		; 3f800000H
  00550	6a 00		 push	 0
  00552	6a 03		 push	 3
  00554	6a 00		 push	 0
  00556	6a 00		 push	 0
  00558	8b 45 f4	 mov	 eax, DWORD PTR _this$[ebp]
  0055b	8b 88 a8 a4 02
	00		 mov	 ecx, DWORD PTR [eax+173224]
  00561	8b 55 f4	 mov	 edx, DWORD PTR _this$[ebp]
  00564	8b 82 a8 a4 02
	00		 mov	 eax, DWORD PTR [edx+173224]
  0056a	8b 09		 mov	 ecx, DWORD PTR [ecx]
  0056c	50		 push	 eax
  0056d	ff 91 90 00 00
	00		 call	 DWORD PTR [ecx+144]
  00573	3b f4		 cmp	 esi, esp
  00575	e8 00 00 00 00	 call	 __RTC_CheckEsp

; 948  : 
; 949  : 				sprintf( sz, "LEVEL %d", m_nLevel );

  0057a	8b 45 f4	 mov	 eax, DWORD PTR _this$[ebp]
  0057d	8b 88 04 a9 02
	00		 mov	 ecx, DWORD PTR [eax+174340]
  00583	51		 push	 ecx
  00584	68 00 00 00 00	 push	 OFFSET FLAT:??_C@_08FNJLKAEH@LEVEL?5?$CFd?$AA@
  00589	8d 95 d0 fe ff
	ff		 lea	 edx, DWORD PTR _sz$93945[ebp]
  0058f	52		 push	 edx
  00590	e8 00 00 00 00	 call	 _sprintf
  00595	83 c4 0c	 add	 esp, 12			; 0000000cH

; 950  : 				m_pTitleFont->DrawText(20, 20, D3DCOLOR_ARGB(254,254,254,254), sz) ;

  00598	6a 00		 push	 0
  0059a	8d 85 d0 fe ff
	ff		 lea	 eax, DWORD PTR _sz$93945[ebp]
  005a0	50		 push	 eax
  005a1	68 fe fe fe fe	 push	 -16843010		; fefefefeH
  005a6	68 00 00 a0 41	 push	 1101004800		; 41a00000H
  005ab	68 00 00 a0 41	 push	 1101004800		; 41a00000H
  005b0	8b 4d f4	 mov	 ecx, DWORD PTR _this$[ebp]
  005b3	8b 89 f4 a8 02
	00		 mov	 ecx, DWORD PTR [ecx+174324]
  005b9	e8 00 00 00 00	 call	 ?DrawTextA@CD3DFont@@QAEJMMKPADK@Z ; CD3DFont::DrawTextA

; 951  : 
; 952  : 				if( m_bRaceCreated )

  005be	8b 45 f4	 mov	 eax, DWORD PTR _this$[ebp]
  005c1	0f b6 88 e0 a7
	02 00		 movzx	 ecx, BYTE PTR [eax+174048]
  005c8	85 c9		 test	 ecx, ecx
  005ca	0f 84 26 01 00
	00		 je	 $L93971

; 953  : 				{
; 954  : 					char szMillis[ 256 ], szTime[ 80 ];
; 955  : 					sprintf(szMillis, "%02.0f", (m_pTestRace->m_fGameTimeRemaining - floorf( m_pTestRace->m_fGameTimeRemaining )) * 100.0f );

  005d0	8b 45 f4	 mov	 eax, DWORD PTR _this$[ebp]
  005d3	8b b0 ec a8 02
	00		 mov	 esi, DWORD PTR [eax+174316]
  005d9	8b 4d f4	 mov	 ecx, DWORD PTR _this$[ebp]
  005dc	8b 91 ec a8 02
	00		 mov	 edx, DWORD PTR [ecx+174316]
  005e2	8b 82 04 01 00
	00		 mov	 eax, DWORD PTR [edx+260]
  005e8	50		 push	 eax
  005e9	e8 00 00 00 00	 call	 _floorf
  005ee	83 c4 04	 add	 esp, 4
  005f1	d8 ae 04 01 00
	00		 fsubr	 DWORD PTR [esi+260]
  005f7	d8 0d 00 00 00
	00		 fmul	 DWORD PTR __real@42c80000
  005fd	83 ec 08	 sub	 esp, 8
  00600	dd 1c 24	 fstp	 QWORD PTR [esp]
  00603	68 00 00 00 00	 push	 OFFSET FLAT:??_C@_06HHKMCLEN@?$CF02?40f?$AA@
  00608	8d 8d b0 fd ff
	ff		 lea	 ecx, DWORD PTR _szMillis$93972[ebp]
  0060e	51		 push	 ecx
  0060f	e8 00 00 00 00	 call	 _sprintf
  00614	83 c4 10	 add	 esp, 16			; 00000010H

; 956  : 					sprintf( szTime, "%01d:%02d.%c%c",
; 957  : 							(int)( floorf( m_pTestRace->m_fGameTimeRemaining / 60.0f ) ),
; 958  : 							(int)( fmodf( m_pTestRace->m_fGameTimeRemaining, 60.0f ) ), szMillis[ 0 ], szMillis[ 1 ] );

  00617	0f be 85 b1 fd
	ff ff		 movsx	 eax, BYTE PTR _szMillis$93972[ebp+1]
  0061e	50		 push	 eax
  0061f	0f be 8d b0 fd
	ff ff		 movsx	 ecx, BYTE PTR _szMillis$93972[ebp]
  00626	51		 push	 ecx
  00627	68 00 00 70 42	 push	 1114636288		; 42700000H
  0062c	8b 55 f4	 mov	 edx, DWORD PTR _this$[ebp]
  0062f	8b 82 ec a8 02
	00		 mov	 eax, DWORD PTR [edx+174316]
  00635	8b 88 04 01 00
	00		 mov	 ecx, DWORD PTR [eax+260]
  0063b	51		 push	 ecx
  0063c	e8 00 00 00 00	 call	 _fmodf
  00641	83 c4 08	 add	 esp, 8
  00644	e8 00 00 00 00	 call	 __ftol2
  00649	50		 push	 eax
  0064a	8b 55 f4	 mov	 edx, DWORD PTR _this$[ebp]
  0064d	8b 82 ec a8 02
	00		 mov	 eax, DWORD PTR [edx+174316]
  00653	d9 80 04 01 00
	00		 fld	 DWORD PTR [eax+260]
  00659	d8 35 00 00 00
	00		 fdiv	 DWORD PTR __real@42700000
  0065f	51		 push	 ecx
  00660	d9 1c 24	 fstp	 DWORD PTR [esp]
  00663	e8 00 00 00 00	 call	 _floorf
  00668	83 c4 04	 add	 esp, 4
  0066b	e8 00 00 00 00	 call	 __ftol2
  00670	50		 push	 eax
  00671	68 00 00 00 00	 push	 OFFSET FLAT:??_C@_0P@FBNAFMPM@?$CF01d?3?$CF02d?4?$CFc?$CFc?$AA@
  00676	8d 8d 58 fd ff
	ff		 lea	 ecx, DWORD PTR _szTime$93973[ebp]
  0067c	51		 push	 ecx
  0067d	e8 00 00 00 00	 call	 _sprintf
  00682	83 c4 18	 add	 esp, 24			; 00000018H

; 959  : 					sprintf( sz, "%ss / %d / %d / %d bots",
; 960  : 								szTime,
; 961  : 								m_pTestRace->m_pTerrain->m_nCherries,
; 962  : 								m_pTestRace->m_pTerrain->m_nEnginePwrUps,
; 963  : 								m_pTestRace->m_nBots );

  00685	8b 45 f4	 mov	 eax, DWORD PTR _this$[ebp]
  00688	8b 88 ec a8 02
	00		 mov	 ecx, DWORD PTR [eax+174316]
  0068e	8b 51 18	 mov	 edx, DWORD PTR [ecx+24]
  00691	52		 push	 edx
  00692	8b 45 f4	 mov	 eax, DWORD PTR _this$[ebp]
  00695	8b 88 ec a8 02
	00		 mov	 ecx, DWORD PTR [eax+174316]
  0069b	8b 51 24	 mov	 edx, DWORD PTR [ecx+36]
  0069e	8b 82 80 00 00
	00		 mov	 eax, DWORD PTR [edx+128]
  006a4	50		 push	 eax
  006a5	8b 4d f4	 mov	 ecx, DWORD PTR _this$[ebp]
  006a8	8b 91 ec a8 02
	00		 mov	 edx, DWORD PTR [ecx+174316]
  006ae	8b 42 24	 mov	 eax, DWORD PTR [edx+36]
  006b1	8b 48 70	 mov	 ecx, DWORD PTR [eax+112]
  006b4	51		 push	 ecx
  006b5	8d 95 58 fd ff
	ff		 lea	 edx, DWORD PTR _szTime$93973[ebp]
  006bb	52		 push	 edx
  006bc	68 00 00 00 00	 push	 OFFSET FLAT:??_C@_0BI@KBOFDKNM@?$CFss?5?1?5?$CFd?5?1?5?$CFd?5?1?5?$CFd?5bots?$AA@
  006c1	8d 85 d0 fe ff
	ff		 lea	 eax, DWORD PTR _sz$93945[ebp]
  006c7	50		 push	 eax
  006c8	e8 00 00 00 00	 call	 _sprintf
  006cd	83 c4 18	 add	 esp, 24			; 00000018H

; 964  : 					m_pTitleFont->DrawText(20, 100, D3DCOLOR_ARGB(254,180,180,180), sz) ;

  006d0	6a 00		 push	 0
  006d2	8d 85 d0 fe ff
	ff		 lea	 eax, DWORD PTR _sz$93945[ebp]
  006d8	50		 push	 eax
  006d9	68 b4 b4 b4 fe	 push	 -21711692		; feb4b4b4H
  006de	68 00 00 c8 42	 push	 1120403456		; 42c80000H
  006e3	68 00 00 a0 41	 push	 1101004800		; 41a00000H
  006e8	8b 4d f4	 mov	 ecx, DWORD PTR _this$[ebp]
  006eb	8b 89 f4 a8 02
	00		 mov	 ecx, DWORD PTR [ecx+174324]
  006f1	e8 00 00 00 00	 call	 ?DrawTextA@CD3DFont@@QAEJMMKPADK@Z ; CD3DFont::DrawTextA
$L93971:

; 965  : 				}
; 966  : 
; 967  : 				if( m_bWaitingToStartGame )

  006f6	8b 45 f4	 mov	 eax, DWORD PTR _this$[ebp]
  006f9	0f b6 88 da a7
	02 00		 movzx	 ecx, BYTE PTR [eax+174042]
  00700	85 c9		 test	 ecx, ecx
  00702	74 23		 je	 SHORT $L93980

; 968  : 				{
; 969  : 					m_pTitleFont->DrawText( 20, 150, D3DCOLOR_ARGB(255,255,255,255), "Click to start..." );

  00704	6a 00		 push	 0
  00706	68 00 00 00 00	 push	 OFFSET FLAT:??_C@_0BC@LNLJFNJN@Click?5to?5start?4?4?4?$AA@
  0070b	6a ff		 push	 -1
  0070d	68 00 00 16 43	 push	 1125515264		; 43160000H
  00712	68 00 00 a0 41	 push	 1101004800		; 41a00000H
  00717	8b 45 f4	 mov	 eax, DWORD PTR _this$[ebp]
  0071a	8b 88 f4 a8 02
	00		 mov	 ecx, DWORD PTR [eax+174324]
  00720	e8 00 00 00 00	 call	 ?DrawTextA@CD3DFont@@QAEJMMKPADK@Z ; CD3DFont::DrawTextA

; 970  : 				}
; 971  : 				else

  00725	eb 78		 jmp	 SHORT $L93965
$L93980:

; 972  : 				{
; 973  : 					m_pSubtitleFont->DrawText( 20, 240, D3DCOLOR_ARGB(255,220,220,220), m_szLoadingGameStatus) ;

  00727	6a 00		 push	 0
  00729	8b 45 f4	 mov	 eax, DWORD PTR _this$[ebp]
  0072c	05 e1 a7 02 00	 add	 eax, 174049		; 0002a7e1H
  00731	50		 push	 eax
  00732	68 dc dc dc ff	 push	 -2302756		; ffdcdcdcH
  00737	68 00 00 70 43	 push	 1131413504		; 43700000H
  0073c	68 00 00 a0 41	 push	 1101004800		; 41a00000H
  00741	8b 4d f4	 mov	 ecx, DWORD PTR _this$[ebp]
  00744	8b 89 f8 a8 02
	00		 mov	 ecx, DWORD PTR [ecx+174328]
  0074a	e8 00 00 00 00	 call	 ?DrawTextA@CD3DFont@@QAEJMMKPADK@Z ; CD3DFont::DrawTextA

; 974  : 					m_pSubtitleFont->DrawText( 20, 260, D3DCOLOR_ARGB(255,200,200,200), m_szLoadingGameInfo1) ;

  0074f	6a 00		 push	 0
  00751	8b 45 f4	 mov	 eax, DWORD PTR _this$[ebp]
  00754	05 31 a8 02 00	 add	 eax, 174129		; 0002a831H
  00759	50		 push	 eax
  0075a	68 c8 c8 c8 ff	 push	 -3618616		; ffc8c8c8H
  0075f	68 00 00 82 43	 push	 1132593152		; 43820000H
  00764	68 00 00 a0 41	 push	 1101004800		; 41a00000H
  00769	8b 4d f4	 mov	 ecx, DWORD PTR _this$[ebp]
  0076c	8b 89 f8 a8 02
	00		 mov	 ecx, DWORD PTR [ecx+174328]
  00772	e8 00 00 00 00	 call	 ?DrawTextA@CD3DFont@@QAEJMMKPADK@Z ; CD3DFont::DrawTextA

; 975  : 					m_pSubtitleFont->DrawText( 20, 280, D3DCOLOR_ARGB(255,180,180,180), m_szLoadingGameInfo2) ;

  00777	6a 00		 push	 0
  00779	8b 45 f4	 mov	 eax, DWORD PTR _this$[ebp]
  0077c	05 81 a8 02 00	 add	 eax, 174209		; 0002a881H
  00781	50		 push	 eax
  00782	68 b4 b4 b4 ff	 push	 -4934476		; ffb4b4b4H
  00787	68 00 00 8c 43	 push	 1133248512		; 438c0000H
  0078c	68 00 00 a0 41	 push	 1101004800		; 41a00000H
  00791	8b 4d f4	 mov	 ecx, DWORD PTR _this$[ebp]
  00794	8b 89 f8 a8 02
	00		 mov	 ecx, DWORD PTR [ecx+174328]
  0079a	e8 00 00 00 00	 call	 ?DrawTextA@CD3DFont@@QAEJMMKPADK@Z ; CD3DFont::DrawTextA
$L93965:

; 976  : 				}
; 977  : 			}
; 978  : 
; 979  : 		// version & compile info
; 980  : 			if( m_bLoadingGame /*|| m_bInMainMenu*/ )

  0079f	8b 45 f4	 mov	 eax, DWORD PTR _this$[ebp]
  007a2	0f b6 88 d9 a7
	02 00		 movzx	 ecx, BYTE PTR [eax+174041]
  007a9	85 c9		 test	 ecx, ecx
  007ab	0f 84 84 00 00
	00		 je	 $L93987

; 981  : 			{
; 982  : 				sprintf( sz, "Ver. %d.%02d %s -- %s Build -- VC%d %s %s", g_nAppVerMaj, g_nAppVerMin, g_szAppRelease, g_szAppBuild, _MSC_VER, __DATE__, __TIME__ );

  007b1	68 00 00 00 00	 push	 OFFSET FLAT:??_C@_08PPKINLHH@13?302?344?$AA@
  007b6	68 00 00 00 00	 push	 OFFSET FLAT:??_C@_0M@BCNHKICP@Jul?520?52002?$AA@
  007bb	68 14 05 00 00	 push	 1300			; 00000514H
  007c0	68 00 00 00 00	 push	 OFFSET FLAT:?g_szAppBuild@@3PADA ; g_szAppBuild
  007c5	68 00 00 00 00	 push	 OFFSET FLAT:?g_szAppRelease@@3PADA ; g_szAppRelease
  007ca	a1 00 00 00 00	 mov	 eax, DWORD PTR ?g_nAppVerMin@@3HA ; g_nAppVerMin
  007cf	50		 push	 eax
  007d0	8b 0d 00 00 00
	00		 mov	 ecx, DWORD PTR ?g_nAppVerMaj@@3HA ; g_nAppVerMaj
  007d6	51		 push	 ecx
  007d7	68 00 00 00 00	 push	 OFFSET FLAT:??_C@_0CK@OGILCEPP@Ver?4?5?$CFd?4?$CF02d?5?$CFs?5?9?9?5?$CFs?5Build?5?9?9?5V@
  007dc	8d 95 d0 fe ff
	ff		 lea	 edx, DWORD PTR _sz$93945[ebp]
  007e2	52		 push	 edx
  007e3	e8 00 00 00 00	 call	 _sprintf
  007e8	83 c4 24	 add	 esp, 36			; 00000024H

; 983  : 				m_pSubtitleFont->DrawText(20, m_vpViewport.Height * 0.9f, D3DCOLOR_ARGB(255,160,160,160), sz) ;

  007eb	6a 00		 push	 0
  007ed	8d 85 d0 fe ff
	ff		 lea	 eax, DWORD PTR _sz$93945[ebp]
  007f3	50		 push	 eax
  007f4	68 a0 a0 a0 ff	 push	 -6250336		; ffa0a0a0H
  007f9	8b 4d f4	 mov	 ecx, DWORD PTR _this$[ebp]
  007fc	8b 91 48 a9 02
	00		 mov	 edx, DWORD PTR [ecx+174408]
  00802	89 95 44 f8 ff
	ff		 mov	 DWORD PTR tv1548[ebp], edx
  00808	c7 85 48 f8 ff
	ff 00 00 00 00	 mov	 DWORD PTR tv1548[ebp+4], 0
  00812	df ad 44 f8 ff
	ff		 fild	 QWORD PTR tv1548[ebp]
  00818	d8 0d 00 00 00
	00		 fmul	 DWORD PTR __real@3f666666
  0081e	51		 push	 ecx
  0081f	d9 1c 24	 fstp	 DWORD PTR [esp]
  00822	68 00 00 a0 41	 push	 1101004800		; 41a00000H
  00827	8b 45 f4	 mov	 eax, DWORD PTR _this$[ebp]
  0082a	8b 88 f8 a8 02
	00		 mov	 ecx, DWORD PTR [eax+174328]
  00830	e8 00 00 00 00	 call	 ?DrawTextA@CD3DFont@@QAEJMMKPADK@Z ; CD3DFont::DrawTextA
$L93987:

; 984  : 			}
; 985  : 
; 986  : 		// in game
; 987  : 			if (m_bInGame /*&& !m_bGamePaused*/)

  00835	8b 45 f4	 mov	 eax, DWORD PTR _this$[ebp]
  00838	0f b6 88 db a7
	02 00		 movzx	 ecx, BYTE PTR [eax+174043]
  0083f	85 c9		 test	 ecx, ecx
  00841	0f 84 1f 09 00
	00		 je	 $L93992

; 988  : 			{
; 989  : 				//dwFramesInGame++ ;
; 990  : 				//fTimeInGameS += ( 1 / m_fFPS );
; 991  : 
; 992  : 			// non T&L capable device workaround; (reports MaxActiveLights as > 0xffffff)
; 993  : 				int nLightsToUse = m_d3dCaps.MaxActiveLights > 0xff ? 8 : m_d3dCaps.MaxActiveLights ;

  00847	8b 45 f4	 mov	 eax, DWORD PTR _this$[ebp]
  0084a	81 b8 4c a5 02
	00 ff 00 00 00	 cmp	 DWORD PTR [eax+173388], 255 ; 000000ffH
  00854	76 0c		 jbe	 SHORT $L94671
  00856	c7 85 48 f8 ff
	ff 08 00 00 00	 mov	 DWORD PTR tv461[ebp], 8
  00860	eb 0f		 jmp	 SHORT $L94672
$L94671:
  00862	8b 4d f4	 mov	 ecx, DWORD PTR _this$[ebp]
  00865	8b 91 4c a5 02
	00		 mov	 edx, DWORD PTR [ecx+173388]
  0086b	89 95 48 f8 ff
	ff		 mov	 DWORD PTR tv461[ebp], edx
$L94672:
  00871	8b 85 48 f8 ff
	ff		 mov	 eax, DWORD PTR tv461[ebp]
  00877	89 85 4c fd ff
	ff		 mov	 DWORD PTR _nLightsToUse$93993[ebp], eax

; 994  : 
; 995  : 			// note; projection matrix is set per object in CRace
; 996  : 				float fAspect = m_d3dsdBackBuffer.Width / (float)m_d3dsdBackBuffer.Height ;

  0087d	8b 45 f4	 mov	 eax, DWORD PTR _this$[ebp]
  00880	8b 88 98 a5 02
	00		 mov	 ecx, DWORD PTR [eax+173464]
  00886	89 8d 44 f8 ff
	ff		 mov	 DWORD PTR tv1562[ebp], ecx
  0088c	c7 85 48 f8 ff
	ff 00 00 00 00	 mov	 DWORD PTR tv1562[ebp+4], 0
  00896	df ad 44 f8 ff
	ff		 fild	 QWORD PTR tv1562[ebp]
  0089c	8b 55 f4	 mov	 edx, DWORD PTR _this$[ebp]
  0089f	8b 82 9c a5 02
	00		 mov	 eax, DWORD PTR [edx+173468]
  008a5	89 85 3c f8 ff
	ff		 mov	 DWORD PTR tv1567[ebp], eax
  008ab	c7 85 40 f8 ff
	ff 00 00 00 00	 mov	 DWORD PTR tv1567[ebp+4], 0
  008b5	df ad 3c f8 ff
	ff		 fild	 QWORD PTR tv1567[ebp]
  008bb	de f9		 fdivp	 ST(1), ST(0)
  008bd	d9 9d 40 fd ff
	ff		 fstp	 DWORD PTR _fAspect$93994[ebp]

; 997  : #ifdef _DEBUG
; 998  : 				m_pd3dDevice->Clear( 0, NULL, D3DCLEAR_TARGET | D3DCLEAR_ZBUFFER, 0x00ffffff, 1.0f, 0x00 );

  008c3	8b f4		 mov	 esi, esp
  008c5	6a 00		 push	 0
  008c7	68 00 00 80 3f	 push	 1065353216		; 3f800000H
  008cc	68 ff ff ff 00	 push	 16777215		; 00ffffffH
  008d1	6a 03		 push	 3
  008d3	6a 00		 push	 0
  008d5	6a 00		 push	 0
  008d7	8b 45 f4	 mov	 eax, DWORD PTR _this$[ebp]
  008da	8b 88 a8 a4 02
	00		 mov	 ecx, DWORD PTR [eax+173224]
  008e0	8b 55 f4	 mov	 edx, DWORD PTR _this$[ebp]
  008e3	8b 82 a8 a4 02
	00		 mov	 eax, DWORD PTR [edx+173224]
  008e9	8b 09		 mov	 ecx, DWORD PTR [ecx]
  008eb	50		 push	 eax
  008ec	ff 91 90 00 00
	00		 call	 DWORD PTR [ecx+144]
  008f2	3b f4		 cmp	 esi, esp
  008f4	e8 00 00 00 00	 call	 __RTC_CheckEsp

; 999  : #else
; 1000 : 				m_pd3dDevice->Clear( 0, NULL, D3DCLEAR_TARGET | D3DCLEAR_ZBUFFER, 0x00ffffff, 1.0f, 0x00 );
; 1001 : #endif
; 1002 : 				m_pTestRace->Render( m_pd3dDevice, m_pTextures, &m_ulPPF, fAspect, m_fFPS, nLightsToUse );

  008f9	8b 85 4c fd ff
	ff		 mov	 eax, DWORD PTR _nLightsToUse$93993[ebp]
  008ff	50		 push	 eax
  00900	8b 4d f4	 mov	 ecx, DWORD PTR _this$[ebp]
  00903	8b 91 cc a5 02
	00		 mov	 edx, DWORD PTR [ecx+173516]
  00909	52		 push	 edx
  0090a	8b 85 40 fd ff
	ff		 mov	 eax, DWORD PTR _fAspect$93994[ebp]
  00910	50		 push	 eax
  00911	8b 4d f4	 mov	 ecx, DWORD PTR _this$[ebp]
  00914	81 c1 1c a9 02
	00		 add	 ecx, 174364		; 0002a91cH
  0091a	51		 push	 ecx
  0091b	8b 55 f4	 mov	 edx, DWORD PTR _this$[ebp]
  0091e	8b 82 e8 a8 02
	00		 mov	 eax, DWORD PTR [edx+174312]
  00924	50		 push	 eax
  00925	8b 4d f4	 mov	 ecx, DWORD PTR _this$[ebp]
  00928	8b 91 a8 a4 02
	00		 mov	 edx, DWORD PTR [ecx+173224]
  0092e	52		 push	 edx
  0092f	8b 45 f4	 mov	 eax, DWORD PTR _this$[ebp]
  00932	8b 88 ec a8 02
	00		 mov	 ecx, DWORD PTR [eax+174316]
  00938	e8 00 00 00 00	 call	 ?Render@CRace@@QAEJPAUIDirect3DDevice8@@PAVCTextures@@PAKMMH@Z ; CRace::Render

; 1003 : 			// update performance counters
; 1004 : 				if (m_fMinFPS == 0.0f) m_fMinFPS = m_fFPS ;

  0093d	8b 45 f4	 mov	 eax, DWORD PTR _this$[ebp]
  00940	d9 80 10 a9 02
	00		 fld	 DWORD PTR [eax+174352]
  00946	d8 1d 00 00 00
	00		 fcomp	 DWORD PTR __real@00000000
  0094c	df e0		 fnstsw	 ax
  0094e	f6 c4 44	 test	 ah, 68			; 00000044H
  00951	7a 12		 jp	 SHORT $L93996
  00953	8b 45 f4	 mov	 eax, DWORD PTR _this$[ebp]
  00956	8b 4d f4	 mov	 ecx, DWORD PTR _this$[ebp]
  00959	8b 91 cc a5 02
	00		 mov	 edx, DWORD PTR [ecx+173516]
  0095f	89 90 10 a9 02
	00		 mov	 DWORD PTR [eax+174352], edx
$L93996:

; 1005 : 				if (m_fMaxFPS == 0.0f) m_fMaxFPS = m_fFPS ;

  00965	8b 45 f4	 mov	 eax, DWORD PTR _this$[ebp]
  00968	d9 80 14 a9 02
	00		 fld	 DWORD PTR [eax+174356]
  0096e	d8 1d 00 00 00
	00		 fcomp	 DWORD PTR __real@00000000
  00974	df e0		 fnstsw	 ax
  00976	f6 c4 44	 test	 ah, 68			; 00000044H
  00979	7a 12		 jp	 SHORT $L93997
  0097b	8b 45 f4	 mov	 eax, DWORD PTR _this$[ebp]
  0097e	8b 4d f4	 mov	 ecx, DWORD PTR _this$[ebp]
  00981	8b 91 cc a5 02
	00		 mov	 edx, DWORD PTR [ecx+173516]
  00987	89 90 14 a9 02
	00		 mov	 DWORD PTR [eax+174356], edx
$L93997:

; 1006 : 				if (m_fFPS < m_fMinFPS) m_fMinFPS = m_fFPS ;

  0098d	8b 45 f4	 mov	 eax, DWORD PTR _this$[ebp]
  00990	8b 4d f4	 mov	 ecx, DWORD PTR _this$[ebp]
  00993	d9 80 cc a5 02
	00		 fld	 DWORD PTR [eax+173516]
  00999	d8 99 10 a9 02
	00		 fcomp	 DWORD PTR [ecx+174352]
  0099f	df e0		 fnstsw	 ax
  009a1	f6 c4 05	 test	 ah, 5
  009a4	7a 12		 jp	 SHORT $L93998
  009a6	8b 45 f4	 mov	 eax, DWORD PTR _this$[ebp]
  009a9	8b 4d f4	 mov	 ecx, DWORD PTR _this$[ebp]
  009ac	8b 91 cc a5 02
	00		 mov	 edx, DWORD PTR [ecx+173516]
  009b2	89 90 10 a9 02
	00		 mov	 DWORD PTR [eax+174352], edx
$L93998:

; 1007 : 				if (m_fFPS > m_fMaxFPS) m_fMaxFPS = m_fFPS ;

  009b8	8b 45 f4	 mov	 eax, DWORD PTR _this$[ebp]
  009bb	8b 4d f4	 mov	 ecx, DWORD PTR _this$[ebp]
  009be	d9 80 cc a5 02
	00		 fld	 DWORD PTR [eax+173516]
  009c4	d8 99 14 a9 02
	00		 fcomp	 DWORD PTR [ecx+174356]
  009ca	df e0		 fnstsw	 ax
  009cc	f6 c4 41	 test	 ah, 65			; 00000041H
  009cf	75 12		 jne	 SHORT $L93999
  009d1	8b 45 f4	 mov	 eax, DWORD PTR _this$[ebp]
  009d4	8b 4d f4	 mov	 ecx, DWORD PTR _this$[ebp]
  009d7	8b 91 cc a5 02
	00		 mov	 edx, DWORD PTR [ecx+173516]
  009dd	89 90 14 a9 02
	00		 mov	 DWORD PTR [eax+174356], edx
$L93999:

; 1008 : 				m_fAvgFPS += m_fFPS ;

  009e3	8b 45 f4	 mov	 eax, DWORD PTR _this$[ebp]
  009e6	8b 4d f4	 mov	 ecx, DWORD PTR _this$[ebp]
  009e9	d9 80 18 a9 02
	00		 fld	 DWORD PTR [eax+174360]
  009ef	d8 81 cc a5 02
	00		 fadd	 DWORD PTR [ecx+173516]
  009f5	8b 55 f4	 mov	 edx, DWORD PTR _this$[ebp]
  009f8	d9 9a 18 a9 02
	00		 fstp	 DWORD PTR [edx+174360]

; 1009 : 				m_fAvgFPS /= 2.0f ;

  009fe	8b 45 f4	 mov	 eax, DWORD PTR _this$[ebp]
  00a01	d9 80 18 a9 02
	00		 fld	 DWORD PTR [eax+174360]
  00a07	d8 35 00 00 00
	00		 fdiv	 DWORD PTR __real@40000000
  00a0d	8b 4d f4	 mov	 ecx, DWORD PTR _this$[ebp]
  00a10	d9 99 18 a9 02
	00		 fstp	 DWORD PTR [ecx+174360]

; 1010 : 
; 1011 : 				if (m_ulMinPPF == 0.0f) m_ulMinPPF = m_ulPPF ;

  00a16	8b 45 f4	 mov	 eax, DWORD PTR _this$[ebp]
  00a19	8b 88 20 a9 02
	00		 mov	 ecx, DWORD PTR [eax+174368]
  00a1f	89 8d 44 f8 ff
	ff		 mov	 DWORD PTR tv1630[ebp], ecx
  00a25	c7 85 48 f8 ff
	ff 00 00 00 00	 mov	 DWORD PTR tv1630[ebp+4], 0
  00a2f	df ad 44 f8 ff
	ff		 fild	 QWORD PTR tv1630[ebp]
  00a35	d8 1d 00 00 00
	00		 fcomp	 DWORD PTR __real@00000000
  00a3b	df e0		 fnstsw	 ax
  00a3d	f6 c4 44	 test	 ah, 68			; 00000044H
  00a40	7a 12		 jp	 SHORT $L94000
  00a42	8b 45 f4	 mov	 eax, DWORD PTR _this$[ebp]
  00a45	8b 4d f4	 mov	 ecx, DWORD PTR _this$[ebp]
  00a48	8b 91 1c a9 02
	00		 mov	 edx, DWORD PTR [ecx+174364]
  00a4e	89 90 20 a9 02
	00		 mov	 DWORD PTR [eax+174368], edx
$L94000:

; 1012 : 				if (m_ulMaxPPF == 0.0f) m_ulMaxPPF = m_ulPPF ;

  00a54	8b 45 f4	 mov	 eax, DWORD PTR _this$[ebp]
  00a57	8b 88 24 a9 02
	00		 mov	 ecx, DWORD PTR [eax+174372]
  00a5d	89 8d 44 f8 ff
	ff		 mov	 DWORD PTR tv1641[ebp], ecx
  00a63	c7 85 48 f8 ff
	ff 00 00 00 00	 mov	 DWORD PTR tv1641[ebp+4], 0
  00a6d	df ad 44 f8 ff
	ff		 fild	 QWORD PTR tv1641[ebp]
  00a73	d8 1d 00 00 00
	00		 fcomp	 DWORD PTR __real@00000000
  00a79	df e0		 fnstsw	 ax
  00a7b	f6 c4 44	 test	 ah, 68			; 00000044H
  00a7e	7a 12		 jp	 SHORT $L94001
  00a80	8b 45 f4	 mov	 eax, DWORD PTR _this$[ebp]
  00a83	8b 4d f4	 mov	 ecx, DWORD PTR _this$[ebp]
  00a86	8b 91 1c a9 02
	00		 mov	 edx, DWORD PTR [ecx+174364]
  00a8c	89 90 24 a9 02
	00		 mov	 DWORD PTR [eax+174372], edx
$L94001:

; 1013 : 				if (m_ulPPF < m_ulMinPPF) m_ulMinPPF = m_ulPPF ;

  00a92	8b 45 f4	 mov	 eax, DWORD PTR _this$[ebp]
  00a95	8b 4d f4	 mov	 ecx, DWORD PTR _this$[ebp]
  00a98	8b 90 1c a9 02
	00		 mov	 edx, DWORD PTR [eax+174364]
  00a9e	3b 91 20 a9 02
	00		 cmp	 edx, DWORD PTR [ecx+174368]
  00aa4	73 12		 jae	 SHORT $L94002
  00aa6	8b 45 f4	 mov	 eax, DWORD PTR _this$[ebp]
  00aa9	8b 4d f4	 mov	 ecx, DWORD PTR _this$[ebp]
  00aac	8b 91 1c a9 02
	00		 mov	 edx, DWORD PTR [ecx+174364]
  00ab2	89 90 20 a9 02
	00		 mov	 DWORD PTR [eax+174368], edx
$L94002:

; 1014 : 				if (m_ulPPF > m_ulMaxPPF) m_ulMaxPPF = m_ulPPF ;

  00ab8	8b 45 f4	 mov	 eax, DWORD PTR _this$[ebp]
  00abb	8b 4d f4	 mov	 ecx, DWORD PTR _this$[ebp]
  00abe	8b 90 1c a9 02
	00		 mov	 edx, DWORD PTR [eax+174364]
  00ac4	3b 91 24 a9 02
	00		 cmp	 edx, DWORD PTR [ecx+174372]
  00aca	76 12		 jbe	 SHORT $L94003
  00acc	8b 45 f4	 mov	 eax, DWORD PTR _this$[ebp]
  00acf	8b 4d f4	 mov	 ecx, DWORD PTR _this$[ebp]
  00ad2	8b 91 1c a9 02
	00		 mov	 edx, DWORD PTR [ecx+174364]
  00ad8	89 90 24 a9 02
	00		 mov	 DWORD PTR [eax+174372], edx
$L94003:

; 1015 : 				m_ulAvgPPF += m_ulPPF ;

  00ade	8b 45 f4	 mov	 eax, DWORD PTR _this$[ebp]
  00ae1	8b 88 28 a9 02
	00		 mov	 ecx, DWORD PTR [eax+174376]
  00ae7	8b 55 f4	 mov	 edx, DWORD PTR _this$[ebp]
  00aea	03 8a 1c a9 02
	00		 add	 ecx, DWORD PTR [edx+174364]
  00af0	8b 45 f4	 mov	 eax, DWORD PTR _this$[ebp]
  00af3	89 88 28 a9 02
	00		 mov	 DWORD PTR [eax+174376], ecx

; 1016 : 				m_ulAvgPPF /= 2UL ;

  00af9	8b 45 f4	 mov	 eax, DWORD PTR _this$[ebp]
  00afc	8b 88 28 a9 02
	00		 mov	 ecx, DWORD PTR [eax+174376]
  00b02	d1 e9		 shr	 ecx, 1
  00b04	8b 55 f4	 mov	 edx, DWORD PTR _this$[ebp]
  00b07	89 8a 28 a9 02
	00		 mov	 DWORD PTR [edx+174376], ecx

; 1017 : 
; 1018 : 				m_fMTS = m_fFPS * (float)m_ulPPF / 1000000.0f ;

  00b0d	8b 45 f4	 mov	 eax, DWORD PTR _this$[ebp]
  00b10	8b 88 1c a9 02
	00		 mov	 ecx, DWORD PTR [eax+174364]
  00b16	89 8d 44 f8 ff
	ff		 mov	 DWORD PTR tv1670[ebp], ecx
  00b1c	c7 85 48 f8 ff
	ff 00 00 00 00	 mov	 DWORD PTR tv1670[ebp+4], 0
  00b26	df ad 44 f8 ff
	ff		 fild	 QWORD PTR tv1670[ebp]
  00b2c	8b 55 f4	 mov	 edx, DWORD PTR _this$[ebp]
  00b2f	d8 8a cc a5 02
	00		 fmul	 DWORD PTR [edx+173516]
  00b35	d8 35 00 00 00
	00		 fdiv	 DWORD PTR __real@49742400
  00b3b	8b 45 f4	 mov	 eax, DWORD PTR _this$[ebp]
  00b3e	d9 98 2c a9 02
	00		 fstp	 DWORD PTR [eax+174380]

; 1019 : 				if (m_fMinMTS == 0.0f) m_fMinMTS = m_fMTS ;

  00b44	8b 45 f4	 mov	 eax, DWORD PTR _this$[ebp]
  00b47	d9 80 30 a9 02
	00		 fld	 DWORD PTR [eax+174384]
  00b4d	d8 1d 00 00 00
	00		 fcomp	 DWORD PTR __real@00000000
  00b53	df e0		 fnstsw	 ax
  00b55	f6 c4 44	 test	 ah, 68			; 00000044H
  00b58	7a 12		 jp	 SHORT $L94005
  00b5a	8b 45 f4	 mov	 eax, DWORD PTR _this$[ebp]
  00b5d	8b 4d f4	 mov	 ecx, DWORD PTR _this$[ebp]
  00b60	8b 91 2c a9 02
	00		 mov	 edx, DWORD PTR [ecx+174380]
  00b66	89 90 30 a9 02
	00		 mov	 DWORD PTR [eax+174384], edx
$L94005:

; 1020 : 				if (m_fMaxMTS == 0.0f) m_fMaxMTS = m_fMTS ;

  00b6c	8b 45 f4	 mov	 eax, DWORD PTR _this$[ebp]
  00b6f	d9 80 34 a9 02
	00		 fld	 DWORD PTR [eax+174388]
  00b75	d8 1d 00 00 00
	00		 fcomp	 DWORD PTR __real@00000000
  00b7b	df e0		 fnstsw	 ax
  00b7d	f6 c4 44	 test	 ah, 68			; 00000044H
  00b80	7a 12		 jp	 SHORT $L94006
  00b82	8b 45 f4	 mov	 eax, DWORD PTR _this$[ebp]
  00b85	8b 4d f4	 mov	 ecx, DWORD PTR _this$[ebp]
  00b88	8b 91 2c a9 02
	00		 mov	 edx, DWORD PTR [ecx+174380]
  00b8e	89 90 34 a9 02
	00		 mov	 DWORD PTR [eax+174388], edx
$L94006:

; 1021 : 				if (m_fMTS < m_fMinMTS) m_fMinMTS = m_fMTS ;

  00b94	8b 45 f4	 mov	 eax, DWORD PTR _this$[ebp]
  00b97	8b 4d f4	 mov	 ecx, DWORD PTR _this$[ebp]
  00b9a	d9 80 2c a9 02
	00		 fld	 DWORD PTR [eax+174380]
  00ba0	d8 99 30 a9 02
	00		 fcomp	 DWORD PTR [ecx+174384]
  00ba6	df e0		 fnstsw	 ax
  00ba8	f6 c4 05	 test	 ah, 5
  00bab	7a 12		 jp	 SHORT $L94007
  00bad	8b 45 f4	 mov	 eax, DWORD PTR _this$[ebp]
  00bb0	8b 4d f4	 mov	 ecx, DWORD PTR _this$[ebp]
  00bb3	8b 91 2c a9 02
	00		 mov	 edx, DWORD PTR [ecx+174380]
  00bb9	89 90 30 a9 02
	00		 mov	 DWORD PTR [eax+174384], edx
$L94007:

; 1022 : 				if (m_fMTS > m_fMaxMTS) m_fMaxMTS = m_fMTS ;

  00bbf	8b 45 f4	 mov	 eax, DWORD PTR _this$[ebp]
  00bc2	8b 4d f4	 mov	 ecx, DWORD PTR _this$[ebp]
  00bc5	d9 80 2c a9 02
	00		 fld	 DWORD PTR [eax+174380]
  00bcb	d8 99 34 a9 02
	00		 fcomp	 DWORD PTR [ecx+174388]
  00bd1	df e0		 fnstsw	 ax
  00bd3	f6 c4 41	 test	 ah, 65			; 00000041H
  00bd6	75 12		 jne	 SHORT $L94008
  00bd8	8b 45 f4	 mov	 eax, DWORD PTR _this$[ebp]
  00bdb	8b 4d f4	 mov	 ecx, DWORD PTR _this$[ebp]
  00bde	8b 91 2c a9 02
	00		 mov	 edx, DWORD PTR [ecx+174380]
  00be4	89 90 34 a9 02
	00		 mov	 DWORD PTR [eax+174388], edx
$L94008:

; 1023 : 				m_fAvgMTS += m_fMTS ;

  00bea	8b 45 f4	 mov	 eax, DWORD PTR _this$[ebp]
  00bed	8b 4d f4	 mov	 ecx, DWORD PTR _this$[ebp]
  00bf0	d9 80 38 a9 02
	00		 fld	 DWORD PTR [eax+174392]
  00bf6	d8 81 2c a9 02
	00		 fadd	 DWORD PTR [ecx+174380]
  00bfc	8b 55 f4	 mov	 edx, DWORD PTR _this$[ebp]
  00bff	d9 9a 38 a9 02
	00		 fstp	 DWORD PTR [edx+174392]

; 1024 : 				m_fAvgMTS /= 2.0f ;

  00c05	8b 45 f4	 mov	 eax, DWORD PTR _this$[ebp]
  00c08	d9 80 38 a9 02
	00		 fld	 DWORD PTR [eax+174392]
  00c0e	d8 35 00 00 00
	00		 fdiv	 DWORD PTR __real@40000000
  00c14	8b 4d f4	 mov	 ecx, DWORD PTR _this$[ebp]
  00c17	d9 99 38 a9 02
	00		 fstp	 DWORD PTR [ecx+174392]

; 1025 : 
; 1026 : 				//CProceduralRenderObject *pRO = m_pTestRace->m_pTerrain->m_pPatches[0][0]->m_pPatchLOD[0] ;
; 1027 : 
; 1028 : 				//sprintf(sz, "%d %d", (int)pRO->m_csVis.ClipUnion & D3DCS_BOTTOM, (int)pRO->m_csVis.ClipIntersection & D3DCS_BOTTOM) ;
; 1029 : 				//m_pStatsFont->DrawText(2, y, D3DCOLOR_ARGB(255,255,255,255), sz) ; y += d ;
; 1030 : 				//for (int i = 0 ; i < 8 ; i ++)
; 1031 : 				//{
; 1032 : 				//	sprintf(sz, "i:%d x=%0.2f y=%0.2f z=%0.2f", i, (float)pRO->m_vP[i].x, (float)pRO->m_vP[i].y, (float)pRO->m_vP[i].z) ;
; 1033 : 				//	m_pStatsFont->DrawText(2, y, D3DCOLOR_ARGB(255,255,255,255), sz) ; y += d ;
; 1034 : 				//}
; 1035 : 
; 1036 : 				if (m_bStats)

  00c1d	8b 45 f4	 mov	 eax, DWORD PTR _this$[ebp]
  00c20	83 b8 98 a9 02
	00 00		 cmp	 DWORD PTR [eax+174488], 0
  00c27	0f 84 39 05 00
	00		 je	 $L93992

; 1037 : 				{
; 1038 : 					//sprintf(sz, "            PPF: %d (%0.2f MT/s)", (int)ulPolyCount, ((float)m_fHiResFPS * (float)ulPolyCount) / 1000000.0f) ;
; 1039 : 					//m_pStatsFont->DrawText(2, y, D3DCOLOR_ARGB(255,0,255,0), sz) ; y += d ;
; 1040 : 					//y += d ;
; 1041 : 					sprintf(sz, "Joystick: %d [%s] [%s]", m_pUserInput->m_bJoystickPresent, m_pUserInput->m_szJoystickProductName, m_pUserInput->m_szJoystickInstanceName) ;

  00c2d	8b 45 f4	 mov	 eax, DWORD PTR _this$[ebp]
  00c30	8b 88 fc a8 02
	00		 mov	 ecx, DWORD PTR [eax+174332]
  00c36	81 c1 a4 06 00
	00		 add	 ecx, 1700		; 000006a4H
  00c3c	51		 push	 ecx
  00c3d	8b 55 f4	 mov	 edx, DWORD PTR _this$[ebp]
  00c40	8b 82 fc a8 02
	00		 mov	 eax, DWORD PTR [edx+174332]
  00c46	05 a8 07 00 00	 add	 eax, 1960		; 000007a8H
  00c4b	50		 push	 eax
  00c4c	8b 4d f4	 mov	 ecx, DWORD PTR _this$[ebp]
  00c4f	8b 91 fc a8 02
	00		 mov	 edx, DWORD PTR [ecx+174332]
  00c55	8b 82 90 06 00
	00		 mov	 eax, DWORD PTR [edx+1680]
  00c5b	50		 push	 eax
  00c5c	68 00 00 00 00	 push	 OFFSET FLAT:??_C@_0BH@MOMPLKPI@Joystick?3?5?$CFd?5?$FL?$CFs?$FN?5?$FL?$CFs?$FN?$AA@
  00c61	8d 8d d0 fe ff
	ff		 lea	 ecx, DWORD PTR _sz$93945[ebp]
  00c67	51		 push	 ecx
  00c68	e8 00 00 00 00	 call	 _sprintf
  00c6d	83 c4 14	 add	 esp, 20			; 00000014H

; 1042 : 					m_pStatsFont->DrawText(2, y, D3DCOLOR_ARGB(255,0,255,0), sz) ; y += d ;

  00c70	6a 00		 push	 0
  00c72	8d 85 d0 fe ff
	ff		 lea	 eax, DWORD PTR _sz$93945[ebp]
  00c78	50		 push	 eax
  00c79	68 00 ff 00 ff	 push	 -16711936		; ff00ff00H
  00c7e	8b 4d e8	 mov	 ecx, DWORD PTR _y$93943[ebp]
  00c81	51		 push	 ecx
  00c82	68 00 00 00 40	 push	 1073741824		; 40000000H
  00c87	8b 55 f4	 mov	 edx, DWORD PTR _this$[ebp]
  00c8a	8b 8a f0 a8 02
	00		 mov	 ecx, DWORD PTR [edx+174320]
  00c90	e8 00 00 00 00	 call	 ?DrawTextA@CD3DFont@@QAEJMMKPADK@Z ; CD3DFont::DrawTextA
  00c95	d9 45 e8	 fld	 DWORD PTR _y$93943[ebp]
  00c98	d8 45 dc	 fadd	 DWORD PTR _d$93944[ebp]
  00c9b	d9 5d e8	 fstp	 DWORD PTR _y$93943[ebp]

; 1043 : 					sprintf(sz, "         vEyePt: %0.1f, %0.1f, %0.1f", m_pTestRace->m_pCamera->m_vEyePt.x, m_pTestRace->m_pCamera->m_vEyePt.y, m_pTestRace->m_pCamera->m_vEyePt.z) ;

  00c9e	8b 45 f4	 mov	 eax, DWORD PTR _this$[ebp]
  00ca1	8b 88 ec a8 02
	00		 mov	 ecx, DWORD PTR [eax+174316]
  00ca7	8b 51 2c	 mov	 edx, DWORD PTR [ecx+44]
  00caa	d9 42 08	 fld	 DWORD PTR [edx+8]
  00cad	83 ec 08	 sub	 esp, 8
  00cb0	dd 1c 24	 fstp	 QWORD PTR [esp]
  00cb3	8b 45 f4	 mov	 eax, DWORD PTR _this$[ebp]
  00cb6	8b 88 ec a8 02
	00		 mov	 ecx, DWORD PTR [eax+174316]
  00cbc	8b 51 2c	 mov	 edx, DWORD PTR [ecx+44]
  00cbf	d9 42 04	 fld	 DWORD PTR [edx+4]
  00cc2	83 ec 08	 sub	 esp, 8
  00cc5	dd 1c 24	 fstp	 QWORD PTR [esp]
  00cc8	8b 45 f4	 mov	 eax, DWORD PTR _this$[ebp]
  00ccb	8b 88 ec a8 02
	00		 mov	 ecx, DWORD PTR [eax+174316]
  00cd1	8b 51 2c	 mov	 edx, DWORD PTR [ecx+44]
  00cd4	d9 02		 fld	 DWORD PTR [edx]
  00cd6	83 ec 08	 sub	 esp, 8
  00cd9	dd 1c 24	 fstp	 QWORD PTR [esp]
  00cdc	68 00 00 00 00	 push	 OFFSET FLAT:??_C@_0CF@LDNOCHOK@?5?5?5?5?5?5?5?5?5vEyePt?3?5?$CF0?41f?0?5?$CF0?41f?0?5?$CF@
  00ce1	8d 85 d0 fe ff
	ff		 lea	 eax, DWORD PTR _sz$93945[ebp]
  00ce7	50		 push	 eax
  00ce8	e8 00 00 00 00	 call	 _sprintf
  00ced	83 c4 20	 add	 esp, 32			; 00000020H

; 1044 : 					m_pStatsFont->DrawText(2, y, D3DCOLOR_ARGB(255,0,255,0), sz) ; y += d ;

  00cf0	6a 00		 push	 0
  00cf2	8d 85 d0 fe ff
	ff		 lea	 eax, DWORD PTR _sz$93945[ebp]
  00cf8	50		 push	 eax
  00cf9	68 00 ff 00 ff	 push	 -16711936		; ff00ff00H
  00cfe	8b 4d e8	 mov	 ecx, DWORD PTR _y$93943[ebp]
  00d01	51		 push	 ecx
  00d02	68 00 00 00 40	 push	 1073741824		; 40000000H
  00d07	8b 55 f4	 mov	 edx, DWORD PTR _this$[ebp]
  00d0a	8b 8a f0 a8 02
	00		 mov	 ecx, DWORD PTR [edx+174320]
  00d10	e8 00 00 00 00	 call	 ?DrawTextA@CD3DFont@@QAEJMMKPADK@Z ; CD3DFont::DrawTextA
  00d15	d9 45 e8	 fld	 DWORD PTR _y$93943[ebp]
  00d18	d8 45 dc	 fadd	 DWORD PTR _d$93944[ebp]
  00d1b	d9 5d e8	 fstp	 DWORD PTR _y$93943[ebp]

; 1045 : 					sprintf(sz, "      vLookAtPt: %0.1f, %0.1f, %0.1f", m_pTestRace->m_pCamera->m_vLookAtPt.x, m_pTestRace->m_pCamera->m_vLookAtPt.y, m_pTestRace->m_pCamera->m_vLookAtPt.z) ;

  00d1e	8b 45 f4	 mov	 eax, DWORD PTR _this$[ebp]
  00d21	8b 88 ec a8 02
	00		 mov	 ecx, DWORD PTR [eax+174316]
  00d27	8b 51 2c	 mov	 edx, DWORD PTR [ecx+44]
  00d2a	d9 42 14	 fld	 DWORD PTR [edx+20]
  00d2d	83 ec 08	 sub	 esp, 8
  00d30	dd 1c 24	 fstp	 QWORD PTR [esp]
  00d33	8b 45 f4	 mov	 eax, DWORD PTR _this$[ebp]
  00d36	8b 88 ec a8 02
	00		 mov	 ecx, DWORD PTR [eax+174316]
  00d3c	8b 51 2c	 mov	 edx, DWORD PTR [ecx+44]
  00d3f	d9 42 10	 fld	 DWORD PTR [edx+16]
  00d42	83 ec 08	 sub	 esp, 8
  00d45	dd 1c 24	 fstp	 QWORD PTR [esp]
  00d48	8b 45 f4	 mov	 eax, DWORD PTR _this$[ebp]
  00d4b	8b 88 ec a8 02
	00		 mov	 ecx, DWORD PTR [eax+174316]
  00d51	8b 51 2c	 mov	 edx, DWORD PTR [ecx+44]
  00d54	d9 42 0c	 fld	 DWORD PTR [edx+12]
  00d57	83 ec 08	 sub	 esp, 8
  00d5a	dd 1c 24	 fstp	 QWORD PTR [esp]
  00d5d	68 00 00 00 00	 push	 OFFSET FLAT:??_C@_0CF@DGEKGGKN@?5?5?5?5?5?5vLookAtPt?3?5?$CF0?41f?0?5?$CF0?41f?0?5?$CF@
  00d62	8d 85 d0 fe ff
	ff		 lea	 eax, DWORD PTR _sz$93945[ebp]
  00d68	50		 push	 eax
  00d69	e8 00 00 00 00	 call	 _sprintf
  00d6e	83 c4 20	 add	 esp, 32			; 00000020H

; 1046 : 					m_pStatsFont->DrawText(2, y, D3DCOLOR_ARGB(255,0,255,0), sz) ; y += d ;

  00d71	6a 00		 push	 0
  00d73	8d 85 d0 fe ff
	ff		 lea	 eax, DWORD PTR _sz$93945[ebp]
  00d79	50		 push	 eax
  00d7a	68 00 ff 00 ff	 push	 -16711936		; ff00ff00H
  00d7f	8b 4d e8	 mov	 ecx, DWORD PTR _y$93943[ebp]
  00d82	51		 push	 ecx
  00d83	68 00 00 00 40	 push	 1073741824		; 40000000H
  00d88	8b 55 f4	 mov	 edx, DWORD PTR _this$[ebp]
  00d8b	8b 8a f0 a8 02
	00		 mov	 ecx, DWORD PTR [edx+174320]
  00d91	e8 00 00 00 00	 call	 ?DrawTextA@CD3DFont@@QAEJMMKPADK@Z ; CD3DFont::DrawTextA
  00d96	d9 45 e8	 fld	 DWORD PTR _y$93943[ebp]
  00d99	d8 45 dc	 fadd	 DWORD PTR _d$93944[ebp]
  00d9c	d9 5d e8	 fstp	 DWORD PTR _y$93943[ebp]

; 1047 : 					sprintf(sz, " m_vOrientation: %0.6f, %0.6f, %0.6f", m_pTestRace->m_pCamera->m_vOrientation.x, m_pTestRace->m_pCamera->m_vOrientation.y, m_pTestRace->m_pCamera->m_vOrientation.z) ;

  00d9f	8b 45 f4	 mov	 eax, DWORD PTR _this$[ebp]
  00da2	8b 88 ec a8 02
	00		 mov	 ecx, DWORD PTR [eax+174316]
  00da8	8b 51 2c	 mov	 edx, DWORD PTR [ecx+44]
  00dab	d9 42 2c	 fld	 DWORD PTR [edx+44]
  00dae	83 ec 08	 sub	 esp, 8
  00db1	dd 1c 24	 fstp	 QWORD PTR [esp]
  00db4	8b 45 f4	 mov	 eax, DWORD PTR _this$[ebp]
  00db7	8b 88 ec a8 02
	00		 mov	 ecx, DWORD PTR [eax+174316]
  00dbd	8b 51 2c	 mov	 edx, DWORD PTR [ecx+44]
  00dc0	d9 42 28	 fld	 DWORD PTR [edx+40]
  00dc3	83 ec 08	 sub	 esp, 8
  00dc6	dd 1c 24	 fstp	 QWORD PTR [esp]
  00dc9	8b 45 f4	 mov	 eax, DWORD PTR _this$[ebp]
  00dcc	8b 88 ec a8 02
	00		 mov	 ecx, DWORD PTR [eax+174316]
  00dd2	8b 51 2c	 mov	 edx, DWORD PTR [ecx+44]
  00dd5	d9 42 24	 fld	 DWORD PTR [edx+36]
  00dd8	83 ec 08	 sub	 esp, 8
  00ddb	dd 1c 24	 fstp	 QWORD PTR [esp]
  00dde	68 00 00 00 00	 push	 OFFSET FLAT:??_C@_0CF@PPGHHDFG@?5m_vOrientation?3?5?$CF0?46f?0?5?$CF0?46f?0?5?$CF@
  00de3	8d 85 d0 fe ff
	ff		 lea	 eax, DWORD PTR _sz$93945[ebp]
  00de9	50		 push	 eax
  00dea	e8 00 00 00 00	 call	 _sprintf
  00def	83 c4 20	 add	 esp, 32			; 00000020H

; 1048 : 					m_pStatsFont->DrawText(2, y, D3DCOLOR_ARGB(255,0,255,0), sz) ; y += d ;

  00df2	6a 00		 push	 0
  00df4	8d 85 d0 fe ff
	ff		 lea	 eax, DWORD PTR _sz$93945[ebp]
  00dfa	50		 push	 eax
  00dfb	68 00 ff 00 ff	 push	 -16711936		; ff00ff00H
  00e00	8b 4d e8	 mov	 ecx, DWORD PTR _y$93943[ebp]
  00e03	51		 push	 ecx
  00e04	68 00 00 00 40	 push	 1073741824		; 40000000H
  00e09	8b 55 f4	 mov	 edx, DWORD PTR _this$[ebp]
  00e0c	8b 8a f0 a8 02
	00		 mov	 ecx, DWORD PTR [edx+174320]
  00e12	e8 00 00 00 00	 call	 ?DrawTextA@CD3DFont@@QAEJMMKPADK@Z ; CD3DFont::DrawTextA
  00e17	d9 45 e8	 fld	 DWORD PTR _y$93943[ebp]
  00e1a	d8 45 dc	 fadd	 DWORD PTR _d$93944[ebp]
  00e1d	d9 5d e8	 fstp	 DWORD PTR _y$93943[ebp]

; 1049 : 					y += d ;

  00e20	d9 45 e8	 fld	 DWORD PTR _y$93943[ebp]
  00e23	d8 45 dc	 fadd	 DWORD PTR _d$93944[ebp]
  00e26	d9 5d e8	 fstp	 DWORD PTR _y$93943[ebp]

; 1050 : 
; 1051 : 					sprintf(sz, "     Terrain BV: %0.1f, %0.1f, %0.1f -- %0.1f, %0.1f, %0.1f", (float)m_pTestRace->m_pTerrain->m_vMin.x, (float)m_pTestRace->m_pTerrain->m_vMin.y, (float)m_pTestRace->m_pTerrain->m_vMin.z, (float)m_pTestRace->m_pTerrain->m_vMax.x, (float)m_pTestRace->m_pTerrain->m_vMax.y, (float)m_pTestRace->m_pTerrain->m_vMax.z) ;

  00e29	8b 45 f4	 mov	 eax, DWORD PTR _this$[ebp]
  00e2c	8b 88 ec a8 02
	00		 mov	 ecx, DWORD PTR [eax+174316]
  00e32	8b 51 24	 mov	 edx, DWORD PTR [ecx+36]
  00e35	d9 82 80 04 00
	00		 fld	 DWORD PTR [edx+1152]
  00e3b	83 ec 08	 sub	 esp, 8
  00e3e	dd 1c 24	 fstp	 QWORD PTR [esp]
  00e41	8b 45 f4	 mov	 eax, DWORD PTR _this$[ebp]
  00e44	8b 88 ec a8 02
	00		 mov	 ecx, DWORD PTR [eax+174316]
  00e4a	8b 51 24	 mov	 edx, DWORD PTR [ecx+36]
  00e4d	d9 82 7c 04 00
	00		 fld	 DWORD PTR [edx+1148]
  00e53	83 ec 08	 sub	 esp, 8
  00e56	dd 1c 24	 fstp	 QWORD PTR [esp]
  00e59	8b 45 f4	 mov	 eax, DWORD PTR _this$[ebp]
  00e5c	8b 88 ec a8 02
	00		 mov	 ecx, DWORD PTR [eax+174316]
  00e62	8b 51 24	 mov	 edx, DWORD PTR [ecx+36]
  00e65	d9 82 78 04 00
	00		 fld	 DWORD PTR [edx+1144]
  00e6b	83 ec 08	 sub	 esp, 8
  00e6e	dd 1c 24	 fstp	 QWORD PTR [esp]
  00e71	8b 45 f4	 mov	 eax, DWORD PTR _this$[ebp]
  00e74	8b 88 ec a8 02
	00		 mov	 ecx, DWORD PTR [eax+174316]
  00e7a	8b 51 24	 mov	 edx, DWORD PTR [ecx+36]
  00e7d	d9 82 74 04 00
	00		 fld	 DWORD PTR [edx+1140]
  00e83	83 ec 08	 sub	 esp, 8
  00e86	dd 1c 24	 fstp	 QWORD PTR [esp]
  00e89	8b 45 f4	 mov	 eax, DWORD PTR _this$[ebp]
  00e8c	8b 88 ec a8 02
	00		 mov	 ecx, DWORD PTR [eax+174316]
  00e92	8b 51 24	 mov	 edx, DWORD PTR [ecx+36]
  00e95	d9 82 70 04 00
	00		 fld	 DWORD PTR [edx+1136]
  00e9b	83 ec 08	 sub	 esp, 8
  00e9e	dd 1c 24	 fstp	 QWORD PTR [esp]
  00ea1	8b 45 f4	 mov	 eax, DWORD PTR _this$[ebp]
  00ea4	8b 88 ec a8 02
	00		 mov	 ecx, DWORD PTR [eax+174316]
  00eaa	8b 51 24	 mov	 edx, DWORD PTR [ecx+36]
  00ead	d9 82 6c 04 00
	00		 fld	 DWORD PTR [edx+1132]
  00eb3	83 ec 08	 sub	 esp, 8
  00eb6	dd 1c 24	 fstp	 QWORD PTR [esp]
  00eb9	68 00 00 00 00	 push	 OFFSET FLAT:??_C@_0DM@OMBAONAD@?5?5?5?5?5Terrain?5BV?3?5?$CF0?41f?0?5?$CF0?41f?0?5?$CF@
  00ebe	8d 85 d0 fe ff
	ff		 lea	 eax, DWORD PTR _sz$93945[ebp]
  00ec4	50		 push	 eax
  00ec5	e8 00 00 00 00	 call	 _sprintf
  00eca	83 c4 38	 add	 esp, 56			; 00000038H

; 1052 : 					m_pStatsFont->DrawText(2, y, D3DCOLOR_ARGB(255,0,255,0), sz) ; y += d ;

  00ecd	6a 00		 push	 0
  00ecf	8d 85 d0 fe ff
	ff		 lea	 eax, DWORD PTR _sz$93945[ebp]
  00ed5	50		 push	 eax
  00ed6	68 00 ff 00 ff	 push	 -16711936		; ff00ff00H
  00edb	8b 4d e8	 mov	 ecx, DWORD PTR _y$93943[ebp]
  00ede	51		 push	 ecx
  00edf	68 00 00 00 40	 push	 1073741824		; 40000000H
  00ee4	8b 55 f4	 mov	 edx, DWORD PTR _this$[ebp]
  00ee7	8b 8a f0 a8 02
	00		 mov	 ecx, DWORD PTR [edx+174320]
  00eed	e8 00 00 00 00	 call	 ?DrawTextA@CD3DFont@@QAEJMMKPADK@Z ; CD3DFont::DrawTextA
  00ef2	d9 45 e8	 fld	 DWORD PTR _y$93943[ebp]
  00ef5	d8 45 dc	 fadd	 DWORD PTR _d$93944[ebp]
  00ef8	d9 5d e8	 fstp	 DWORD PTR _y$93943[ebp]

; 1053 : 
; 1054 : 					sprintf(sz, "         Camera: [%d] MinY=%0.2f", m_pTestRace->m_bCameraAboveGround, m_pTestRace->m_fY) ;

  00efb	8b 45 f4	 mov	 eax, DWORD PTR _this$[ebp]
  00efe	8b 88 ec a8 02
	00		 mov	 ecx, DWORD PTR [eax+174316]
  00f04	d9 41 74	 fld	 DWORD PTR [ecx+116]
  00f07	83 ec 08	 sub	 esp, 8
  00f0a	dd 1c 24	 fstp	 QWORD PTR [esp]
  00f0d	8b 55 f4	 mov	 edx, DWORD PTR _this$[ebp]
  00f10	8b 82 ec a8 02
	00		 mov	 eax, DWORD PTR [edx+174316]
  00f16	8b 48 70	 mov	 ecx, DWORD PTR [eax+112]
  00f19	51		 push	 ecx
  00f1a	68 00 00 00 00	 push	 OFFSET FLAT:??_C@_0CB@HHHAIGKL@?5?5?5?5?5?5?5?5?5Camera?3?5?$FL?$CFd?$FN?5MinY?$DN?$CF0?42f@
  00f1f	8d 95 d0 fe ff
	ff		 lea	 edx, DWORD PTR _sz$93945[ebp]
  00f25	52		 push	 edx
  00f26	e8 00 00 00 00	 call	 _sprintf
  00f2b	83 c4 14	 add	 esp, 20			; 00000014H

; 1055 : 					m_pStatsFont->DrawText(2, y, D3DCOLOR_ARGB(255,0,255,0), sz) ; y += d ;

  00f2e	6a 00		 push	 0
  00f30	8d 85 d0 fe ff
	ff		 lea	 eax, DWORD PTR _sz$93945[ebp]
  00f36	50		 push	 eax
  00f37	68 00 ff 00 ff	 push	 -16711936		; ff00ff00H
  00f3c	8b 4d e8	 mov	 ecx, DWORD PTR _y$93943[ebp]
  00f3f	51		 push	 ecx
  00f40	68 00 00 00 40	 push	 1073741824		; 40000000H
  00f45	8b 55 f4	 mov	 edx, DWORD PTR _this$[ebp]
  00f48	8b 8a f0 a8 02
	00		 mov	 ecx, DWORD PTR [edx+174320]
  00f4e	e8 00 00 00 00	 call	 ?DrawTextA@CD3DFont@@QAEJMMKPADK@Z ; CD3DFont::DrawTextA
  00f53	d9 45 e8	 fld	 DWORD PTR _y$93943[ebp]
  00f56	d8 45 dc	 fadd	 DWORD PTR _d$93944[ebp]
  00f59	d9 5d e8	 fstp	 DWORD PTR _y$93943[ebp]

; 1056 : 					sprintf(sz, "        Terrain: %0.0f KB (%d[%d] patches, each @ %dx%d max. LOD)", (float)m_pTestRace->m_pTerrain->QueryMemUsage() / 1024.0f, m_pTestRace->m_pTerrain->m_nPatchesSQ * m_pTestRace->m_pTerrain->m_nPatchesSQ, m_pTestRace->m_pTerrain->m_nVisiblePatches, m_pTestRace->m_pTerrain->m_pPatches[0]->m_nPatchMaxLODSQ, m_pTestRace->m_pTerrain->m_pPatches[0]->m_nPatchMaxLODSQ) ;

  00f5c	8b 45 f4	 mov	 eax, DWORD PTR _this$[ebp]
  00f5f	8b 88 ec a8 02
	00		 mov	 ecx, DWORD PTR [eax+174316]
  00f65	8b 51 24	 mov	 edx, DWORD PTR [ecx+36]
  00f68	8b 82 fc 04 00
	00		 mov	 eax, DWORD PTR [edx+1276]
  00f6e	8b 08		 mov	 ecx, DWORD PTR [eax]
  00f70	8b 11		 mov	 edx, DWORD PTR [ecx]
  00f72	52		 push	 edx
  00f73	8b 45 f4	 mov	 eax, DWORD PTR _this$[ebp]
  00f76	8b 88 ec a8 02
	00		 mov	 ecx, DWORD PTR [eax+174316]
  00f7c	8b 51 24	 mov	 edx, DWORD PTR [ecx+36]
  00f7f	8b 82 fc 04 00
	00		 mov	 eax, DWORD PTR [edx+1276]
  00f85	8b 08		 mov	 ecx, DWORD PTR [eax]
  00f87	8b 11		 mov	 edx, DWORD PTR [ecx]
  00f89	52		 push	 edx
  00f8a	8b 45 f4	 mov	 eax, DWORD PTR _this$[ebp]
  00f8d	8b 88 ec a8 02
	00		 mov	 ecx, DWORD PTR [eax+174316]
  00f93	8b 51 24	 mov	 edx, DWORD PTR [ecx+36]
  00f96	8b 82 18 05 00
	00		 mov	 eax, DWORD PTR [edx+1304]
  00f9c	50		 push	 eax
  00f9d	8b 4d f4	 mov	 ecx, DWORD PTR _this$[ebp]
  00fa0	8b 91 ec a8 02
	00		 mov	 edx, DWORD PTR [ecx+174316]
  00fa6	8b 42 24	 mov	 eax, DWORD PTR [edx+36]
  00fa9	8b 4d f4	 mov	 ecx, DWORD PTR _this$[ebp]
  00fac	8b 91 ec a8 02
	00		 mov	 edx, DWORD PTR [ecx+174316]
  00fb2	8b 4a 24	 mov	 ecx, DWORD PTR [edx+36]
  00fb5	8b 50 08	 mov	 edx, DWORD PTR [eax+8]
  00fb8	0f af 51 08	 imul	 edx, DWORD PTR [ecx+8]
  00fbc	52		 push	 edx
  00fbd	8b 45 f4	 mov	 eax, DWORD PTR _this$[ebp]
  00fc0	8b 88 ec a8 02
	00		 mov	 ecx, DWORD PTR [eax+174316]
  00fc6	8b 49 24	 mov	 ecx, DWORD PTR [ecx+36]
  00fc9	e8 00 00 00 00	 call	 ?QueryMemUsage@CTerrain@@QAEKXZ ; CTerrain::QueryMemUsage
  00fce	89 85 44 f8 ff
	ff		 mov	 DWORD PTR tv1806[ebp], eax
  00fd4	c7 85 48 f8 ff
	ff 00 00 00 00	 mov	 DWORD PTR tv1806[ebp+4], 0
  00fde	df ad 44 f8 ff
	ff		 fild	 QWORD PTR tv1806[ebp]
  00fe4	d8 35 00 00 00
	00		 fdiv	 DWORD PTR __real@44800000
  00fea	83 ec 08	 sub	 esp, 8
  00fed	dd 1c 24	 fstp	 QWORD PTR [esp]
  00ff0	68 00 00 00 00	 push	 OFFSET FLAT:??_C@_0EC@HDEICIJC@?5?5?5?5?5?5?5?5Terrain?3?5?$CF0?40f?5KB?5?$CI?$CFd?$FL?$CFd@
  00ff5	8d 95 d0 fe ff
	ff		 lea	 edx, DWORD PTR _sz$93945[ebp]
  00ffb	52		 push	 edx
  00ffc	e8 00 00 00 00	 call	 _sprintf
  01001	83 c4 20	 add	 esp, 32			; 00000020H

; 1057 : 					m_pStatsFont->DrawText(2, y, D3DCOLOR_ARGB(255,0,255,0), sz) ; y += d ;

  01004	6a 00		 push	 0
  01006	8d 85 d0 fe ff
	ff		 lea	 eax, DWORD PTR _sz$93945[ebp]
  0100c	50		 push	 eax
  0100d	68 00 ff 00 ff	 push	 -16711936		; ff00ff00H
  01012	8b 4d e8	 mov	 ecx, DWORD PTR _y$93943[ebp]
  01015	51		 push	 ecx
  01016	68 00 00 00 40	 push	 1073741824		; 40000000H
  0101b	8b 55 f4	 mov	 edx, DWORD PTR _this$[ebp]
  0101e	8b 8a f0 a8 02
	00		 mov	 ecx, DWORD PTR [edx+174320]
  01024	e8 00 00 00 00	 call	 ?DrawTextA@CD3DFont@@QAEJMMKPADK@Z ; CD3DFont::DrawTextA
  01029	d9 45 e8	 fld	 DWORD PTR _y$93943[ebp]
  0102c	d8 45 dc	 fadd	 DWORD PTR _d$93944[ebp]
  0102f	d9 5d e8	 fstp	 DWORD PTR _y$93943[ebp]

; 1058 : 					sprintf(sz, "      Heightmap: %d x %d [%0.2f unit size]", (int)m_pTestRace->m_pTerrain->m_nHeightmapSQ, (int)m_pTestRace->m_pTerrain->m_nHeightmapSQ, m_pTestRace->m_pTerrain->m_fUnitSize) ;

  01032	8b 45 f4	 mov	 eax, DWORD PTR _this$[ebp]
  01035	8b 88 ec a8 02
	00		 mov	 ecx, DWORD PTR [eax+174316]
  0103b	8b 51 24	 mov	 edx, DWORD PTR [ecx+36]
  0103e	d9 82 64 04 00
	00		 fld	 DWORD PTR [edx+1124]
  01044	83 ec 08	 sub	 esp, 8
  01047	dd 1c 24	 fstp	 QWORD PTR [esp]
  0104a	8b 45 f4	 mov	 eax, DWORD PTR _this$[ebp]
  0104d	8b 88 ec a8 02
	00		 mov	 ecx, DWORD PTR [eax+174316]
  01053	8b 51 24	 mov	 edx, DWORD PTR [ecx+36]
  01056	8b 82 60 04 00
	00		 mov	 eax, DWORD PTR [edx+1120]
  0105c	50		 push	 eax
  0105d	8b 4d f4	 mov	 ecx, DWORD PTR _this$[ebp]
  01060	8b 91 ec a8 02
	00		 mov	 edx, DWORD PTR [ecx+174316]
  01066	8b 42 24	 mov	 eax, DWORD PTR [edx+36]
  01069	8b 88 60 04 00
	00		 mov	 ecx, DWORD PTR [eax+1120]
  0106f	51		 push	 ecx
  01070	68 00 00 00 00	 push	 OFFSET FLAT:??_C@_0CL@CFPKKECI@?5?5?5?5?5?5Heightmap?3?5?$CFd?5x?5?$CFd?5?$FL?$CF0?42f?5@
  01075	8d 95 d0 fe ff
	ff		 lea	 edx, DWORD PTR _sz$93945[ebp]
  0107b	52		 push	 edx
  0107c	e8 00 00 00 00	 call	 _sprintf
  01081	83 c4 18	 add	 esp, 24			; 00000018H

; 1059 : 					m_pStatsFont->DrawText(2, y, D3DCOLOR_ARGB(255,0,255,0), sz) ; y += d ;

  01084	6a 00		 push	 0
  01086	8d 85 d0 fe ff
	ff		 lea	 eax, DWORD PTR _sz$93945[ebp]
  0108c	50		 push	 eax
  0108d	68 00 ff 00 ff	 push	 -16711936		; ff00ff00H
  01092	8b 4d e8	 mov	 ecx, DWORD PTR _y$93943[ebp]
  01095	51		 push	 ecx
  01096	68 00 00 00 40	 push	 1073741824		; 40000000H
  0109b	8b 55 f4	 mov	 edx, DWORD PTR _this$[ebp]
  0109e	8b 8a f0 a8 02
	00		 mov	 ecx, DWORD PTR [edx+174320]
  010a4	e8 00 00 00 00	 call	 ?DrawTextA@CD3DFont@@QAEJMMKPADK@Z ; CD3DFont::DrawTextA
  010a9	d9 45 e8	 fld	 DWORD PTR _y$93943[ebp]
  010ac	d8 45 dc	 fadd	 DWORD PTR _d$93944[ebp]
  010af	d9 5d e8	 fstp	 DWORD PTR _y$93943[ebp]

; 1060 : 					sprintf(sz, " Vertices/Patch: %lu", (unsigned long)m_pTestRace->m_pTerrain->m_pPatches[0]->m_dwTotalNumVertices) ;

  010b2	8b 45 f4	 mov	 eax, DWORD PTR _this$[ebp]
  010b5	8b 88 ec a8 02
	00		 mov	 ecx, DWORD PTR [eax+174316]
  010bb	8b 51 24	 mov	 edx, DWORD PTR [ecx+36]
  010be	8b 82 fc 04 00
	00		 mov	 eax, DWORD PTR [edx+1276]
  010c4	8b 08		 mov	 ecx, DWORD PTR [eax]
  010c6	8b 51 60	 mov	 edx, DWORD PTR [ecx+96]
  010c9	52		 push	 edx
  010ca	68 00 00 00 00	 push	 OFFSET FLAT:??_C@_0BF@MJBEPPKC@?5Vertices?1Patch?3?5?$CFlu?$AA@
  010cf	8d 85 d0 fe ff
	ff		 lea	 eax, DWORD PTR _sz$93945[ebp]
  010d5	50		 push	 eax
  010d6	e8 00 00 00 00	 call	 _sprintf
  010db	83 c4 0c	 add	 esp, 12			; 0000000cH

; 1061 : 					m_pStatsFont->DrawText(2, y, D3DCOLOR_ARGB(255,0,255,0), sz) ; y += d ;

  010de	6a 00		 push	 0
  010e0	8d 85 d0 fe ff
	ff		 lea	 eax, DWORD PTR _sz$93945[ebp]
  010e6	50		 push	 eax
  010e7	68 00 ff 00 ff	 push	 -16711936		; ff00ff00H
  010ec	8b 4d e8	 mov	 ecx, DWORD PTR _y$93943[ebp]
  010ef	51		 push	 ecx
  010f0	68 00 00 00 40	 push	 1073741824		; 40000000H
  010f5	8b 55 f4	 mov	 edx, DWORD PTR _this$[ebp]
  010f8	8b 8a f0 a8 02
	00		 mov	 ecx, DWORD PTR [edx+174320]
  010fe	e8 00 00 00 00	 call	 ?DrawTextA@CD3DFont@@QAEJMMKPADK@Z ; CD3DFont::DrawTextA
  01103	d9 45 e8	 fld	 DWORD PTR _y$93943[ebp]
  01106	d8 45 dc	 fadd	 DWORD PTR _d$93944[ebp]
  01109	d9 5d e8	 fstp	 DWORD PTR _y$93943[ebp]

; 1062 : 					sprintf(sz, "  Indices/Patch: %lu", (unsigned long)m_pTestRace->m_pTerrain->m_pPatches[0]->m_dwTotalNumIndices) ;

  0110c	8b 45 f4	 mov	 eax, DWORD PTR _this$[ebp]
  0110f	8b 88 ec a8 02
	00		 mov	 ecx, DWORD PTR [eax+174316]
  01115	8b 51 24	 mov	 edx, DWORD PTR [ecx+36]
  01118	8b 82 fc 04 00
	00		 mov	 eax, DWORD PTR [edx+1276]
  0111e	8b 08		 mov	 ecx, DWORD PTR [eax]
  01120	8b 51 64	 mov	 edx, DWORD PTR [ecx+100]
  01123	52		 push	 edx
  01124	68 00 00 00 00	 push	 OFFSET FLAT:??_C@_0BF@GBLDODFD@?5?5Indices?1Patch?3?5?$CFlu?$AA@
  01129	8d 85 d0 fe ff
	ff		 lea	 eax, DWORD PTR _sz$93945[ebp]
  0112f	50		 push	 eax
  01130	e8 00 00 00 00	 call	 _sprintf
  01135	83 c4 0c	 add	 esp, 12			; 0000000cH

; 1063 : 					m_pStatsFont->DrawText(2, y, D3DCOLOR_ARGB(255,0,255,0), sz) ; y += d ;

  01138	6a 00		 push	 0
  0113a	8d 85 d0 fe ff
	ff		 lea	 eax, DWORD PTR _sz$93945[ebp]
  01140	50		 push	 eax
  01141	68 00 ff 00 ff	 push	 -16711936		; ff00ff00H
  01146	8b 4d e8	 mov	 ecx, DWORD PTR _y$93943[ebp]
  01149	51		 push	 ecx
  0114a	68 00 00 00 40	 push	 1073741824		; 40000000H
  0114f	8b 55 f4	 mov	 edx, DWORD PTR _this$[ebp]
  01152	8b 8a f0 a8 02
	00		 mov	 ecx, DWORD PTR [edx+174320]
  01158	e8 00 00 00 00	 call	 ?DrawTextA@CD3DFont@@QAEJMMKPADK@Z ; CD3DFont::DrawTextA
  0115d	d9 45 e8	 fld	 DWORD PTR _y$93943[ebp]
  01160	d8 45 dc	 fadd	 DWORD PTR _d$93944[ebp]
  01163	d9 5d e8	 fstp	 DWORD PTR _y$93943[ebp]
$L93992:

; 1064 : 					//sprintf(sz, "        CProcRO: %d bytes", (int)sizeof(CProceduralRenderObject)) ;
; 1065 : 				    //m_pStatsFont->DrawText(2, y, D3DCOLOR_ARGB(255,0,255,0), sz) ; y += d ;
; 1066 : 					//sprintf(sz, "          CBBox: %d bytes", (int)sizeof(CBoundingBox)) ;
; 1067 : 					//m_pStatsFont->DrawText(2, y, D3DCOLOR_ARGB(255,0,255,0), sz) ; y += d ;
; 1068 : 					//y += d ;
; 1069 : 					//sprintf(sz, "  OTNodes/Patch: %d [%d bytes/node] = %d KB", m_pTestRace->m_pTerrain->m_pPatches[0][0]->m_pPatchLOD[0]->m_pBBox->m_nOTNodes, (int)sizeof(CBoundingBox::_OTNode), sizeof(CBoundingBox::_OTNode) * m_pTestRace->m_pTerrain->m_pPatches[0][0]->m_pPatchLOD[0]->m_pBBox->m_nOTNodes / 1024) ;
; 1070 : 					//m_pStatsFont->DrawText(2, y, D3DCOLOR_ARGB(255,0,255,0), sz) ; y += d ;
; 1071 : 				}
; 1072 : 			}
; 1073 : 
; 1074 : 		// InGame menu
; 1075 : 			if (m_bGamePaused && m_bInGame)

  01166	8b 45 f4	 mov	 eax, DWORD PTR _this$[ebp]
  01169	0f b6 88 dc a7
	02 00		 movzx	 ecx, BYTE PTR [eax+174044]
  01170	85 c9		 test	 ecx, ecx
  01172	0f 84 ce 00 00
	00		 je	 $L94041
  01178	8b 45 f4	 mov	 eax, DWORD PTR _this$[ebp]
  0117b	0f b6 88 db a7
	02 00		 movzx	 ecx, BYTE PTR [eax+174043]
  01182	85 c9		 test	 ecx, ecx
  01184	0f 84 bc 00 00
	00		 je	 $L94041

; 1076 : 			{
; 1077 : 				FLOAT fAspect = m_d3dsdBackBuffer.Width / (FLOAT)m_d3dsdBackBuffer.Height ;

  0118a	8b 45 f4	 mov	 eax, DWORD PTR _this$[ebp]
  0118d	8b 88 98 a5 02
	00		 mov	 ecx, DWORD PTR [eax+173464]
  01193	89 8d 44 f8 ff
	ff		 mov	 DWORD PTR tv1856[ebp], ecx
  01199	c7 85 48 f8 ff
	ff 00 00 00 00	 mov	 DWORD PTR tv1856[ebp+4], 0
  011a3	df ad 44 f8 ff
	ff		 fild	 QWORD PTR tv1856[ebp]
  011a9	8b 55 f4	 mov	 edx, DWORD PTR _this$[ebp]
  011ac	8b 82 9c a5 02
	00		 mov	 eax, DWORD PTR [edx+173468]
  011b2	89 85 3c f8 ff
	ff		 mov	 DWORD PTR tv1861[ebp], eax
  011b8	c7 85 40 f8 ff
	ff 00 00 00 00	 mov	 DWORD PTR tv1861[ebp+4], 0
  011c2	df ad 3c f8 ff
	ff		 fild	 QWORD PTR tv1861[ebp]
  011c8	de f9		 fdivp	 ST(1), ST(0)
  011ca	d9 9d 34 fd ff
	ff		 fstp	 DWORD PTR _fAspect$94042[ebp]

; 1078 : 				D3DXMatrixPerspectiveFovLH(&m_matProj, D3DX_PI/4, fAspect, 0.01f, 1000.0f) ;

  011d0	68 00 00 7a 44	 push	 1148846080		; 447a0000H
  011d5	68 0a d7 23 3c	 push	 1008981770		; 3c23d70aH
  011da	8b 85 34 fd ff
	ff		 mov	 eax, DWORD PTR _fAspect$94042[ebp]
  011e0	50		 push	 eax
  011e1	68 db 0f 49 3f	 push	 1061752795		; 3f490fdbH
  011e6	8b 4d f4	 mov	 ecx, DWORD PTR _this$[ebp]
  011e9	81 c1 54 a9 02
	00		 add	 ecx, 174420		; 0002a954H
  011ef	51		 push	 ecx
  011f0	e8 00 00 00 00	 call	 _D3DXMatrixPerspectiveFovLH@20

; 1079 : 				m_pd3dDevice->SetTransform(D3DTS_PROJECTION, &m_matProj) ;

  011f5	8b 45 f4	 mov	 eax, DWORD PTR _this$[ebp]
  011f8	05 54 a9 02 00	 add	 eax, 174420		; 0002a954H
  011fd	8b f4		 mov	 esi, esp
  011ff	50		 push	 eax
  01200	6a 03		 push	 3
  01202	8b 4d f4	 mov	 ecx, DWORD PTR _this$[ebp]
  01205	8b 91 a8 a4 02
	00		 mov	 edx, DWORD PTR [ecx+173224]
  0120b	8b 45 f4	 mov	 eax, DWORD PTR _this$[ebp]
  0120e	8b 88 a8 a4 02
	00		 mov	 ecx, DWORD PTR [eax+173224]
  01214	8b 12		 mov	 edx, DWORD PTR [edx]
  01216	51		 push	 ecx
  01217	ff 92 94 00 00
	00		 call	 DWORD PTR [edx+148]
  0121d	3b f4		 cmp	 esi, esp
  0121f	e8 00 00 00 00	 call	 __RTC_CheckEsp

; 1080 : 				m_pInGameMenu->Render(m_pd3dDevice, m_pOverlayMan) ;

  01224	8b 45 f4	 mov	 eax, DWORD PTR _this$[ebp]
  01227	8b 88 d8 a8 02
	00		 mov	 ecx, DWORD PTR [eax+174296]
  0122d	51		 push	 ecx
  0122e	8b 55 f4	 mov	 edx, DWORD PTR _this$[ebp]
  01231	8b 82 a8 a4 02
	00		 mov	 eax, DWORD PTR [edx+173224]
  01237	50		 push	 eax
  01238	8b 4d f4	 mov	 ecx, DWORD PTR _this$[ebp]
  0123b	8b 89 e4 a8 02
	00		 mov	 ecx, DWORD PTR [ecx+174308]
  01241	e8 00 00 00 00	 call	 ?Render@CInGameMenu@@QAEJPAUIDirect3DDevice8@@PAVCScreenOverlayManager@@@Z ; CInGameMenu::Render
$L94041:

; 1081 : 			}
; 1082 : 
; 1083 : // frame stats;
; 1084 : 			y = 0 ;

  01246	c7 45 e8 00 00
	00 00		 mov	 DWORD PTR _y$93943[ebp], 0

; 1085 : 
; 1086 : #ifdef _DEBUG
; 1087 : 			/*sprintf( sz, "%03.0f %06lu %0.2f", m_fFPS, m_ulPPF, m_fMTS );
; 1088 : 			m_pSubtitleFont->DrawText( 0, y, D3DCOLOR_ARGB(255,255,255,255), sz); y += d ;*/
; 1089 : 			if( m_pTestRace )

  0124d	8b 45 f4	 mov	 eax, DWORD PTR _this$[ebp]
  01250	83 b8 ec a8 02
	00 00		 cmp	 DWORD PTR [eax+174316], 0
  01257	0f 84 ce 00 00
	00		 je	 $L94045

; 1090 : 			{
; 1091 : 				/*sprintf(sz, "PSa: %d", m_pTestRace->m_pFighter->m_pPS_Contrails[0]->m_dwParticles );
; 1092 : 				m_pSubtitleFont->DrawText( 0, y, D3DCOLOR_ARGB(255,255,255,255), sz); y += d ;*/
; 1093 : 
; 1094 : 				/*sprintf(sz, "%lu/%lu", m_pTestRace->m_dwNumFightersDrawn, m_pTestRace->m_dwNumFightersPVS );
; 1095 : 				m_pSubtitleFont->DrawText( 0, y, D3DCOLOR_ARGB(255,255,255,255), sz); y += d ;*/
; 1096 : 
; 1097 : 				/*sprintf(sz, "%d %d %d %d", m_pTestRace->m_pFighter->m_bContrailVisible[0], m_pTestRace->m_pFighter->m_bContrailVisible[1], m_pTestRace->m_pFighter->m_bContrailVisible[2], m_pTestRace->m_pFighter->m_bContrailVisible[3] );
; 1098 : 				m_pSubtitleFont->DrawText( 0, y, D3DCOLOR_ARGB(255,255,255,255), sz); y += d ;*/
; 1099 : 
; 1100 : 				char szSB[256], szDB[256] ;
; 1101 : 				D3DBlend2Str( m_pTestRace->SB, szSB );

  0125d	8d 85 28 fc ff
	ff		 lea	 eax, DWORD PTR _szSB$94046[ebp]
  01263	50		 push	 eax
  01264	8b 4d f4	 mov	 ecx, DWORD PTR _this$[ebp]
  01267	8b 91 ec a8 02
	00		 mov	 edx, DWORD PTR [ecx+174316]
  0126d	8b 42 64	 mov	 eax, DWORD PTR [edx+100]
  01270	50		 push	 eax
  01271	e8 00 00 00 00	 call	 ?D3DBlend2Str@@YAXKPAD@Z ; D3DBlend2Str
  01276	83 c4 08	 add	 esp, 8

; 1102 : 				D3DBlend2Str( m_pTestRace->DB, szDB );

  01279	8d 85 20 fb ff
	ff		 lea	 eax, DWORD PTR _szDB$94047[ebp]
  0127f	50		 push	 eax
  01280	8b 4d f4	 mov	 ecx, DWORD PTR _this$[ebp]
  01283	8b 91 ec a8 02
	00		 mov	 edx, DWORD PTR [ecx+174316]
  01289	8b 42 68	 mov	 eax, DWORD PTR [edx+104]
  0128c	50		 push	 eax
  0128d	e8 00 00 00 00	 call	 ?D3DBlend2Str@@YAXKPAD@Z ; D3DBlend2Str
  01292	83 c4 08	 add	 esp, 8

; 1103 : 				sprintf( sz, "[SB=%s DB=%s]", szSB, szDB );

  01295	8d 85 20 fb ff
	ff		 lea	 eax, DWORD PTR _szDB$94047[ebp]
  0129b	50		 push	 eax
  0129c	8d 8d 28 fc ff
	ff		 lea	 ecx, DWORD PTR _szSB$94046[ebp]
  012a2	51		 push	 ecx
  012a3	68 00 00 00 00	 push	 OFFSET FLAT:??_C@_0O@DBJGHLHH@?$FLSB?$DN?$CFs?5DB?$DN?$CFs?$FN?$AA@
  012a8	8d 95 d0 fe ff
	ff		 lea	 edx, DWORD PTR _sz$93945[ebp]
  012ae	52		 push	 edx
  012af	e8 00 00 00 00	 call	 _sprintf
  012b4	83 c4 10	 add	 esp, 16			; 00000010H

; 1104 : 				m_pSubtitleFont->DrawText( 0, y, D3DCOLOR_ARGB(255,255,255,255), sz); y += d ;

  012b7	6a 00		 push	 0
  012b9	8d 85 d0 fe ff
	ff		 lea	 eax, DWORD PTR _sz$93945[ebp]
  012bf	50		 push	 eax
  012c0	6a ff		 push	 -1
  012c2	8b 4d e8	 mov	 ecx, DWORD PTR _y$93943[ebp]
  012c5	51		 push	 ecx
  012c6	6a 00		 push	 0
  012c8	8b 55 f4	 mov	 edx, DWORD PTR _this$[ebp]
  012cb	8b 8a f8 a8 02
	00		 mov	 ecx, DWORD PTR [edx+174328]
  012d1	e8 00 00 00 00	 call	 ?DrawTextA@CD3DFont@@QAEJMMKPADK@Z ; CD3DFont::DrawTextA
  012d6	d9 45 e8	 fld	 DWORD PTR _y$93943[ebp]
  012d9	d8 45 dc	 fadd	 DWORD PTR _d$93944[ebp]
  012dc	d9 5d e8	 fstp	 DWORD PTR _y$93943[ebp]

; 1105 : 
; 1106 : 				sprintf( sz, "weapon: %d", m_pTestRace->m_pFighter->m_Weapon );

  012df	8b 45 f4	 mov	 eax, DWORD PTR _this$[ebp]
  012e2	8b 88 ec a8 02
	00		 mov	 ecx, DWORD PTR [eax+174316]
  012e8	8b 51 30	 mov	 edx, DWORD PTR [ecx+48]
  012eb	8b 42 04	 mov	 eax, DWORD PTR [edx+4]
  012ee	50		 push	 eax
  012ef	68 00 00 00 00	 push	 OFFSET FLAT:??_C@_0L@KIFDLFLH@weapon?3?5?$CFd?$AA@
  012f4	8d 8d d0 fe ff
	ff		 lea	 ecx, DWORD PTR _sz$93945[ebp]
  012fa	51		 push	 ecx
  012fb	e8 00 00 00 00	 call	 _sprintf
  01300	83 c4 0c	 add	 esp, 12			; 0000000cH

; 1107 : 				m_pSubtitleFont->DrawText( 0, y, D3DCOLOR_ARGB(255,255,255,255), sz); y += d ;

  01303	6a 00		 push	 0
  01305	8d 85 d0 fe ff
	ff		 lea	 eax, DWORD PTR _sz$93945[ebp]
  0130b	50		 push	 eax
  0130c	6a ff		 push	 -1
  0130e	8b 4d e8	 mov	 ecx, DWORD PTR _y$93943[ebp]
  01311	51		 push	 ecx
  01312	6a 00		 push	 0
  01314	8b 55 f4	 mov	 edx, DWORD PTR _this$[ebp]
  01317	8b 8a f8 a8 02
	00		 mov	 ecx, DWORD PTR [edx+174328]
  0131d	e8 00 00 00 00	 call	 ?DrawTextA@CD3DFont@@QAEJMMKPADK@Z ; CD3DFont::DrawTextA
  01322	d9 45 e8	 fld	 DWORD PTR _y$93943[ebp]
  01325	d8 45 dc	 fadd	 DWORD PTR _d$93944[ebp]
  01328	d9 5d e8	 fstp	 DWORD PTR _y$93943[ebp]
$L94045:

; 1108 : 			}
; 1109 : #endif
; 1110 : 			
; 1111 : 			if( m_pCmdLine->GetInt("FPS", 0) )

  0132b	6a 00		 push	 0
  0132d	68 00 00 00 00	 push	 OFFSET FLAT:??_C@_03JNOOAHCF@FPS?$AA@
  01332	8b 45 f4	 mov	 eax, DWORD PTR _this$[ebp]
  01335	8b 88 d4 a8 02
	00		 mov	 ecx, DWORD PTR [eax+174292]
  0133b	e8 00 00 00 00	 call	 ?GetInt@CCmdLineParser@@QAEHPADH@Z ; CCmdLineParser::GetInt
  01340	85 c0		 test	 eax, eax
  01342	74 64		 je	 SHORT $L94052

; 1112 : 			{
; 1113 : 				sprintf(sz, "%03.0f %lu %0.1f", m_fFPS, m_ulPPF, m_fMTS) ;

  01344	8b 45 f4	 mov	 eax, DWORD PTR _this$[ebp]
  01347	d9 80 2c a9 02
	00		 fld	 DWORD PTR [eax+174380]
  0134d	83 ec 08	 sub	 esp, 8
  01350	dd 1c 24	 fstp	 QWORD PTR [esp]
  01353	8b 4d f4	 mov	 ecx, DWORD PTR _this$[ebp]
  01356	8b 91 1c a9 02
	00		 mov	 edx, DWORD PTR [ecx+174364]
  0135c	52		 push	 edx
  0135d	8b 45 f4	 mov	 eax, DWORD PTR _this$[ebp]
  01360	d9 80 cc a5 02
	00		 fld	 DWORD PTR [eax+173516]
  01366	83 ec 08	 sub	 esp, 8
  01369	dd 1c 24	 fstp	 QWORD PTR [esp]
  0136c	68 00 00 00 00	 push	 OFFSET FLAT:??_C@_0BB@BICHHDPD@?$CF03?40f?5?$CFlu?5?$CF0?41f?$AA@
  01371	8d 8d d0 fe ff
	ff		 lea	 ecx, DWORD PTR _sz$93945[ebp]
  01377	51		 push	 ecx
  01378	e8 00 00 00 00	 call	 _sprintf
  0137d	83 c4 1c	 add	 esp, 28			; 0000001cH

; 1114 : 				m_pSubtitleFont->DrawText( 0, y, D3DCOLOR_ARGB(255,255,255,255), sz); y += d ;

  01380	6a 00		 push	 0
  01382	8d 85 d0 fe ff
	ff		 lea	 eax, DWORD PTR _sz$93945[ebp]
  01388	50		 push	 eax
  01389	6a ff		 push	 -1
  0138b	8b 4d e8	 mov	 ecx, DWORD PTR _y$93943[ebp]
  0138e	51		 push	 ecx
  0138f	6a 00		 push	 0
  01391	8b 55 f4	 mov	 edx, DWORD PTR _this$[ebp]
  01394	8b 8a f8 a8 02
	00		 mov	 ecx, DWORD PTR [edx+174328]
  0139a	e8 00 00 00 00	 call	 ?DrawTextA@CD3DFont@@QAEJMMKPADK@Z ; CD3DFont::DrawTextA
  0139f	d9 45 e8	 fld	 DWORD PTR _y$93943[ebp]
  013a2	d8 45 dc	 fadd	 DWORD PTR _d$93944[ebp]
  013a5	d9 5d e8	 fstp	 DWORD PTR _y$93943[ebp]
$L94052:

; 1115 : 			}
; 1116 : 
; 1117 : 			if (m_bInGame)

  013a8	8b 45 f4	 mov	 eax, DWORD PTR _this$[ebp]
  013ab	0f b6 88 db a7
	02 00		 movzx	 ecx, BYTE PTR [eax+174043]
  013b2	85 c9		 test	 ecx, ecx
  013b4	74 3b		 je	 SHORT $L94056

; 1118 : 			{
; 1119 : 				//sprintf( sz, "speed: %0.1f world units/s", m_pTestRace->m_pFighter->m_fSpeed * m_fFPS );
; 1120 : 				//m_pSubtitleFont->DrawText( 0, y, D3DCOLOR_ARGB(255,255,255,255), sz); y += d ;
; 1121 : 
; 1122 : 				/*sprintf( sz, "N=(%0.1f,%0.1f,%0.1f) ",
; 1123 : 							m_pTestRace->m_pFighter->m_TCD_vN.x,
; 1124 : 							m_pTestRace->m_pFighter->m_TCD_vN.y,
; 1125 : 							m_pTestRace->m_pFighter->m_TCD_vN.z );
; 1126 : 				m_pStatsFont->DrawText( 0, y, D3DCOLOR_ARGB(255,255,255,255), sz); y += d ;
; 1127 : 
; 1128 : 				sprintf( sz, "A=(%0.1f,%0.1f,%0.1f) ",
; 1129 : 							m_pTestRace->m_pFighter->m_TCD_vA.x,
; 1130 : 							m_pTestRace->m_pFighter->m_TCD_vA.y,
; 1131 : 							m_pTestRace->m_pFighter->m_TCD_vA.z );
; 1132 : 				m_pStatsFont->DrawText( 0, y, D3DCOLOR_ARGB(255,255,255,255), sz); y += d ;
; 1133 : 
; 1134 : 				xVec3 vnEF ;
; 1135 : 				D3DXVec3Normalize( &vnEF, &m_pTestRace->m_pFighter->m_vExternalForce );
; 1136 : 				sprintf( sz, "x=(%0.1f,%0.1f,%0.1f) ",
; 1137 : 							vnEF.x,
; 1138 : 							vnEF.y,
; 1139 : 							vnEF.z );
; 1140 : 				m_pStatsFont->DrawText( 0, y, D3DCOLOR_ARGB(255,255,255,255), sz); y += d ;
; 1141 : 
; 1142 : 				sprintf( sz, "v=(%0.1f,%0.1f,%0.1f) ",
; 1143 : 							m_pTestRace->m_pFighter->m_vDirectionOfTravel.x,
; 1144 : 							m_pTestRace->m_pFighter->m_vDirectionOfTravel.y,
; 1145 : 							m_pTestRace->m_pFighter->m_vDirectionOfTravel.z );
; 1146 : 				m_pStatsFont->DrawText( 0, y, D3DCOLOR_ARGB(255,255,255,255), sz); y += d ;*/
; 1147 : 
; 1148 : 				if( m_pTestRace->m_pFighter->m_bTerrainCollision )

  013b6	8b 45 f4	 mov	 eax, DWORD PTR _this$[ebp]
  013b9	8b 88 ec a8 02
	00		 mov	 ecx, DWORD PTR [eax+174316]
  013bf	8b 51 30	 mov	 edx, DWORD PTR [ecx+48]
  013c2	83 ba e8 02 00
	00 00		 cmp	 DWORD PTR [edx+744], 0
  013c9	74 1d		 je	 SHORT $L94057

; 1149 : 					m_pStatsFont->DrawText( 0, y, D3DCOLOR_ARGB(255,255,255,255), "TC!"); y += d ;

  013cb	6a 00		 push	 0
  013cd	68 00 00 00 00	 push	 OFFSET FLAT:??_C@_03GEJHJOGM@TC?$CB?$AA@
  013d2	6a ff		 push	 -1
  013d4	8b 45 e8	 mov	 eax, DWORD PTR _y$93943[ebp]
  013d7	50		 push	 eax
  013d8	6a 00		 push	 0
  013da	8b 4d f4	 mov	 ecx, DWORD PTR _this$[ebp]
  013dd	8b 89 f0 a8 02
	00		 mov	 ecx, DWORD PTR [ecx+174320]
  013e3	e8 00 00 00 00	 call	 ?DrawTextA@CD3DFont@@QAEJMMKPADK@Z ; CD3DFont::DrawTextA
$L94057:
  013e8	d9 45 e8	 fld	 DWORD PTR _y$93943[ebp]
  013eb	d8 45 dc	 fadd	 DWORD PTR _d$93944[ebp]
  013ee	d9 5d e8	 fstp	 DWORD PTR _y$93943[ebp]
$L94056:

; 1150 : 
; 1151 : 				//sprintf( sz, "pitch=%f", m_pTestRace->m_pFighter->m_fPitch / g_PI );
; 1152 : 				//m_pSubtitleFont->DrawText( 0, y, D3DCOLOR_ARGB(255,255,255,255), sz); y += d ;
; 1153 : 
; 1154 : 				/*sprintf(sz, "%0.2f %0.2f, %0.2f", m_pTestRace->m_pFighter->m_vPosition.x, m_pTestRace->m_pFighter->m_vPosition.y, m_pTestRace->m_pFighter->m_vPosition.z ) ;
; 1155 : 				m_pStatsFont->DrawText( 2, y, D3DCOLOR_ARGB(255,255,255,255), sz); y += d ;*/
; 1156 : 
; 1157 : 				/*sprintf( sz, "%d %d", m_pTestRace->m_pFighter->SB, m_pTestRace->m_pFighter->DB );
; 1158 : 				m_pStatsFont->DrawText( 2, y, D3DCOLOR_ARGB(255,255,255,255), sz); y += d ;*/
; 1159 : 
; 1160 : 				/*sprintf(sz, "%0.2f, %0.1f %0.1f", m_pTestRace->m_pFighter->m_fShieldLevel, m_pTestRace->m_pFighter->m_fSpeed, m_pTestRace->m_pFighter->m_fThrustMag) ;
; 1161 : 				m_pStatsFont->DrawText( 2, y, D3DCOLOR_ARGB(255,255,255,255), sz); y += d ;*/
; 1162 : 				
; 1163 : 				/*sprintf(sz, " %06lu %06lu m_fThrustMag: %0.2f vO: %0.7f, %0.7f, %0.7f",
; 1164 : 					m_pTestRace->m_pFighter->m_pPS_Explosion != NULL
; 1165 : 					? (unsigned long)m_pTestRace->m_pFighter->m_pPS_Explosion->m_dwParticles
; 1166 : 					: 0,
; 1167 : 					m_pTestRace->m_pFighter->m_pPS_Contrail != NULL
; 1168 : 					? (unsigned long)m_pTestRace->m_pFighter->m_pPS_Contrail->m_dwParticles
; 1169 : 					: 0,
; 1170 : 					m_pTestRace->m_pFighter->m_fThrustMag,
; 1171 : 					m_pTestRace->m_pFighter->m_vOrientation.x, m_pTestRace->m_pFighter->m_vOrientation.y, m_pTestRace->m_pFighter->m_vOrientation.z) ;
; 1172 : 				m_pStatsFont->DrawText( 2, y, D3DCOLOR_ARGB(255,255,255,255), sz); y += d ;
; 1173 : 				sprintf(sz, "m_vExternalForce: %0.7f vO: %0.7f, %0.7f, %0.7f", m_pTestRace->m_pFighter->m_vExternalForce.x, m_pTestRace->m_pFighter->m_vExternalForce.y, m_pTestRace->m_pFighter->m_vExternalForce.z) ;
; 1174 : 				m_pStatsFont->DrawText( 2, y, D3DCOLOR_ARGB(255,255,255,255), sz); y += d ;*/
; 1175 : 			}
; 1176 : 
; 1177 : 			if (m_bStats)

  013f1	8b 45 f4	 mov	 eax, DWORD PTR _this$[ebp]
  013f4	83 b8 98 a9 02
	00 00		 cmp	 DWORD PTR [eax+174488], 0
  013fb	0f 84 70 04 00
	00		 je	 $L94060

; 1178 : 			{
; 1179 : 				char szBBFormat[256], szDepthBFormat[256] ;
; 1180 : 				D3DFormat2Str(m_d3dsdBackBuffer.Format, szBBFormat) ;

  01401	8d 85 18 fa ff
	ff		 lea	 eax, DWORD PTR _szBBFormat$94061[ebp]
  01407	50		 push	 eax
  01408	8b 4d f4	 mov	 ecx, DWORD PTR _this$[ebp]
  0140b	8b 91 80 a5 02
	00		 mov	 edx, DWORD PTR [ecx+173440]
  01411	52		 push	 edx
  01412	e8 00 00 00 00	 call	 ?D3DFormat2Str@@YAXKPAD@Z ; D3DFormat2Str
  01417	83 c4 08	 add	 esp, 8

; 1181 : 				D3DFormat2Str(m_d3dpp.AutoDepthStencilFormat, szDepthBFormat) ;

  0141a	8d 85 10 f9 ff
	ff		 lea	 eax, DWORD PTR _szDepthBFormat$94062[ebp]
  01420	50		 push	 eax
  01421	8b 4d f4	 mov	 ecx, DWORD PTR _this$[ebp]
  01424	8b 91 88 a4 02
	00		 mov	 edx, DWORD PTR [ecx+173192]
  0142a	52		 push	 edx
  0142b	e8 00 00 00 00	 call	 ?D3DFormat2Str@@YAXKPAD@Z ; D3DFormat2Str
  01430	83 c4 08	 add	 esp, 8

; 1182 : 			
; 1183 : 				m_pStatsFont->DrawText( 2, y, D3DCOLOR_ARGB(255,255,255,255), m_strDeviceStats ); y += d ;

  01433	6a 00		 push	 0
  01435	8b 45 f4	 mov	 eax, DWORD PTR _this$[ebp]
  01438	05 d0 a5 02 00	 add	 eax, 173520		; 0002a5d0H
  0143d	50		 push	 eax
  0143e	6a ff		 push	 -1
  01440	8b 4d e8	 mov	 ecx, DWORD PTR _y$93943[ebp]
  01443	51		 push	 ecx
  01444	68 00 00 00 40	 push	 1073741824		; 40000000H
  01449	8b 55 f4	 mov	 edx, DWORD PTR _this$[ebp]
  0144c	8b 8a f0 a8 02
	00		 mov	 ecx, DWORD PTR [edx+174320]
  01452	e8 00 00 00 00	 call	 ?DrawTextA@CD3DFont@@QAEJMMKPADK@Z ; CD3DFont::DrawTextA
  01457	d9 45 e8	 fld	 DWORD PTR _y$93943[ebp]
  0145a	d8 45 dc	 fadd	 DWORD PTR _d$93944[ebp]
  0145d	d9 5d e8	 fstp	 DWORD PTR _y$93943[ebp]

; 1184 : 
; 1185 : 				sprintf( sz, "Multisample: %dx", m_d3dpp.MultiSampleType );

  01460	8b 45 f4	 mov	 eax, DWORD PTR _this$[ebp]
  01463	8b 88 74 a4 02
	00		 mov	 ecx, DWORD PTR [eax+173172]
  01469	51		 push	 ecx
  0146a	68 00 00 00 00	 push	 OFFSET FLAT:??_C@_0BB@LCLDOCNK@Multisample?3?5?$CFdx?$AA@
  0146f	8d 95 d0 fe ff
	ff		 lea	 edx, DWORD PTR _sz$93945[ebp]
  01475	52		 push	 edx
  01476	e8 00 00 00 00	 call	 _sprintf
  0147b	83 c4 0c	 add	 esp, 12			; 0000000cH

; 1186 : 				m_pStatsFont->DrawText( 2, y, D3DCOLOR_ARGB(255,255,255,255), sz); y += d ;

  0147e	6a 00		 push	 0
  01480	8d 85 d0 fe ff
	ff		 lea	 eax, DWORD PTR _sz$93945[ebp]
  01486	50		 push	 eax
  01487	6a ff		 push	 -1
  01489	8b 4d e8	 mov	 ecx, DWORD PTR _y$93943[ebp]
  0148c	51		 push	 ecx
  0148d	68 00 00 00 40	 push	 1073741824		; 40000000H
  01492	8b 55 f4	 mov	 edx, DWORD PTR _this$[ebp]
  01495	8b 8a f0 a8 02
	00		 mov	 ecx, DWORD PTR [edx+174320]
  0149b	e8 00 00 00 00	 call	 ?DrawTextA@CD3DFont@@QAEJMMKPADK@Z ; CD3DFont::DrawTextA
  014a0	d9 45 e8	 fld	 DWORD PTR _y$93943[ebp]
  014a3	d8 45 dc	 fadd	 DWORD PTR _d$93944[ebp]
  014a6	d9 5d e8	 fstp	 DWORD PTR _y$93943[ebp]

; 1187 : 
; 1188 : 				sprintf(sz, "%s - PPF: %lu [%0.2f MT/s]", m_strFrameStats, m_ulPPF, m_fMTS) ;

  014a9	8b 45 f4	 mov	 eax, DWORD PTR _this$[ebp]
  014ac	d9 80 2c a9 02
	00		 fld	 DWORD PTR [eax+174380]
  014b2	83 ec 08	 sub	 esp, 8
  014b5	dd 1c 24	 fstp	 QWORD PTR [esp]
  014b8	8b 4d f4	 mov	 ecx, DWORD PTR _this$[ebp]
  014bb	8b 91 1c a9 02
	00		 mov	 edx, DWORD PTR [ecx+174364]
  014c1	52		 push	 edx
  014c2	8b 45 f4	 mov	 eax, DWORD PTR _this$[ebp]
  014c5	05 2a a6 02 00	 add	 eax, 173610		; 0002a62aH
  014ca	50		 push	 eax
  014cb	68 00 00 00 00	 push	 OFFSET FLAT:??_C@_0BL@OGMMPGLM@?$CFs?5?9?5PPF?3?5?$CFlu?5?$FL?$CF0?42f?5MT?1s?$FN?$AA@
  014d0	8d 8d d0 fe ff
	ff		 lea	 ecx, DWORD PTR _sz$93945[ebp]
  014d6	51		 push	 ecx
  014d7	e8 00 00 00 00	 call	 _sprintf
  014dc	83 c4 18	 add	 esp, 24			; 00000018H

; 1189 : 				m_pStatsFont->DrawText( 2, y, D3DCOLOR_ARGB(255,255,255,255), sz); y += d ;

  014df	6a 00		 push	 0
  014e1	8d 85 d0 fe ff
	ff		 lea	 eax, DWORD PTR _sz$93945[ebp]
  014e7	50		 push	 eax
  014e8	6a ff		 push	 -1
  014ea	8b 4d e8	 mov	 ecx, DWORD PTR _y$93943[ebp]
  014ed	51		 push	 ecx
  014ee	68 00 00 00 40	 push	 1073741824		; 40000000H
  014f3	8b 55 f4	 mov	 edx, DWORD PTR _this$[ebp]
  014f6	8b 8a f0 a8 02
	00		 mov	 ecx, DWORD PTR [edx+174320]
  014fc	e8 00 00 00 00	 call	 ?DrawTextA@CD3DFont@@QAEJMMKPADK@Z ; CD3DFont::DrawTextA
  01501	d9 45 e8	 fld	 DWORD PTR _y$93943[ebp]
  01504	d8 45 dc	 fadd	 DWORD PTR _d$93944[ebp]
  01507	d9 5d e8	 fstp	 DWORD PTR _y$93943[ebp]

; 1190 : 
; 1191 : 				sprintf(sz, "FPS: %0.0f - %0.0f [Avg: %0.0f]", m_fMinFPS, m_fMaxFPS, m_fAvgFPS) ;

  0150a	8b 45 f4	 mov	 eax, DWORD PTR _this$[ebp]
  0150d	d9 80 18 a9 02
	00		 fld	 DWORD PTR [eax+174360]
  01513	83 ec 08	 sub	 esp, 8
  01516	dd 1c 24	 fstp	 QWORD PTR [esp]
  01519	8b 4d f4	 mov	 ecx, DWORD PTR _this$[ebp]
  0151c	d9 81 14 a9 02
	00		 fld	 DWORD PTR [ecx+174356]
  01522	83 ec 08	 sub	 esp, 8
  01525	dd 1c 24	 fstp	 QWORD PTR [esp]
  01528	8b 55 f4	 mov	 edx, DWORD PTR _this$[ebp]
  0152b	d9 82 10 a9 02
	00		 fld	 DWORD PTR [edx+174352]
  01531	83 ec 08	 sub	 esp, 8
  01534	dd 1c 24	 fstp	 QWORD PTR [esp]
  01537	68 00 00 00 00	 push	 OFFSET FLAT:??_C@_0CA@JAPAKDMH@FPS?3?5?$CF0?40f?5?9?5?$CF0?40f?5?$FLAvg?3?5?$CF0?40f?$FN?$AA@
  0153c	8d 85 d0 fe ff
	ff		 lea	 eax, DWORD PTR _sz$93945[ebp]
  01542	50		 push	 eax
  01543	e8 00 00 00 00	 call	 _sprintf
  01548	83 c4 20	 add	 esp, 32			; 00000020H

; 1192 : 				m_pStatsFont->DrawText( 2, y, D3DCOLOR_ARGB(255,255,255,255), sz); y += d ;

  0154b	6a 00		 push	 0
  0154d	8d 85 d0 fe ff
	ff		 lea	 eax, DWORD PTR _sz$93945[ebp]
  01553	50		 push	 eax
  01554	6a ff		 push	 -1
  01556	8b 4d e8	 mov	 ecx, DWORD PTR _y$93943[ebp]
  01559	51		 push	 ecx
  0155a	68 00 00 00 40	 push	 1073741824		; 40000000H
  0155f	8b 55 f4	 mov	 edx, DWORD PTR _this$[ebp]
  01562	8b 8a f0 a8 02
	00		 mov	 ecx, DWORD PTR [edx+174320]
  01568	e8 00 00 00 00	 call	 ?DrawTextA@CD3DFont@@QAEJMMKPADK@Z ; CD3DFont::DrawTextA
  0156d	d9 45 e8	 fld	 DWORD PTR _y$93943[ebp]
  01570	d8 45 dc	 fadd	 DWORD PTR _d$93944[ebp]
  01573	d9 5d e8	 fstp	 DWORD PTR _y$93943[ebp]

; 1193 : 
; 1194 : 				sprintf(sz, "[MaxActiveLights: 0x%x] [DirectionLights: %s] [MaxTexWidth: %d] [MaxTexHeight: %d]", (unsigned long)m_d3dCaps.MaxActiveLights, m_d3dCaps.VertexProcessingCaps & D3DVTXPCAPS_DIRECTIONALLIGHTS ? "yes" : "no", (int)m_d3dCaps.MaxTextureWidth, (int)m_d3dCaps.MaxTextureHeight );

  01576	8b 45 f4	 mov	 eax, DWORD PTR _this$[ebp]
  01579	8b 88 48 a5 02
	00		 mov	 ecx, DWORD PTR [eax+173384]
  0157f	83 e1 08	 and	 ecx, 8
  01582	85 c9		 test	 ecx, ecx
  01584	74 0c		 je	 SHORT $L94673
  01586	c7 85 48 f8 ff
	ff 00 00 00 00	 mov	 DWORD PTR tv1083[ebp], OFFSET FLAT:??_C@_03ICICOMAL@yes?$AA@
  01590	eb 0a		 jmp	 SHORT $L94674
$L94673:
  01592	c7 85 48 f8 ff
	ff 00 00 00 00	 mov	 DWORD PTR tv1083[ebp], OFFSET FLAT:??_C@_02KAJCLHKP@no?$AA@
$L94674:
  0159c	8b 55 f4	 mov	 edx, DWORD PTR _this$[ebp]
  0159f	8b 82 08 a5 02
	00		 mov	 eax, DWORD PTR [edx+173320]
  015a5	50		 push	 eax
  015a6	8b 4d f4	 mov	 ecx, DWORD PTR _this$[ebp]
  015a9	8b 91 04 a5 02
	00		 mov	 edx, DWORD PTR [ecx+173316]
  015af	52		 push	 edx
  015b0	8b 85 48 f8 ff
	ff		 mov	 eax, DWORD PTR tv1083[ebp]
  015b6	50		 push	 eax
  015b7	8b 4d f4	 mov	 ecx, DWORD PTR _this$[ebp]
  015ba	8b 91 4c a5 02
	00		 mov	 edx, DWORD PTR [ecx+173388]
  015c0	52		 push	 edx
  015c1	68 00 00 00 00	 push	 OFFSET FLAT:??_C@_0FD@GGBIMOKD@?$FLMaxActiveLights?3?50x?$CFx?$FN?5?$FLDirecti@
  015c6	8d 85 d0 fe ff
	ff		 lea	 eax, DWORD PTR _sz$93945[ebp]
  015cc	50		 push	 eax
  015cd	e8 00 00 00 00	 call	 _sprintf
  015d2	83 c4 18	 add	 esp, 24			; 00000018H

; 1195 : 				m_pStatsFont->DrawText(2, y, D3DCOLOR_ARGB(255,255,255,255), sz) ; y += d ;

  015d5	6a 00		 push	 0
  015d7	8d 85 d0 fe ff
	ff		 lea	 eax, DWORD PTR _sz$93945[ebp]
  015dd	50		 push	 eax
  015de	6a ff		 push	 -1
  015e0	8b 4d e8	 mov	 ecx, DWORD PTR _y$93943[ebp]
  015e3	51		 push	 ecx
  015e4	68 00 00 00 40	 push	 1073741824		; 40000000H
  015e9	8b 55 f4	 mov	 edx, DWORD PTR _this$[ebp]
  015ec	8b 8a f0 a8 02
	00		 mov	 ecx, DWORD PTR [edx+174320]
  015f2	e8 00 00 00 00	 call	 ?DrawTextA@CD3DFont@@QAEJMMKPADK@Z ; CD3DFont::DrawTextA
  015f7	d9 45 e8	 fld	 DWORD PTR _y$93943[ebp]
  015fa	d8 45 dc	 fadd	 DWORD PTR _d$93944[ebp]
  015fd	d9 5d e8	 fstp	 DWORD PTR _y$93943[ebp]

; 1196 : 				
; 1197 : 				sprintf(sz, "[MaxPointSize: %0.1f] [BackBuffer: %s] [DepthBuffer: %s] [WBufOK: %s]", m_d3dCaps.MaxPointSize, szBBFormat, szDepthBFormat, m_d3dCaps.RasterCaps & D3DPRASTERCAPS_WBUFFER ? "yes" : "no") ;

  01600	8b 45 f4	 mov	 eax, DWORD PTR _this$[ebp]
  01603	8b 88 d0 a4 02
	00		 mov	 ecx, DWORD PTR [eax+173264]
  01609	81 e1 00 00 04
	00		 and	 ecx, 262144		; 00040000H
  0160f	85 c9		 test	 ecx, ecx
  01611	74 0c		 je	 SHORT $L94675
  01613	c7 85 48 f8 ff
	ff 00 00 00 00	 mov	 DWORD PTR tv1103[ebp], OFFSET FLAT:??_C@_03ICICOMAL@yes?$AA@
  0161d	eb 0a		 jmp	 SHORT $L94676
$L94675:
  0161f	c7 85 48 f8 ff
	ff 00 00 00 00	 mov	 DWORD PTR tv1103[ebp], OFFSET FLAT:??_C@_02KAJCLHKP@no?$AA@
$L94676:
  01629	8b 95 48 f8 ff
	ff		 mov	 edx, DWORD PTR tv1103[ebp]
  0162f	52		 push	 edx
  01630	8d 85 10 f9 ff
	ff		 lea	 eax, DWORD PTR _szDepthBFormat$94062[ebp]
  01636	50		 push	 eax
  01637	8d 8d 18 fa ff
	ff		 lea	 ecx, DWORD PTR _szBBFormat$94061[ebp]
  0163d	51		 push	 ecx
  0163e	8b 55 f4	 mov	 edx, DWORD PTR _this$[ebp]
  01641	d9 82 5c a5 02
	00		 fld	 DWORD PTR [edx+173404]
  01647	83 ec 08	 sub	 esp, 8
  0164a	dd 1c 24	 fstp	 QWORD PTR [esp]
  0164d	68 00 00 00 00	 push	 OFFSET FLAT:??_C@_0EG@FKOMAMOI@?$FLMaxPointSize?3?5?$CF0?41f?$FN?5?$FLBackBuffe@
  01652	8d 85 d0 fe ff
	ff		 lea	 eax, DWORD PTR _sz$93945[ebp]
  01658	50		 push	 eax
  01659	e8 00 00 00 00	 call	 _sprintf
  0165e	83 c4 1c	 add	 esp, 28			; 0000001cH

; 1198 : 				m_pStatsFont->DrawText(2, y, D3DCOLOR_ARGB(255,255,255,255), sz) ; y += d ;

  01661	6a 00		 push	 0
  01663	8d 85 d0 fe ff
	ff		 lea	 eax, DWORD PTR _sz$93945[ebp]
  01669	50		 push	 eax
  0166a	6a ff		 push	 -1
  0166c	8b 4d e8	 mov	 ecx, DWORD PTR _y$93943[ebp]
  0166f	51		 push	 ecx
  01670	68 00 00 00 40	 push	 1073741824		; 40000000H
  01675	8b 55 f4	 mov	 edx, DWORD PTR _this$[ebp]
  01678	8b 8a f0 a8 02
	00		 mov	 ecx, DWORD PTR [edx+174320]
  0167e	e8 00 00 00 00	 call	 ?DrawTextA@CD3DFont@@QAEJMMKPADK@Z ; CD3DFont::DrawTextA
  01683	d9 45 e8	 fld	 DWORD PTR _y$93943[ebp]
  01686	d8 45 dc	 fadd	 DWORD PTR _d$93944[ebp]
  01689	d9 5d e8	 fstp	 DWORD PTR _y$93943[ebp]

; 1199 : 				
; 1200 : 				sprintf(sz, "[MaxSimulTex: %d] [MaxTexBlendStages: %d] [NoPasses4AlphaBlend2Tex: %d]", (int)m_d3dCaps.MaxSimultaneousTextures, (int)m_d3dCaps.MaxTextureBlendStages , m_dwNumPassesForAlphaBlend2Tex) ;

  0168c	8b 45 f4	 mov	 eax, DWORD PTR _this$[ebp]
  0168f	8b 88 a4 a9 02
	00		 mov	 ecx, DWORD PTR [eax+174500]
  01695	51		 push	 ecx
  01696	8b 55 f4	 mov	 edx, DWORD PTR _this$[ebp]
  01699	8b 82 40 a5 02
	00		 mov	 eax, DWORD PTR [edx+173376]
  0169f	50		 push	 eax
  016a0	8b 4d f4	 mov	 ecx, DWORD PTR _this$[ebp]
  016a3	8b 91 44 a5 02
	00		 mov	 edx, DWORD PTR [ecx+173380]
  016a9	52		 push	 edx
  016aa	68 00 00 00 00	 push	 OFFSET FLAT:??_C@_0EI@NFLACNPO@?$FLMaxSimulTex?3?5?$CFd?$FN?5?$FLMaxTexBlendSt@
  016af	8d 85 d0 fe ff
	ff		 lea	 eax, DWORD PTR _sz$93945[ebp]
  016b5	50		 push	 eax
  016b6	e8 00 00 00 00	 call	 _sprintf
  016bb	83 c4 14	 add	 esp, 20			; 00000014H

; 1201 : 				m_pStatsFont->DrawText(2, y, D3DCOLOR_ARGB(255,255,255,255), sz) ; y += d ;

  016be	6a 00		 push	 0
  016c0	8d 85 d0 fe ff
	ff		 lea	 eax, DWORD PTR _sz$93945[ebp]
  016c6	50		 push	 eax
  016c7	6a ff		 push	 -1
  016c9	8b 4d e8	 mov	 ecx, DWORD PTR _y$93943[ebp]
  016cc	51		 push	 ecx
  016cd	68 00 00 00 40	 push	 1073741824		; 40000000H
  016d2	8b 55 f4	 mov	 edx, DWORD PTR _this$[ebp]
  016d5	8b 8a f0 a8 02
	00		 mov	 ecx, DWORD PTR [edx+174320]
  016db	e8 00 00 00 00	 call	 ?DrawTextA@CD3DFont@@QAEJMMKPADK@Z ; CD3DFont::DrawTextA
  016e0	d9 45 e8	 fld	 DWORD PTR _y$93943[ebp]
  016e3	d8 45 dc	 fadd	 DWORD PTR _d$93944[ebp]
  016e6	d9 5d e8	 fstp	 DWORD PTR _y$93943[ebp]

; 1202 : 				
; 1203 : 				sprintf(sz, "[MultiSampType: %d] [MinFLin: %s] [MaxFLin: %s] [MipFLin: %s]", (int)m_d3dpp.MultiSampleType, m_d3dCaps.TextureFilterCaps & D3DPTFILTERCAPS_MINFLINEAR ? "yes" : "no", m_d3dCaps.TextureFilterCaps & D3DPTFILTERCAPS_MAGFLINEAR ? "yes" : "no", m_d3dCaps.TextureFilterCaps & D3DPTFILTERCAPS_MIPFLINEAR ? "yes" : "no") ;

  016e9	8b 45 f4	 mov	 eax, DWORD PTR _this$[ebp]
  016ec	8b 88 ec a4 02
	00		 mov	 ecx, DWORD PTR [eax+173292]
  016f2	81 e1 00 00 02
	00		 and	 ecx, 131072		; 00020000H
  016f8	85 c9		 test	 ecx, ecx
  016fa	74 0c		 je	 SHORT $L94677
  016fc	c7 85 48 f8 ff
	ff 00 00 00 00	 mov	 DWORD PTR tv1145[ebp], OFFSET FLAT:??_C@_03ICICOMAL@yes?$AA@
  01706	eb 0a		 jmp	 SHORT $L94678
$L94677:
  01708	c7 85 48 f8 ff
	ff 00 00 00 00	 mov	 DWORD PTR tv1145[ebp], OFFSET FLAT:??_C@_02KAJCLHKP@no?$AA@
$L94678:
  01712	8b 55 f4	 mov	 edx, DWORD PTR _this$[ebp]
  01715	8b 82 ec a4 02
	00		 mov	 eax, DWORD PTR [edx+173292]
  0171b	25 00 00 00 02	 and	 eax, 33554432		; 02000000H
  01720	85 c0		 test	 eax, eax
  01722	74 0c		 je	 SHORT $L94679
  01724	c7 85 44 f8 ff
	ff 00 00 00 00	 mov	 DWORD PTR tv1151[ebp], OFFSET FLAT:??_C@_03ICICOMAL@yes?$AA@
  0172e	eb 0a		 jmp	 SHORT $L94680
$L94679:
  01730	c7 85 44 f8 ff
	ff 00 00 00 00	 mov	 DWORD PTR tv1151[ebp], OFFSET FLAT:??_C@_02KAJCLHKP@no?$AA@
$L94680:
  0173a	8b 4d f4	 mov	 ecx, DWORD PTR _this$[ebp]
  0173d	8b 91 ec a4 02
	00		 mov	 edx, DWORD PTR [ecx+173292]
  01743	81 e2 00 02 00
	00		 and	 edx, 512		; 00000200H
  01749	85 d2		 test	 edx, edx
  0174b	74 0c		 je	 SHORT $L94681
  0174d	c7 85 40 f8 ff
	ff 00 00 00 00	 mov	 DWORD PTR tv1157[ebp], OFFSET FLAT:??_C@_03ICICOMAL@yes?$AA@
  01757	eb 0a		 jmp	 SHORT $L94682
$L94681:
  01759	c7 85 40 f8 ff
	ff 00 00 00 00	 mov	 DWORD PTR tv1157[ebp], OFFSET FLAT:??_C@_02KAJCLHKP@no?$AA@
$L94682:
  01763	8b 85 48 f8 ff
	ff		 mov	 eax, DWORD PTR tv1145[ebp]
  01769	50		 push	 eax
  0176a	8b 8d 44 f8 ff
	ff		 mov	 ecx, DWORD PTR tv1151[ebp]
  01770	51		 push	 ecx
  01771	8b 95 40 f8 ff
	ff		 mov	 edx, DWORD PTR tv1157[ebp]
  01777	52		 push	 edx
  01778	8b 45 f4	 mov	 eax, DWORD PTR _this$[ebp]
  0177b	8b 88 74 a4 02
	00		 mov	 ecx, DWORD PTR [eax+173172]
  01781	51		 push	 ecx
  01782	68 00 00 00 00	 push	 OFFSET FLAT:??_C@_0DO@OKDMGFFA@?$FLMultiSampType?3?5?$CFd?$FN?5?$FLMinFLin?3?5?$CFs@
  01787	8d 95 d0 fe ff
	ff		 lea	 edx, DWORD PTR _sz$93945[ebp]
  0178d	52		 push	 edx
  0178e	e8 00 00 00 00	 call	 _sprintf
  01793	83 c4 18	 add	 esp, 24			; 00000018H

; 1204 : 				m_pStatsFont->DrawText(2, y, D3DCOLOR_ARGB(255,255,255,255), sz) ; y += d ;

  01796	6a 00		 push	 0
  01798	8d 85 d0 fe ff
	ff		 lea	 eax, DWORD PTR _sz$93945[ebp]
  0179e	50		 push	 eax
  0179f	6a ff		 push	 -1
  017a1	8b 4d e8	 mov	 ecx, DWORD PTR _y$93943[ebp]
  017a4	51		 push	 ecx
  017a5	68 00 00 00 40	 push	 1073741824		; 40000000H
  017aa	8b 55 f4	 mov	 edx, DWORD PTR _this$[ebp]
  017ad	8b 8a f0 a8 02
	00		 mov	 ecx, DWORD PTR [edx+174320]
  017b3	e8 00 00 00 00	 call	 ?DrawTextA@CD3DFont@@QAEJMMKPADK@Z ; CD3DFont::DrawTextA
  017b8	d9 45 e8	 fld	 DWORD PTR _y$93943[ebp]
  017bb	d8 45 dc	 fadd	 DWORD PTR _d$93944[ebp]
  017be	d9 5d e8	 fstp	 DWORD PTR _y$93943[ebp]

; 1205 : 				
; 1206 : 				sprintf(sz, "[MaxPrimCount: 0x%X] [MaxVertexIndex: 0x%X] [MaxAnisotropy: %d]", m_d3dCaps.MaxPrimitiveCount, m_d3dCaps.MaxVertexIndex, (int)m_d3dCaps.MaxAnisotropy) ;

  017c1	8b 45 f4	 mov	 eax, DWORD PTR _this$[ebp]
  017c4	8b 88 18 a5 02
	00		 mov	 ecx, DWORD PTR [eax+173336]
  017ca	51		 push	 ecx
  017cb	8b 55 f4	 mov	 edx, DWORD PTR _this$[ebp]
  017ce	8b 82 64 a5 02
	00		 mov	 eax, DWORD PTR [edx+173412]
  017d4	50		 push	 eax
  017d5	8b 4d f4	 mov	 ecx, DWORD PTR _this$[ebp]
  017d8	8b 91 60 a5 02
	00		 mov	 edx, DWORD PTR [ecx+173408]
  017de	52		 push	 edx
  017df	68 00 00 00 00	 push	 OFFSET FLAT:??_C@_0EA@HFGIOOG@?$FLMaxPrimCount?3?50x?$CFX?$FN?5?$FLMaxVertexI@
  017e4	8d 85 d0 fe ff
	ff		 lea	 eax, DWORD PTR _sz$93945[ebp]
  017ea	50		 push	 eax
  017eb	e8 00 00 00 00	 call	 _sprintf
  017f0	83 c4 14	 add	 esp, 20			; 00000014H

; 1207 : 				m_pStatsFont->DrawText(2, y, D3DCOLOR_ARGB(255,255,255,255), sz) ; y += d ;

  017f3	6a 00		 push	 0
  017f5	8d 85 d0 fe ff
	ff		 lea	 eax, DWORD PTR _sz$93945[ebp]
  017fb	50		 push	 eax
  017fc	6a ff		 push	 -1
  017fe	8b 4d e8	 mov	 ecx, DWORD PTR _y$93943[ebp]
  01801	51		 push	 ecx
  01802	68 00 00 00 40	 push	 1073741824		; 40000000H
  01807	8b 55 f4	 mov	 edx, DWORD PTR _this$[ebp]
  0180a	8b 8a f0 a8 02
	00		 mov	 ecx, DWORD PTR [edx+174320]
  01810	e8 00 00 00 00	 call	 ?DrawTextA@CD3DFont@@QAEJMMKPADK@Z ; CD3DFont::DrawTextA
  01815	d9 45 e8	 fld	 DWORD PTR _y$93943[ebp]
  01818	d8 45 dc	 fadd	 DWORD PTR _d$93944[ebp]
  0181b	d9 5d e8	 fstp	 DWORD PTR _y$93943[ebp]

; 1208 : 
; 1209 : 				sprintf(sz, "[FSAASupport: %d] [FSAAEnabled: %d]", m_bFSAA_Supported, m_bFSAA_Enabled) ;

  0181e	8b 45 f4	 mov	 eax, DWORD PTR _this$[ebp]
  01821	8b 88 a0 a9 02
	00		 mov	 ecx, DWORD PTR [eax+174496]
  01827	51		 push	 ecx
  01828	8b 55 f4	 mov	 edx, DWORD PTR _this$[ebp]
  0182b	8b 82 9c a9 02
	00		 mov	 eax, DWORD PTR [edx+174492]
  01831	50		 push	 eax
  01832	68 00 00 00 00	 push	 OFFSET FLAT:??_C@_0CE@CNLCJMNO@?$FLFSAASupport?3?5?$CFd?$FN?5?$FLFSAAEnabled?3?5@
  01837	8d 8d d0 fe ff
	ff		 lea	 ecx, DWORD PTR _sz$93945[ebp]
  0183d	51		 push	 ecx
  0183e	e8 00 00 00 00	 call	 _sprintf
  01843	83 c4 10	 add	 esp, 16			; 00000010H

; 1210 : 				m_pStatsFont->DrawText(2, y, D3DCOLOR_ARGB(255,255,255,255), sz) ; y += d ;

  01846	6a 00		 push	 0
  01848	8d 85 d0 fe ff
	ff		 lea	 eax, DWORD PTR _sz$93945[ebp]
  0184e	50		 push	 eax
  0184f	6a ff		 push	 -1
  01851	8b 4d e8	 mov	 ecx, DWORD PTR _y$93943[ebp]
  01854	51		 push	 ecx
  01855	68 00 00 00 40	 push	 1073741824		; 40000000H
  0185a	8b 55 f4	 mov	 edx, DWORD PTR _this$[ebp]
  0185d	8b 8a f0 a8 02
	00		 mov	 ecx, DWORD PTR [edx+174320]
  01863	e8 00 00 00 00	 call	 ?DrawTextA@CD3DFont@@QAEJMMKPADK@Z ; CD3DFont::DrawTextA
  01868	d9 45 e8	 fld	 DWORD PTR _y$93943[ebp]
  0186b	d8 45 dc	 fadd	 DWORD PTR _d$93944[ebp]
  0186e	d9 5d e8	 fstp	 DWORD PTR _y$93943[ebp]
$L94060:

; 1211 : 			}
; 1212 : 		
; 1213 : 			//sprintf(sz, "%d/%d segs visible", m_pTestRace->m_pTrack->m_nVisibleSegs, m_pTestRace->m_pTrack->m_nSegs) ;
; 1214 : 			//m_pStatsFont->DrawText(2, y, D3DCOLOR_ARGB(255,0,255,0), sz) ; y += d ;
; 1215 : 			//if (m_pTestRace->m_pTerrain)
; 1216 : 			//{
; 1217 : 			//	sprintf(sz, "%d^2 patches @ max res. %d^2",
; 1218 : 			//		PATCHES_SQ,
; 1219 : 			//		PATCH_MAX_LOD_SQ) ;
; 1220 : 			//	m_pStatsFont->DrawText(2, y, D3DCOLOR_ARGB(255,0,255,0), sz) ; y += d ;
; 1221 : 			//	sprintf(sz, "%d patches visible [heightmap res.: %lu ^2]",
; 1222 : 			//		m_pTestRace->m_pTerrain->m_nVisiblePatches,
; 1223 : 			//		m_pTestRace->m_pTerrain->m_ulHeightmapSQ) ;
; 1224 : 			//	m_pStatsFont->DrawText(2, y, D3DCOLOR_ARGB(255,0,255,0), sz) ; y += d ;
; 1225 : 			//}
; 1226 : 
; 1227 : 			//if (m_fFPS <= MIN_PHYSICS_FPS)
; 1228 : 			//	m_pStatsFont->DrawText(0, 0, D3DCOLOR_ARGB(255,255,0,0), "m_fFPS <= MIN_PHYSICS_FPS") ;
; 1229 : 
; 1230 : 			
; 1231 : 			// DBG
; 1232 : 			/*m_pTitleFont->SetRenderStateDM() ;
; 1233 : 			m_pTitleFont->DrawTextScaledDM( -1, 0 - (0.25f), 0, 0.2f, 0.25f, D3DCOLOR_ARGB(128,255,0,0), "GAME OVER!", D3DFONT_FILTERED, &m_vpViewport );
; 1234 : 			m_pTitleFont->ResetRenderStateDM() ;*/
; 1235 : 			
; 1236 : 		// sound manager info
; 1237 : 			if( m_pSound )

  01871	8b 45 f4	 mov	 eax, DWORD PTR _this$[ebp]
  01874	83 b8 00 a9 02
	00 00		 cmp	 DWORD PTR [eax+174336], 0
  0187b	74 1c		 je	 SHORT $L94091

; 1238 : 			{
; 1239 : 				m_pSound->Render( this, m_fFPS );

  0187d	8b 45 f4	 mov	 eax, DWORD PTR _this$[ebp]
  01880	8b 88 cc a5 02
	00		 mov	 ecx, DWORD PTR [eax+173516]
  01886	51		 push	 ecx
  01887	8b 55 f4	 mov	 edx, DWORD PTR _this$[ebp]
  0188a	52		 push	 edx
  0188b	8b 45 f4	 mov	 eax, DWORD PTR _this$[ebp]
  0188e	8b 88 00 a9 02
	00		 mov	 ecx, DWORD PTR [eax+174336]
  01894	e8 00 00 00 00	 call	 ?Render@CSoundManager@@QAEJPAVCx7@@M@Z ; CSoundManager::Render
$L94091:

; 1240 : 			}
; 1241 : 
; 1242 : 			m_pd3dDevice->EndScene() ;

  01899	8b 45 f4	 mov	 eax, DWORD PTR _this$[ebp]
  0189c	8b 88 a8 a4 02
	00		 mov	 ecx, DWORD PTR [eax+173224]
  018a2	8b 55 f4	 mov	 edx, DWORD PTR _this$[ebp]
  018a5	8b 82 a8 a4 02
	00		 mov	 eax, DWORD PTR [edx+173224]
  018ab	8b 09		 mov	 ecx, DWORD PTR [ecx]
  018ad	8b f4		 mov	 esi, esp
  018af	50		 push	 eax
  018b0	ff 91 8c 00 00
	00		 call	 DWORD PTR [ecx+140]
  018b6	3b f4		 cmp	 esi, esp
  018b8	e8 00 00 00 00	 call	 __RTC_CheckEsp
$L93942:

; 1243 : 		}
; 1244 : 
; 1245 : 	//
; 1246 : 	// Get a debug screenshot:
; 1247 : 	//
; 1248 : 		static float fTimeSinceLastScreengrab = 0 ;
; 1249 : 		fTimeSinceLastScreengrab += ( 1 / m_fFPS );

  018bd	8b 45 f4	 mov	 eax, DWORD PTR _this$[ebp]
  018c0	d9 05 00 00 00
	00		 fld	 DWORD PTR __real@3f800000
  018c6	d8 b0 cc a5 02
	00		 fdiv	 DWORD PTR [eax+173516]
  018cc	d8 05 00 00 00
	00		 fadd	 DWORD PTR ?fTimeSinceLastScreengrab@?FE@??Render@Cx7@@UAEJXZ@4MA
  018d2	d9 1d 00 00 00
	00		 fstp	 DWORD PTR ?fTimeSinceLastScreengrab@?FE@??Render@Cx7@@UAEJXZ@4MA

; 1250 : 		if( ( fTimeSinceLastScreengrab > 30 &&
; 1251 : 			  m_pCmdLine->GetInt( "AutoGrab", 0 ) &&
; 1252 : 			  m_bInGame ) ||
; 1253 : 			 m_pUserInput->m_bKB_Pressed[ DIK_F11 ] )

  018d8	d9 05 00 00 00
	00		 fld	 DWORD PTR ?fTimeSinceLastScreengrab@?FE@??Render@Cx7@@UAEJXZ@4MA
  018de	d8 1d 00 00 00
	00		 fcomp	 DWORD PTR __real@41f00000
  018e4	df e0		 fnstsw	 ax
  018e6	f6 c4 41	 test	 ah, 65			; 00000041H
  018e9	75 27		 jne	 SHORT $L94096
  018eb	6a 00		 push	 0
  018ed	68 00 00 00 00	 push	 OFFSET FLAT:??_C@_08OABBGOCK@AutoGrab?$AA@
  018f2	8b 45 f4	 mov	 eax, DWORD PTR _this$[ebp]
  018f5	8b 88 d4 a8 02
	00		 mov	 ecx, DWORD PTR [eax+174292]
  018fb	e8 00 00 00 00	 call	 ?GetInt@CCmdLineParser@@QAEHPADH@Z ; CCmdLineParser::GetInt
  01900	85 c0		 test	 eax, eax
  01902	74 0e		 je	 SHORT $L94096
  01904	8b 45 f4	 mov	 eax, DWORD PTR _this$[ebp]
  01907	0f b6 88 db a7
	02 00		 movzx	 ecx, BYTE PTR [eax+174043]
  0190e	85 c9		 test	 ecx, ecx
  01910	75 12		 jne	 SHORT $L94095
$L94096:
  01912	8b 45 f4	 mov	 eax, DWORD PTR _this$[ebp]
  01915	8b 88 fc a8 02
	00		 mov	 ecx, DWORD PTR [eax+174332]
  0191b	83 b9 64 03 00
	00 00		 cmp	 DWORD PTR [ecx+868], 0
  01922	74 12		 je	 SHORT $L94094
$L94095:

; 1254 : 		{
; 1255 : 			fTimeSinceLastScreengrab = 0 ;

  01924	c7 05 00 00 00
	00 00 00 00 00	 mov	 DWORD PTR ?fTimeSinceLastScreengrab@?FE@??Render@Cx7@@UAEJXZ@4MA, 0

; 1256 : 			Screengrab() ;

  0192e	8b 4d f4	 mov	 ecx, DWORD PTR _this$[ebp]
  01931	e8 00 00 00 00	 call	 ?Screengrab@Cx7@@QAEJXZ	; Cx7::Screengrab
$L94094:

; 1257 : 		}
; 1258 : 
; 1259 : 		return S_OK ;

  01936	33 c0		 xor	 eax, eax
$L93938:

; 1260 : 	}

  01938	52		 push	 edx
  01939	8b cd		 mov	 ecx, ebp
  0193b	50		 push	 eax
  0193c	8d 15 00 00 00
	00		 lea	 edx, DWORD PTR $L94702
  01942	e8 00 00 00 00	 call	 @_RTC_CheckStackVars@8
  01947	58		 pop	 eax
  01948	5a		 pop	 edx
  01949	8b 4d fc	 mov	 ecx, DWORD PTR __$ArrayPad$[ebp]
  0194c	33 4d 04	 xor	 ecx, DWORD PTR __$ReturnAddr$[ebp]
  0194f	e8 00 00 00 00	 call	 @__security_check_cookie@4
  01954	5f		 pop	 edi
  01955	5e		 pop	 esi
  01956	5b		 pop	 ebx
  01957	81 c4 c4 07 00
	00		 add	 esp, 1988		; 000007c4H
  0195d	3b ec		 cmp	 ebp, esp
  0195f	e8 00 00 00 00	 call	 __RTC_CheckEsp
  01964	8b e5		 mov	 esp, ebp
  01966	5d		 pop	 ebp
  01967	c3		 ret	 0
$L94702:
  01968	07 00 00 00	 DD	 7
  0196c	00 00 00 00	 DD	 $L94701
$L94701:
  01970	d0 fe ff ff	 DD	 -304			; fffffed0H
  01974	00 01 00 00	 DD	 256			; 00000100H
  01978	00 00 00 00	 DD	 $L94693
  0197c	b0 fd ff ff	 DD	 -592			; fffffdb0H
  01980	00 01 00 00	 DD	 256			; 00000100H
  01984	00 00 00 00	 DD	 $L94694
  01988	58 fd ff ff	 DD	 -680			; fffffd58H
  0198c	50 00 00 00	 DD	 80			; 00000050H
  01990	00 00 00 00	 DD	 $L94695
  01994	28 fc ff ff	 DD	 -984			; fffffc28H
  01998	00 01 00 00	 DD	 256			; 00000100H
  0199c	00 00 00 00	 DD	 $L94696
  019a0	20 fb ff ff	 DD	 -1248			; fffffb20H
  019a4	00 01 00 00	 DD	 256			; 00000100H
  019a8	00 00 00 00	 DD	 $L94697
  019ac	18 fa ff ff	 DD	 -1512			; fffffa18H
  019b0	00 01 00 00	 DD	 256			; 00000100H
  019b4	00 00 00 00	 DD	 $L94698
  019b8	10 f9 ff ff	 DD	 -1776			; fffff910H
  019bc	00 01 00 00	 DD	 256			; 00000100H
  019c0	00 00 00 00	 DD	 $L94699
$L94699:
  019c4	73		 DB	 115			; 00000073H
  019c5	7a		 DB	 122			; 0000007aH
  019c6	44		 DB	 68			; 00000044H
  019c7	65		 DB	 101			; 00000065H
  019c8	70		 DB	 112			; 00000070H
  019c9	74		 DB	 116			; 00000074H
  019ca	68		 DB	 104			; 00000068H
  019cb	42		 DB	 66			; 00000042H
  019cc	46		 DB	 70			; 00000046H
  019cd	6f		 DB	 111			; 0000006fH
  019ce	72		 DB	 114			; 00000072H
  019cf	6d		 DB	 109			; 0000006dH
  019d0	61		 DB	 97			; 00000061H
  019d1	74		 DB	 116			; 00000074H
  019d2	00		 DB	 0
$L94698:
  019d3	73		 DB	 115			; 00000073H
  019d4	7a		 DB	 122			; 0000007aH
  019d5	42		 DB	 66			; 00000042H
  019d6	42		 DB	 66			; 00000042H
  019d7	46		 DB	 70			; 00000046H
  019d8	6f		 DB	 111			; 0000006fH
  019d9	72		 DB	 114			; 00000072H
  019da	6d		 DB	 109			; 0000006dH
  019db	61		 DB	 97			; 00000061H
  019dc	74		 DB	 116			; 00000074H
  019dd	00		 DB	 0
$L94697:
  019de	73		 DB	 115			; 00000073H
  019df	7a		 DB	 122			; 0000007aH
  019e0	44		 DB	 68			; 00000044H
  019e1	42		 DB	 66			; 00000042H
  019e2	00		 DB	 0
$L94696:
  019e3	73		 DB	 115			; 00000073H
  019e4	7a		 DB	 122			; 0000007aH
  019e5	53		 DB	 83			; 00000053H
  019e6	42		 DB	 66			; 00000042H
  019e7	00		 DB	 0
$L94695:
  019e8	73		 DB	 115			; 00000073H
  019e9	7a		 DB	 122			; 0000007aH
  019ea	54		 DB	 84			; 00000054H
  019eb	69		 DB	 105			; 00000069H
  019ec	6d		 DB	 109			; 0000006dH
  019ed	65		 DB	 101			; 00000065H
  019ee	00		 DB	 0
$L94694:
  019ef	73		 DB	 115			; 00000073H
  019f0	7a		 DB	 122			; 0000007aH
  019f1	4d		 DB	 77			; 0000004dH
  019f2	69		 DB	 105			; 00000069H
  019f3	6c		 DB	 108			; 0000006cH
  019f4	6c		 DB	 108			; 0000006cH
  019f5	69		 DB	 105			; 00000069H
  019f6	73		 DB	 115			; 00000073H
  019f7	00		 DB	 0
$L94693:
  019f8	73		 DB	 115			; 00000073H
  019f9	7a		 DB	 122			; 0000007aH
  019fa	00		 DB	 0
?Render@Cx7@@UAEJXZ ENDP				; Cx7::Render
_TEXT	ENDS
EXTRN	_floor:NEAR
; Function compile flags: /Odt /RTCsu /ZI
; File c:\program files\microsoft visual studio .net\vc7\include\math.h
;	COMDAT _floorf
_TEXT	SEGMENT
tv70 = -196
__X$ = 8
_floorf	PROC NEAR					; COMDAT

; 452  :         {return ((float)floor((double)_X)); }

  00000	55		 push	 ebp
  00001	8b ec		 mov	 ebp, esp
  00003	81 ec c4 00 00
	00		 sub	 esp, 196		; 000000c4H
  00009	53		 push	 ebx
  0000a	56		 push	 esi
  0000b	57		 push	 edi
  0000c	8d bd 3c ff ff
	ff		 lea	 edi, DWORD PTR [ebp-196]
  00012	b9 31 00 00 00	 mov	 ecx, 49			; 00000031H
  00017	b8 cc cc cc cc	 mov	 eax, -858993460		; ccccccccH
  0001c	f3 ab		 rep stosd
  0001e	d9 45 08	 fld	 DWORD PTR __X$[ebp]
  00021	83 ec 08	 sub	 esp, 8
  00024	dd 1c 24	 fstp	 QWORD PTR [esp]
  00027	e8 00 00 00 00	 call	 _floor
  0002c	83 c4 08	 add	 esp, 8
  0002f	d9 95 3c ff ff
	ff		 fst	 DWORD PTR tv70[ebp]
  00035	5f		 pop	 edi
  00036	5e		 pop	 esi
  00037	5b		 pop	 ebx
  00038	81 c4 c4 00 00
	00		 add	 esp, 196		; 000000c4H
  0003e	3b ec		 cmp	 ebp, esp
  00040	e8 00 00 00 00	 call	 __RTC_CheckEsp
  00045	8b e5		 mov	 esp, ebp
  00047	5d		 pop	 ebp
  00048	c3		 ret	 0
_floorf	ENDP
_TEXT	ENDS
EXTRN	_fmod:NEAR
; Function compile flags: /Odt /RTCsu /ZI
;	COMDAT _fmodf
_TEXT	SEGMENT
tv73 = -196
__X$ = 8
__Y$ = 12
_fmodf	PROC NEAR					; COMDAT

; 454  :         {return ((float)fmod((double)_X, (double)_Y)); }

  00000	55		 push	 ebp
  00001	8b ec		 mov	 ebp, esp
  00003	81 ec c4 00 00
	00		 sub	 esp, 196		; 000000c4H
  00009	53		 push	 ebx
  0000a	56		 push	 esi
  0000b	57		 push	 edi
  0000c	8d bd 3c ff ff
	ff		 lea	 edi, DWORD PTR [ebp-196]
  00012	b9 31 00 00 00	 mov	 ecx, 49			; 00000031H
  00017	b8 cc cc cc cc	 mov	 eax, -858993460		; ccccccccH
  0001c	f3 ab		 rep stosd
  0001e	d9 45 0c	 fld	 DWORD PTR __Y$[ebp]
  00021	83 ec 08	 sub	 esp, 8
  00024	dd 1c 24	 fstp	 QWORD PTR [esp]
  00027	d9 45 08	 fld	 DWORD PTR __X$[ebp]
  0002a	83 ec 08	 sub	 esp, 8
  0002d	dd 1c 24	 fstp	 QWORD PTR [esp]
  00030	e8 00 00 00 00	 call	 _fmod
  00035	83 c4 10	 add	 esp, 16			; 00000010H
  00038	d9 95 3c ff ff
	ff		 fst	 DWORD PTR tv73[ebp]
  0003e	5f		 pop	 edi
  0003f	5e		 pop	 esi
  00040	5b		 pop	 ebx
  00041	81 c4 c4 00 00
	00		 add	 esp, 196		; 000000c4H
  00047	3b ec		 cmp	 ebp, esp
  00049	e8 00 00 00 00	 call	 __RTC_CheckEsp
  0004e	8b e5		 mov	 esp, ebp
  00050	5d		 pop	 ebp
  00051	c3		 ret	 0
_fmodf	ENDP
_TEXT	ENDS
PUBLIC	??_C@_0BE@KILIOHON@InitDeviceObjects?$CI?$CJ?$AA@ ; `string'
EXTRN	?InitDeviceObjects@CD3DFont@@QAEJPAUIDirect3DDevice8@@@Z:NEAR ; CD3DFont::InitDeviceObjects
EXTRN	?Msg@@YAXPAD@Z:NEAR				; Msg
;	COMDAT ??_C@_0BE@KILIOHON@InitDeviceObjects?$CI?$CJ?$AA@
; File c:\documents and settings\dom\my documents\_dev\ae\xlr8a\x7g\x7.cpp
CONST	SEGMENT
??_C@_0BE@KILIOHON@InitDeviceObjects?$CI?$CJ?$AA@ DB 'InitDeviceObjects()'
	DB	00H						; `string'
; Function compile flags: /Odt /RTCsu /ZI
CONST	ENDS
;	COMDAT ?InitDeviceObjects@Cx7@@UAEJXZ
_TEXT	SEGMENT
_this$ = -8
?InitDeviceObjects@Cx7@@UAEJXZ PROC NEAR		; Cx7::InitDeviceObjects, COMDAT
; _this$ = ecx

; 1270 : 	{

  00000	55		 push	 ebp
  00001	8b ec		 mov	 ebp, esp
  00003	81 ec cc 00 00
	00		 sub	 esp, 204		; 000000ccH
  00009	53		 push	 ebx
  0000a	56		 push	 esi
  0000b	57		 push	 edi
  0000c	51		 push	 ecx
  0000d	8d bd 34 ff ff
	ff		 lea	 edi, DWORD PTR [ebp-204]
  00013	b9 33 00 00 00	 mov	 ecx, 51			; 00000033H
  00018	b8 cc cc cc cc	 mov	 eax, -858993460		; ccccccccH
  0001d	f3 ab		 rep stosd
  0001f	59		 pop	 ecx
  00020	89 4d f8	 mov	 DWORD PTR _this$[ebp], ecx

; 1271 : 		if (SHOW_FRAMEWORK_EVENTS)

  00023	33 c0		 xor	 eax, eax
  00025	85 c0		 test	 eax, eax
  00027	74 0d		 je	 SHORT $L94102

; 1272 : 			Msg("InitDeviceObjects()") ;

  00029	68 00 00 00 00	 push	 OFFSET FLAT:??_C@_0BE@KILIOHON@InitDeviceObjects?$CI?$CJ?$AA@
  0002e	e8 00 00 00 00	 call	 ?Msg@@YAXPAD@Z		; Msg
  00033	83 c4 04	 add	 esp, 4
$L94102:

; 1273 : 
; 1274 : 		m_pStatsFont->InitDeviceObjects(m_pd3dDevice) ;

  00036	8b 45 f8	 mov	 eax, DWORD PTR _this$[ebp]
  00039	8b 88 a8 a4 02
	00		 mov	 ecx, DWORD PTR [eax+173224]
  0003f	51		 push	 ecx
  00040	8b 55 f8	 mov	 edx, DWORD PTR _this$[ebp]
  00043	8b 8a f0 a8 02
	00		 mov	 ecx, DWORD PTR [edx+174320]
  00049	e8 00 00 00 00	 call	 ?InitDeviceObjects@CD3DFont@@QAEJPAUIDirect3DDevice8@@@Z ; CD3DFont::InitDeviceObjects

; 1275 : 		m_pTitleFont->InitDeviceObjects(m_pd3dDevice) ;

  0004e	8b 45 f8	 mov	 eax, DWORD PTR _this$[ebp]
  00051	8b 88 a8 a4 02
	00		 mov	 ecx, DWORD PTR [eax+173224]
  00057	51		 push	 ecx
  00058	8b 55 f8	 mov	 edx, DWORD PTR _this$[ebp]
  0005b	8b 8a f4 a8 02
	00		 mov	 ecx, DWORD PTR [edx+174324]
  00061	e8 00 00 00 00	 call	 ?InitDeviceObjects@CD3DFont@@QAEJPAUIDirect3DDevice8@@@Z ; CD3DFont::InitDeviceObjects

; 1276 : 		m_pSubtitleFont->InitDeviceObjects(m_pd3dDevice) ;

  00066	8b 45 f8	 mov	 eax, DWORD PTR _this$[ebp]
  00069	8b 88 a8 a4 02
	00		 mov	 ecx, DWORD PTR [eax+173224]
  0006f	51		 push	 ecx
  00070	8b 55 f8	 mov	 edx, DWORD PTR _this$[ebp]
  00073	8b 8a f8 a8 02
	00		 mov	 ecx, DWORD PTR [edx+174328]
  00079	e8 00 00 00 00	 call	 ?InitDeviceObjects@CD3DFont@@QAEJPAUIDirect3DDevice8@@@Z ; CD3DFont::InitDeviceObjects

; 1277 : 
; 1278 : 		return S_OK ;

  0007e	33 c0		 xor	 eax, eax

; 1279 : 	}

  00080	5f		 pop	 edi
  00081	5e		 pop	 esi
  00082	5b		 pop	 ebx
  00083	81 c4 cc 00 00
	00		 add	 esp, 204		; 000000ccH
  00089	3b ec		 cmp	 ebp, esp
  0008b	e8 00 00 00 00	 call	 __RTC_CheckEsp
  00090	8b e5		 mov	 esp, ebp
  00092	5d		 pop	 ebp
  00093	c3		 ret	 0
?InitDeviceObjects@Cx7@@UAEJXZ ENDP			; Cx7::InitDeviceObjects
_TEXT	ENDS
PUBLIC	??_C@_0BL@NJPADEBK@Cx7?3?3RestoreDeviceObjects?6?$AA@ ; `string'
PUBLIC	??_C@_0BH@LOGCKKMA@RestoreDeviceObjects?$CI?$CJ?$AA@ ; `string'
PUBLIC	?__LINE__Var@?1??RestoreDeviceObjects@Cx7@@UAEJXZ@4JA ; `Cx7::RestoreDeviceObjects'::`2'::__LINE__Var
EXTRN	?RestoreDeviceObjects@CMenuTextures@@QAEJPAUIDirect3D8@@PAUIDirect3DDevice8@@@Z:NEAR ; CMenuTextures::RestoreDeviceObjects
EXTRN	?RestoreDeviceObjects@CD3DFont@@QAEJXZ:NEAR	; CD3DFont::RestoreDeviceObjects
EXTRN	?EnterMenu@CMainMenu@@QAEHXZ:NEAR		; CMainMenu::EnterMenu
EXTRN	?RestoreDeviceObjects@CMainMenu@@QAEJPAUIDirect3DDevice8@@MPAVCScreenOverlayManager@@PAVCMenuTextures@@@Z:NEAR ; CMainMenu::RestoreDeviceObjects
EXTRN	?RestoreDeviceObjects@CInGameMenu@@QAEJPAUIDirect3DDevice8@@MPAVCScreenOverlayManager@@PAVCMenuTextures@@@Z:NEAR ; CInGameMenu::RestoreDeviceObjects
EXTRN	?RestoreDeviceObjects@CScreenOverlayManager@@QAEJPAUIDirect3DDevice8@@M@Z:NEAR ; CScreenOverlayManager::RestoreDeviceObjects
EXTRN	?ods@@YAXPADZZ:NEAR				; ods
;	COMDAT ??_C@_0BL@NJPADEBK@Cx7?3?3RestoreDeviceObjects?6?$AA@
CONST	SEGMENT
??_C@_0BL@NJPADEBK@Cx7?3?3RestoreDeviceObjects?6?$AA@ DB 'Cx7::RestoreDev'
	DB	'iceObjects', 0aH, 00H			; `string'
CONST	ENDS
;	COMDAT ??_C@_0BH@LOGCKKMA@RestoreDeviceObjects?$CI?$CJ?$AA@
CONST	SEGMENT
??_C@_0BH@LOGCKKMA@RestoreDeviceObjects?$CI?$CJ?$AA@ DB 'RestoreDeviceObj'
	DB	'ects()', 00H				; `string'
CONST	ENDS
;	COMDAT ?__LINE__Var@?1??RestoreDeviceObjects@Cx7@@UAEJXZ@4JA
_DATA	SEGMENT
?__LINE__Var@?1??RestoreDeviceObjects@Cx7@@UAEJXZ@4JA DD 0509H ; `Cx7::RestoreDeviceObjects'::`2'::__LINE__Var
; Function compile flags: /Odt /RTCsu /ZI
_DATA	ENDS
;	COMDAT ?RestoreDeviceObjects@Cx7@@UAEJXZ
_TEXT	SEGMENT
tv412 = -232
tv443 = -224
tv435 = -224
tv427 = -224
tv419 = -224
tv407 = -224
tv211 = -220
_hr$ = -20
_this$ = -8
?RestoreDeviceObjects@Cx7@@UAEJXZ PROC NEAR		; Cx7::RestoreDeviceObjects, COMDAT
; _this$ = ecx

; 1289 : 	{

  00000	55		 push	 ebp
  00001	8b ec		 mov	 ebp, esp
  00003	81 ec e8 00 00
	00		 sub	 esp, 232		; 000000e8H
  00009	53		 push	 ebx
  0000a	56		 push	 esi
  0000b	57		 push	 edi
  0000c	51		 push	 ecx
  0000d	8d bd 18 ff ff
	ff		 lea	 edi, DWORD PTR [ebp-232]
  00013	b9 3a 00 00 00	 mov	 ecx, 58			; 0000003aH
  00018	b8 cc cc cc cc	 mov	 eax, -858993460		; ccccccccH
  0001d	f3 ab		 rep stosd
  0001f	59		 pop	 ecx
  00020	89 4d f8	 mov	 DWORD PTR _this$[ebp], ecx

; 1290 : 		ods( "Cx7::RestoreDeviceObjects\n" );

  00023	68 00 00 00 00	 push	 OFFSET FLAT:??_C@_0BL@NJPADEBK@Cx7?3?3RestoreDeviceObjects?6?$AA@
  00028	e8 00 00 00 00	 call	 ?ods@@YAXPADZZ		; ods
  0002d	83 c4 04	 add	 esp, 4

; 1291 : 
; 1292 : 		HRESULT hr ;
; 1293 : 		m_fAspect = m_d3dsdBackBuffer.Width / (FLOAT)m_d3dsdBackBuffer.Height ;

  00030	8b 45 f8	 mov	 eax, DWORD PTR _this$[ebp]
  00033	8b 88 98 a5 02
	00		 mov	 ecx, DWORD PTR [eax+173464]
  00039	89 8d 20 ff ff
	ff		 mov	 DWORD PTR tv407[ebp], ecx
  0003f	c7 85 24 ff ff
	ff 00 00 00 00	 mov	 DWORD PTR tv407[ebp+4], 0
  00049	df ad 20 ff ff
	ff		 fild	 QWORD PTR tv407[ebp]
  0004f	8b 55 f8	 mov	 edx, DWORD PTR _this$[ebp]
  00052	8b 82 9c a5 02
	00		 mov	 eax, DWORD PTR [edx+173468]
  00058	89 85 18 ff ff
	ff		 mov	 DWORD PTR tv412[ebp], eax
  0005e	c7 85 1c ff ff
	ff 00 00 00 00	 mov	 DWORD PTR tv412[ebp+4], 0
  00068	df ad 18 ff ff
	ff		 fild	 QWORD PTR tv412[ebp]
  0006e	de f9		 fdivp	 ST(1), ST(0)
  00070	8b 4d f8	 mov	 ecx, DWORD PTR _this$[ebp]
  00073	d9 99 c0 a7 02
	00		 fstp	 DWORD PTR [ecx+174016]

; 1294 : 
; 1295 : 		if (SHOW_FRAMEWORK_EVENTS)

  00079	33 c0		 xor	 eax, eax
  0007b	85 c0		 test	 eax, eax
  0007d	74 0d		 je	 SHORT $L94111

; 1296 : 			Msg("RestoreDeviceObjects()") ;

  0007f	68 00 00 00 00	 push	 OFFSET FLAT:??_C@_0BH@LOGCKKMA@RestoreDeviceObjects?$CI?$CJ?$AA@
  00084	e8 00 00 00 00	 call	 ?Msg@@YAXPAD@Z		; Msg
  00089	83 c4 04	 add	 esp, 4
$L94111:

; 1297 : 
; 1298 : 	//
; 1299 : 	// Define the viewport:
; 1300 : 	//
; 1301 : 		m_vpViewport.Width  = (DWORD)(m_d3dsdBackBuffer.Width  * 1.0f) ;

  0008c	8b 45 f8	 mov	 eax, DWORD PTR _this$[ebp]
  0008f	8b 88 98 a5 02
	00		 mov	 ecx, DWORD PTR [eax+173464]
  00095	89 8d 20 ff ff
	ff		 mov	 DWORD PTR tv419[ebp], ecx
  0009b	c7 85 24 ff ff
	ff 00 00 00 00	 mov	 DWORD PTR tv419[ebp+4], 0
  000a5	df ad 20 ff ff
	ff		 fild	 QWORD PTR tv419[ebp]
  000ab	d8 0d 00 00 00
	00		 fmul	 DWORD PTR __real@3f800000
  000b1	e8 00 00 00 00	 call	 __ftol2
  000b6	8b 55 f8	 mov	 edx, DWORD PTR _this$[ebp]
  000b9	89 82 44 a9 02
	00		 mov	 DWORD PTR [edx+174404], eax

; 1302 : 		m_vpViewport.Height = (DWORD)(m_d3dsdBackBuffer.Height * 1.0f) ;

  000bf	8b 45 f8	 mov	 eax, DWORD PTR _this$[ebp]
  000c2	8b 88 9c a5 02
	00		 mov	 ecx, DWORD PTR [eax+173468]
  000c8	89 8d 20 ff ff
	ff		 mov	 DWORD PTR tv427[ebp], ecx
  000ce	c7 85 24 ff ff
	ff 00 00 00 00	 mov	 DWORD PTR tv427[ebp+4], 0
  000d8	df ad 20 ff ff
	ff		 fild	 QWORD PTR tv427[ebp]
  000de	d8 0d 00 00 00
	00		 fmul	 DWORD PTR __real@3f800000
  000e4	e8 00 00 00 00	 call	 __ftol2
  000e9	8b 55 f8	 mov	 edx, DWORD PTR _this$[ebp]
  000ec	89 82 48 a9 02
	00		 mov	 DWORD PTR [edx+174408], eax

; 1303 : 		m_vpViewport.X		= (DWORD)(m_d3dsdBackBuffer.Width  * 0.0f) ;

  000f2	8b 45 f8	 mov	 eax, DWORD PTR _this$[ebp]
  000f5	8b 88 98 a5 02
	00		 mov	 ecx, DWORD PTR [eax+173464]
  000fb	89 8d 20 ff ff
	ff		 mov	 DWORD PTR tv435[ebp], ecx
  00101	c7 85 24 ff ff
	ff 00 00 00 00	 mov	 DWORD PTR tv435[ebp+4], 0
  0010b	df ad 20 ff ff
	ff		 fild	 QWORD PTR tv435[ebp]
  00111	d8 0d 00 00 00
	00		 fmul	 DWORD PTR __real@00000000
  00117	e8 00 00 00 00	 call	 __ftol2
  0011c	8b 55 f8	 mov	 edx, DWORD PTR _this$[ebp]
  0011f	89 82 3c a9 02
	00		 mov	 DWORD PTR [edx+174396], eax

; 1304 : 		m_vpViewport.Y		= (DWORD)(m_d3dsdBackBuffer.Height * 0.0f) ;

  00125	8b 45 f8	 mov	 eax, DWORD PTR _this$[ebp]
  00128	8b 88 9c a5 02
	00		 mov	 ecx, DWORD PTR [eax+173468]
  0012e	89 8d 20 ff ff
	ff		 mov	 DWORD PTR tv443[ebp], ecx
  00134	c7 85 24 ff ff
	ff 00 00 00 00	 mov	 DWORD PTR tv443[ebp+4], 0
  0013e	df ad 20 ff ff
	ff		 fild	 QWORD PTR tv443[ebp]
  00144	d8 0d 00 00 00
	00		 fmul	 DWORD PTR __real@00000000
  0014a	e8 00 00 00 00	 call	 __ftol2
  0014f	8b 55 f8	 mov	 edx, DWORD PTR _this$[ebp]
  00152	89 82 40 a9 02
	00		 mov	 DWORD PTR [edx+174400], eax

; 1305 : 		m_vpViewport.MinZ	= 0 ;

  00158	8b 45 f8	 mov	 eax, DWORD PTR _this$[ebp]
  0015b	c7 80 4c a9 02
	00 00 00 00 00	 mov	 DWORD PTR [eax+174412], 0

; 1306 : 		m_vpViewport.MaxZ	= 1 ;

  00165	8b 45 f8	 mov	 eax, DWORD PTR _this$[ebp]
  00168	c7 80 50 a9 02
	00 00 00 80 3f	 mov	 DWORD PTR [eax+174416], 1065353216 ; 3f800000H

; 1307 : 		m_pd3dDevice->SetViewport(&m_vpViewport) ;

  00172	8b 45 f8	 mov	 eax, DWORD PTR _this$[ebp]
  00175	05 3c a9 02 00	 add	 eax, 174396		; 0002a93cH
  0017a	8b f4		 mov	 esi, esp
  0017c	50		 push	 eax
  0017d	8b 4d f8	 mov	 ecx, DWORD PTR _this$[ebp]
  00180	8b 91 a8 a4 02
	00		 mov	 edx, DWORD PTR [ecx+173224]
  00186	8b 45 f8	 mov	 eax, DWORD PTR _this$[ebp]
  00189	8b 88 a8 a4 02
	00		 mov	 ecx, DWORD PTR [eax+173224]
  0018f	8b 12		 mov	 edx, DWORD PTR [edx]
  00191	51		 push	 ecx
  00192	ff 92 a0 00 00
	00		 call	 DWORD PTR [edx+160]
  00198	3b f4		 cmp	 esi, esp
  0019a	e8 00 00 00 00	 call	 __RTC_CheckEsp

; 1308 : 
; 1309 : 	//
; 1310 : 	// (Re)create Device Objects (VBs & IBs for CRenderObject-based objects):
; 1311 : 	//
; 1312 : 		if (m_pStatsFont)

  0019f	8b 45 f8	 mov	 eax, DWORD PTR _this$[ebp]
  001a2	83 b8 f0 a8 02
	00 00		 cmp	 DWORD PTR [eax+174320], 0
  001a9	74 32		 je	 SHORT $L94117

; 1313 : 		{
; 1314 : 			hr = m_pStatsFont->RestoreDeviceObjects() ;

  001ab	8b 45 f8	 mov	 eax, DWORD PTR _this$[ebp]
  001ae	8b 88 f0 a8 02
	00		 mov	 ecx, DWORD PTR [eax+174320]
  001b4	e8 00 00 00 00	 call	 ?RestoreDeviceObjects@CD3DFont@@QAEJXZ ; CD3DFont::RestoreDeviceObjects
  001b9	89 45 ec	 mov	 DWORD PTR _hr$[ebp], eax

; 1315 : 			assert( hr==S_OK );

  001bc	83 7d ec 00	 cmp	 DWORD PTR _hr$[ebp], 0
  001c0	74 1b		 je	 SHORT $L94117
  001c2	a1 00 00 00 00	 mov	 eax, DWORD PTR ?__LINE__Var@?1??RestoreDeviceObjects@Cx7@@UAEJXZ@4JA
  001c7	83 c0 1a	 add	 eax, 26			; 0000001aH
  001ca	50		 push	 eax
  001cb	68 00 00 00 00	 push	 OFFSET FLAT:??_C@_0EE@BKJCFEJB@c?3?2documents?5and?5settings?2dom?2my@
  001d0	68 00 00 00 00	 push	 OFFSET FLAT:??_C@_08OFPOHIDN@hr?$DN?$DNS_OK?$AA@
  001d5	e8 00 00 00 00	 call	 __assert
  001da	83 c4 0c	 add	 esp, 12			; 0000000cH
$L94117:

; 1316 : 		}
; 1317 : 
; 1318 : 		if (m_pTitleFont)

  001dd	8b 45 f8	 mov	 eax, DWORD PTR _this$[ebp]
  001e0	83 b8 f4 a8 02
	00 00		 cmp	 DWORD PTR [eax+174324], 0
  001e7	74 32		 je	 SHORT $L94121

; 1319 : 		{
; 1320 : 			hr = m_pTitleFont->RestoreDeviceObjects() ;

  001e9	8b 45 f8	 mov	 eax, DWORD PTR _this$[ebp]
  001ec	8b 88 f4 a8 02
	00		 mov	 ecx, DWORD PTR [eax+174324]
  001f2	e8 00 00 00 00	 call	 ?RestoreDeviceObjects@CD3DFont@@QAEJXZ ; CD3DFont::RestoreDeviceObjects
  001f7	89 45 ec	 mov	 DWORD PTR _hr$[ebp], eax

; 1321 : 			assert( hr==S_OK );

  001fa	83 7d ec 00	 cmp	 DWORD PTR _hr$[ebp], 0
  001fe	74 1b		 je	 SHORT $L94121
  00200	a1 00 00 00 00	 mov	 eax, DWORD PTR ?__LINE__Var@?1??RestoreDeviceObjects@Cx7@@UAEJXZ@4JA
  00205	83 c0 20	 add	 eax, 32			; 00000020H
  00208	50		 push	 eax
  00209	68 00 00 00 00	 push	 OFFSET FLAT:??_C@_0EE@BKJCFEJB@c?3?2documents?5and?5settings?2dom?2my@
  0020e	68 00 00 00 00	 push	 OFFSET FLAT:??_C@_08OFPOHIDN@hr?$DN?$DNS_OK?$AA@
  00213	e8 00 00 00 00	 call	 __assert
  00218	83 c4 0c	 add	 esp, 12			; 0000000cH
$L94121:

; 1322 : 		}
; 1323 : 
; 1324 : 		if (m_pSubtitleFont)

  0021b	8b 45 f8	 mov	 eax, DWORD PTR _this$[ebp]
  0021e	83 b8 f8 a8 02
	00 00		 cmp	 DWORD PTR [eax+174328], 0
  00225	74 32		 je	 SHORT $L94124

; 1325 : 		{
; 1326 : 			hr = m_pSubtitleFont->RestoreDeviceObjects() ;

  00227	8b 45 f8	 mov	 eax, DWORD PTR _this$[ebp]
  0022a	8b 88 f8 a8 02
	00		 mov	 ecx, DWORD PTR [eax+174328]
  00230	e8 00 00 00 00	 call	 ?RestoreDeviceObjects@CD3DFont@@QAEJXZ ; CD3DFont::RestoreDeviceObjects
  00235	89 45 ec	 mov	 DWORD PTR _hr$[ebp], eax

; 1327 : 			assert( hr==S_OK );

  00238	83 7d ec 00	 cmp	 DWORD PTR _hr$[ebp], 0
  0023c	74 1b		 je	 SHORT $L94124
  0023e	a1 00 00 00 00	 mov	 eax, DWORD PTR ?__LINE__Var@?1??RestoreDeviceObjects@Cx7@@UAEJXZ@4JA
  00243	83 c0 26	 add	 eax, 38			; 00000026H
  00246	50		 push	 eax
  00247	68 00 00 00 00	 push	 OFFSET FLAT:??_C@_0EE@BKJCFEJB@c?3?2documents?5and?5settings?2dom?2my@
  0024c	68 00 00 00 00	 push	 OFFSET FLAT:??_C@_08OFPOHIDN@hr?$DN?$DNS_OK?$AA@
  00251	e8 00 00 00 00	 call	 __assert
  00256	83 c4 0c	 add	 esp, 12			; 0000000cH
$L94124:

; 1328 : 		}
; 1329 : 
; 1330 : 	//
; 1331 : 	// This seems to work better than a z-buffer:
; 1332 : 	//
; 1333 : 		if (m_d3dCaps.RasterCaps & D3DPRASTERCAPS_WBUFFER)

  00259	8b 45 f8	 mov	 eax, DWORD PTR _this$[ebp]
  0025c	8b 88 d0 a4 02
	00		 mov	 ecx, DWORD PTR [eax+173264]
  00262	81 e1 00 00 04
	00		 and	 ecx, 262144		; 00040000H
  00268	85 c9		 test	 ecx, ecx
  0026a	74 28		 je	 SHORT $L94127

; 1334 : 			m_pd3dDevice->SetRenderState(D3DRS_ZENABLE, D3DZB_USEW) ;

  0026c	8b f4		 mov	 esi, esp
  0026e	6a 02		 push	 2
  00270	6a 07		 push	 7
  00272	8b 45 f8	 mov	 eax, DWORD PTR _this$[ebp]
  00275	8b 88 a8 a4 02
	00		 mov	 ecx, DWORD PTR [eax+173224]
  0027b	8b 55 f8	 mov	 edx, DWORD PTR _this$[ebp]
  0027e	8b 82 a8 a4 02
	00		 mov	 eax, DWORD PTR [edx+173224]
  00284	8b 09		 mov	 ecx, DWORD PTR [ecx]
  00286	50		 push	 eax
  00287	ff 91 c8 00 00
	00		 call	 DWORD PTR [ecx+200]
  0028d	3b f4		 cmp	 esi, esp
  0028f	e8 00 00 00 00	 call	 __RTC_CheckEsp
$L94127:

; 1335 : 
; 1336 : 	//
; 1337 : 	// Determine device multisample support:
; 1338 : 	//
; 1339 : 		m_bFSAA_Supported = ( m_d3dpp.MultiSampleType != D3DMULTISAMPLE_NONE );

  00294	8b 45 f8	 mov	 eax, DWORD PTR _this$[ebp]
  00297	33 c9		 xor	 ecx, ecx
  00299	83 b8 74 a4 02
	00 00		 cmp	 DWORD PTR [eax+173172], 0
  002a0	0f 95 c1	 setne	 cl
  002a3	8b 55 f8	 mov	 edx, DWORD PTR _this$[ebp]
  002a6	89 8a 9c a9 02
	00		 mov	 DWORD PTR [edx+174492], ecx

; 1340 : 		m_bFSAA_Enabled = m_bFSAA_Supported && m_nFSAA != 0 ; 

  002ac	8b 45 f8	 mov	 eax, DWORD PTR _this$[ebp]
  002af	83 b8 9c a9 02
	00 00		 cmp	 DWORD PTR [eax+174492], 0
  002b6	74 18		 je	 SHORT $L94714
  002b8	8b 4d f8	 mov	 ecx, DWORD PTR _this$[ebp]
  002bb	83 b9 a8 a6 02
	00 00		 cmp	 DWORD PTR [ecx+173736], 0
  002c2	74 0c		 je	 SHORT $L94714
  002c4	c7 85 24 ff ff
	ff 01 00 00 00	 mov	 DWORD PTR tv211[ebp], 1
  002ce	eb 0a		 jmp	 SHORT $L94715
$L94714:
  002d0	c7 85 24 ff ff
	ff 00 00 00 00	 mov	 DWORD PTR tv211[ebp], 0
$L94715:
  002da	8b 55 f8	 mov	 edx, DWORD PTR _this$[ebp]
  002dd	8b 85 24 ff ff
	ff		 mov	 eax, DWORD PTR tv211[ebp]
  002e3	89 82 a0 a9 02
	00		 mov	 DWORD PTR [edx+174496], eax

; 1341 : 		EnableMenuItem(m_hMenu, ID_VIEW_FSAA, m_bFSAA_Supported ? MF_ENABLED : MF_GRAYED) ;

  002e9	8b 45 f8	 mov	 eax, DWORD PTR _this$[ebp]
  002ec	33 c9		 xor	 ecx, ecx
  002ee	83 b8 9c a9 02
	00 00		 cmp	 DWORD PTR [eax+174492], 0
  002f5	0f 94 c1	 sete	 cl
  002f8	8b f4		 mov	 esi, esp
  002fa	51		 push	 ecx
  002fb	68 55 9c 00 00	 push	 40021			; 00009c55H
  00300	8b 55 f8	 mov	 edx, DWORD PTR _this$[ebp]
  00303	8b 82 a8 a9 02
	00		 mov	 eax, DWORD PTR [edx+174504]
  00309	50		 push	 eax
  0030a	ff 15 00 00 00
	00		 call	 DWORD PTR __imp__EnableMenuItem@12
  00310	3b f4		 cmp	 esi, esp
  00312	e8 00 00 00 00	 call	 __RTC_CheckEsp

; 1342 : 		CheckMenuItem(m_hMenu,  ID_VIEW_FSAA, m_bFSAA_Enabled ? MF_CHECKED : MF_UNCHECKED) ;

  00317	8b 45 f8	 mov	 eax, DWORD PTR _this$[ebp]
  0031a	8b 88 a0 a9 02
	00		 mov	 ecx, DWORD PTR [eax+174496]
  00320	f7 d9		 neg	 ecx
  00322	1b c9		 sbb	 ecx, ecx
  00324	83 e1 08	 and	 ecx, 8
  00327	8b f4		 mov	 esi, esp
  00329	51		 push	 ecx
  0032a	68 55 9c 00 00	 push	 40021			; 00009c55H
  0032f	8b 55 f8	 mov	 edx, DWORD PTR _this$[ebp]
  00332	8b 82 a8 a9 02
	00		 mov	 eax, DWORD PTR [edx+174504]
  00338	50		 push	 eax
  00339	ff 15 00 00 00
	00		 call	 DWORD PTR __imp__CheckMenuItem@12
  0033f	3b f4		 cmp	 esi, esp
  00341	e8 00 00 00 00	 call	 __RTC_CheckEsp

; 1343 : 
; 1344 : 	//
; 1345 : 	// Enable linear texture filtering:
; 1346 : 	//
; 1347 : 		if (m_d3dCaps.TextureFilterCaps & D3DPTFILTERCAPS_MAGFLINEAR)

  00346	8b 45 f8	 mov	 eax, DWORD PTR _this$[ebp]
  00349	8b 88 ec a4 02
	00		 mov	 ecx, DWORD PTR [eax+173292]
  0034f	81 e1 00 00 00
	02		 and	 ecx, 33554432		; 02000000H
  00355	85 c9		 test	 ecx, ecx
  00357	74 54		 je	 SHORT $L94128

; 1348 : 		{
; 1349 : 			m_pd3dDevice->SetTextureStageState(0, D3DTSS_MAGFILTER, D3DTEXF_LINEAR) ;

  00359	8b f4		 mov	 esi, esp
  0035b	6a 02		 push	 2
  0035d	6a 10		 push	 16			; 00000010H
  0035f	6a 00		 push	 0
  00361	8b 45 f8	 mov	 eax, DWORD PTR _this$[ebp]
  00364	8b 88 a8 a4 02
	00		 mov	 ecx, DWORD PTR [eax+173224]
  0036a	8b 55 f8	 mov	 edx, DWORD PTR _this$[ebp]
  0036d	8b 82 a8 a4 02
	00		 mov	 eax, DWORD PTR [edx+173224]
  00373	8b 09		 mov	 ecx, DWORD PTR [ecx]
  00375	50		 push	 eax
  00376	ff 91 fc 00 00
	00		 call	 DWORD PTR [ecx+252]
  0037c	3b f4		 cmp	 esi, esp
  0037e	e8 00 00 00 00	 call	 __RTC_CheckEsp

; 1350 : 			m_pd3dDevice->SetTextureStageState(1, D3DTSS_MAGFILTER, D3DTEXF_LINEAR) ;

  00383	8b f4		 mov	 esi, esp
  00385	6a 02		 push	 2
  00387	6a 10		 push	 16			; 00000010H
  00389	6a 01		 push	 1
  0038b	8b 45 f8	 mov	 eax, DWORD PTR _this$[ebp]
  0038e	8b 88 a8 a4 02
	00		 mov	 ecx, DWORD PTR [eax+173224]
  00394	8b 55 f8	 mov	 edx, DWORD PTR _this$[ebp]
  00397	8b 82 a8 a4 02
	00		 mov	 eax, DWORD PTR [edx+173224]
  0039d	8b 09		 mov	 ecx, DWORD PTR [ecx]
  0039f	50		 push	 eax
  003a0	ff 91 fc 00 00
	00		 call	 DWORD PTR [ecx+252]
  003a6	3b f4		 cmp	 esi, esp
  003a8	e8 00 00 00 00	 call	 __RTC_CheckEsp
$L94128:

; 1351 : 		}
; 1352 : 		if (m_d3dCaps.TextureFilterCaps & D3DPTFILTERCAPS_MINFLINEAR)

  003ad	8b 45 f8	 mov	 eax, DWORD PTR _this$[ebp]
  003b0	8b 88 ec a4 02
	00		 mov	 ecx, DWORD PTR [eax+173292]
  003b6	81 e1 00 02 00
	00		 and	 ecx, 512		; 00000200H
  003bc	85 c9		 test	 ecx, ecx
  003be	74 54		 je	 SHORT $L94129

; 1353 : 		{
; 1354 : 			m_pd3dDevice->SetTextureStageState(0, D3DTSS_MINFILTER, D3DTEXF_LINEAR) ;

  003c0	8b f4		 mov	 esi, esp
  003c2	6a 02		 push	 2
  003c4	6a 11		 push	 17			; 00000011H
  003c6	6a 00		 push	 0
  003c8	8b 45 f8	 mov	 eax, DWORD PTR _this$[ebp]
  003cb	8b 88 a8 a4 02
	00		 mov	 ecx, DWORD PTR [eax+173224]
  003d1	8b 55 f8	 mov	 edx, DWORD PTR _this$[ebp]
  003d4	8b 82 a8 a4 02
	00		 mov	 eax, DWORD PTR [edx+173224]
  003da	8b 09		 mov	 ecx, DWORD PTR [ecx]
  003dc	50		 push	 eax
  003dd	ff 91 fc 00 00
	00		 call	 DWORD PTR [ecx+252]
  003e3	3b f4		 cmp	 esi, esp
  003e5	e8 00 00 00 00	 call	 __RTC_CheckEsp

; 1355 : 			m_pd3dDevice->SetTextureStageState(1, D3DTSS_MINFILTER, D3DTEXF_LINEAR) ;

  003ea	8b f4		 mov	 esi, esp
  003ec	6a 02		 push	 2
  003ee	6a 11		 push	 17			; 00000011H
  003f0	6a 01		 push	 1
  003f2	8b 45 f8	 mov	 eax, DWORD PTR _this$[ebp]
  003f5	8b 88 a8 a4 02
	00		 mov	 ecx, DWORD PTR [eax+173224]
  003fb	8b 55 f8	 mov	 edx, DWORD PTR _this$[ebp]
  003fe	8b 82 a8 a4 02
	00		 mov	 eax, DWORD PTR [edx+173224]
  00404	8b 09		 mov	 ecx, DWORD PTR [ecx]
  00406	50		 push	 eax
  00407	ff 91 fc 00 00
	00		 call	 DWORD PTR [ecx+252]
  0040d	3b f4		 cmp	 esi, esp
  0040f	e8 00 00 00 00	 call	 __RTC_CheckEsp
$L94129:

; 1356 : 		}
; 1357 : 		if (m_d3dCaps.TextureFilterCaps & D3DPTFILTERCAPS_MIPFLINEAR)

  00414	8b 45 f8	 mov	 eax, DWORD PTR _this$[ebp]
  00417	8b 88 ec a4 02
	00		 mov	 ecx, DWORD PTR [eax+173292]
  0041d	81 e1 00 00 02
	00		 and	 ecx, 131072		; 00020000H
  00423	85 c9		 test	 ecx, ecx
  00425	74 54		 je	 SHORT $L94130

; 1358 : 		{
; 1359 : 			m_pd3dDevice->SetTextureStageState(0, D3DTSS_MIPFILTER, D3DTEXF_LINEAR) ;

  00427	8b f4		 mov	 esi, esp
  00429	6a 02		 push	 2
  0042b	6a 12		 push	 18			; 00000012H
  0042d	6a 00		 push	 0
  0042f	8b 45 f8	 mov	 eax, DWORD PTR _this$[ebp]
  00432	8b 88 a8 a4 02
	00		 mov	 ecx, DWORD PTR [eax+173224]
  00438	8b 55 f8	 mov	 edx, DWORD PTR _this$[ebp]
  0043b	8b 82 a8 a4 02
	00		 mov	 eax, DWORD PTR [edx+173224]
  00441	8b 09		 mov	 ecx, DWORD PTR [ecx]
  00443	50		 push	 eax
  00444	ff 91 fc 00 00
	00		 call	 DWORD PTR [ecx+252]
  0044a	3b f4		 cmp	 esi, esp
  0044c	e8 00 00 00 00	 call	 __RTC_CheckEsp

; 1360 : 			m_pd3dDevice->SetTextureStageState(1, D3DTSS_MIPFILTER, D3DTEXF_LINEAR) ;

  00451	8b f4		 mov	 esi, esp
  00453	6a 02		 push	 2
  00455	6a 12		 push	 18			; 00000012H
  00457	6a 01		 push	 1
  00459	8b 45 f8	 mov	 eax, DWORD PTR _this$[ebp]
  0045c	8b 88 a8 a4 02
	00		 mov	 ecx, DWORD PTR [eax+173224]
  00462	8b 55 f8	 mov	 edx, DWORD PTR _this$[ebp]
  00465	8b 82 a8 a4 02
	00		 mov	 eax, DWORD PTR [edx+173224]
  0046b	8b 09		 mov	 ecx, DWORD PTR [ecx]
  0046d	50		 push	 eax
  0046e	ff 91 fc 00 00
	00		 call	 DWORD PTR [ecx+252]
  00474	3b f4		 cmp	 esi, esp
  00476	e8 00 00 00 00	 call	 __RTC_CheckEsp
$L94130:

; 1361 : 		}
; 1362 : 
; 1363 : 	//
; 1364 : 	// Menu Textures
; 1365 : 	//
; 1366 : 		hr = m_pMenuTex->RestoreDeviceObjects(m_pD3D, m_pd3dDevice) ;

  0047b	8b 45 f8	 mov	 eax, DWORD PTR _this$[ebp]
  0047e	8b 88 a8 a4 02
	00		 mov	 ecx, DWORD PTR [eax+173224]
  00484	51		 push	 ecx
  00485	8b 55 f8	 mov	 edx, DWORD PTR _this$[ebp]
  00488	8b 82 a4 a4 02
	00		 mov	 eax, DWORD PTR [edx+173220]
  0048e	50		 push	 eax
  0048f	8b 4d f8	 mov	 ecx, DWORD PTR _this$[ebp]
  00492	8b 89 dc a8 02
	00		 mov	 ecx, DWORD PTR [ecx+174300]
  00498	e8 00 00 00 00	 call	 ?RestoreDeviceObjects@CMenuTextures@@QAEJPAUIDirect3D8@@PAUIDirect3DDevice8@@@Z ; CMenuTextures::RestoreDeviceObjects
  0049d	89 45 ec	 mov	 DWORD PTR _hr$[ebp], eax

; 1367 : 		assert( hr==S_OK );

  004a0	83 7d ec 00	 cmp	 DWORD PTR _hr$[ebp], 0
  004a4	74 1b		 je	 SHORT $L94716
  004a6	a1 00 00 00 00	 mov	 eax, DWORD PTR ?__LINE__Var@?1??RestoreDeviceObjects@Cx7@@UAEJXZ@4JA
  004ab	83 c0 4e	 add	 eax, 78			; 0000004eH
  004ae	50		 push	 eax
  004af	68 00 00 00 00	 push	 OFFSET FLAT:??_C@_0EE@BKJCFEJB@c?3?2documents?5and?5settings?2dom?2my@
  004b4	68 00 00 00 00	 push	 OFFSET FLAT:??_C@_08OFPOHIDN@hr?$DN?$DNS_OK?$AA@
  004b9	e8 00 00 00 00	 call	 __assert
  004be	83 c4 0c	 add	 esp, 12			; 0000000cH
$L94716:

; 1368 : 
; 1369 : 	//
; 1370 : 	// Main Menu
; 1371 : 	//
; 1372 : 		if (m_pMainMenu)

  004c1	8b 45 f8	 mov	 eax, DWORD PTR _this$[ebp]
  004c4	83 b8 e0 a8 02
	00 00		 cmp	 DWORD PTR [eax+174304], 0
  004cb	74 36		 je	 SHORT $L94133

; 1373 : 			m_pMainMenu->RestoreDeviceObjects( m_pd3dDevice, m_fAspect, m_pOverlayMan, m_pMenuTex );

  004cd	8b 45 f8	 mov	 eax, DWORD PTR _this$[ebp]
  004d0	8b 88 dc a8 02
	00		 mov	 ecx, DWORD PTR [eax+174300]
  004d6	51		 push	 ecx
  004d7	8b 55 f8	 mov	 edx, DWORD PTR _this$[ebp]
  004da	8b 82 d8 a8 02
	00		 mov	 eax, DWORD PTR [edx+174296]
  004e0	50		 push	 eax
  004e1	8b 4d f8	 mov	 ecx, DWORD PTR _this$[ebp]
  004e4	8b 91 c0 a7 02
	00		 mov	 edx, DWORD PTR [ecx+174016]
  004ea	52		 push	 edx
  004eb	8b 45 f8	 mov	 eax, DWORD PTR _this$[ebp]
  004ee	8b 88 a8 a4 02
	00		 mov	 ecx, DWORD PTR [eax+173224]
  004f4	51		 push	 ecx
  004f5	8b 55 f8	 mov	 edx, DWORD PTR _this$[ebp]
  004f8	8b 8a e0 a8 02
	00		 mov	 ecx, DWORD PTR [edx+174304]
  004fe	e8 00 00 00 00	 call	 ?RestoreDeviceObjects@CMainMenu@@QAEJPAUIDirect3DDevice8@@MPAVCScreenOverlayManager@@PAVCMenuTextures@@@Z ; CMainMenu::RestoreDeviceObjects
$L94133:

; 1374 : 
; 1375 : 		if (m_bInMainMenu)

  00503	8b 45 f8	 mov	 eax, DWORD PTR _this$[ebp]
  00506	0f b6 88 d8 a7
	02 00		 movzx	 ecx, BYTE PTR [eax+174040]
  0050d	85 c9		 test	 ecx, ecx
  0050f	74 0e		 je	 SHORT $L94134

; 1376 : 			m_pMainMenu->EnterMenu() ;

  00511	8b 45 f8	 mov	 eax, DWORD PTR _this$[ebp]
  00514	8b 88 e0 a8 02
	00		 mov	 ecx, DWORD PTR [eax+174304]
  0051a	e8 00 00 00 00	 call	 ?EnterMenu@CMainMenu@@QAEHXZ ; CMainMenu::EnterMenu
$L94134:

; 1377 : 
; 1378 : 	//
; 1379 : 	// InGame Menu
; 1380 : 	//
; 1381 : 		if (m_pInGameMenu)

  0051f	8b 45 f8	 mov	 eax, DWORD PTR _this$[ebp]
  00522	83 b8 e4 a8 02
	00 00		 cmp	 DWORD PTR [eax+174308], 0
  00529	74 36		 je	 SHORT $L94135

; 1382 : 			m_pInGameMenu->RestoreDeviceObjects( m_pd3dDevice, m_fAspect, m_pOverlayMan, m_pMenuTex );

  0052b	8b 45 f8	 mov	 eax, DWORD PTR _this$[ebp]
  0052e	8b 88 dc a8 02
	00		 mov	 ecx, DWORD PTR [eax+174300]
  00534	51		 push	 ecx
  00535	8b 55 f8	 mov	 edx, DWORD PTR _this$[ebp]
  00538	8b 82 d8 a8 02
	00		 mov	 eax, DWORD PTR [edx+174296]
  0053e	50		 push	 eax
  0053f	8b 4d f8	 mov	 ecx, DWORD PTR _this$[ebp]
  00542	8b 91 c0 a7 02
	00		 mov	 edx, DWORD PTR [ecx+174016]
  00548	52		 push	 edx
  00549	8b 45 f8	 mov	 eax, DWORD PTR _this$[ebp]
  0054c	8b 88 a8 a4 02
	00		 mov	 ecx, DWORD PTR [eax+173224]
  00552	51		 push	 ecx
  00553	8b 55 f8	 mov	 edx, DWORD PTR _this$[ebp]
  00556	8b 8a e4 a8 02
	00		 mov	 ecx, DWORD PTR [edx+174308]
  0055c	e8 00 00 00 00	 call	 ?RestoreDeviceObjects@CInGameMenu@@QAEJPAUIDirect3DDevice8@@MPAVCScreenOverlayManager@@PAVCMenuTextures@@@Z ; CInGameMenu::RestoreDeviceObjects
$L94135:

; 1383 : 
; 1384 : 	//
; 1385 : 	// Overlay Manager
; 1386 : 	//
; 1387 : 		if (m_pOverlayMan)

  00561	8b 45 f8	 mov	 eax, DWORD PTR _this$[ebp]
  00564	83 b8 d8 a8 02
	00 00		 cmp	 DWORD PTR [eax+174296], 0
  0056b	74 22		 je	 SHORT $L94136

; 1388 : 			m_pOverlayMan->RestoreDeviceObjects( m_pd3dDevice, m_fAspect );

  0056d	8b 45 f8	 mov	 eax, DWORD PTR _this$[ebp]
  00570	8b 88 c0 a7 02
	00		 mov	 ecx, DWORD PTR [eax+174016]
  00576	51		 push	 ecx
  00577	8b 55 f8	 mov	 edx, DWORD PTR _this$[ebp]
  0057a	8b 82 a8 a4 02
	00		 mov	 eax, DWORD PTR [edx+173224]
  00580	50		 push	 eax
  00581	8b 4d f8	 mov	 ecx, DWORD PTR _this$[ebp]
  00584	8b 89 d8 a8 02
	00		 mov	 ecx, DWORD PTR [ecx+174296]
  0058a	e8 00 00 00 00	 call	 ?RestoreDeviceObjects@CScreenOverlayManager@@QAEJPAUIDirect3DDevice8@@M@Z ; CScreenOverlayManager::RestoreDeviceObjects
$L94136:

; 1389 : 		//m_pOverlayMan->LockVB() ;
; 1390 : 
; 1391 : 		if( !m_bLoadingGame || m_bWaitingToStartGame )

  0058f	8b 45 f8	 mov	 eax, DWORD PTR _this$[ebp]
  00592	0f b6 88 d9 a7
	02 00		 movzx	 ecx, BYTE PTR [eax+174041]
  00599	85 c9		 test	 ecx, ecx
  0059b	74 12		 je	 SHORT $L94138
  0059d	8b 45 f8	 mov	 eax, DWORD PTR _this$[ebp]
  005a0	0f b6 88 da a7
	02 00		 movzx	 ecx, BYTE PTR [eax+174042]
  005a7	85 c9		 test	 ecx, ecx
  005a9	0f 84 c2 00 00
	00		 je	 $L94137
$L94138:

; 1392 : 		{
; 1393 : 			if (m_pTextures)

  005af	8b 45 f8	 mov	 eax, DWORD PTR _this$[ebp]
  005b2	83 b8 e8 a8 02
	00 00		 cmp	 DWORD PTR [eax+174312], 0
  005b9	74 46		 je	 SHORT $L94139

; 1394 : 			{
; 1395 : 				hr = m_pTextures->RestoreDeviceObjects(m_pD3D, m_pd3dDevice) ;

  005bb	8b 45 f8	 mov	 eax, DWORD PTR _this$[ebp]
  005be	8b 88 a8 a4 02
	00		 mov	 ecx, DWORD PTR [eax+173224]
  005c4	51		 push	 ecx
  005c5	8b 55 f8	 mov	 edx, DWORD PTR _this$[ebp]
  005c8	8b 82 a4 a4 02
	00		 mov	 eax, DWORD PTR [edx+173220]
  005ce	50		 push	 eax
  005cf	8b 4d f8	 mov	 ecx, DWORD PTR _this$[ebp]
  005d2	8b 89 e8 a8 02
	00		 mov	 ecx, DWORD PTR [ecx+174312]
  005d8	e8 00 00 00 00	 call	 ?RestoreDeviceObjects@CTextures@@QAEJPAUIDirect3D8@@PAUIDirect3DDevice8@@@Z ; CTextures::RestoreDeviceObjects
  005dd	89 45 ec	 mov	 DWORD PTR _hr$[ebp], eax

; 1396 : 				assert( hr==S_OK );

  005e0	83 7d ec 00	 cmp	 DWORD PTR _hr$[ebp], 0
  005e4	74 1b		 je	 SHORT $L94139
  005e6	a1 00 00 00 00	 mov	 eax, DWORD PTR ?__LINE__Var@?1??RestoreDeviceObjects@Cx7@@UAEJXZ@4JA
  005eb	83 c0 6b	 add	 eax, 107		; 0000006bH
  005ee	50		 push	 eax
  005ef	68 00 00 00 00	 push	 OFFSET FLAT:??_C@_0EE@BKJCFEJB@c?3?2documents?5and?5settings?2dom?2my@
  005f4	68 00 00 00 00	 push	 OFFSET FLAT:??_C@_08OFPOHIDN@hr?$DN?$DNS_OK?$AA@
  005f9	e8 00 00 00 00	 call	 __assert
  005fe	83 c4 0c	 add	 esp, 12			; 0000000cH
$L94139:

; 1397 : 			}
; 1398 : 
; 1399 : 			if (m_pTestRace)

  00601	8b 45 f8	 mov	 eax, DWORD PTR _this$[ebp]
  00604	83 b8 ec a8 02
	00 00		 cmp	 DWORD PTR [eax+174316], 0
  0060b	74 64		 je	 SHORT $L94137

; 1400 : 			{
; 1401 : 				hr = m_pTestRace->RestoreDeviceObjects(m_pD3D, m_pd3dDevice, m_fAspect, m_pOverlayMan, m_pTextures) ;

  0060d	8b 45 f8	 mov	 eax, DWORD PTR _this$[ebp]
  00610	8b 88 e8 a8 02
	00		 mov	 ecx, DWORD PTR [eax+174312]
  00616	51		 push	 ecx
  00617	8b 55 f8	 mov	 edx, DWORD PTR _this$[ebp]
  0061a	8b 82 d8 a8 02
	00		 mov	 eax, DWORD PTR [edx+174296]
  00620	50		 push	 eax
  00621	8b 4d f8	 mov	 ecx, DWORD PTR _this$[ebp]
  00624	8b 91 c0 a7 02
	00		 mov	 edx, DWORD PTR [ecx+174016]
  0062a	52		 push	 edx
  0062b	8b 45 f8	 mov	 eax, DWORD PTR _this$[ebp]
  0062e	8b 88 a8 a4 02
	00		 mov	 ecx, DWORD PTR [eax+173224]
  00634	51		 push	 ecx
  00635	8b 55 f8	 mov	 edx, DWORD PTR _this$[ebp]
  00638	8b 82 a4 a4 02
	00		 mov	 eax, DWORD PTR [edx+173220]
  0063e	50		 push	 eax
  0063f	8b 4d f8	 mov	 ecx, DWORD PTR _this$[ebp]
  00642	8b 89 ec a8 02
	00		 mov	 ecx, DWORD PTR [ecx+174316]
  00648	e8 00 00 00 00	 call	 ?RestoreDeviceObjects@CRace@@QAEJPAUIDirect3D8@@PAUIDirect3DDevice8@@MPAVCScreenOverlayManager@@PAVCTextures@@@Z ; CRace::RestoreDeviceObjects
  0064d	89 45 ec	 mov	 DWORD PTR _hr$[ebp], eax

; 1402 : 				assert( hr==S_OK );

  00650	83 7d ec 00	 cmp	 DWORD PTR _hr$[ebp], 0
  00654	74 1b		 je	 SHORT $L94137
  00656	a1 00 00 00 00	 mov	 eax, DWORD PTR ?__LINE__Var@?1??RestoreDeviceObjects@Cx7@@UAEJXZ@4JA
  0065b	83 c0 71	 add	 eax, 113		; 00000071H
  0065e	50		 push	 eax
  0065f	68 00 00 00 00	 push	 OFFSET FLAT:??_C@_0EE@BKJCFEJB@c?3?2documents?5and?5settings?2dom?2my@
  00664	68 00 00 00 00	 push	 OFFSET FLAT:??_C@_08OFPOHIDN@hr?$DN?$DNS_OK?$AA@
  00669	e8 00 00 00 00	 call	 __assert
  0066e	83 c4 0c	 add	 esp, 12			; 0000000cH
$L94137:

; 1403 : 			}
; 1404 : 		}
; 1405 : 
; 1406 : 		//m_pOverlayMan->UnlockVB() ;
; 1407 : 
; 1408 : 	//
; 1409 : 	// Setup the texture stages 1 and 2 for single-pass alpha-vertex blend multitexturing, and validate card support
; 1410 : 	//
; 1411 : 		/*m_pd3dDevice->SetTextureStageState(1, D3DTSS_TEXCOORDINDEX, 1) ;
; 1412 : 		SetTextureColorStage(m_pd3dDevice, 0, D3DTA_TEXTURE, D3DTOP_SELECTARG1,			D3DTA_CURRENT)
; 1413 : 		SetTextureColorStage(m_pd3dDevice, 1, D3DTA_TEXTURE, D3DTOP_BLENDDIFFUSEALPHA,	D3DTA_CURRENT)
; 1414 : 		SetTextureColorStage(m_pd3dDevice, 2, D3DTA_DIFFUSE, D3DTOP_MODULATE,			D3DTA_CURRENT)
; 1415 : 		SetTextureAlphaStage(m_pd3dDevice, 0, D3DTA_DIFFUSE, D3DTOP_SELECTARG1,			D3DTA_CURRENT)
; 1416 : 		HRESULT hr = m_pd3dDevice->ValidateDevice(&m_dwNumPassesForAlphaBlend2Tex) ;*/
; 1417 : 		//if (hr != D3D_OK)	// release notes say DD_OK returned on success for Win9x! :o
; 1418 : 		{					// undefined HR returned on GeForce2??
; 1419 : 			/*if (hr == D3DERR_CONFLICTINGTEXTUREFILTER)
; 1420 : 				Msg("WARN: CX7::RestoreDeviceObjects(): ValidateDevice != D3D_OK [D3DERR_CONFLICTINGTEXTUREFILTER]") ;
; 1421 : 			else if (hr == D3DERR_CONFLICTINGTEXTUREPALETTE)
; 1422 : 				Msg("WARN: CX7::RestoreDeviceObjects(): ValidateDevice != D3D_OK [D3DERR_CONFLICTINGTEXTUREPALETTE]") ;
; 1423 : 			else if (hr == D3DERR_TOOMANYOPERATIONS)
; 1424 : 				Msg("WARN: CX7::RestoreDeviceObjects(): ValidateDevice != D3D_OK [D3DERR_TOOMANYOPERATIONS]") ;
; 1425 : 			else if (hr == D3DERR_UNSUPPORTEDALPHAARG)
; 1426 : 				Msg("WARN: CX7::RestoreDeviceObjects(): ValidateDevice != D3D_OK [D3DERR_UNSUPPORTEDALPHAARG]") ;
; 1427 : 			else if (hr == D3DERR_UNSUPPORTEDALPHAOPERATION)
; 1428 : 				Msg("WARN: CX7::RestoreDeviceObjects(): ValidateDevice != D3D_OK [D3DERR_UNSUPPORTEDALPHAOPERATION]") ;
; 1429 : 			else if (hr == D3DERR_UNSUPPORTEDCOLORARG)
; 1430 : 				Msg("WARN: CX7::RestoreDeviceObjects(): ValidateDevice != D3D_OK [D3DERR_UNSUPPORTEDCOLORARG]") ;
; 1431 : 			else if (hr == D3DERR_UNSUPPORTEDCOLOROPERATION)
; 1432 : 				Msg("WARN: CX7::RestoreDeviceObjects(): ValidateDevice != D3D_OK [D3DERR_UNSUPPORTEDCOLOROPERATION]") ;
; 1433 : 			else if (hr == D3DERR_UNSUPPORTEDFACTORVALUE)
; 1434 : 				Msg("WARN: CX7::RestoreDeviceObjects(): ValidateDevice != D3D_OK [D3DERR_UNSUPPORTEDFACTORVALUE]") ;
; 1435 : 			else if (hr == D3DERR_UNSUPPORTEDTEXTUREFILTER)
; 1436 : 				Msg("WARN: CX7::RestoreDeviceObjects(): ValidateDevice != D3D_OK [D3DERR_UNSUPPORTEDTEXTUREFILTER]") ;
; 1437 : 			else if (hr == D3DERR_WRONGTEXTUREFORMAT)
; 1438 : 				Msg("WARN: CX7::RestoreDeviceObjects(): ValidateDevice != D3D_OK [D3DERR_WRONGTEXTUREFORMAT]") ;
; 1439 : 			else
; 1440 : 				Msg("WARN: CX7::RestoreDeviceObjects(): ValidateDevice != D3D_OK [UNDEFINED FAILURE]") ;*/
; 1441 : 		}
; 1442 : 
; 1443 : 		return S_OK ;

  00671	33 c0		 xor	 eax, eax

; 1444 : 	}

  00673	5f		 pop	 edi
  00674	5e		 pop	 esi
  00675	5b		 pop	 ebx
  00676	81 c4 e8 00 00
	00		 add	 esp, 232		; 000000e8H
  0067c	3b ec		 cmp	 ebp, esp
  0067e	e8 00 00 00 00	 call	 __RTC_CheckEsp
  00683	8b e5		 mov	 esp, ebp
  00685	5d		 pop	 ebp
  00686	c3		 ret	 0
?RestoreDeviceObjects@Cx7@@UAEJXZ ENDP			; Cx7::RestoreDeviceObjects
_TEXT	ENDS
PUBLIC	??_C@_0BK@GFEDDFNA@InvalidateDeviceObjects?$CI?$CJ?$AA@ ; `string'
EXTRN	?InvalidateDeviceObjects@CMenuTextures@@QAEJXZ:NEAR ; CMenuTextures::InvalidateDeviceObjects
EXTRN	?InvalidateDeviceObjects@CD3DFont@@QAEJXZ:NEAR	; CD3DFont::InvalidateDeviceObjects
EXTRN	?InvalidateDeviceObjects@CMainMenu@@QAEJXZ:NEAR	; CMainMenu::InvalidateDeviceObjects
EXTRN	?InvalidateDeviceObjects@CTextures@@QAEJXZ:NEAR	; CTextures::InvalidateDeviceObjects
EXTRN	?InvalidateDeviceObjects@CScreenOverlayManager@@QAEJXZ:NEAR ; CScreenOverlayManager::InvalidateDeviceObjects
EXTRN	?InvalidateDeviceObjects@CRace@@QAEJPAUIDirect3DDevice8@@@Z:NEAR ; CRace::InvalidateDeviceObjects
;	COMDAT ??_C@_0BK@GFEDDFNA@InvalidateDeviceObjects?$CI?$CJ?$AA@
CONST	SEGMENT
??_C@_0BK@GFEDDFNA@InvalidateDeviceObjects?$CI?$CJ?$AA@ DB 'InvalidateDev'
	DB	'iceObjects()', 00H				; `string'
; Function compile flags: /Odt /RTCsu /ZI
CONST	ENDS
;	COMDAT ?InvalidateDeviceObjects@Cx7@@UAEJXZ
_TEXT	SEGMENT
_this$ = -8
?InvalidateDeviceObjects@Cx7@@UAEJXZ PROC NEAR		; Cx7::InvalidateDeviceObjects, COMDAT
; _this$ = ecx

; 1454 : 	{

  00000	55		 push	 ebp
  00001	8b ec		 mov	 ebp, esp
  00003	81 ec cc 00 00
	00		 sub	 esp, 204		; 000000ccH
  00009	53		 push	 ebx
  0000a	56		 push	 esi
  0000b	57		 push	 edi
  0000c	51		 push	 ecx
  0000d	8d bd 34 ff ff
	ff		 lea	 edi, DWORD PTR [ebp-204]
  00013	b9 33 00 00 00	 mov	 ecx, 51			; 00000033H
  00018	b8 cc cc cc cc	 mov	 eax, -858993460		; ccccccccH
  0001d	f3 ab		 rep stosd
  0001f	59		 pop	 ecx
  00020	89 4d f8	 mov	 DWORD PTR _this$[ebp], ecx

; 1455 : 		if (SHOW_FRAMEWORK_EVENTS)

  00023	33 c0		 xor	 eax, eax
  00025	85 c0		 test	 eax, eax
  00027	74 0d		 je	 SHORT $L94149

; 1456 : 			Msg("InvalidateDeviceObjects()") ;

  00029	68 00 00 00 00	 push	 OFFSET FLAT:??_C@_0BK@GFEDDFNA@InvalidateDeviceObjects?$CI?$CJ?$AA@
  0002e	e8 00 00 00 00	 call	 ?Msg@@YAXPAD@Z		; Msg
  00033	83 c4 04	 add	 esp, 4
$L94149:

; 1457 : 
; 1458 : 		/*while (ThreadIsRunning())
; 1459 : 			;*/
; 1460 : 
; 1461 : 		if (m_pTestRace)

  00036	8b 45 f8	 mov	 eax, DWORD PTR _this$[ebp]
  00039	83 b8 ec a8 02
	00 00		 cmp	 DWORD PTR [eax+174316], 0
  00040	74 18		 je	 SHORT $L94151

; 1462 : 			m_pTestRace->InvalidateDeviceObjects( m_pd3dDevice );

  00042	8b 45 f8	 mov	 eax, DWORD PTR _this$[ebp]
  00045	8b 88 a8 a4 02
	00		 mov	 ecx, DWORD PTR [eax+173224]
  0004b	51		 push	 ecx
  0004c	8b 55 f8	 mov	 edx, DWORD PTR _this$[ebp]
  0004f	8b 8a ec a8 02
	00		 mov	 ecx, DWORD PTR [edx+174316]
  00055	e8 00 00 00 00	 call	 ?InvalidateDeviceObjects@CRace@@QAEJPAUIDirect3DDevice8@@@Z ; CRace::InvalidateDeviceObjects
$L94151:

; 1463 : 
; 1464 : 		if (m_pSubtitleFont)

  0005a	8b 45 f8	 mov	 eax, DWORD PTR _this$[ebp]
  0005d	83 b8 f8 a8 02
	00 00		 cmp	 DWORD PTR [eax+174328], 0
  00064	74 0e		 je	 SHORT $L94152

; 1465 : 			m_pSubtitleFont->InvalidateDeviceObjects() ;

  00066	8b 45 f8	 mov	 eax, DWORD PTR _this$[ebp]
  00069	8b 88 f8 a8 02
	00		 mov	 ecx, DWORD PTR [eax+174328]
  0006f	e8 00 00 00 00	 call	 ?InvalidateDeviceObjects@CD3DFont@@QAEJXZ ; CD3DFont::InvalidateDeviceObjects
$L94152:

; 1466 : 
; 1467 : 		if (m_pStatsFont)

  00074	8b 45 f8	 mov	 eax, DWORD PTR _this$[ebp]
  00077	83 b8 f0 a8 02
	00 00		 cmp	 DWORD PTR [eax+174320], 0
  0007e	74 0e		 je	 SHORT $L94153

; 1468 : 			m_pStatsFont->InvalidateDeviceObjects() ;

  00080	8b 45 f8	 mov	 eax, DWORD PTR _this$[ebp]
  00083	8b 88 f0 a8 02
	00		 mov	 ecx, DWORD PTR [eax+174320]
  00089	e8 00 00 00 00	 call	 ?InvalidateDeviceObjects@CD3DFont@@QAEJXZ ; CD3DFont::InvalidateDeviceObjects
$L94153:

; 1469 : 
; 1470 : 		if (m_pTitleFont)

  0008e	8b 45 f8	 mov	 eax, DWORD PTR _this$[ebp]
  00091	83 b8 f4 a8 02
	00 00		 cmp	 DWORD PTR [eax+174324], 0
  00098	74 0e		 je	 SHORT $L94154

; 1471 : 			m_pTitleFont->InvalidateDeviceObjects() ;

  0009a	8b 45 f8	 mov	 eax, DWORD PTR _this$[ebp]
  0009d	8b 88 f4 a8 02
	00		 mov	 ecx, DWORD PTR [eax+174324]
  000a3	e8 00 00 00 00	 call	 ?InvalidateDeviceObjects@CD3DFont@@QAEJXZ ; CD3DFont::InvalidateDeviceObjects
$L94154:

; 1472 : 
; 1473 : 		if (m_pTextures)

  000a8	8b 45 f8	 mov	 eax, DWORD PTR _this$[ebp]
  000ab	83 b8 e8 a8 02
	00 00		 cmp	 DWORD PTR [eax+174312], 0
  000b2	74 0e		 je	 SHORT $L94155

; 1474 : 			m_pTextures->InvalidateDeviceObjects() ;

  000b4	8b 45 f8	 mov	 eax, DWORD PTR _this$[ebp]
  000b7	8b 88 e8 a8 02
	00		 mov	 ecx, DWORD PTR [eax+174312]
  000bd	e8 00 00 00 00	 call	 ?InvalidateDeviceObjects@CTextures@@QAEJXZ ; CTextures::InvalidateDeviceObjects
$L94155:

; 1475 : 
; 1476 : 		if (m_pMenuTex)

  000c2	8b 45 f8	 mov	 eax, DWORD PTR _this$[ebp]
  000c5	83 b8 dc a8 02
	00 00		 cmp	 DWORD PTR [eax+174300], 0
  000cc	74 0e		 je	 SHORT $L94156

; 1477 : 			m_pMenuTex->InvalidateDeviceObjects() ;

  000ce	8b 45 f8	 mov	 eax, DWORD PTR _this$[ebp]
  000d1	8b 88 dc a8 02
	00		 mov	 ecx, DWORD PTR [eax+174300]
  000d7	e8 00 00 00 00	 call	 ?InvalidateDeviceObjects@CMenuTextures@@QAEJXZ ; CMenuTextures::InvalidateDeviceObjects
$L94156:

; 1478 : 
; 1479 : 		if (m_pOverlayMan)

  000dc	8b 45 f8	 mov	 eax, DWORD PTR _this$[ebp]
  000df	83 b8 d8 a8 02
	00 00		 cmp	 DWORD PTR [eax+174296], 0
  000e6	74 0e		 je	 SHORT $L94157

; 1480 : 			m_pOverlayMan->InvalidateDeviceObjects() ;

  000e8	8b 45 f8	 mov	 eax, DWORD PTR _this$[ebp]
  000eb	8b 88 d8 a8 02
	00		 mov	 ecx, DWORD PTR [eax+174296]
  000f1	e8 00 00 00 00	 call	 ?InvalidateDeviceObjects@CScreenOverlayManager@@QAEJXZ ; CScreenOverlayManager::InvalidateDeviceObjects
$L94157:

; 1481 : 
; 1482 : 		if (m_pMainMenu)

  000f6	8b 45 f8	 mov	 eax, DWORD PTR _this$[ebp]
  000f9	83 b8 e0 a8 02
	00 00		 cmp	 DWORD PTR [eax+174304], 0
  00100	74 0e		 je	 SHORT $L94158

; 1483 : 			m_pMainMenu->InvalidateDeviceObjects();

  00102	8b 45 f8	 mov	 eax, DWORD PTR _this$[ebp]
  00105	8b 88 e0 a8 02
	00		 mov	 ecx, DWORD PTR [eax+174304]
  0010b	e8 00 00 00 00	 call	 ?InvalidateDeviceObjects@CMainMenu@@QAEJXZ ; CMainMenu::InvalidateDeviceObjects
$L94158:

; 1484 : 
; 1485 : 		return S_OK ;

  00110	33 c0		 xor	 eax, eax

; 1486 : 	}

  00112	5f		 pop	 edi
  00113	5e		 pop	 esi
  00114	5b		 pop	 ebx
  00115	81 c4 cc 00 00
	00		 add	 esp, 204		; 000000ccH
  0011b	3b ec		 cmp	 ebp, esp
  0011d	e8 00 00 00 00	 call	 __RTC_CheckEsp
  00122	8b e5		 mov	 esp, ebp
  00124	5d		 pop	 ebp
  00125	c3		 ret	 0
?InvalidateDeviceObjects@Cx7@@UAEJXZ ENDP		; Cx7::InvalidateDeviceObjects
_TEXT	ENDS
EXTRN	?DeleteDeviceObjects@CD3DFont@@QAEJXZ:NEAR	; CD3DFont::DeleteDeviceObjects
; Function compile flags: /Odt /RTCsu /ZI
;	COMDAT ?DeleteDeviceObjects@Cx7@@UAEJXZ
_TEXT	SEGMENT
_this$ = -8
?DeleteDeviceObjects@Cx7@@UAEJXZ PROC NEAR		; Cx7::DeleteDeviceObjects, COMDAT
; _this$ = ecx

; 1497 : 	{

  00000	55		 push	 ebp
  00001	8b ec		 mov	 ebp, esp
  00003	81 ec cc 00 00
	00		 sub	 esp, 204		; 000000ccH
  00009	53		 push	 ebx
  0000a	56		 push	 esi
  0000b	57		 push	 edi
  0000c	51		 push	 ecx
  0000d	8d bd 34 ff ff
	ff		 lea	 edi, DWORD PTR [ebp-204]
  00013	b9 33 00 00 00	 mov	 ecx, 51			; 00000033H
  00018	b8 cc cc cc cc	 mov	 eax, -858993460		; ccccccccH
  0001d	f3 ab		 rep stosd
  0001f	59		 pop	 ecx
  00020	89 4d f8	 mov	 DWORD PTR _this$[ebp], ecx

; 1498 : 		/*while (ThreadIsRunning())
; 1499 : 			;*/
; 1500 : 
; 1501 : 		m_pStatsFont->DeleteDeviceObjects() ;

  00023	8b 45 f8	 mov	 eax, DWORD PTR _this$[ebp]
  00026	8b 88 f0 a8 02
	00		 mov	 ecx, DWORD PTR [eax+174320]
  0002c	e8 00 00 00 00	 call	 ?DeleteDeviceObjects@CD3DFont@@QAEJXZ ; CD3DFont::DeleteDeviceObjects

; 1502 : 		m_pTitleFont->DeleteDeviceObjects() ;

  00031	8b 45 f8	 mov	 eax, DWORD PTR _this$[ebp]
  00034	8b 88 f4 a8 02
	00		 mov	 ecx, DWORD PTR [eax+174324]
  0003a	e8 00 00 00 00	 call	 ?DeleteDeviceObjects@CD3DFont@@QAEJXZ ; CD3DFont::DeleteDeviceObjects

; 1503 : 		m_pSubtitleFont->DeleteDeviceObjects() ;

  0003f	8b 45 f8	 mov	 eax, DWORD PTR _this$[ebp]
  00042	8b 88 f8 a8 02
	00		 mov	 ecx, DWORD PTR [eax+174328]
  00048	e8 00 00 00 00	 call	 ?DeleteDeviceObjects@CD3DFont@@QAEJXZ ; CD3DFont::DeleteDeviceObjects

; 1504 : 
; 1505 : 		return S_OK ;

  0004d	33 c0		 xor	 eax, eax

; 1506 : 	}

  0004f	5f		 pop	 edi
  00050	5e		 pop	 esi
  00051	5b		 pop	 ebx
  00052	81 c4 cc 00 00
	00		 add	 esp, 204		; 000000ccH
  00058	3b ec		 cmp	 ebp, esp
  0005a	e8 00 00 00 00	 call	 __RTC_CheckEsp
  0005f	8b e5		 mov	 esp, ebp
  00061	5d		 pop	 ebp
  00062	c3		 ret	 0
?DeleteDeviceObjects@Cx7@@UAEJXZ ENDP			; Cx7::DeleteDeviceObjects
_TEXT	ENDS
PUBLIC	??_GCMenuTextures@@QAEPAXI@Z			; CMenuTextures::`scalar deleting destructor'
PUBLIC	??_GCD3DFont@@QAEPAXI@Z				; CD3DFont::`scalar deleting destructor'
PUBLIC	??_GCSoundManager@@QAEPAXI@Z			; CSoundManager::`scalar deleting destructor'
PUBLIC	??_GCMainMenu@@QAEPAXI@Z			; CMainMenu::`scalar deleting destructor'
PUBLIC	??_GCInGameMenu@@QAEPAXI@Z			; CInGameMenu::`scalar deleting destructor'
PUBLIC	??_GCScreenOverlayManager@@QAEPAXI@Z		; CScreenOverlayManager::`scalar deleting destructor'
PUBLIC	??_C@_08KGAJFAOA@AvgStats?$AA@			; `string'
PUBLIC	??_C@_0IE@IFKHNBAA@Min?5FPS?3?5?$CF0?42f?6Max?5FPS?3?5?$CF0?42f?6Av@ ; `string'
PUBLIC	??_C@_00CNPNBAHC@?$AA@				; `string'
PUBLIC	??_C@_0P@JPHBNPKP@FinalCleanup?$CI?$CJ?$AA@	; `string'
PUBLIC	??_GCUserInput@@QAEPAXI@Z			; CUserInput::`scalar deleting destructor'
EXTRN	__imp__MessageBoxA@16:NEAR
;	COMDAT ??_C@_08KGAJFAOA@AvgStats?$AA@
CONST	SEGMENT
??_C@_08KGAJFAOA@AvgStats?$AA@ DB 'AvgStats', 00H	; `string'
CONST	ENDS
;	COMDAT ??_C@_0IE@IFKHNBAA@Min?5FPS?3?5?$CF0?42f?6Max?5FPS?3?5?$CF0?42f?6Av@
CONST	SEGMENT
??_C@_0IE@IFKHNBAA@Min?5FPS?3?5?$CF0?42f?6Max?5FPS?3?5?$CF0?42f?6Av@ DB 'M'
	DB	'in FPS: %0.2f', 0aH, 'Max FPS: %0.2f', 0aH, 'Avg FPS: %0.2f', 0aH
	DB	0aH, 'Min MTS: %0.2f', 0aH, 'Max MTS: %0.2f', 0aH, 'Avg MTS: %'
	DB	'0.2f', 0aH, 0aH, 'Min PPF: %lu', 0aH, 'Max PPF: %lu', 0aH, 'A'
	DB	'vg PPF: %lu', 0aH, 00H			; `string'
CONST	ENDS
;	COMDAT ??_C@_00CNPNBAHC@?$AA@
CONST	SEGMENT
??_C@_00CNPNBAHC@?$AA@ DB 00H				; `string'
CONST	ENDS
;	COMDAT ??_C@_0P@JPHBNPKP@FinalCleanup?$CI?$CJ?$AA@
CONST	SEGMENT
??_C@_0P@JPHBNPKP@FinalCleanup?$CI?$CJ?$AA@ DB 'FinalCleanup()', 00H ; `string'
; Function compile flags: /Odt /RTCsu /ZI
CONST	ENDS
;	COMDAT ?FinalCleanup@Cx7@@UAEJXZ
_TEXT	SEGMENT
tv235 = -744
tv226 = -744
tv217 = -744
tv208 = -744
tv198 = -744
tv189 = -744
tv180 = -744
tv171 = -744
tv162 = -744
tv153 = -744
tv144 = -744
$T94767 = -736
$T94766 = -724
$T94763 = -712
$T94762 = -700
$T94759 = -688
$T94758 = -676
$T94755 = -664
$T94754 = -652
$T94751 = -640
$T94750 = -628
$T94747 = -616
$T94746 = -604
$T94743 = -592
$T94742 = -580
$T94739 = -568
$T94738 = -556
$T94735 = -544
$T94734 = -532
$T94731 = -520
$T94730 = -508
$T94727 = -496
$T94726 = -484
_sz$94169 = -280
_this$ = -12
__$ArrayPad$ = -4
__$ReturnAddr$ = 4
?FinalCleanup@Cx7@@UAEJXZ PROC NEAR			; Cx7::FinalCleanup, COMDAT
; _this$ = ecx

; 1515 : 	{

  00000	55		 push	 ebp
  00001	8b ec		 mov	 ebp, esp
  00003	81 ec e8 02 00
	00		 sub	 esp, 744		; 000002e8H
  00009	53		 push	 ebx
  0000a	56		 push	 esi
  0000b	57		 push	 edi
  0000c	51		 push	 ecx
  0000d	8d bd 18 fd ff
	ff		 lea	 edi, DWORD PTR [ebp-744]
  00013	b9 ba 00 00 00	 mov	 ecx, 186		; 000000baH
  00018	b8 cc cc cc cc	 mov	 eax, -858993460		; ccccccccH
  0001d	f3 ab		 rep stosd
  0001f	59		 pop	 ecx
  00020	a1 00 00 00 00	 mov	 eax, DWORD PTR ___security_cookie
  00025	33 45 04	 xor	 eax, DWORD PTR __$ReturnAddr$[ebp]
  00028	89 45 fc	 mov	 DWORD PTR __$ArrayPad$[ebp], eax
  0002b	89 4d f4	 mov	 DWORD PTR _this$[ebp], ecx

; 1516 : 		if( m_fAvgFPS > 0.0f && m_pCmdLine->GetInt( "AvgStats", 0 ) )

  0002e	8b 45 f4	 mov	 eax, DWORD PTR _this$[ebp]
  00031	d9 80 18 a9 02
	00		 fld	 DWORD PTR [eax+174360]
  00037	d8 1d 00 00 00
	00		 fcomp	 DWORD PTR __real@00000000
  0003d	df e0		 fnstsw	 ax
  0003f	f6 c4 41	 test	 ah, 65			; 00000041H
  00042	0f 85 c8 00 00
	00		 jne	 $L94167
  00048	6a 00		 push	 0
  0004a	68 00 00 00 00	 push	 OFFSET FLAT:??_C@_08KGAJFAOA@AvgStats?$AA@
  0004f	8b 45 f4	 mov	 eax, DWORD PTR _this$[ebp]
  00052	8b 88 d4 a8 02
	00		 mov	 ecx, DWORD PTR [eax+174292]
  00058	e8 00 00 00 00	 call	 ?GetInt@CCmdLineParser@@QAEHPADH@Z ; CCmdLineParser::GetInt
  0005d	85 c0		 test	 eax, eax
  0005f	0f 84 ab 00 00
	00		 je	 $L94167

; 1517 : 		{
; 1518 : 			char sz[256] ;
; 1519 : 			sprintf(sz, "Min FPS: %0.2f\nMax FPS: %0.2f\nAvg FPS: %0.2f\n\nMin MTS: %0.2f\nMax MTS: %0.2f\nAvg MTS: %0.2f\n\nMin PPF: %lu\nMax PPF: %lu\nAvg PPF: %lu\n",
; 1520 : 					m_fMinFPS,  m_fMaxFPS,  m_fAvgFPS,
; 1521 : 					m_fMinMTS,  m_fMaxMTS,  m_fAvgMTS,
; 1522 : 					m_ulMinPPF, m_ulMaxPPF, m_ulAvgPPF) ;

  00065	8b 45 f4	 mov	 eax, DWORD PTR _this$[ebp]
  00068	8b 88 28 a9 02
	00		 mov	 ecx, DWORD PTR [eax+174376]
  0006e	51		 push	 ecx
  0006f	8b 55 f4	 mov	 edx, DWORD PTR _this$[ebp]
  00072	8b 82 24 a9 02
	00		 mov	 eax, DWORD PTR [edx+174372]
  00078	50		 push	 eax
  00079	8b 4d f4	 mov	 ecx, DWORD PTR _this$[ebp]
  0007c	8b 91 20 a9 02
	00		 mov	 edx, DWORD PTR [ecx+174368]
  00082	52		 push	 edx
  00083	8b 45 f4	 mov	 eax, DWORD PTR _this$[ebp]
  00086	d9 80 38 a9 02
	00		 fld	 DWORD PTR [eax+174392]
  0008c	83 ec 08	 sub	 esp, 8
  0008f	dd 1c 24	 fstp	 QWORD PTR [esp]
  00092	8b 4d f4	 mov	 ecx, DWORD PTR _this$[ebp]
  00095	d9 81 34 a9 02
	00		 fld	 DWORD PTR [ecx+174388]
  0009b	83 ec 08	 sub	 esp, 8
  0009e	dd 1c 24	 fstp	 QWORD PTR [esp]
  000a1	8b 55 f4	 mov	 edx, DWORD PTR _this$[ebp]
  000a4	d9 82 30 a9 02
	00		 fld	 DWORD PTR [edx+174384]
  000aa	83 ec 08	 sub	 esp, 8
  000ad	dd 1c 24	 fstp	 QWORD PTR [esp]
  000b0	8b 45 f4	 mov	 eax, DWORD PTR _this$[ebp]
  000b3	d9 80 18 a9 02
	00		 fld	 DWORD PTR [eax+174360]
  000b9	83 ec 08	 sub	 esp, 8
  000bc	dd 1c 24	 fstp	 QWORD PTR [esp]
  000bf	8b 4d f4	 mov	 ecx, DWORD PTR _this$[ebp]
  000c2	d9 81 14 a9 02
	00		 fld	 DWORD PTR [ecx+174356]
  000c8	83 ec 08	 sub	 esp, 8
  000cb	dd 1c 24	 fstp	 QWORD PTR [esp]
  000ce	8b 55 f4	 mov	 edx, DWORD PTR _this$[ebp]
  000d1	d9 82 10 a9 02
	00		 fld	 DWORD PTR [edx+174352]
  000d7	83 ec 08	 sub	 esp, 8
  000da	dd 1c 24	 fstp	 QWORD PTR [esp]
  000dd	68 00 00 00 00	 push	 OFFSET FLAT:??_C@_0IE@IFKHNBAA@Min?5FPS?3?5?$CF0?42f?6Max?5FPS?3?5?$CF0?42f?6Av@
  000e2	8d 85 e8 fe ff
	ff		 lea	 eax, DWORD PTR _sz$94169[ebp]
  000e8	50		 push	 eax
  000e9	e8 00 00 00 00	 call	 _sprintf
  000ee	83 c4 44	 add	 esp, 68			; 00000044H

; 1523 : 			MessageBox(NULL, sz, "", MB_OK) ;	

  000f1	8b f4		 mov	 esi, esp
  000f3	6a 00		 push	 0
  000f5	68 00 00 00 00	 push	 OFFSET FLAT:??_C@_00CNPNBAHC@?$AA@
  000fa	8d 85 e8 fe ff
	ff		 lea	 eax, DWORD PTR _sz$94169[ebp]
  00100	50		 push	 eax
  00101	6a 00		 push	 0
  00103	ff 15 00 00 00
	00		 call	 DWORD PTR __imp__MessageBoxA@16
  00109	3b f4		 cmp	 esi, esp
  0010b	e8 00 00 00 00	 call	 __RTC_CheckEsp
$L94167:

; 1524 : 		}
; 1525 : 
; 1526 : 		if (SHOW_FRAMEWORK_EVENTS)

  00110	33 c0		 xor	 eax, eax
  00112	85 c0		 test	 eax, eax
  00114	74 0d		 je	 SHORT $L94172

; 1527 : 			Msg( "FinalCleanup()" );

  00116	68 00 00 00 00	 push	 OFFSET FLAT:??_C@_0P@JPHBNPKP@FinalCleanup?$CI?$CJ?$AA@
  0011b	e8 00 00 00 00	 call	 ?Msg@@YAXPAD@Z		; Msg
  00120	83 c4 04	 add	 esp, 4
$L94172:

; 1528 : 
; 1529 : 		SAFE_DELETE( m_pOverlayMan )

  00123	8b 45 f4	 mov	 eax, DWORD PTR _this$[ebp]
  00126	83 b8 d8 a8 02
	00 00		 cmp	 DWORD PTR [eax+174296], 0
  0012d	74 50		 je	 SHORT $L94174
  0012f	8b 45 f4	 mov	 eax, DWORD PTR _this$[ebp]
  00132	8b 88 d8 a8 02
	00		 mov	 ecx, DWORD PTR [eax+174296]
  00138	89 8d 10 fe ff
	ff		 mov	 DWORD PTR $T94727[ebp], ecx
  0013e	8b 95 10 fe ff
	ff		 mov	 edx, DWORD PTR $T94727[ebp]
  00144	89 95 1c fe ff
	ff		 mov	 DWORD PTR $T94726[ebp], edx
  0014a	83 bd 1c fe ff
	ff 00		 cmp	 DWORD PTR $T94726[ebp], 0
  00151	74 15		 je	 SHORT $L94728
  00153	6a 01		 push	 1
  00155	8b 8d 1c fe ff
	ff		 mov	 ecx, DWORD PTR $T94726[ebp]
  0015b	e8 00 00 00 00	 call	 ??_GCScreenOverlayManager@@QAEPAXI@Z
  00160	89 85 18 fd ff
	ff		 mov	 DWORD PTR tv144[ebp], eax
  00166	eb 0a		 jmp	 SHORT $L94729
$L94728:
  00168	c7 85 18 fd ff
	ff 00 00 00 00	 mov	 DWORD PTR tv144[ebp], 0
$L94729:
  00172	8b 45 f4	 mov	 eax, DWORD PTR _this$[ebp]
  00175	c7 80 d8 a8 02
	00 00 00 00 00	 mov	 DWORD PTR [eax+174296], 0
$L94174:

; 1530 : 		SAFE_DELETE( m_pMainMenu ) 

  0017f	8b 45 f4	 mov	 eax, DWORD PTR _this$[ebp]
  00182	83 b8 e0 a8 02
	00 00		 cmp	 DWORD PTR [eax+174304], 0
  00189	74 50		 je	 SHORT $L94177
  0018b	8b 45 f4	 mov	 eax, DWORD PTR _this$[ebp]
  0018e	8b 88 e0 a8 02
	00		 mov	 ecx, DWORD PTR [eax+174304]
  00194	89 8d f8 fd ff
	ff		 mov	 DWORD PTR $T94731[ebp], ecx
  0019a	8b 95 f8 fd ff
	ff		 mov	 edx, DWORD PTR $T94731[ebp]
  001a0	89 95 04 fe ff
	ff		 mov	 DWORD PTR $T94730[ebp], edx
  001a6	83 bd 04 fe ff
	ff 00		 cmp	 DWORD PTR $T94730[ebp], 0
  001ad	74 15		 je	 SHORT $L94732
  001af	6a 01		 push	 1
  001b1	8b 8d 04 fe ff
	ff		 mov	 ecx, DWORD PTR $T94730[ebp]
  001b7	e8 00 00 00 00	 call	 ??_GCMainMenu@@QAEPAXI@Z
  001bc	89 85 18 fd ff
	ff		 mov	 DWORD PTR tv153[ebp], eax
  001c2	eb 0a		 jmp	 SHORT $L94733
$L94732:
  001c4	c7 85 18 fd ff
	ff 00 00 00 00	 mov	 DWORD PTR tv153[ebp], 0
$L94733:
  001ce	8b 45 f4	 mov	 eax, DWORD PTR _this$[ebp]
  001d1	c7 80 e0 a8 02
	00 00 00 00 00	 mov	 DWORD PTR [eax+174304], 0
$L94177:

; 1531 : 		SAFE_DELETE( m_pInGameMenu ) 

  001db	8b 45 f4	 mov	 eax, DWORD PTR _this$[ebp]
  001de	83 b8 e4 a8 02
	00 00		 cmp	 DWORD PTR [eax+174308], 0
  001e5	74 50		 je	 SHORT $L94180
  001e7	8b 45 f4	 mov	 eax, DWORD PTR _this$[ebp]
  001ea	8b 88 e4 a8 02
	00		 mov	 ecx, DWORD PTR [eax+174308]
  001f0	89 8d e0 fd ff
	ff		 mov	 DWORD PTR $T94735[ebp], ecx
  001f6	8b 95 e0 fd ff
	ff		 mov	 edx, DWORD PTR $T94735[ebp]
  001fc	89 95 ec fd ff
	ff		 mov	 DWORD PTR $T94734[ebp], edx
  00202	83 bd ec fd ff
	ff 00		 cmp	 DWORD PTR $T94734[ebp], 0
  00209	74 15		 je	 SHORT $L94736
  0020b	6a 01		 push	 1
  0020d	8b 8d ec fd ff
	ff		 mov	 ecx, DWORD PTR $T94734[ebp]
  00213	e8 00 00 00 00	 call	 ??_GCInGameMenu@@QAEPAXI@Z
  00218	89 85 18 fd ff
	ff		 mov	 DWORD PTR tv162[ebp], eax
  0021e	eb 0a		 jmp	 SHORT $L94737
$L94736:
  00220	c7 85 18 fd ff
	ff 00 00 00 00	 mov	 DWORD PTR tv162[ebp], 0
$L94737:
  0022a	8b 45 f4	 mov	 eax, DWORD PTR _this$[ebp]
  0022d	c7 80 e4 a8 02
	00 00 00 00 00	 mov	 DWORD PTR [eax+174308], 0
$L94180:

; 1532 : 		SAFE_DELETE( m_pMenuTex )

  00237	8b 45 f4	 mov	 eax, DWORD PTR _this$[ebp]
  0023a	83 b8 dc a8 02
	00 00		 cmp	 DWORD PTR [eax+174300], 0
  00241	74 50		 je	 SHORT $L94183
  00243	8b 45 f4	 mov	 eax, DWORD PTR _this$[ebp]
  00246	8b 88 dc a8 02
	00		 mov	 ecx, DWORD PTR [eax+174300]
  0024c	89 8d c8 fd ff
	ff		 mov	 DWORD PTR $T94739[ebp], ecx
  00252	8b 95 c8 fd ff
	ff		 mov	 edx, DWORD PTR $T94739[ebp]
  00258	89 95 d4 fd ff
	ff		 mov	 DWORD PTR $T94738[ebp], edx
  0025e	83 bd d4 fd ff
	ff 00		 cmp	 DWORD PTR $T94738[ebp], 0
  00265	74 15		 je	 SHORT $L94740
  00267	6a 01		 push	 1
  00269	8b 8d d4 fd ff
	ff		 mov	 ecx, DWORD PTR $T94738[ebp]
  0026f	e8 00 00 00 00	 call	 ??_GCMenuTextures@@QAEPAXI@Z
  00274	89 85 18 fd ff
	ff		 mov	 DWORD PTR tv171[ebp], eax
  0027a	eb 0a		 jmp	 SHORT $L94741
$L94740:
  0027c	c7 85 18 fd ff
	ff 00 00 00 00	 mov	 DWORD PTR tv171[ebp], 0
$L94741:
  00286	8b 45 f4	 mov	 eax, DWORD PTR _this$[ebp]
  00289	c7 80 dc a8 02
	00 00 00 00 00	 mov	 DWORD PTR [eax+174300], 0
$L94183:

; 1533 : 		SAFE_DELETE( m_pStatsFont )

  00293	8b 45 f4	 mov	 eax, DWORD PTR _this$[ebp]
  00296	83 b8 f0 a8 02
	00 00		 cmp	 DWORD PTR [eax+174320], 0
  0029d	74 50		 je	 SHORT $L94186
  0029f	8b 45 f4	 mov	 eax, DWORD PTR _this$[ebp]
  002a2	8b 88 f0 a8 02
	00		 mov	 ecx, DWORD PTR [eax+174320]
  002a8	89 8d b0 fd ff
	ff		 mov	 DWORD PTR $T94743[ebp], ecx
  002ae	8b 95 b0 fd ff
	ff		 mov	 edx, DWORD PTR $T94743[ebp]
  002b4	89 95 bc fd ff
	ff		 mov	 DWORD PTR $T94742[ebp], edx
  002ba	83 bd bc fd ff
	ff 00		 cmp	 DWORD PTR $T94742[ebp], 0
  002c1	74 15		 je	 SHORT $L94744
  002c3	6a 01		 push	 1
  002c5	8b 8d bc fd ff
	ff		 mov	 ecx, DWORD PTR $T94742[ebp]
  002cb	e8 00 00 00 00	 call	 ??_GCD3DFont@@QAEPAXI@Z
  002d0	89 85 18 fd ff
	ff		 mov	 DWORD PTR tv180[ebp], eax
  002d6	eb 0a		 jmp	 SHORT $L94745
$L94744:
  002d8	c7 85 18 fd ff
	ff 00 00 00 00	 mov	 DWORD PTR tv180[ebp], 0
$L94745:
  002e2	8b 45 f4	 mov	 eax, DWORD PTR _this$[ebp]
  002e5	c7 80 f0 a8 02
	00 00 00 00 00	 mov	 DWORD PTR [eax+174320], 0
$L94186:

; 1534 : 		SAFE_DELETE( m_pTitleFont )

  002ef	8b 45 f4	 mov	 eax, DWORD PTR _this$[ebp]
  002f2	83 b8 f4 a8 02
	00 00		 cmp	 DWORD PTR [eax+174324], 0
  002f9	74 50		 je	 SHORT $L94189
  002fb	8b 45 f4	 mov	 eax, DWORD PTR _this$[ebp]
  002fe	8b 88 f4 a8 02
	00		 mov	 ecx, DWORD PTR [eax+174324]
  00304	89 8d 98 fd ff
	ff		 mov	 DWORD PTR $T94747[ebp], ecx
  0030a	8b 95 98 fd ff
	ff		 mov	 edx, DWORD PTR $T94747[ebp]
  00310	89 95 a4 fd ff
	ff		 mov	 DWORD PTR $T94746[ebp], edx
  00316	83 bd a4 fd ff
	ff 00		 cmp	 DWORD PTR $T94746[ebp], 0
  0031d	74 15		 je	 SHORT $L94748
  0031f	6a 01		 push	 1
  00321	8b 8d a4 fd ff
	ff		 mov	 ecx, DWORD PTR $T94746[ebp]
  00327	e8 00 00 00 00	 call	 ??_GCD3DFont@@QAEPAXI@Z
  0032c	89 85 18 fd ff
	ff		 mov	 DWORD PTR tv189[ebp], eax
  00332	eb 0a		 jmp	 SHORT $L94749
$L94748:
  00334	c7 85 18 fd ff
	ff 00 00 00 00	 mov	 DWORD PTR tv189[ebp], 0
$L94749:
  0033e	8b 45 f4	 mov	 eax, DWORD PTR _this$[ebp]
  00341	c7 80 f4 a8 02
	00 00 00 00 00	 mov	 DWORD PTR [eax+174324], 0
$L94189:

; 1535 : 		SAFE_DELETE( m_pSubtitleFont )

  0034b	8b 45 f4	 mov	 eax, DWORD PTR _this$[ebp]
  0034e	83 b8 f8 a8 02
	00 00		 cmp	 DWORD PTR [eax+174328], 0
  00355	74 50		 je	 SHORT $L94192
  00357	8b 45 f4	 mov	 eax, DWORD PTR _this$[ebp]
  0035a	8b 88 f8 a8 02
	00		 mov	 ecx, DWORD PTR [eax+174328]
  00360	89 8d 80 fd ff
	ff		 mov	 DWORD PTR $T94751[ebp], ecx
  00366	8b 95 80 fd ff
	ff		 mov	 edx, DWORD PTR $T94751[ebp]
  0036c	89 95 8c fd ff
	ff		 mov	 DWORD PTR $T94750[ebp], edx
  00372	83 bd 8c fd ff
	ff 00		 cmp	 DWORD PTR $T94750[ebp], 0
  00379	74 15		 je	 SHORT $L94752
  0037b	6a 01		 push	 1
  0037d	8b 8d 8c fd ff
	ff		 mov	 ecx, DWORD PTR $T94750[ebp]
  00383	e8 00 00 00 00	 call	 ??_GCD3DFont@@QAEPAXI@Z
  00388	89 85 18 fd ff
	ff		 mov	 DWORD PTR tv198[ebp], eax
  0038e	eb 0a		 jmp	 SHORT $L94753
$L94752:
  00390	c7 85 18 fd ff
	ff 00 00 00 00	 mov	 DWORD PTR tv198[ebp], 0
$L94753:
  0039a	8b 45 f4	 mov	 eax, DWORD PTR _this$[ebp]
  0039d	c7 80 f8 a8 02
	00 00 00 00 00	 mov	 DWORD PTR [eax+174328], 0
$L94192:

; 1536 : 		m_bRaceCreated = false ;

  003a7	8b 45 f4	 mov	 eax, DWORD PTR _this$[ebp]
  003aa	c6 80 e0 a7 02
	00 00		 mov	 BYTE PTR [eax+174048], 0

; 1537 : 		SAFE_DELETE( m_pTestRace )

  003b1	8b 45 f4	 mov	 eax, DWORD PTR _this$[ebp]
  003b4	83 b8 ec a8 02
	00 00		 cmp	 DWORD PTR [eax+174316], 0
  003bb	74 50		 je	 SHORT $L94195
  003bd	8b 45 f4	 mov	 eax, DWORD PTR _this$[ebp]
  003c0	8b 88 ec a8 02
	00		 mov	 ecx, DWORD PTR [eax+174316]
  003c6	89 8d 68 fd ff
	ff		 mov	 DWORD PTR $T94755[ebp], ecx
  003cc	8b 95 68 fd ff
	ff		 mov	 edx, DWORD PTR $T94755[ebp]
  003d2	89 95 74 fd ff
	ff		 mov	 DWORD PTR $T94754[ebp], edx
  003d8	83 bd 74 fd ff
	ff 00		 cmp	 DWORD PTR $T94754[ebp], 0
  003df	74 15		 je	 SHORT $L94756
  003e1	6a 01		 push	 1
  003e3	8b 8d 74 fd ff
	ff		 mov	 ecx, DWORD PTR $T94754[ebp]
  003e9	e8 00 00 00 00	 call	 ??_GCRace@@QAEPAXI@Z
  003ee	89 85 18 fd ff
	ff		 mov	 DWORD PTR tv208[ebp], eax
  003f4	eb 0a		 jmp	 SHORT $L94757
$L94756:
  003f6	c7 85 18 fd ff
	ff 00 00 00 00	 mov	 DWORD PTR tv208[ebp], 0
$L94757:
  00400	8b 45 f4	 mov	 eax, DWORD PTR _this$[ebp]
  00403	c7 80 ec a8 02
	00 00 00 00 00	 mov	 DWORD PTR [eax+174316], 0
$L94195:

; 1538 : 		SAFE_DELETE( m_pTextures )

  0040d	8b 45 f4	 mov	 eax, DWORD PTR _this$[ebp]
  00410	83 b8 e8 a8 02
	00 00		 cmp	 DWORD PTR [eax+174312], 0
  00417	74 50		 je	 SHORT $L94198
  00419	8b 45 f4	 mov	 eax, DWORD PTR _this$[ebp]
  0041c	8b 88 e8 a8 02
	00		 mov	 ecx, DWORD PTR [eax+174312]
  00422	89 8d 50 fd ff
	ff		 mov	 DWORD PTR $T94759[ebp], ecx
  00428	8b 95 50 fd ff
	ff		 mov	 edx, DWORD PTR $T94759[ebp]
  0042e	89 95 5c fd ff
	ff		 mov	 DWORD PTR $T94758[ebp], edx
  00434	83 bd 5c fd ff
	ff 00		 cmp	 DWORD PTR $T94758[ebp], 0
  0043b	74 15		 je	 SHORT $L94760
  0043d	6a 01		 push	 1
  0043f	8b 8d 5c fd ff
	ff		 mov	 ecx, DWORD PTR $T94758[ebp]
  00445	e8 00 00 00 00	 call	 ??_GCTextures@@QAEPAXI@Z
  0044a	89 85 18 fd ff
	ff		 mov	 DWORD PTR tv217[ebp], eax
  00450	eb 0a		 jmp	 SHORT $L94761
$L94760:
  00452	c7 85 18 fd ff
	ff 00 00 00 00	 mov	 DWORD PTR tv217[ebp], 0
$L94761:
  0045c	8b 45 f4	 mov	 eax, DWORD PTR _this$[ebp]
  0045f	c7 80 e8 a8 02
	00 00 00 00 00	 mov	 DWORD PTR [eax+174312], 0
$L94198:

; 1539 : 		SAFE_DELETE( m_pUserInput )

  00469	8b 45 f4	 mov	 eax, DWORD PTR _this$[ebp]
  0046c	83 b8 fc a8 02
	00 00		 cmp	 DWORD PTR [eax+174332], 0
  00473	74 50		 je	 SHORT $L94201
  00475	8b 45 f4	 mov	 eax, DWORD PTR _this$[ebp]
  00478	8b 88 fc a8 02
	00		 mov	 ecx, DWORD PTR [eax+174332]
  0047e	89 8d 38 fd ff
	ff		 mov	 DWORD PTR $T94763[ebp], ecx
  00484	8b 95 38 fd ff
	ff		 mov	 edx, DWORD PTR $T94763[ebp]
  0048a	89 95 44 fd ff
	ff		 mov	 DWORD PTR $T94762[ebp], edx
  00490	83 bd 44 fd ff
	ff 00		 cmp	 DWORD PTR $T94762[ebp], 0
  00497	74 15		 je	 SHORT $L94764
  00499	6a 01		 push	 1
  0049b	8b 8d 44 fd ff
	ff		 mov	 ecx, DWORD PTR $T94762[ebp]
  004a1	e8 00 00 00 00	 call	 ??_GCUserInput@@QAEPAXI@Z
  004a6	89 85 18 fd ff
	ff		 mov	 DWORD PTR tv226[ebp], eax
  004ac	eb 0a		 jmp	 SHORT $L94765
$L94764:
  004ae	c7 85 18 fd ff
	ff 00 00 00 00	 mov	 DWORD PTR tv226[ebp], 0
$L94765:
  004b8	8b 45 f4	 mov	 eax, DWORD PTR _this$[ebp]
  004bb	c7 80 fc a8 02
	00 00 00 00 00	 mov	 DWORD PTR [eax+174332], 0
$L94201:

; 1540 : 		SAFE_DELETE( m_pSound )

  004c5	8b 45 f4	 mov	 eax, DWORD PTR _this$[ebp]
  004c8	83 b8 00 a9 02
	00 00		 cmp	 DWORD PTR [eax+174336], 0
  004cf	74 50		 je	 SHORT $L94204
  004d1	8b 45 f4	 mov	 eax, DWORD PTR _this$[ebp]
  004d4	8b 88 00 a9 02
	00		 mov	 ecx, DWORD PTR [eax+174336]
  004da	89 8d 20 fd ff
	ff		 mov	 DWORD PTR $T94767[ebp], ecx
  004e0	8b 95 20 fd ff
	ff		 mov	 edx, DWORD PTR $T94767[ebp]
  004e6	89 95 2c fd ff
	ff		 mov	 DWORD PTR $T94766[ebp], edx
  004ec	83 bd 2c fd ff
	ff 00		 cmp	 DWORD PTR $T94766[ebp], 0
  004f3	74 15		 je	 SHORT $L94768
  004f5	6a 01		 push	 1
  004f7	8b 8d 2c fd ff
	ff		 mov	 ecx, DWORD PTR $T94766[ebp]
  004fd	e8 00 00 00 00	 call	 ??_GCSoundManager@@QAEPAXI@Z
  00502	89 85 18 fd ff
	ff		 mov	 DWORD PTR tv235[ebp], eax
  00508	eb 0a		 jmp	 SHORT $L94769
$L94768:
  0050a	c7 85 18 fd ff
	ff 00 00 00 00	 mov	 DWORD PTR tv235[ebp], 0
$L94769:
  00514	8b 45 f4	 mov	 eax, DWORD PTR _this$[ebp]
  00517	c7 80 00 a9 02
	00 00 00 00 00	 mov	 DWORD PTR [eax+174336], 0
$L94204:

; 1541 : 
; 1542 : 		return S_OK ;

  00521	33 c0		 xor	 eax, eax

; 1543 : 	}

  00523	52		 push	 edx
  00524	8b cd		 mov	 ecx, ebp
  00526	50		 push	 eax
  00527	8d 15 00 00 00
	00		 lea	 edx, DWORD PTR $L94773
  0052d	e8 00 00 00 00	 call	 @_RTC_CheckStackVars@8
  00532	58		 pop	 eax
  00533	5a		 pop	 edx
  00534	8b 4d fc	 mov	 ecx, DWORD PTR __$ArrayPad$[ebp]
  00537	33 4d 04	 xor	 ecx, DWORD PTR __$ReturnAddr$[ebp]
  0053a	e8 00 00 00 00	 call	 @__security_check_cookie@4
  0053f	5f		 pop	 edi
  00540	5e		 pop	 esi
  00541	5b		 pop	 ebx
  00542	81 c4 e8 02 00
	00		 add	 esp, 744		; 000002e8H
  00548	3b ec		 cmp	 ebp, esp
  0054a	e8 00 00 00 00	 call	 __RTC_CheckEsp
  0054f	8b e5		 mov	 esp, ebp
  00551	5d		 pop	 ebp
  00552	c3		 ret	 0
$L94773:
  00553	01 00 00 00	 DD	 1
  00557	00 00 00 00	 DD	 $L94772
$L94772:
  0055b	e8 fe ff ff	 DD	 -280			; fffffee8H
  0055f	00 01 00 00	 DD	 256			; 00000100H
  00563	00 00 00 00	 DD	 $L94770
$L94770:
  00567	73		 DB	 115			; 00000073H
  00568	7a		 DB	 122			; 0000007aH
  00569	00		 DB	 0
?FinalCleanup@Cx7@@UAEJXZ ENDP				; Cx7::FinalCleanup
_TEXT	ENDS
EXTRN	??1CScreenOverlayManager@@QAE@XZ:NEAR		; CScreenOverlayManager::~CScreenOverlayManager
; Function compile flags: /Odt /RTCsu /ZI
;	COMDAT ??_GCScreenOverlayManager@@QAEPAXI@Z
_TEXT	SEGMENT
_this$ = -8
___flags$ = 8
??_GCScreenOverlayManager@@QAEPAXI@Z PROC NEAR		; CScreenOverlayManager::`scalar deleting destructor', COMDAT
; _this$ = ecx
  00000	55		 push	 ebp
  00001	8b ec		 mov	 ebp, esp
  00003	81 ec cc 00 00
	00		 sub	 esp, 204		; 000000ccH
  00009	53		 push	 ebx
  0000a	56		 push	 esi
  0000b	57		 push	 edi
  0000c	51		 push	 ecx
  0000d	8d bd 34 ff ff
	ff		 lea	 edi, DWORD PTR [ebp-204]
  00013	b9 33 00 00 00	 mov	 ecx, 51			; 00000033H
  00018	b8 cc cc cc cc	 mov	 eax, -858993460		; ccccccccH
  0001d	f3 ab		 rep stosd
  0001f	59		 pop	 ecx
  00020	89 4d f8	 mov	 DWORD PTR _this$[ebp], ecx
  00023	8b 4d f8	 mov	 ecx, DWORD PTR _this$[ebp]
  00026	e8 00 00 00 00	 call	 ??1CScreenOverlayManager@@QAE@XZ ; CScreenOverlayManager::~CScreenOverlayManager
  0002b	8b 45 08	 mov	 eax, DWORD PTR ___flags$[ebp]
  0002e	83 e0 01	 and	 eax, 1
  00031	85 c0		 test	 eax, eax
  00033	74 0c		 je	 SHORT $L94217
  00035	8b 45 f8	 mov	 eax, DWORD PTR _this$[ebp]
  00038	50		 push	 eax
  00039	e8 00 00 00 00	 call	 ??3@YAXPAX@Z		; operator delete
  0003e	83 c4 04	 add	 esp, 4
$L94217:
  00041	8b 45 f8	 mov	 eax, DWORD PTR _this$[ebp]
  00044	5f		 pop	 edi
  00045	5e		 pop	 esi
  00046	5b		 pop	 ebx
  00047	81 c4 cc 00 00
	00		 add	 esp, 204		; 000000ccH
  0004d	3b ec		 cmp	 ebp, esp
  0004f	e8 00 00 00 00	 call	 __RTC_CheckEsp
  00054	8b e5		 mov	 esp, ebp
  00056	5d		 pop	 ebp
  00057	c2 04 00	 ret	 4
??_GCScreenOverlayManager@@QAEPAXI@Z ENDP		; CScreenOverlayManager::`scalar deleting destructor'
_TEXT	ENDS
EXTRN	??1CMainMenu@@QAE@XZ:NEAR			; CMainMenu::~CMainMenu
; Function compile flags: /Odt /RTCsu /ZI
;	COMDAT ??_GCMainMenu@@QAEPAXI@Z
_TEXT	SEGMENT
_this$ = -8
___flags$ = 8
??_GCMainMenu@@QAEPAXI@Z PROC NEAR			; CMainMenu::`scalar deleting destructor', COMDAT
; _this$ = ecx
  00000	55		 push	 ebp
  00001	8b ec		 mov	 ebp, esp
  00003	81 ec cc 00 00
	00		 sub	 esp, 204		; 000000ccH
  00009	53		 push	 ebx
  0000a	56		 push	 esi
  0000b	57		 push	 edi
  0000c	51		 push	 ecx
  0000d	8d bd 34 ff ff
	ff		 lea	 edi, DWORD PTR [ebp-204]
  00013	b9 33 00 00 00	 mov	 ecx, 51			; 00000033H
  00018	b8 cc cc cc cc	 mov	 eax, -858993460		; ccccccccH
  0001d	f3 ab		 rep stosd
  0001f	59		 pop	 ecx
  00020	89 4d f8	 mov	 DWORD PTR _this$[ebp], ecx
  00023	8b 4d f8	 mov	 ecx, DWORD PTR _this$[ebp]
  00026	e8 00 00 00 00	 call	 ??1CMainMenu@@QAE@XZ	; CMainMenu::~CMainMenu
  0002b	8b 45 08	 mov	 eax, DWORD PTR ___flags$[ebp]
  0002e	83 e0 01	 and	 eax, 1
  00031	85 c0		 test	 eax, eax
  00033	74 0c		 je	 SHORT $L94220
  00035	8b 45 f8	 mov	 eax, DWORD PTR _this$[ebp]
  00038	50		 push	 eax
  00039	e8 00 00 00 00	 call	 ??3@YAXPAX@Z		; operator delete
  0003e	83 c4 04	 add	 esp, 4
$L94220:
  00041	8b 45 f8	 mov	 eax, DWORD PTR _this$[ebp]
  00044	5f		 pop	 edi
  00045	5e		 pop	 esi
  00046	5b		 pop	 ebx
  00047	81 c4 cc 00 00
	00		 add	 esp, 204		; 000000ccH
  0004d	3b ec		 cmp	 ebp, esp
  0004f	e8 00 00 00 00	 call	 __RTC_CheckEsp
  00054	8b e5		 mov	 esp, ebp
  00056	5d		 pop	 ebp
  00057	c2 04 00	 ret	 4
??_GCMainMenu@@QAEPAXI@Z ENDP				; CMainMenu::`scalar deleting destructor'
_TEXT	ENDS
EXTRN	??1CInGameMenu@@QAE@XZ:NEAR			; CInGameMenu::~CInGameMenu
; Function compile flags: /Odt /RTCsu /ZI
;	COMDAT ??_GCInGameMenu@@QAEPAXI@Z
_TEXT	SEGMENT
_this$ = -8
___flags$ = 8
??_GCInGameMenu@@QAEPAXI@Z PROC NEAR			; CInGameMenu::`scalar deleting destructor', COMDAT
; _this$ = ecx
  00000	55		 push	 ebp
  00001	8b ec		 mov	 ebp, esp
  00003	81 ec cc 00 00
	00		 sub	 esp, 204		; 000000ccH
  00009	53		 push	 ebx
  0000a	56		 push	 esi
  0000b	57		 push	 edi
  0000c	51		 push	 ecx
  0000d	8d bd 34 ff ff
	ff		 lea	 edi, DWORD PTR [ebp-204]
  00013	b9 33 00 00 00	 mov	 ecx, 51			; 00000033H
  00018	b8 cc cc cc cc	 mov	 eax, -858993460		; ccccccccH
  0001d	f3 ab		 rep stosd
  0001f	59		 pop	 ecx
  00020	89 4d f8	 mov	 DWORD PTR _this$[ebp], ecx
  00023	8b 4d f8	 mov	 ecx, DWORD PTR _this$[ebp]
  00026	e8 00 00 00 00	 call	 ??1CInGameMenu@@QAE@XZ	; CInGameMenu::~CInGameMenu
  0002b	8b 45 08	 mov	 eax, DWORD PTR ___flags$[ebp]
  0002e	83 e0 01	 and	 eax, 1
  00031	85 c0		 test	 eax, eax
  00033	74 0c		 je	 SHORT $L94223
  00035	8b 45 f8	 mov	 eax, DWORD PTR _this$[ebp]
  00038	50		 push	 eax
  00039	e8 00 00 00 00	 call	 ??3@YAXPAX@Z		; operator delete
  0003e	83 c4 04	 add	 esp, 4
$L94223:
  00041	8b 45 f8	 mov	 eax, DWORD PTR _this$[ebp]
  00044	5f		 pop	 edi
  00045	5e		 pop	 esi
  00046	5b		 pop	 ebx
  00047	81 c4 cc 00 00
	00		 add	 esp, 204		; 000000ccH
  0004d	3b ec		 cmp	 ebp, esp
  0004f	e8 00 00 00 00	 call	 __RTC_CheckEsp
  00054	8b e5		 mov	 esp, ebp
  00056	5d		 pop	 ebp
  00057	c2 04 00	 ret	 4
??_GCInGameMenu@@QAEPAXI@Z ENDP				; CInGameMenu::`scalar deleting destructor'
_TEXT	ENDS
EXTRN	??1CMenuTextures@@QAE@XZ:NEAR			; CMenuTextures::~CMenuTextures
; Function compile flags: /Odt /RTCsu /ZI
;	COMDAT ??_GCMenuTextures@@QAEPAXI@Z
_TEXT	SEGMENT
_this$ = -8
___flags$ = 8
??_GCMenuTextures@@QAEPAXI@Z PROC NEAR			; CMenuTextures::`scalar deleting destructor', COMDAT
; _this$ = ecx
  00000	55		 push	 ebp
  00001	8b ec		 mov	 ebp, esp
  00003	81 ec cc 00 00
	00		 sub	 esp, 204		; 000000ccH
  00009	53		 push	 ebx
  0000a	56		 push	 esi
  0000b	57		 push	 edi
  0000c	51		 push	 ecx
  0000d	8d bd 34 ff ff
	ff		 lea	 edi, DWORD PTR [ebp-204]
  00013	b9 33 00 00 00	 mov	 ecx, 51			; 00000033H
  00018	b8 cc cc cc cc	 mov	 eax, -858993460		; ccccccccH
  0001d	f3 ab		 rep stosd
  0001f	59		 pop	 ecx
  00020	89 4d f8	 mov	 DWORD PTR _this$[ebp], ecx
  00023	8b 4d f8	 mov	 ecx, DWORD PTR _this$[ebp]
  00026	e8 00 00 00 00	 call	 ??1CMenuTextures@@QAE@XZ ; CMenuTextures::~CMenuTextures
  0002b	8b 45 08	 mov	 eax, DWORD PTR ___flags$[ebp]
  0002e	83 e0 01	 and	 eax, 1
  00031	85 c0		 test	 eax, eax
  00033	74 0c		 je	 SHORT $L94226
  00035	8b 45 f8	 mov	 eax, DWORD PTR _this$[ebp]
  00038	50		 push	 eax
  00039	e8 00 00 00 00	 call	 ??3@YAXPAX@Z		; operator delete
  0003e	83 c4 04	 add	 esp, 4
$L94226:
  00041	8b 45 f8	 mov	 eax, DWORD PTR _this$[ebp]
  00044	5f		 pop	 edi
  00045	5e		 pop	 esi
  00046	5b		 pop	 ebx
  00047	81 c4 cc 00 00
	00		 add	 esp, 204		; 000000ccH
  0004d	3b ec		 cmp	 ebp, esp
  0004f	e8 00 00 00 00	 call	 __RTC_CheckEsp
  00054	8b e5		 mov	 esp, ebp
  00056	5d		 pop	 ebp
  00057	c2 04 00	 ret	 4
??_GCMenuTextures@@QAEPAXI@Z ENDP			; CMenuTextures::`scalar deleting destructor'
_TEXT	ENDS
EXTRN	??1CD3DFont@@QAE@XZ:NEAR			; CD3DFont::~CD3DFont
; Function compile flags: /Odt /RTCsu /ZI
;	COMDAT ??_GCD3DFont@@QAEPAXI@Z
_TEXT	SEGMENT
_this$ = -8
___flags$ = 8
??_GCD3DFont@@QAEPAXI@Z PROC NEAR			; CD3DFont::`scalar deleting destructor', COMDAT
; _this$ = ecx
  00000	55		 push	 ebp
  00001	8b ec		 mov	 ebp, esp
  00003	81 ec cc 00 00
	00		 sub	 esp, 204		; 000000ccH
  00009	53		 push	 ebx
  0000a	56		 push	 esi
  0000b	57		 push	 edi
  0000c	51		 push	 ecx
  0000d	8d bd 34 ff ff
	ff		 lea	 edi, DWORD PTR [ebp-204]
  00013	b9 33 00 00 00	 mov	 ecx, 51			; 00000033H
  00018	b8 cc cc cc cc	 mov	 eax, -858993460		; ccccccccH
  0001d	f3 ab		 rep stosd
  0001f	59		 pop	 ecx
  00020	89 4d f8	 mov	 DWORD PTR _this$[ebp], ecx
  00023	8b 4d f8	 mov	 ecx, DWORD PTR _this$[ebp]
  00026	e8 00 00 00 00	 call	 ??1CD3DFont@@QAE@XZ	; CD3DFont::~CD3DFont
  0002b	8b 45 08	 mov	 eax, DWORD PTR ___flags$[ebp]
  0002e	83 e0 01	 and	 eax, 1
  00031	85 c0		 test	 eax, eax
  00033	74 0c		 je	 SHORT $L94229
  00035	8b 45 f8	 mov	 eax, DWORD PTR _this$[ebp]
  00038	50		 push	 eax
  00039	e8 00 00 00 00	 call	 ??3@YAXPAX@Z		; operator delete
  0003e	83 c4 04	 add	 esp, 4
$L94229:
  00041	8b 45 f8	 mov	 eax, DWORD PTR _this$[ebp]
  00044	5f		 pop	 edi
  00045	5e		 pop	 esi
  00046	5b		 pop	 ebx
  00047	81 c4 cc 00 00
	00		 add	 esp, 204		; 000000ccH
  0004d	3b ec		 cmp	 ebp, esp
  0004f	e8 00 00 00 00	 call	 __RTC_CheckEsp
  00054	8b e5		 mov	 esp, ebp
  00056	5d		 pop	 ebp
  00057	c2 04 00	 ret	 4
??_GCD3DFont@@QAEPAXI@Z ENDP				; CD3DFont::`scalar deleting destructor'
_TEXT	ENDS
EXTRN	??1CUserInput@@QAE@XZ:NEAR			; CUserInput::~CUserInput
; Function compile flags: /Odt /RTCsu /ZI
;	COMDAT ??_GCUserInput@@QAEPAXI@Z
_TEXT	SEGMENT
_this$ = -8
___flags$ = 8
??_GCUserInput@@QAEPAXI@Z PROC NEAR			; CUserInput::`scalar deleting destructor', COMDAT
; _this$ = ecx
  00000	55		 push	 ebp
  00001	8b ec		 mov	 ebp, esp
  00003	81 ec cc 00 00
	00		 sub	 esp, 204		; 000000ccH
  00009	53		 push	 ebx
  0000a	56		 push	 esi
  0000b	57		 push	 edi
  0000c	51		 push	 ecx
  0000d	8d bd 34 ff ff
	ff		 lea	 edi, DWORD PTR [ebp-204]
  00013	b9 33 00 00 00	 mov	 ecx, 51			; 00000033H
  00018	b8 cc cc cc cc	 mov	 eax, -858993460		; ccccccccH
  0001d	f3 ab		 rep stosd
  0001f	59		 pop	 ecx
  00020	89 4d f8	 mov	 DWORD PTR _this$[ebp], ecx
  00023	8b 4d f8	 mov	 ecx, DWORD PTR _this$[ebp]
  00026	e8 00 00 00 00	 call	 ??1CUserInput@@QAE@XZ	; CUserInput::~CUserInput
  0002b	8b 45 08	 mov	 eax, DWORD PTR ___flags$[ebp]
  0002e	83 e0 01	 and	 eax, 1
  00031	85 c0		 test	 eax, eax
  00033	74 0c		 je	 SHORT $L94232
  00035	8b 45 f8	 mov	 eax, DWORD PTR _this$[ebp]
  00038	50		 push	 eax
  00039	e8 00 00 00 00	 call	 ??3@YAXPAX@Z		; operator delete
  0003e	83 c4 04	 add	 esp, 4
$L94232:
  00041	8b 45 f8	 mov	 eax, DWORD PTR _this$[ebp]
  00044	5f		 pop	 edi
  00045	5e		 pop	 esi
  00046	5b		 pop	 ebx
  00047	81 c4 cc 00 00
	00		 add	 esp, 204		; 000000ccH
  0004d	3b ec		 cmp	 ebp, esp
  0004f	e8 00 00 00 00	 call	 __RTC_CheckEsp
  00054	8b e5		 mov	 esp, ebp
  00056	5d		 pop	 ebp
  00057	c2 04 00	 ret	 4
??_GCUserInput@@QAEPAXI@Z ENDP				; CUserInput::`scalar deleting destructor'
_TEXT	ENDS
EXTRN	??1CSoundManager@@QAE@XZ:NEAR			; CSoundManager::~CSoundManager
; Function compile flags: /Odt /RTCsu /ZI
;	COMDAT ??_GCSoundManager@@QAEPAXI@Z
_TEXT	SEGMENT
_this$ = -8
___flags$ = 8
??_GCSoundManager@@QAEPAXI@Z PROC NEAR			; CSoundManager::`scalar deleting destructor', COMDAT
; _this$ = ecx
  00000	55		 push	 ebp
  00001	8b ec		 mov	 ebp, esp
  00003	81 ec cc 00 00
	00		 sub	 esp, 204		; 000000ccH
  00009	53		 push	 ebx
  0000a	56		 push	 esi
  0000b	57		 push	 edi
  0000c	51		 push	 ecx
  0000d	8d bd 34 ff ff
	ff		 lea	 edi, DWORD PTR [ebp-204]
  00013	b9 33 00 00 00	 mov	 ecx, 51			; 00000033H
  00018	b8 cc cc cc cc	 mov	 eax, -858993460		; ccccccccH
  0001d	f3 ab		 rep stosd
  0001f	59		 pop	 ecx
  00020	89 4d f8	 mov	 DWORD PTR _this$[ebp], ecx
  00023	8b 4d f8	 mov	 ecx, DWORD PTR _this$[ebp]
  00026	e8 00 00 00 00	 call	 ??1CSoundManager@@QAE@XZ ; CSoundManager::~CSoundManager
  0002b	8b 45 08	 mov	 eax, DWORD PTR ___flags$[ebp]
  0002e	83 e0 01	 and	 eax, 1
  00031	85 c0		 test	 eax, eax
  00033	74 0c		 je	 SHORT $L94235
  00035	8b 45 f8	 mov	 eax, DWORD PTR _this$[ebp]
  00038	50		 push	 eax
  00039	e8 00 00 00 00	 call	 ??3@YAXPAX@Z		; operator delete
  0003e	83 c4 04	 add	 esp, 4
$L94235:
  00041	8b 45 f8	 mov	 eax, DWORD PTR _this$[ebp]
  00044	5f		 pop	 edi
  00045	5e		 pop	 esi
  00046	5b		 pop	 ebx
  00047	81 c4 cc 00 00
	00		 add	 esp, 204		; 000000ccH
  0004d	3b ec		 cmp	 ebp, esp
  0004f	e8 00 00 00 00	 call	 __RTC_CheckEsp
  00054	8b e5		 mov	 esp, ebp
  00056	5d		 pop	 ebp
  00057	c2 04 00	 ret	 4
??_GCSoundManager@@QAEPAXI@Z ENDP			; CSoundManager::`scalar deleting destructor'
_TEXT	ENDS
PUBLIC	??_C@_0BG@NJGCNAHE@?5got?5hdrop?$DL?6file?$DN?8?$CFs?8?$AA@ ; `string'
EXTRN	?MsgProc@CD3DApplication@@UAEJPAUHWND__@@IIJ@Z:NEAR ; CD3DApplication::MsgProc
EXTRN	__imp__DragQueryFileA@16:NEAR
EXTRN	__imp__DragFinish@4:NEAR
EXTRN	?Msg2@@YAXPADZZ:NEAR				; Msg2
EXTRN	?SetManualFromValues@CCamera@@QAEHPAUIDirect3DDevice8@@MMM@Z:NEAR ; CCamera::SetManualFromValues
;	COMDAT ??_C@_0BG@NJGCNAHE@?5got?5hdrop?$DL?6file?$DN?8?$CFs?8?$AA@
CONST	SEGMENT
??_C@_0BG@NJGCNAHE@?5got?5hdrop?$DL?6file?$DN?8?$CFs?8?$AA@ DB ' got hdro'
	DB	'p;', 0aH, 'file=''%s''', 00H		; `string'
; Function compile flags: /Odt /RTCsu /ZI
CONST	ENDS
;	COMDAT ?MsgProc@Cx7@@UAEJPAUHWND__@@IIJ@Z
_TEXT	SEGMENT
tv75 = -1256
tv64 = -1256
_szDropFile0$ = -1056
_hDrop$ = -24
_this$ = -12
__$ArrayPad$ = -4
__$ReturnAddr$ = 4
_hWnd$ = 8
_uMsg$ = 12
_wParam$ = 16
_lParam$ = 20
?MsgProc@Cx7@@UAEJPAUHWND__@@IIJ@Z PROC NEAR		; Cx7::MsgProc, COMDAT
; _this$ = ecx

; 1553 : 	{

  00000	55		 push	 ebp
  00001	8b ec		 mov	 ebp, esp
  00003	81 ec e8 04 00
	00		 sub	 esp, 1256		; 000004e8H
  00009	53		 push	 ebx
  0000a	56		 push	 esi
  0000b	57		 push	 edi
  0000c	51		 push	 ecx
  0000d	8d bd 18 fb ff
	ff		 lea	 edi, DWORD PTR [ebp-1256]
  00013	b9 3a 01 00 00	 mov	 ecx, 314		; 0000013aH
  00018	b8 cc cc cc cc	 mov	 eax, -858993460		; ccccccccH
  0001d	f3 ab		 rep stosd
  0001f	59		 pop	 ecx
  00020	a1 00 00 00 00	 mov	 eax, DWORD PTR ___security_cookie
  00025	33 45 04	 xor	 eax, DWORD PTR __$ReturnAddr$[ebp]
  00028	89 45 fc	 mov	 DWORD PTR __$ArrayPad$[ebp], eax
  0002b	89 4d f4	 mov	 DWORD PTR _this$[ebp], ecx

; 1554 : 		HDROP hDrop ;
; 1555 : 		char szDropFile0[ 1024 ];
; 1556 : 
; 1557 : 		switch (uMsg) 
; 1558 : 		{ 

  0002e	8b 45 0c	 mov	 eax, DWORD PTR _uMsg$[ebp]
  00031	89 85 18 fb ff
	ff		 mov	 DWORD PTR tv64[ebp], eax
  00037	81 bd 18 fb ff
	ff 11 01 00 00	 cmp	 DWORD PTR tv64[ebp], 273 ; 00000111H
  00041	74 64		 je	 SHORT $L94252
  00043	81 bd 18 fb ff
	ff 33 02 00 00	 cmp	 DWORD PTR tv64[ebp], 563 ; 00000233H
  0004d	74 05		 je	 SHORT $L94249
  0004f	e9 f5 13 00 00	 jmp	 $L94246
$L94249:

; 1559 : 			case WM_DROPFILES:
; 1560 : 				hDrop = (HDROP)wParam ;

  00054	8b 45 10	 mov	 eax, DWORD PTR _wParam$[ebp]
  00057	89 45 e8	 mov	 DWORD PTR _hDrop$[ebp], eax

; 1561 : 				DragQueryFile( hDrop, 0, szDropFile0, 1024 );

  0005a	8b f4		 mov	 esi, esp
  0005c	68 00 04 00 00	 push	 1024			; 00000400H
  00061	8d 85 e0 fb ff
	ff		 lea	 eax, DWORD PTR _szDropFile0$[ebp]
  00067	50		 push	 eax
  00068	6a 00		 push	 0
  0006a	8b 4d e8	 mov	 ecx, DWORD PTR _hDrop$[ebp]
  0006d	51		 push	 ecx
  0006e	ff 15 00 00 00
	00		 call	 DWORD PTR __imp__DragQueryFileA@16
  00074	3b f4		 cmp	 esi, esp
  00076	e8 00 00 00 00	 call	 __RTC_CheckEsp

; 1562 : 				Msg2(" got hdrop;\nfile='%s'", szDropFile0);

  0007b	8d 85 e0 fb ff
	ff		 lea	 eax, DWORD PTR _szDropFile0$[ebp]
  00081	50		 push	 eax
  00082	68 00 00 00 00	 push	 OFFSET FLAT:??_C@_0BG@NJGCNAHE@?5got?5hdrop?$DL?6file?$DN?8?$CFs?8?$AA@
  00087	e8 00 00 00 00	 call	 ?Msg2@@YAXPADZZ		; Msg2
  0008c	83 c4 08	 add	 esp, 8

; 1563 : 				DragFinish( hDrop );

  0008f	8b f4		 mov	 esi, esp
  00091	8b 45 e8	 mov	 eax, DWORD PTR _hDrop$[ebp]
  00094	50		 push	 eax
  00095	ff 15 00 00 00
	00		 call	 DWORD PTR __imp__DragFinish@4
  0009b	3b f4		 cmp	 esi, esp
  0009d	e8 00 00 00 00	 call	 __RTC_CheckEsp

; 1564 : 				break ;

  000a2	e9 a2 13 00 00	 jmp	 $L94246
$L94252:

; 1565 : 
; 1566 : 			case WM_COMMAND: 
; 1567 : 				switch(LOWORD(wParam)) 
; 1568 : 				{

  000a7	8b 45 10	 mov	 eax, DWORD PTR _wParam$[ebp]
  000aa	25 ff ff 00 00	 and	 eax, 65535		; 0000ffffH
  000af	0f b7 c8	 movzx	 ecx, ax
  000b2	89 8d 18 fb ff
	ff		 mov	 DWORD PTR tv75[ebp], ecx
  000b8	8b 95 18 fb ff
	ff		 mov	 edx, DWORD PTR tv75[ebp]
  000be	81 ea 4c 9c 00
	00		 sub	 edx, 40012		; 00009c4cH
  000c4	89 95 18 fb ff
	ff		 mov	 DWORD PTR tv75[ebp], edx
  000ca	83 bd 18 fb ff
	ff 1d		 cmp	 DWORD PTR tv75[ebp], 29	; 0000001dH
  000d1	0f 87 72 13 00
	00		 ja	 $L94246
  000d7	8b 85 18 fb ff
	ff		 mov	 eax, DWORD PTR tv75[ebp]
  000dd	ff 24 85 00 00
	00 00		 jmp	 DWORD PTR $L94795[eax*4]
$L94259:

; 1569 : 					case ID_VIEW_OBJECTS_SKYDOME:
; 1570 : 						if (m_pTestRace)

  000e4	8b 45 f4	 mov	 eax, DWORD PTR _this$[ebp]
  000e7	83 b8 ec a8 02
	00 00		 cmp	 DWORD PTR [eax+174316], 0
  000ee	74 50		 je	 SHORT $L94260

; 1571 : 						{
; 1572 : 							m_pTestRace->m_bShowSky = !m_pTestRace->m_bShowSky ;

  000f0	8b 45 f4	 mov	 eax, DWORD PTR _this$[ebp]
  000f3	8b 88 ec a8 02
	00		 mov	 ecx, DWORD PTR [eax+174316]
  000f9	33 d2		 xor	 edx, edx
  000fb	83 79 58 00	 cmp	 DWORD PTR [ecx+88], 0
  000ff	0f 94 c2	 sete	 dl
  00102	8b 45 f4	 mov	 eax, DWORD PTR _this$[ebp]
  00105	8b 88 ec a8 02
	00		 mov	 ecx, DWORD PTR [eax+174316]
  0010b	89 51 58	 mov	 DWORD PTR [ecx+88], edx

; 1573 : 							CheckMenuItem(m_hMenu, ID_VIEW_OBJECTS_SKYDOME, m_pTestRace->m_bShowSky ? MF_CHECKED : MF_UNCHECKED) ;

  0010e	8b 45 f4	 mov	 eax, DWORD PTR _this$[ebp]
  00111	8b 88 ec a8 02
	00		 mov	 ecx, DWORD PTR [eax+174316]
  00117	8b 51 58	 mov	 edx, DWORD PTR [ecx+88]
  0011a	f7 da		 neg	 edx
  0011c	1b d2		 sbb	 edx, edx
  0011e	83 e2 08	 and	 edx, 8
  00121	8b f4		 mov	 esi, esp
  00123	52		 push	 edx
  00124	68 4c 9c 00 00	 push	 40012			; 00009c4cH
  00129	8b 45 f4	 mov	 eax, DWORD PTR _this$[ebp]
  0012c	8b 88 a8 a9 02
	00		 mov	 ecx, DWORD PTR [eax+174504]
  00132	51		 push	 ecx
  00133	ff 15 00 00 00
	00		 call	 DWORD PTR __imp__CheckMenuItem@12
  00139	3b f4		 cmp	 esi, esp
  0013b	e8 00 00 00 00	 call	 __RTC_CheckEsp
$L94260:

; 1574 : 						}
; 1575 : 						break ;

  00140	e9 04 13 00 00	 jmp	 $L94246
$L94261:

; 1576 : 					case ID_VIEW_OBJECTS_TERRAIN2:
; 1577 : 						if (m_pTestRace)

  00145	8b 45 f4	 mov	 eax, DWORD PTR _this$[ebp]
  00148	83 b8 ec a8 02
	00 00		 cmp	 DWORD PTR [eax+174316], 0
  0014f	74 50		 je	 SHORT $L94262

; 1578 : 						{
; 1579 : 							m_pTestRace->m_bShowTerrain = !m_pTestRace->m_bShowTerrain ;

  00151	8b 45 f4	 mov	 eax, DWORD PTR _this$[ebp]
  00154	8b 88 ec a8 02
	00		 mov	 ecx, DWORD PTR [eax+174316]
  0015a	33 d2		 xor	 edx, edx
  0015c	83 79 50 00	 cmp	 DWORD PTR [ecx+80], 0
  00160	0f 94 c2	 sete	 dl
  00163	8b 45 f4	 mov	 eax, DWORD PTR _this$[ebp]
  00166	8b 88 ec a8 02
	00		 mov	 ecx, DWORD PTR [eax+174316]
  0016c	89 51 50	 mov	 DWORD PTR [ecx+80], edx

; 1580 : 							CheckMenuItem(m_hMenu, ID_VIEW_OBJECTS_TERRAIN2, m_pTestRace->m_bShowTerrain ? MF_CHECKED : MF_UNCHECKED) ;

  0016f	8b 45 f4	 mov	 eax, DWORD PTR _this$[ebp]
  00172	8b 88 ec a8 02
	00		 mov	 ecx, DWORD PTR [eax+174316]
  00178	8b 51 50	 mov	 edx, DWORD PTR [ecx+80]
  0017b	f7 da		 neg	 edx
  0017d	1b d2		 sbb	 edx, edx
  0017f	83 e2 08	 and	 edx, 8
  00182	8b f4		 mov	 esi, esp
  00184	52		 push	 edx
  00185	68 56 9c 00 00	 push	 40022			; 00009c56H
  0018a	8b 45 f4	 mov	 eax, DWORD PTR _this$[ebp]
  0018d	8b 88 a8 a9 02
	00		 mov	 ecx, DWORD PTR [eax+174504]
  00193	51		 push	 ecx
  00194	ff 15 00 00 00
	00		 call	 DWORD PTR __imp__CheckMenuItem@12
  0019a	3b f4		 cmp	 esi, esp
  0019c	e8 00 00 00 00	 call	 __RTC_CheckEsp
$L94262:

; 1581 : 						}
; 1582 : 						break ;

  001a1	e9 a3 12 00 00	 jmp	 $L94246
$L94263:

; 1583 : 					case ID_VIEW_OBJECTS_FLATGROUND: 
; 1584 : 						if (m_pTestRace)

  001a6	8b 45 f4	 mov	 eax, DWORD PTR _this$[ebp]
  001a9	83 b8 ec a8 02
	00 00		 cmp	 DWORD PTR [eax+174316], 0
  001b0	74 50		 je	 SHORT $L94264

; 1585 : 						{
; 1586 : 							m_pTestRace->m_bShowOcean = !m_pTestRace->m_bShowOcean ;

  001b2	8b 45 f4	 mov	 eax, DWORD PTR _this$[ebp]
  001b5	8b 88 ec a8 02
	00		 mov	 ecx, DWORD PTR [eax+174316]
  001bb	33 d2		 xor	 edx, edx
  001bd	83 79 54 00	 cmp	 DWORD PTR [ecx+84], 0
  001c1	0f 94 c2	 sete	 dl
  001c4	8b 45 f4	 mov	 eax, DWORD PTR _this$[ebp]
  001c7	8b 88 ec a8 02
	00		 mov	 ecx, DWORD PTR [eax+174316]
  001cd	89 51 54	 mov	 DWORD PTR [ecx+84], edx

; 1587 : 							CheckMenuItem(m_hMenu, ID_VIEW_OBJECTS_FLATGROUND, m_pTestRace->m_bShowOcean ? MF_CHECKED : MF_UNCHECKED) ;

  001d0	8b 45 f4	 mov	 eax, DWORD PTR _this$[ebp]
  001d3	8b 88 ec a8 02
	00		 mov	 ecx, DWORD PTR [eax+174316]
  001d9	8b 51 54	 mov	 edx, DWORD PTR [ecx+84]
  001dc	f7 da		 neg	 edx
  001de	1b d2		 sbb	 edx, edx
  001e0	83 e2 08	 and	 edx, 8
  001e3	8b f4		 mov	 esi, esp
  001e5	52		 push	 edx
  001e6	68 57 9c 00 00	 push	 40023			; 00009c57H
  001eb	8b 45 f4	 mov	 eax, DWORD PTR _this$[ebp]
  001ee	8b 88 a8 a9 02
	00		 mov	 ecx, DWORD PTR [eax+174504]
  001f4	51		 push	 ecx
  001f5	ff 15 00 00 00
	00		 call	 DWORD PTR __imp__CheckMenuItem@12
  001fb	3b f4		 cmp	 esi, esp
  001fd	e8 00 00 00 00	 call	 __RTC_CheckEsp
$L94264:

; 1588 : 						}
; 1589 : 						break ;

  00202	e9 42 12 00 00	 jmp	 $L94246
$L94265:

; 1590 : 					case ID_VIEW_OBJECTS_FIGHTER:
; 1591 : 						if (m_pTestRace)

  00207	8b 45 f4	 mov	 eax, DWORD PTR _this$[ebp]
  0020a	83 b8 ec a8 02
	00 00		 cmp	 DWORD PTR [eax+174316], 0
  00211	74 50		 je	 SHORT $L94266

; 1592 : 						{
; 1593 : 							m_pTestRace->m_bShowFighter = !m_pTestRace->m_bShowFighter ;

  00213	8b 45 f4	 mov	 eax, DWORD PTR _this$[ebp]
  00216	8b 88 ec a8 02
	00		 mov	 ecx, DWORD PTR [eax+174316]
  0021c	33 d2		 xor	 edx, edx
  0021e	83 79 5c 00	 cmp	 DWORD PTR [ecx+92], 0
  00222	0f 94 c2	 sete	 dl
  00225	8b 45 f4	 mov	 eax, DWORD PTR _this$[ebp]
  00228	8b 88 ec a8 02
	00		 mov	 ecx, DWORD PTR [eax+174316]
  0022e	89 51 5c	 mov	 DWORD PTR [ecx+92], edx

; 1594 : 							CheckMenuItem(m_hMenu, ID_VIEW_OBJECTS_FIGHTER, m_pTestRace->m_bShowFighter ? MF_CHECKED : MF_UNCHECKED) ;

  00231	8b 45 f4	 mov	 eax, DWORD PTR _this$[ebp]
  00234	8b 88 ec a8 02
	00		 mov	 ecx, DWORD PTR [eax+174316]
  0023a	8b 51 5c	 mov	 edx, DWORD PTR [ecx+92]
  0023d	f7 da		 neg	 edx
  0023f	1b d2		 sbb	 edx, edx
  00241	83 e2 08	 and	 edx, 8
  00244	8b f4		 mov	 esi, esp
  00246	52		 push	 edx
  00247	68 4f 9c 00 00	 push	 40015			; 00009c4fH
  0024c	8b 45 f4	 mov	 eax, DWORD PTR _this$[ebp]
  0024f	8b 88 a8 a9 02
	00		 mov	 ecx, DWORD PTR [eax+174504]
  00255	51		 push	 ecx
  00256	ff 15 00 00 00
	00		 call	 DWORD PTR __imp__CheckMenuItem@12
  0025c	3b f4		 cmp	 esi, esp
  0025e	e8 00 00 00 00	 call	 __RTC_CheckEsp
$L94266:

; 1595 : 						}
; 1596 : 						break ;

  00263	e9 e1 11 00 00	 jmp	 $L94246
$L94267:

; 1597 : 					case ID_VIEW_WIREFRAME:
; 1598 : 						m_bWireframe = !m_bWireframe ;

  00268	8b 45 f4	 mov	 eax, DWORD PTR _this$[ebp]
  0026b	33 c9		 xor	 ecx, ecx
  0026d	83 b8 94 a9 02
	00 00		 cmp	 DWORD PTR [eax+174484], 0
  00274	0f 94 c1	 sete	 cl
  00277	8b 55 f4	 mov	 edx, DWORD PTR _this$[ebp]
  0027a	89 8a 94 a9 02
	00		 mov	 DWORD PTR [edx+174484], ecx

; 1599 : 						CheckMenuItem(m_hMenu, ID_VIEW_WIREFRAME, m_bWireframe ? MF_CHECKED : MF_UNCHECKED) ;

  00280	8b 45 f4	 mov	 eax, DWORD PTR _this$[ebp]
  00283	8b 88 94 a9 02
	00		 mov	 ecx, DWORD PTR [eax+174484]
  00289	f7 d9		 neg	 ecx
  0028b	1b c9		 sbb	 ecx, ecx
  0028d	83 e1 08	 and	 ecx, 8
  00290	8b f4		 mov	 esi, esp
  00292	51		 push	 ecx
  00293	68 50 9c 00 00	 push	 40016			; 00009c50H
  00298	8b 55 f4	 mov	 edx, DWORD PTR _this$[ebp]
  0029b	8b 82 a8 a9 02
	00		 mov	 eax, DWORD PTR [edx+174504]
  002a1	50		 push	 eax
  002a2	ff 15 00 00 00
	00		 call	 DWORD PTR __imp__CheckMenuItem@12
  002a8	3b f4		 cmp	 esi, esp
  002aa	e8 00 00 00 00	 call	 __RTC_CheckEsp

; 1600 : 						break ;

  002af	e9 95 11 00 00	 jmp	 $L94246
$L94268:

; 1601 : 
; 1602 : 					case ID_VIEW_HUD:
; 1603 : 						m_pTestRace->m_bShowHUD = !m_pTestRace->m_bShowHUD ;

  002b4	8b 45 f4	 mov	 eax, DWORD PTR _this$[ebp]
  002b7	8b 88 ec a8 02
	00		 mov	 ecx, DWORD PTR [eax+174316]
  002bd	33 d2		 xor	 edx, edx
  002bf	83 79 60 00	 cmp	 DWORD PTR [ecx+96], 0
  002c3	0f 94 c2	 sete	 dl
  002c6	8b 45 f4	 mov	 eax, DWORD PTR _this$[ebp]
  002c9	8b 88 ec a8 02
	00		 mov	 ecx, DWORD PTR [eax+174316]
  002cf	89 51 60	 mov	 DWORD PTR [ecx+96], edx

; 1604 : 						CheckMenuItem(m_hMenu, ID_VIEW_HUD, m_pTestRace->m_bShowHUD ? MF_CHECKED : MF_UNCHECKED) ;

  002d2	8b 45 f4	 mov	 eax, DWORD PTR _this$[ebp]
  002d5	8b 88 ec a8 02
	00		 mov	 ecx, DWORD PTR [eax+174316]
  002db	8b 51 60	 mov	 edx, DWORD PTR [ecx+96]
  002de	f7 da		 neg	 edx
  002e0	1b d2		 sbb	 edx, edx
  002e2	83 e2 08	 and	 edx, 8
  002e5	8b f4		 mov	 esi, esp
  002e7	52		 push	 edx
  002e8	68 68 9c 00 00	 push	 40040			; 00009c68H
  002ed	8b 45 f4	 mov	 eax, DWORD PTR _this$[ebp]
  002f0	8b 88 a8 a9 02
	00		 mov	 ecx, DWORD PTR [eax+174504]
  002f6	51		 push	 ecx
  002f7	ff 15 00 00 00
	00		 call	 DWORD PTR __imp__CheckMenuItem@12
  002fd	3b f4		 cmp	 esi, esp
  002ff	e8 00 00 00 00	 call	 __RTC_CheckEsp

; 1605 : 						break ;

  00304	e9 40 11 00 00	 jmp	 $L94246
$L94269:

; 1606 : 
; 1607 : 					case ID_VIEW_CAMERA_FREE:
; 1608 : 						if (m_pTestRace)

  00309	8b 45 f4	 mov	 eax, DWORD PTR _this$[ebp]
  0030c	83 b8 ec a8 02
	00 00		 cmp	 DWORD PTR [eax+174316], 0
  00313	74 10		 je	 SHORT $L94270

; 1609 : 							m_pTestRace->m_ctCamMode = CT_FREE ;

  00315	8b 45 f4	 mov	 eax, DWORD PTR _this$[ebp]
  00318	8b 88 ec a8 02
	00		 mov	 ecx, DWORD PTR [eax+174316]
  0031e	c7 41 6c 00 00
	00 00		 mov	 DWORD PTR [ecx+108], 0
$L94270:

; 1610 : 						CheckMenuItem(m_hMenu, ID_VIEW_CAMERA_FREE, MF_CHECKED) ;

  00325	8b f4		 mov	 esi, esp
  00327	6a 08		 push	 8
  00329	68 5c 9c 00 00	 push	 40028			; 00009c5cH
  0032e	8b 45 f4	 mov	 eax, DWORD PTR _this$[ebp]
  00331	8b 88 a8 a9 02
	00		 mov	 ecx, DWORD PTR [eax+174504]
  00337	51		 push	 ecx
  00338	ff 15 00 00 00
	00		 call	 DWORD PTR __imp__CheckMenuItem@12
  0033e	3b f4		 cmp	 esi, esp
  00340	e8 00 00 00 00	 call	 __RTC_CheckEsp

; 1611 : 						CheckMenuItem(m_hMenu, ID_VIEW_CAMERA_BEHINDFIXED1, MF_UNCHECKED) ;

  00345	8b f4		 mov	 esi, esp
  00347	6a 00		 push	 0
  00349	68 61 9c 00 00	 push	 40033			; 00009c61H
  0034e	8b 45 f4	 mov	 eax, DWORD PTR _this$[ebp]
  00351	8b 88 a8 a9 02
	00		 mov	 ecx, DWORD PTR [eax+174504]
  00357	51		 push	 ecx
  00358	ff 15 00 00 00
	00		 call	 DWORD PTR __imp__CheckMenuItem@12
  0035e	3b f4		 cmp	 esi, esp
  00360	e8 00 00 00 00	 call	 __RTC_CheckEsp

; 1612 : 						CheckMenuItem(m_hMenu, ID_VIEW_CAMERA_BEHINDFIXED2, MF_UNCHECKED) ;

  00365	8b f4		 mov	 esi, esp
  00367	6a 00		 push	 0
  00369	68 62 9c 00 00	 push	 40034			; 00009c62H
  0036e	8b 45 f4	 mov	 eax, DWORD PTR _this$[ebp]
  00371	8b 88 a8 a9 02
	00		 mov	 ecx, DWORD PTR [eax+174504]
  00377	51		 push	 ecx
  00378	ff 15 00 00 00
	00		 call	 DWORD PTR __imp__CheckMenuItem@12
  0037e	3b f4		 cmp	 esi, esp
  00380	e8 00 00 00 00	 call	 __RTC_CheckEsp

; 1613 : 						CheckMenuItem(m_hMenu, ID_VIEW_CAMERA_BEHINDFIXED3, MF_UNCHECKED) ;

  00385	8b f4		 mov	 esi, esp
  00387	6a 00		 push	 0
  00389	68 63 9c 00 00	 push	 40035			; 00009c63H
  0038e	8b 45 f4	 mov	 eax, DWORD PTR _this$[ebp]
  00391	8b 88 a8 a9 02
	00		 mov	 ecx, DWORD PTR [eax+174504]
  00397	51		 push	 ecx
  00398	ff 15 00 00 00
	00		 call	 DWORD PTR __imp__CheckMenuItem@12
  0039e	3b f4		 cmp	 esi, esp
  003a0	e8 00 00 00 00	 call	 __RTC_CheckEsp

; 1614 : 						CheckMenuItem(m_hMenu, ID_VIEW_CAMERA_BEHINDVARIABLE1, MF_UNCHECKED) ;

  003a5	8b f4		 mov	 esi, esp
  003a7	6a 00		 push	 0
  003a9	68 64 9c 00 00	 push	 40036			; 00009c64H
  003ae	8b 45 f4	 mov	 eax, DWORD PTR _this$[ebp]
  003b1	8b 88 a8 a9 02
	00		 mov	 ecx, DWORD PTR [eax+174504]
  003b7	51		 push	 ecx
  003b8	ff 15 00 00 00
	00		 call	 DWORD PTR __imp__CheckMenuItem@12
  003be	3b f4		 cmp	 esi, esp
  003c0	e8 00 00 00 00	 call	 __RTC_CheckEsp

; 1615 : 						CheckMenuItem(m_hMenu, ID_VIEW_CAMERA_BEHINDVARIABLE2, MF_UNCHECKED) ;

  003c5	8b f4		 mov	 esi, esp
  003c7	6a 00		 push	 0
  003c9	68 65 9c 00 00	 push	 40037			; 00009c65H
  003ce	8b 45 f4	 mov	 eax, DWORD PTR _this$[ebp]
  003d1	8b 88 a8 a9 02
	00		 mov	 ecx, DWORD PTR [eax+174504]
  003d7	51		 push	 ecx
  003d8	ff 15 00 00 00
	00		 call	 DWORD PTR __imp__CheckMenuItem@12
  003de	3b f4		 cmp	 esi, esp
  003e0	e8 00 00 00 00	 call	 __RTC_CheckEsp

; 1616 : 						CheckMenuItem(m_hMenu, ID_VIEW_CAMERA_BEHINDVARIABLE3, MF_UNCHECKED) ;

  003e5	8b f4		 mov	 esi, esp
  003e7	6a 00		 push	 0
  003e9	68 66 9c 00 00	 push	 40038			; 00009c66H
  003ee	8b 45 f4	 mov	 eax, DWORD PTR _this$[ebp]
  003f1	8b 88 a8 a9 02
	00		 mov	 ecx, DWORD PTR [eax+174504]
  003f7	51		 push	 ecx
  003f8	ff 15 00 00 00
	00		 call	 DWORD PTR __imp__CheckMenuItem@12
  003fe	3b f4		 cmp	 esi, esp
  00400	e8 00 00 00 00	 call	 __RTC_CheckEsp

; 1617 : 						CheckMenuItem(m_hMenu, ID_VIEW_CAMERA_COCKPITFIXED, MF_UNCHECKED) ;

  00405	8b f4		 mov	 esi, esp
  00407	6a 00		 push	 0
  00409	68 5a 9c 00 00	 push	 40026			; 00009c5aH
  0040e	8b 45 f4	 mov	 eax, DWORD PTR _this$[ebp]
  00411	8b 88 a8 a9 02
	00		 mov	 ecx, DWORD PTR [eax+174504]
  00417	51		 push	 ecx
  00418	ff 15 00 00 00
	00		 call	 DWORD PTR __imp__CheckMenuItem@12
  0041e	3b f4		 cmp	 esi, esp
  00420	e8 00 00 00 00	 call	 __RTC_CheckEsp

; 1618 : 						CheckMenuItem(m_hMenu, ID_VIEW_CAMERA_COCKPITROLL, MF_UNCHECKED) ;

  00425	8b f4		 mov	 esi, esp
  00427	6a 00		 push	 0
  00429	68 67 9c 00 00	 push	 40039			; 00009c67H
  0042e	8b 45 f4	 mov	 eax, DWORD PTR _this$[ebp]
  00431	8b 88 a8 a9 02
	00		 mov	 ecx, DWORD PTR [eax+174504]
  00437	51		 push	 ecx
  00438	ff 15 00 00 00
	00		 call	 DWORD PTR __imp__CheckMenuItem@12
  0043e	3b f4		 cmp	 esi, esp
  00440	e8 00 00 00 00	 call	 __RTC_CheckEsp

; 1619 : 						CheckMenuItem(m_hMenu, ID_VIEW_CAMERA_SHOWOFF, MF_UNCHECKED) ;

  00445	8b f4		 mov	 esi, esp
  00447	6a 00		 push	 0
  00449	68 5d 9c 00 00	 push	 40029			; 00009c5dH
  0044e	8b 45 f4	 mov	 eax, DWORD PTR _this$[ebp]
  00451	8b 88 a8 a9 02
	00		 mov	 ecx, DWORD PTR [eax+174504]
  00457	51		 push	 ecx
  00458	ff 15 00 00 00
	00		 call	 DWORD PTR __imp__CheckMenuItem@12
  0045e	3b f4		 cmp	 esi, esp
  00460	e8 00 00 00 00	 call	 __RTC_CheckEsp

; 1620 : 					// need to reset camera's internal mouse axes!
; 1621 : 						if (m_pTestRace)

  00465	8b 45 f4	 mov	 eax, DWORD PTR _this$[ebp]
  00468	83 b8 ec a8 02
	00 00		 cmp	 DWORD PTR [eax+174316], 0
  0046f	74 4a		 je	 SHORT $L94271

; 1622 : 							m_pTestRace->m_pCamera->SetManualFromValues(m_pd3dDevice, m_pTestRace->m_pCamera->m_vEyePt.x, m_pTestRace->m_pCamera->m_vEyePt.y, m_pTestRace->m_pCamera->m_vEyePt.z) ;

  00471	8b 45 f4	 mov	 eax, DWORD PTR _this$[ebp]
  00474	8b 88 ec a8 02
	00		 mov	 ecx, DWORD PTR [eax+174316]
  0047a	8b 51 2c	 mov	 edx, DWORD PTR [ecx+44]
  0047d	8b 42 08	 mov	 eax, DWORD PTR [edx+8]
  00480	50		 push	 eax
  00481	8b 4d f4	 mov	 ecx, DWORD PTR _this$[ebp]
  00484	8b 91 ec a8 02
	00		 mov	 edx, DWORD PTR [ecx+174316]
  0048a	8b 42 2c	 mov	 eax, DWORD PTR [edx+44]
  0048d	8b 48 04	 mov	 ecx, DWORD PTR [eax+4]
  00490	51		 push	 ecx
  00491	8b 55 f4	 mov	 edx, DWORD PTR _this$[ebp]
  00494	8b 82 ec a8 02
	00		 mov	 eax, DWORD PTR [edx+174316]
  0049a	8b 48 2c	 mov	 ecx, DWORD PTR [eax+44]
  0049d	8b 11		 mov	 edx, DWORD PTR [ecx]
  0049f	52		 push	 edx
  004a0	8b 45 f4	 mov	 eax, DWORD PTR _this$[ebp]
  004a3	8b 88 a8 a4 02
	00		 mov	 ecx, DWORD PTR [eax+173224]
  004a9	51		 push	 ecx
  004aa	8b 55 f4	 mov	 edx, DWORD PTR _this$[ebp]
  004ad	8b 82 ec a8 02
	00		 mov	 eax, DWORD PTR [edx+174316]
  004b3	8b 48 2c	 mov	 ecx, DWORD PTR [eax+44]
  004b6	e8 00 00 00 00	 call	 ?SetManualFromValues@CCamera@@QAEHPAUIDirect3DDevice8@@MMM@Z ; CCamera::SetManualFromValues
$L94271:

; 1623 : 						break ;

  004bb	e9 89 0f 00 00	 jmp	 $L94246
$L94272:

; 1624 : 					case ID_VIEW_CAMERA_BEHINDFIXED1:
; 1625 : 						if (m_pTestRace)

  004c0	8b 45 f4	 mov	 eax, DWORD PTR _this$[ebp]
  004c3	83 b8 ec a8 02
	00 00		 cmp	 DWORD PTR [eax+174316], 0
  004ca	74 10		 je	 SHORT $L94273

; 1626 : 							m_pTestRace->m_ctCamMode = CT_BEHIND_FIXED1 ;

  004cc	8b 45 f4	 mov	 eax, DWORD PTR _this$[ebp]
  004cf	8b 88 ec a8 02
	00		 mov	 ecx, DWORD PTR [eax+174316]
  004d5	c7 41 6c 01 00
	00 00		 mov	 DWORD PTR [ecx+108], 1
$L94273:

; 1627 : 						CheckMenuItem(m_hMenu, ID_VIEW_CAMERA_FREE, MF_UNCHECKED) ;

  004dc	8b f4		 mov	 esi, esp
  004de	6a 00		 push	 0
  004e0	68 5c 9c 00 00	 push	 40028			; 00009c5cH
  004e5	8b 45 f4	 mov	 eax, DWORD PTR _this$[ebp]
  004e8	8b 88 a8 a9 02
	00		 mov	 ecx, DWORD PTR [eax+174504]
  004ee	51		 push	 ecx
  004ef	ff 15 00 00 00
	00		 call	 DWORD PTR __imp__CheckMenuItem@12
  004f5	3b f4		 cmp	 esi, esp
  004f7	e8 00 00 00 00	 call	 __RTC_CheckEsp

; 1628 : 						CheckMenuItem(m_hMenu, ID_VIEW_CAMERA_BEHINDFIXED1, MF_CHECKED) ;

  004fc	8b f4		 mov	 esi, esp
  004fe	6a 08		 push	 8
  00500	68 61 9c 00 00	 push	 40033			; 00009c61H
  00505	8b 45 f4	 mov	 eax, DWORD PTR _this$[ebp]
  00508	8b 88 a8 a9 02
	00		 mov	 ecx, DWORD PTR [eax+174504]
  0050e	51		 push	 ecx
  0050f	ff 15 00 00 00
	00		 call	 DWORD PTR __imp__CheckMenuItem@12
  00515	3b f4		 cmp	 esi, esp
  00517	e8 00 00 00 00	 call	 __RTC_CheckEsp

; 1629 : 						CheckMenuItem(m_hMenu, ID_VIEW_CAMERA_BEHINDFIXED2, MF_UNCHECKED) ;

  0051c	8b f4		 mov	 esi, esp
  0051e	6a 00		 push	 0
  00520	68 62 9c 00 00	 push	 40034			; 00009c62H
  00525	8b 45 f4	 mov	 eax, DWORD PTR _this$[ebp]
  00528	8b 88 a8 a9 02
	00		 mov	 ecx, DWORD PTR [eax+174504]
  0052e	51		 push	 ecx
  0052f	ff 15 00 00 00
	00		 call	 DWORD PTR __imp__CheckMenuItem@12
  00535	3b f4		 cmp	 esi, esp
  00537	e8 00 00 00 00	 call	 __RTC_CheckEsp

; 1630 : 						CheckMenuItem(m_hMenu, ID_VIEW_CAMERA_BEHINDFIXED3, MF_UNCHECKED) ;

  0053c	8b f4		 mov	 esi, esp
  0053e	6a 00		 push	 0
  00540	68 63 9c 00 00	 push	 40035			; 00009c63H
  00545	8b 45 f4	 mov	 eax, DWORD PTR _this$[ebp]
  00548	8b 88 a8 a9 02
	00		 mov	 ecx, DWORD PTR [eax+174504]
  0054e	51		 push	 ecx
  0054f	ff 15 00 00 00
	00		 call	 DWORD PTR __imp__CheckMenuItem@12
  00555	3b f4		 cmp	 esi, esp
  00557	e8 00 00 00 00	 call	 __RTC_CheckEsp

; 1631 : 						CheckMenuItem(m_hMenu, ID_VIEW_CAMERA_BEHINDVARIABLE1, MF_UNCHECKED) ;

  0055c	8b f4		 mov	 esi, esp
  0055e	6a 00		 push	 0
  00560	68 64 9c 00 00	 push	 40036			; 00009c64H
  00565	8b 45 f4	 mov	 eax, DWORD PTR _this$[ebp]
  00568	8b 88 a8 a9 02
	00		 mov	 ecx, DWORD PTR [eax+174504]
  0056e	51		 push	 ecx
  0056f	ff 15 00 00 00
	00		 call	 DWORD PTR __imp__CheckMenuItem@12
  00575	3b f4		 cmp	 esi, esp
  00577	e8 00 00 00 00	 call	 __RTC_CheckEsp

; 1632 : 						CheckMenuItem(m_hMenu, ID_VIEW_CAMERA_BEHINDVARIABLE2, MF_UNCHECKED) ;

  0057c	8b f4		 mov	 esi, esp
  0057e	6a 00		 push	 0
  00580	68 65 9c 00 00	 push	 40037			; 00009c65H
  00585	8b 45 f4	 mov	 eax, DWORD PTR _this$[ebp]
  00588	8b 88 a8 a9 02
	00		 mov	 ecx, DWORD PTR [eax+174504]
  0058e	51		 push	 ecx
  0058f	ff 15 00 00 00
	00		 call	 DWORD PTR __imp__CheckMenuItem@12
  00595	3b f4		 cmp	 esi, esp
  00597	e8 00 00 00 00	 call	 __RTC_CheckEsp

; 1633 : 						CheckMenuItem(m_hMenu, ID_VIEW_CAMERA_BEHINDVARIABLE3, MF_UNCHECKED) ;

  0059c	8b f4		 mov	 esi, esp
  0059e	6a 00		 push	 0
  005a0	68 66 9c 00 00	 push	 40038			; 00009c66H
  005a5	8b 45 f4	 mov	 eax, DWORD PTR _this$[ebp]
  005a8	8b 88 a8 a9 02
	00		 mov	 ecx, DWORD PTR [eax+174504]
  005ae	51		 push	 ecx
  005af	ff 15 00 00 00
	00		 call	 DWORD PTR __imp__CheckMenuItem@12
  005b5	3b f4		 cmp	 esi, esp
  005b7	e8 00 00 00 00	 call	 __RTC_CheckEsp

; 1634 : 						CheckMenuItem(m_hMenu, ID_VIEW_CAMERA_COCKPITFIXED, MF_UNCHECKED) ;

  005bc	8b f4		 mov	 esi, esp
  005be	6a 00		 push	 0
  005c0	68 5a 9c 00 00	 push	 40026			; 00009c5aH
  005c5	8b 45 f4	 mov	 eax, DWORD PTR _this$[ebp]
  005c8	8b 88 a8 a9 02
	00		 mov	 ecx, DWORD PTR [eax+174504]
  005ce	51		 push	 ecx
  005cf	ff 15 00 00 00
	00		 call	 DWORD PTR __imp__CheckMenuItem@12
  005d5	3b f4		 cmp	 esi, esp
  005d7	e8 00 00 00 00	 call	 __RTC_CheckEsp

; 1635 : 						CheckMenuItem(m_hMenu, ID_VIEW_CAMERA_COCKPITROLL, MF_UNCHECKED) ;

  005dc	8b f4		 mov	 esi, esp
  005de	6a 00		 push	 0
  005e0	68 67 9c 00 00	 push	 40039			; 00009c67H
  005e5	8b 45 f4	 mov	 eax, DWORD PTR _this$[ebp]
  005e8	8b 88 a8 a9 02
	00		 mov	 ecx, DWORD PTR [eax+174504]
  005ee	51		 push	 ecx
  005ef	ff 15 00 00 00
	00		 call	 DWORD PTR __imp__CheckMenuItem@12
  005f5	3b f4		 cmp	 esi, esp
  005f7	e8 00 00 00 00	 call	 __RTC_CheckEsp

; 1636 : 						CheckMenuItem(m_hMenu, ID_VIEW_CAMERA_SHOWOFF, MF_UNCHECKED) ;

  005fc	8b f4		 mov	 esi, esp
  005fe	6a 00		 push	 0
  00600	68 5d 9c 00 00	 push	 40029			; 00009c5dH
  00605	8b 45 f4	 mov	 eax, DWORD PTR _this$[ebp]
  00608	8b 88 a8 a9 02
	00		 mov	 ecx, DWORD PTR [eax+174504]
  0060e	51		 push	 ecx
  0060f	ff 15 00 00 00
	00		 call	 DWORD PTR __imp__CheckMenuItem@12
  00615	3b f4		 cmp	 esi, esp
  00617	e8 00 00 00 00	 call	 __RTC_CheckEsp

; 1637 : 						break ;

  0061c	e9 28 0e 00 00	 jmp	 $L94246
$L94274:

; 1638 : 					case ID_VIEW_CAMERA_BEHINDFIXED2:
; 1639 : 						if (m_pTestRace)

  00621	8b 45 f4	 mov	 eax, DWORD PTR _this$[ebp]
  00624	83 b8 ec a8 02
	00 00		 cmp	 DWORD PTR [eax+174316], 0
  0062b	74 10		 je	 SHORT $L94275

; 1640 : 							m_pTestRace->m_ctCamMode = CT_BEHIND_FIXED2 ;

  0062d	8b 45 f4	 mov	 eax, DWORD PTR _this$[ebp]
  00630	8b 88 ec a8 02
	00		 mov	 ecx, DWORD PTR [eax+174316]
  00636	c7 41 6c 02 00
	00 00		 mov	 DWORD PTR [ecx+108], 2
$L94275:

; 1641 : 						CheckMenuItem(m_hMenu, ID_VIEW_CAMERA_FREE, MF_UNCHECKED) ;

  0063d	8b f4		 mov	 esi, esp
  0063f	6a 00		 push	 0
  00641	68 5c 9c 00 00	 push	 40028			; 00009c5cH
  00646	8b 45 f4	 mov	 eax, DWORD PTR _this$[ebp]
  00649	8b 88 a8 a9 02
	00		 mov	 ecx, DWORD PTR [eax+174504]
  0064f	51		 push	 ecx
  00650	ff 15 00 00 00
	00		 call	 DWORD PTR __imp__CheckMenuItem@12
  00656	3b f4		 cmp	 esi, esp
  00658	e8 00 00 00 00	 call	 __RTC_CheckEsp

; 1642 : 						CheckMenuItem(m_hMenu, ID_VIEW_CAMERA_BEHINDFIXED1, MF_UNCHECKED) ;

  0065d	8b f4		 mov	 esi, esp
  0065f	6a 00		 push	 0
  00661	68 61 9c 00 00	 push	 40033			; 00009c61H
  00666	8b 45 f4	 mov	 eax, DWORD PTR _this$[ebp]
  00669	8b 88 a8 a9 02
	00		 mov	 ecx, DWORD PTR [eax+174504]
  0066f	51		 push	 ecx
  00670	ff 15 00 00 00
	00		 call	 DWORD PTR __imp__CheckMenuItem@12
  00676	3b f4		 cmp	 esi, esp
  00678	e8 00 00 00 00	 call	 __RTC_CheckEsp

; 1643 : 						CheckMenuItem(m_hMenu, ID_VIEW_CAMERA_BEHINDFIXED2, MF_CHECKED) ;

  0067d	8b f4		 mov	 esi, esp
  0067f	6a 08		 push	 8
  00681	68 62 9c 00 00	 push	 40034			; 00009c62H
  00686	8b 45 f4	 mov	 eax, DWORD PTR _this$[ebp]
  00689	8b 88 a8 a9 02
	00		 mov	 ecx, DWORD PTR [eax+174504]
  0068f	51		 push	 ecx
  00690	ff 15 00 00 00
	00		 call	 DWORD PTR __imp__CheckMenuItem@12
  00696	3b f4		 cmp	 esi, esp
  00698	e8 00 00 00 00	 call	 __RTC_CheckEsp

; 1644 : 						CheckMenuItem(m_hMenu, ID_VIEW_CAMERA_BEHINDFIXED3, MF_UNCHECKED) ;

  0069d	8b f4		 mov	 esi, esp
  0069f	6a 00		 push	 0
  006a1	68 63 9c 00 00	 push	 40035			; 00009c63H
  006a6	8b 45 f4	 mov	 eax, DWORD PTR _this$[ebp]
  006a9	8b 88 a8 a9 02
	00		 mov	 ecx, DWORD PTR [eax+174504]
  006af	51		 push	 ecx
  006b0	ff 15 00 00 00
	00		 call	 DWORD PTR __imp__CheckMenuItem@12
  006b6	3b f4		 cmp	 esi, esp
  006b8	e8 00 00 00 00	 call	 __RTC_CheckEsp

; 1645 : 						CheckMenuItem(m_hMenu, ID_VIEW_CAMERA_BEHINDVARIABLE1, MF_UNCHECKED) ;

  006bd	8b f4		 mov	 esi, esp
  006bf	6a 00		 push	 0
  006c1	68 64 9c 00 00	 push	 40036			; 00009c64H
  006c6	8b 45 f4	 mov	 eax, DWORD PTR _this$[ebp]
  006c9	8b 88 a8 a9 02
	00		 mov	 ecx, DWORD PTR [eax+174504]
  006cf	51		 push	 ecx
  006d0	ff 15 00 00 00
	00		 call	 DWORD PTR __imp__CheckMenuItem@12
  006d6	3b f4		 cmp	 esi, esp
  006d8	e8 00 00 00 00	 call	 __RTC_CheckEsp

; 1646 : 						CheckMenuItem(m_hMenu, ID_VIEW_CAMERA_BEHINDVARIABLE2, MF_UNCHECKED) ;

  006dd	8b f4		 mov	 esi, esp
  006df	6a 00		 push	 0
  006e1	68 65 9c 00 00	 push	 40037			; 00009c65H
  006e6	8b 45 f4	 mov	 eax, DWORD PTR _this$[ebp]
  006e9	8b 88 a8 a9 02
	00		 mov	 ecx, DWORD PTR [eax+174504]
  006ef	51		 push	 ecx
  006f0	ff 15 00 00 00
	00		 call	 DWORD PTR __imp__CheckMenuItem@12
  006f6	3b f4		 cmp	 esi, esp
  006f8	e8 00 00 00 00	 call	 __RTC_CheckEsp

; 1647 : 						CheckMenuItem(m_hMenu, ID_VIEW_CAMERA_BEHINDVARIABLE3, MF_UNCHECKED) ;

  006fd	8b f4		 mov	 esi, esp
  006ff	6a 00		 push	 0
  00701	68 66 9c 00 00	 push	 40038			; 00009c66H
  00706	8b 45 f4	 mov	 eax, DWORD PTR _this$[ebp]
  00709	8b 88 a8 a9 02
	00		 mov	 ecx, DWORD PTR [eax+174504]
  0070f	51		 push	 ecx
  00710	ff 15 00 00 00
	00		 call	 DWORD PTR __imp__CheckMenuItem@12
  00716	3b f4		 cmp	 esi, esp
  00718	e8 00 00 00 00	 call	 __RTC_CheckEsp

; 1648 : 						CheckMenuItem(m_hMenu, ID_VIEW_CAMERA_COCKPITFIXED, MF_UNCHECKED) ;

  0071d	8b f4		 mov	 esi, esp
  0071f	6a 00		 push	 0
  00721	68 5a 9c 00 00	 push	 40026			; 00009c5aH
  00726	8b 45 f4	 mov	 eax, DWORD PTR _this$[ebp]
  00729	8b 88 a8 a9 02
	00		 mov	 ecx, DWORD PTR [eax+174504]
  0072f	51		 push	 ecx
  00730	ff 15 00 00 00
	00		 call	 DWORD PTR __imp__CheckMenuItem@12
  00736	3b f4		 cmp	 esi, esp
  00738	e8 00 00 00 00	 call	 __RTC_CheckEsp

; 1649 : 						CheckMenuItem(m_hMenu, ID_VIEW_CAMERA_COCKPITROLL, MF_UNCHECKED) ;

  0073d	8b f4		 mov	 esi, esp
  0073f	6a 00		 push	 0
  00741	68 67 9c 00 00	 push	 40039			; 00009c67H
  00746	8b 45 f4	 mov	 eax, DWORD PTR _this$[ebp]
  00749	8b 88 a8 a9 02
	00		 mov	 ecx, DWORD PTR [eax+174504]
  0074f	51		 push	 ecx
  00750	ff 15 00 00 00
	00		 call	 DWORD PTR __imp__CheckMenuItem@12
  00756	3b f4		 cmp	 esi, esp
  00758	e8 00 00 00 00	 call	 __RTC_CheckEsp

; 1650 : 						CheckMenuItem(m_hMenu, ID_VIEW_CAMERA_SHOWOFF, MF_UNCHECKED) ;

  0075d	8b f4		 mov	 esi, esp
  0075f	6a 00		 push	 0
  00761	68 5d 9c 00 00	 push	 40029			; 00009c5dH
  00766	8b 45 f4	 mov	 eax, DWORD PTR _this$[ebp]
  00769	8b 88 a8 a9 02
	00		 mov	 ecx, DWORD PTR [eax+174504]
  0076f	51		 push	 ecx
  00770	ff 15 00 00 00
	00		 call	 DWORD PTR __imp__CheckMenuItem@12
  00776	3b f4		 cmp	 esi, esp
  00778	e8 00 00 00 00	 call	 __RTC_CheckEsp

; 1651 : 						break ;

  0077d	e9 c7 0c 00 00	 jmp	 $L94246
$L94276:

; 1652 : 					case ID_VIEW_CAMERA_BEHINDFIXED3:
; 1653 : 						if (m_pTestRace)

  00782	8b 45 f4	 mov	 eax, DWORD PTR _this$[ebp]
  00785	83 b8 ec a8 02
	00 00		 cmp	 DWORD PTR [eax+174316], 0
  0078c	74 10		 je	 SHORT $L94277

; 1654 : 							m_pTestRace->m_ctCamMode = CT_BEHIND_FIXED3 ;

  0078e	8b 45 f4	 mov	 eax, DWORD PTR _this$[ebp]
  00791	8b 88 ec a8 02
	00		 mov	 ecx, DWORD PTR [eax+174316]
  00797	c7 41 6c 03 00
	00 00		 mov	 DWORD PTR [ecx+108], 3
$L94277:

; 1655 : 						CheckMenuItem(m_hMenu, ID_VIEW_CAMERA_FREE, MF_UNCHECKED) ;

  0079e	8b f4		 mov	 esi, esp
  007a0	6a 00		 push	 0
  007a2	68 5c 9c 00 00	 push	 40028			; 00009c5cH
  007a7	8b 45 f4	 mov	 eax, DWORD PTR _this$[ebp]
  007aa	8b 88 a8 a9 02
	00		 mov	 ecx, DWORD PTR [eax+174504]
  007b0	51		 push	 ecx
  007b1	ff 15 00 00 00
	00		 call	 DWORD PTR __imp__CheckMenuItem@12
  007b7	3b f4		 cmp	 esi, esp
  007b9	e8 00 00 00 00	 call	 __RTC_CheckEsp

; 1656 : 						CheckMenuItem(m_hMenu, ID_VIEW_CAMERA_BEHINDFIXED1, MF_UNCHECKED) ;

  007be	8b f4		 mov	 esi, esp
  007c0	6a 00		 push	 0
  007c2	68 61 9c 00 00	 push	 40033			; 00009c61H
  007c7	8b 45 f4	 mov	 eax, DWORD PTR _this$[ebp]
  007ca	8b 88 a8 a9 02
	00		 mov	 ecx, DWORD PTR [eax+174504]
  007d0	51		 push	 ecx
  007d1	ff 15 00 00 00
	00		 call	 DWORD PTR __imp__CheckMenuItem@12
  007d7	3b f4		 cmp	 esi, esp
  007d9	e8 00 00 00 00	 call	 __RTC_CheckEsp

; 1657 : 						CheckMenuItem(m_hMenu, ID_VIEW_CAMERA_BEHINDFIXED2, MF_UNCHECKED) ;

  007de	8b f4		 mov	 esi, esp
  007e0	6a 00		 push	 0
  007e2	68 62 9c 00 00	 push	 40034			; 00009c62H
  007e7	8b 45 f4	 mov	 eax, DWORD PTR _this$[ebp]
  007ea	8b 88 a8 a9 02
	00		 mov	 ecx, DWORD PTR [eax+174504]
  007f0	51		 push	 ecx
  007f1	ff 15 00 00 00
	00		 call	 DWORD PTR __imp__CheckMenuItem@12
  007f7	3b f4		 cmp	 esi, esp
  007f9	e8 00 00 00 00	 call	 __RTC_CheckEsp

; 1658 : 						CheckMenuItem(m_hMenu, ID_VIEW_CAMERA_BEHINDFIXED3, MF_CHECKED) ;

  007fe	8b f4		 mov	 esi, esp
  00800	6a 08		 push	 8
  00802	68 63 9c 00 00	 push	 40035			; 00009c63H
  00807	8b 45 f4	 mov	 eax, DWORD PTR _this$[ebp]
  0080a	8b 88 a8 a9 02
	00		 mov	 ecx, DWORD PTR [eax+174504]
  00810	51		 push	 ecx
  00811	ff 15 00 00 00
	00		 call	 DWORD PTR __imp__CheckMenuItem@12
  00817	3b f4		 cmp	 esi, esp
  00819	e8 00 00 00 00	 call	 __RTC_CheckEsp

; 1659 : 						CheckMenuItem(m_hMenu, ID_VIEW_CAMERA_BEHINDVARIABLE1, MF_UNCHECKED) ;

  0081e	8b f4		 mov	 esi, esp
  00820	6a 00		 push	 0
  00822	68 64 9c 00 00	 push	 40036			; 00009c64H
  00827	8b 45 f4	 mov	 eax, DWORD PTR _this$[ebp]
  0082a	8b 88 a8 a9 02
	00		 mov	 ecx, DWORD PTR [eax+174504]
  00830	51		 push	 ecx
  00831	ff 15 00 00 00
	00		 call	 DWORD PTR __imp__CheckMenuItem@12
  00837	3b f4		 cmp	 esi, esp
  00839	e8 00 00 00 00	 call	 __RTC_CheckEsp

; 1660 : 						CheckMenuItem(m_hMenu, ID_VIEW_CAMERA_BEHINDVARIABLE2, MF_UNCHECKED) ;

  0083e	8b f4		 mov	 esi, esp
  00840	6a 00		 push	 0
  00842	68 65 9c 00 00	 push	 40037			; 00009c65H
  00847	8b 45 f4	 mov	 eax, DWORD PTR _this$[ebp]
  0084a	8b 88 a8 a9 02
	00		 mov	 ecx, DWORD PTR [eax+174504]
  00850	51		 push	 ecx
  00851	ff 15 00 00 00
	00		 call	 DWORD PTR __imp__CheckMenuItem@12
  00857	3b f4		 cmp	 esi, esp
  00859	e8 00 00 00 00	 call	 __RTC_CheckEsp

; 1661 : 						CheckMenuItem(m_hMenu, ID_VIEW_CAMERA_BEHINDVARIABLE3, MF_UNCHECKED) ;

  0085e	8b f4		 mov	 esi, esp
  00860	6a 00		 push	 0
  00862	68 66 9c 00 00	 push	 40038			; 00009c66H
  00867	8b 45 f4	 mov	 eax, DWORD PTR _this$[ebp]
  0086a	8b 88 a8 a9 02
	00		 mov	 ecx, DWORD PTR [eax+174504]
  00870	51		 push	 ecx
  00871	ff 15 00 00 00
	00		 call	 DWORD PTR __imp__CheckMenuItem@12
  00877	3b f4		 cmp	 esi, esp
  00879	e8 00 00 00 00	 call	 __RTC_CheckEsp

; 1662 : 						CheckMenuItem(m_hMenu, ID_VIEW_CAMERA_COCKPITFIXED, MF_UNCHECKED) ;

  0087e	8b f4		 mov	 esi, esp
  00880	6a 00		 push	 0
  00882	68 5a 9c 00 00	 push	 40026			; 00009c5aH
  00887	8b 45 f4	 mov	 eax, DWORD PTR _this$[ebp]
  0088a	8b 88 a8 a9 02
	00		 mov	 ecx, DWORD PTR [eax+174504]
  00890	51		 push	 ecx
  00891	ff 15 00 00 00
	00		 call	 DWORD PTR __imp__CheckMenuItem@12
  00897	3b f4		 cmp	 esi, esp
  00899	e8 00 00 00 00	 call	 __RTC_CheckEsp

; 1663 : 						CheckMenuItem(m_hMenu, ID_VIEW_CAMERA_COCKPITROLL, MF_UNCHECKED) ;

  0089e	8b f4		 mov	 esi, esp
  008a0	6a 00		 push	 0
  008a2	68 67 9c 00 00	 push	 40039			; 00009c67H
  008a7	8b 45 f4	 mov	 eax, DWORD PTR _this$[ebp]
  008aa	8b 88 a8 a9 02
	00		 mov	 ecx, DWORD PTR [eax+174504]
  008b0	51		 push	 ecx
  008b1	ff 15 00 00 00
	00		 call	 DWORD PTR __imp__CheckMenuItem@12
  008b7	3b f4		 cmp	 esi, esp
  008b9	e8 00 00 00 00	 call	 __RTC_CheckEsp

; 1664 : 						CheckMenuItem(m_hMenu, ID_VIEW_CAMERA_SHOWOFF, MF_UNCHECKED) ;

  008be	8b f4		 mov	 esi, esp
  008c0	6a 00		 push	 0
  008c2	68 5d 9c 00 00	 push	 40029			; 00009c5dH
  008c7	8b 45 f4	 mov	 eax, DWORD PTR _this$[ebp]
  008ca	8b 88 a8 a9 02
	00		 mov	 ecx, DWORD PTR [eax+174504]
  008d0	51		 push	 ecx
  008d1	ff 15 00 00 00
	00		 call	 DWORD PTR __imp__CheckMenuItem@12
  008d7	3b f4		 cmp	 esi, esp
  008d9	e8 00 00 00 00	 call	 __RTC_CheckEsp

; 1665 : 						break ;

  008de	e9 66 0b 00 00	 jmp	 $L94246
$L94278:

; 1666 : 					case ID_VIEW_CAMERA_BEHINDVARIABLE1:
; 1667 : 						if (m_pTestRace)

  008e3	8b 45 f4	 mov	 eax, DWORD PTR _this$[ebp]
  008e6	83 b8 ec a8 02
	00 00		 cmp	 DWORD PTR [eax+174316], 0
  008ed	74 10		 je	 SHORT $L94279

; 1668 : 							m_pTestRace->m_ctCamMode = CT_BEHIND_VARIABLE1 ;

  008ef	8b 45 f4	 mov	 eax, DWORD PTR _this$[ebp]
  008f2	8b 88 ec a8 02
	00		 mov	 ecx, DWORD PTR [eax+174316]
  008f8	c7 41 6c 04 00
	00 00		 mov	 DWORD PTR [ecx+108], 4
$L94279:

; 1669 : 						CheckMenuItem(m_hMenu, ID_VIEW_CAMERA_FREE, MF_UNCHECKED) ;

  008ff	8b f4		 mov	 esi, esp
  00901	6a 00		 push	 0
  00903	68 5c 9c 00 00	 push	 40028			; 00009c5cH
  00908	8b 45 f4	 mov	 eax, DWORD PTR _this$[ebp]
  0090b	8b 88 a8 a9 02
	00		 mov	 ecx, DWORD PTR [eax+174504]
  00911	51		 push	 ecx
  00912	ff 15 00 00 00
	00		 call	 DWORD PTR __imp__CheckMenuItem@12
  00918	3b f4		 cmp	 esi, esp
  0091a	e8 00 00 00 00	 call	 __RTC_CheckEsp

; 1670 : 						CheckMenuItem(m_hMenu, ID_VIEW_CAMERA_BEHINDFIXED1, MF_UNCHECKED) ;

  0091f	8b f4		 mov	 esi, esp
  00921	6a 00		 push	 0
  00923	68 61 9c 00 00	 push	 40033			; 00009c61H
  00928	8b 45 f4	 mov	 eax, DWORD PTR _this$[ebp]
  0092b	8b 88 a8 a9 02
	00		 mov	 ecx, DWORD PTR [eax+174504]
  00931	51		 push	 ecx
  00932	ff 15 00 00 00
	00		 call	 DWORD PTR __imp__CheckMenuItem@12
  00938	3b f4		 cmp	 esi, esp
  0093a	e8 00 00 00 00	 call	 __RTC_CheckEsp

; 1671 : 						CheckMenuItem(m_hMenu, ID_VIEW_CAMERA_BEHINDFIXED2, MF_UNCHECKED) ;

  0093f	8b f4		 mov	 esi, esp
  00941	6a 00		 push	 0
  00943	68 62 9c 00 00	 push	 40034			; 00009c62H
  00948	8b 45 f4	 mov	 eax, DWORD PTR _this$[ebp]
  0094b	8b 88 a8 a9 02
	00		 mov	 ecx, DWORD PTR [eax+174504]
  00951	51		 push	 ecx
  00952	ff 15 00 00 00
	00		 call	 DWORD PTR __imp__CheckMenuItem@12
  00958	3b f4		 cmp	 esi, esp
  0095a	e8 00 00 00 00	 call	 __RTC_CheckEsp

; 1672 : 						CheckMenuItem(m_hMenu, ID_VIEW_CAMERA_BEHINDFIXED3, MF_UNCHECKED) ;

  0095f	8b f4		 mov	 esi, esp
  00961	6a 00		 push	 0
  00963	68 63 9c 00 00	 push	 40035			; 00009c63H
  00968	8b 45 f4	 mov	 eax, DWORD PTR _this$[ebp]
  0096b	8b 88 a8 a9 02
	00		 mov	 ecx, DWORD PTR [eax+174504]
  00971	51		 push	 ecx
  00972	ff 15 00 00 00
	00		 call	 DWORD PTR __imp__CheckMenuItem@12
  00978	3b f4		 cmp	 esi, esp
  0097a	e8 00 00 00 00	 call	 __RTC_CheckEsp

; 1673 : 						CheckMenuItem(m_hMenu, ID_VIEW_CAMERA_BEHINDVARIABLE1, MF_CHECKED) ;

  0097f	8b f4		 mov	 esi, esp
  00981	6a 08		 push	 8
  00983	68 64 9c 00 00	 push	 40036			; 00009c64H
  00988	8b 45 f4	 mov	 eax, DWORD PTR _this$[ebp]
  0098b	8b 88 a8 a9 02
	00		 mov	 ecx, DWORD PTR [eax+174504]
  00991	51		 push	 ecx
  00992	ff 15 00 00 00
	00		 call	 DWORD PTR __imp__CheckMenuItem@12
  00998	3b f4		 cmp	 esi, esp
  0099a	e8 00 00 00 00	 call	 __RTC_CheckEsp

; 1674 : 						CheckMenuItem(m_hMenu, ID_VIEW_CAMERA_BEHINDVARIABLE2, MF_UNCHECKED) ;

  0099f	8b f4		 mov	 esi, esp
  009a1	6a 00		 push	 0
  009a3	68 65 9c 00 00	 push	 40037			; 00009c65H
  009a8	8b 45 f4	 mov	 eax, DWORD PTR _this$[ebp]
  009ab	8b 88 a8 a9 02
	00		 mov	 ecx, DWORD PTR [eax+174504]
  009b1	51		 push	 ecx
  009b2	ff 15 00 00 00
	00		 call	 DWORD PTR __imp__CheckMenuItem@12
  009b8	3b f4		 cmp	 esi, esp
  009ba	e8 00 00 00 00	 call	 __RTC_CheckEsp

; 1675 : 						CheckMenuItem(m_hMenu, ID_VIEW_CAMERA_BEHINDVARIABLE3, MF_UNCHECKED) ;

  009bf	8b f4		 mov	 esi, esp
  009c1	6a 00		 push	 0
  009c3	68 66 9c 00 00	 push	 40038			; 00009c66H
  009c8	8b 45 f4	 mov	 eax, DWORD PTR _this$[ebp]
  009cb	8b 88 a8 a9 02
	00		 mov	 ecx, DWORD PTR [eax+174504]
  009d1	51		 push	 ecx
  009d2	ff 15 00 00 00
	00		 call	 DWORD PTR __imp__CheckMenuItem@12
  009d8	3b f4		 cmp	 esi, esp
  009da	e8 00 00 00 00	 call	 __RTC_CheckEsp

; 1676 : 						CheckMenuItem(m_hMenu, ID_VIEW_CAMERA_COCKPITFIXED, MF_UNCHECKED) ;

  009df	8b f4		 mov	 esi, esp
  009e1	6a 00		 push	 0
  009e3	68 5a 9c 00 00	 push	 40026			; 00009c5aH
  009e8	8b 45 f4	 mov	 eax, DWORD PTR _this$[ebp]
  009eb	8b 88 a8 a9 02
	00		 mov	 ecx, DWORD PTR [eax+174504]
  009f1	51		 push	 ecx
  009f2	ff 15 00 00 00
	00		 call	 DWORD PTR __imp__CheckMenuItem@12
  009f8	3b f4		 cmp	 esi, esp
  009fa	e8 00 00 00 00	 call	 __RTC_CheckEsp

; 1677 : 						CheckMenuItem(m_hMenu, ID_VIEW_CAMERA_COCKPITROLL, MF_UNCHECKED) ;

  009ff	8b f4		 mov	 esi, esp
  00a01	6a 00		 push	 0
  00a03	68 67 9c 00 00	 push	 40039			; 00009c67H
  00a08	8b 45 f4	 mov	 eax, DWORD PTR _this$[ebp]
  00a0b	8b 88 a8 a9 02
	00		 mov	 ecx, DWORD PTR [eax+174504]
  00a11	51		 push	 ecx
  00a12	ff 15 00 00 00
	00		 call	 DWORD PTR __imp__CheckMenuItem@12
  00a18	3b f4		 cmp	 esi, esp
  00a1a	e8 00 00 00 00	 call	 __RTC_CheckEsp

; 1678 : 						CheckMenuItem(m_hMenu, ID_VIEW_CAMERA_SHOWOFF, MF_UNCHECKED) ;

  00a1f	8b f4		 mov	 esi, esp
  00a21	6a 00		 push	 0
  00a23	68 5d 9c 00 00	 push	 40029			; 00009c5dH
  00a28	8b 45 f4	 mov	 eax, DWORD PTR _this$[ebp]
  00a2b	8b 88 a8 a9 02
	00		 mov	 ecx, DWORD PTR [eax+174504]
  00a31	51		 push	 ecx
  00a32	ff 15 00 00 00
	00		 call	 DWORD PTR __imp__CheckMenuItem@12
  00a38	3b f4		 cmp	 esi, esp
  00a3a	e8 00 00 00 00	 call	 __RTC_CheckEsp

; 1679 : 						break ;

  00a3f	e9 05 0a 00 00	 jmp	 $L94246
$L94280:

; 1680 : 					case ID_VIEW_CAMERA_BEHINDVARIABLE2:
; 1681 : 						if (m_pTestRace)

  00a44	8b 45 f4	 mov	 eax, DWORD PTR _this$[ebp]
  00a47	83 b8 ec a8 02
	00 00		 cmp	 DWORD PTR [eax+174316], 0
  00a4e	74 10		 je	 SHORT $L94281

; 1682 : 							m_pTestRace->m_ctCamMode = CT_BEHIND_VARIABLE2 ;

  00a50	8b 45 f4	 mov	 eax, DWORD PTR _this$[ebp]
  00a53	8b 88 ec a8 02
	00		 mov	 ecx, DWORD PTR [eax+174316]
  00a59	c7 41 6c 05 00
	00 00		 mov	 DWORD PTR [ecx+108], 5
$L94281:

; 1683 : 						CheckMenuItem(m_hMenu, ID_VIEW_CAMERA_FREE, MF_UNCHECKED) ;

  00a60	8b f4		 mov	 esi, esp
  00a62	6a 00		 push	 0
  00a64	68 5c 9c 00 00	 push	 40028			; 00009c5cH
  00a69	8b 45 f4	 mov	 eax, DWORD PTR _this$[ebp]
  00a6c	8b 88 a8 a9 02
	00		 mov	 ecx, DWORD PTR [eax+174504]
  00a72	51		 push	 ecx
  00a73	ff 15 00 00 00
	00		 call	 DWORD PTR __imp__CheckMenuItem@12
  00a79	3b f4		 cmp	 esi, esp
  00a7b	e8 00 00 00 00	 call	 __RTC_CheckEsp

; 1684 : 						CheckMenuItem(m_hMenu, ID_VIEW_CAMERA_BEHINDFIXED1, MF_UNCHECKED) ;

  00a80	8b f4		 mov	 esi, esp
  00a82	6a 00		 push	 0
  00a84	68 61 9c 00 00	 push	 40033			; 00009c61H
  00a89	8b 45 f4	 mov	 eax, DWORD PTR _this$[ebp]
  00a8c	8b 88 a8 a9 02
	00		 mov	 ecx, DWORD PTR [eax+174504]
  00a92	51		 push	 ecx
  00a93	ff 15 00 00 00
	00		 call	 DWORD PTR __imp__CheckMenuItem@12
  00a99	3b f4		 cmp	 esi, esp
  00a9b	e8 00 00 00 00	 call	 __RTC_CheckEsp

; 1685 : 						CheckMenuItem(m_hMenu, ID_VIEW_CAMERA_BEHINDFIXED2, MF_UNCHECKED) ;

  00aa0	8b f4		 mov	 esi, esp
  00aa2	6a 00		 push	 0
  00aa4	68 62 9c 00 00	 push	 40034			; 00009c62H
  00aa9	8b 45 f4	 mov	 eax, DWORD PTR _this$[ebp]
  00aac	8b 88 a8 a9 02
	00		 mov	 ecx, DWORD PTR [eax+174504]
  00ab2	51		 push	 ecx
  00ab3	ff 15 00 00 00
	00		 call	 DWORD PTR __imp__CheckMenuItem@12
  00ab9	3b f4		 cmp	 esi, esp
  00abb	e8 00 00 00 00	 call	 __RTC_CheckEsp

; 1686 : 						CheckMenuItem(m_hMenu, ID_VIEW_CAMERA_BEHINDFIXED3, MF_UNCHECKED) ;

  00ac0	8b f4		 mov	 esi, esp
  00ac2	6a 00		 push	 0
  00ac4	68 63 9c 00 00	 push	 40035			; 00009c63H
  00ac9	8b 45 f4	 mov	 eax, DWORD PTR _this$[ebp]
  00acc	8b 88 a8 a9 02
	00		 mov	 ecx, DWORD PTR [eax+174504]
  00ad2	51		 push	 ecx
  00ad3	ff 15 00 00 00
	00		 call	 DWORD PTR __imp__CheckMenuItem@12
  00ad9	3b f4		 cmp	 esi, esp
  00adb	e8 00 00 00 00	 call	 __RTC_CheckEsp

; 1687 : 						CheckMenuItem(m_hMenu, ID_VIEW_CAMERA_BEHINDVARIABLE1, MF_UNCHECKED) ;

  00ae0	8b f4		 mov	 esi, esp
  00ae2	6a 00		 push	 0
  00ae4	68 64 9c 00 00	 push	 40036			; 00009c64H
  00ae9	8b 45 f4	 mov	 eax, DWORD PTR _this$[ebp]
  00aec	8b 88 a8 a9 02
	00		 mov	 ecx, DWORD PTR [eax+174504]
  00af2	51		 push	 ecx
  00af3	ff 15 00 00 00
	00		 call	 DWORD PTR __imp__CheckMenuItem@12
  00af9	3b f4		 cmp	 esi, esp
  00afb	e8 00 00 00 00	 call	 __RTC_CheckEsp

; 1688 : 						CheckMenuItem(m_hMenu, ID_VIEW_CAMERA_BEHINDVARIABLE2, MF_CHECKED) ;

  00b00	8b f4		 mov	 esi, esp
  00b02	6a 08		 push	 8
  00b04	68 65 9c 00 00	 push	 40037			; 00009c65H
  00b09	8b 45 f4	 mov	 eax, DWORD PTR _this$[ebp]
  00b0c	8b 88 a8 a9 02
	00		 mov	 ecx, DWORD PTR [eax+174504]
  00b12	51		 push	 ecx
  00b13	ff 15 00 00 00
	00		 call	 DWORD PTR __imp__CheckMenuItem@12
  00b19	3b f4		 cmp	 esi, esp
  00b1b	e8 00 00 00 00	 call	 __RTC_CheckEsp

; 1689 : 						CheckMenuItem(m_hMenu, ID_VIEW_CAMERA_BEHINDVARIABLE3, MF_UNCHECKED) ;

  00b20	8b f4		 mov	 esi, esp
  00b22	6a 00		 push	 0
  00b24	68 66 9c 00 00	 push	 40038			; 00009c66H
  00b29	8b 45 f4	 mov	 eax, DWORD PTR _this$[ebp]
  00b2c	8b 88 a8 a9 02
	00		 mov	 ecx, DWORD PTR [eax+174504]
  00b32	51		 push	 ecx
  00b33	ff 15 00 00 00
	00		 call	 DWORD PTR __imp__CheckMenuItem@12
  00b39	3b f4		 cmp	 esi, esp
  00b3b	e8 00 00 00 00	 call	 __RTC_CheckEsp

; 1690 : 						CheckMenuItem(m_hMenu, ID_VIEW_CAMERA_COCKPITFIXED, MF_UNCHECKED) ;

  00b40	8b f4		 mov	 esi, esp
  00b42	6a 00		 push	 0
  00b44	68 5a 9c 00 00	 push	 40026			; 00009c5aH
  00b49	8b 45 f4	 mov	 eax, DWORD PTR _this$[ebp]
  00b4c	8b 88 a8 a9 02
	00		 mov	 ecx, DWORD PTR [eax+174504]
  00b52	51		 push	 ecx
  00b53	ff 15 00 00 00
	00		 call	 DWORD PTR __imp__CheckMenuItem@12
  00b59	3b f4		 cmp	 esi, esp
  00b5b	e8 00 00 00 00	 call	 __RTC_CheckEsp

; 1691 : 						CheckMenuItem(m_hMenu, ID_VIEW_CAMERA_COCKPITROLL, MF_UNCHECKED) ;

  00b60	8b f4		 mov	 esi, esp
  00b62	6a 00		 push	 0
  00b64	68 67 9c 00 00	 push	 40039			; 00009c67H
  00b69	8b 45 f4	 mov	 eax, DWORD PTR _this$[ebp]
  00b6c	8b 88 a8 a9 02
	00		 mov	 ecx, DWORD PTR [eax+174504]
  00b72	51		 push	 ecx
  00b73	ff 15 00 00 00
	00		 call	 DWORD PTR __imp__CheckMenuItem@12
  00b79	3b f4		 cmp	 esi, esp
  00b7b	e8 00 00 00 00	 call	 __RTC_CheckEsp

; 1692 : 						CheckMenuItem(m_hMenu, ID_VIEW_CAMERA_SHOWOFF, MF_UNCHECKED) ;

  00b80	8b f4		 mov	 esi, esp
  00b82	6a 00		 push	 0
  00b84	68 5d 9c 00 00	 push	 40029			; 00009c5dH
  00b89	8b 45 f4	 mov	 eax, DWORD PTR _this$[ebp]
  00b8c	8b 88 a8 a9 02
	00		 mov	 ecx, DWORD PTR [eax+174504]
  00b92	51		 push	 ecx
  00b93	ff 15 00 00 00
	00		 call	 DWORD PTR __imp__CheckMenuItem@12
  00b99	3b f4		 cmp	 esi, esp
  00b9b	e8 00 00 00 00	 call	 __RTC_CheckEsp

; 1693 : 						break ;

  00ba0	e9 a4 08 00 00	 jmp	 $L94246
$L94282:

; 1694 : 					case ID_VIEW_CAMERA_BEHINDVARIABLE3:
; 1695 : 						if (m_pTestRace)

  00ba5	8b 45 f4	 mov	 eax, DWORD PTR _this$[ebp]
  00ba8	83 b8 ec a8 02
	00 00		 cmp	 DWORD PTR [eax+174316], 0
  00baf	74 10		 je	 SHORT $L94283

; 1696 : 							m_pTestRace->m_ctCamMode = CT_BEHIND_VARIABLE3 ;

  00bb1	8b 45 f4	 mov	 eax, DWORD PTR _this$[ebp]
  00bb4	8b 88 ec a8 02
	00		 mov	 ecx, DWORD PTR [eax+174316]
  00bba	c7 41 6c 06 00
	00 00		 mov	 DWORD PTR [ecx+108], 6
$L94283:

; 1697 : 						CheckMenuItem(m_hMenu, ID_VIEW_CAMERA_FREE, MF_UNCHECKED) ;

  00bc1	8b f4		 mov	 esi, esp
  00bc3	6a 00		 push	 0
  00bc5	68 5c 9c 00 00	 push	 40028			; 00009c5cH
  00bca	8b 45 f4	 mov	 eax, DWORD PTR _this$[ebp]
  00bcd	8b 88 a8 a9 02
	00		 mov	 ecx, DWORD PTR [eax+174504]
  00bd3	51		 push	 ecx
  00bd4	ff 15 00 00 00
	00		 call	 DWORD PTR __imp__CheckMenuItem@12
  00bda	3b f4		 cmp	 esi, esp
  00bdc	e8 00 00 00 00	 call	 __RTC_CheckEsp

; 1698 : 						CheckMenuItem(m_hMenu, ID_VIEW_CAMERA_BEHINDFIXED1, MF_UNCHECKED) ;

  00be1	8b f4		 mov	 esi, esp
  00be3	6a 00		 push	 0
  00be5	68 61 9c 00 00	 push	 40033			; 00009c61H
  00bea	8b 45 f4	 mov	 eax, DWORD PTR _this$[ebp]
  00bed	8b 88 a8 a9 02
	00		 mov	 ecx, DWORD PTR [eax+174504]
  00bf3	51		 push	 ecx
  00bf4	ff 15 00 00 00
	00		 call	 DWORD PTR __imp__CheckMenuItem@12
  00bfa	3b f4		 cmp	 esi, esp
  00bfc	e8 00 00 00 00	 call	 __RTC_CheckEsp

; 1699 : 						CheckMenuItem(m_hMenu, ID_VIEW_CAMERA_BEHINDFIXED2, MF_UNCHECKED) ;

  00c01	8b f4		 mov	 esi, esp
  00c03	6a 00		 push	 0
  00c05	68 62 9c 00 00	 push	 40034			; 00009c62H
  00c0a	8b 45 f4	 mov	 eax, DWORD PTR _this$[ebp]
  00c0d	8b 88 a8 a9 02
	00		 mov	 ecx, DWORD PTR [eax+174504]
  00c13	51		 push	 ecx
  00c14	ff 15 00 00 00
	00		 call	 DWORD PTR __imp__CheckMenuItem@12
  00c1a	3b f4		 cmp	 esi, esp
  00c1c	e8 00 00 00 00	 call	 __RTC_CheckEsp

; 1700 : 						CheckMenuItem(m_hMenu, ID_VIEW_CAMERA_BEHINDFIXED3, MF_UNCHECKED) ;

  00c21	8b f4		 mov	 esi, esp
  00c23	6a 00		 push	 0
  00c25	68 63 9c 00 00	 push	 40035			; 00009c63H
  00c2a	8b 45 f4	 mov	 eax, DWORD PTR _this$[ebp]
  00c2d	8b 88 a8 a9 02
	00		 mov	 ecx, DWORD PTR [eax+174504]
  00c33	51		 push	 ecx
  00c34	ff 15 00 00 00
	00		 call	 DWORD PTR __imp__CheckMenuItem@12
  00c3a	3b f4		 cmp	 esi, esp
  00c3c	e8 00 00 00 00	 call	 __RTC_CheckEsp

; 1701 : 						CheckMenuItem(m_hMenu, ID_VIEW_CAMERA_BEHINDVARIABLE1, MF_UNCHECKED) ;

  00c41	8b f4		 mov	 esi, esp
  00c43	6a 00		 push	 0
  00c45	68 64 9c 00 00	 push	 40036			; 00009c64H
  00c4a	8b 45 f4	 mov	 eax, DWORD PTR _this$[ebp]
  00c4d	8b 88 a8 a9 02
	00		 mov	 ecx, DWORD PTR [eax+174504]
  00c53	51		 push	 ecx
  00c54	ff 15 00 00 00
	00		 call	 DWORD PTR __imp__CheckMenuItem@12
  00c5a	3b f4		 cmp	 esi, esp
  00c5c	e8 00 00 00 00	 call	 __RTC_CheckEsp

; 1702 : 						CheckMenuItem(m_hMenu, ID_VIEW_CAMERA_BEHINDVARIABLE2, MF_UNCHECKED) ;

  00c61	8b f4		 mov	 esi, esp
  00c63	6a 00		 push	 0
  00c65	68 65 9c 00 00	 push	 40037			; 00009c65H
  00c6a	8b 45 f4	 mov	 eax, DWORD PTR _this$[ebp]
  00c6d	8b 88 a8 a9 02
	00		 mov	 ecx, DWORD PTR [eax+174504]
  00c73	51		 push	 ecx
  00c74	ff 15 00 00 00
	00		 call	 DWORD PTR __imp__CheckMenuItem@12
  00c7a	3b f4		 cmp	 esi, esp
  00c7c	e8 00 00 00 00	 call	 __RTC_CheckEsp

; 1703 : 						CheckMenuItem(m_hMenu, ID_VIEW_CAMERA_BEHINDVARIABLE3, MF_CHECKED) ;

  00c81	8b f4		 mov	 esi, esp
  00c83	6a 08		 push	 8
  00c85	68 66 9c 00 00	 push	 40038			; 00009c66H
  00c8a	8b 45 f4	 mov	 eax, DWORD PTR _this$[ebp]
  00c8d	8b 88 a8 a9 02
	00		 mov	 ecx, DWORD PTR [eax+174504]
  00c93	51		 push	 ecx
  00c94	ff 15 00 00 00
	00		 call	 DWORD PTR __imp__CheckMenuItem@12
  00c9a	3b f4		 cmp	 esi, esp
  00c9c	e8 00 00 00 00	 call	 __RTC_CheckEsp

; 1704 : 						CheckMenuItem(m_hMenu, ID_VIEW_CAMERA_COCKPITFIXED, MF_UNCHECKED) ;

  00ca1	8b f4		 mov	 esi, esp
  00ca3	6a 00		 push	 0
  00ca5	68 5a 9c 00 00	 push	 40026			; 00009c5aH
  00caa	8b 45 f4	 mov	 eax, DWORD PTR _this$[ebp]
  00cad	8b 88 a8 a9 02
	00		 mov	 ecx, DWORD PTR [eax+174504]
  00cb3	51		 push	 ecx
  00cb4	ff 15 00 00 00
	00		 call	 DWORD PTR __imp__CheckMenuItem@12
  00cba	3b f4		 cmp	 esi, esp
  00cbc	e8 00 00 00 00	 call	 __RTC_CheckEsp

; 1705 : 						CheckMenuItem(m_hMenu, ID_VIEW_CAMERA_COCKPITROLL, MF_UNCHECKED) ;

  00cc1	8b f4		 mov	 esi, esp
  00cc3	6a 00		 push	 0
  00cc5	68 67 9c 00 00	 push	 40039			; 00009c67H
  00cca	8b 45 f4	 mov	 eax, DWORD PTR _this$[ebp]
  00ccd	8b 88 a8 a9 02
	00		 mov	 ecx, DWORD PTR [eax+174504]
  00cd3	51		 push	 ecx
  00cd4	ff 15 00 00 00
	00		 call	 DWORD PTR __imp__CheckMenuItem@12
  00cda	3b f4		 cmp	 esi, esp
  00cdc	e8 00 00 00 00	 call	 __RTC_CheckEsp

; 1706 : 						CheckMenuItem(m_hMenu, ID_VIEW_CAMERA_SHOWOFF, MF_UNCHECKED) ;

  00ce1	8b f4		 mov	 esi, esp
  00ce3	6a 00		 push	 0
  00ce5	68 5d 9c 00 00	 push	 40029			; 00009c5dH
  00cea	8b 45 f4	 mov	 eax, DWORD PTR _this$[ebp]
  00ced	8b 88 a8 a9 02
	00		 mov	 ecx, DWORD PTR [eax+174504]
  00cf3	51		 push	 ecx
  00cf4	ff 15 00 00 00
	00		 call	 DWORD PTR __imp__CheckMenuItem@12
  00cfa	3b f4		 cmp	 esi, esp
  00cfc	e8 00 00 00 00	 call	 __RTC_CheckEsp

; 1707 : 						break ;

  00d01	e9 43 07 00 00	 jmp	 $L94246
$L94284:

; 1708 : 					case ID_VIEW_CAMERA_COCKPITFIXED:
; 1709 : 						if (m_pTestRace)

  00d06	8b 45 f4	 mov	 eax, DWORD PTR _this$[ebp]
  00d09	83 b8 ec a8 02
	00 00		 cmp	 DWORD PTR [eax+174316], 0
  00d10	74 10		 je	 SHORT $L94285

; 1710 : 							m_pTestRace->m_ctCamMode = CT_COCKPIT_FIXED ;

  00d12	8b 45 f4	 mov	 eax, DWORD PTR _this$[ebp]
  00d15	8b 88 ec a8 02
	00		 mov	 ecx, DWORD PTR [eax+174316]
  00d1b	c7 41 6c 07 00
	00 00		 mov	 DWORD PTR [ecx+108], 7
$L94285:

; 1711 : 						CheckMenuItem(m_hMenu, ID_VIEW_CAMERA_FREE, MF_UNCHECKED) ;

  00d22	8b f4		 mov	 esi, esp
  00d24	6a 00		 push	 0
  00d26	68 5c 9c 00 00	 push	 40028			; 00009c5cH
  00d2b	8b 45 f4	 mov	 eax, DWORD PTR _this$[ebp]
  00d2e	8b 88 a8 a9 02
	00		 mov	 ecx, DWORD PTR [eax+174504]
  00d34	51		 push	 ecx
  00d35	ff 15 00 00 00
	00		 call	 DWORD PTR __imp__CheckMenuItem@12
  00d3b	3b f4		 cmp	 esi, esp
  00d3d	e8 00 00 00 00	 call	 __RTC_CheckEsp

; 1712 : 						CheckMenuItem(m_hMenu, ID_VIEW_CAMERA_BEHINDFIXED1, MF_UNCHECKED) ;

  00d42	8b f4		 mov	 esi, esp
  00d44	6a 00		 push	 0
  00d46	68 61 9c 00 00	 push	 40033			; 00009c61H
  00d4b	8b 45 f4	 mov	 eax, DWORD PTR _this$[ebp]
  00d4e	8b 88 a8 a9 02
	00		 mov	 ecx, DWORD PTR [eax+174504]
  00d54	51		 push	 ecx
  00d55	ff 15 00 00 00
	00		 call	 DWORD PTR __imp__CheckMenuItem@12
  00d5b	3b f4		 cmp	 esi, esp
  00d5d	e8 00 00 00 00	 call	 __RTC_CheckEsp

; 1713 : 						CheckMenuItem(m_hMenu, ID_VIEW_CAMERA_BEHINDFIXED2, MF_UNCHECKED) ;

  00d62	8b f4		 mov	 esi, esp
  00d64	6a 00		 push	 0
  00d66	68 62 9c 00 00	 push	 40034			; 00009c62H
  00d6b	8b 45 f4	 mov	 eax, DWORD PTR _this$[ebp]
  00d6e	8b 88 a8 a9 02
	00		 mov	 ecx, DWORD PTR [eax+174504]
  00d74	51		 push	 ecx
  00d75	ff 15 00 00 00
	00		 call	 DWORD PTR __imp__CheckMenuItem@12
  00d7b	3b f4		 cmp	 esi, esp
  00d7d	e8 00 00 00 00	 call	 __RTC_CheckEsp

; 1714 : 						CheckMenuItem(m_hMenu, ID_VIEW_CAMERA_BEHINDFIXED3, MF_UNCHECKED) ;

  00d82	8b f4		 mov	 esi, esp
  00d84	6a 00		 push	 0
  00d86	68 63 9c 00 00	 push	 40035			; 00009c63H
  00d8b	8b 45 f4	 mov	 eax, DWORD PTR _this$[ebp]
  00d8e	8b 88 a8 a9 02
	00		 mov	 ecx, DWORD PTR [eax+174504]
  00d94	51		 push	 ecx
  00d95	ff 15 00 00 00
	00		 call	 DWORD PTR __imp__CheckMenuItem@12
  00d9b	3b f4		 cmp	 esi, esp
  00d9d	e8 00 00 00 00	 call	 __RTC_CheckEsp

; 1715 : 						CheckMenuItem(m_hMenu, ID_VIEW_CAMERA_BEHINDVARIABLE1, MF_UNCHECKED) ;

  00da2	8b f4		 mov	 esi, esp
  00da4	6a 00		 push	 0
  00da6	68 64 9c 00 00	 push	 40036			; 00009c64H
  00dab	8b 45 f4	 mov	 eax, DWORD PTR _this$[ebp]
  00dae	8b 88 a8 a9 02
	00		 mov	 ecx, DWORD PTR [eax+174504]
  00db4	51		 push	 ecx
  00db5	ff 15 00 00 00
	00		 call	 DWORD PTR __imp__CheckMenuItem@12
  00dbb	3b f4		 cmp	 esi, esp
  00dbd	e8 00 00 00 00	 call	 __RTC_CheckEsp

; 1716 : 						CheckMenuItem(m_hMenu, ID_VIEW_CAMERA_BEHINDVARIABLE2, MF_UNCHECKED) ;

  00dc2	8b f4		 mov	 esi, esp
  00dc4	6a 00		 push	 0
  00dc6	68 65 9c 00 00	 push	 40037			; 00009c65H
  00dcb	8b 45 f4	 mov	 eax, DWORD PTR _this$[ebp]
  00dce	8b 88 a8 a9 02
	00		 mov	 ecx, DWORD PTR [eax+174504]
  00dd4	51		 push	 ecx
  00dd5	ff 15 00 00 00
	00		 call	 DWORD PTR __imp__CheckMenuItem@12
  00ddb	3b f4		 cmp	 esi, esp
  00ddd	e8 00 00 00 00	 call	 __RTC_CheckEsp

; 1717 : 						CheckMenuItem(m_hMenu, ID_VIEW_CAMERA_BEHINDVARIABLE3, MF_UNCHECKED) ;

  00de2	8b f4		 mov	 esi, esp
  00de4	6a 00		 push	 0
  00de6	68 66 9c 00 00	 push	 40038			; 00009c66H
  00deb	8b 45 f4	 mov	 eax, DWORD PTR _this$[ebp]
  00dee	8b 88 a8 a9 02
	00		 mov	 ecx, DWORD PTR [eax+174504]
  00df4	51		 push	 ecx
  00df5	ff 15 00 00 00
	00		 call	 DWORD PTR __imp__CheckMenuItem@12
  00dfb	3b f4		 cmp	 esi, esp
  00dfd	e8 00 00 00 00	 call	 __RTC_CheckEsp

; 1718 : 						CheckMenuItem(m_hMenu, ID_VIEW_CAMERA_COCKPITFIXED, MF_CHECKED) ;

  00e02	8b f4		 mov	 esi, esp
  00e04	6a 08		 push	 8
  00e06	68 5a 9c 00 00	 push	 40026			; 00009c5aH
  00e0b	8b 45 f4	 mov	 eax, DWORD PTR _this$[ebp]
  00e0e	8b 88 a8 a9 02
	00		 mov	 ecx, DWORD PTR [eax+174504]
  00e14	51		 push	 ecx
  00e15	ff 15 00 00 00
	00		 call	 DWORD PTR __imp__CheckMenuItem@12
  00e1b	3b f4		 cmp	 esi, esp
  00e1d	e8 00 00 00 00	 call	 __RTC_CheckEsp

; 1719 : 						CheckMenuItem(m_hMenu, ID_VIEW_CAMERA_COCKPITROLL, MF_UNCHECKED) ;

  00e22	8b f4		 mov	 esi, esp
  00e24	6a 00		 push	 0
  00e26	68 67 9c 00 00	 push	 40039			; 00009c67H
  00e2b	8b 45 f4	 mov	 eax, DWORD PTR _this$[ebp]
  00e2e	8b 88 a8 a9 02
	00		 mov	 ecx, DWORD PTR [eax+174504]
  00e34	51		 push	 ecx
  00e35	ff 15 00 00 00
	00		 call	 DWORD PTR __imp__CheckMenuItem@12
  00e3b	3b f4		 cmp	 esi, esp
  00e3d	e8 00 00 00 00	 call	 __RTC_CheckEsp

; 1720 : 						CheckMenuItem(m_hMenu, ID_VIEW_CAMERA_SHOWOFF, MF_UNCHECKED) ;

  00e42	8b f4		 mov	 esi, esp
  00e44	6a 00		 push	 0
  00e46	68 5d 9c 00 00	 push	 40029			; 00009c5dH
  00e4b	8b 45 f4	 mov	 eax, DWORD PTR _this$[ebp]
  00e4e	8b 88 a8 a9 02
	00		 mov	 ecx, DWORD PTR [eax+174504]
  00e54	51		 push	 ecx
  00e55	ff 15 00 00 00
	00		 call	 DWORD PTR __imp__CheckMenuItem@12
  00e5b	3b f4		 cmp	 esi, esp
  00e5d	e8 00 00 00 00	 call	 __RTC_CheckEsp

; 1721 : 						break ;

  00e62	e9 e2 05 00 00	 jmp	 $L94246
$L94286:

; 1722 : 					case ID_VIEW_CAMERA_COCKPITROLL:
; 1723 : 						if (m_pTestRace)

  00e67	8b 45 f4	 mov	 eax, DWORD PTR _this$[ebp]
  00e6a	83 b8 ec a8 02
	00 00		 cmp	 DWORD PTR [eax+174316], 0
  00e71	74 10		 je	 SHORT $L94287

; 1724 : 							m_pTestRace->m_ctCamMode = CT_COCKPIT_ROLL ;

  00e73	8b 45 f4	 mov	 eax, DWORD PTR _this$[ebp]
  00e76	8b 88 ec a8 02
	00		 mov	 ecx, DWORD PTR [eax+174316]
  00e7c	c7 41 6c 08 00
	00 00		 mov	 DWORD PTR [ecx+108], 8
$L94287:

; 1725 : 						CheckMenuItem(m_hMenu, ID_VIEW_CAMERA_FREE, MF_UNCHECKED) ;

  00e83	8b f4		 mov	 esi, esp
  00e85	6a 00		 push	 0
  00e87	68 5c 9c 00 00	 push	 40028			; 00009c5cH
  00e8c	8b 45 f4	 mov	 eax, DWORD PTR _this$[ebp]
  00e8f	8b 88 a8 a9 02
	00		 mov	 ecx, DWORD PTR [eax+174504]
  00e95	51		 push	 ecx
  00e96	ff 15 00 00 00
	00		 call	 DWORD PTR __imp__CheckMenuItem@12
  00e9c	3b f4		 cmp	 esi, esp
  00e9e	e8 00 00 00 00	 call	 __RTC_CheckEsp

; 1726 : 						CheckMenuItem(m_hMenu, ID_VIEW_CAMERA_BEHINDFIXED1, MF_UNCHECKED) ;

  00ea3	8b f4		 mov	 esi, esp
  00ea5	6a 00		 push	 0
  00ea7	68 61 9c 00 00	 push	 40033			; 00009c61H
  00eac	8b 45 f4	 mov	 eax, DWORD PTR _this$[ebp]
  00eaf	8b 88 a8 a9 02
	00		 mov	 ecx, DWORD PTR [eax+174504]
  00eb5	51		 push	 ecx
  00eb6	ff 15 00 00 00
	00		 call	 DWORD PTR __imp__CheckMenuItem@12
  00ebc	3b f4		 cmp	 esi, esp
  00ebe	e8 00 00 00 00	 call	 __RTC_CheckEsp

; 1727 : 						CheckMenuItem(m_hMenu, ID_VIEW_CAMERA_BEHINDFIXED2, MF_UNCHECKED) ;

  00ec3	8b f4		 mov	 esi, esp
  00ec5	6a 00		 push	 0
  00ec7	68 62 9c 00 00	 push	 40034			; 00009c62H
  00ecc	8b 45 f4	 mov	 eax, DWORD PTR _this$[ebp]
  00ecf	8b 88 a8 a9 02
	00		 mov	 ecx, DWORD PTR [eax+174504]
  00ed5	51		 push	 ecx
  00ed6	ff 15 00 00 00
	00		 call	 DWORD PTR __imp__CheckMenuItem@12
  00edc	3b f4		 cmp	 esi, esp
  00ede	e8 00 00 00 00	 call	 __RTC_CheckEsp

; 1728 : 						CheckMenuItem(m_hMenu, ID_VIEW_CAMERA_BEHINDFIXED3, MF_UNCHECKED) ;

  00ee3	8b f4		 mov	 esi, esp
  00ee5	6a 00		 push	 0
  00ee7	68 63 9c 00 00	 push	 40035			; 00009c63H
  00eec	8b 45 f4	 mov	 eax, DWORD PTR _this$[ebp]
  00eef	8b 88 a8 a9 02
	00		 mov	 ecx, DWORD PTR [eax+174504]
  00ef5	51		 push	 ecx
  00ef6	ff 15 00 00 00
	00		 call	 DWORD PTR __imp__CheckMenuItem@12
  00efc	3b f4		 cmp	 esi, esp
  00efe	e8 00 00 00 00	 call	 __RTC_CheckEsp

; 1729 : 						CheckMenuItem(m_hMenu, ID_VIEW_CAMERA_BEHINDVARIABLE1, MF_UNCHECKED) ;

  00f03	8b f4		 mov	 esi, esp
  00f05	6a 00		 push	 0
  00f07	68 64 9c 00 00	 push	 40036			; 00009c64H
  00f0c	8b 45 f4	 mov	 eax, DWORD PTR _this$[ebp]
  00f0f	8b 88 a8 a9 02
	00		 mov	 ecx, DWORD PTR [eax+174504]
  00f15	51		 push	 ecx
  00f16	ff 15 00 00 00
	00		 call	 DWORD PTR __imp__CheckMenuItem@12
  00f1c	3b f4		 cmp	 esi, esp
  00f1e	e8 00 00 00 00	 call	 __RTC_CheckEsp

; 1730 : 						CheckMenuItem(m_hMenu, ID_VIEW_CAMERA_BEHINDVARIABLE2, MF_UNCHECKED) ;

  00f23	8b f4		 mov	 esi, esp
  00f25	6a 00		 push	 0
  00f27	68 65 9c 00 00	 push	 40037			; 00009c65H
  00f2c	8b 45 f4	 mov	 eax, DWORD PTR _this$[ebp]
  00f2f	8b 88 a8 a9 02
	00		 mov	 ecx, DWORD PTR [eax+174504]
  00f35	51		 push	 ecx
  00f36	ff 15 00 00 00
	00		 call	 DWORD PTR __imp__CheckMenuItem@12
  00f3c	3b f4		 cmp	 esi, esp
  00f3e	e8 00 00 00 00	 call	 __RTC_CheckEsp

; 1731 : 						CheckMenuItem(m_hMenu, ID_VIEW_CAMERA_BEHINDVARIABLE3, MF_UNCHECKED) ;

  00f43	8b f4		 mov	 esi, esp
  00f45	6a 00		 push	 0
  00f47	68 66 9c 00 00	 push	 40038			; 00009c66H
  00f4c	8b 45 f4	 mov	 eax, DWORD PTR _this$[ebp]
  00f4f	8b 88 a8 a9 02
	00		 mov	 ecx, DWORD PTR [eax+174504]
  00f55	51		 push	 ecx
  00f56	ff 15 00 00 00
	00		 call	 DWORD PTR __imp__CheckMenuItem@12
  00f5c	3b f4		 cmp	 esi, esp
  00f5e	e8 00 00 00 00	 call	 __RTC_CheckEsp

; 1732 : 						CheckMenuItem(m_hMenu, ID_VIEW_CAMERA_COCKPITFIXED, MF_UNCHECKED) ;

  00f63	8b f4		 mov	 esi, esp
  00f65	6a 00		 push	 0
  00f67	68 5a 9c 00 00	 push	 40026			; 00009c5aH
  00f6c	8b 45 f4	 mov	 eax, DWORD PTR _this$[ebp]
  00f6f	8b 88 a8 a9 02
	00		 mov	 ecx, DWORD PTR [eax+174504]
  00f75	51		 push	 ecx
  00f76	ff 15 00 00 00
	00		 call	 DWORD PTR __imp__CheckMenuItem@12
  00f7c	3b f4		 cmp	 esi, esp
  00f7e	e8 00 00 00 00	 call	 __RTC_CheckEsp

; 1733 : 						CheckMenuItem(m_hMenu, ID_VIEW_CAMERA_COCKPITROLL, MF_CHECKED) ;

  00f83	8b f4		 mov	 esi, esp
  00f85	6a 08		 push	 8
  00f87	68 67 9c 00 00	 push	 40039			; 00009c67H
  00f8c	8b 45 f4	 mov	 eax, DWORD PTR _this$[ebp]
  00f8f	8b 88 a8 a9 02
	00		 mov	 ecx, DWORD PTR [eax+174504]
  00f95	51		 push	 ecx
  00f96	ff 15 00 00 00
	00		 call	 DWORD PTR __imp__CheckMenuItem@12
  00f9c	3b f4		 cmp	 esi, esp
  00f9e	e8 00 00 00 00	 call	 __RTC_CheckEsp

; 1734 : 						CheckMenuItem(m_hMenu, ID_VIEW_CAMERA_SHOWOFF, MF_UNCHECKED) ;

  00fa3	8b f4		 mov	 esi, esp
  00fa5	6a 00		 push	 0
  00fa7	68 5d 9c 00 00	 push	 40029			; 00009c5dH
  00fac	8b 45 f4	 mov	 eax, DWORD PTR _this$[ebp]
  00faf	8b 88 a8 a9 02
	00		 mov	 ecx, DWORD PTR [eax+174504]
  00fb5	51		 push	 ecx
  00fb6	ff 15 00 00 00
	00		 call	 DWORD PTR __imp__CheckMenuItem@12
  00fbc	3b f4		 cmp	 esi, esp
  00fbe	e8 00 00 00 00	 call	 __RTC_CheckEsp

; 1735 : 						break ;

  00fc3	e9 81 04 00 00	 jmp	 $L94246
$L94288:

; 1736 : 					case ID_VIEW_CAMERA_SHOWOFF:
; 1737 : 						if (m_pTestRace)

  00fc8	8b 45 f4	 mov	 eax, DWORD PTR _this$[ebp]
  00fcb	83 b8 ec a8 02
	00 00		 cmp	 DWORD PTR [eax+174316], 0
  00fd2	74 10		 je	 SHORT $L94289

; 1738 : 							m_pTestRace->m_ctCamMode = CT_SHOWOFF ;

  00fd4	8b 45 f4	 mov	 eax, DWORD PTR _this$[ebp]
  00fd7	8b 88 ec a8 02
	00		 mov	 ecx, DWORD PTR [eax+174316]
  00fdd	c7 41 6c 09 00
	00 00		 mov	 DWORD PTR [ecx+108], 9
$L94289:

; 1739 : 						CheckMenuItem(m_hMenu, ID_VIEW_CAMERA_FREE, MF_UNCHECKED) ;

  00fe4	8b f4		 mov	 esi, esp
  00fe6	6a 00		 push	 0
  00fe8	68 5c 9c 00 00	 push	 40028			; 00009c5cH
  00fed	8b 45 f4	 mov	 eax, DWORD PTR _this$[ebp]
  00ff0	8b 88 a8 a9 02
	00		 mov	 ecx, DWORD PTR [eax+174504]
  00ff6	51		 push	 ecx
  00ff7	ff 15 00 00 00
	00		 call	 DWORD PTR __imp__CheckMenuItem@12
  00ffd	3b f4		 cmp	 esi, esp
  00fff	e8 00 00 00 00	 call	 __RTC_CheckEsp

; 1740 : 						CheckMenuItem(m_hMenu, ID_VIEW_CAMERA_BEHINDFIXED1, MF_CHECKED) ;

  01004	8b f4		 mov	 esi, esp
  01006	6a 08		 push	 8
  01008	68 61 9c 00 00	 push	 40033			; 00009c61H
  0100d	8b 45 f4	 mov	 eax, DWORD PTR _this$[ebp]
  01010	8b 88 a8 a9 02
	00		 mov	 ecx, DWORD PTR [eax+174504]
  01016	51		 push	 ecx
  01017	ff 15 00 00 00
	00		 call	 DWORD PTR __imp__CheckMenuItem@12
  0101d	3b f4		 cmp	 esi, esp
  0101f	e8 00 00 00 00	 call	 __RTC_CheckEsp

; 1741 : 						CheckMenuItem(m_hMenu, ID_VIEW_CAMERA_BEHINDFIXED2, MF_UNCHECKED) ;

  01024	8b f4		 mov	 esi, esp
  01026	6a 00		 push	 0
  01028	68 62 9c 00 00	 push	 40034			; 00009c62H
  0102d	8b 45 f4	 mov	 eax, DWORD PTR _this$[ebp]
  01030	8b 88 a8 a9 02
	00		 mov	 ecx, DWORD PTR [eax+174504]
  01036	51		 push	 ecx
  01037	ff 15 00 00 00
	00		 call	 DWORD PTR __imp__CheckMenuItem@12
  0103d	3b f4		 cmp	 esi, esp
  0103f	e8 00 00 00 00	 call	 __RTC_CheckEsp

; 1742 : 						CheckMenuItem(m_hMenu, ID_VIEW_CAMERA_BEHINDFIXED3, MF_UNCHECKED) ;

  01044	8b f4		 mov	 esi, esp
  01046	6a 00		 push	 0
  01048	68 63 9c 00 00	 push	 40035			; 00009c63H
  0104d	8b 45 f4	 mov	 eax, DWORD PTR _this$[ebp]
  01050	8b 88 a8 a9 02
	00		 mov	 ecx, DWORD PTR [eax+174504]
  01056	51		 push	 ecx
  01057	ff 15 00 00 00
	00		 call	 DWORD PTR __imp__CheckMenuItem@12
  0105d	3b f4		 cmp	 esi, esp
  0105f	e8 00 00 00 00	 call	 __RTC_CheckEsp

; 1743 : 						CheckMenuItem(m_hMenu, ID_VIEW_CAMERA_BEHINDVARIABLE1, MF_UNCHECKED) ;

  01064	8b f4		 mov	 esi, esp
  01066	6a 00		 push	 0
  01068	68 64 9c 00 00	 push	 40036			; 00009c64H
  0106d	8b 45 f4	 mov	 eax, DWORD PTR _this$[ebp]
  01070	8b 88 a8 a9 02
	00		 mov	 ecx, DWORD PTR [eax+174504]
  01076	51		 push	 ecx
  01077	ff 15 00 00 00
	00		 call	 DWORD PTR __imp__CheckMenuItem@12
  0107d	3b f4		 cmp	 esi, esp
  0107f	e8 00 00 00 00	 call	 __RTC_CheckEsp

; 1744 : 						CheckMenuItem(m_hMenu, ID_VIEW_CAMERA_BEHINDVARIABLE2, MF_UNCHECKED) ;

  01084	8b f4		 mov	 esi, esp
  01086	6a 00		 push	 0
  01088	68 65 9c 00 00	 push	 40037			; 00009c65H
  0108d	8b 45 f4	 mov	 eax, DWORD PTR _this$[ebp]
  01090	8b 88 a8 a9 02
	00		 mov	 ecx, DWORD PTR [eax+174504]
  01096	51		 push	 ecx
  01097	ff 15 00 00 00
	00		 call	 DWORD PTR __imp__CheckMenuItem@12
  0109d	3b f4		 cmp	 esi, esp
  0109f	e8 00 00 00 00	 call	 __RTC_CheckEsp

; 1745 : 						CheckMenuItem(m_hMenu, ID_VIEW_CAMERA_BEHINDVARIABLE3, MF_UNCHECKED) ;

  010a4	8b f4		 mov	 esi, esp
  010a6	6a 00		 push	 0
  010a8	68 66 9c 00 00	 push	 40038			; 00009c66H
  010ad	8b 45 f4	 mov	 eax, DWORD PTR _this$[ebp]
  010b0	8b 88 a8 a9 02
	00		 mov	 ecx, DWORD PTR [eax+174504]
  010b6	51		 push	 ecx
  010b7	ff 15 00 00 00
	00		 call	 DWORD PTR __imp__CheckMenuItem@12
  010bd	3b f4		 cmp	 esi, esp
  010bf	e8 00 00 00 00	 call	 __RTC_CheckEsp

; 1746 : 						CheckMenuItem(m_hMenu, ID_VIEW_CAMERA_COCKPITFIXED, MF_UNCHECKED) ;

  010c4	8b f4		 mov	 esi, esp
  010c6	6a 00		 push	 0
  010c8	68 5a 9c 00 00	 push	 40026			; 00009c5aH
  010cd	8b 45 f4	 mov	 eax, DWORD PTR _this$[ebp]
  010d0	8b 88 a8 a9 02
	00		 mov	 ecx, DWORD PTR [eax+174504]
  010d6	51		 push	 ecx
  010d7	ff 15 00 00 00
	00		 call	 DWORD PTR __imp__CheckMenuItem@12
  010dd	3b f4		 cmp	 esi, esp
  010df	e8 00 00 00 00	 call	 __RTC_CheckEsp

; 1747 : 						CheckMenuItem(m_hMenu, ID_VIEW_CAMERA_COCKPITROLL, MF_UNCHECKED) ;

  010e4	8b f4		 mov	 esi, esp
  010e6	6a 00		 push	 0
  010e8	68 67 9c 00 00	 push	 40039			; 00009c67H
  010ed	8b 45 f4	 mov	 eax, DWORD PTR _this$[ebp]
  010f0	8b 88 a8 a9 02
	00		 mov	 ecx, DWORD PTR [eax+174504]
  010f6	51		 push	 ecx
  010f7	ff 15 00 00 00
	00		 call	 DWORD PTR __imp__CheckMenuItem@12
  010fd	3b f4		 cmp	 esi, esp
  010ff	e8 00 00 00 00	 call	 __RTC_CheckEsp

; 1748 : 						CheckMenuItem(m_hMenu, ID_VIEW_CAMERA_SHOWOFF, MF_CHECKED) ;

  01104	8b f4		 mov	 esi, esp
  01106	6a 08		 push	 8
  01108	68 5d 9c 00 00	 push	 40029			; 00009c5dH
  0110d	8b 45 f4	 mov	 eax, DWORD PTR _this$[ebp]
  01110	8b 88 a8 a9 02
	00		 mov	 ecx, DWORD PTR [eax+174504]
  01116	51		 push	 ecx
  01117	ff 15 00 00 00
	00		 call	 DWORD PTR __imp__CheckMenuItem@12
  0111d	3b f4		 cmp	 esi, esp
  0111f	e8 00 00 00 00	 call	 __RTC_CheckEsp

; 1749 : 						break ;

  01124	e9 20 03 00 00	 jmp	 $L94246
$L94290:

; 1750 : 
; 1751 : 					case ID_VIEW_FIGHTER_NORMAL:
; 1752 : 						if (m_pTestRace)

  01129	8b 45 f4	 mov	 eax, DWORD PTR _this$[ebp]
  0112c	83 b8 ec a8 02
	00 00		 cmp	 DWORD PTR [eax+174316], 0
  01133	74 13		 je	 SHORT $L94291

; 1753 : 							m_pTestRace->m_pFighter->m_rtFighterMode = FRT_NORMAL ;

  01135	8b 45 f4	 mov	 eax, DWORD PTR _this$[ebp]
  01138	8b 88 ec a8 02
	00		 mov	 ecx, DWORD PTR [eax+174316]
  0113e	8b 51 30	 mov	 edx, DWORD PTR [ecx+48]
  01141	c7 42 08 00 00
	00 00		 mov	 DWORD PTR [edx+8], 0
$L94291:

; 1754 : 						CheckMenuItem(m_hMenu, ID_VIEW_FIGHTER_NORMAL, MF_CHECKED) ;

  01148	8b f4		 mov	 esi, esp
  0114a	6a 08		 push	 8
  0114c	68 5e 9c 00 00	 push	 40030			; 00009c5eH
  01151	8b 45 f4	 mov	 eax, DWORD PTR _this$[ebp]
  01154	8b 88 a8 a9 02
	00		 mov	 ecx, DWORD PTR [eax+174504]
  0115a	51		 push	 ecx
  0115b	ff 15 00 00 00
	00		 call	 DWORD PTR __imp__CheckMenuItem@12
  01161	3b f4		 cmp	 esi, esp
  01163	e8 00 00 00 00	 call	 __RTC_CheckEsp

; 1755 : 						CheckMenuItem(m_hMenu, ID_VIEW_FIGHTER_CHROME, MF_UNCHECKED) ;

  01168	8b f4		 mov	 esi, esp
  0116a	6a 00		 push	 0
  0116c	68 5f 9c 00 00	 push	 40031			; 00009c5fH
  01171	8b 45 f4	 mov	 eax, DWORD PTR _this$[ebp]
  01174	8b 88 a8 a9 02
	00		 mov	 ecx, DWORD PTR [eax+174504]
  0117a	51		 push	 ecx
  0117b	ff 15 00 00 00
	00		 call	 DWORD PTR __imp__CheckMenuItem@12
  01181	3b f4		 cmp	 esi, esp
  01183	e8 00 00 00 00	 call	 __RTC_CheckEsp

; 1756 : 						CheckMenuItem(m_hMenu, ID_VIEW_FIGHTER_GLASS, MF_UNCHECKED) ;

  01188	8b f4		 mov	 esi, esp
  0118a	6a 00		 push	 0
  0118c	68 60 9c 00 00	 push	 40032			; 00009c60H
  01191	8b 45 f4	 mov	 eax, DWORD PTR _this$[ebp]
  01194	8b 88 a8 a9 02
	00		 mov	 ecx, DWORD PTR [eax+174504]
  0119a	51		 push	 ecx
  0119b	ff 15 00 00 00
	00		 call	 DWORD PTR __imp__CheckMenuItem@12
  011a1	3b f4		 cmp	 esi, esp
  011a3	e8 00 00 00 00	 call	 __RTC_CheckEsp

; 1757 : 						CheckMenuItem(m_hMenu, ID_VIEW_FIGHTER_VERTEXSHADER1, MF_UNCHECKED) ;

  011a8	8b f4		 mov	 esi, esp
  011aa	6a 00		 push	 0
  011ac	68 69 9c 00 00	 push	 40041			; 00009c69H
  011b1	8b 45 f4	 mov	 eax, DWORD PTR _this$[ebp]
  011b4	8b 88 a8 a9 02
	00		 mov	 ecx, DWORD PTR [eax+174504]
  011ba	51		 push	 ecx
  011bb	ff 15 00 00 00
	00		 call	 DWORD PTR __imp__CheckMenuItem@12
  011c1	3b f4		 cmp	 esi, esp
  011c3	e8 00 00 00 00	 call	 __RTC_CheckEsp

; 1758 : 						break ;

  011c8	e9 7c 02 00 00	 jmp	 $L94246
$L94292:

; 1759 : 					case ID_VIEW_FIGHTER_CHROME:
; 1760 : 						if (m_pTestRace)

  011cd	8b 45 f4	 mov	 eax, DWORD PTR _this$[ebp]
  011d0	83 b8 ec a8 02
	00 00		 cmp	 DWORD PTR [eax+174316], 0
  011d7	74 13		 je	 SHORT $L94293

; 1761 : 							m_pTestRace->m_pFighter->m_rtFighterMode = FRT_CHROME ;

  011d9	8b 45 f4	 mov	 eax, DWORD PTR _this$[ebp]
  011dc	8b 88 ec a8 02
	00		 mov	 ecx, DWORD PTR [eax+174316]
  011e2	8b 51 30	 mov	 edx, DWORD PTR [ecx+48]
  011e5	c7 42 08 01 00
	00 00		 mov	 DWORD PTR [edx+8], 1
$L94293:

; 1762 : 						CheckMenuItem(m_hMenu, ID_VIEW_FIGHTER_CHROME, MF_CHECKED) ;

  011ec	8b f4		 mov	 esi, esp
  011ee	6a 08		 push	 8
  011f0	68 5f 9c 00 00	 push	 40031			; 00009c5fH
  011f5	8b 45 f4	 mov	 eax, DWORD PTR _this$[ebp]
  011f8	8b 88 a8 a9 02
	00		 mov	 ecx, DWORD PTR [eax+174504]
  011fe	51		 push	 ecx
  011ff	ff 15 00 00 00
	00		 call	 DWORD PTR __imp__CheckMenuItem@12
  01205	3b f4		 cmp	 esi, esp
  01207	e8 00 00 00 00	 call	 __RTC_CheckEsp

; 1763 : 						CheckMenuItem(m_hMenu, ID_VIEW_FIGHTER_NORMAL, MF_UNCHECKED) ;

  0120c	8b f4		 mov	 esi, esp
  0120e	6a 00		 push	 0
  01210	68 5e 9c 00 00	 push	 40030			; 00009c5eH
  01215	8b 45 f4	 mov	 eax, DWORD PTR _this$[ebp]
  01218	8b 88 a8 a9 02
	00		 mov	 ecx, DWORD PTR [eax+174504]
  0121e	51		 push	 ecx
  0121f	ff 15 00 00 00
	00		 call	 DWORD PTR __imp__CheckMenuItem@12
  01225	3b f4		 cmp	 esi, esp
  01227	e8 00 00 00 00	 call	 __RTC_CheckEsp

; 1764 : 						CheckMenuItem(m_hMenu, ID_VIEW_FIGHTER_GLASS, MF_UNCHECKED) ;

  0122c	8b f4		 mov	 esi, esp
  0122e	6a 00		 push	 0
  01230	68 60 9c 00 00	 push	 40032			; 00009c60H
  01235	8b 45 f4	 mov	 eax, DWORD PTR _this$[ebp]
  01238	8b 88 a8 a9 02
	00		 mov	 ecx, DWORD PTR [eax+174504]
  0123e	51		 push	 ecx
  0123f	ff 15 00 00 00
	00		 call	 DWORD PTR __imp__CheckMenuItem@12
  01245	3b f4		 cmp	 esi, esp
  01247	e8 00 00 00 00	 call	 __RTC_CheckEsp

; 1765 : 						CheckMenuItem(m_hMenu, ID_VIEW_FIGHTER_VERTEXSHADER1, MF_UNCHECKED) ;

  0124c	8b f4		 mov	 esi, esp
  0124e	6a 00		 push	 0
  01250	68 69 9c 00 00	 push	 40041			; 00009c69H
  01255	8b 45 f4	 mov	 eax, DWORD PTR _this$[ebp]
  01258	8b 88 a8 a9 02
	00		 mov	 ecx, DWORD PTR [eax+174504]
  0125e	51		 push	 ecx
  0125f	ff 15 00 00 00
	00		 call	 DWORD PTR __imp__CheckMenuItem@12
  01265	3b f4		 cmp	 esi, esp
  01267	e8 00 00 00 00	 call	 __RTC_CheckEsp

; 1766 : 						break ;

  0126c	e9 d8 01 00 00	 jmp	 $L94246
$L94294:

; 1767 : 					case ID_VIEW_FIGHTER_GLASS:
; 1768 : 						if (m_pTestRace)

  01271	8b 45 f4	 mov	 eax, DWORD PTR _this$[ebp]
  01274	83 b8 ec a8 02
	00 00		 cmp	 DWORD PTR [eax+174316], 0
  0127b	74 13		 je	 SHORT $L94295

; 1769 : 							m_pTestRace->m_pFighter->m_rtFighterMode = FRT_GLASS ;

  0127d	8b 45 f4	 mov	 eax, DWORD PTR _this$[ebp]
  01280	8b 88 ec a8 02
	00		 mov	 ecx, DWORD PTR [eax+174316]
  01286	8b 51 30	 mov	 edx, DWORD PTR [ecx+48]
  01289	c7 42 08 02 00
	00 00		 mov	 DWORD PTR [edx+8], 2
$L94295:

; 1770 : 						CheckMenuItem(m_hMenu, ID_VIEW_FIGHTER_GLASS, MF_CHECKED) ;

  01290	8b f4		 mov	 esi, esp
  01292	6a 08		 push	 8
  01294	68 60 9c 00 00	 push	 40032			; 00009c60H
  01299	8b 45 f4	 mov	 eax, DWORD PTR _this$[ebp]
  0129c	8b 88 a8 a9 02
	00		 mov	 ecx, DWORD PTR [eax+174504]
  012a2	51		 push	 ecx
  012a3	ff 15 00 00 00
	00		 call	 DWORD PTR __imp__CheckMenuItem@12
  012a9	3b f4		 cmp	 esi, esp
  012ab	e8 00 00 00 00	 call	 __RTC_CheckEsp

; 1771 : 						CheckMenuItem(m_hMenu, ID_VIEW_FIGHTER_NORMAL, MF_UNCHECKED) ;

  012b0	8b f4		 mov	 esi, esp
  012b2	6a 00		 push	 0
  012b4	68 5e 9c 00 00	 push	 40030			; 00009c5eH
  012b9	8b 45 f4	 mov	 eax, DWORD PTR _this$[ebp]
  012bc	8b 88 a8 a9 02
	00		 mov	 ecx, DWORD PTR [eax+174504]
  012c2	51		 push	 ecx
  012c3	ff 15 00 00 00
	00		 call	 DWORD PTR __imp__CheckMenuItem@12
  012c9	3b f4		 cmp	 esi, esp
  012cb	e8 00 00 00 00	 call	 __RTC_CheckEsp

; 1772 : 						CheckMenuItem(m_hMenu, ID_VIEW_FIGHTER_CHROME, MF_UNCHECKED) ;

  012d0	8b f4		 mov	 esi, esp
  012d2	6a 00		 push	 0
  012d4	68 5f 9c 00 00	 push	 40031			; 00009c5fH
  012d9	8b 45 f4	 mov	 eax, DWORD PTR _this$[ebp]
  012dc	8b 88 a8 a9 02
	00		 mov	 ecx, DWORD PTR [eax+174504]
  012e2	51		 push	 ecx
  012e3	ff 15 00 00 00
	00		 call	 DWORD PTR __imp__CheckMenuItem@12
  012e9	3b f4		 cmp	 esi, esp
  012eb	e8 00 00 00 00	 call	 __RTC_CheckEsp

; 1773 : 						CheckMenuItem(m_hMenu, ID_VIEW_FIGHTER_VERTEXSHADER1, MF_UNCHECKED) ;

  012f0	8b f4		 mov	 esi, esp
  012f2	6a 00		 push	 0
  012f4	68 69 9c 00 00	 push	 40041			; 00009c69H
  012f9	8b 45 f4	 mov	 eax, DWORD PTR _this$[ebp]
  012fc	8b 88 a8 a9 02
	00		 mov	 ecx, DWORD PTR [eax+174504]
  01302	51		 push	 ecx
  01303	ff 15 00 00 00
	00		 call	 DWORD PTR __imp__CheckMenuItem@12
  01309	3b f4		 cmp	 esi, esp
  0130b	e8 00 00 00 00	 call	 __RTC_CheckEsp

; 1774 : 						break ;

  01310	e9 34 01 00 00	 jmp	 $L94246
$L94296:

; 1775 : 					case ID_VIEW_FIGHTER_VERTEXSHADER1:
; 1776 : 						if( m_pTestRace )

  01315	8b 45 f4	 mov	 eax, DWORD PTR _this$[ebp]
  01318	83 b8 ec a8 02
	00 00		 cmp	 DWORD PTR [eax+174316], 0
  0131f	74 13		 je	 SHORT $L94297

; 1777 : 							m_pTestRace->m_pFighter->m_rtFighterMode = FRT_VS1 ;

  01321	8b 45 f4	 mov	 eax, DWORD PTR _this$[ebp]
  01324	8b 88 ec a8 02
	00		 mov	 ecx, DWORD PTR [eax+174316]
  0132a	8b 51 30	 mov	 edx, DWORD PTR [ecx+48]
  0132d	c7 42 08 03 00
	00 00		 mov	 DWORD PTR [edx+8], 3
$L94297:

; 1778 : 						CheckMenuItem(m_hMenu, ID_VIEW_FIGHTER_VERTEXSHADER1, MF_CHECKED) ;

  01334	8b f4		 mov	 esi, esp
  01336	6a 08		 push	 8
  01338	68 69 9c 00 00	 push	 40041			; 00009c69H
  0133d	8b 45 f4	 mov	 eax, DWORD PTR _this$[ebp]
  01340	8b 88 a8 a9 02
	00		 mov	 ecx, DWORD PTR [eax+174504]
  01346	51		 push	 ecx
  01347	ff 15 00 00 00
	00		 call	 DWORD PTR __imp__CheckMenuItem@12
  0134d	3b f4		 cmp	 esi, esp
  0134f	e8 00 00 00 00	 call	 __RTC_CheckEsp

; 1779 : 						CheckMenuItem(m_hMenu, ID_VIEW_FIGHTER_GLASS, MF_UNCHECKED) ;

  01354	8b f4		 mov	 esi, esp
  01356	6a 00		 push	 0
  01358	68 60 9c 00 00	 push	 40032			; 00009c60H
  0135d	8b 45 f4	 mov	 eax, DWORD PTR _this$[ebp]
  01360	8b 88 a8 a9 02
	00		 mov	 ecx, DWORD PTR [eax+174504]
  01366	51		 push	 ecx
  01367	ff 15 00 00 00
	00		 call	 DWORD PTR __imp__CheckMenuItem@12
  0136d	3b f4		 cmp	 esi, esp
  0136f	e8 00 00 00 00	 call	 __RTC_CheckEsp

; 1780 : 						CheckMenuItem(m_hMenu, ID_VIEW_FIGHTER_NORMAL, MF_UNCHECKED) ;

  01374	8b f4		 mov	 esi, esp
  01376	6a 00		 push	 0
  01378	68 5e 9c 00 00	 push	 40030			; 00009c5eH
  0137d	8b 45 f4	 mov	 eax, DWORD PTR _this$[ebp]
  01380	8b 88 a8 a9 02
	00		 mov	 ecx, DWORD PTR [eax+174504]
  01386	51		 push	 ecx
  01387	ff 15 00 00 00
	00		 call	 DWORD PTR __imp__CheckMenuItem@12
  0138d	3b f4		 cmp	 esi, esp
  0138f	e8 00 00 00 00	 call	 __RTC_CheckEsp

; 1781 : 						CheckMenuItem(m_hMenu, ID_VIEW_FIGHTER_CHROME, MF_UNCHECKED) ;

  01394	8b f4		 mov	 esi, esp
  01396	6a 00		 push	 0
  01398	68 5f 9c 00 00	 push	 40031			; 00009c5fH
  0139d	8b 45 f4	 mov	 eax, DWORD PTR _this$[ebp]
  013a0	8b 88 a8 a9 02
	00		 mov	 ecx, DWORD PTR [eax+174504]
  013a6	51		 push	 ecx
  013a7	ff 15 00 00 00
	00		 call	 DWORD PTR __imp__CheckMenuItem@12
  013ad	3b f4		 cmp	 esi, esp
  013af	e8 00 00 00 00	 call	 __RTC_CheckEsp

; 1782 : 						break ;

  013b4	e9 90 00 00 00	 jmp	 $L94246
$L94298:

; 1783 : 
; 1784 : 					case ID_VIEW_STATS:
; 1785 : 						m_bStats = !m_bStats ;

  013b9	8b 45 f4	 mov	 eax, DWORD PTR _this$[ebp]
  013bc	33 c9		 xor	 ecx, ecx
  013be	83 b8 98 a9 02
	00 00		 cmp	 DWORD PTR [eax+174488], 0
  013c5	0f 94 c1	 sete	 cl
  013c8	8b 55 f4	 mov	 edx, DWORD PTR _this$[ebp]
  013cb	89 8a 98 a9 02
	00		 mov	 DWORD PTR [edx+174488], ecx

; 1786 : 						CheckMenuItem(m_hMenu, ID_VIEW_STATS, m_bStats ? MF_CHECKED : MF_UNCHECKED) ;

  013d1	8b 45 f4	 mov	 eax, DWORD PTR _this$[ebp]
  013d4	8b 88 98 a9 02
	00		 mov	 ecx, DWORD PTR [eax+174488]
  013da	f7 d9		 neg	 ecx
  013dc	1b c9		 sbb	 ecx, ecx
  013de	83 e1 08	 and	 ecx, 8
  013e1	8b f4		 mov	 esi, esp
  013e3	51		 push	 ecx
  013e4	68 54 9c 00 00	 push	 40020			; 00009c54H
  013e9	8b 55 f4	 mov	 edx, DWORD PTR _this$[ebp]
  013ec	8b 82 a8 a9 02
	00		 mov	 eax, DWORD PTR [edx+174504]
  013f2	50		 push	 eax
  013f3	ff 15 00 00 00
	00		 call	 DWORD PTR __imp__CheckMenuItem@12
  013f9	3b f4		 cmp	 esi, esp
  013fb	e8 00 00 00 00	 call	 __RTC_CheckEsp

; 1787 : 						break ;

  01400	eb 47		 jmp	 SHORT $L94246
$L94299:

; 1788 : 					case ID_VIEW_FSAA:
; 1789 : 						m_bFSAA_Enabled = !m_bFSAA_Enabled ;

  01402	8b 45 f4	 mov	 eax, DWORD PTR _this$[ebp]
  01405	33 c9		 xor	 ecx, ecx
  01407	83 b8 a0 a9 02
	00 00		 cmp	 DWORD PTR [eax+174496], 0
  0140e	0f 94 c1	 sete	 cl
  01411	8b 55 f4	 mov	 edx, DWORD PTR _this$[ebp]
  01414	89 8a a0 a9 02
	00		 mov	 DWORD PTR [edx+174496], ecx

; 1790 : 						CheckMenuItem(m_hMenu, ID_VIEW_FSAA, m_bFSAA_Enabled ? MF_CHECKED : MF_UNCHECKED) ;

  0141a	8b 45 f4	 mov	 eax, DWORD PTR _this$[ebp]
  0141d	8b 88 a0 a9 02
	00		 mov	 ecx, DWORD PTR [eax+174496]
  01423	f7 d9		 neg	 ecx
  01425	1b c9		 sbb	 ecx, ecx
  01427	83 e1 08	 and	 ecx, 8
  0142a	8b f4		 mov	 esi, esp
  0142c	51		 push	 ecx
  0142d	68 55 9c 00 00	 push	 40021			; 00009c55H
  01432	8b 55 f4	 mov	 edx, DWORD PTR _this$[ebp]
  01435	8b 82 a8 a9 02
	00		 mov	 eax, DWORD PTR [edx+174504]
  0143b	50		 push	 eax
  0143c	ff 15 00 00 00
	00		 call	 DWORD PTR __imp__CheckMenuItem@12
  01442	3b f4		 cmp	 esi, esp
  01444	e8 00 00 00 00	 call	 __RTC_CheckEsp
$L94246:

; 1791 : 						break ;
; 1792 : 				}
; 1793 : 		}
; 1794 : 		return CD3DApplication::MsgProc(hWnd, uMsg, wParam, lParam) ;

  01449	8b 45 14	 mov	 eax, DWORD PTR _lParam$[ebp]
  0144c	50		 push	 eax
  0144d	8b 4d 10	 mov	 ecx, DWORD PTR _wParam$[ebp]
  01450	51		 push	 ecx
  01451	8b 55 0c	 mov	 edx, DWORD PTR _uMsg$[ebp]
  01454	52		 push	 edx
  01455	8b 45 08	 mov	 eax, DWORD PTR _hWnd$[ebp]
  01458	50		 push	 eax
  01459	8b 4d f4	 mov	 ecx, DWORD PTR _this$[ebp]
  0145c	e8 00 00 00 00	 call	 ?MsgProc@CD3DApplication@@UAEJPAUHWND__@@IIJ@Z ; CD3DApplication::MsgProc

; 1795 : 	}

  01461	52		 push	 edx
  01462	8b cd		 mov	 ecx, ebp
  01464	50		 push	 eax
  01465	8d 15 00 00 00
	00		 lea	 edx, DWORD PTR $L94794
  0146b	e8 00 00 00 00	 call	 @_RTC_CheckStackVars@8
  01470	58		 pop	 eax
  01471	5a		 pop	 edx
  01472	8b 4d fc	 mov	 ecx, DWORD PTR __$ArrayPad$[ebp]
  01475	33 4d 04	 xor	 ecx, DWORD PTR __$ReturnAddr$[ebp]
  01478	e8 00 00 00 00	 call	 @__security_check_cookie@4
  0147d	5f		 pop	 edi
  0147e	5e		 pop	 esi
  0147f	5b		 pop	 ebx
  01480	81 c4 e8 04 00
	00		 add	 esp, 1256		; 000004e8H
  01486	3b ec		 cmp	 ebp, esp
  01488	e8 00 00 00 00	 call	 __RTC_CheckEsp
  0148d	8b e5		 mov	 esp, ebp
  0148f	5d		 pop	 ebp
  01490	c2 10 00	 ret	 16			; 00000010H
$L94794:
  01493	01 00 00 00	 DD	 1
  01497	00 00 00 00	 DD	 $L94793
$L94793:
  0149b	e0 fb ff ff	 DD	 -1056			; fffffbe0H
  0149f	00 04 00 00	 DD	 1024			; 00000400H
  014a3	00 00 00 00	 DD	 $L94791
$L94791:
  014a7	73		 DB	 115			; 00000073H
  014a8	7a		 DB	 122			; 0000007aH
  014a9	44		 DB	 68			; 00000044H
  014aa	72		 DB	 114			; 00000072H
  014ab	6f		 DB	 111			; 0000006fH
  014ac	70		 DB	 112			; 00000070H
  014ad	46		 DB	 70			; 00000046H
  014ae	69		 DB	 105			; 00000069H
  014af	6c		 DB	 108			; 0000006cH
  014b0	65		 DB	 101			; 00000065H
  014b1	30		 DB	 48			; 00000030H
  014b2	00		 DB	 0
$L94795:
  014b3	00 00 00 00	 DD	 $L94259
  014b7	00 00 00 00	 DD	 $L94246
  014bb	00 00 00 00	 DD	 $L94246
  014bf	00 00 00 00	 DD	 $L94265
  014c3	00 00 00 00	 DD	 $L94267
  014c7	00 00 00 00	 DD	 $L94246
  014cb	00 00 00 00	 DD	 $L94246
  014cf	00 00 00 00	 DD	 $L94246
  014d3	00 00 00 00	 DD	 $L94298
  014d7	00 00 00 00	 DD	 $L94299
  014db	00 00 00 00	 DD	 $L94261
  014df	00 00 00 00	 DD	 $L94263
  014e3	00 00 00 00	 DD	 $L94246
  014e7	00 00 00 00	 DD	 $L94246
  014eb	00 00 00 00	 DD	 $L94284
  014ef	00 00 00 00	 DD	 $L94246
  014f3	00 00 00 00	 DD	 $L94269
  014f7	00 00 00 00	 DD	 $L94288
  014fb	00 00 00 00	 DD	 $L94290
  014ff	00 00 00 00	 DD	 $L94292
  01503	00 00 00 00	 DD	 $L94294
  01507	00 00 00 00	 DD	 $L94272
  0150b	00 00 00 00	 DD	 $L94274
  0150f	00 00 00 00	 DD	 $L94276
  01513	00 00 00 00	 DD	 $L94278
  01517	00 00 00 00	 DD	 $L94280
  0151b	00 00 00 00	 DD	 $L94282
  0151f	00 00 00 00	 DD	 $L94286
  01523	00 00 00 00	 DD	 $L94268
  01527	00 00 00 00	 DD	 $L94296
?MsgProc@Cx7@@UAEJPAUHWND__@@IIJ@Z ENDP			; Cx7::MsgProc
; Function compile flags: /Odt /RTCsu /ZI
; File c:\dxsdk\include\d3dx8math.inl
_TEXT	ENDS
;	COMDAT ??0D3DXCOLOR@@QAE@MMMM@Z
_TEXT	SEGMENT
_this$ = -8
_fr$ = 8
_fg$ = 12
_fb$ = 16
_fa$ = 20
??0D3DXCOLOR@@QAE@MMMM@Z PROC NEAR			; D3DXCOLOR::D3DXCOLOR, COMDAT
; _this$ = ecx

; 919  : {

  00000	55		 push	 ebp
  00001	8b ec		 mov	 ebp, esp
  00003	81 ec cc 00 00
	00		 sub	 esp, 204		; 000000ccH
  00009	53		 push	 ebx
  0000a	56		 push	 esi
  0000b	57		 push	 edi
  0000c	51		 push	 ecx
  0000d	8d bd 34 ff ff
	ff		 lea	 edi, DWORD PTR [ebp-204]
  00013	b9 33 00 00 00	 mov	 ecx, 51			; 00000033H
  00018	b8 cc cc cc cc	 mov	 eax, -858993460		; ccccccccH
  0001d	f3 ab		 rep stosd
  0001f	59		 pop	 ecx
  00020	89 4d f8	 mov	 DWORD PTR _this$[ebp], ecx

; 920  :     r = fr;

  00023	8b 45 f8	 mov	 eax, DWORD PTR _this$[ebp]
  00026	8b 4d 08	 mov	 ecx, DWORD PTR _fr$[ebp]
  00029	89 08		 mov	 DWORD PTR [eax], ecx

; 921  :     g = fg;

  0002b	8b 45 f8	 mov	 eax, DWORD PTR _this$[ebp]
  0002e	8b 4d 0c	 mov	 ecx, DWORD PTR _fg$[ebp]
  00031	89 48 04	 mov	 DWORD PTR [eax+4], ecx

; 922  :     b = fb;

  00034	8b 45 f8	 mov	 eax, DWORD PTR _this$[ebp]
  00037	8b 4d 10	 mov	 ecx, DWORD PTR _fb$[ebp]
  0003a	89 48 08	 mov	 DWORD PTR [eax+8], ecx

; 923  :     a = fa;

  0003d	8b 45 f8	 mov	 eax, DWORD PTR _this$[ebp]
  00040	8b 4d 14	 mov	 ecx, DWORD PTR _fa$[ebp]
  00043	89 48 0c	 mov	 DWORD PTR [eax+12], ecx

; 924  : }

  00046	8b 45 f8	 mov	 eax, DWORD PTR _this$[ebp]
  00049	5f		 pop	 edi
  0004a	5e		 pop	 esi
  0004b	5b		 pop	 ebx
  0004c	8b e5		 mov	 esp, ebp
  0004e	5d		 pop	 ebp
  0004f	c2 10 00	 ret	 16			; 00000010H
??0D3DXCOLOR@@QAE@MMMM@Z ENDP				; D3DXCOLOR::D3DXCOLOR
; Function compile flags: /Odt /RTCsu /ZI
_TEXT	ENDS
;	COMDAT ??BD3DXCOLOR@@QBEKXZ
_TEXT	SEGMENT
tv135 = -260
tv92 = -260
tv81 = -260
tv70 = -260
tv136 = -256
tv93 = -256
tv82 = -256
tv71 = -256
_dwA$ = -56
_dwB$ = -44
_dwG$ = -32
_dwR$ = -20
_this$ = -8
??BD3DXCOLOR@@QBEKXZ PROC NEAR				; D3DXCOLOR::operator unsigned long, COMDAT
; _this$ = ecx

; 930  : {

  00000	55		 push	 ebp
  00001	8b ec		 mov	 ebp, esp
  00003	81 ec 04 01 00
	00		 sub	 esp, 260		; 00000104H
  00009	53		 push	 ebx
  0000a	56		 push	 esi
  0000b	57		 push	 edi
  0000c	51		 push	 ecx
  0000d	8d bd fc fe ff
	ff		 lea	 edi, DWORD PTR [ebp-260]
  00013	b9 41 00 00 00	 mov	 ecx, 65			; 00000041H
  00018	b8 cc cc cc cc	 mov	 eax, -858993460		; ccccccccH
  0001d	f3 ab		 rep stosd
  0001f	59		 pop	 ecx
  00020	89 4d f8	 mov	 DWORD PTR _this$[ebp], ecx

; 931  :     DWORD dwR = r >= 1.0f ? 0xff : r <= 0.0f ? 0x00 : (DWORD) (r * 255.0f + 0.5f);

  00023	8b 45 f8	 mov	 eax, DWORD PTR _this$[ebp]
  00026	d9 00		 fld	 DWORD PTR [eax]
  00028	d8 1d 00 00 00
	00		 fcomp	 DWORD PTR __real@3f800000
  0002e	df e0		 fnstsw	 ax
  00030	f6 c4 01	 test	 ah, 1
  00033	75 0c		 jne	 SHORT $L94802
  00035	c7 85 00 ff ff
	ff ff 00 00 00	 mov	 DWORD PTR tv71[ebp], 255 ; 000000ffH
  0003f	eb 46		 jmp	 SHORT $L94803
$L94802:
  00041	8b 4d f8	 mov	 ecx, DWORD PTR _this$[ebp]
  00044	d9 01		 fld	 DWORD PTR [ecx]
  00046	d8 1d 00 00 00
	00		 fcomp	 DWORD PTR __real@00000000
  0004c	df e0		 fnstsw	 ax
  0004e	f6 c4 41	 test	 ah, 65			; 00000041H
  00051	7a 0c		 jp	 SHORT $L94800
  00053	c7 85 fc fe ff
	ff 00 00 00 00	 mov	 DWORD PTR tv70[ebp], 0
  0005d	eb 1c		 jmp	 SHORT $L94801
$L94800:
  0005f	8b 55 f8	 mov	 edx, DWORD PTR _this$[ebp]
  00062	d9 02		 fld	 DWORD PTR [edx]
  00064	d8 0d 00 00 00
	00		 fmul	 DWORD PTR __real@437f0000
  0006a	d8 05 00 00 00
	00		 fadd	 DWORD PTR __real@3f000000
  00070	e8 00 00 00 00	 call	 __ftol2
  00075	89 85 fc fe ff
	ff		 mov	 DWORD PTR tv70[ebp], eax
$L94801:
  0007b	8b 85 fc fe ff
	ff		 mov	 eax, DWORD PTR tv70[ebp]
  00081	89 85 00 ff ff
	ff		 mov	 DWORD PTR tv71[ebp], eax
$L94803:
  00087	8b 8d 00 ff ff
	ff		 mov	 ecx, DWORD PTR tv71[ebp]
  0008d	89 4d ec	 mov	 DWORD PTR _dwR$[ebp], ecx

; 932  :     DWORD dwG = g >= 1.0f ? 0xff : g <= 0.0f ? 0x00 : (DWORD) (g * 255.0f + 0.5f);

  00090	8b 45 f8	 mov	 eax, DWORD PTR _this$[ebp]
  00093	d9 40 04	 fld	 DWORD PTR [eax+4]
  00096	d8 1d 00 00 00
	00		 fcomp	 DWORD PTR __real@3f800000
  0009c	df e0		 fnstsw	 ax
  0009e	f6 c4 01	 test	 ah, 1
  000a1	75 0c		 jne	 SHORT $L94806
  000a3	c7 85 00 ff ff
	ff ff 00 00 00	 mov	 DWORD PTR tv82[ebp], 255 ; 000000ffH
  000ad	eb 48		 jmp	 SHORT $L94807
$L94806:
  000af	8b 4d f8	 mov	 ecx, DWORD PTR _this$[ebp]
  000b2	d9 41 04	 fld	 DWORD PTR [ecx+4]
  000b5	d8 1d 00 00 00
	00		 fcomp	 DWORD PTR __real@00000000
  000bb	df e0		 fnstsw	 ax
  000bd	f6 c4 41	 test	 ah, 65			; 00000041H
  000c0	7a 0c		 jp	 SHORT $L94804
  000c2	c7 85 fc fe ff
	ff 00 00 00 00	 mov	 DWORD PTR tv81[ebp], 0
  000cc	eb 1d		 jmp	 SHORT $L94805
$L94804:
  000ce	8b 55 f8	 mov	 edx, DWORD PTR _this$[ebp]
  000d1	d9 42 04	 fld	 DWORD PTR [edx+4]
  000d4	d8 0d 00 00 00
	00		 fmul	 DWORD PTR __real@437f0000
  000da	d8 05 00 00 00
	00		 fadd	 DWORD PTR __real@3f000000
  000e0	e8 00 00 00 00	 call	 __ftol2
  000e5	89 85 fc fe ff
	ff		 mov	 DWORD PTR tv81[ebp], eax
$L94805:
  000eb	8b 85 fc fe ff
	ff		 mov	 eax, DWORD PTR tv81[ebp]
  000f1	89 85 00 ff ff
	ff		 mov	 DWORD PTR tv82[ebp], eax
$L94807:
  000f7	8b 8d 00 ff ff
	ff		 mov	 ecx, DWORD PTR tv82[ebp]
  000fd	89 4d e0	 mov	 DWORD PTR _dwG$[ebp], ecx

; 933  :     DWORD dwB = b >= 1.0f ? 0xff : b <= 0.0f ? 0x00 : (DWORD) (b * 255.0f + 0.5f);

  00100	8b 45 f8	 mov	 eax, DWORD PTR _this$[ebp]
  00103	d9 40 08	 fld	 DWORD PTR [eax+8]
  00106	d8 1d 00 00 00
	00		 fcomp	 DWORD PTR __real@3f800000
  0010c	df e0		 fnstsw	 ax
  0010e	f6 c4 01	 test	 ah, 1
  00111	75 0c		 jne	 SHORT $L94810
  00113	c7 85 00 ff ff
	ff ff 00 00 00	 mov	 DWORD PTR tv93[ebp], 255 ; 000000ffH
  0011d	eb 48		 jmp	 SHORT $L94811
$L94810:
  0011f	8b 4d f8	 mov	 ecx, DWORD PTR _this$[ebp]
  00122	d9 41 08	 fld	 DWORD PTR [ecx+8]
  00125	d8 1d 00 00 00
	00		 fcomp	 DWORD PTR __real@00000000
  0012b	df e0		 fnstsw	 ax
  0012d	f6 c4 41	 test	 ah, 65			; 00000041H
  00130	7a 0c		 jp	 SHORT $L94808
  00132	c7 85 fc fe ff
	ff 00 00 00 00	 mov	 DWORD PTR tv92[ebp], 0
  0013c	eb 1d		 jmp	 SHORT $L94809
$L94808:
  0013e	8b 55 f8	 mov	 edx, DWORD PTR _this$[ebp]
  00141	d9 42 08	 fld	 DWORD PTR [edx+8]
  00144	d8 0d 00 00 00
	00		 fmul	 DWORD PTR __real@437f0000
  0014a	d8 05 00 00 00
	00		 fadd	 DWORD PTR __real@3f000000
  00150	e8 00 00 00 00	 call	 __ftol2
  00155	89 85 fc fe ff
	ff		 mov	 DWORD PTR tv92[ebp], eax
$L94809:
  0015b	8b 85 fc fe ff
	ff		 mov	 eax, DWORD PTR tv92[ebp]
  00161	89 85 00 ff ff
	ff		 mov	 DWORD PTR tv93[ebp], eax
$L94811:
  00167	8b 8d 00 ff ff
	ff		 mov	 ecx, DWORD PTR tv93[ebp]
  0016d	89 4d d4	 mov	 DWORD PTR _dwB$[ebp], ecx

; 934  :     DWORD dwA = a >= 1.0f ? 0xff : a <= 0.0f ? 0x00 : (DWORD) (a * 255.0f + 0.5f);

  00170	8b 45 f8	 mov	 eax, DWORD PTR _this$[ebp]
  00173	d9 40 0c	 fld	 DWORD PTR [eax+12]
  00176	d8 1d 00 00 00
	00		 fcomp	 DWORD PTR __real@3f800000
  0017c	df e0		 fnstsw	 ax
  0017e	f6 c4 01	 test	 ah, 1
  00181	75 0c		 jne	 SHORT $L94814
  00183	c7 85 00 ff ff
	ff ff 00 00 00	 mov	 DWORD PTR tv136[ebp], 255 ; 000000ffH
  0018d	eb 48		 jmp	 SHORT $L94815
$L94814:
  0018f	8b 4d f8	 mov	 ecx, DWORD PTR _this$[ebp]
  00192	d9 41 0c	 fld	 DWORD PTR [ecx+12]
  00195	d8 1d 00 00 00
	00		 fcomp	 DWORD PTR __real@00000000
  0019b	df e0		 fnstsw	 ax
  0019d	f6 c4 41	 test	 ah, 65			; 00000041H
  001a0	7a 0c		 jp	 SHORT $L94812
  001a2	c7 85 fc fe ff
	ff 00 00 00 00	 mov	 DWORD PTR tv135[ebp], 0
  001ac	eb 1d		 jmp	 SHORT $L94813
$L94812:
  001ae	8b 55 f8	 mov	 edx, DWORD PTR _this$[ebp]
  001b1	d9 42 0c	 fld	 DWORD PTR [edx+12]
  001b4	d8 0d 00 00 00
	00		 fmul	 DWORD PTR __real@437f0000
  001ba	d8 05 00 00 00
	00		 fadd	 DWORD PTR __real@3f000000
  001c0	e8 00 00 00 00	 call	 __ftol2
  001c5	89 85 fc fe ff
	ff		 mov	 DWORD PTR tv135[ebp], eax
$L94813:
  001cb	8b 85 fc fe ff
	ff		 mov	 eax, DWORD PTR tv135[ebp]
  001d1	89 85 00 ff ff
	ff		 mov	 DWORD PTR tv136[ebp], eax
$L94815:
  001d7	8b 8d 00 ff ff
	ff		 mov	 ecx, DWORD PTR tv136[ebp]
  001dd	89 4d c8	 mov	 DWORD PTR _dwA$[ebp], ecx

; 935  : 
; 936  :     return (dwA << 24) | (dwR << 16) | (dwG << 8) | dwB;

  001e0	8b 45 c8	 mov	 eax, DWORD PTR _dwA$[ebp]
  001e3	c1 e0 18	 shl	 eax, 24			; 00000018H
  001e6	8b 4d ec	 mov	 ecx, DWORD PTR _dwR$[ebp]
  001e9	c1 e1 10	 shl	 ecx, 16			; 00000010H
  001ec	0b c1		 or	 eax, ecx
  001ee	8b 55 e0	 mov	 edx, DWORD PTR _dwG$[ebp]
  001f1	c1 e2 08	 shl	 edx, 8
  001f4	0b c2		 or	 eax, edx
  001f6	0b 45 d4	 or	 eax, DWORD PTR _dwB$[ebp]

; 937  : }

  001f9	5f		 pop	 edi
  001fa	5e		 pop	 esi
  001fb	5b		 pop	 ebx
  001fc	8b e5		 mov	 esp, ebp
  001fe	5d		 pop	 ebp
  001ff	c3		 ret	 0
??BD3DXCOLOR@@QBEKXZ ENDP				; D3DXCOLOR::operator unsigned long
; Function compile flags: /Odt /RTCsu /ZI
; File c:\documents and settings\dom\my documents\_dev\ae\xlr8a\x7g\x7.cpp
_TEXT	ENDS
;	COMDAT ?ConfirmDevice@Cx7@@UAEJPAU_D3DCAPS8@@KW4_D3DFORMAT@@@Z
_TEXT	SEGMENT
_this$ = -8
_pCaps$ = 8
_dwBehavior$ = 12
_Format$ = 16
?ConfirmDevice@Cx7@@UAEJPAU_D3DCAPS8@@KW4_D3DFORMAT@@@Z PROC NEAR ; Cx7::ConfirmDevice, COMDAT
; _this$ = ecx

; 1798 : 	{

  00000	55		 push	 ebp
  00001	8b ec		 mov	 ebp, esp
  00003	81 ec cc 00 00
	00		 sub	 esp, 204		; 000000ccH
  00009	53		 push	 ebx
  0000a	56		 push	 esi
  0000b	57		 push	 edi
  0000c	51		 push	 ecx
  0000d	8d bd 34 ff ff
	ff		 lea	 edi, DWORD PTR [ebp-204]
  00013	b9 33 00 00 00	 mov	 ecx, 51			; 00000033H
  00018	b8 cc cc cc cc	 mov	 eax, -858993460		; ccccccccH
  0001d	f3 ab		 rep stosd
  0001f	59		 pop	 ecx
  00020	89 4d f8	 mov	 DWORD PTR _this$[ebp], ecx

; 1799 : 	//
; 1800 : 	// Demand a mixed-VP device:
; 1801 : 	//
; 1802 : 		/*if(!(dwBehavior & D3DCREATE_MIXED_VERTEXPROCESSING))
; 1803 : 			return E_FAIL ;*/
; 1804 : 
; 1805 : 	//
; 1806 : 	// Demand a vertex-shader capable device:
; 1807 : 	//
; 1808 : 		if( (dwBehavior & D3DCREATE_HARDWARE_VERTEXPROCESSING ) || (dwBehavior & D3DCREATE_MIXED_VERTEXPROCESSING ) )

  00023	8b 45 0c	 mov	 eax, DWORD PTR _dwBehavior$[ebp]
  00026	83 e0 40	 and	 eax, 64			; 00000040H
  00029	85 c0		 test	 eax, eax
  0002b	75 0c		 jne	 SHORT $L94307
  0002d	8b 45 0c	 mov	 eax, DWORD PTR _dwBehavior$[ebp]
  00030	25 80 00 00 00	 and	 eax, 128		; 00000080H
  00035	85 c0		 test	 eax, eax
  00037	74 16		 je	 SHORT $L94306
$L94307:

; 1809 : 		{
; 1810 : 			if( pCaps->VertexShaderVersion < D3DVS_VERSION(1,0) )

  00039	8b 45 08	 mov	 eax, DWORD PTR _pCaps$[ebp]
  0003c	81 b8 c4 00 00
	00 00 01 fe ff	 cmp	 DWORD PTR [eax+196], -130816 ; fffe0100H
  00046	73 07		 jae	 SHORT $L94306

; 1811 : 				return E_FAIL;

  00048	b8 05 40 00 80	 mov	 eax, -2147467259	; 80004005H
  0004d	eb 02		 jmp	 SHORT $L94305
$L94306:

; 1812 : 		}
; 1813 : 
; 1814 : 		return S_OK;

  0004f	33 c0		 xor	 eax, eax
$L94305:

; 1815 : 	}

  00051	5f		 pop	 edi
  00052	5e		 pop	 esi
  00053	5b		 pop	 ebx
  00054	8b e5		 mov	 esp, ebp
  00056	5d		 pop	 ebp
  00057	c2 0c 00	 ret	 12			; 0000000cH
?ConfirmDevice@Cx7@@UAEJPAU_D3DCAPS8@@KW4_D3DFORMAT@@@Z ENDP ; Cx7::ConfirmDevice
_TEXT	ENDS
PUBLIC	?__LINE__Var@?1??Screengrab@Cx7@@QAEJXZ@4JA	; `Cx7::Screengrab'::`2'::__LINE__Var
PUBLIC	??_C@_0L@KJLEIMLM@D3D_OK?$DN?$DNhr?$AA@		; `string'
PUBLIC	??_C@_09OHLCLMFJ@?4?4?2images?$AA@		; `string'
PUBLIC	??_C@_0BG@GHFKNJHN@?$CFs?2Screenshot_?$CFlu?4BMP?$AA@ ; `string'
EXTRN	_D3DXSaveSurfaceToFileA@20:NEAR
;	COMDAT ?__LINE__Var@?1??Screengrab@Cx7@@QAEJXZ@4JA
_DATA	SEGMENT
?__LINE__Var@?1??Screengrab@Cx7@@QAEJXZ@4JA DD 071aH	; `Cx7::Screengrab'::`2'::__LINE__Var
_DATA	ENDS
;	COMDAT ??_C@_0L@KJLEIMLM@D3D_OK?$DN?$DNhr?$AA@
CONST	SEGMENT
??_C@_0L@KJLEIMLM@D3D_OK?$DN?$DNhr?$AA@ DB 'D3D_OK==hr', 00H ; `string'
CONST	ENDS
;	COMDAT ??_C@_09OHLCLMFJ@?4?4?2images?$AA@
CONST	SEGMENT
??_C@_09OHLCLMFJ@?4?4?2images?$AA@ DB '..\images', 00H	; `string'
CONST	ENDS
;	COMDAT ??_C@_0BG@GHFKNJHN@?$CFs?2Screenshot_?$CFlu?4BMP?$AA@
CONST	SEGMENT
??_C@_0BG@GHFKNJHN@?$CFs?2Screenshot_?$CFlu?4BMP?$AA@ DB '%s\Screenshot_%'
	DB	'lu.BMP', 00H				; `string'
; Function compile flags: /Odt /RTCsu /ZI
CONST	ENDS
;	COMDAT ?Screengrab@Cx7@@QAEJXZ
_TEXT	SEGMENT
_t$ = -2652
_szFullFilename$ = -2640
_szPath$ = -1096
_DispMode$ = -60
_pFrontBuf$ = -36
_hr$ = -24
_this$ = -12
__$ArrayPad$ = -4
__$ReturnAddr$ = 4
?Screengrab@Cx7@@QAEJXZ PROC NEAR			; Cx7::Screengrab, COMDAT
; _this$ = ecx

; 1818 : 	{

  00000	55		 push	 ebp
  00001	8b ec		 mov	 ebp, esp
  00003	81 ec 20 0b 00
	00		 sub	 esp, 2848		; 00000b20H
  00009	53		 push	 ebx
  0000a	56		 push	 esi
  0000b	57		 push	 edi
  0000c	51		 push	 ecx
  0000d	8d bd e0 f4 ff
	ff		 lea	 edi, DWORD PTR [ebp-2848]
  00013	b9 c8 02 00 00	 mov	 ecx, 712		; 000002c8H
  00018	b8 cc cc cc cc	 mov	 eax, -858993460		; ccccccccH
  0001d	f3 ab		 rep stosd
  0001f	59		 pop	 ecx
  00020	a1 00 00 00 00	 mov	 eax, DWORD PTR ___security_cookie
  00025	33 45 04	 xor	 eax, DWORD PTR __$ReturnAddr$[ebp]
  00028	89 45 fc	 mov	 DWORD PTR __$ArrayPad$[ebp], eax
  0002b	89 4d f4	 mov	 DWORD PTR _this$[ebp], ecx

; 1819 : 		HRESULT hr ;
; 1820 : 		LPDIRECT3DSURFACE8 pFrontBuf ;
; 1821 : 		D3DDISPLAYMODE DispMode ;
; 1822 : 		char szPath[ 1024 ], szFullFilename [ 1024 + 512 ];
; 1823 : 		time_t t ;
; 1824 : 
; 1825 : 		hr = m_pd3dDevice->GetDisplayMode( &DispMode );

  0002e	8b f4		 mov	 esi, esp
  00030	8d 45 c4	 lea	 eax, DWORD PTR _DispMode$[ebp]
  00033	50		 push	 eax
  00034	8b 4d f4	 mov	 ecx, DWORD PTR _this$[ebp]
  00037	8b 91 a8 a4 02
	00		 mov	 edx, DWORD PTR [ecx+173224]
  0003d	8b 45 f4	 mov	 eax, DWORD PTR _this$[ebp]
  00040	8b 88 a8 a4 02
	00		 mov	 ecx, DWORD PTR [eax+173224]
  00046	8b 12		 mov	 edx, DWORD PTR [edx]
  00048	51		 push	 ecx
  00049	ff 52 20	 call	 DWORD PTR [edx+32]
  0004c	3b f4		 cmp	 esi, esp
  0004e	e8 00 00 00 00	 call	 __RTC_CheckEsp
  00053	89 45 e8	 mov	 DWORD PTR _hr$[ebp], eax

; 1826 : 		assert( D3D_OK==hr );

  00056	83 7d e8 00	 cmp	 DWORD PTR _hr$[ebp], 0
  0005a	74 1b		 je	 SHORT $L94821
  0005c	a1 00 00 00 00	 mov	 eax, DWORD PTR ?__LINE__Var@?1??Screengrab@Cx7@@QAEJXZ@4JA
  00061	83 c0 08	 add	 eax, 8
  00064	50		 push	 eax
  00065	68 00 00 00 00	 push	 OFFSET FLAT:??_C@_0EE@BKJCFEJB@c?3?2documents?5and?5settings?2dom?2my@
  0006a	68 00 00 00 00	 push	 OFFSET FLAT:??_C@_0L@KJLEIMLM@D3D_OK?$DN?$DNhr?$AA@
  0006f	e8 00 00 00 00	 call	 __assert
  00074	83 c4 0c	 add	 esp, 12			; 0000000cH
$L94821:

; 1827 : 
; 1828 : 		hr = m_pd3dDevice->CreateImageSurface( DispMode.Width,
; 1829 : 									 		   DispMode.Height,
; 1830 : 											   D3DFMT_A8R8G8B8,
; 1831 : 											   &pFrontBuf );

  00077	8b f4		 mov	 esi, esp
  00079	8d 45 dc	 lea	 eax, DWORD PTR _pFrontBuf$[ebp]
  0007c	50		 push	 eax
  0007d	6a 15		 push	 21			; 00000015H
  0007f	8b 4d c8	 mov	 ecx, DWORD PTR _DispMode$[ebp+4]
  00082	51		 push	 ecx
  00083	8b 55 c4	 mov	 edx, DWORD PTR _DispMode$[ebp]
  00086	52		 push	 edx
  00087	8b 45 f4	 mov	 eax, DWORD PTR _this$[ebp]
  0008a	8b 88 a8 a4 02
	00		 mov	 ecx, DWORD PTR [eax+173224]
  00090	8b 55 f4	 mov	 edx, DWORD PTR _this$[ebp]
  00093	8b 82 a8 a4 02
	00		 mov	 eax, DWORD PTR [edx+173224]
  00099	8b 09		 mov	 ecx, DWORD PTR [ecx]
  0009b	50		 push	 eax
  0009c	ff 51 6c	 call	 DWORD PTR [ecx+108]
  0009f	3b f4		 cmp	 esi, esp
  000a1	e8 00 00 00 00	 call	 __RTC_CheckEsp
  000a6	89 45 e8	 mov	 DWORD PTR _hr$[ebp], eax

; 1832 : 		assert( D3D_OK==hr );

  000a9	83 7d e8 00	 cmp	 DWORD PTR _hr$[ebp], 0
  000ad	74 1b		 je	 SHORT $L94822
  000af	a1 00 00 00 00	 mov	 eax, DWORD PTR ?__LINE__Var@?1??Screengrab@Cx7@@QAEJXZ@4JA
  000b4	83 c0 0e	 add	 eax, 14			; 0000000eH
  000b7	50		 push	 eax
  000b8	68 00 00 00 00	 push	 OFFSET FLAT:??_C@_0EE@BKJCFEJB@c?3?2documents?5and?5settings?2dom?2my@
  000bd	68 00 00 00 00	 push	 OFFSET FLAT:??_C@_0L@KJLEIMLM@D3D_OK?$DN?$DNhr?$AA@
  000c2	e8 00 00 00 00	 call	 __assert
  000c7	83 c4 0c	 add	 esp, 12			; 0000000cH
$L94822:

; 1833 : 
; 1834 : 		hr = m_pd3dDevice->GetFrontBuffer( pFrontBuf );

  000ca	8b f4		 mov	 esi, esp
  000cc	8b 45 dc	 mov	 eax, DWORD PTR _pFrontBuf$[ebp]
  000cf	50		 push	 eax
  000d0	8b 4d f4	 mov	 ecx, DWORD PTR _this$[ebp]
  000d3	8b 91 a8 a4 02
	00		 mov	 edx, DWORD PTR [ecx+173224]
  000d9	8b 45 f4	 mov	 eax, DWORD PTR _this$[ebp]
  000dc	8b 88 a8 a4 02
	00		 mov	 ecx, DWORD PTR [eax+173224]
  000e2	8b 12		 mov	 edx, DWORD PTR [edx]
  000e4	51		 push	 ecx
  000e5	ff 52 78	 call	 DWORD PTR [edx+120]
  000e8	3b f4		 cmp	 esi, esp
  000ea	e8 00 00 00 00	 call	 __RTC_CheckEsp
  000ef	89 45 e8	 mov	 DWORD PTR _hr$[ebp], eax

; 1835 : 		assert( D3D_OK==hr );

  000f2	83 7d e8 00	 cmp	 DWORD PTR _hr$[ebp], 0
  000f6	74 1b		 je	 SHORT $L94823
  000f8	a1 00 00 00 00	 mov	 eax, DWORD PTR ?__LINE__Var@?1??Screengrab@Cx7@@QAEJXZ@4JA
  000fd	83 c0 11	 add	 eax, 17			; 00000011H
  00100	50		 push	 eax
  00101	68 00 00 00 00	 push	 OFFSET FLAT:??_C@_0EE@BKJCFEJB@c?3?2documents?5and?5settings?2dom?2my@
  00106	68 00 00 00 00	 push	 OFFSET FLAT:??_C@_0L@KJLEIMLM@D3D_OK?$DN?$DNhr?$AA@
  0010b	e8 00 00 00 00	 call	 __assert
  00110	83 c4 0c	 add	 esp, 12			; 0000000cH
$L94823:

; 1836 : 
; 1837 : 		time( &t );

  00113	8d 85 a4 f5 ff
	ff		 lea	 eax, DWORD PTR _t$[ebp]
  00119	50		 push	 eax
  0011a	e8 00 00 00 00	 call	 _time
  0011f	83 c4 04	 add	 esp, 4

; 1838 : 		//_getcwd( szPath, 1024 );
; 1839 : 		strcpy( szPath, "..\\images" );

  00122	68 00 00 00 00	 push	 OFFSET FLAT:??_C@_09OHLCLMFJ@?4?4?2images?$AA@
  00127	8d 85 b8 fb ff
	ff		 lea	 eax, DWORD PTR _szPath$[ebp]
  0012d	50		 push	 eax
  0012e	e8 00 00 00 00	 call	 _strcpy
  00133	83 c4 08	 add	 esp, 8

; 1840 : 		sprintf( szFullFilename, "%s\\Screenshot_%lu.BMP", szPath, (unsigned long)t );

  00136	8b 85 a4 f5 ff
	ff		 mov	 eax, DWORD PTR _t$[ebp]
  0013c	50		 push	 eax
  0013d	8d 8d b8 fb ff
	ff		 lea	 ecx, DWORD PTR _szPath$[ebp]
  00143	51		 push	 ecx
  00144	68 00 00 00 00	 push	 OFFSET FLAT:??_C@_0BG@GHFKNJHN@?$CFs?2Screenshot_?$CFlu?4BMP?$AA@
  00149	8d 95 b0 f5 ff
	ff		 lea	 edx, DWORD PTR _szFullFilename$[ebp]
  0014f	52		 push	 edx
  00150	e8 00 00 00 00	 call	 _sprintf
  00155	83 c4 10	 add	 esp, 16			; 00000010H

; 1841 : 		hr = D3DXSaveSurfaceToFile( szFullFilename, D3DXIFF_BMP, pFrontBuf, NULL, NULL );

  00158	6a 00		 push	 0
  0015a	6a 00		 push	 0
  0015c	8b 45 dc	 mov	 eax, DWORD PTR _pFrontBuf$[ebp]
  0015f	50		 push	 eax
  00160	6a 00		 push	 0
  00162	8d 8d b0 f5 ff
	ff		 lea	 ecx, DWORD PTR _szFullFilename$[ebp]
  00168	51		 push	 ecx
  00169	e8 00 00 00 00	 call	 _D3DXSaveSurfaceToFileA@20
  0016e	89 45 e8	 mov	 DWORD PTR _hr$[ebp], eax

; 1842 : 		assert( D3D_OK==hr );

  00171	83 7d e8 00	 cmp	 DWORD PTR _hr$[ebp], 0
  00175	74 1b		 je	 SHORT $L94824
  00177	a1 00 00 00 00	 mov	 eax, DWORD PTR ?__LINE__Var@?1??Screengrab@Cx7@@QAEJXZ@4JA
  0017c	83 c0 18	 add	 eax, 24			; 00000018H
  0017f	50		 push	 eax
  00180	68 00 00 00 00	 push	 OFFSET FLAT:??_C@_0EE@BKJCFEJB@c?3?2documents?5and?5settings?2dom?2my@
  00185	68 00 00 00 00	 push	 OFFSET FLAT:??_C@_0L@KJLEIMLM@D3D_OK?$DN?$DNhr?$AA@
  0018a	e8 00 00 00 00	 call	 __assert
  0018f	83 c4 0c	 add	 esp, 12			; 0000000cH
$L94824:

; 1843 : 
; 1844 : 		pFrontBuf->Release() ;

  00192	8b 45 dc	 mov	 eax, DWORD PTR _pFrontBuf$[ebp]
  00195	8b 08		 mov	 ecx, DWORD PTR [eax]
  00197	8b f4		 mov	 esi, esp
  00199	8b 55 dc	 mov	 edx, DWORD PTR _pFrontBuf$[ebp]
  0019c	52		 push	 edx
  0019d	ff 51 08	 call	 DWORD PTR [ecx+8]
  001a0	3b f4		 cmp	 esi, esp
  001a2	e8 00 00 00 00	 call	 __RTC_CheckEsp

; 1845 : 		return S_OK ;

  001a7	33 c0		 xor	 eax, eax

; 1846 : 	}

  001a9	52		 push	 edx
  001aa	8b cd		 mov	 ecx, ebp
  001ac	50		 push	 eax
  001ad	8d 15 00 00 00
	00		 lea	 edx, DWORD PTR $L94832
  001b3	e8 00 00 00 00	 call	 @_RTC_CheckStackVars@8
  001b8	58		 pop	 eax
  001b9	5a		 pop	 edx
  001ba	8b 4d fc	 mov	 ecx, DWORD PTR __$ArrayPad$[ebp]
  001bd	33 4d 04	 xor	 ecx, DWORD PTR __$ReturnAddr$[ebp]
  001c0	e8 00 00 00 00	 call	 @__security_check_cookie@4
  001c5	5f		 pop	 edi
  001c6	5e		 pop	 esi
  001c7	5b		 pop	 ebx
  001c8	81 c4 20 0b 00
	00		 add	 esp, 2848		; 00000b20H
  001ce	3b ec		 cmp	 ebp, esp
  001d0	e8 00 00 00 00	 call	 __RTC_CheckEsp
  001d5	8b e5		 mov	 esp, ebp
  001d7	5d		 pop	 ebp
  001d8	c3		 ret	 0
$L94832:
  001d9	05 00 00 00	 DD	 5
  001dd	00 00 00 00	 DD	 $L94831
$L94831:
  001e1	dc ff ff ff	 DD	 -36			; ffffffdcH
  001e5	04 00 00 00	 DD	 4
  001e9	00 00 00 00	 DD	 $L94825
  001ed	c4 ff ff ff	 DD	 -60			; ffffffc4H
  001f1	10 00 00 00	 DD	 16			; 00000010H
  001f5	00 00 00 00	 DD	 $L94826
  001f9	b8 fb ff ff	 DD	 -1096			; fffffbb8H
  001fd	00 04 00 00	 DD	 1024			; 00000400H
  00201	00 00 00 00	 DD	 $L94827
  00205	b0 f5 ff ff	 DD	 -2640			; fffff5b0H
  00209	00 06 00 00	 DD	 1536			; 00000600H
  0020d	00 00 00 00	 DD	 $L94828
  00211	a4 f5 ff ff	 DD	 -2652			; fffff5a4H
  00215	04 00 00 00	 DD	 4
  00219	00 00 00 00	 DD	 $L94829
$L94829:
  0021d	74		 DB	 116			; 00000074H
  0021e	00		 DB	 0
$L94828:
  0021f	73		 DB	 115			; 00000073H
  00220	7a		 DB	 122			; 0000007aH
  00221	46		 DB	 70			; 00000046H
  00222	75		 DB	 117			; 00000075H
  00223	6c		 DB	 108			; 0000006cH
  00224	6c		 DB	 108			; 0000006cH
  00225	46		 DB	 70			; 00000046H
  00226	69		 DB	 105			; 00000069H
  00227	6c		 DB	 108			; 0000006cH
  00228	65		 DB	 101			; 00000065H
  00229	6e		 DB	 110			; 0000006eH
  0022a	61		 DB	 97			; 00000061H
  0022b	6d		 DB	 109			; 0000006dH
  0022c	65		 DB	 101			; 00000065H
  0022d	00		 DB	 0
$L94827:
  0022e	73		 DB	 115			; 00000073H
  0022f	7a		 DB	 122			; 0000007aH
  00230	50		 DB	 80			; 00000050H
  00231	61		 DB	 97			; 00000061H
  00232	74		 DB	 116			; 00000074H
  00233	68		 DB	 104			; 00000068H
  00234	00		 DB	 0
$L94826:
  00235	44		 DB	 68			; 00000044H
  00236	69		 DB	 105			; 00000069H
  00237	73		 DB	 115			; 00000073H
  00238	70		 DB	 112			; 00000070H
  00239	4d		 DB	 77			; 0000004dH
  0023a	6f		 DB	 111			; 0000006fH
  0023b	64		 DB	 100			; 00000064H
  0023c	65		 DB	 101			; 00000065H
  0023d	00		 DB	 0
$L94825:
  0023e	70		 DB	 112			; 00000070H
  0023f	46		 DB	 70			; 00000046H
  00240	72		 DB	 114			; 00000072H
  00241	6f		 DB	 111			; 0000006fH
  00242	6e		 DB	 110			; 0000006eH
  00243	74		 DB	 116			; 00000074H
  00244	42		 DB	 66			; 00000042H
  00245	75		 DB	 117			; 00000075H
  00246	66		 DB	 102			; 00000066H
  00247	00		 DB	 0
?Screengrab@Cx7@@QAEJXZ ENDP				; Cx7::Screengrab
; Function compile flags: /Odt /RTCsu /ZI
; File c:\dxsdk\include\d3dx8math.inl
_TEXT	ENDS
;	COMDAT ?D3DXMatrixIdentity@@YAPAUD3DXMATRIX@@PAU1@@Z
_TEXT	SEGMENT
_pOut$ = 8
?D3DXMatrixIdentity@@YAPAUD3DXMATRIX@@PAU1@@Z PROC NEAR	; D3DXMatrixIdentity, COMDAT

; 1510 : {

  00000	55		 push	 ebp
  00001	8b ec		 mov	 ebp, esp
  00003	81 ec c0 00 00
	00		 sub	 esp, 192		; 000000c0H
  00009	53		 push	 ebx
  0000a	56		 push	 esi
  0000b	57		 push	 edi
  0000c	8d bd 40 ff ff
	ff		 lea	 edi, DWORD PTR [ebp-192]
  00012	b9 30 00 00 00	 mov	 ecx, 48			; 00000030H
  00017	b8 cc cc cc cc	 mov	 eax, -858993460		; ccccccccH
  0001c	f3 ab		 rep stosd

; 1511 : #ifdef D3DX_DEBUG
; 1512 :     if(!pOut)
; 1513 :         return NULL;
; 1514 : #endif
; 1515 : 
; 1516 :     pOut->m[0][1] = pOut->m[0][2] = pOut->m[0][3] =
; 1517 :     pOut->m[1][0] = pOut->m[1][2] = pOut->m[1][3] =
; 1518 :     pOut->m[2][0] = pOut->m[2][1] = pOut->m[2][3] =
; 1519 :     pOut->m[3][0] = pOut->m[3][1] = pOut->m[3][2] = 0.0f;

  0001e	8b 45 08	 mov	 eax, DWORD PTR _pOut$[ebp]
  00021	c7 40 38 00 00
	00 00		 mov	 DWORD PTR [eax+56], 0
  00028	8b 4d 08	 mov	 ecx, DWORD PTR _pOut$[ebp]
  0002b	c7 41 34 00 00
	00 00		 mov	 DWORD PTR [ecx+52], 0
  00032	8b 55 08	 mov	 edx, DWORD PTR _pOut$[ebp]
  00035	c7 42 30 00 00
	00 00		 mov	 DWORD PTR [edx+48], 0
  0003c	8b 45 08	 mov	 eax, DWORD PTR _pOut$[ebp]
  0003f	c7 40 2c 00 00
	00 00		 mov	 DWORD PTR [eax+44], 0
  00046	8b 4d 08	 mov	 ecx, DWORD PTR _pOut$[ebp]
  00049	c7 41 24 00 00
	00 00		 mov	 DWORD PTR [ecx+36], 0
  00050	8b 55 08	 mov	 edx, DWORD PTR _pOut$[ebp]
  00053	c7 42 20 00 00
	00 00		 mov	 DWORD PTR [edx+32], 0
  0005a	8b 45 08	 mov	 eax, DWORD PTR _pOut$[ebp]
  0005d	c7 40 1c 00 00
	00 00		 mov	 DWORD PTR [eax+28], 0
  00064	8b 4d 08	 mov	 ecx, DWORD PTR _pOut$[ebp]
  00067	c7 41 18 00 00
	00 00		 mov	 DWORD PTR [ecx+24], 0
  0006e	8b 55 08	 mov	 edx, DWORD PTR _pOut$[ebp]
  00071	c7 42 10 00 00
	00 00		 mov	 DWORD PTR [edx+16], 0
  00078	8b 45 08	 mov	 eax, DWORD PTR _pOut$[ebp]
  0007b	c7 40 0c 00 00
	00 00		 mov	 DWORD PTR [eax+12], 0
  00082	8b 4d 08	 mov	 ecx, DWORD PTR _pOut$[ebp]
  00085	c7 41 08 00 00
	00 00		 mov	 DWORD PTR [ecx+8], 0
  0008c	8b 55 08	 mov	 edx, DWORD PTR _pOut$[ebp]
  0008f	c7 42 04 00 00
	00 00		 mov	 DWORD PTR [edx+4], 0

; 1520 : 
; 1521 :     pOut->m[0][0] = pOut->m[1][1] = pOut->m[2][2] = pOut->m[3][3] = 1.0f;

  00096	8b 45 08	 mov	 eax, DWORD PTR _pOut$[ebp]
  00099	c7 40 3c 00 00
	80 3f		 mov	 DWORD PTR [eax+60], 1065353216 ; 3f800000H
  000a0	8b 4d 08	 mov	 ecx, DWORD PTR _pOut$[ebp]
  000a3	c7 41 28 00 00
	80 3f		 mov	 DWORD PTR [ecx+40], 1065353216 ; 3f800000H
  000aa	8b 55 08	 mov	 edx, DWORD PTR _pOut$[ebp]
  000ad	c7 42 14 00 00
	80 3f		 mov	 DWORD PTR [edx+20], 1065353216 ; 3f800000H
  000b4	8b 45 08	 mov	 eax, DWORD PTR _pOut$[ebp]
  000b7	c7 00 00 00 80
	3f		 mov	 DWORD PTR [eax], 1065353216 ; 3f800000H

; 1522 :     return pOut;

  000bd	8b 45 08	 mov	 eax, DWORD PTR _pOut$[ebp]

; 1523 : }

  000c0	5f		 pop	 edi
  000c1	5e		 pop	 esi
  000c2	5b		 pop	 ebx
  000c3	8b e5		 mov	 esp, ebp
  000c5	5d		 pop	 ebp
  000c6	c3		 ret	 0
?D3DXMatrixIdentity@@YAPAUD3DXMATRIX@@PAU1@@Z ENDP	; D3DXMatrixIdentity
_TEXT	ENDS
END
