; Listing generated by Microsoft (R) Optimizing Compiler Version 13.00.9466 

	TITLE	X7_Utils.cpp
	.386P
include listing.inc
if @Version gt 510
.model FLAT
else
_TEXT	SEGMENT PARA USE32 PUBLIC 'CODE'
_TEXT	ENDS
_DATA	SEGMENT DWORD USE32 PUBLIC 'DATA'
_DATA	ENDS
CONST	SEGMENT DWORD USE32 PUBLIC 'CONST'
CONST	ENDS
_BSS	SEGMENT PARA USE32 PUBLIC 'BSS'
_BSS	ENDS
$$SYMBOLS	SEGMENT BYTE USE32 'DEBSYM'
$$SYMBOLS	ENDS
$$TYPES	SEGMENT BYTE USE32 'DEBTYP'
$$TYPES	ENDS
_TLS	SEGMENT DWORD USE32 PUBLIC 'TLS'
_TLS	ENDS
;	COMDAT ??_C@_0CF@GGGILHDI@Expected?5power?5of?5two?0?5not?5recei@
CONST	SEGMENT DWORD USE32 PUBLIC 'CONST'
CONST	ENDS
;	COMDAT ??_C@_07OKGGAKCC@Dbg?5Msg?$AA@
CONST	SEGMENT DWORD USE32 PUBLIC 'CONST'
CONST	ENDS
;	COMDAT ??_C@_07NFANNNEC@UNKNOWN?$AA@
CONST	SEGMENT DWORD USE32 PUBLIC 'CONST'
CONST	ENDS
;	COMDAT ??_C@_0O@OOCIJBAM@D3DFMT_R8G8B8?$AA@
CONST	SEGMENT DWORD USE32 PUBLIC 'CONST'
CONST	ENDS
;	COMDAT ??_C@_0BA@CHHHKFAO@D3DFMT_A8R8G8B8?$AA@
CONST	SEGMENT DWORD USE32 PUBLIC 'CONST'
CONST	ENDS
;	COMDAT ??_C@_0BA@CHBEFBCE@D3DFMT_X8R8G8B8?$AA@
CONST	SEGMENT DWORD USE32 PUBLIC 'CONST'
CONST	ENDS
;	COMDAT ??_C@_0O@HMHILKM@D3DFMT_R5G6B5?$AA@
CONST	SEGMENT DWORD USE32 PUBLIC 'CONST'
CONST	ENDS
;	COMDAT ??_C@_0BA@MDABPPEB@D3DFMT_X1R5G5B5?$AA@
CONST	SEGMENT DWORD USE32 PUBLIC 'CONST'
CONST	ENDS
;	COMDAT ??_C@_0BA@MDGCALGL@D3DFMT_A1R5G5B5?$AA@
CONST	SEGMENT DWORD USE32 PUBLIC 'CONST'
CONST	ENDS
;	COMDAT ??_C@_0BA@OBHJIAIO@D3DFMT_A4R4G4B4?$AA@
CONST	SEGMENT DWORD USE32 PUBLIC 'CONST'
CONST	ENDS
;	COMDAT ??_C@_0O@KJABAOEE@D3DFMT_R3G3B2?$AA@
CONST	SEGMENT DWORD USE32 PUBLIC 'CONST'
CONST	ENDS
;	COMDAT ??_C@_09JNGIHEFB@D3DFMT_A8?$AA@
CONST	SEGMENT DWORD USE32 PUBLIC 'CONST'
CONST	ENDS
;	COMDAT ??_C@_0BA@GAFODKEG@D3DFMT_A8R3G3B2?$AA@
CONST	SEGMENT DWORD USE32 PUBLIC 'CONST'
CONST	ENDS
;	COMDAT ??_C@_0BA@OBBKHEKE@D3DFMT_X4R4G4B4?$AA@
CONST	SEGMENT DWORD USE32 PUBLIC 'CONST'
CONST	ENDS
;	COMDAT ??_C@_0M@IPOLNGBD@D3DFMT_A8P8?$AA@
CONST	SEGMENT DWORD USE32 PUBLIC 'CONST'
CONST	ENDS
;	COMDAT ??_C@_09IAIMLNBG@D3DFMT_P8?$AA@
CONST	SEGMENT DWORD USE32 PUBLIC 'CONST'
CONST	ENDS
;	COMDAT ??_C@_09JFLAOHAC@D3DFMT_L8?$AA@
CONST	SEGMENT DWORD USE32 PUBLIC 'CONST'
CONST	ENDS
;	COMDAT ??_C@_0M@JKNHIMAH@D3DFMT_A8L8?$AA@
CONST	SEGMENT DWORD USE32 PUBLIC 'CONST'
CONST	ENDS
;	COMDAT ??_C@_0M@HMLEHMLD@D3DFMT_A4L4?$AA@
CONST	SEGMENT DWORD USE32 PUBLIC 'CONST'
CONST	ENDS
;	COMDAT ??_C@_0M@FLOAFPGK@D3DFMT_V8U8?$AA@
CONST	SEGMENT DWORD USE32 PUBLIC 'CONST'
CONST	ENDS
;	COMDAT ??_C@_0O@OAOOLKLI@D3DFMT_L6V5U5?$AA@
CONST	SEGMENT DWORD USE32 PUBLIC 'CONST'
CONST	ENDS
;	COMDAT ??_C@_0BA@FEBMLNHA@D3DFMT_X8L8V8U8?$AA@
CONST	SEGMENT DWORD USE32 PUBLIC 'CONST'
CONST	ENDS
;	COMDAT ??_C@_0BA@JNGGMDBP@D3DFMT_Q8W8V8U8?$AA@
CONST	SEGMENT DWORD USE32 PUBLIC 'CONST'
CONST	ENDS
;	COMDAT ??_C@_0O@PIKCPJPB@D3DFMT_V16U16?$AA@
CONST	SEGMENT DWORD USE32 PUBLIC 'CONST'
CONST	ENDS
;	COMDAT ??_C@_0BB@CJFDGDEB@D3DFMT_W11V11U10?$AA@
CONST	SEGMENT DWORD USE32 PUBLIC 'CONST'
CONST	ENDS
;	COMDAT ??_C@_0M@OBHKFBGD@D3DFMT_UYVY?$AA@
CONST	SEGMENT DWORD USE32 PUBLIC 'CONST'
CONST	ENDS
;	COMDAT ??_C@_0M@ODAJPGIL@D3DFMT_YUY2?$AA@
CONST	SEGMENT DWORD USE32 PUBLIC 'CONST'
CONST	ENDS
;	COMDAT ??_C@_0M@KKOGLNPF@D3DFMT_DXT1?$AA@
CONST	SEGMENT DWORD USE32 PUBLIC 'CONST'
CONST	ENDS
;	COMDAT ??_C@_0M@IBMLOODG@D3DFMT_DXT2?$AA@
CONST	SEGMENT DWORD USE32 PUBLIC 'CONST'
CONST	ENDS
;	COMDAT ??_C@_0M@JINANPHH@D3DFMT_DXT3?$AA@
CONST	SEGMENT DWORD USE32 PUBLIC 'CONST'
CONST	ENDS
;	COMDAT ??_C@_0M@NHJBEJLA@D3DFMT_DXT4?$AA@
CONST	SEGMENT DWORD USE32 PUBLIC 'CONST'
CONST	ENDS
;	COMDAT ??_C@_0M@MOIKHIPB@D3DFMT_DXT5?$AA@
CONST	SEGMENT DWORD USE32 PUBLIC 'CONST'
CONST	ENDS
;	COMDAT ??_C@_0BE@GKJJNPH@D3DFMT_D16_LOCKABLE?$AA@
CONST	SEGMENT DWORD USE32 PUBLIC 'CONST'
CONST	ENDS
;	COMDAT ??_C@_0L@MKAKECLE@D3DFMT_D32?$AA@
CONST	SEGMENT DWORD USE32 PUBLIC 'CONST'
CONST	ENDS
;	COMDAT ??_C@_0N@FHMLHNII@D3DFMT_D15S1?$AA@
CONST	SEGMENT DWORD USE32 PUBLIC 'CONST'
CONST	ENDS
;	COMDAT ??_C@_0N@HJBFNLHE@D3DFMT_D24S8?$AA@
CONST	SEGMENT DWORD USE32 PUBLIC 'CONST'
CONST	ENDS
;	COMDAT ??_C@_0L@KNOCFDNO@D3DFMT_D16?$AA@
CONST	SEGMENT DWORD USE32 PUBLIC 'CONST'
CONST	ENDS
;	COMDAT ??_C@_0N@HFEADEJF@D3DFMT_D24X8?$AA@
CONST	SEGMENT DWORD USE32 PUBLIC 'CONST'
CONST	ENDS
;	COMDAT ??_C@_0P@LCIECDAM@D3DFMT_D24X4S4?$AA@
CONST	SEGMENT DWORD USE32 PUBLIC 'CONST'
CONST	ENDS
;	COMDAT ??_C@_0BC@LPMKMLOH@D3DFMT_VERTEXDATA?$AA@
CONST	SEGMENT DWORD USE32 PUBLIC 'CONST'
CONST	ENDS
;	COMDAT ??_C@_0P@JJIOOHAH@D3DFMT_INDEX16?$AA@
CONST	SEGMENT DWORD USE32 PUBLIC 'CONST'
CONST	ENDS
;	COMDAT ??_C@_0P@POGGPGGN@D3DFMT_INDEX32?$AA@
CONST	SEGMENT DWORD USE32 PUBLIC 'CONST'
CONST	ENDS
;	COMDAT ??_C@_05NNNMIPMB@OTHER?$AA@
CONST	SEGMENT DWORD USE32 PUBLIC 'CONST'
CONST	ENDS
;	COMDAT ??_C@_0O@NGBLBPBC@D3DBLEND_ZERO?$AA@
CONST	SEGMENT DWORD USE32 PUBLIC 'CONST'
CONST	ENDS
;	COMDAT ??_C@_0N@EFMOGKHL@D3DBLEND_ONE?$AA@
CONST	SEGMENT DWORD USE32 PUBLIC 'CONST'
CONST	ENDS
;	COMDAT ??_C@_0BC@LPHAMDHM@D3DBLEND_SRCCOLOR?$AA@
CONST	SEGMENT DWORD USE32 PUBLIC 'CONST'
CONST	ENDS
;	COMDAT ??_C@_0BF@BOHAOKID@D3DBLEND_INVSRCCOLOR?$AA@
CONST	SEGMENT DWORD USE32 PUBLIC 'CONST'
CONST	ENDS
;	COMDAT ??_C@_0BC@MLHHKHJH@D3DBLEND_SRCALPHA?$AA@
CONST	SEGMENT DWORD USE32 PUBLIC 'CONST'
CONST	ENDS
;	COMDAT ??_C@_0BF@GKHHIOGI@D3DBLEND_INVSRCALPHA?$AA@
CONST	SEGMENT DWORD USE32 PUBLIC 'CONST'
CONST	ENDS
;	COMDAT ??_C@_0BD@EALOBFMN@D3DBLEND_DESTALPHA?$AA@
CONST	SEGMENT DWORD USE32 PUBLIC 'CONST'
CONST	ENDS
;	COMDAT ??_C@_0BG@GNBNPKGJ@D3DBLEND_INVDESTALPHA?$AA@
CONST	SEGMENT DWORD USE32 PUBLIC 'CONST'
CONST	ENDS
;	COMDAT ??_C@_0BD@DELJHBCG@D3DBLEND_DESTCOLOR?$AA@
CONST	SEGMENT DWORD USE32 PUBLIC 'CONST'
CONST	ENDS
;	COMDAT ??_C@_0BG@BJBKJOIC@D3DBLEND_INVDESTCOLOR?$AA@
CONST	SEGMENT DWORD USE32 PUBLIC 'CONST'
CONST	ENDS
;	COMDAT ??_C@_0BF@KBEMLPOE@D3DBLEND_SRCALPHASAT?$AA@
CONST	SEGMENT DWORD USE32 PUBLIC 'CONST'
CONST	ENDS
;	COMDAT ??_C@_0BG@OCCIMJMP@D3DBLEND_BOTHSRCALPHA?$AA@
CONST	SEGMENT DWORD USE32 PUBLIC 'CONST'
CONST	ENDS
;	COMDAT ??_C@_0BJ@IHCPLAF@D3DBLEND_BOTHINVSRCALPHA?$AA@
CONST	SEGMENT DWORD USE32 PUBLIC 'CONST'
CONST	ENDS
;	COMDAT ??_C@_03HPADHAHE@N?1A?$AA@
CONST	SEGMENT DWORD USE32 PUBLIC 'CONST'
CONST	ENDS
;	COMDAT ??_C@_01MMEEDKFM@X?$AA@
CONST	SEGMENT DWORD USE32 PUBLIC 'CONST'
CONST	ENDS
text$yc	SEGMENT PARA USE32 PUBLIC 'CODE'
text$yc	ENDS
CRT$XCA	SEGMENT DWORD USE32 PUBLIC 'DATA'
CRT$XCA	ENDS
CRT$XCU	SEGMENT DWORD USE32 PUBLIC 'DATA'
CRT$XCU	ENDS
CRT$XCL	SEGMENT DWORD USE32 PUBLIC 'DATA'
CRT$XCL	ENDS
CRT$XCC	SEGMENT DWORD USE32 PUBLIC 'DATA'
CRT$XCC	ENDS
CRT$XCZ	SEGMENT DWORD USE32 PUBLIC 'DATA'
CRT$XCZ	ENDS
;	COMDAT _IsEqualGUID
_TEXT	SEGMENT PARA USE32 PUBLIC 'CODE'
_TEXT	ENDS
;	COMDAT _==
_TEXT	SEGMENT PARA USE32 PUBLIC 'CODE'
_TEXT	ENDS
;	COMDAT _sqrtf
_TEXT	SEGMENT PARA USE32 PUBLIC 'CODE'
_TEXT	ENDS
;	COMDAT ??0D3DXVECTOR3@@QAE@XZ
_TEXT	SEGMENT PARA USE32 PUBLIC 'CODE'
_TEXT	ENDS
;	COMDAT ??0D3DXVECTOR4@@QAE@XZ
_TEXT	SEGMENT PARA USE32 PUBLIC 'CODE'
_TEXT	ENDS
;	COMDAT ??0D3DXMATRIX@@QAE@XZ
_TEXT	SEGMENT PARA USE32 PUBLIC 'CODE'
_TEXT	ENDS
;	COMDAT ??0D3DXQUATERNION@@QAE@XZ
_TEXT	SEGMENT PARA USE32 PUBLIC 'CODE'
_TEXT	ENDS
;	COMDAT ??0D3DXVECTOR2@@QAE@MM@Z
_TEXT	SEGMENT PARA USE32 PUBLIC 'CODE'
_TEXT	ENDS
;	COMDAT ??0D3DXVECTOR3@@QAE@MMM@Z
_TEXT	SEGMENT PARA USE32 PUBLIC 'CODE'
_TEXT	ENDS
;	COMDAT ??HD3DXVECTOR3@@QBE?AU0@ABU0@@Z
_TEXT	SEGMENT PARA USE32 PUBLIC 'CODE'
_TEXT	ENDS
;	COMDAT ??GD3DXVECTOR3@@QBE?AU0@ABU0@@Z
_TEXT	SEGMENT PARA USE32 PUBLIC 'CODE'
_TEXT	ENDS
;	COMDAT ??KD3DXVECTOR3@@QBE?AU0@M@Z
_TEXT	SEGMENT PARA USE32 PUBLIC 'CODE'
_TEXT	ENDS
;	COMDAT ??0D3DXVECTOR4@@QAE@MMMM@Z
_TEXT	SEGMENT PARA USE32 PUBLIC 'CODE'
_TEXT	ENDS
;	COMDAT ??0D3DXMATRIX@@QAE@PBM@Z
_TEXT	SEGMENT PARA USE32 PUBLIC 'CODE'
_TEXT	ENDS
;	COMDAT ??0D3DXMATRIX@@QAE@ABU_D3DMATRIX@@@Z
_TEXT	SEGMENT PARA USE32 PUBLIC 'CODE'
_TEXT	ENDS
;	COMDAT ??0D3DXMATRIX@@QAE@MMMMMMMMMMMMMMMM@Z
_TEXT	SEGMENT PARA USE32 PUBLIC 'CODE'
_TEXT	ENDS
;	COMDAT ??0D3DXQUATERNION@@QAE@MMMM@Z
_TEXT	SEGMENT PARA USE32 PUBLIC 'CODE'
_TEXT	ENDS
;	COMDAT ??0D3DXPLANE@@QAE@MMMM@Z
_TEXT	SEGMENT PARA USE32 PUBLIC 'CODE'
_TEXT	ENDS
;	COMDAT ??0D3DXCOLOR@@QAE@MMMM@Z
_TEXT	SEGMENT PARA USE32 PUBLIC 'CODE'
_TEXT	ENDS
;	COMDAT ?D3DXVec3Length@@YAMPBUD3DXVECTOR3@@@Z
_TEXT	SEGMENT PARA USE32 PUBLIC 'CODE'
_TEXT	ENDS
;	COMDAT _$E1
text$yc	SEGMENT PARA USE32 PUBLIC 'CODE'
text$yc	ENDS
;	COMDAT ?SetupSpecularMaterial@@YAXPAU_D3DMATERIAL8@@MMMM@Z
_TEXT	SEGMENT PARA USE32 PUBLIC 'CODE'
_TEXT	ENDS
;	COMDAT ?Pow2@@YAHH@Z
_TEXT	SEGMENT PARA USE32 PUBLIC 'CODE'
_TEXT	ENDS
;	COMDAT ?LTrim@@YAXPAD@Z
_TEXT	SEGMENT PARA USE32 PUBLIC 'CODE'
_TEXT	ENDS
;	COMDAT ?RTrim@@YAXPAD@Z
_TEXT	SEGMENT PARA USE32 PUBLIC 'CODE'
_TEXT	ENDS
;	COMDAT ?Trim@@YAXPAD@Z
_TEXT	SEGMENT PARA USE32 PUBLIC 'CODE'
_TEXT	ENDS
;	COMDAT ?FtoDW@@YAKM@Z
_TEXT	SEGMENT PARA USE32 PUBLIC 'CODE'
_TEXT	ENDS
;	COMDAT ?Msg@@YAXPAD@Z
_TEXT	SEGMENT PARA USE32 PUBLIC 'CODE'
_TEXT	ENDS
;	COMDAT ?Msg2@@YAXPADZZ
_TEXT	SEGMENT PARA USE32 PUBLIC 'CODE'
_TEXT	ENDS
;	COMDAT ?ods@@YAXPADZZ
_TEXT	SEGMENT PARA USE32 PUBLIC 'CODE'
_TEXT	ENDS
;	COMDAT ?GetBBoxVisibility@@YAHPAUIDirect3DDevice8@@ABUD3DXMATRIX@@1PAU_D3DVIEWPORT8@@ABUD3DXVECTOR3@@3@Z
_TEXT	SEGMENT PARA USE32 PUBLIC 'CODE'
_TEXT	ENDS
;	COMDAT ??_H@YGXPAXIHP6EPAX0@Z@Z
_TEXT	SEGMENT PARA USE32 PUBLIC 'CODE'
_TEXT	ENDS
;	COMDAT ?sphere_line_intersection@@YAXMMMMMMMMMMPAM@Z
_TEXT	SEGMENT PARA USE32 PUBLIC 'CODE'
_TEXT	ENDS
;	COMDAT ?square@@YAMM@Z
_TEXT	SEGMENT PARA USE32 PUBLIC 'CODE'
_TEXT	ENDS
;	COMDAT ?SphereLineTest@@YAHABUD3DXVECTOR3@@00MPAHPAU1@2@Z
_TEXT	SEGMENT PARA USE32 PUBLIC 'CODE'
_TEXT	ENDS
;	COMDAT ?rnd@@YAMXZ
_TEXT	SEGMENT PARA USE32 PUBLIC 'CODE'
_TEXT	ENDS
;	COMDAT ?D3DFormat2Str@@YAXKPAD@Z
_TEXT	SEGMENT PARA USE32 PUBLIC 'CODE'
_TEXT	ENDS
;	COMDAT ?D3DBlend2Str@@YAXKPAD@Z
_TEXT	SEGMENT PARA USE32 PUBLIC 'CODE'
_TEXT	ENDS
;	COMDAT ?LoadDDSTextureFromResource@@YAJPAUIDirect3DDevice8@@PADPAPAUIDirect3DTexture8@@1@Z
_TEXT	SEGMENT PARA USE32 PUBLIC 'CODE'
_TEXT	ENDS
;	COMDAT ?LoadXMeshFromResource@@YAJPAUIDirect3DDevice8@@PADPAPAUID3DXMesh@@PAPAUID3DXBuffer@@3PAKK@Z
_TEXT	SEGMENT PARA USE32 PUBLIC 'CODE'
_TEXT	ENDS
;	COMDAT ?TranslateVector@@YAXPAUD3DXVECTOR3@@MMM@Z
_TEXT	SEGMENT PARA USE32 PUBLIC 'CODE'
_TEXT	ENDS
;	COMDAT ?RotateVectorX@@YAXPAUD3DXVECTOR3@@M0@Z
_TEXT	SEGMENT PARA USE32 PUBLIC 'CODE'
_TEXT	ENDS
;	COMDAT ?RotateVectorY@@YAXPAUD3DXVECTOR3@@M0@Z
_TEXT	SEGMENT PARA USE32 PUBLIC 'CODE'
_TEXT	ENDS
;	COMDAT ?RotateVectorZ@@YAXPAUD3DXVECTOR3@@M0@Z
_TEXT	SEGMENT PARA USE32 PUBLIC 'CODE'
_TEXT	ENDS
;	COMDAT ?SetKey@@YAXHH@Z
_TEXT	SEGMENT PARA USE32 PUBLIC 'CODE'
_TEXT	ENDS
FLAT	GROUP _DATA, CONST, _BSS
	ASSUME	CS: FLAT, DS: FLAT, SS: FLAT
endif

INCLUDELIB LIBCMTD
INCLUDELIB OLDNAMES

PUBLIC	?g_bDebugMsgs@@3HA				; g_bDebugMsgs
_BSS	SEGMENT
?pn@?1??RotateVectorX@@YAXPAUD3DXVECTOR3@@M0@Z@4MA DD 01H DUP (?) ; `RotateVectorX'::`2'::pn
?pn@?1??RotateVectorY@@YAXPAUD3DXVECTOR3@@M0@Z@4MA DD 01H DUP (?) ; `RotateVectorY'::`2'::pn
?pn@?1??RotateVectorZ@@YAXPAUD3DXVECTOR3@@M0@Z@4MA DD 01H DUP (?) ; `RotateVectorZ'::`2'::pn
_BSS	ENDS
CONST	SEGMENT
_g_DEGTORAD DD	03c8efa35r			; 0.0174533
CONST	ENDS
_DATA	SEGMENT
?g_bDebugMsgs@@3HA DD 01H				; g_bDebugMsgs
_DATA	ENDS
PUBLIC	??0D3DXMATRIX@@QAE@XZ				; D3DXMATRIX::D3DXMATRIX
EXTRN	__RTC_InitBase:NEAR
EXTRN	__RTC_Shutdown:NEAR
EXTRN	__RTC_CheckEsp:NEAR
CRT$XCU	SEGMENT
_$S2	DD	FLAT:_$E1
CRT$XCU	ENDS
;	COMDAT rtc$IMZ
; File c:\documents and settings\dom\my documents\_dev\ae\xlr8a\x7g\x7_utils.cpp
rtc$IMZ	SEGMENT
__RTC_InitBase.rtc$IMZ DD FLAT:__RTC_InitBase
rtc$IMZ	ENDS
;	COMDAT rtc$TMZ
rtc$TMZ	SEGMENT
__RTC_Shutdown.rtc$TMZ DD FLAT:__RTC_Shutdown
; Function compile flags: /Odt /RTCsu /ZI
rtc$TMZ	ENDS
;	COMDAT _$E1
text$yc	SEGMENT
_$E1	PROC NEAR					; COMDAT

; 16   : xMat g_matIdent ;

  00000	55		 push	 ebp
  00001	8b ec		 mov	 ebp, esp
  00003	81 ec c0 00 00
	00		 sub	 esp, 192		; 000000c0H
  00009	53		 push	 ebx
  0000a	56		 push	 esi
  0000b	57		 push	 edi
  0000c	8d bd 40 ff ff
	ff		 lea	 edi, DWORD PTR [ebp-192]
  00012	b9 30 00 00 00	 mov	 ecx, 48			; 00000030H
  00017	b8 cc cc cc cc	 mov	 eax, -858993460		; ccccccccH
  0001c	f3 ab		 rep stosd
  0001e	b9 00 00 00 00	 mov	 ecx, OFFSET FLAT:?g_matIdent@@3UD3DXMATRIX@@A
  00023	e8 00 00 00 00	 call	 ??0D3DXMATRIX@@QAE@XZ	; D3DXMATRIX::D3DXMATRIX
  00028	5f		 pop	 edi
  00029	5e		 pop	 esi
  0002a	5b		 pop	 ebx
  0002b	81 c4 c0 00 00
	00		 add	 esp, 192		; 000000c0H
  00031	3b ec		 cmp	 ebp, esp
  00033	e8 00 00 00 00	 call	 __RTC_CheckEsp
  00038	8b e5		 mov	 esp, ebp
  0003a	5d		 pop	 ebp
  0003b	c3		 ret	 0
_$E1	ENDP
text$yc	ENDS
PUBLIC	?SetupSpecularMaterial@@YAXPAU_D3DMATERIAL8@@MMMM@Z ; SetupSpecularMaterial
EXTRN	__fltused:NEAR
EXTRN	?D3DUtil_InitMaterial@@YAXAAU_D3DMATERIAL8@@MMMM@Z:NEAR ; D3DUtil_InitMaterial
; Function compile flags: /Odt /RTCsu /ZI
;	COMDAT ?SetupSpecularMaterial@@YAXPAU_D3DMATERIAL8@@MMMM@Z
_TEXT	SEGMENT
_pMat$ = 8
_r$ = 12
_g$ = 16
_b$ = 20
_a$ = 24
?SetupSpecularMaterial@@YAXPAU_D3DMATERIAL8@@MMMM@Z PROC NEAR ; SetupSpecularMaterial, COMDAT

; 20   : {

  00000	55		 push	 ebp
  00001	8b ec		 mov	 ebp, esp
  00003	81 ec c0 00 00
	00		 sub	 esp, 192		; 000000c0H
  00009	53		 push	 ebx
  0000a	56		 push	 esi
  0000b	57		 push	 edi
  0000c	8d bd 40 ff ff
	ff		 lea	 edi, DWORD PTR [ebp-192]
  00012	b9 30 00 00 00	 mov	 ecx, 48			; 00000030H
  00017	b8 cc cc cc cc	 mov	 eax, -858993460		; ccccccccH
  0001c	f3 ab		 rep stosd

; 21   : 	D3DUtil_InitMaterial( *pMat, r, g, b, a );

  0001e	8b 45 18	 mov	 eax, DWORD PTR _a$[ebp]
  00021	50		 push	 eax
  00022	8b 4d 14	 mov	 ecx, DWORD PTR _b$[ebp]
  00025	51		 push	 ecx
  00026	8b 55 10	 mov	 edx, DWORD PTR _g$[ebp]
  00029	52		 push	 edx
  0002a	8b 45 0c	 mov	 eax, DWORD PTR _r$[ebp]
  0002d	50		 push	 eax
  0002e	8b 4d 08	 mov	 ecx, DWORD PTR _pMat$[ebp]
  00031	51		 push	 ecx
  00032	e8 00 00 00 00	 call	 ?D3DUtil_InitMaterial@@YAXAAU_D3DMATERIAL8@@MMMM@Z ; D3DUtil_InitMaterial
  00037	83 c4 14	 add	 esp, 20			; 00000014H

; 22   : 	pMat->Power = 50 ;

  0003a	8b 45 08	 mov	 eax, DWORD PTR _pMat$[ebp]
  0003d	c7 40 40 00 00
	48 42		 mov	 DWORD PTR [eax+64], 1112014848 ; 42480000H

; 23   : 	pMat->Specular.r = 
; 24   : 	pMat->Specular.g =
; 25   : 	pMat->Specular.b =
; 26   : 	pMat->Specular.a = 1.0f ;

  00044	8b 45 08	 mov	 eax, DWORD PTR _pMat$[ebp]
  00047	c7 40 2c 00 00
	80 3f		 mov	 DWORD PTR [eax+44], 1065353216 ; 3f800000H
  0004e	8b 4d 08	 mov	 ecx, DWORD PTR _pMat$[ebp]
  00051	c7 41 28 00 00
	80 3f		 mov	 DWORD PTR [ecx+40], 1065353216 ; 3f800000H
  00058	8b 55 08	 mov	 edx, DWORD PTR _pMat$[ebp]
  0005b	c7 42 24 00 00
	80 3f		 mov	 DWORD PTR [edx+36], 1065353216 ; 3f800000H
  00062	8b 45 08	 mov	 eax, DWORD PTR _pMat$[ebp]
  00065	c7 40 20 00 00
	80 3f		 mov	 DWORD PTR [eax+32], 1065353216 ; 3f800000H

; 27   : 	pMat->Emissive.r = 0.0f ;

  0006c	8b 45 08	 mov	 eax, DWORD PTR _pMat$[ebp]
  0006f	c7 40 30 00 00
	00 00		 mov	 DWORD PTR [eax+48], 0

; 28   : 	pMat->Emissive.g = 0.0f ;

  00076	8b 45 08	 mov	 eax, DWORD PTR _pMat$[ebp]
  00079	c7 40 34 00 00
	00 00		 mov	 DWORD PTR [eax+52], 0

; 29   : 	pMat->Emissive.b = 0.0f ;

  00080	8b 45 08	 mov	 eax, DWORD PTR _pMat$[ebp]
  00083	c7 40 38 00 00
	00 00		 mov	 DWORD PTR [eax+56], 0

; 30   : 	pMat->Emissive.a = 1.0f ;

  0008a	8b 45 08	 mov	 eax, DWORD PTR _pMat$[ebp]
  0008d	c7 40 3c 00 00
	80 3f		 mov	 DWORD PTR [eax+60], 1065353216 ; 3f800000H

; 31   : }

  00094	5f		 pop	 edi
  00095	5e		 pop	 esi
  00096	5b		 pop	 ebx
  00097	81 c4 c0 00 00
	00		 add	 esp, 192		; 000000c0H
  0009d	3b ec		 cmp	 ebp, esp
  0009f	e8 00 00 00 00	 call	 __RTC_CheckEsp
  000a4	8b e5		 mov	 esp, ebp
  000a6	5d		 pop	 ebp
  000a7	c3		 ret	 0
?SetupSpecularMaterial@@YAXPAU_D3DMATERIAL8@@MMMM@Z ENDP ; SetupSpecularMaterial
_TEXT	ENDS
PUBLIC	?Pow2@@YAHH@Z					; Pow2
PUBLIC	?Msg@@YAXPAD@Z					; Msg
PUBLIC	??_C@_0CF@GGGILHDI@Expected?5power?5of?5two?0?5not?5recei@ ; `string'
;	COMDAT ??_C@_0CF@GGGILHDI@Expected?5power?5of?5two?0?5not?5recei@
CONST	SEGMENT
??_C@_0CF@GGGILHDI@Expected?5power?5of?5two?0?5not?5recei@ DB 'Expected p'
	DB	'ower of two, not received.', 00H		; `string'
; Function compile flags: /Odt /RTCsu /ZI
CONST	ENDS
;	COMDAT ?Pow2@@YAHH@Z
_TEXT	SEGMENT
tv64 = -196
_i$ = 8
?Pow2@@YAHH@Z PROC NEAR					; Pow2, COMDAT

; 36   : {

  00000	55		 push	 ebp
  00001	8b ec		 mov	 ebp, esp
  00003	81 ec c4 00 00
	00		 sub	 esp, 196		; 000000c4H
  00009	53		 push	 ebx
  0000a	56		 push	 esi
  0000b	57		 push	 edi
  0000c	8d bd 3c ff ff
	ff		 lea	 edi, DWORD PTR [ebp-196]
  00012	b9 31 00 00 00	 mov	 ecx, 49			; 00000031H
  00017	b8 cc cc cc cc	 mov	 eax, -858993460		; ccccccccH
  0001c	f3 ab		 rep stosd

; 37   : 	switch( i )
; 38   : 	{

  0001e	8b 45 08	 mov	 eax, DWORD PTR _i$[ebp]
  00021	89 85 3c ff ff
	ff		 mov	 DWORD PTR tv64[ebp], eax
  00027	83 bd 3c ff ff
	ff 20		 cmp	 DWORD PTR tv64[ebp], 32	; 00000020H
  0002e	7f 3d		 jg	 SHORT $L85458
  00030	83 bd 3c ff ff
	ff 20		 cmp	 DWORD PTR tv64[ebp], 32	; 00000020H
  00037	0f 84 99 00 00
	00		 je	 $L84860
  0003d	8b 8d 3c ff ff
	ff		 mov	 ecx, DWORD PTR tv64[ebp]
  00043	83 e9 01	 sub	 ecx, 1
  00046	89 8d 3c ff ff
	ff		 mov	 DWORD PTR tv64[ebp], ecx
  0004c	83 bd 3c ff ff
	ff 0f		 cmp	 DWORD PTR tv64[ebp], 15	; 0000000fH
  00053	0f 87 a7 00 00
	00		 ja	 $L84866
  00059	8b 95 3c ff ff
	ff		 mov	 edx, DWORD PTR tv64[ebp]
  0005f	0f b6 82 00 00
	00 00		 movzx	 eax, BYTE PTR $L85460[edx]
  00066	ff 24 85 00 00
	00 00		 jmp	 DWORD PTR $L85461[eax*4]
$L85458:
  0006d	81 bd 3c ff ff
	ff 00 01 00 00	 cmp	 DWORD PTR tv64[ebp], 256 ; 00000100H
  00077	7f 23		 jg	 SHORT $L85459
  00079	81 bd 3c ff ff
	ff 00 01 00 00	 cmp	 DWORD PTR tv64[ebp], 256 ; 00000100H
  00083	74 66		 je	 SHORT $L84863
  00085	83 bd 3c ff ff
	ff 40		 cmp	 DWORD PTR tv64[ebp], 64	; 00000040H
  0008c	74 4f		 je	 SHORT $L84861
  0008e	81 bd 3c ff ff
	ff 80 00 00 00	 cmp	 DWORD PTR tv64[ebp], 128 ; 00000080H
  00098	74 4a		 je	 SHORT $L84862
  0009a	eb 64		 jmp	 SHORT $L84866
$L85459:
  0009c	81 bd 3c ff ff
	ff 00 02 00 00	 cmp	 DWORD PTR tv64[ebp], 512 ; 00000200H
  000a6	74 4a		 je	 SHORT $L84864
  000a8	81 bd 3c ff ff
	ff 00 04 00 00	 cmp	 DWORD PTR tv64[ebp], 1024 ; 00000400H
  000b2	74 45		 je	 SHORT $L84865
  000b4	eb 4a		 jmp	 SHORT $L84866
$L84855:

; 39   : 		case 1: return 0;

  000b6	33 c0		 xor	 eax, eax
  000b8	eb 56		 jmp	 SHORT $L84850
$L84856:

; 40   : 		case 2: return 1;

  000ba	b8 01 00 00 00	 mov	 eax, 1
  000bf	eb 4f		 jmp	 SHORT $L84850
$L84857:

; 41   : 		case 4: return 2;

  000c1	b8 02 00 00 00	 mov	 eax, 2
  000c6	eb 48		 jmp	 SHORT $L84850
$L84858:

; 42   : 		case 8: return 3;

  000c8	b8 03 00 00 00	 mov	 eax, 3
  000cd	eb 41		 jmp	 SHORT $L84850
$L84859:

; 43   : 		case 16: return 4;

  000cf	b8 04 00 00 00	 mov	 eax, 4
  000d4	eb 3a		 jmp	 SHORT $L84850
$L84860:

; 44   : 		case 32: return 5;

  000d6	b8 05 00 00 00	 mov	 eax, 5
  000db	eb 33		 jmp	 SHORT $L84850
$L84861:

; 45   : 		case 64: return 6;

  000dd	b8 06 00 00 00	 mov	 eax, 6
  000e2	eb 2c		 jmp	 SHORT $L84850
$L84862:

; 46   : 		case 128: return 7;

  000e4	b8 07 00 00 00	 mov	 eax, 7
  000e9	eb 25		 jmp	 SHORT $L84850
$L84863:

; 47   : 		case 256: return 8;

  000eb	b8 08 00 00 00	 mov	 eax, 8
  000f0	eb 1e		 jmp	 SHORT $L84850
$L84864:

; 48   : 		case 512: return 9;

  000f2	b8 09 00 00 00	 mov	 eax, 9
  000f7	eb 17		 jmp	 SHORT $L84850
$L84865:

; 49   : 		case 1024: return 10;

  000f9	b8 0a 00 00 00	 mov	 eax, 10			; 0000000aH
  000fe	eb 10		 jmp	 SHORT $L84850
$L84866:

; 50   : 		default: Msg("Expected power of two, not received.");

  00100	68 00 00 00 00	 push	 OFFSET FLAT:??_C@_0CF@GGGILHDI@Expected?5power?5of?5two?0?5not?5recei@
  00105	e8 00 00 00 00	 call	 ?Msg@@YAXPAD@Z		; Msg
  0010a	83 c4 04	 add	 esp, 4

; 51   : 	}
; 52   : 	return -1;

  0010d	83 c8 ff	 or	 eax, -1
$L84850:

; 53   : }

  00110	5f		 pop	 edi
  00111	5e		 pop	 esi
  00112	5b		 pop	 ebx
  00113	81 c4 c4 00 00
	00		 add	 esp, 196		; 000000c4H
  00119	3b ec		 cmp	 ebp, esp
  0011b	e8 00 00 00 00	 call	 __RTC_CheckEsp
  00120	8b e5		 mov	 esp, ebp
  00122	5d		 pop	 ebp
  00123	c3		 ret	 0
$L85461:
  00124	00 00 00 00	 DD	 $L84855
  00128	00 00 00 00	 DD	 $L84856
  0012c	00 00 00 00	 DD	 $L84857
  00130	00 00 00 00	 DD	 $L84858
  00134	00 00 00 00	 DD	 $L84859
  00138	00 00 00 00	 DD	 $L84866
$L85460:
  0013c	00		 DB	 0
  0013d	01		 DB	 1
  0013e	05		 DB	 5
  0013f	02		 DB	 2
  00140	05		 DB	 5
  00141	05		 DB	 5
  00142	05		 DB	 5
  00143	03		 DB	 3
  00144	05		 DB	 5
  00145	05		 DB	 5
  00146	05		 DB	 5
  00147	05		 DB	 5
  00148	05		 DB	 5
  00149	05		 DB	 5
  0014a	05		 DB	 5
  0014b	04		 DB	 4
?Pow2@@YAHH@Z ENDP					; Pow2
_TEXT	ENDS
PUBLIC	?LTrim@@YAXPAD@Z				; LTrim
EXTRN	_strcpy:NEAR
EXTRN	_strlen:NEAR
; Function compile flags: /Odt /RTCsu /ZI
;	COMDAT ?LTrim@@YAXPAD@Z
_TEXT	SEGMENT
_sz$ = 8
?LTrim@@YAXPAD@Z PROC NEAR				; LTrim, COMDAT

; 56   : {

  00000	55		 push	 ebp
  00001	8b ec		 mov	 ebp, esp
  00003	81 ec c0 00 00
	00		 sub	 esp, 192		; 000000c0H
  00009	53		 push	 ebx
  0000a	56		 push	 esi
  0000b	57		 push	 edi
  0000c	8d bd 40 ff ff
	ff		 lea	 edi, DWORD PTR [ebp-192]
  00012	b9 30 00 00 00	 mov	 ecx, 48			; 00000030H
  00017	b8 cc cc cc cc	 mov	 eax, -858993460		; ccccccccH
  0001c	f3 ab		 rep stosd

; 57   : 	if( strlen(sz) == 0 ) return ;

  0001e	8b 45 08	 mov	 eax, DWORD PTR _sz$[ebp]
  00021	50		 push	 eax
  00022	e8 00 00 00 00	 call	 _strlen
  00027	83 c4 04	 add	 esp, 4
  0002a	85 c0		 test	 eax, eax
  0002c	75 02		 jne	 SHORT $L84873
  0002e	eb 20		 jmp	 SHORT $L84870
$L84873:

; 58   : 	while( *sz == ' ' )

  00030	8b 45 08	 mov	 eax, DWORD PTR _sz$[ebp]
  00033	0f be 08	 movsx	 ecx, BYTE PTR [eax]
  00036	83 f9 20	 cmp	 ecx, 32			; 00000020H
  00039	75 15		 jne	 SHORT $L84870

; 59   : 		strcpy( sz, sz+1 );

  0003b	8b 45 08	 mov	 eax, DWORD PTR _sz$[ebp]
  0003e	83 c0 01	 add	 eax, 1
  00041	50		 push	 eax
  00042	8b 4d 08	 mov	 ecx, DWORD PTR _sz$[ebp]
  00045	51		 push	 ecx
  00046	e8 00 00 00 00	 call	 _strcpy
  0004b	83 c4 08	 add	 esp, 8
  0004e	eb e0		 jmp	 SHORT $L84873
$L84870:

; 60   : }

  00050	5f		 pop	 edi
  00051	5e		 pop	 esi
  00052	5b		 pop	 ebx
  00053	81 c4 c0 00 00
	00		 add	 esp, 192		; 000000c0H
  00059	3b ec		 cmp	 ebp, esp
  0005b	e8 00 00 00 00	 call	 __RTC_CheckEsp
  00060	8b e5		 mov	 esp, ebp
  00062	5d		 pop	 ebp
  00063	c3		 ret	 0
?LTrim@@YAXPAD@Z ENDP					; LTrim
_TEXT	ENDS
PUBLIC	?RTrim@@YAXPAD@Z				; RTrim
; Function compile flags: /Odt /RTCsu /ZI
;	COMDAT ?RTrim@@YAXPAD@Z
_TEXT	SEGMENT
_sz$ = 8
?RTrim@@YAXPAD@Z PROC NEAR				; RTrim, COMDAT

; 63   : {

  00000	55		 push	 ebp
  00001	8b ec		 mov	 ebp, esp
  00003	81 ec c0 00 00
	00		 sub	 esp, 192		; 000000c0H
  00009	53		 push	 ebx
  0000a	56		 push	 esi
  0000b	57		 push	 edi
  0000c	8d bd 40 ff ff
	ff		 lea	 edi, DWORD PTR [ebp-192]
  00012	b9 30 00 00 00	 mov	 ecx, 48			; 00000030H
  00017	b8 cc cc cc cc	 mov	 eax, -858993460		; ccccccccH
  0001c	f3 ab		 rep stosd

; 64   : 	if( strlen(sz) == 0 ) return ;

  0001e	8b 45 08	 mov	 eax, DWORD PTR _sz$[ebp]
  00021	50		 push	 eax
  00022	e8 00 00 00 00	 call	 _strlen
  00027	83 c4 04	 add	 esp, 4
  0002a	85 c0		 test	 eax, eax
  0002c	75 02		 jne	 SHORT $L84880
  0002e	eb 41		 jmp	 SHORT $L84877
$L84880:

; 65   : 	while( sz[strlen(sz)-1] == ' ' )

  00030	8b 45 08	 mov	 eax, DWORD PTR _sz$[ebp]
  00033	50		 push	 eax
  00034	e8 00 00 00 00	 call	 _strlen
  00039	83 c4 04	 add	 esp, 4
  0003c	8b 4d 08	 mov	 ecx, DWORD PTR _sz$[ebp]
  0003f	0f be 54 01 ff	 movsx	 edx, BYTE PTR [ecx+eax-1]
  00044	83 fa 20	 cmp	 edx, 32			; 00000020H
  00047	75 28		 jne	 SHORT $L84877

; 66   : 	{
; 67   : 		sz[strlen(sz)-1] = '\x0' ;

  00049	8b 45 08	 mov	 eax, DWORD PTR _sz$[ebp]
  0004c	50		 push	 eax
  0004d	e8 00 00 00 00	 call	 _strlen
  00052	83 c4 04	 add	 esp, 4
  00055	8b 4d 08	 mov	 ecx, DWORD PTR _sz$[ebp]
  00058	c6 44 01 ff 00	 mov	 BYTE PTR [ecx+eax-1], 0

; 68   : 		if( strlen(sz) == 0 ) return ;

  0005d	8b 45 08	 mov	 eax, DWORD PTR _sz$[ebp]
  00060	50		 push	 eax
  00061	e8 00 00 00 00	 call	 _strlen
  00066	83 c4 04	 add	 esp, 4
  00069	85 c0		 test	 eax, eax
  0006b	75 02		 jne	 SHORT $L84882
  0006d	eb 02		 jmp	 SHORT $L84877
$L84882:

; 69   : 	}

  0006f	eb bf		 jmp	 SHORT $L84880
$L84877:

; 70   : }

  00071	5f		 pop	 edi
  00072	5e		 pop	 esi
  00073	5b		 pop	 ebx
  00074	81 c4 c0 00 00
	00		 add	 esp, 192		; 000000c0H
  0007a	3b ec		 cmp	 ebp, esp
  0007c	e8 00 00 00 00	 call	 __RTC_CheckEsp
  00081	8b e5		 mov	 esp, ebp
  00083	5d		 pop	 ebp
  00084	c3		 ret	 0
?RTrim@@YAXPAD@Z ENDP					; RTrim
_TEXT	ENDS
PUBLIC	?Trim@@YAXPAD@Z					; Trim
; Function compile flags: /Odt /RTCsu /ZI
;	COMDAT ?Trim@@YAXPAD@Z
_TEXT	SEGMENT
_sz$ = 8
?Trim@@YAXPAD@Z PROC NEAR				; Trim, COMDAT

; 73   : {

  00000	55		 push	 ebp
  00001	8b ec		 mov	 ebp, esp
  00003	81 ec c0 00 00
	00		 sub	 esp, 192		; 000000c0H
  00009	53		 push	 ebx
  0000a	56		 push	 esi
  0000b	57		 push	 edi
  0000c	8d bd 40 ff ff
	ff		 lea	 edi, DWORD PTR [ebp-192]
  00012	b9 30 00 00 00	 mov	 ecx, 48			; 00000030H
  00017	b8 cc cc cc cc	 mov	 eax, -858993460		; ccccccccH
  0001c	f3 ab		 rep stosd

; 74   : 	LTrim( sz );

  0001e	8b 45 08	 mov	 eax, DWORD PTR _sz$[ebp]
  00021	50		 push	 eax
  00022	e8 00 00 00 00	 call	 ?LTrim@@YAXPAD@Z	; LTrim
  00027	83 c4 04	 add	 esp, 4

; 75   : 	RTrim( sz );

  0002a	8b 45 08	 mov	 eax, DWORD PTR _sz$[ebp]
  0002d	50		 push	 eax
  0002e	e8 00 00 00 00	 call	 ?RTrim@@YAXPAD@Z	; RTrim
  00033	83 c4 04	 add	 esp, 4

; 76   : }

  00036	5f		 pop	 edi
  00037	5e		 pop	 esi
  00038	5b		 pop	 ebx
  00039	81 c4 c0 00 00
	00		 add	 esp, 192		; 000000c0H
  0003f	3b ec		 cmp	 ebp, esp
  00041	e8 00 00 00 00	 call	 __RTC_CheckEsp
  00046	8b e5		 mov	 esp, ebp
  00048	5d		 pop	 ebp
  00049	c3		 ret	 0
?Trim@@YAXPAD@Z ENDP					; Trim
_TEXT	ENDS
PUBLIC	?FtoDW@@YAKM@Z					; FtoDW
; Function compile flags: /Odt /RTCsu /ZI
;	COMDAT ?FtoDW@@YAKM@Z
_TEXT	SEGMENT
_f$ = 8
?FtoDW@@YAKM@Z PROC NEAR				; FtoDW, COMDAT

; 80   : {

  00000	55		 push	 ebp
  00001	8b ec		 mov	 ebp, esp
  00003	81 ec c0 00 00
	00		 sub	 esp, 192		; 000000c0H
  00009	53		 push	 ebx
  0000a	56		 push	 esi
  0000b	57		 push	 edi
  0000c	8d bd 40 ff ff
	ff		 lea	 edi, DWORD PTR [ebp-192]
  00012	b9 30 00 00 00	 mov	 ecx, 48			; 00000030H
  00017	b8 cc cc cc cc	 mov	 eax, -858993460		; ccccccccH
  0001c	f3 ab		 rep stosd

; 81   : 	return *((DWORD*)&f);

  0001e	8b 45 08	 mov	 eax, DWORD PTR _f$[ebp]

; 82   : }

  00021	5f		 pop	 edi
  00022	5e		 pop	 esi
  00023	5b		 pop	 ebx
  00024	8b e5		 mov	 esp, ebp
  00026	5d		 pop	 ebp
  00027	c3		 ret	 0
?FtoDW@@YAKM@Z ENDP					; FtoDW
_TEXT	ENDS
PUBLIC	??_C@_07OKGGAKCC@Dbg?5Msg?$AA@			; `string'
EXTRN	__imp__MessageBoxA@16:NEAR
;	COMDAT ??_C@_07OKGGAKCC@Dbg?5Msg?$AA@
CONST	SEGMENT
??_C@_07OKGGAKCC@Dbg?5Msg?$AA@ DB 'Dbg Msg', 00H	; `string'
; Function compile flags: /Odt /RTCsu /ZI
CONST	ENDS
;	COMDAT ?Msg@@YAXPAD@Z
_TEXT	SEGMENT
_sz$ = 8
?Msg@@YAXPAD@Z PROC NEAR				; Msg, COMDAT

; 86   : {

  00000	55		 push	 ebp
  00001	8b ec		 mov	 ebp, esp
  00003	81 ec c0 00 00
	00		 sub	 esp, 192		; 000000c0H
  00009	53		 push	 ebx
  0000a	56		 push	 esi
  0000b	57		 push	 edi
  0000c	8d bd 40 ff ff
	ff		 lea	 edi, DWORD PTR [ebp-192]
  00012	b9 30 00 00 00	 mov	 ecx, 48			; 00000030H
  00017	b8 cc cc cc cc	 mov	 eax, -858993460		; ccccccccH
  0001c	f3 ab		 rep stosd

; 87   : 	if (g_bDebugMsgs)

  0001e	83 3d 00 00 00
	00 00		 cmp	 DWORD PTR ?g_bDebugMsgs@@3HA, 0 ; g_bDebugMsgs
  00025	74 1c		 je	 SHORT $L84892

; 88   : 	{
; 89   : 		MessageBox(NULL, sz, "Dbg Msg", MB_ICONINFORMATION | MB_OK) ;

  00027	8b f4		 mov	 esi, esp
  00029	6a 40		 push	 64			; 00000040H
  0002b	68 00 00 00 00	 push	 OFFSET FLAT:??_C@_07OKGGAKCC@Dbg?5Msg?$AA@
  00030	8b 45 08	 mov	 eax, DWORD PTR _sz$[ebp]
  00033	50		 push	 eax
  00034	6a 00		 push	 0
  00036	ff 15 00 00 00
	00		 call	 DWORD PTR __imp__MessageBoxA@16
  0003c	3b f4		 cmp	 esi, esp
  0003e	e8 00 00 00 00	 call	 __RTC_CheckEsp
$L84892:

; 90   : 		/*abort() ;*/
; 91   : 	}
; 92   : }

  00043	5f		 pop	 edi
  00044	5e		 pop	 esi
  00045	5b		 pop	 ebx
  00046	81 c4 c0 00 00
	00		 add	 esp, 192		; 000000c0H
  0004c	3b ec		 cmp	 ebp, esp
  0004e	e8 00 00 00 00	 call	 __RTC_CheckEsp
  00053	8b e5		 mov	 esp, ebp
  00055	5d		 pop	 ebp
  00056	c3		 ret	 0
?Msg@@YAXPAD@Z ENDP					; Msg
_TEXT	ENDS
PUBLIC	?Msg2@@YAXPADZZ					; Msg2
EXTRN	__vsnprintf:NEAR
EXTRN	___security_cookie:DWORD
EXTRN	@_RTC_CheckStackVars@8:NEAR
EXTRN	@__security_check_cookie@4:NEAR
; Function compile flags: /Odt /RTCsu /ZI
;	COMDAT ?Msg2@@YAXPADZZ
_TEXT	SEGMENT
_str$ = -280
_va_alist$ = -12
__$ArrayPad$ = -4
__$ReturnAddr$ = 4
_fmt$ = 8
?Msg2@@YAXPADZZ PROC NEAR				; Msg2, COMDAT

; 95   : { 

  00000	55		 push	 ebp
  00001	8b ec		 mov	 ebp, esp
  00003	81 ec dc 01 00
	00		 sub	 esp, 476		; 000001dcH
  00009	53		 push	 ebx
  0000a	56		 push	 esi
  0000b	57		 push	 edi
  0000c	8d bd 24 fe ff
	ff		 lea	 edi, DWORD PTR [ebp-476]
  00012	b9 77 00 00 00	 mov	 ecx, 119		; 00000077H
  00017	b8 cc cc cc cc	 mov	 eax, -858993460		; ccccccccH
  0001c	f3 ab		 rep stosd
  0001e	a1 00 00 00 00	 mov	 eax, DWORD PTR ___security_cookie
  00023	33 45 04	 xor	 eax, DWORD PTR __$ReturnAddr$[ebp]
  00026	89 45 fc	 mov	 DWORD PTR __$ArrayPad$[ebp], eax

; 96   : 	va_list va_alist = {0}; 

  00029	c7 45 f4 00 00
	00 00		 mov	 DWORD PTR _va_alist$[ebp], 0

; 97   : 	char str[256]; 
; 98   : 
; 99   : 	va_start( va_alist, fmt ); 

  00030	8d 45 0c	 lea	 eax, DWORD PTR _fmt$[ebp+4]
  00033	89 45 f4	 mov	 DWORD PTR _va_alist$[ebp], eax

; 100  : 	_vsnprintf( str, 256, fmt, va_alist ); 

  00036	8b 45 f4	 mov	 eax, DWORD PTR _va_alist$[ebp]
  00039	50		 push	 eax
  0003a	8b 4d 08	 mov	 ecx, DWORD PTR _fmt$[ebp]
  0003d	51		 push	 ecx
  0003e	68 00 01 00 00	 push	 256			; 00000100H
  00043	8d 95 e8 fe ff
	ff		 lea	 edx, DWORD PTR _str$[ebp]
  00049	52		 push	 edx
  0004a	e8 00 00 00 00	 call	 __vsnprintf
  0004f	83 c4 10	 add	 esp, 16			; 00000010H

; 101  : 	va_end( va_alist ); 

  00052	c7 45 f4 00 00
	00 00		 mov	 DWORD PTR _va_alist$[ebp], 0

; 102  : 
; 103  : 	Msg( str ); 

  00059	8d 85 e8 fe ff
	ff		 lea	 eax, DWORD PTR _str$[ebp]
  0005f	50		 push	 eax
  00060	e8 00 00 00 00	 call	 ?Msg@@YAXPAD@Z		; Msg
  00065	83 c4 04	 add	 esp, 4

; 104  : }

  00068	52		 push	 edx
  00069	8b cd		 mov	 ecx, ebp
  0006b	50		 push	 eax
  0006c	8d 15 00 00 00
	00		 lea	 edx, DWORD PTR $L85479
  00072	e8 00 00 00 00	 call	 @_RTC_CheckStackVars@8
  00077	58		 pop	 eax
  00078	5a		 pop	 edx
  00079	8b 4d fc	 mov	 ecx, DWORD PTR __$ArrayPad$[ebp]
  0007c	33 4d 04	 xor	 ecx, DWORD PTR __$ReturnAddr$[ebp]
  0007f	e8 00 00 00 00	 call	 @__security_check_cookie@4
  00084	5f		 pop	 edi
  00085	5e		 pop	 esi
  00086	5b		 pop	 ebx
  00087	81 c4 dc 01 00
	00		 add	 esp, 476		; 000001dcH
  0008d	3b ec		 cmp	 ebp, esp
  0008f	e8 00 00 00 00	 call	 __RTC_CheckEsp
  00094	8b e5		 mov	 esp, ebp
  00096	5d		 pop	 ebp
  00097	c3		 ret	 0
$L85479:
  00098	01 00 00 00	 DD	 1
  0009c	00 00 00 00	 DD	 $L85478
$L85478:
  000a0	e8 fe ff ff	 DD	 -280			; fffffee8H
  000a4	00 01 00 00	 DD	 256			; 00000100H
  000a8	00 00 00 00	 DD	 $L85475
$L85475:
  000ac	73		 DB	 115			; 00000073H
  000ad	74		 DB	 116			; 00000074H
  000ae	72		 DB	 114			; 00000072H
  000af	00		 DB	 0
?Msg2@@YAXPADZZ ENDP					; Msg2
_TEXT	ENDS
PUBLIC	?ods@@YAXPADZZ					; ods
EXTRN	__imp__OutputDebugStringA@4:NEAR
; Function compile flags: /Odt /RTCsu /ZI
;	COMDAT ?ods@@YAXPADZZ
_TEXT	SEGMENT
_str$ = -280
_va_alist$ = -12
__$ArrayPad$ = -4
__$ReturnAddr$ = 4
_fmt$ = 8
?ods@@YAXPADZZ PROC NEAR				; ods, COMDAT

; 107  : {

  00000	55		 push	 ebp
  00001	8b ec		 mov	 ebp, esp
  00003	81 ec dc 01 00
	00		 sub	 esp, 476		; 000001dcH
  00009	53		 push	 ebx
  0000a	56		 push	 esi
  0000b	57		 push	 edi
  0000c	8d bd 24 fe ff
	ff		 lea	 edi, DWORD PTR [ebp-476]
  00012	b9 77 00 00 00	 mov	 ecx, 119		; 00000077H
  00017	b8 cc cc cc cc	 mov	 eax, -858993460		; ccccccccH
  0001c	f3 ab		 rep stosd
  0001e	a1 00 00 00 00	 mov	 eax, DWORD PTR ___security_cookie
  00023	33 45 04	 xor	 eax, DWORD PTR __$ReturnAddr$[ebp]
  00026	89 45 fc	 mov	 DWORD PTR __$ArrayPad$[ebp], eax

; 108  : #ifdef _DEBUG
; 109  : 	va_list va_alist = {0}; 

  00029	c7 45 f4 00 00
	00 00		 mov	 DWORD PTR _va_alist$[ebp], 0

; 110  : 	char str[256]; 
; 111  : 
; 112  : 	va_start( va_alist, fmt ); 

  00030	8d 45 0c	 lea	 eax, DWORD PTR _fmt$[ebp+4]
  00033	89 45 f4	 mov	 DWORD PTR _va_alist$[ebp], eax

; 113  : 	_vsnprintf( str, 256, fmt, va_alist ); 

  00036	8b 45 f4	 mov	 eax, DWORD PTR _va_alist$[ebp]
  00039	50		 push	 eax
  0003a	8b 4d 08	 mov	 ecx, DWORD PTR _fmt$[ebp]
  0003d	51		 push	 ecx
  0003e	68 00 01 00 00	 push	 256			; 00000100H
  00043	8d 95 e8 fe ff
	ff		 lea	 edx, DWORD PTR _str$[ebp]
  00049	52		 push	 edx
  0004a	e8 00 00 00 00	 call	 __vsnprintf
  0004f	83 c4 10	 add	 esp, 16			; 00000010H

; 114  : 	va_end( va_alist ); 

  00052	c7 45 f4 00 00
	00 00		 mov	 DWORD PTR _va_alist$[ebp], 0

; 115  : 
; 116  : 	OutputDebugString( str );

  00059	8b f4		 mov	 esi, esp
  0005b	8d 85 e8 fe ff
	ff		 lea	 eax, DWORD PTR _str$[ebp]
  00061	50		 push	 eax
  00062	ff 15 00 00 00
	00		 call	 DWORD PTR __imp__OutputDebugStringA@4
  00068	3b f4		 cmp	 esi, esp
  0006a	e8 00 00 00 00	 call	 __RTC_CheckEsp

; 117  : #endif
; 118  : }

  0006f	52		 push	 edx
  00070	8b cd		 mov	 ecx, ebp
  00072	50		 push	 eax
  00073	8d 15 00 00 00
	00		 lea	 edx, DWORD PTR $L85488
  00079	e8 00 00 00 00	 call	 @_RTC_CheckStackVars@8
  0007e	58		 pop	 eax
  0007f	5a		 pop	 edx
  00080	8b 4d fc	 mov	 ecx, DWORD PTR __$ArrayPad$[ebp]
  00083	33 4d 04	 xor	 ecx, DWORD PTR __$ReturnAddr$[ebp]
  00086	e8 00 00 00 00	 call	 @__security_check_cookie@4
  0008b	5f		 pop	 edi
  0008c	5e		 pop	 esi
  0008d	5b		 pop	 ebx
  0008e	81 c4 dc 01 00
	00		 add	 esp, 476		; 000001dcH
  00094	3b ec		 cmp	 ebp, esp
  00096	e8 00 00 00 00	 call	 __RTC_CheckEsp
  0009b	8b e5		 mov	 esp, ebp
  0009d	5d		 pop	 ebp
  0009e	c3		 ret	 0
$L85488:
  0009f	01 00 00 00	 DD	 1
  000a3	00 00 00 00	 DD	 $L85487
$L85487:
  000a7	e8 fe ff ff	 DD	 -280			; fffffee8H
  000ab	00 01 00 00	 DD	 256			; 00000100H
  000af	00 00 00 00	 DD	 $L85485
$L85485:
  000b3	73		 DB	 115			; 00000073H
  000b4	74		 DB	 116			; 00000074H
  000b5	72		 DB	 114			; 00000072H
  000b6	00		 DB	 0
?ods@@YAXPADZZ ENDP					; ods
_TEXT	ENDS
PUBLIC	??_H@YGXPAXIHP6EPAX0@Z@Z			; `vector constructor iterator'
PUBLIC	__real@00000000
PUBLIC	?GetBBoxVisibility@@YAHPAUIDirect3DDevice8@@ABUD3DXMATRIX@@1PAU_D3DVIEWPORT8@@ABUD3DXVECTOR3@@3@Z ; GetBBoxVisibility
PUBLIC	??0D3DXVECTOR3@@QAE@XZ				; D3DXVECTOR3::D3DXVECTOR3
PUBLIC	??0D3DXVECTOR4@@QAE@XZ				; D3DXVECTOR4::D3DXVECTOR4
EXTRN	_D3DXVec3Transform@12:NEAR
EXTRN	_D3DXVec3TransformCoord@12:NEAR
;	COMDAT __real@00000000
CONST	SEGMENT
__real@00000000 DD 000000000r			; 0
; Function compile flags: /Odt /RTCsu /ZI
CONST	ENDS
;	COMDAT ?GetBBoxVisibility@@YAHPAUIDirect3DDevice8@@ABUD3DXMATRIX@@1PAU_D3DVIEWPORT8@@ABUD3DXVECTOR3@@3@Z
_TEXT	SEGMENT
_vis$ = -316
_v4$ = -304
_v$ = -168
_nOut$ = -60
_t$ = -20
_i$ = -8
_pDev$ = 8
_matProj$ = 12
_matView$ = 16
_pVP$ = 20
_vMin$ = 24
_vMax$ = 28
?GetBBoxVisibility@@YAHPAUIDirect3DDevice8@@ABUD3DXMATRIX@@1PAU_D3DVIEWPORT8@@ABUD3DXVECTOR3@@3@Z PROC NEAR ; GetBBoxVisibility, COMDAT

; 122  : {

  00000	55		 push	 ebp
  00001	8b ec		 mov	 ebp, esp
  00003	81 ec 00 02 00
	00		 sub	 esp, 512		; 00000200H
  00009	53		 push	 ebx
  0000a	56		 push	 esi
  0000b	57		 push	 edi
  0000c	8d bd 00 fe ff
	ff		 lea	 edi, DWORD PTR [ebp-512]
  00012	b9 80 00 00 00	 mov	 ecx, 128		; 00000080H
  00017	b8 cc cc cc cc	 mov	 eax, -858993460		; ccccccccH
  0001c	f3 ab		 rep stosd

; 123  : 	int i, t, nOut[8] ;
; 124  : 	xVec3 v[8] ;

  0001e	68 00 00 00 00	 push	 OFFSET FLAT:??0D3DXVECTOR3@@QAE@XZ ; D3DXVECTOR3::D3DXVECTOR3
  00023	6a 08		 push	 8
  00025	6a 0c		 push	 12			; 0000000cH
  00027	8d 85 58 ff ff
	ff		 lea	 eax, DWORD PTR _v$[ebp]
  0002d	50		 push	 eax
  0002e	e8 00 00 00 00	 call	 ??_H@YGXPAXIHP6EPAX0@Z@Z

; 125  : 	xVec4 v4[8] ;

  00033	68 00 00 00 00	 push	 OFFSET FLAT:??0D3DXVECTOR4@@QAE@XZ ; D3DXVECTOR4::D3DXVECTOR4
  00038	6a 08		 push	 8
  0003a	6a 10		 push	 16			; 00000010H
  0003c	8d 85 d0 fe ff
	ff		 lea	 eax, DWORD PTR _v4$[ebp]
  00042	50		 push	 eax
  00043	e8 00 00 00 00	 call	 ??_H@YGXPAXIHP6EPAX0@Z@Z

; 126  : 	BOOL vis ;
; 127  : 
; 128  : 	v[0].x = vMin.x ; v[0].y = vMin.y ; v[0].z = vMin.z ;

  00048	8b 45 18	 mov	 eax, DWORD PTR _vMin$[ebp]
  0004b	8b 08		 mov	 ecx, DWORD PTR [eax]
  0004d	89 8d 58 ff ff
	ff		 mov	 DWORD PTR _v$[ebp], ecx
  00053	8b 45 18	 mov	 eax, DWORD PTR _vMin$[ebp]
  00056	8b 48 04	 mov	 ecx, DWORD PTR [eax+4]
  00059	89 8d 5c ff ff
	ff		 mov	 DWORD PTR _v$[ebp+4], ecx
  0005f	8b 45 18	 mov	 eax, DWORD PTR _vMin$[ebp]
  00062	8b 48 08	 mov	 ecx, DWORD PTR [eax+8]
  00065	89 8d 60 ff ff
	ff		 mov	 DWORD PTR _v$[ebp+8], ecx

; 129  : 	v[1].x = vMax.x ; v[1].y = vMin.y ; v[1].z = vMin.z ;

  0006b	8b 45 1c	 mov	 eax, DWORD PTR _vMax$[ebp]
  0006e	8b 08		 mov	 ecx, DWORD PTR [eax]
  00070	89 8d 64 ff ff
	ff		 mov	 DWORD PTR _v$[ebp+12], ecx
  00076	8b 45 18	 mov	 eax, DWORD PTR _vMin$[ebp]
  00079	8b 48 04	 mov	 ecx, DWORD PTR [eax+4]
  0007c	89 8d 68 ff ff
	ff		 mov	 DWORD PTR _v$[ebp+16], ecx
  00082	8b 45 18	 mov	 eax, DWORD PTR _vMin$[ebp]
  00085	8b 48 08	 mov	 ecx, DWORD PTR [eax+8]
  00088	89 8d 6c ff ff
	ff		 mov	 DWORD PTR _v$[ebp+20], ecx

; 130  : 	v[2].x = vMin.x ; v[2].y = vMax.y ; v[2].z = vMin.z ;

  0008e	8b 45 18	 mov	 eax, DWORD PTR _vMin$[ebp]
  00091	8b 08		 mov	 ecx, DWORD PTR [eax]
  00093	89 8d 70 ff ff
	ff		 mov	 DWORD PTR _v$[ebp+24], ecx
  00099	8b 45 1c	 mov	 eax, DWORD PTR _vMax$[ebp]
  0009c	8b 48 04	 mov	 ecx, DWORD PTR [eax+4]
  0009f	89 8d 74 ff ff
	ff		 mov	 DWORD PTR _v$[ebp+28], ecx
  000a5	8b 45 18	 mov	 eax, DWORD PTR _vMin$[ebp]
  000a8	8b 48 08	 mov	 ecx, DWORD PTR [eax+8]
  000ab	89 8d 78 ff ff
	ff		 mov	 DWORD PTR _v$[ebp+32], ecx

; 131  : 	v[3].x = vMax.x ; v[3].y = vMax.y ; v[3].z = vMin.z ;

  000b1	8b 45 1c	 mov	 eax, DWORD PTR _vMax$[ebp]
  000b4	8b 08		 mov	 ecx, DWORD PTR [eax]
  000b6	89 8d 7c ff ff
	ff		 mov	 DWORD PTR _v$[ebp+36], ecx
  000bc	8b 45 1c	 mov	 eax, DWORD PTR _vMax$[ebp]
  000bf	8b 48 04	 mov	 ecx, DWORD PTR [eax+4]
  000c2	89 4d 80	 mov	 DWORD PTR _v$[ebp+40], ecx
  000c5	8b 45 18	 mov	 eax, DWORD PTR _vMin$[ebp]
  000c8	8b 48 08	 mov	 ecx, DWORD PTR [eax+8]
  000cb	89 4d 84	 mov	 DWORD PTR _v$[ebp+44], ecx

; 132  : 	v[4].x = vMin.x ; v[4].y = vMin.y ; v[4].z = vMax.z ;

  000ce	8b 45 18	 mov	 eax, DWORD PTR _vMin$[ebp]
  000d1	8b 08		 mov	 ecx, DWORD PTR [eax]
  000d3	89 4d 88	 mov	 DWORD PTR _v$[ebp+48], ecx
  000d6	8b 45 18	 mov	 eax, DWORD PTR _vMin$[ebp]
  000d9	8b 48 04	 mov	 ecx, DWORD PTR [eax+4]
  000dc	89 4d 8c	 mov	 DWORD PTR _v$[ebp+52], ecx
  000df	8b 45 1c	 mov	 eax, DWORD PTR _vMax$[ebp]
  000e2	8b 48 08	 mov	 ecx, DWORD PTR [eax+8]
  000e5	89 4d 90	 mov	 DWORD PTR _v$[ebp+56], ecx

; 133  : 	v[5].x = vMax.x ; v[5].y = vMin.y ; v[5].z = vMax.z ;

  000e8	8b 45 1c	 mov	 eax, DWORD PTR _vMax$[ebp]
  000eb	8b 08		 mov	 ecx, DWORD PTR [eax]
  000ed	89 4d 94	 mov	 DWORD PTR _v$[ebp+60], ecx
  000f0	8b 45 18	 mov	 eax, DWORD PTR _vMin$[ebp]
  000f3	8b 48 04	 mov	 ecx, DWORD PTR [eax+4]
  000f6	89 4d 98	 mov	 DWORD PTR _v$[ebp+64], ecx
  000f9	8b 45 1c	 mov	 eax, DWORD PTR _vMax$[ebp]
  000fc	8b 48 08	 mov	 ecx, DWORD PTR [eax+8]
  000ff	89 4d 9c	 mov	 DWORD PTR _v$[ebp+68], ecx

; 134  : 	v[6].x = vMin.x ; v[6].y = vMax.y ; v[6].z = vMax.z ;

  00102	8b 45 18	 mov	 eax, DWORD PTR _vMin$[ebp]
  00105	8b 08		 mov	 ecx, DWORD PTR [eax]
  00107	89 4d a0	 mov	 DWORD PTR _v$[ebp+72], ecx
  0010a	8b 45 1c	 mov	 eax, DWORD PTR _vMax$[ebp]
  0010d	8b 48 04	 mov	 ecx, DWORD PTR [eax+4]
  00110	89 4d a4	 mov	 DWORD PTR _v$[ebp+76], ecx
  00113	8b 45 1c	 mov	 eax, DWORD PTR _vMax$[ebp]
  00116	8b 48 08	 mov	 ecx, DWORD PTR [eax+8]
  00119	89 4d a8	 mov	 DWORD PTR _v$[ebp+80], ecx

; 135  : 	v[7].x = vMax.x ; v[7].y = vMax.y ; v[7].z = vMax.z ;

  0011c	8b 45 1c	 mov	 eax, DWORD PTR _vMax$[ebp]
  0011f	8b 08		 mov	 ecx, DWORD PTR [eax]
  00121	89 4d ac	 mov	 DWORD PTR _v$[ebp+84], ecx
  00124	8b 45 1c	 mov	 eax, DWORD PTR _vMax$[ebp]
  00127	8b 48 04	 mov	 ecx, DWORD PTR [eax+4]
  0012a	89 4d b0	 mov	 DWORD PTR _v$[ebp+88], ecx
  0012d	8b 45 1c	 mov	 eax, DWORD PTR _vMax$[ebp]
  00130	8b 48 08	 mov	 ecx, DWORD PTR [eax+8]
  00133	89 4d b4	 mov	 DWORD PTR _v$[ebp+92], ecx

; 136  : 	
; 137  : 	for (i = 0 ; i < 8 ; i ++)

  00136	c7 45 f8 00 00
	00 00		 mov	 DWORD PTR _i$[ebp], 0
  0013d	eb 09		 jmp	 SHORT $L84933
$L84934:
  0013f	8b 45 f8	 mov	 eax, DWORD PTR _i$[ebp]
  00142	83 c0 01	 add	 eax, 1
  00145	89 45 f8	 mov	 DWORD PTR _i$[ebp], eax
$L84933:
  00148	83 7d f8 08	 cmp	 DWORD PTR _i$[ebp], 8
  0014c	7d 57		 jge	 SHORT $L84935

; 138  : 	{
; 139  : 		D3DXVec3TransformCoord(&v[i], &v[i], &matView) ;

  0014e	8b 45 10	 mov	 eax, DWORD PTR _matView$[ebp]
  00151	50		 push	 eax
  00152	8b 4d f8	 mov	 ecx, DWORD PTR _i$[ebp]
  00155	6b c9 0c	 imul	 ecx, 12			; 0000000cH
  00158	8d 94 0d 58 ff
	ff ff		 lea	 edx, DWORD PTR _v$[ebp+ecx]
  0015f	52		 push	 edx
  00160	8b 45 f8	 mov	 eax, DWORD PTR _i$[ebp]
  00163	6b c0 0c	 imul	 eax, 12			; 0000000cH
  00166	8d 8c 05 58 ff
	ff ff		 lea	 ecx, DWORD PTR _v$[ebp+eax]
  0016d	51		 push	 ecx
  0016e	e8 00 00 00 00	 call	 _D3DXVec3TransformCoord@12

; 140  : 		D3DXVec3Transform(&v4[i], &v[i], &matProj) ;

  00173	8b 45 0c	 mov	 eax, DWORD PTR _matProj$[ebp]
  00176	50		 push	 eax
  00177	8b 4d f8	 mov	 ecx, DWORD PTR _i$[ebp]
  0017a	6b c9 0c	 imul	 ecx, 12			; 0000000cH
  0017d	8d 94 0d 58 ff
	ff ff		 lea	 edx, DWORD PTR _v$[ebp+ecx]
  00184	52		 push	 edx
  00185	8b 45 f8	 mov	 eax, DWORD PTR _i$[ebp]
  00188	c1 e0 04	 shl	 eax, 4
  0018b	8d 8c 05 d0 fe
	ff ff		 lea	 ecx, DWORD PTR _v4$[ebp+eax]
  00192	51		 push	 ecx
  00193	e8 00 00 00 00	 call	 _D3DXVec3Transform@12

; 141  : 		nOut[i] = 0 ;

  00198	8b 45 f8	 mov	 eax, DWORD PTR _i$[ebp]
  0019b	c7 44 85 c4 00
	00 00 00	 mov	 DWORD PTR _nOut$[ebp+eax*4], 0

; 142  : 	}

  001a3	eb 9a		 jmp	 SHORT $L84934
$L84935:

; 143  : 
; 144  : 	vis = TRUE ;

  001a5	c7 85 c4 fe ff
	ff 01 00 00 00	 mov	 DWORD PTR _vis$[ebp], 1

; 145  : 	t = 0;

  001af	c7 45 ec 00 00
	00 00		 mov	 DWORD PTR _t$[ebp], 0

; 146  : 	for ( i = 0; i < 8; i++ )

  001b6	c7 45 f8 00 00
	00 00		 mov	 DWORD PTR _i$[ebp], 0
  001bd	eb 09		 jmp	 SHORT $L84936
$L84937:
  001bf	8b 45 f8	 mov	 eax, DWORD PTR _i$[ebp]
  001c2	83 c0 01	 add	 eax, 1
  001c5	89 45 f8	 mov	 DWORD PTR _i$[ebp], eax
$L84936:
  001c8	83 7d f8 08	 cmp	 DWORD PTR _i$[ebp], 8
  001cc	7d 36		 jge	 SHORT $L84938

; 147  : 		if (v4[i].z < 0)

  001ce	8b 45 f8	 mov	 eax, DWORD PTR _i$[ebp]
  001d1	c1 e0 04	 shl	 eax, 4
  001d4	d9 84 05 d8 fe
	ff ff		 fld	 DWORD PTR _v4$[ebp+eax+8]
  001db	d8 1d 00 00 00
	00		 fcomp	 DWORD PTR __real@00000000
  001e1	df e0		 fnstsw	 ax
  001e3	f6 c4 05	 test	 ah, 5
  001e6	7a 1a		 jp	 SHORT $L84939

; 148  : 		{
; 149  : 			nOut[i] += 1 ;

  001e8	8b 45 f8	 mov	 eax, DWORD PTR _i$[ebp]
  001eb	8b 4c 85 c4	 mov	 ecx, DWORD PTR _nOut$[ebp+eax*4]
  001ef	83 c1 01	 add	 ecx, 1
  001f2	8b 55 f8	 mov	 edx, DWORD PTR _i$[ebp]
  001f5	89 4c 95 c4	 mov	 DWORD PTR _nOut$[ebp+edx*4], ecx

; 150  : 			t++ ;

  001f9	8b 45 ec	 mov	 eax, DWORD PTR _t$[ebp]
  001fc	83 c0 01	 add	 eax, 1
  001ff	89 45 ec	 mov	 DWORD PTR _t$[ebp], eax
$L84939:

; 151  : 		}
; 152  : 	if ( t >= 8 ) vis = FALSE ;

  00202	eb bb		 jmp	 SHORT $L84937
$L84938:
  00204	83 7d ec 08	 cmp	 DWORD PTR _t$[ebp], 8
  00208	7c 0a		 jl	 SHORT $L84940
  0020a	c7 85 c4 fe ff
	ff 00 00 00 00	 mov	 DWORD PTR _vis$[ebp], 0
$L84940:

; 153  : 
; 154  : 	t = 0;

  00214	c7 45 ec 00 00
	00 00		 mov	 DWORD PTR _t$[ebp], 0

; 155  : 	for ( i = 0; i < 8; i++ )

  0021b	c7 45 f8 00 00
	00 00		 mov	 DWORD PTR _i$[ebp], 0
  00222	eb 09		 jmp	 SHORT $L84941
$L84942:
  00224	8b 45 f8	 mov	 eax, DWORD PTR _i$[ebp]
  00227	83 c0 01	 add	 eax, 1
  0022a	89 45 f8	 mov	 DWORD PTR _i$[ebp], eax
$L84941:
  0022d	83 7d f8 08	 cmp	 DWORD PTR _i$[ebp], 8
  00231	7d 3d		 jge	 SHORT $L84943

; 156  : 		if (v4[i].x > v4[i].w)

  00233	8b 45 f8	 mov	 eax, DWORD PTR _i$[ebp]
  00236	c1 e0 04	 shl	 eax, 4
  00239	8b 4d f8	 mov	 ecx, DWORD PTR _i$[ebp]
  0023c	c1 e1 04	 shl	 ecx, 4
  0023f	d9 84 05 d0 fe
	ff ff		 fld	 DWORD PTR _v4$[ebp+eax]
  00246	d8 9c 0d dc fe
	ff ff		 fcomp	 DWORD PTR _v4$[ebp+ecx+12]
  0024d	df e0		 fnstsw	 ax
  0024f	f6 c4 41	 test	 ah, 65			; 00000041H
  00252	75 1a		 jne	 SHORT $L84944

; 157  : 		{
; 158  : 			nOut[i] += 2 ;

  00254	8b 45 f8	 mov	 eax, DWORD PTR _i$[ebp]
  00257	8b 4c 85 c4	 mov	 ecx, DWORD PTR _nOut$[ebp+eax*4]
  0025b	83 c1 02	 add	 ecx, 2
  0025e	8b 55 f8	 mov	 edx, DWORD PTR _i$[ebp]
  00261	89 4c 95 c4	 mov	 DWORD PTR _nOut$[ebp+edx*4], ecx

; 159  : 			t++ ;

  00265	8b 45 ec	 mov	 eax, DWORD PTR _t$[ebp]
  00268	83 c0 01	 add	 eax, 1
  0026b	89 45 ec	 mov	 DWORD PTR _t$[ebp], eax
$L84944:

; 160  : 		}
; 161  : 	if ( t >= 8 ) vis = FALSE ;

  0026e	eb b4		 jmp	 SHORT $L84942
$L84943:
  00270	83 7d ec 08	 cmp	 DWORD PTR _t$[ebp], 8
  00274	7c 0a		 jl	 SHORT $L84945
  00276	c7 85 c4 fe ff
	ff 00 00 00 00	 mov	 DWORD PTR _vis$[ebp], 0
$L84945:

; 162  : 
; 163  : 	t = 0;

  00280	c7 45 ec 00 00
	00 00		 mov	 DWORD PTR _t$[ebp], 0

; 164  : 	for ( i = 0; i < 8; i++ )

  00287	c7 45 f8 00 00
	00 00		 mov	 DWORD PTR _i$[ebp], 0
  0028e	eb 09		 jmp	 SHORT $L84946
$L84947:
  00290	8b 45 f8	 mov	 eax, DWORD PTR _i$[ebp]
  00293	83 c0 01	 add	 eax, 1
  00296	89 45 f8	 mov	 DWORD PTR _i$[ebp], eax
$L84946:
  00299	83 7d f8 08	 cmp	 DWORD PTR _i$[ebp], 8
  0029d	7d 3f		 jge	 SHORT $L84948

; 165  : 		if ( v4[i].x < -v4[i].w )

  0029f	8b 45 f8	 mov	 eax, DWORD PTR _i$[ebp]
  002a2	c1 e0 04	 shl	 eax, 4
  002a5	8b 4d f8	 mov	 ecx, DWORD PTR _i$[ebp]
  002a8	c1 e1 04	 shl	 ecx, 4
  002ab	d9 84 0d dc fe
	ff ff		 fld	 DWORD PTR _v4$[ebp+ecx+12]
  002b2	d9 e0		 fchs
  002b4	d8 9c 05 d0 fe
	ff ff		 fcomp	 DWORD PTR _v4$[ebp+eax]
  002bb	df e0		 fnstsw	 ax
  002bd	f6 c4 41	 test	 ah, 65			; 00000041H
  002c0	75 1a		 jne	 SHORT $L84949

; 166  : 		{
; 167  : 			nOut[i] += 4 ;

  002c2	8b 45 f8	 mov	 eax, DWORD PTR _i$[ebp]
  002c5	8b 4c 85 c4	 mov	 ecx, DWORD PTR _nOut$[ebp+eax*4]
  002c9	83 c1 04	 add	 ecx, 4
  002cc	8b 55 f8	 mov	 edx, DWORD PTR _i$[ebp]
  002cf	89 4c 95 c4	 mov	 DWORD PTR _nOut$[ebp+edx*4], ecx

; 168  : 			t++ ;

  002d3	8b 45 ec	 mov	 eax, DWORD PTR _t$[ebp]
  002d6	83 c0 01	 add	 eax, 1
  002d9	89 45 ec	 mov	 DWORD PTR _t$[ebp], eax
$L84949:

; 169  : 		}
; 170  : 	if ( t >= 8 ) vis = FALSE ;

  002dc	eb b2		 jmp	 SHORT $L84947
$L84948:
  002de	83 7d ec 08	 cmp	 DWORD PTR _t$[ebp], 8
  002e2	7c 0a		 jl	 SHORT $L84950
  002e4	c7 85 c4 fe ff
	ff 00 00 00 00	 mov	 DWORD PTR _vis$[ebp], 0
$L84950:

; 171  : 
; 172  : 	t = 0;

  002ee	c7 45 ec 00 00
	00 00		 mov	 DWORD PTR _t$[ebp], 0

; 173  : 	for ( i = 0; i < 8; i++ )

  002f5	c7 45 f8 00 00
	00 00		 mov	 DWORD PTR _i$[ebp], 0
  002fc	eb 09		 jmp	 SHORT $L84951
$L84952:
  002fe	8b 45 f8	 mov	 eax, DWORD PTR _i$[ebp]
  00301	83 c0 01	 add	 eax, 1
  00304	89 45 f8	 mov	 DWORD PTR _i$[ebp], eax
$L84951:
  00307	83 7d f8 08	 cmp	 DWORD PTR _i$[ebp], 8
  0030b	7d 3d		 jge	 SHORT $L84953

; 174  : 		if ( v4[i].y > v4[i].w )

  0030d	8b 45 f8	 mov	 eax, DWORD PTR _i$[ebp]
  00310	c1 e0 04	 shl	 eax, 4
  00313	8b 4d f8	 mov	 ecx, DWORD PTR _i$[ebp]
  00316	c1 e1 04	 shl	 ecx, 4
  00319	d9 84 05 d4 fe
	ff ff		 fld	 DWORD PTR _v4$[ebp+eax+4]
  00320	d8 9c 0d dc fe
	ff ff		 fcomp	 DWORD PTR _v4$[ebp+ecx+12]
  00327	df e0		 fnstsw	 ax
  00329	f6 c4 41	 test	 ah, 65			; 00000041H
  0032c	75 1a		 jne	 SHORT $L84954

; 175  : 		{
; 176  : 			nOut[i] += 8 ;

  0032e	8b 45 f8	 mov	 eax, DWORD PTR _i$[ebp]
  00331	8b 4c 85 c4	 mov	 ecx, DWORD PTR _nOut$[ebp+eax*4]
  00335	83 c1 08	 add	 ecx, 8
  00338	8b 55 f8	 mov	 edx, DWORD PTR _i$[ebp]
  0033b	89 4c 95 c4	 mov	 DWORD PTR _nOut$[ebp+edx*4], ecx

; 177  : 			t++;

  0033f	8b 45 ec	 mov	 eax, DWORD PTR _t$[ebp]
  00342	83 c0 01	 add	 eax, 1
  00345	89 45 ec	 mov	 DWORD PTR _t$[ebp], eax
$L84954:

; 178  : 		}
; 179  : 	if ( t >= 8 ) vis = FALSE ;

  00348	eb b4		 jmp	 SHORT $L84952
$L84953:
  0034a	83 7d ec 08	 cmp	 DWORD PTR _t$[ebp], 8
  0034e	7c 0a		 jl	 SHORT $L84955
  00350	c7 85 c4 fe ff
	ff 00 00 00 00	 mov	 DWORD PTR _vis$[ebp], 0
$L84955:

; 180  : 
; 181  : 	t = 0;

  0035a	c7 45 ec 00 00
	00 00		 mov	 DWORD PTR _t$[ebp], 0

; 182  : 	for ( i = 0; i < 8; i++ )

  00361	c7 45 f8 00 00
	00 00		 mov	 DWORD PTR _i$[ebp], 0
  00368	eb 09		 jmp	 SHORT $L84956
$L84957:
  0036a	8b 45 f8	 mov	 eax, DWORD PTR _i$[ebp]
  0036d	83 c0 01	 add	 eax, 1
  00370	89 45 f8	 mov	 DWORD PTR _i$[ebp], eax
$L84956:
  00373	83 7d f8 08	 cmp	 DWORD PTR _i$[ebp], 8
  00377	7d 3f		 jge	 SHORT $L84958

; 183  : 		if ( v4[i].y < -v4[i].w )

  00379	8b 45 f8	 mov	 eax, DWORD PTR _i$[ebp]
  0037c	c1 e0 04	 shl	 eax, 4
  0037f	8b 4d f8	 mov	 ecx, DWORD PTR _i$[ebp]
  00382	c1 e1 04	 shl	 ecx, 4
  00385	d9 84 0d dc fe
	ff ff		 fld	 DWORD PTR _v4$[ebp+ecx+12]
  0038c	d9 e0		 fchs
  0038e	d8 9c 05 d4 fe
	ff ff		 fcomp	 DWORD PTR _v4$[ebp+eax+4]
  00395	df e0		 fnstsw	 ax
  00397	f6 c4 41	 test	 ah, 65			; 00000041H
  0039a	75 1a		 jne	 SHORT $L84959

; 184  : 		{
; 185  : 			nOut[i] += 16 ;

  0039c	8b 45 f8	 mov	 eax, DWORD PTR _i$[ebp]
  0039f	8b 4c 85 c4	 mov	 ecx, DWORD PTR _nOut$[ebp+eax*4]
  003a3	83 c1 10	 add	 ecx, 16			; 00000010H
  003a6	8b 55 f8	 mov	 edx, DWORD PTR _i$[ebp]
  003a9	89 4c 95 c4	 mov	 DWORD PTR _nOut$[ebp+edx*4], ecx

; 186  : 			t++;

  003ad	8b 45 ec	 mov	 eax, DWORD PTR _t$[ebp]
  003b0	83 c0 01	 add	 eax, 1
  003b3	89 45 ec	 mov	 DWORD PTR _t$[ebp], eax
$L84959:

; 187  : 		}
; 188  : 	if ( t >= 8 ) vis = FALSE ;

  003b6	eb b2		 jmp	 SHORT $L84957
$L84958:
  003b8	83 7d ec 08	 cmp	 DWORD PTR _t$[ebp], 8
  003bc	7c 0a		 jl	 SHORT $L84960
  003be	c7 85 c4 fe ff
	ff 00 00 00 00	 mov	 DWORD PTR _vis$[ebp], 0
$L84960:

; 189  : 
; 190  : 	return vis ;

  003c8	8b 85 c4 fe ff
	ff		 mov	 eax, DWORD PTR _vis$[ebp]

; 191  : }

  003ce	52		 push	 edx
  003cf	8b cd		 mov	 ecx, ebp
  003d1	50		 push	 eax
  003d2	8d 15 00 00 00
	00		 lea	 edx, DWORD PTR $L85497
  003d8	e8 00 00 00 00	 call	 @_RTC_CheckStackVars@8
  003dd	58		 pop	 eax
  003de	5a		 pop	 edx
  003df	5f		 pop	 edi
  003e0	5e		 pop	 esi
  003e1	5b		 pop	 ebx
  003e2	81 c4 00 02 00
	00		 add	 esp, 512		; 00000200H
  003e8	3b ec		 cmp	 ebp, esp
  003ea	e8 00 00 00 00	 call	 __RTC_CheckEsp
  003ef	8b e5		 mov	 esp, ebp
  003f1	5d		 pop	 ebp
  003f2	c3		 ret	 0
$L85497:
  003f3	03 00 00 00	 DD	 3
  003f7	00 00 00 00	 DD	 $L85496
$L85496:
  003fb	c4 ff ff ff	 DD	 -60			; ffffffc4H
  003ff	20 00 00 00	 DD	 32			; 00000020H
  00403	00 00 00 00	 DD	 $L85493
  00407	58 ff ff ff	 DD	 -168			; ffffff58H
  0040b	60 00 00 00	 DD	 96			; 00000060H
  0040f	00 00 00 00	 DD	 $L85494
  00413	d0 fe ff ff	 DD	 -304			; fffffed0H
  00417	80 00 00 00	 DD	 128			; 00000080H
  0041b	00 00 00 00	 DD	 $L85495
$L85495:
  0041f	76		 DB	 118			; 00000076H
  00420	34		 DB	 52			; 00000034H
  00421	00		 DB	 0
$L85494:
  00422	76		 DB	 118			; 00000076H
  00423	00		 DB	 0
$L85493:
  00424	6e		 DB	 110			; 0000006eH
  00425	4f		 DB	 79			; 0000004fH
  00426	75		 DB	 117			; 00000075H
  00427	74		 DB	 116			; 00000074H
  00428	00		 DB	 0
?GetBBoxVisibility@@YAHPAUIDirect3DDevice8@@ABUD3DXMATRIX@@1PAU_D3DVIEWPORT8@@ABUD3DXVECTOR3@@3@Z ENDP ; GetBBoxVisibility
; Function compile flags: /Odt /RTCsu /ZI
_TEXT	ENDS
;	COMDAT ??_H@YGXPAXIHP6EPAX0@Z@Z
_TEXT	SEGMENT
___t$ = 8
___s$ = 12
___n$ = 16
___f$ = 20
??_H@YGXPAXIHP6EPAX0@Z@Z PROC NEAR			; `vector constructor iterator', COMDAT
  00000	55		 push	 ebp
  00001	8b ec		 mov	 ebp, esp
  00003	81 ec c0 00 00
	00		 sub	 esp, 192		; 000000c0H
  00009	53		 push	 ebx
  0000a	56		 push	 esi
  0000b	57		 push	 edi
  0000c	8d bd 40 ff ff
	ff		 lea	 edi, DWORD PTR [ebp-192]
  00012	b9 30 00 00 00	 mov	 ecx, 48			; 00000030H
  00017	b8 cc cc cc cc	 mov	 eax, -858993460		; ccccccccH
  0001c	f3 ab		 rep stosd
$L84969:
  0001e	8b 45 10	 mov	 eax, DWORD PTR ___n$[ebp]
  00021	83 e8 01	 sub	 eax, 1
  00024	89 45 10	 mov	 DWORD PTR ___n$[ebp], eax
  00027	83 7d 10 00	 cmp	 DWORD PTR ___n$[ebp], 0
  0002b	7c 1a		 jl	 SHORT $L84967
  0002d	8b f4		 mov	 esi, esp
  0002f	8b 4d 08	 mov	 ecx, DWORD PTR ___t$[ebp]
  00032	ff 55 14	 call	 DWORD PTR ___f$[ebp]
  00035	3b f4		 cmp	 esi, esp
  00037	e8 00 00 00 00	 call	 __RTC_CheckEsp
  0003c	8b 45 08	 mov	 eax, DWORD PTR ___t$[ebp]
  0003f	03 45 0c	 add	 eax, DWORD PTR ___s$[ebp]
  00042	89 45 08	 mov	 DWORD PTR ___t$[ebp], eax
  00045	eb d7		 jmp	 SHORT $L84969
$L84967:
  00047	5f		 pop	 edi
  00048	5e		 pop	 esi
  00049	5b		 pop	 ebx
  0004a	81 c4 c0 00 00
	00		 add	 esp, 192		; 000000c0H
  00050	3b ec		 cmp	 ebp, esp
  00052	e8 00 00 00 00	 call	 __RTC_CheckEsp
  00057	8b e5		 mov	 esp, ebp
  00059	5d		 pop	 ebp
  0005a	c2 10 00	 ret	 16			; 00000010H
??_H@YGXPAXIHP6EPAX0@Z@Z ENDP				; `vector constructor iterator'
_TEXT	ENDS
PUBLIC	__real@40000000
PUBLIC	__real@40800000
PUBLIC	__real@0000000000000000
PUBLIC	?square@@YAMM@Z					; square
PUBLIC	?sphere_line_intersection@@YAXMMMMMMMMMMPAM@Z	; sphere_line_intersection
PUBLIC	_sqrtf
;	COMDAT __real@40800000
CONST	SEGMENT
__real@40800000 DD 040800000r			; 4
CONST	ENDS
;	COMDAT __real@0000000000000000
CONST	SEGMENT
__real@0000000000000000 DQ 00000000000000000r	; 0
CONST	ENDS
;	COMDAT __real@40000000
CONST	SEGMENT
__real@40000000 DD 040000000r			; 2
; Function compile flags: /Odt /RTCsu /ZI
CONST	ENDS
;	COMDAT ?sphere_line_intersection@@YAXMMMMMMMMMMPAM@Z
_TEXT	SEGMENT
tv275 = -276
tv269 = -272
tv266 = -268
tv263 = -264
tv260 = -260
tv246 = -260
tv314 = -256
tv301 = -256
tv257 = -256
tv243 = -256
_i$ = -56
_mu$ = -44
_c$ = -32
_b$ = -20
_a$ = -8
_x1$ = 8
_y1$ = 12
_z1$ = 16
_x2$ = 20
_y2$ = 24
_z2$ = 28
_x3$ = 32
_y3$ = 36
_z3$ = 40
_r$ = 44
_p$ = 48
?sphere_line_intersection@@YAXMMMMMMMMMMPAM@Z PROC NEAR	; sphere_line_intersection, COMDAT

; 199  : {

  00000	55		 push	 ebp
  00001	8b ec		 mov	 ebp, esp
  00003	81 ec 14 01 00
	00		 sub	 esp, 276		; 00000114H
  00009	53		 push	 ebx
  0000a	56		 push	 esi
  0000b	57		 push	 edi
  0000c	8d bd ec fe ff
	ff		 lea	 edi, DWORD PTR [ebp-276]
  00012	b9 45 00 00 00	 mov	 ecx, 69			; 00000045H
  00017	b8 cc cc cc cc	 mov	 eax, -858993460		; ccccccccH
  0001c	f3 ab		 rep stosd

; 200  : 
; 201  :  // x1,y1,z1  P1 coordinates (point of line)
; 202  :  // x2,y2,z2  P2 coordinates (point of line)
; 203  :  // x3,y3,z3, r  P3 coordinates and radius (sphere)
; 204  :  // x,y,z   intersection coordinates
; 205  :  //
; 206  :  // This function returns a pointer array which first index indicates
; 207  :  // the number of intersection point, followed by coordinate pairs.
; 208  : 
; 209  :  float a, b, c, mu, i ;
; 210  : 
; 211  :  a =  square(x2 - x1) + square(y2 - y1) + square(z2 - z1);

  0001e	d9 45 14	 fld	 DWORD PTR _x2$[ebp]
  00021	d8 65 08	 fsub	 DWORD PTR _x1$[ebp]
  00024	51		 push	 ecx
  00025	d9 1c 24	 fstp	 DWORD PTR [esp]
  00028	e8 00 00 00 00	 call	 ?square@@YAMM@Z		; square
  0002d	d9 9d 00 ff ff
	ff		 fstp	 DWORD PTR tv243[ebp]
  00033	83 c4 04	 add	 esp, 4
  00036	d9 45 18	 fld	 DWORD PTR _y2$[ebp]
  00039	d8 65 0c	 fsub	 DWORD PTR _y1$[ebp]
  0003c	51		 push	 ecx
  0003d	d9 1c 24	 fstp	 DWORD PTR [esp]
  00040	e8 00 00 00 00	 call	 ?square@@YAMM@Z		; square
  00045	83 c4 04	 add	 esp, 4
  00048	d8 85 00 ff ff
	ff		 fadd	 DWORD PTR tv243[ebp]
  0004e	d9 9d fc fe ff
	ff		 fstp	 DWORD PTR tv246[ebp]
  00054	d9 45 1c	 fld	 DWORD PTR _z2$[ebp]
  00057	d8 65 10	 fsub	 DWORD PTR _z1$[ebp]
  0005a	51		 push	 ecx
  0005b	d9 1c 24	 fstp	 DWORD PTR [esp]
  0005e	e8 00 00 00 00	 call	 ?square@@YAMM@Z		; square
  00063	83 c4 04	 add	 esp, 4
  00066	d8 85 fc fe ff
	ff		 fadd	 DWORD PTR tv246[ebp]
  0006c	d9 5d f8	 fstp	 DWORD PTR _a$[ebp]

; 212  :  b =  2* ( (x2 - x1)*(x1 - x3)
; 213  :       + (y2 - y1)*(y1 - y3)
; 214  :       + (z2 - z1)*(z1 - z3) ) ;

  0006f	d9 45 14	 fld	 DWORD PTR _x2$[ebp]
  00072	d8 65 08	 fsub	 DWORD PTR _x1$[ebp]
  00075	d9 45 08	 fld	 DWORD PTR _x1$[ebp]
  00078	d8 65 20	 fsub	 DWORD PTR _x3$[ebp]
  0007b	de c9		 fmulp	 ST(1), ST(0)
  0007d	d9 45 18	 fld	 DWORD PTR _y2$[ebp]
  00080	d8 65 0c	 fsub	 DWORD PTR _y1$[ebp]
  00083	d9 45 0c	 fld	 DWORD PTR _y1$[ebp]
  00086	d8 65 24	 fsub	 DWORD PTR _y3$[ebp]
  00089	de c9		 fmulp	 ST(1), ST(0)
  0008b	de c1		 faddp	 ST(1), ST(0)
  0008d	d9 45 1c	 fld	 DWORD PTR _z2$[ebp]
  00090	d8 65 10	 fsub	 DWORD PTR _z1$[ebp]
  00093	d9 45 10	 fld	 DWORD PTR _z1$[ebp]
  00096	d8 65 28	 fsub	 DWORD PTR _z3$[ebp]
  00099	de c9		 fmulp	 ST(1), ST(0)
  0009b	de c1		 faddp	 ST(1), ST(0)
  0009d	dc c0		 fadd	 ST(0), ST(0)
  0009f	d9 5d ec	 fstp	 DWORD PTR _b$[ebp]

; 215  :  c =  square(x3) + square(y3) +
; 216  :       square(z3) + square(x1) +
; 217  :       square(y1) + square(z1) -
; 218  :       2* ( x3*x1 + y3*y1 + z3*z1 ) - square(r) ;

  000a2	8b 45 20	 mov	 eax, DWORD PTR _x3$[ebp]
  000a5	50		 push	 eax
  000a6	e8 00 00 00 00	 call	 ?square@@YAMM@Z		; square
  000ab	d9 9d 00 ff ff
	ff		 fstp	 DWORD PTR tv257[ebp]
  000b1	83 c4 04	 add	 esp, 4
  000b4	8b 4d 24	 mov	 ecx, DWORD PTR _y3$[ebp]
  000b7	51		 push	 ecx
  000b8	e8 00 00 00 00	 call	 ?square@@YAMM@Z		; square
  000bd	83 c4 04	 add	 esp, 4
  000c0	d8 85 00 ff ff
	ff		 fadd	 DWORD PTR tv257[ebp]
  000c6	d9 9d fc fe ff
	ff		 fstp	 DWORD PTR tv260[ebp]
  000cc	8b 55 28	 mov	 edx, DWORD PTR _z3$[ebp]
  000cf	52		 push	 edx
  000d0	e8 00 00 00 00	 call	 ?square@@YAMM@Z		; square
  000d5	83 c4 04	 add	 esp, 4
  000d8	d8 85 fc fe ff
	ff		 fadd	 DWORD PTR tv260[ebp]
  000de	d9 9d f8 fe ff
	ff		 fstp	 DWORD PTR tv263[ebp]
  000e4	8b 45 08	 mov	 eax, DWORD PTR _x1$[ebp]
  000e7	50		 push	 eax
  000e8	e8 00 00 00 00	 call	 ?square@@YAMM@Z		; square
  000ed	83 c4 04	 add	 esp, 4
  000f0	d8 85 f8 fe ff
	ff		 fadd	 DWORD PTR tv263[ebp]
  000f6	d9 9d f4 fe ff
	ff		 fstp	 DWORD PTR tv266[ebp]
  000fc	8b 4d 0c	 mov	 ecx, DWORD PTR _y1$[ebp]
  000ff	51		 push	 ecx
  00100	e8 00 00 00 00	 call	 ?square@@YAMM@Z		; square
  00105	83 c4 04	 add	 esp, 4
  00108	d8 85 f4 fe ff
	ff		 fadd	 DWORD PTR tv266[ebp]
  0010e	d9 9d f0 fe ff
	ff		 fstp	 DWORD PTR tv269[ebp]
  00114	8b 55 10	 mov	 edx, DWORD PTR _z1$[ebp]
  00117	52		 push	 edx
  00118	e8 00 00 00 00	 call	 ?square@@YAMM@Z		; square
  0011d	83 c4 04	 add	 esp, 4
  00120	d8 85 f0 fe ff
	ff		 fadd	 DWORD PTR tv269[ebp]
  00126	d9 45 20	 fld	 DWORD PTR _x3$[ebp]
  00129	d8 4d 08	 fmul	 DWORD PTR _x1$[ebp]
  0012c	d9 45 24	 fld	 DWORD PTR _y3$[ebp]
  0012f	d8 4d 0c	 fmul	 DWORD PTR _y1$[ebp]
  00132	de c1		 faddp	 ST(1), ST(0)
  00134	d9 45 28	 fld	 DWORD PTR _z3$[ebp]
  00137	d8 4d 10	 fmul	 DWORD PTR _z1$[ebp]
  0013a	de c1		 faddp	 ST(1), ST(0)
  0013c	dc c0		 fadd	 ST(0), ST(0)
  0013e	de e9		 fsubp	 ST(1), ST(0)
  00140	d9 9d ec fe ff
	ff		 fstp	 DWORD PTR tv275[ebp]
  00146	8b 45 2c	 mov	 eax, DWORD PTR _r$[ebp]
  00149	50		 push	 eax
  0014a	e8 00 00 00 00	 call	 ?square@@YAMM@Z		; square
  0014f	83 c4 04	 add	 esp, 4
  00152	d8 ad ec fe ff
	ff		 fsubr	 DWORD PTR tv275[ebp]
  00158	d9 5d e0	 fstp	 DWORD PTR _c$[ebp]

; 219  :  i =   b * b - 4 * a * c ;

  0015b	d9 45 ec	 fld	 DWORD PTR _b$[ebp]
  0015e	d8 4d ec	 fmul	 DWORD PTR _b$[ebp]
  00161	d9 05 00 00 00
	00		 fld	 DWORD PTR __real@40800000
  00167	d8 4d f8	 fmul	 DWORD PTR _a$[ebp]
  0016a	d8 4d e0	 fmul	 DWORD PTR _c$[ebp]
  0016d	de e9		 fsubp	 ST(1), ST(0)
  0016f	d9 5d c8	 fstp	 DWORD PTR _i$[ebp]

; 220  : 
; 221  :  if ( i < 0.0 )

  00172	d9 45 c8	 fld	 DWORD PTR _i$[ebp]
  00175	dc 1d 00 00 00
	00		 fcomp	 QWORD PTR __real@0000000000000000
  0017b	df e0		 fnstsw	 ax
  0017d	f6 c4 05	 test	 ah, 5
  00180	7a 0e		 jp	 SHORT $L84990

; 222  :  {
; 223  :   // no intersection
; 224  :   p[0] = 0.0;

  00182	8b 45 30	 mov	 eax, DWORD PTR _p$[ebp]
  00185	c7 00 00 00 00
	00		 mov	 DWORD PTR [eax], 0

; 225  :   return ;

  0018b	e9 7a 01 00 00	 jmp	 $L84984
$L84990:

; 226  :  }
; 227  :  if ( i == 0.0 )

  00190	d9 45 c8	 fld	 DWORD PTR _i$[ebp]
  00193	dc 1d 00 00 00
	00		 fcomp	 QWORD PTR __real@0000000000000000
  00199	df e0		 fnstsw	 ax
  0019b	f6 c4 44	 test	 ah, 68			; 00000044H
  0019e	7a 57		 jp	 SHORT $L84991

; 228  :  {
; 229  :   // one intersection
; 230  :   p[0] = 1.0;

  001a0	8b 45 30	 mov	 eax, DWORD PTR _p$[ebp]
  001a3	c7 00 00 00 80
	3f		 mov	 DWORD PTR [eax], 1065353216 ; 3f800000H

; 231  : 
; 232  :   mu = -b/(2*a) ;

  001a9	d9 45 ec	 fld	 DWORD PTR _b$[ebp]
  001ac	d9 e0		 fchs
  001ae	d9 05 00 00 00
	00		 fld	 DWORD PTR __real@40000000
  001b4	d8 4d f8	 fmul	 DWORD PTR _a$[ebp]
  001b7	de f9		 fdivp	 ST(1), ST(0)
  001b9	d9 5d d4	 fstp	 DWORD PTR _mu$[ebp]

; 233  :   p[1] = x1 + mu*(x2-x1);

  001bc	d9 45 14	 fld	 DWORD PTR _x2$[ebp]
  001bf	d8 65 08	 fsub	 DWORD PTR _x1$[ebp]
  001c2	d8 4d d4	 fmul	 DWORD PTR _mu$[ebp]
  001c5	d8 45 08	 fadd	 DWORD PTR _x1$[ebp]
  001c8	8b 45 30	 mov	 eax, DWORD PTR _p$[ebp]
  001cb	d9 58 04	 fstp	 DWORD PTR [eax+4]

; 234  :   p[2] = y1 + mu*(y2-y1);

  001ce	d9 45 18	 fld	 DWORD PTR _y2$[ebp]
  001d1	d8 65 0c	 fsub	 DWORD PTR _y1$[ebp]
  001d4	d8 4d d4	 fmul	 DWORD PTR _mu$[ebp]
  001d7	d8 45 0c	 fadd	 DWORD PTR _y1$[ebp]
  001da	8b 45 30	 mov	 eax, DWORD PTR _p$[ebp]
  001dd	d9 58 08	 fstp	 DWORD PTR [eax+8]

; 235  :   p[3] = z1 + mu*(z2-z1);

  001e0	d9 45 1c	 fld	 DWORD PTR _z2$[ebp]
  001e3	d8 65 10	 fsub	 DWORD PTR _z1$[ebp]
  001e6	d8 4d d4	 fmul	 DWORD PTR _mu$[ebp]
  001e9	d8 45 10	 fadd	 DWORD PTR _z1$[ebp]
  001ec	8b 45 30	 mov	 eax, DWORD PTR _p$[ebp]
  001ef	d9 58 0c	 fstp	 DWORD PTR [eax+12]

; 236  :   return ;

  001f2	e9 13 01 00 00	 jmp	 $L84984
$L84991:

; 237  :  }
; 238  :  if ( i > 0.0 )

  001f7	d9 45 c8	 fld	 DWORD PTR _i$[ebp]
  001fa	dc 1d 00 00 00
	00		 fcomp	 QWORD PTR __real@0000000000000000
  00200	df e0		 fnstsw	 ax
  00202	f6 c4 41	 test	 ah, 65			; 00000041H
  00205	0f 85 ff 00 00
	00		 jne	 $L84984

; 239  :  {
; 240  :   // two intersections
; 241  :   p[0] = 2.0;

  0020b	8b 45 30	 mov	 eax, DWORD PTR _p$[ebp]
  0020e	c7 00 00 00 00
	40		 mov	 DWORD PTR [eax], 1073741824 ; 40000000H

; 242  : 
; 243  :   // first intersection
; 244  :   mu = (-b + sqrtf( square(b) - 4*a*c )) / (2*a);

  00214	d9 45 ec	 fld	 DWORD PTR _b$[ebp]
  00217	d9 e0		 fchs
  00219	d9 9d 00 ff ff
	ff		 fstp	 DWORD PTR tv301[ebp]
  0021f	8b 45 ec	 mov	 eax, DWORD PTR _b$[ebp]
  00222	50		 push	 eax
  00223	e8 00 00 00 00	 call	 ?square@@YAMM@Z		; square
  00228	83 c4 04	 add	 esp, 4
  0022b	d9 05 00 00 00
	00		 fld	 DWORD PTR __real@40800000
  00231	d8 4d f8	 fmul	 DWORD PTR _a$[ebp]
  00234	d8 4d e0	 fmul	 DWORD PTR _c$[ebp]
  00237	de e9		 fsubp	 ST(1), ST(0)
  00239	51		 push	 ecx
  0023a	d9 1c 24	 fstp	 DWORD PTR [esp]
  0023d	e8 00 00 00 00	 call	 _sqrtf
  00242	83 c4 04	 add	 esp, 4
  00245	d8 85 00 ff ff
	ff		 fadd	 DWORD PTR tv301[ebp]
  0024b	d9 05 00 00 00
	00		 fld	 DWORD PTR __real@40000000
  00251	d8 4d f8	 fmul	 DWORD PTR _a$[ebp]
  00254	de f9		 fdivp	 ST(1), ST(0)
  00256	d9 5d d4	 fstp	 DWORD PTR _mu$[ebp]

; 245  :   p[1] = x1 + mu*(x2-x1);

  00259	d9 45 14	 fld	 DWORD PTR _x2$[ebp]
  0025c	d8 65 08	 fsub	 DWORD PTR _x1$[ebp]
  0025f	d8 4d d4	 fmul	 DWORD PTR _mu$[ebp]
  00262	d8 45 08	 fadd	 DWORD PTR _x1$[ebp]
  00265	8b 45 30	 mov	 eax, DWORD PTR _p$[ebp]
  00268	d9 58 04	 fstp	 DWORD PTR [eax+4]

; 246  :   p[2] = y1 + mu*(y2-y1);

  0026b	d9 45 18	 fld	 DWORD PTR _y2$[ebp]
  0026e	d8 65 0c	 fsub	 DWORD PTR _y1$[ebp]
  00271	d8 4d d4	 fmul	 DWORD PTR _mu$[ebp]
  00274	d8 45 0c	 fadd	 DWORD PTR _y1$[ebp]
  00277	8b 45 30	 mov	 eax, DWORD PTR _p$[ebp]
  0027a	d9 58 08	 fstp	 DWORD PTR [eax+8]

; 247  :   p[3] = z1 + mu*(z2-z1);

  0027d	d9 45 1c	 fld	 DWORD PTR _z2$[ebp]
  00280	d8 65 10	 fsub	 DWORD PTR _z1$[ebp]
  00283	d8 4d d4	 fmul	 DWORD PTR _mu$[ebp]
  00286	d8 45 10	 fadd	 DWORD PTR _z1$[ebp]
  00289	8b 45 30	 mov	 eax, DWORD PTR _p$[ebp]
  0028c	d9 58 0c	 fstp	 DWORD PTR [eax+12]

; 248  :   // second intersection
; 249  :   mu = (-b - sqrtf(square(b) - 4*a*c )) / (2*a);

  0028f	d9 45 ec	 fld	 DWORD PTR _b$[ebp]
  00292	d9 e0		 fchs
  00294	d9 9d 00 ff ff
	ff		 fstp	 DWORD PTR tv314[ebp]
  0029a	8b 45 ec	 mov	 eax, DWORD PTR _b$[ebp]
  0029d	50		 push	 eax
  0029e	e8 00 00 00 00	 call	 ?square@@YAMM@Z		; square
  002a3	83 c4 04	 add	 esp, 4
  002a6	d9 05 00 00 00
	00		 fld	 DWORD PTR __real@40800000
  002ac	d8 4d f8	 fmul	 DWORD PTR _a$[ebp]
  002af	d8 4d e0	 fmul	 DWORD PTR _c$[ebp]
  002b2	de e9		 fsubp	 ST(1), ST(0)
  002b4	51		 push	 ecx
  002b5	d9 1c 24	 fstp	 DWORD PTR [esp]
  002b8	e8 00 00 00 00	 call	 _sqrtf
  002bd	83 c4 04	 add	 esp, 4
  002c0	d8 ad 00 ff ff
	ff		 fsubr	 DWORD PTR tv314[ebp]
  002c6	d9 05 00 00 00
	00		 fld	 DWORD PTR __real@40000000
  002cc	d8 4d f8	 fmul	 DWORD PTR _a$[ebp]
  002cf	de f9		 fdivp	 ST(1), ST(0)
  002d1	d9 5d d4	 fstp	 DWORD PTR _mu$[ebp]

; 250  :   p[4] = x1 + mu*(x2-x1);

  002d4	d9 45 14	 fld	 DWORD PTR _x2$[ebp]
  002d7	d8 65 08	 fsub	 DWORD PTR _x1$[ebp]
  002da	d8 4d d4	 fmul	 DWORD PTR _mu$[ebp]
  002dd	d8 45 08	 fadd	 DWORD PTR _x1$[ebp]
  002e0	8b 45 30	 mov	 eax, DWORD PTR _p$[ebp]
  002e3	d9 58 10	 fstp	 DWORD PTR [eax+16]

; 251  :   p[5] = y1 + mu*(y2-y1);

  002e6	d9 45 18	 fld	 DWORD PTR _y2$[ebp]
  002e9	d8 65 0c	 fsub	 DWORD PTR _y1$[ebp]
  002ec	d8 4d d4	 fmul	 DWORD PTR _mu$[ebp]
  002ef	d8 45 0c	 fadd	 DWORD PTR _y1$[ebp]
  002f2	8b 45 30	 mov	 eax, DWORD PTR _p$[ebp]
  002f5	d9 58 14	 fstp	 DWORD PTR [eax+20]

; 252  :   p[6] = z1 + mu*(z2-z1);

  002f8	d9 45 1c	 fld	 DWORD PTR _z2$[ebp]
  002fb	d8 65 10	 fsub	 DWORD PTR _z1$[ebp]
  002fe	d8 4d d4	 fmul	 DWORD PTR _mu$[ebp]
  00301	d8 45 10	 fadd	 DWORD PTR _z1$[ebp]
  00304	8b 45 30	 mov	 eax, DWORD PTR _p$[ebp]
  00307	d9 58 18	 fstp	 DWORD PTR [eax+24]
$L84984:

; 253  : 
; 254  :   return ;
; 255  :  }
; 256  : }

  0030a	5f		 pop	 edi
  0030b	5e		 pop	 esi
  0030c	5b		 pop	 ebx
  0030d	81 c4 14 01 00
	00		 add	 esp, 276		; 00000114H
  00313	3b ec		 cmp	 ebp, esp
  00315	e8 00 00 00 00	 call	 __RTC_CheckEsp
  0031a	8b e5		 mov	 esp, ebp
  0031c	5d		 pop	 ebp
  0031d	c3		 ret	 0
?sphere_line_intersection@@YAXMMMMMMMMMMPAM@Z ENDP	; sphere_line_intersection
; Function compile flags: /Odt /RTCsu /ZI
_TEXT	ENDS
;	COMDAT ?square@@YAMM@Z
_TEXT	SEGMENT
_f$ = 8
?square@@YAMM@Z PROC NEAR				; square, COMDAT

; 259  : float square( float f ) { return (f*f) ;}

  00000	55		 push	 ebp
  00001	8b ec		 mov	 ebp, esp
  00003	81 ec c0 00 00
	00		 sub	 esp, 192		; 000000c0H
  00009	53		 push	 ebx
  0000a	56		 push	 esi
  0000b	57		 push	 edi
  0000c	8d bd 40 ff ff
	ff		 lea	 edi, DWORD PTR [ebp-192]
  00012	b9 30 00 00 00	 mov	 ecx, 48			; 00000030H
  00017	b8 cc cc cc cc	 mov	 eax, -858993460		; ccccccccH
  0001c	f3 ab		 rep stosd
  0001e	d9 45 08	 fld	 DWORD PTR _f$[ebp]
  00021	d8 4d 08	 fmul	 DWORD PTR _f$[ebp]
  00024	5f		 pop	 edi
  00025	5e		 pop	 esi
  00026	5b		 pop	 ebx
  00027	8b e5		 mov	 esp, ebp
  00029	5d		 pop	 ebp
  0002a	c3		 ret	 0
?square@@YAMM@Z ENDP					; square
_TEXT	ENDS
PUBLIC	?D3DXVec3Length@@YAMPBUD3DXVECTOR3@@@Z		; D3DXVec3Length
PUBLIC	?SphereLineTest@@YAHABUD3DXVECTOR3@@00MPAHPAU1@2@Z ; SphereLineTest
PUBLIC	??0D3DXVECTOR3@@QAE@MMM@Z			; D3DXVECTOR3::D3DXVECTOR3
PUBLIC	??HD3DXVECTOR3@@QBE?AU0@ABU0@@Z			; D3DXVECTOR3::operator+
PUBLIC	??GD3DXVECTOR3@@QBE?AU0@ABU0@@Z			; D3DXVECTOR3::operator-
PUBLIC	??KD3DXVECTOR3@@QBE?AU0@M@Z			; D3DXVECTOR3::operator/
EXTRN	__ftol2:NEAR
; Function compile flags: /Odt /RTCsu /ZI
;	COMDAT ?SphereLineTest@@YAHABUD3DXVECTOR3@@00MPAHPAU1@2@Z
_TEXT	SEGMENT
$T85518 = -476
$T85517 = -456
$T85516 = -436
$T85515 = -416
$T85514 = -396
$T85513 = -376
$T85512 = -356
_i$85024 = -144
_f$ = -132
_bLineStartStopIn$ = -96
_bIntersect$ = -84
_fDistanceFromIntersectionToMiddleOfLine$ = -72
_fHalfLineLength$ = -60
_vIntersect$ = -48
_vMiddleOfLine$ = -28
_nIntersects$ = -8
_vA$ = 8
_vB$ = 12
_vS$ = 16
_r$ = 20
_pN$ = 24
_pvI1$ = 28
_pvI2$ = 32
?SphereLineTest@@YAHABUD3DXVECTOR3@@00MPAHPAU1@2@Z PROC NEAR ; SphereLineTest, COMDAT

; 269  : {

  00000	55		 push	 ebp
  00001	8b ec		 mov	 ebp, esp
  00003	81 ec e0 01 00
	00		 sub	 esp, 480		; 000001e0H
  00009	53		 push	 ebx
  0000a	56		 push	 esi
  0000b	57		 push	 edi
  0000c	8d bd 20 fe ff
	ff		 lea	 edi, DWORD PTR [ebp-480]
  00012	b9 78 00 00 00	 mov	 ecx, 120		; 00000078H
  00017	b8 cc cc cc cc	 mov	 eax, -858993460		; ccccccccH
  0001c	f3 ab		 rep stosd

; 270  : 	int nIntersects ;
; 271  : 	xVec3 vMiddleOfLine = vA + (vB - vA) / 2 ;

  0001e	68 00 00 00 40	 push	 1073741824		; 40000000H
  00023	8d 85 88 fe ff
	ff		 lea	 eax, DWORD PTR $T85513[ebp]
  00029	50		 push	 eax
  0002a	8b 4d 08	 mov	 ecx, DWORD PTR _vA$[ebp]
  0002d	51		 push	 ecx
  0002e	8d 95 9c fe ff
	ff		 lea	 edx, DWORD PTR $T85512[ebp]
  00034	52		 push	 edx
  00035	8b 4d 0c	 mov	 ecx, DWORD PTR _vB$[ebp]
  00038	e8 00 00 00 00	 call	 ??GD3DXVECTOR3@@QBE?AU0@ABU0@@Z ; D3DXVECTOR3::operator-
  0003d	8b c8		 mov	 ecx, eax
  0003f	e8 00 00 00 00	 call	 ??KD3DXVECTOR3@@QBE?AU0@M@Z ; D3DXVECTOR3::operator/
  00044	50		 push	 eax
  00045	8d 45 e4	 lea	 eax, DWORD PTR _vMiddleOfLine$[ebp]
  00048	50		 push	 eax
  00049	8b 4d 08	 mov	 ecx, DWORD PTR _vA$[ebp]
  0004c	e8 00 00 00 00	 call	 ??HD3DXVECTOR3@@QBE?AU0@ABU0@@Z ; D3DXVECTOR3::operator+

; 272  : 	xVec3 vIntersect ;

  00051	8d 4d d0	 lea	 ecx, DWORD PTR _vIntersect$[ebp]
  00054	e8 00 00 00 00	 call	 ??0D3DXVECTOR3@@QAE@XZ	; D3DXVECTOR3::D3DXVECTOR3

; 273  : 	float fHalfLineLength = D3DXVec3Length( &(vB - vA) ) / 2.0f ;

  00059	8b 45 08	 mov	 eax, DWORD PTR _vA$[ebp]
  0005c	50		 push	 eax
  0005d	8d 8d 74 fe ff
	ff		 lea	 ecx, DWORD PTR $T85514[ebp]
  00063	51		 push	 ecx
  00064	8b 4d 0c	 mov	 ecx, DWORD PTR _vB$[ebp]
  00067	e8 00 00 00 00	 call	 ??GD3DXVECTOR3@@QBE?AU0@ABU0@@Z ; D3DXVECTOR3::operator-
  0006c	50		 push	 eax
  0006d	e8 00 00 00 00	 call	 ?D3DXVec3Length@@YAMPBUD3DXVECTOR3@@@Z ; D3DXVec3Length
  00072	83 c4 04	 add	 esp, 4
  00075	d8 35 00 00 00
	00		 fdiv	 DWORD PTR __real@40000000
  0007b	d9 5d c4	 fstp	 DWORD PTR _fHalfLineLength$[ebp]

; 274  : 	float fDistanceFromIntersectionToMiddleOfLine ;
; 275  : 	BOOL bIntersect = FALSE ;

  0007e	c7 45 ac 00 00
	00 00		 mov	 DWORD PTR _bIntersect$[ebp], 0

; 276  : 	BOOL bLineStartStopIn = FALSE ;

  00085	c7 45 a0 00 00
	00 00		 mov	 DWORD PTR _bLineStartStopIn$[ebp], 0

; 277  : 
; 278  : // is start/stop inside circle?
; 279  : 	if( D3DXVec3Length( &(vA - vS) ) <= r )

  0008c	8b 45 10	 mov	 eax, DWORD PTR _vS$[ebp]
  0008f	50		 push	 eax
  00090	8d 8d 60 fe ff
	ff		 lea	 ecx, DWORD PTR $T85515[ebp]
  00096	51		 push	 ecx
  00097	8b 4d 08	 mov	 ecx, DWORD PTR _vA$[ebp]
  0009a	e8 00 00 00 00	 call	 ??GD3DXVECTOR3@@QBE?AU0@ABU0@@Z ; D3DXVECTOR3::operator-
  0009f	50		 push	 eax
  000a0	e8 00 00 00 00	 call	 ?D3DXVec3Length@@YAMPBUD3DXVECTOR3@@@Z ; D3DXVec3Length
  000a5	83 c4 04	 add	 esp, 4
  000a8	d8 5d 14	 fcomp	 DWORD PTR _r$[ebp]
  000ab	df e0		 fnstsw	 ax
  000ad	f6 c4 41	 test	 ah, 65			; 00000041H
  000b0	7a 07		 jp	 SHORT $L85017

; 280  : 		bLineStartStopIn = TRUE ;

  000b2	c7 45 a0 01 00
	00 00		 mov	 DWORD PTR _bLineStartStopIn$[ebp], 1
$L85017:

; 281  : 	if( D3DXVec3Length( &(vB - vS) ) <= r )

  000b9	8b 45 10	 mov	 eax, DWORD PTR _vS$[ebp]
  000bc	50		 push	 eax
  000bd	8d 8d 4c fe ff
	ff		 lea	 ecx, DWORD PTR $T85516[ebp]
  000c3	51		 push	 ecx
  000c4	8b 4d 0c	 mov	 ecx, DWORD PTR _vB$[ebp]
  000c7	e8 00 00 00 00	 call	 ??GD3DXVECTOR3@@QBE?AU0@ABU0@@Z ; D3DXVECTOR3::operator-
  000cc	50		 push	 eax
  000cd	e8 00 00 00 00	 call	 ?D3DXVec3Length@@YAMPBUD3DXVECTOR3@@@Z ; D3DXVec3Length
  000d2	83 c4 04	 add	 esp, 4
  000d5	d8 5d 14	 fcomp	 DWORD PTR _r$[ebp]
  000d8	df e0		 fnstsw	 ax
  000da	f6 c4 41	 test	 ah, 65			; 00000041H
  000dd	7a 07		 jp	 SHORT $L85019

; 282  : 		bLineStartStopIn = TRUE ;

  000df	c7 45 a0 01 00
	00 00		 mov	 DWORD PTR _bLineStartStopIn$[ebp], 1
$L85019:

; 283  : 
; 284  : // get ray (not line!) intersection points;
; 285  : 	float f[7] ;
; 286  : 	sphere_line_intersection( vA.x, vA.y, vA.z,
; 287  : 							  vB.x, vB.y, vB.z,
; 288  : 							  vS.x, vS.y, vS.z, r, f );

  000e6	8d 85 7c ff ff
	ff		 lea	 eax, DWORD PTR _f$[ebp]
  000ec	50		 push	 eax
  000ed	8b 4d 14	 mov	 ecx, DWORD PTR _r$[ebp]
  000f0	51		 push	 ecx
  000f1	8b 55 10	 mov	 edx, DWORD PTR _vS$[ebp]
  000f4	8b 42 08	 mov	 eax, DWORD PTR [edx+8]
  000f7	50		 push	 eax
  000f8	8b 4d 10	 mov	 ecx, DWORD PTR _vS$[ebp]
  000fb	8b 51 04	 mov	 edx, DWORD PTR [ecx+4]
  000fe	52		 push	 edx
  000ff	8b 45 10	 mov	 eax, DWORD PTR _vS$[ebp]
  00102	8b 08		 mov	 ecx, DWORD PTR [eax]
  00104	51		 push	 ecx
  00105	8b 55 0c	 mov	 edx, DWORD PTR _vB$[ebp]
  00108	8b 42 08	 mov	 eax, DWORD PTR [edx+8]
  0010b	50		 push	 eax
  0010c	8b 4d 0c	 mov	 ecx, DWORD PTR _vB$[ebp]
  0010f	8b 51 04	 mov	 edx, DWORD PTR [ecx+4]
  00112	52		 push	 edx
  00113	8b 45 0c	 mov	 eax, DWORD PTR _vB$[ebp]
  00116	8b 08		 mov	 ecx, DWORD PTR [eax]
  00118	51		 push	 ecx
  00119	8b 55 08	 mov	 edx, DWORD PTR _vA$[ebp]
  0011c	8b 42 08	 mov	 eax, DWORD PTR [edx+8]
  0011f	50		 push	 eax
  00120	8b 4d 08	 mov	 ecx, DWORD PTR _vA$[ebp]
  00123	8b 51 04	 mov	 edx, DWORD PTR [ecx+4]
  00126	52		 push	 edx
  00127	8b 45 08	 mov	 eax, DWORD PTR _vA$[ebp]
  0012a	8b 08		 mov	 ecx, DWORD PTR [eax]
  0012c	51		 push	 ecx
  0012d	e8 00 00 00 00	 call	 ?sphere_line_intersection@@YAXMMMMMMMMMMPAM@Z ; sphere_line_intersection
  00132	83 c4 2c	 add	 esp, 44			; 0000002cH

; 289  : 
; 290  : // save no. of ray intersects;
; 291  : 	nIntersects = (int)f[0] ;

  00135	d9 85 7c ff ff
	ff		 fld	 DWORD PTR _f$[ebp]
  0013b	e8 00 00 00 00	 call	 __ftol2
  00140	89 45 f8	 mov	 DWORD PTR _nIntersects$[ebp], eax

; 292  : 	if( pN ) *pN = nIntersects ;

  00143	83 7d 18 00	 cmp	 DWORD PTR _pN$[ebp], 0
  00147	74 08		 je	 SHORT $L85022
  00149	8b 45 18	 mov	 eax, DWORD PTR _pN$[ebp]
  0014c	8b 4d f8	 mov	 ecx, DWORD PTR _nIntersects$[ebp]
  0014f	89 08		 mov	 DWORD PTR [eax], ecx
$L85022:

; 293  : 	if( nIntersects==0 )

  00151	83 7d f8 00	 cmp	 DWORD PTR _nIntersects$[ebp], 0
  00155	75 07		 jne	 SHORT $L85023

; 294  : 		return FALSE ;

  00157	33 c0		 xor	 eax, eax
  00159	e9 00 01 00 00	 jmp	 $L85004
$L85023:

; 295  : 
; 296  : // determine if the line extends to the ray-intersect points;
; 297  : 	for( int i=0; i<nIntersects; i++ )

  0015e	c7 85 70 ff ff
	ff 00 00 00 00	 mov	 DWORD PTR _i$85024[ebp], 0
  00168	eb 0f		 jmp	 SHORT $L85025
$L85026:
  0016a	8b 85 70 ff ff
	ff		 mov	 eax, DWORD PTR _i$85024[ebp]
  00170	83 c0 01	 add	 eax, 1
  00173	89 85 70 ff ff
	ff		 mov	 DWORD PTR _i$85024[ebp], eax
$L85025:
  00179	8b 85 70 ff ff
	ff		 mov	 eax, DWORD PTR _i$85024[ebp]
  0017f	3b 45 f8	 cmp	 eax, DWORD PTR _nIntersects$[ebp]
  00182	0f 8d d3 00 00
	00		 jge	 $L85027

; 298  : 	{
; 299  : 		vIntersect = xVec3( f[1 + i*3], f[2 + i*3], f[3 + i*3] );

  00188	8b 85 70 ff ff
	ff		 mov	 eax, DWORD PTR _i$85024[ebp]
  0018e	6b c0 03	 imul	 eax, 3
  00191	8b 4c 85 88	 mov	 ecx, DWORD PTR _f$[ebp+eax*4+12]
  00195	51		 push	 ecx
  00196	8b 95 70 ff ff
	ff		 mov	 edx, DWORD PTR _i$85024[ebp]
  0019c	6b d2 03	 imul	 edx, 3
  0019f	8b 44 95 84	 mov	 eax, DWORD PTR _f$[ebp+edx*4+8]
  001a3	50		 push	 eax
  001a4	8b 8d 70 ff ff
	ff		 mov	 ecx, DWORD PTR _i$85024[ebp]
  001aa	6b c9 03	 imul	 ecx, 3
  001ad	8b 54 8d 80	 mov	 edx, DWORD PTR _f$[ebp+ecx*4+4]
  001b1	52		 push	 edx
  001b2	8d 8d 38 fe ff
	ff		 lea	 ecx, DWORD PTR $T85517[ebp]
  001b8	e8 00 00 00 00	 call	 ??0D3DXVECTOR3@@QAE@MMM@Z ; D3DXVECTOR3::D3DXVECTOR3
  001bd	8b 08		 mov	 ecx, DWORD PTR [eax]
  001bf	89 4d d0	 mov	 DWORD PTR _vIntersect$[ebp], ecx
  001c2	8b 50 04	 mov	 edx, DWORD PTR [eax+4]
  001c5	89 55 d4	 mov	 DWORD PTR _vIntersect$[ebp+4], edx
  001c8	8b 40 08	 mov	 eax, DWORD PTR [eax+8]
  001cb	89 45 d8	 mov	 DWORD PTR _vIntersect$[ebp+8], eax

; 300  : 		if( i==0 ) if( pvI1 ) *pvI1 = vIntersect ;

  001ce	83 bd 70 ff ff
	ff 00		 cmp	 DWORD PTR _i$85024[ebp], 0
  001d5	75 1a		 jne	 SHORT $L85029
  001d7	83 7d 1c 00	 cmp	 DWORD PTR _pvI1$[ebp], 0
  001db	74 14		 je	 SHORT $L85029
  001dd	8b 45 1c	 mov	 eax, DWORD PTR _pvI1$[ebp]
  001e0	8b 4d d0	 mov	 ecx, DWORD PTR _vIntersect$[ebp]
  001e3	89 08		 mov	 DWORD PTR [eax], ecx
  001e5	8b 55 d4	 mov	 edx, DWORD PTR _vIntersect$[ebp+4]
  001e8	89 50 04	 mov	 DWORD PTR [eax+4], edx
  001eb	8b 4d d8	 mov	 ecx, DWORD PTR _vIntersect$[ebp+8]
  001ee	89 48 08	 mov	 DWORD PTR [eax+8], ecx
$L85029:

; 301  : 		if( i==1 ) if( pvI2 ) *pvI2 = vIntersect ;

  001f1	83 bd 70 ff ff
	ff 01		 cmp	 DWORD PTR _i$85024[ebp], 1
  001f8	75 1a		 jne	 SHORT $L85031
  001fa	83 7d 20 00	 cmp	 DWORD PTR _pvI2$[ebp], 0
  001fe	74 14		 je	 SHORT $L85031
  00200	8b 45 20	 mov	 eax, DWORD PTR _pvI2$[ebp]
  00203	8b 4d d0	 mov	 ecx, DWORD PTR _vIntersect$[ebp]
  00206	89 08		 mov	 DWORD PTR [eax], ecx
  00208	8b 55 d4	 mov	 edx, DWORD PTR _vIntersect$[ebp+4]
  0020b	89 50 04	 mov	 DWORD PTR [eax+4], edx
  0020e	8b 4d d8	 mov	 ecx, DWORD PTR _vIntersect$[ebp+8]
  00211	89 48 08	 mov	 DWORD PTR [eax+8], ecx
$L85031:

; 302  : 		
; 303  : 		if( bLineStartStopIn )

  00214	83 7d a0 00	 cmp	 DWORD PTR _bLineStartStopIn$[ebp], 0
  00218	74 09		 je	 SHORT $L85033

; 304  : 			bIntersect = TRUE ;

  0021a	c7 45 ac 01 00
	00 00		 mov	 DWORD PTR _bIntersect$[ebp], 1

; 305  : 		else

  00221	eb 33		 jmp	 SHORT $L85034
$L85033:

; 306  : 		{
; 307  : 			fDistanceFromIntersectionToMiddleOfLine = D3DXVec3Length( &(vIntersect - vMiddleOfLine) );

  00223	8d 45 e4	 lea	 eax, DWORD PTR _vMiddleOfLine$[ebp]
  00226	50		 push	 eax
  00227	8d 8d 24 fe ff
	ff		 lea	 ecx, DWORD PTR $T85518[ebp]
  0022d	51		 push	 ecx
  0022e	8d 4d d0	 lea	 ecx, DWORD PTR _vIntersect$[ebp]
  00231	e8 00 00 00 00	 call	 ??GD3DXVECTOR3@@QBE?AU0@ABU0@@Z ; D3DXVECTOR3::operator-
  00236	50		 push	 eax
  00237	e8 00 00 00 00	 call	 ?D3DXVec3Length@@YAMPBUD3DXVECTOR3@@@Z ; D3DXVec3Length
  0023c	83 c4 04	 add	 esp, 4
  0023f	d9 5d b8	 fstp	 DWORD PTR _fDistanceFromIntersectionToMiddleOfLine$[ebp]

; 308  : 			if( fDistanceFromIntersectionToMiddleOfLine <= fHalfLineLength )

  00242	d9 45 b8	 fld	 DWORD PTR _fDistanceFromIntersectionToMiddleOfLine$[ebp]
  00245	d8 5d c4	 fcomp	 DWORD PTR _fHalfLineLength$[ebp]
  00248	df e0		 fnstsw	 ax
  0024a	f6 c4 41	 test	 ah, 65			; 00000041H
  0024d	7a 07		 jp	 SHORT $L85034

; 309  : 				bIntersect = TRUE ;

  0024f	c7 45 ac 01 00
	00 00		 mov	 DWORD PTR _bIntersect$[ebp], 1
$L85034:

; 310  : 		}
; 311  : 	}

  00256	e9 0f ff ff ff	 jmp	 $L85026
$L85027:

; 312  : 	return bIntersect ;

  0025b	8b 45 ac	 mov	 eax, DWORD PTR _bIntersect$[ebp]
$L85004:

; 313  : }

  0025e	52		 push	 edx
  0025f	8b cd		 mov	 ecx, ebp
  00261	50		 push	 eax
  00262	8d 15 00 00 00
	00		 lea	 edx, DWORD PTR $L85524
  00268	e8 00 00 00 00	 call	 @_RTC_CheckStackVars@8
  0026d	58		 pop	 eax
  0026e	5a		 pop	 edx
  0026f	5f		 pop	 edi
  00270	5e		 pop	 esi
  00271	5b		 pop	 ebx
  00272	81 c4 e0 01 00
	00		 add	 esp, 480		; 000001e0H
  00278	3b ec		 cmp	 ebp, esp
  0027a	e8 00 00 00 00	 call	 __RTC_CheckEsp
  0027f	8b e5		 mov	 esp, ebp
  00281	5d		 pop	 ebp
  00282	c3		 ret	 0
$L85524:
  00283	03 00 00 00	 DD	 3
  00287	00 00 00 00	 DD	 $L85523
$L85523:
  0028b	e4 ff ff ff	 DD	 -28			; ffffffe4H
  0028f	0c 00 00 00	 DD	 12			; 0000000cH
  00293	00 00 00 00	 DD	 $L85520
  00297	d0 ff ff ff	 DD	 -48			; ffffffd0H
  0029b	0c 00 00 00	 DD	 12			; 0000000cH
  0029f	00 00 00 00	 DD	 $L85521
  002a3	7c ff ff ff	 DD	 -132			; ffffff7cH
  002a7	1c 00 00 00	 DD	 28			; 0000001cH
  002ab	00 00 00 00	 DD	 $L85522
$L85522:
  002af	66		 DB	 102			; 00000066H
  002b0	00		 DB	 0
$L85521:
  002b1	76		 DB	 118			; 00000076H
  002b2	49		 DB	 73			; 00000049H
  002b3	6e		 DB	 110			; 0000006eH
  002b4	74		 DB	 116			; 00000074H
  002b5	65		 DB	 101			; 00000065H
  002b6	72		 DB	 114			; 00000072H
  002b7	73		 DB	 115			; 00000073H
  002b8	65		 DB	 101			; 00000065H
  002b9	63		 DB	 99			; 00000063H
  002ba	74		 DB	 116			; 00000074H
  002bb	00		 DB	 0
$L85520:
  002bc	76		 DB	 118			; 00000076H
  002bd	4d		 DB	 77			; 0000004dH
  002be	69		 DB	 105			; 00000069H
  002bf	64		 DB	 100			; 00000064H
  002c0	64		 DB	 100			; 00000064H
  002c1	6c		 DB	 108			; 0000006cH
  002c2	65		 DB	 101			; 00000065H
  002c3	4f		 DB	 79			; 0000004fH
  002c4	66		 DB	 102			; 00000066H
  002c5	4c		 DB	 76			; 0000004cH
  002c6	69		 DB	 105			; 00000069H
  002c7	6e		 DB	 110			; 0000006eH
  002c8	65		 DB	 101			; 00000065H
  002c9	00		 DB	 0
?SphereLineTest@@YAHABUD3DXVECTOR3@@00MPAHPAU1@2@Z ENDP	; SphereLineTest
_TEXT	ENDS
PUBLIC	__real@46fffe00
PUBLIC	?rnd@@YAMXZ					; rnd
EXTRN	_rand:NEAR
;	COMDAT __real@46fffe00
CONST	SEGMENT
__real@46fffe00 DD 046fffe00r			; 32767
; Function compile flags: /Odt /RTCsu /ZI
CONST	ENDS
;	COMDAT ?rnd@@YAMXZ
_TEXT	SEGMENT
tv68 = -196
?rnd@@YAMXZ PROC NEAR					; rnd, COMDAT

; 330  : {

  00000	55		 push	 ebp
  00001	8b ec		 mov	 ebp, esp
  00003	81 ec c4 00 00
	00		 sub	 esp, 196		; 000000c4H
  00009	53		 push	 ebx
  0000a	56		 push	 esi
  0000b	57		 push	 edi
  0000c	8d bd 3c ff ff
	ff		 lea	 edi, DWORD PTR [ebp-196]
  00012	b9 31 00 00 00	 mov	 ecx, 49			; 00000031H
  00017	b8 cc cc cc cc	 mov	 eax, -858993460		; ccccccccH
  0001c	f3 ab		 rep stosd

; 331  : 	return (float)rand() / (float)RAND_MAX ;

  0001e	e8 00 00 00 00	 call	 _rand
  00023	89 85 3c ff ff
	ff		 mov	 DWORD PTR tv68[ebp], eax
  00029	db 85 3c ff ff
	ff		 fild	 DWORD PTR tv68[ebp]
  0002f	d8 35 00 00 00
	00		 fdiv	 DWORD PTR __real@46fffe00

; 332  : }

  00035	5f		 pop	 edi
  00036	5e		 pop	 esi
  00037	5b		 pop	 ebx
  00038	81 c4 c4 00 00
	00		 add	 esp, 196		; 000000c4H
  0003e	3b ec		 cmp	 ebp, esp
  00040	e8 00 00 00 00	 call	 __RTC_CheckEsp
  00045	8b e5		 mov	 esp, ebp
  00047	5d		 pop	 ebp
  00048	c3		 ret	 0
?rnd@@YAMXZ ENDP					; rnd
_TEXT	ENDS
PUBLIC	??_C@_07NFANNNEC@UNKNOWN?$AA@			; `string'
PUBLIC	??_C@_0O@OOCIJBAM@D3DFMT_R8G8B8?$AA@		; `string'
PUBLIC	??_C@_0BA@CHHHKFAO@D3DFMT_A8R8G8B8?$AA@		; `string'
PUBLIC	??_C@_0BA@CHBEFBCE@D3DFMT_X8R8G8B8?$AA@		; `string'
PUBLIC	??_C@_0O@HMHILKM@D3DFMT_R5G6B5?$AA@		; `string'
PUBLIC	??_C@_0BA@MDABPPEB@D3DFMT_X1R5G5B5?$AA@		; `string'
PUBLIC	??_C@_0BA@MDGCALGL@D3DFMT_A1R5G5B5?$AA@		; `string'
PUBLIC	??_C@_0BA@OBHJIAIO@D3DFMT_A4R4G4B4?$AA@		; `string'
PUBLIC	??_C@_0O@KJABAOEE@D3DFMT_R3G3B2?$AA@		; `string'
PUBLIC	??_C@_09JNGIHEFB@D3DFMT_A8?$AA@			; `string'
PUBLIC	??_C@_0BA@GAFODKEG@D3DFMT_A8R3G3B2?$AA@		; `string'
PUBLIC	??_C@_0BA@OBBKHEKE@D3DFMT_X4R4G4B4?$AA@		; `string'
PUBLIC	??_C@_0M@IPOLNGBD@D3DFMT_A8P8?$AA@		; `string'
PUBLIC	??_C@_09IAIMLNBG@D3DFMT_P8?$AA@			; `string'
PUBLIC	??_C@_09JFLAOHAC@D3DFMT_L8?$AA@			; `string'
PUBLIC	??_C@_0M@JKNHIMAH@D3DFMT_A8L8?$AA@		; `string'
PUBLIC	??_C@_0M@HMLEHMLD@D3DFMT_A4L4?$AA@		; `string'
PUBLIC	??_C@_0M@FLOAFPGK@D3DFMT_V8U8?$AA@		; `string'
PUBLIC	??_C@_0O@OAOOLKLI@D3DFMT_L6V5U5?$AA@		; `string'
PUBLIC	??_C@_0BA@FEBMLNHA@D3DFMT_X8L8V8U8?$AA@		; `string'
PUBLIC	??_C@_0BA@JNGGMDBP@D3DFMT_Q8W8V8U8?$AA@		; `string'
PUBLIC	??_C@_0O@PIKCPJPB@D3DFMT_V16U16?$AA@		; `string'
PUBLIC	??_C@_0BB@CJFDGDEB@D3DFMT_W11V11U10?$AA@	; `string'
PUBLIC	??_C@_0M@OBHKFBGD@D3DFMT_UYVY?$AA@		; `string'
PUBLIC	??_C@_0M@ODAJPGIL@D3DFMT_YUY2?$AA@		; `string'
PUBLIC	??_C@_0M@KKOGLNPF@D3DFMT_DXT1?$AA@		; `string'
PUBLIC	??_C@_0M@IBMLOODG@D3DFMT_DXT2?$AA@		; `string'
PUBLIC	??_C@_0M@JINANPHH@D3DFMT_DXT3?$AA@		; `string'
PUBLIC	??_C@_0M@NHJBEJLA@D3DFMT_DXT4?$AA@		; `string'
PUBLIC	??_C@_0M@MOIKHIPB@D3DFMT_DXT5?$AA@		; `string'
PUBLIC	??_C@_0BE@GKJJNPH@D3DFMT_D16_LOCKABLE?$AA@	; `string'
PUBLIC	??_C@_0L@MKAKECLE@D3DFMT_D32?$AA@		; `string'
PUBLIC	??_C@_0N@FHMLHNII@D3DFMT_D15S1?$AA@		; `string'
PUBLIC	??_C@_0N@HJBFNLHE@D3DFMT_D24S8?$AA@		; `string'
PUBLIC	??_C@_0L@KNOCFDNO@D3DFMT_D16?$AA@		; `string'
PUBLIC	??_C@_0N@HFEADEJF@D3DFMT_D24X8?$AA@		; `string'
PUBLIC	??_C@_0P@LCIECDAM@D3DFMT_D24X4S4?$AA@		; `string'
PUBLIC	??_C@_0BC@LPMKMLOH@D3DFMT_VERTEXDATA?$AA@	; `string'
PUBLIC	??_C@_0P@JJIOOHAH@D3DFMT_INDEX16?$AA@		; `string'
PUBLIC	??_C@_0P@POGGPGGN@D3DFMT_INDEX32?$AA@		; `string'
PUBLIC	??_C@_05NNNMIPMB@OTHER?$AA@			; `string'
PUBLIC	?D3DFormat2Str@@YAXKPAD@Z			; D3DFormat2Str
;	COMDAT ??_C@_07NFANNNEC@UNKNOWN?$AA@
CONST	SEGMENT
??_C@_07NFANNNEC@UNKNOWN?$AA@ DB 'UNKNOWN', 00H		; `string'
CONST	ENDS
;	COMDAT ??_C@_0O@OOCIJBAM@D3DFMT_R8G8B8?$AA@
CONST	SEGMENT
??_C@_0O@OOCIJBAM@D3DFMT_R8G8B8?$AA@ DB 'D3DFMT_R8G8B8', 00H ; `string'
CONST	ENDS
;	COMDAT ??_C@_0BA@CHHHKFAO@D3DFMT_A8R8G8B8?$AA@
CONST	SEGMENT
??_C@_0BA@CHHHKFAO@D3DFMT_A8R8G8B8?$AA@ DB 'D3DFMT_A8R8G8B8', 00H ; `string'
CONST	ENDS
;	COMDAT ??_C@_0BA@CHBEFBCE@D3DFMT_X8R8G8B8?$AA@
CONST	SEGMENT
??_C@_0BA@CHBEFBCE@D3DFMT_X8R8G8B8?$AA@ DB 'D3DFMT_X8R8G8B8', 00H ; `string'
CONST	ENDS
;	COMDAT ??_C@_0O@HMHILKM@D3DFMT_R5G6B5?$AA@
CONST	SEGMENT
??_C@_0O@HMHILKM@D3DFMT_R5G6B5?$AA@ DB 'D3DFMT_R5G6B5', 00H ; `string'
CONST	ENDS
;	COMDAT ??_C@_0BA@MDABPPEB@D3DFMT_X1R5G5B5?$AA@
CONST	SEGMENT
??_C@_0BA@MDABPPEB@D3DFMT_X1R5G5B5?$AA@ DB 'D3DFMT_X1R5G5B5', 00H ; `string'
CONST	ENDS
;	COMDAT ??_C@_0BA@MDGCALGL@D3DFMT_A1R5G5B5?$AA@
CONST	SEGMENT
??_C@_0BA@MDGCALGL@D3DFMT_A1R5G5B5?$AA@ DB 'D3DFMT_A1R5G5B5', 00H ; `string'
CONST	ENDS
;	COMDAT ??_C@_0BA@OBHJIAIO@D3DFMT_A4R4G4B4?$AA@
CONST	SEGMENT
??_C@_0BA@OBHJIAIO@D3DFMT_A4R4G4B4?$AA@ DB 'D3DFMT_A4R4G4B4', 00H ; `string'
CONST	ENDS
;	COMDAT ??_C@_0O@KJABAOEE@D3DFMT_R3G3B2?$AA@
CONST	SEGMENT
??_C@_0O@KJABAOEE@D3DFMT_R3G3B2?$AA@ DB 'D3DFMT_R3G3B2', 00H ; `string'
CONST	ENDS
;	COMDAT ??_C@_09JNGIHEFB@D3DFMT_A8?$AA@
CONST	SEGMENT
??_C@_09JNGIHEFB@D3DFMT_A8?$AA@ DB 'D3DFMT_A8', 00H	; `string'
CONST	ENDS
;	COMDAT ??_C@_0BA@GAFODKEG@D3DFMT_A8R3G3B2?$AA@
CONST	SEGMENT
??_C@_0BA@GAFODKEG@D3DFMT_A8R3G3B2?$AA@ DB 'D3DFMT_A8R3G3B2', 00H ; `string'
CONST	ENDS
;	COMDAT ??_C@_0BA@OBBKHEKE@D3DFMT_X4R4G4B4?$AA@
CONST	SEGMENT
??_C@_0BA@OBBKHEKE@D3DFMT_X4R4G4B4?$AA@ DB 'D3DFMT_X4R4G4B4', 00H ; `string'
CONST	ENDS
;	COMDAT ??_C@_0M@IPOLNGBD@D3DFMT_A8P8?$AA@
CONST	SEGMENT
??_C@_0M@IPOLNGBD@D3DFMT_A8P8?$AA@ DB 'D3DFMT_A8P8', 00H ; `string'
CONST	ENDS
;	COMDAT ??_C@_09IAIMLNBG@D3DFMT_P8?$AA@
CONST	SEGMENT
??_C@_09IAIMLNBG@D3DFMT_P8?$AA@ DB 'D3DFMT_P8', 00H	; `string'
CONST	ENDS
;	COMDAT ??_C@_09JFLAOHAC@D3DFMT_L8?$AA@
CONST	SEGMENT
??_C@_09JFLAOHAC@D3DFMT_L8?$AA@ DB 'D3DFMT_L8', 00H	; `string'
CONST	ENDS
;	COMDAT ??_C@_0M@JKNHIMAH@D3DFMT_A8L8?$AA@
CONST	SEGMENT
??_C@_0M@JKNHIMAH@D3DFMT_A8L8?$AA@ DB 'D3DFMT_A8L8', 00H ; `string'
CONST	ENDS
;	COMDAT ??_C@_0M@HMLEHMLD@D3DFMT_A4L4?$AA@
CONST	SEGMENT
??_C@_0M@HMLEHMLD@D3DFMT_A4L4?$AA@ DB 'D3DFMT_A4L4', 00H ; `string'
CONST	ENDS
;	COMDAT ??_C@_0M@FLOAFPGK@D3DFMT_V8U8?$AA@
CONST	SEGMENT
??_C@_0M@FLOAFPGK@D3DFMT_V8U8?$AA@ DB 'D3DFMT_V8U8', 00H ; `string'
CONST	ENDS
;	COMDAT ??_C@_0O@OAOOLKLI@D3DFMT_L6V5U5?$AA@
CONST	SEGMENT
??_C@_0O@OAOOLKLI@D3DFMT_L6V5U5?$AA@ DB 'D3DFMT_L6V5U5', 00H ; `string'
CONST	ENDS
;	COMDAT ??_C@_0BA@FEBMLNHA@D3DFMT_X8L8V8U8?$AA@
CONST	SEGMENT
??_C@_0BA@FEBMLNHA@D3DFMT_X8L8V8U8?$AA@ DB 'D3DFMT_X8L8V8U8', 00H ; `string'
CONST	ENDS
;	COMDAT ??_C@_0BA@JNGGMDBP@D3DFMT_Q8W8V8U8?$AA@
CONST	SEGMENT
??_C@_0BA@JNGGMDBP@D3DFMT_Q8W8V8U8?$AA@ DB 'D3DFMT_Q8W8V8U8', 00H ; `string'
CONST	ENDS
;	COMDAT ??_C@_0O@PIKCPJPB@D3DFMT_V16U16?$AA@
CONST	SEGMENT
??_C@_0O@PIKCPJPB@D3DFMT_V16U16?$AA@ DB 'D3DFMT_V16U16', 00H ; `string'
CONST	ENDS
;	COMDAT ??_C@_0BB@CJFDGDEB@D3DFMT_W11V11U10?$AA@
CONST	SEGMENT
??_C@_0BB@CJFDGDEB@D3DFMT_W11V11U10?$AA@ DB 'D3DFMT_W11V11U10', 00H ; `string'
CONST	ENDS
;	COMDAT ??_C@_0M@OBHKFBGD@D3DFMT_UYVY?$AA@
CONST	SEGMENT
??_C@_0M@OBHKFBGD@D3DFMT_UYVY?$AA@ DB 'D3DFMT_UYVY', 00H ; `string'
CONST	ENDS
;	COMDAT ??_C@_0M@ODAJPGIL@D3DFMT_YUY2?$AA@
CONST	SEGMENT
??_C@_0M@ODAJPGIL@D3DFMT_YUY2?$AA@ DB 'D3DFMT_YUY2', 00H ; `string'
CONST	ENDS
;	COMDAT ??_C@_0M@KKOGLNPF@D3DFMT_DXT1?$AA@
CONST	SEGMENT
??_C@_0M@KKOGLNPF@D3DFMT_DXT1?$AA@ DB 'D3DFMT_DXT1', 00H ; `string'
CONST	ENDS
;	COMDAT ??_C@_0M@IBMLOODG@D3DFMT_DXT2?$AA@
CONST	SEGMENT
??_C@_0M@IBMLOODG@D3DFMT_DXT2?$AA@ DB 'D3DFMT_DXT2', 00H ; `string'
CONST	ENDS
;	COMDAT ??_C@_0M@JINANPHH@D3DFMT_DXT3?$AA@
CONST	SEGMENT
??_C@_0M@JINANPHH@D3DFMT_DXT3?$AA@ DB 'D3DFMT_DXT3', 00H ; `string'
CONST	ENDS
;	COMDAT ??_C@_0M@NHJBEJLA@D3DFMT_DXT4?$AA@
CONST	SEGMENT
??_C@_0M@NHJBEJLA@D3DFMT_DXT4?$AA@ DB 'D3DFMT_DXT4', 00H ; `string'
CONST	ENDS
;	COMDAT ??_C@_0M@MOIKHIPB@D3DFMT_DXT5?$AA@
CONST	SEGMENT
??_C@_0M@MOIKHIPB@D3DFMT_DXT5?$AA@ DB 'D3DFMT_DXT5', 00H ; `string'
CONST	ENDS
;	COMDAT ??_C@_0BE@GKJJNPH@D3DFMT_D16_LOCKABLE?$AA@
CONST	SEGMENT
??_C@_0BE@GKJJNPH@D3DFMT_D16_LOCKABLE?$AA@ DB 'D3DFMT_D16_LOCKABLE', 00H ; `string'
CONST	ENDS
;	COMDAT ??_C@_0L@MKAKECLE@D3DFMT_D32?$AA@
CONST	SEGMENT
??_C@_0L@MKAKECLE@D3DFMT_D32?$AA@ DB 'D3DFMT_D32', 00H	; `string'
CONST	ENDS
;	COMDAT ??_C@_0N@FHMLHNII@D3DFMT_D15S1?$AA@
CONST	SEGMENT
??_C@_0N@FHMLHNII@D3DFMT_D15S1?$AA@ DB 'D3DFMT_D15S1', 00H ; `string'
CONST	ENDS
;	COMDAT ??_C@_0N@HJBFNLHE@D3DFMT_D24S8?$AA@
CONST	SEGMENT
??_C@_0N@HJBFNLHE@D3DFMT_D24S8?$AA@ DB 'D3DFMT_D24S8', 00H ; `string'
CONST	ENDS
;	COMDAT ??_C@_0L@KNOCFDNO@D3DFMT_D16?$AA@
CONST	SEGMENT
??_C@_0L@KNOCFDNO@D3DFMT_D16?$AA@ DB 'D3DFMT_D16', 00H	; `string'
CONST	ENDS
;	COMDAT ??_C@_0N@HFEADEJF@D3DFMT_D24X8?$AA@
CONST	SEGMENT
??_C@_0N@HFEADEJF@D3DFMT_D24X8?$AA@ DB 'D3DFMT_D24X8', 00H ; `string'
CONST	ENDS
;	COMDAT ??_C@_0P@LCIECDAM@D3DFMT_D24X4S4?$AA@
CONST	SEGMENT
??_C@_0P@LCIECDAM@D3DFMT_D24X4S4?$AA@ DB 'D3DFMT_D24X4S4', 00H ; `string'
CONST	ENDS
;	COMDAT ??_C@_0BC@LPMKMLOH@D3DFMT_VERTEXDATA?$AA@
CONST	SEGMENT
??_C@_0BC@LPMKMLOH@D3DFMT_VERTEXDATA?$AA@ DB 'D3DFMT_VERTEXDATA', 00H ; `string'
CONST	ENDS
;	COMDAT ??_C@_0P@JJIOOHAH@D3DFMT_INDEX16?$AA@
CONST	SEGMENT
??_C@_0P@JJIOOHAH@D3DFMT_INDEX16?$AA@ DB 'D3DFMT_INDEX16', 00H ; `string'
CONST	ENDS
;	COMDAT ??_C@_0P@POGGPGGN@D3DFMT_INDEX32?$AA@
CONST	SEGMENT
??_C@_0P@POGGPGGN@D3DFMT_INDEX32?$AA@ DB 'D3DFMT_INDEX32', 00H ; `string'
CONST	ENDS
;	COMDAT ??_C@_05NNNMIPMB@OTHER?$AA@
CONST	SEGMENT
??_C@_05NNNMIPMB@OTHER?$AA@ DB 'OTHER', 00H		; `string'
; Function compile flags: /Odt /RTCsu /ZI
CONST	ENDS
;	COMDAT ?D3DFormat2Str@@YAXKPAD@Z
_TEXT	SEGMENT
tv64 = -196
_format$ = 8
_sz$ = 12
?D3DFormat2Str@@YAXKPAD@Z PROC NEAR			; D3DFormat2Str, COMDAT

; 336  : {

  00000	55		 push	 ebp
  00001	8b ec		 mov	 ebp, esp
  00003	81 ec c4 00 00
	00		 sub	 esp, 196		; 000000c4H
  00009	53		 push	 ebx
  0000a	56		 push	 esi
  0000b	57		 push	 edi
  0000c	8d bd 3c ff ff
	ff		 lea	 edi, DWORD PTR [ebp-196]
  00012	b9 31 00 00 00	 mov	 ecx, 49			; 00000031H
  00017	b8 cc cc cc cc	 mov	 eax, -858993460		; ccccccccH
  0001c	f3 ab		 rep stosd

; 337  : 	switch(format)
; 338  : 
; 339  : 	{

  0001e	8b 45 08	 mov	 eax, DWORD PTR _format$[ebp]
  00021	89 85 3c ff ff
	ff		 mov	 DWORD PTR tv64[ebp], eax
  00027	83 bd 3c ff ff
	ff 3f		 cmp	 DWORD PTR tv64[ebp], 63	; 0000003fH
  0002e	77 2e		 ja	 SHORT $L85531
  00030	83 bd 3c ff ff
	ff 3f		 cmp	 DWORD PTR tv64[ebp], 63	; 0000003fH
  00037	0f 84 e1 02 00
	00		 je	 $L85090
  0003d	83 bd 3c ff ff
	ff 3e		 cmp	 DWORD PTR tv64[ebp], 62	; 0000003eH
  00044	0f 87 7a 04 00
	00		 ja	 $L85130
  0004a	8b 8d 3c ff ff
	ff		 mov	 ecx, DWORD PTR tv64[ebp]
  00050	0f b6 91 00 00
	00 00		 movzx	 edx, BYTE PTR $L85536[ecx]
  00057	ff 24 95 00 00
	00 00		 jmp	 DWORD PTR $L85538[edx*4]
$L85531:
  0005e	83 bd 3c ff ff
	ff 64		 cmp	 DWORD PTR tv64[ebp], 100 ; 00000064H
  00065	77 3d		 ja	 SHORT $L85532
  00067	83 bd 3c ff ff
	ff 64		 cmp	 DWORD PTR tv64[ebp], 100 ; 00000064H
  0006e	0f 84 17 04 00
	00		 je	 $L85124
  00074	8b 85 3c ff ff
	ff		 mov	 eax, DWORD PTR tv64[ebp]
  0007a	83 e8 40	 sub	 eax, 64			; 00000040H
  0007d	89 85 3c ff ff
	ff		 mov	 DWORD PTR tv64[ebp], eax
  00083	83 bd 3c ff ff
	ff 10		 cmp	 DWORD PTR tv64[ebp], 16	; 00000010H
  0008a	0f 87 34 04 00
	00		 ja	 $L85130
  00090	8b 8d 3c ff ff
	ff		 mov	 ecx, DWORD PTR tv64[ebp]
  00096	0f b6 91 00 00
	00 00		 movzx	 edx, BYTE PTR $L85537[ecx]
  0009d	ff 24 95 00 00
	00 00		 jmp	 DWORD PTR $L85539[edx*4]
$L85532:
  000a4	81 bd 3c ff ff
	ff 59 55 59 32	 cmp	 DWORD PTR tv64[ebp], 844715353 ; 32595559H
  000ae	77 60		 ja	 SHORT $L85533
  000b0	81 bd 3c ff ff
	ff 59 55 59 32	 cmp	 DWORD PTR tv64[ebp], 844715353 ; 32595559H
  000ba	0f 84 b6 02 00
	00		 je	 $L85098
  000c0	81 bd 3c ff ff
	ff 44 58 54 31	 cmp	 DWORD PTR tv64[ebp], 827611204 ; 31545844H
  000ca	77 2f		 ja	 SHORT $L85534
  000cc	81 bd 3c ff ff
	ff 44 58 54 31	 cmp	 DWORD PTR tv64[ebp], 827611204 ; 31545844H
  000d6	0f 84 b0 02 00
	00		 je	 $L85100
  000dc	83 bd 3c ff ff
	ff 65		 cmp	 DWORD PTR tv64[ebp], 101 ; 00000065H
  000e3	0f 84 b5 03 00
	00		 je	 $L85126
  000e9	83 bd 3c ff ff
	ff 66		 cmp	 DWORD PTR tv64[ebp], 102 ; 00000066H
  000f0	0f 84 bb 03 00
	00		 je	 $L85128
  000f6	e9 c9 03 00 00	 jmp	 $L85130
$L85534:
  000fb	81 bd 3c ff ff
	ff 44 58 54 32	 cmp	 DWORD PTR tv64[ebp], 844388420 ; 32545844H
  00105	0f 84 97 02 00
	00		 je	 $L85102
  0010b	e9 b4 03 00 00	 jmp	 $L85130
$L85533:
  00110	81 bd 3c ff ff
	ff 44 58 54 35	 cmp	 DWORD PTR tv64[ebp], 894720068 ; 35545844H
  0011a	77 35		 ja	 SHORT $L85535
  0011c	81 bd 3c ff ff
	ff 44 58 54 35	 cmp	 DWORD PTR tv64[ebp], 894720068 ; 35545844H
  00126	0f 84 b8 02 00
	00		 je	 $L85108
  0012c	81 bd 3c ff ff
	ff 44 58 54 33	 cmp	 DWORD PTR tv64[ebp], 861165636 ; 33545844H
  00136	0f 84 7c 02 00
	00		 je	 $L85104
  0013c	81 bd 3c ff ff
	ff 44 58 54 34	 cmp	 DWORD PTR tv64[ebp], 877942852 ; 34545844H
  00146	0f 84 82 02 00
	00		 je	 $L85106
  0014c	e9 73 03 00 00	 jmp	 $L85130
$L85535:
  00151	81 bd 3c ff ff
	ff 55 59 56 59	 cmp	 DWORD PTR tv64[ebp], 1498831189 ; 59565955H
  0015b	0f 84 ff 01 00
	00		 je	 $L85096
  00161	e9 5e 03 00 00	 jmp	 $L85130
$L85050:

; 340  : 		case D3DFMT_UNKNOWN:	strcpy(sz, "UNKNOWN") ;			break ;

  00166	68 00 00 00 00	 push	 OFFSET FLAT:??_C@_07NFANNNEC@UNKNOWN?$AA@
  0016b	8b 45 0c	 mov	 eax, DWORD PTR _sz$[ebp]
  0016e	50		 push	 eax
  0016f	e8 00 00 00 00	 call	 _strcpy
  00174	83 c4 08	 add	 esp, 8
  00177	e9 59 03 00 00	 jmp	 $L85045
$L85052:

; 341  : 		case D3DFMT_R8G8B8:		strcpy(sz, "D3DFMT_R8G8B8") ;	break ;

  0017c	68 00 00 00 00	 push	 OFFSET FLAT:??_C@_0O@OOCIJBAM@D3DFMT_R8G8B8?$AA@
  00181	8b 45 0c	 mov	 eax, DWORD PTR _sz$[ebp]
  00184	50		 push	 eax
  00185	e8 00 00 00 00	 call	 _strcpy
  0018a	83 c4 08	 add	 esp, 8
  0018d	e9 43 03 00 00	 jmp	 $L85045
$L85054:

; 342  : 		case D3DFMT_A8R8G8B8:	strcpy(sz, "D3DFMT_A8R8G8B8") ; break ;

  00192	68 00 00 00 00	 push	 OFFSET FLAT:??_C@_0BA@CHHHKFAO@D3DFMT_A8R8G8B8?$AA@
  00197	8b 45 0c	 mov	 eax, DWORD PTR _sz$[ebp]
  0019a	50		 push	 eax
  0019b	e8 00 00 00 00	 call	 _strcpy
  001a0	83 c4 08	 add	 esp, 8
  001a3	e9 2d 03 00 00	 jmp	 $L85045
$L85056:

; 343  : 		case D3DFMT_X8R8G8B8:	strcpy(sz, "D3DFMT_X8R8G8B8") ; break ;

  001a8	68 00 00 00 00	 push	 OFFSET FLAT:??_C@_0BA@CHBEFBCE@D3DFMT_X8R8G8B8?$AA@
  001ad	8b 45 0c	 mov	 eax, DWORD PTR _sz$[ebp]
  001b0	50		 push	 eax
  001b1	e8 00 00 00 00	 call	 _strcpy
  001b6	83 c4 08	 add	 esp, 8
  001b9	e9 17 03 00 00	 jmp	 $L85045
$L85058:

; 344  : 		case D3DFMT_R5G6B5:		strcpy(sz, "D3DFMT_R5G6B5") ;	break ;

  001be	68 00 00 00 00	 push	 OFFSET FLAT:??_C@_0O@HMHILKM@D3DFMT_R5G6B5?$AA@
  001c3	8b 45 0c	 mov	 eax, DWORD PTR _sz$[ebp]
  001c6	50		 push	 eax
  001c7	e8 00 00 00 00	 call	 _strcpy
  001cc	83 c4 08	 add	 esp, 8
  001cf	e9 01 03 00 00	 jmp	 $L85045
$L85060:

; 345  : 		case D3DFMT_X1R5G5B5:	strcpy(sz, "D3DFMT_X1R5G5B5") ; break ;

  001d4	68 00 00 00 00	 push	 OFFSET FLAT:??_C@_0BA@MDABPPEB@D3DFMT_X1R5G5B5?$AA@
  001d9	8b 45 0c	 mov	 eax, DWORD PTR _sz$[ebp]
  001dc	50		 push	 eax
  001dd	e8 00 00 00 00	 call	 _strcpy
  001e2	83 c4 08	 add	 esp, 8
  001e5	e9 eb 02 00 00	 jmp	 $L85045
$L85062:

; 346  : 		case D3DFMT_A1R5G5B5:	strcpy(sz, "D3DFMT_A1R5G5B5") ; break ;

  001ea	68 00 00 00 00	 push	 OFFSET FLAT:??_C@_0BA@MDGCALGL@D3DFMT_A1R5G5B5?$AA@
  001ef	8b 45 0c	 mov	 eax, DWORD PTR _sz$[ebp]
  001f2	50		 push	 eax
  001f3	e8 00 00 00 00	 call	 _strcpy
  001f8	83 c4 08	 add	 esp, 8
  001fb	e9 d5 02 00 00	 jmp	 $L85045
$L85064:

; 347  : 		case D3DFMT_A4R4G4B4:	strcpy(sz, "D3DFMT_A4R4G4B4") ; break ;

  00200	68 00 00 00 00	 push	 OFFSET FLAT:??_C@_0BA@OBHJIAIO@D3DFMT_A4R4G4B4?$AA@
  00205	8b 45 0c	 mov	 eax, DWORD PTR _sz$[ebp]
  00208	50		 push	 eax
  00209	e8 00 00 00 00	 call	 _strcpy
  0020e	83 c4 08	 add	 esp, 8
  00211	e9 bf 02 00 00	 jmp	 $L85045
$L85066:

; 348  : 		case D3DFMT_R3G3B2:		strcpy(sz, "D3DFMT_R3G3B2") ;	break ;

  00216	68 00 00 00 00	 push	 OFFSET FLAT:??_C@_0O@KJABAOEE@D3DFMT_R3G3B2?$AA@
  0021b	8b 45 0c	 mov	 eax, DWORD PTR _sz$[ebp]
  0021e	50		 push	 eax
  0021f	e8 00 00 00 00	 call	 _strcpy
  00224	83 c4 08	 add	 esp, 8
  00227	e9 a9 02 00 00	 jmp	 $L85045
$L85068:

; 349  : 		case D3DFMT_A8:			strcpy(sz, "D3DFMT_A8") ;		break ;

  0022c	68 00 00 00 00	 push	 OFFSET FLAT:??_C@_09JNGIHEFB@D3DFMT_A8?$AA@
  00231	8b 45 0c	 mov	 eax, DWORD PTR _sz$[ebp]
  00234	50		 push	 eax
  00235	e8 00 00 00 00	 call	 _strcpy
  0023a	83 c4 08	 add	 esp, 8
  0023d	e9 93 02 00 00	 jmp	 $L85045
$L85070:

; 350  : 		case D3DFMT_A8R3G3B2:	strcpy(sz, "D3DFMT_A8R3G3B2") ; break ;

  00242	68 00 00 00 00	 push	 OFFSET FLAT:??_C@_0BA@GAFODKEG@D3DFMT_A8R3G3B2?$AA@
  00247	8b 45 0c	 mov	 eax, DWORD PTR _sz$[ebp]
  0024a	50		 push	 eax
  0024b	e8 00 00 00 00	 call	 _strcpy
  00250	83 c4 08	 add	 esp, 8
  00253	e9 7d 02 00 00	 jmp	 $L85045
$L85072:

; 351  : 		case D3DFMT_X4R4G4B4:	strcpy(sz, "D3DFMT_X4R4G4B4") ; break ;

  00258	68 00 00 00 00	 push	 OFFSET FLAT:??_C@_0BA@OBBKHEKE@D3DFMT_X4R4G4B4?$AA@
  0025d	8b 45 0c	 mov	 eax, DWORD PTR _sz$[ebp]
  00260	50		 push	 eax
  00261	e8 00 00 00 00	 call	 _strcpy
  00266	83 c4 08	 add	 esp, 8
  00269	e9 67 02 00 00	 jmp	 $L85045
$L85074:

; 352  : 
; 353  : 		case D3DFMT_A8P8:		strcpy(sz, "D3DFMT_A8P8") ;		break ;

  0026e	68 00 00 00 00	 push	 OFFSET FLAT:??_C@_0M@IPOLNGBD@D3DFMT_A8P8?$AA@
  00273	8b 45 0c	 mov	 eax, DWORD PTR _sz$[ebp]
  00276	50		 push	 eax
  00277	e8 00 00 00 00	 call	 _strcpy
  0027c	83 c4 08	 add	 esp, 8
  0027f	e9 51 02 00 00	 jmp	 $L85045
$L85076:

; 354  : 		case D3DFMT_P8:         strcpy(sz, "D3DFMT_P8") ;		break ;

  00284	68 00 00 00 00	 push	 OFFSET FLAT:??_C@_09IAIMLNBG@D3DFMT_P8?$AA@
  00289	8b 45 0c	 mov	 eax, DWORD PTR _sz$[ebp]
  0028c	50		 push	 eax
  0028d	e8 00 00 00 00	 call	 _strcpy
  00292	83 c4 08	 add	 esp, 8
  00295	e9 3b 02 00 00	 jmp	 $L85045
$L85078:

; 355  : 
; 356  : 		case D3DFMT_L8:         strcpy(sz, "D3DFMT_L8") ;		break ;

  0029a	68 00 00 00 00	 push	 OFFSET FLAT:??_C@_09JFLAOHAC@D3DFMT_L8?$AA@
  0029f	8b 45 0c	 mov	 eax, DWORD PTR _sz$[ebp]
  002a2	50		 push	 eax
  002a3	e8 00 00 00 00	 call	 _strcpy
  002a8	83 c4 08	 add	 esp, 8
  002ab	e9 25 02 00 00	 jmp	 $L85045
$L85080:

; 357  : 		case D3DFMT_A8L8:       strcpy(sz, "D3DFMT_A8L8") ;		break ;

  002b0	68 00 00 00 00	 push	 OFFSET FLAT:??_C@_0M@JKNHIMAH@D3DFMT_A8L8?$AA@
  002b5	8b 45 0c	 mov	 eax, DWORD PTR _sz$[ebp]
  002b8	50		 push	 eax
  002b9	e8 00 00 00 00	 call	 _strcpy
  002be	83 c4 08	 add	 esp, 8
  002c1	e9 0f 02 00 00	 jmp	 $L85045
$L85082:

; 358  : 		case D3DFMT_A4L4:       strcpy(sz, "D3DFMT_A4L4") ;		break ;

  002c6	68 00 00 00 00	 push	 OFFSET FLAT:??_C@_0M@HMLEHMLD@D3DFMT_A4L4?$AA@
  002cb	8b 45 0c	 mov	 eax, DWORD PTR _sz$[ebp]
  002ce	50		 push	 eax
  002cf	e8 00 00 00 00	 call	 _strcpy
  002d4	83 c4 08	 add	 esp, 8
  002d7	e9 f9 01 00 00	 jmp	 $L85045
$L85084:

; 359  : 
; 360  :     	case D3DFMT_V8U8:       strcpy(sz, "D3DFMT_V8U8") ;		break ;

  002dc	68 00 00 00 00	 push	 OFFSET FLAT:??_C@_0M@FLOAFPGK@D3DFMT_V8U8?$AA@
  002e1	8b 45 0c	 mov	 eax, DWORD PTR _sz$[ebp]
  002e4	50		 push	 eax
  002e5	e8 00 00 00 00	 call	 _strcpy
  002ea	83 c4 08	 add	 esp, 8
  002ed	e9 e3 01 00 00	 jmp	 $L85045
$L85086:

; 361  :     	case D3DFMT_L6V5U5:     strcpy(sz, "D3DFMT_L6V5U5") ;	break ;

  002f2	68 00 00 00 00	 push	 OFFSET FLAT:??_C@_0O@OAOOLKLI@D3DFMT_L6V5U5?$AA@
  002f7	8b 45 0c	 mov	 eax, DWORD PTR _sz$[ebp]
  002fa	50		 push	 eax
  002fb	e8 00 00 00 00	 call	 _strcpy
  00300	83 c4 08	 add	 esp, 8
  00303	e9 cd 01 00 00	 jmp	 $L85045
$L85088:

; 362  :     	case D3DFMT_X8L8V8U8:   strcpy(sz, "D3DFMT_X8L8V8U8") ; break ;

  00308	68 00 00 00 00	 push	 OFFSET FLAT:??_C@_0BA@FEBMLNHA@D3DFMT_X8L8V8U8?$AA@
  0030d	8b 45 0c	 mov	 eax, DWORD PTR _sz$[ebp]
  00310	50		 push	 eax
  00311	e8 00 00 00 00	 call	 _strcpy
  00316	83 c4 08	 add	 esp, 8
  00319	e9 b7 01 00 00	 jmp	 $L85045
$L85090:

; 363  :     	case D3DFMT_Q8W8V8U8:   strcpy(sz, "D3DFMT_Q8W8V8U8") ; break ;

  0031e	68 00 00 00 00	 push	 OFFSET FLAT:??_C@_0BA@JNGGMDBP@D3DFMT_Q8W8V8U8?$AA@
  00323	8b 45 0c	 mov	 eax, DWORD PTR _sz$[ebp]
  00326	50		 push	 eax
  00327	e8 00 00 00 00	 call	 _strcpy
  0032c	83 c4 08	 add	 esp, 8
  0032f	e9 a1 01 00 00	 jmp	 $L85045
$L85092:

; 364  :     	case D3DFMT_V16U16:     strcpy(sz, "D3DFMT_V16U16") ;	break ;

  00334	68 00 00 00 00	 push	 OFFSET FLAT:??_C@_0O@PIKCPJPB@D3DFMT_V16U16?$AA@
  00339	8b 45 0c	 mov	 eax, DWORD PTR _sz$[ebp]
  0033c	50		 push	 eax
  0033d	e8 00 00 00 00	 call	 _strcpy
  00342	83 c4 08	 add	 esp, 8
  00345	e9 8b 01 00 00	 jmp	 $L85045
$L85094:

; 365  :     	case D3DFMT_W11V11U10:  strcpy(sz, "D3DFMT_W11V11U10") ;break ;

  0034a	68 00 00 00 00	 push	 OFFSET FLAT:??_C@_0BB@CJFDGDEB@D3DFMT_W11V11U10?$AA@
  0034f	8b 45 0c	 mov	 eax, DWORD PTR _sz$[ebp]
  00352	50		 push	 eax
  00353	e8 00 00 00 00	 call	 _strcpy
  00358	83 c4 08	 add	 esp, 8
  0035b	e9 75 01 00 00	 jmp	 $L85045
$L85096:

; 366  : 
; 367  :     	case D3DFMT_UYVY:       strcpy(sz, "D3DFMT_UYVY") ;		break ;

  00360	68 00 00 00 00	 push	 OFFSET FLAT:??_C@_0M@OBHKFBGD@D3DFMT_UYVY?$AA@
  00365	8b 45 0c	 mov	 eax, DWORD PTR _sz$[ebp]
  00368	50		 push	 eax
  00369	e8 00 00 00 00	 call	 _strcpy
  0036e	83 c4 08	 add	 esp, 8
  00371	e9 5f 01 00 00	 jmp	 $L85045
$L85098:

; 368  :     	case D3DFMT_YUY2:       strcpy(sz, "D3DFMT_YUY2") ;		break ;

  00376	68 00 00 00 00	 push	 OFFSET FLAT:??_C@_0M@ODAJPGIL@D3DFMT_YUY2?$AA@
  0037b	8b 45 0c	 mov	 eax, DWORD PTR _sz$[ebp]
  0037e	50		 push	 eax
  0037f	e8 00 00 00 00	 call	 _strcpy
  00384	83 c4 08	 add	 esp, 8
  00387	e9 49 01 00 00	 jmp	 $L85045
$L85100:

; 369  :     	case D3DFMT_DXT1:       strcpy(sz, "D3DFMT_DXT1") ;		break ;

  0038c	68 00 00 00 00	 push	 OFFSET FLAT:??_C@_0M@KKOGLNPF@D3DFMT_DXT1?$AA@
  00391	8b 45 0c	 mov	 eax, DWORD PTR _sz$[ebp]
  00394	50		 push	 eax
  00395	e8 00 00 00 00	 call	 _strcpy
  0039a	83 c4 08	 add	 esp, 8
  0039d	e9 33 01 00 00	 jmp	 $L85045
$L85102:

; 370  :     	case D3DFMT_DXT2:       strcpy(sz, "D3DFMT_DXT2") ;		break ;

  003a2	68 00 00 00 00	 push	 OFFSET FLAT:??_C@_0M@IBMLOODG@D3DFMT_DXT2?$AA@
  003a7	8b 45 0c	 mov	 eax, DWORD PTR _sz$[ebp]
  003aa	50		 push	 eax
  003ab	e8 00 00 00 00	 call	 _strcpy
  003b0	83 c4 08	 add	 esp, 8
  003b3	e9 1d 01 00 00	 jmp	 $L85045
$L85104:

; 371  :     	case D3DFMT_DXT3:       strcpy(sz, "D3DFMT_DXT3") ;		break ;

  003b8	68 00 00 00 00	 push	 OFFSET FLAT:??_C@_0M@JINANPHH@D3DFMT_DXT3?$AA@
  003bd	8b 45 0c	 mov	 eax, DWORD PTR _sz$[ebp]
  003c0	50		 push	 eax
  003c1	e8 00 00 00 00	 call	 _strcpy
  003c6	83 c4 08	 add	 esp, 8
  003c9	e9 07 01 00 00	 jmp	 $L85045
$L85106:

; 372  :     	case D3DFMT_DXT4:       strcpy(sz, "D3DFMT_DXT4") ;		break ;

  003ce	68 00 00 00 00	 push	 OFFSET FLAT:??_C@_0M@NHJBEJLA@D3DFMT_DXT4?$AA@
  003d3	8b 45 0c	 mov	 eax, DWORD PTR _sz$[ebp]
  003d6	50		 push	 eax
  003d7	e8 00 00 00 00	 call	 _strcpy
  003dc	83 c4 08	 add	 esp, 8
  003df	e9 f1 00 00 00	 jmp	 $L85045
$L85108:

; 373  :     	case D3DFMT_DXT5:       strcpy(sz, "D3DFMT_DXT5") ;		break ;

  003e4	68 00 00 00 00	 push	 OFFSET FLAT:??_C@_0M@MOIKHIPB@D3DFMT_DXT5?$AA@
  003e9	8b 45 0c	 mov	 eax, DWORD PTR _sz$[ebp]
  003ec	50		 push	 eax
  003ed	e8 00 00 00 00	 call	 _strcpy
  003f2	83 c4 08	 add	 esp, 8
  003f5	e9 db 00 00 00	 jmp	 $L85045
$L85110:

; 374  : 
; 375  :     	case D3DFMT_D16_LOCKABLE:strcpy(sz, "D3DFMT_D16_LOCKABLE") ; break ;

  003fa	68 00 00 00 00	 push	 OFFSET FLAT:??_C@_0BE@GKJJNPH@D3DFMT_D16_LOCKABLE?$AA@
  003ff	8b 45 0c	 mov	 eax, DWORD PTR _sz$[ebp]
  00402	50		 push	 eax
  00403	e8 00 00 00 00	 call	 _strcpy
  00408	83 c4 08	 add	 esp, 8
  0040b	e9 c5 00 00 00	 jmp	 $L85045
$L85112:

; 376  :     	case D3DFMT_D32:        strcpy(sz, "D3DFMT_D32") ;		break ;

  00410	68 00 00 00 00	 push	 OFFSET FLAT:??_C@_0L@MKAKECLE@D3DFMT_D32?$AA@
  00415	8b 45 0c	 mov	 eax, DWORD PTR _sz$[ebp]
  00418	50		 push	 eax
  00419	e8 00 00 00 00	 call	 _strcpy
  0041e	83 c4 08	 add	 esp, 8
  00421	e9 af 00 00 00	 jmp	 $L85045
$L85114:

; 377  :     	case D3DFMT_D15S1:      strcpy(sz, "D3DFMT_D15S1") ;	break ;

  00426	68 00 00 00 00	 push	 OFFSET FLAT:??_C@_0N@FHMLHNII@D3DFMT_D15S1?$AA@
  0042b	8b 45 0c	 mov	 eax, DWORD PTR _sz$[ebp]
  0042e	50		 push	 eax
  0042f	e8 00 00 00 00	 call	 _strcpy
  00434	83 c4 08	 add	 esp, 8
  00437	e9 99 00 00 00	 jmp	 $L85045
$L85116:

; 378  :     	case D3DFMT_D24S8:      strcpy(sz, "D3DFMT_D24S8") ;	break ;

  0043c	68 00 00 00 00	 push	 OFFSET FLAT:??_C@_0N@HJBFNLHE@D3DFMT_D24S8?$AA@
  00441	8b 45 0c	 mov	 eax, DWORD PTR _sz$[ebp]
  00444	50		 push	 eax
  00445	e8 00 00 00 00	 call	 _strcpy
  0044a	83 c4 08	 add	 esp, 8
  0044d	e9 83 00 00 00	 jmp	 $L85045
$L85118:

; 379  :     	case D3DFMT_D16:        strcpy(sz, "D3DFMT_D16") ;		break ;

  00452	68 00 00 00 00	 push	 OFFSET FLAT:??_C@_0L@KNOCFDNO@D3DFMT_D16?$AA@
  00457	8b 45 0c	 mov	 eax, DWORD PTR _sz$[ebp]
  0045a	50		 push	 eax
  0045b	e8 00 00 00 00	 call	 _strcpy
  00460	83 c4 08	 add	 esp, 8
  00463	eb 70		 jmp	 SHORT $L85045
$L85120:

; 380  :     	case D3DFMT_D24X8:      strcpy(sz, "D3DFMT_D24X8") ;	break ;

  00465	68 00 00 00 00	 push	 OFFSET FLAT:??_C@_0N@HFEADEJF@D3DFMT_D24X8?$AA@
  0046a	8b 45 0c	 mov	 eax, DWORD PTR _sz$[ebp]
  0046d	50		 push	 eax
  0046e	e8 00 00 00 00	 call	 _strcpy
  00473	83 c4 08	 add	 esp, 8
  00476	eb 5d		 jmp	 SHORT $L85045
$L85122:

; 381  :     	case D3DFMT_D24X4S4:    strcpy(sz, "D3DFMT_D24X4S4") ;	break ;

  00478	68 00 00 00 00	 push	 OFFSET FLAT:??_C@_0P@LCIECDAM@D3DFMT_D24X4S4?$AA@
  0047d	8b 45 0c	 mov	 eax, DWORD PTR _sz$[ebp]
  00480	50		 push	 eax
  00481	e8 00 00 00 00	 call	 _strcpy
  00486	83 c4 08	 add	 esp, 8
  00489	eb 4a		 jmp	 SHORT $L85045
$L85124:

; 382  : 
; 383  : 
; 384  : 		case D3DFMT_VERTEXDATA: strcpy(sz, "D3DFMT_VERTEXDATA") ; break ;

  0048b	68 00 00 00 00	 push	 OFFSET FLAT:??_C@_0BC@LPMKMLOH@D3DFMT_VERTEXDATA?$AA@
  00490	8b 45 0c	 mov	 eax, DWORD PTR _sz$[ebp]
  00493	50		 push	 eax
  00494	e8 00 00 00 00	 call	 _strcpy
  00499	83 c4 08	 add	 esp, 8
  0049c	eb 37		 jmp	 SHORT $L85045
$L85126:

; 385  : 		case D3DFMT_INDEX16:    strcpy(sz, "D3DFMT_INDEX16") ;	break ;

  0049e	68 00 00 00 00	 push	 OFFSET FLAT:??_C@_0P@JJIOOHAH@D3DFMT_INDEX16?$AA@
  004a3	8b 45 0c	 mov	 eax, DWORD PTR _sz$[ebp]
  004a6	50		 push	 eax
  004a7	e8 00 00 00 00	 call	 _strcpy
  004ac	83 c4 08	 add	 esp, 8
  004af	eb 24		 jmp	 SHORT $L85045
$L85128:

; 386  : 		case D3DFMT_INDEX32:    strcpy(sz, "D3DFMT_INDEX32") ;	break ;

  004b1	68 00 00 00 00	 push	 OFFSET FLAT:??_C@_0P@POGGPGGN@D3DFMT_INDEX32?$AA@
  004b6	8b 45 0c	 mov	 eax, DWORD PTR _sz$[ebp]
  004b9	50		 push	 eax
  004ba	e8 00 00 00 00	 call	 _strcpy
  004bf	83 c4 08	 add	 esp, 8
  004c2	eb 11		 jmp	 SHORT $L85045
$L85130:

; 387  : 
; 388  : 		default:				strcpy(sz, "OTHER") ;

  004c4	68 00 00 00 00	 push	 OFFSET FLAT:??_C@_05NNNMIPMB@OTHER?$AA@
  004c9	8b 45 0c	 mov	 eax, DWORD PTR _sz$[ebp]
  004cc	50		 push	 eax
  004cd	e8 00 00 00 00	 call	 _strcpy
  004d2	83 c4 08	 add	 esp, 8
$L85045:

; 389  : 	}
; 390  : }

  004d5	5f		 pop	 edi
  004d6	5e		 pop	 esi
  004d7	5b		 pop	 ebx
  004d8	81 c4 c4 00 00
	00		 add	 esp, 196		; 000000c4H
  004de	3b ec		 cmp	 ebp, esp
  004e0	e8 00 00 00 00	 call	 __RTC_CheckEsp
  004e5	8b e5		 mov	 esp, ebp
  004e7	5d		 pop	 ebp
  004e8	c3		 ret	 0
$L85538:
  004e9	00 00 00 00	 DD	 $L85050
  004ed	00 00 00 00	 DD	 $L85052
  004f1	00 00 00 00	 DD	 $L85054
  004f5	00 00 00 00	 DD	 $L85056
  004f9	00 00 00 00	 DD	 $L85058
  004fd	00 00 00 00	 DD	 $L85060
  00501	00 00 00 00	 DD	 $L85062
  00505	00 00 00 00	 DD	 $L85064
  00509	00 00 00 00	 DD	 $L85066
  0050d	00 00 00 00	 DD	 $L85068
  00511	00 00 00 00	 DD	 $L85070
  00515	00 00 00 00	 DD	 $L85072
  00519	00 00 00 00	 DD	 $L85074
  0051d	00 00 00 00	 DD	 $L85076
  00521	00 00 00 00	 DD	 $L85078
  00525	00 00 00 00	 DD	 $L85080
  00529	00 00 00 00	 DD	 $L85082
  0052d	00 00 00 00	 DD	 $L85084
  00531	00 00 00 00	 DD	 $L85086
  00535	00 00 00 00	 DD	 $L85088
  00539	00 00 00 00	 DD	 $L85130
$L85536:
  0053d	00		 DB	 0
  0053e	14		 DB	 20			; 00000014H
  0053f	14		 DB	 20			; 00000014H
  00540	14		 DB	 20			; 00000014H
  00541	14		 DB	 20			; 00000014H
  00542	14		 DB	 20			; 00000014H
  00543	14		 DB	 20			; 00000014H
  00544	14		 DB	 20			; 00000014H
  00545	14		 DB	 20			; 00000014H
  00546	14		 DB	 20			; 00000014H
  00547	14		 DB	 20			; 00000014H
  00548	14		 DB	 20			; 00000014H
  00549	14		 DB	 20			; 00000014H
  0054a	14		 DB	 20			; 00000014H
  0054b	14		 DB	 20			; 00000014H
  0054c	14		 DB	 20			; 00000014H
  0054d	14		 DB	 20			; 00000014H
  0054e	14		 DB	 20			; 00000014H
  0054f	14		 DB	 20			; 00000014H
  00550	14		 DB	 20			; 00000014H
  00551	01		 DB	 1
  00552	02		 DB	 2
  00553	03		 DB	 3
  00554	04		 DB	 4
  00555	05		 DB	 5
  00556	06		 DB	 6
  00557	07		 DB	 7
  00558	08		 DB	 8
  00559	09		 DB	 9
  0055a	0a		 DB	 10			; 0000000aH
  0055b	0b		 DB	 11			; 0000000bH
  0055c	14		 DB	 20			; 00000014H
  0055d	14		 DB	 20			; 00000014H
  0055e	14		 DB	 20			; 00000014H
  0055f	14		 DB	 20			; 00000014H
  00560	14		 DB	 20			; 00000014H
  00561	14		 DB	 20			; 00000014H
  00562	14		 DB	 20			; 00000014H
  00563	14		 DB	 20			; 00000014H
  00564	14		 DB	 20			; 00000014H
  00565	0c		 DB	 12			; 0000000cH
  00566	0d		 DB	 13			; 0000000dH
  00567	14		 DB	 20			; 00000014H
  00568	14		 DB	 20			; 00000014H
  00569	14		 DB	 20			; 00000014H
  0056a	14		 DB	 20			; 00000014H
  0056b	14		 DB	 20			; 00000014H
  0056c	14		 DB	 20			; 00000014H
  0056d	14		 DB	 20			; 00000014H
  0056e	14		 DB	 20			; 00000014H
  0056f	0e		 DB	 14			; 0000000eH
  00570	0f		 DB	 15			; 0000000fH
  00571	10		 DB	 16			; 00000010H
  00572	14		 DB	 20			; 00000014H
  00573	14		 DB	 20			; 00000014H
  00574	14		 DB	 20			; 00000014H
  00575	14		 DB	 20			; 00000014H
  00576	14		 DB	 20			; 00000014H
  00577	14		 DB	 20			; 00000014H
  00578	14		 DB	 20			; 00000014H
  00579	11		 DB	 17			; 00000011H
  0057a	12		 DB	 18			; 00000012H
  0057b	13		 DB	 19			; 00000013H
$L85539:
  0057c	00 00 00 00	 DD	 $L85092
  00580	00 00 00 00	 DD	 $L85094
  00584	00 00 00 00	 DD	 $L85110
  00588	00 00 00 00	 DD	 $L85112
  0058c	00 00 00 00	 DD	 $L85114
  00590	00 00 00 00	 DD	 $L85116
  00594	00 00 00 00	 DD	 $L85120
  00598	00 00 00 00	 DD	 $L85122
  0059c	00 00 00 00	 DD	 $L85118
  005a0	00 00 00 00	 DD	 $L85130
$L85537:
  005a4	00		 DB	 0
  005a5	01		 DB	 1
  005a6	09		 DB	 9
  005a7	09		 DB	 9
  005a8	09		 DB	 9
  005a9	09		 DB	 9
  005aa	02		 DB	 2
  005ab	03		 DB	 3
  005ac	09		 DB	 9
  005ad	04		 DB	 4
  005ae	09		 DB	 9
  005af	05		 DB	 5
  005b0	09		 DB	 9
  005b1	06		 DB	 6
  005b2	09		 DB	 9
  005b3	07		 DB	 7
  005b4	08		 DB	 8
?D3DFormat2Str@@YAXKPAD@Z ENDP				; D3DFormat2Str
_TEXT	ENDS
EXTRN	_sqrt:NEAR
; Function compile flags: /Odt /RTCsu /ZI
; File c:\program files\microsoft visual studio .net\vc7\include\math.h
;	COMDAT _sqrtf
_TEXT	SEGMENT
tv70 = -196
__X$ = 8
_sqrtf	PROC NEAR					; COMDAT

; 470  :         {return ((float)sqrt((double)_X)); }

  00000	55		 push	 ebp
  00001	8b ec		 mov	 ebp, esp
  00003	81 ec c4 00 00
	00		 sub	 esp, 196		; 000000c4H
  00009	53		 push	 ebx
  0000a	56		 push	 esi
  0000b	57		 push	 edi
  0000c	8d bd 3c ff ff
	ff		 lea	 edi, DWORD PTR [ebp-196]
  00012	b9 31 00 00 00	 mov	 ecx, 49			; 00000031H
  00017	b8 cc cc cc cc	 mov	 eax, -858993460		; ccccccccH
  0001c	f3 ab		 rep stosd
  0001e	d9 45 08	 fld	 DWORD PTR __X$[ebp]
  00021	83 ec 08	 sub	 esp, 8
  00024	dd 1c 24	 fstp	 QWORD PTR [esp]
  00027	e8 00 00 00 00	 call	 _sqrt
  0002c	83 c4 08	 add	 esp, 8
  0002f	d9 95 3c ff ff
	ff		 fst	 DWORD PTR tv70[ebp]
  00035	5f		 pop	 edi
  00036	5e		 pop	 esi
  00037	5b		 pop	 ebx
  00038	81 c4 c4 00 00
	00		 add	 esp, 196		; 000000c4H
  0003e	3b ec		 cmp	 ebp, esp
  00040	e8 00 00 00 00	 call	 __RTC_CheckEsp
  00045	8b e5		 mov	 esp, ebp
  00047	5d		 pop	 ebp
  00048	c3		 ret	 0
_sqrtf	ENDP
; Function compile flags: /Odt /RTCsu /ZI
; File c:\dxsdk\include\d3dx8math.h
_TEXT	ENDS
;	COMDAT ??0D3DXVECTOR3@@QAE@XZ
_TEXT	SEGMENT
_this$ = -8
??0D3DXVECTOR3@@QAE@XZ PROC NEAR			; D3DXVECTOR3::D3DXVECTOR3, COMDAT
; _this$ = ecx

; 89   :     D3DXVECTOR3() {};

  00000	55		 push	 ebp
  00001	8b ec		 mov	 ebp, esp
  00003	81 ec cc 00 00
	00		 sub	 esp, 204		; 000000ccH
  00009	53		 push	 ebx
  0000a	56		 push	 esi
  0000b	57		 push	 edi
  0000c	51		 push	 ecx
  0000d	8d bd 34 ff ff
	ff		 lea	 edi, DWORD PTR [ebp-204]
  00013	b9 33 00 00 00	 mov	 ecx, 51			; 00000033H
  00018	b8 cc cc cc cc	 mov	 eax, -858993460		; ccccccccH
  0001d	f3 ab		 rep stosd
  0001f	59		 pop	 ecx
  00020	89 4d f8	 mov	 DWORD PTR _this$[ebp], ecx
  00023	8b 45 f8	 mov	 eax, DWORD PTR _this$[ebp]
  00026	5f		 pop	 edi
  00027	5e		 pop	 esi
  00028	5b		 pop	 ebx
  00029	8b e5		 mov	 esp, ebp
  0002b	5d		 pop	 ebp
  0002c	c3		 ret	 0
??0D3DXVECTOR3@@QAE@XZ ENDP				; D3DXVECTOR3::D3DXVECTOR3
; Function compile flags: /Odt /RTCsu /ZI
_TEXT	ENDS
;	COMDAT ??0D3DXVECTOR4@@QAE@XZ
_TEXT	SEGMENT
_this$ = -8
??0D3DXVECTOR4@@QAE@XZ PROC NEAR			; D3DXVECTOR4::D3DXVECTOR4, COMDAT
; _this$ = ecx

; 133  :     D3DXVECTOR4() {};

  00000	55		 push	 ebp
  00001	8b ec		 mov	 ebp, esp
  00003	81 ec cc 00 00
	00		 sub	 esp, 204		; 000000ccH
  00009	53		 push	 ebx
  0000a	56		 push	 esi
  0000b	57		 push	 edi
  0000c	51		 push	 ecx
  0000d	8d bd 34 ff ff
	ff		 lea	 edi, DWORD PTR [ebp-204]
  00013	b9 33 00 00 00	 mov	 ecx, 51			; 00000033H
  00018	b8 cc cc cc cc	 mov	 eax, -858993460		; ccccccccH
  0001d	f3 ab		 rep stosd
  0001f	59		 pop	 ecx
  00020	89 4d f8	 mov	 DWORD PTR _this$[ebp], ecx
  00023	8b 45 f8	 mov	 eax, DWORD PTR _this$[ebp]
  00026	5f		 pop	 edi
  00027	5e		 pop	 esi
  00028	5b		 pop	 ebx
  00029	8b e5		 mov	 esp, ebp
  0002b	5d		 pop	 ebp
  0002c	c3		 ret	 0
??0D3DXVECTOR4@@QAE@XZ ENDP				; D3DXVECTOR4::D3DXVECTOR4
; Function compile flags: /Odt /RTCsu /ZI
_TEXT	ENDS
;	COMDAT ??0D3DXMATRIX@@QAE@XZ
_TEXT	SEGMENT
_this$ = -8
??0D3DXMATRIX@@QAE@XZ PROC NEAR				; D3DXMATRIX::D3DXMATRIX, COMDAT
; _this$ = ecx

; 177  :     D3DXMATRIX() {};

  00000	55		 push	 ebp
  00001	8b ec		 mov	 ebp, esp
  00003	81 ec cc 00 00
	00		 sub	 esp, 204		; 000000ccH
  00009	53		 push	 ebx
  0000a	56		 push	 esi
  0000b	57		 push	 edi
  0000c	51		 push	 ecx
  0000d	8d bd 34 ff ff
	ff		 lea	 edi, DWORD PTR [ebp-204]
  00013	b9 33 00 00 00	 mov	 ecx, 51			; 00000033H
  00018	b8 cc cc cc cc	 mov	 eax, -858993460		; ccccccccH
  0001d	f3 ab		 rep stosd
  0001f	59		 pop	 ecx
  00020	89 4d f8	 mov	 DWORD PTR _this$[ebp], ecx
  00023	8b 45 f8	 mov	 eax, DWORD PTR _this$[ebp]
  00026	5f		 pop	 edi
  00027	5e		 pop	 esi
  00028	5b		 pop	 ebx
  00029	8b e5		 mov	 esp, ebp
  0002b	5d		 pop	 ebp
  0002c	c3		 ret	 0
??0D3DXMATRIX@@QAE@XZ ENDP				; D3DXMATRIX::D3DXMATRIX
_TEXT	ENDS
PUBLIC	??_C@_0O@NGBLBPBC@D3DBLEND_ZERO?$AA@		; `string'
PUBLIC	??_C@_0N@EFMOGKHL@D3DBLEND_ONE?$AA@		; `string'
PUBLIC	??_C@_0BC@LPHAMDHM@D3DBLEND_SRCCOLOR?$AA@	; `string'
PUBLIC	??_C@_0BF@BOHAOKID@D3DBLEND_INVSRCCOLOR?$AA@	; `string'
PUBLIC	??_C@_0BC@MLHHKHJH@D3DBLEND_SRCALPHA?$AA@	; `string'
PUBLIC	??_C@_0BF@GKHHIOGI@D3DBLEND_INVSRCALPHA?$AA@	; `string'
PUBLIC	??_C@_0BD@EALOBFMN@D3DBLEND_DESTALPHA?$AA@	; `string'
PUBLIC	??_C@_0BG@GNBNPKGJ@D3DBLEND_INVDESTALPHA?$AA@	; `string'
PUBLIC	??_C@_0BD@DELJHBCG@D3DBLEND_DESTCOLOR?$AA@	; `string'
PUBLIC	??_C@_0BG@BJBKJOIC@D3DBLEND_INVDESTCOLOR?$AA@	; `string'
PUBLIC	??_C@_0BF@KBEMLPOE@D3DBLEND_SRCALPHASAT?$AA@	; `string'
PUBLIC	??_C@_0BG@OCCIMJMP@D3DBLEND_BOTHSRCALPHA?$AA@	; `string'
PUBLIC	??_C@_0BJ@IHCPLAF@D3DBLEND_BOTHINVSRCALPHA?$AA@	; `string'
PUBLIC	??_C@_03HPADHAHE@N?1A?$AA@			; `string'
PUBLIC	?D3DBlend2Str@@YAXKPAD@Z			; D3DBlend2Str
;	COMDAT ??_C@_0O@NGBLBPBC@D3DBLEND_ZERO?$AA@
; File c:\documents and settings\dom\my documents\_dev\ae\xlr8a\x7g\x7_utils.cpp
CONST	SEGMENT
??_C@_0O@NGBLBPBC@D3DBLEND_ZERO?$AA@ DB 'D3DBLEND_ZERO', 00H ; `string'
CONST	ENDS
;	COMDAT ??_C@_0N@EFMOGKHL@D3DBLEND_ONE?$AA@
CONST	SEGMENT
??_C@_0N@EFMOGKHL@D3DBLEND_ONE?$AA@ DB 'D3DBLEND_ONE', 00H ; `string'
CONST	ENDS
;	COMDAT ??_C@_0BC@LPHAMDHM@D3DBLEND_SRCCOLOR?$AA@
CONST	SEGMENT
??_C@_0BC@LPHAMDHM@D3DBLEND_SRCCOLOR?$AA@ DB 'D3DBLEND_SRCCOLOR', 00H ; `string'
CONST	ENDS
;	COMDAT ??_C@_0BF@BOHAOKID@D3DBLEND_INVSRCCOLOR?$AA@
CONST	SEGMENT
??_C@_0BF@BOHAOKID@D3DBLEND_INVSRCCOLOR?$AA@ DB 'D3DBLEND_INVSRCCOLOR', 00H ; `string'
CONST	ENDS
;	COMDAT ??_C@_0BC@MLHHKHJH@D3DBLEND_SRCALPHA?$AA@
CONST	SEGMENT
??_C@_0BC@MLHHKHJH@D3DBLEND_SRCALPHA?$AA@ DB 'D3DBLEND_SRCALPHA', 00H ; `string'
CONST	ENDS
;	COMDAT ??_C@_0BF@GKHHIOGI@D3DBLEND_INVSRCALPHA?$AA@
CONST	SEGMENT
??_C@_0BF@GKHHIOGI@D3DBLEND_INVSRCALPHA?$AA@ DB 'D3DBLEND_INVSRCALPHA', 00H ; `string'
CONST	ENDS
;	COMDAT ??_C@_0BD@EALOBFMN@D3DBLEND_DESTALPHA?$AA@
CONST	SEGMENT
??_C@_0BD@EALOBFMN@D3DBLEND_DESTALPHA?$AA@ DB 'D3DBLEND_DESTALPHA', 00H ; `string'
CONST	ENDS
;	COMDAT ??_C@_0BG@GNBNPKGJ@D3DBLEND_INVDESTALPHA?$AA@
CONST	SEGMENT
??_C@_0BG@GNBNPKGJ@D3DBLEND_INVDESTALPHA?$AA@ DB 'D3DBLEND_INVDESTALPHA', 00H ; `string'
CONST	ENDS
;	COMDAT ??_C@_0BD@DELJHBCG@D3DBLEND_DESTCOLOR?$AA@
CONST	SEGMENT
??_C@_0BD@DELJHBCG@D3DBLEND_DESTCOLOR?$AA@ DB 'D3DBLEND_DESTCOLOR', 00H ; `string'
CONST	ENDS
;	COMDAT ??_C@_0BG@BJBKJOIC@D3DBLEND_INVDESTCOLOR?$AA@
CONST	SEGMENT
??_C@_0BG@BJBKJOIC@D3DBLEND_INVDESTCOLOR?$AA@ DB 'D3DBLEND_INVDESTCOLOR', 00H ; `string'
CONST	ENDS
;	COMDAT ??_C@_0BF@KBEMLPOE@D3DBLEND_SRCALPHASAT?$AA@
CONST	SEGMENT
??_C@_0BF@KBEMLPOE@D3DBLEND_SRCALPHASAT?$AA@ DB 'D3DBLEND_SRCALPHASAT', 00H ; `string'
CONST	ENDS
;	COMDAT ??_C@_0BG@OCCIMJMP@D3DBLEND_BOTHSRCALPHA?$AA@
CONST	SEGMENT
??_C@_0BG@OCCIMJMP@D3DBLEND_BOTHSRCALPHA?$AA@ DB 'D3DBLEND_BOTHSRCALPHA', 00H ; `string'
CONST	ENDS
;	COMDAT ??_C@_0BJ@IHCPLAF@D3DBLEND_BOTHINVSRCALPHA?$AA@
CONST	SEGMENT
??_C@_0BJ@IHCPLAF@D3DBLEND_BOTHINVSRCALPHA?$AA@ DB 'D3DBLEND_BOTHINVSRCAL'
	DB	'PHA', 00H					; `string'
CONST	ENDS
;	COMDAT ??_C@_03HPADHAHE@N?1A?$AA@
CONST	SEGMENT
??_C@_03HPADHAHE@N?1A?$AA@ DB 'N/A', 00H		; `string'
; Function compile flags: /Odt /RTCsu /ZI
CONST	ENDS
;	COMDAT ?D3DBlend2Str@@YAXKPAD@Z
_TEXT	SEGMENT
tv64 = -196
_blend$ = 8
_sz$ = 12
?D3DBlend2Str@@YAXKPAD@Z PROC NEAR			; D3DBlend2Str, COMDAT

; 394  : {

  00000	55		 push	 ebp
  00001	8b ec		 mov	 ebp, esp
  00003	81 ec c4 00 00
	00		 sub	 esp, 196		; 000000c4H
  00009	53		 push	 ebx
  0000a	56		 push	 esi
  0000b	57		 push	 edi
  0000c	8d bd 3c ff ff
	ff		 lea	 edi, DWORD PTR [ebp-196]
  00012	b9 31 00 00 00	 mov	 ecx, 49			; 00000031H
  00017	b8 cc cc cc cc	 mov	 eax, -858993460		; ccccccccH
  0001c	f3 ab		 rep stosd

; 395  : 	switch(blend)
; 396  : 	{

  0001e	8b 45 08	 mov	 eax, DWORD PTR _blend$[ebp]
  00021	89 85 3c ff ff
	ff		 mov	 DWORD PTR tv64[ebp], eax
  00027	8b 8d 3c ff ff
	ff		 mov	 ecx, DWORD PTR tv64[ebp]
  0002d	83 e9 01	 sub	 ecx, 1
  00030	89 8d 3c ff ff
	ff		 mov	 DWORD PTR tv64[ebp], ecx
  00036	83 bd 3c ff ff
	ff 0c		 cmp	 DWORD PTR tv64[ebp], 12	; 0000000cH
  0003d	0f 87 19 01 00
	00		 ja	 $L85166
  00043	8b 95 3c ff ff
	ff		 mov	 edx, DWORD PTR tv64[ebp]
  00049	ff 24 95 00 00
	00 00		 jmp	 DWORD PTR $L85550[edx*4]
$L85140:

; 397  : 		case D3DBLEND_ZERO				:	strcpy(sz, "D3DBLEND_ZERO") ;	break ;

  00050	68 00 00 00 00	 push	 OFFSET FLAT:??_C@_0O@NGBLBPBC@D3DBLEND_ZERO?$AA@
  00055	8b 45 0c	 mov	 eax, DWORD PTR _sz$[ebp]
  00058	50		 push	 eax
  00059	e8 00 00 00 00	 call	 _strcpy
  0005e	83 c4 08	 add	 esp, 8
  00061	e9 07 01 00 00	 jmp	 $L85135
$L85142:

; 398  : 		case D3DBLEND_ONE				:	strcpy(sz, "D3DBLEND_ONE") ;	break ;

  00066	68 00 00 00 00	 push	 OFFSET FLAT:??_C@_0N@EFMOGKHL@D3DBLEND_ONE?$AA@
  0006b	8b 45 0c	 mov	 eax, DWORD PTR _sz$[ebp]
  0006e	50		 push	 eax
  0006f	e8 00 00 00 00	 call	 _strcpy
  00074	83 c4 08	 add	 esp, 8
  00077	e9 f1 00 00 00	 jmp	 $L85135
$L85144:

; 399  : 		case D3DBLEND_SRCCOLOR			:	strcpy(sz, "D3DBLEND_SRCCOLOR") ; break ;

  0007c	68 00 00 00 00	 push	 OFFSET FLAT:??_C@_0BC@LPHAMDHM@D3DBLEND_SRCCOLOR?$AA@
  00081	8b 45 0c	 mov	 eax, DWORD PTR _sz$[ebp]
  00084	50		 push	 eax
  00085	e8 00 00 00 00	 call	 _strcpy
  0008a	83 c4 08	 add	 esp, 8
  0008d	e9 db 00 00 00	 jmp	 $L85135
$L85146:

; 400  : 		case D3DBLEND_INVSRCCOLOR       :	strcpy(sz, "D3DBLEND_INVSRCCOLOR") ; break ;

  00092	68 00 00 00 00	 push	 OFFSET FLAT:??_C@_0BF@BOHAOKID@D3DBLEND_INVSRCCOLOR?$AA@
  00097	8b 45 0c	 mov	 eax, DWORD PTR _sz$[ebp]
  0009a	50		 push	 eax
  0009b	e8 00 00 00 00	 call	 _strcpy
  000a0	83 c4 08	 add	 esp, 8
  000a3	e9 c5 00 00 00	 jmp	 $L85135
$L85148:

; 401  : 		case D3DBLEND_SRCALPHA          :	strcpy(sz, "D3DBLEND_SRCALPHA") ; break ;

  000a8	68 00 00 00 00	 push	 OFFSET FLAT:??_C@_0BC@MLHHKHJH@D3DBLEND_SRCALPHA?$AA@
  000ad	8b 45 0c	 mov	 eax, DWORD PTR _sz$[ebp]
  000b0	50		 push	 eax
  000b1	e8 00 00 00 00	 call	 _strcpy
  000b6	83 c4 08	 add	 esp, 8
  000b9	e9 af 00 00 00	 jmp	 $L85135
$L85150:

; 402  : 		case D3DBLEND_INVSRCALPHA       :	strcpy(sz, "D3DBLEND_INVSRCALPHA") ; break ;

  000be	68 00 00 00 00	 push	 OFFSET FLAT:??_C@_0BF@GKHHIOGI@D3DBLEND_INVSRCALPHA?$AA@
  000c3	8b 45 0c	 mov	 eax, DWORD PTR _sz$[ebp]
  000c6	50		 push	 eax
  000c7	e8 00 00 00 00	 call	 _strcpy
  000cc	83 c4 08	 add	 esp, 8
  000cf	e9 99 00 00 00	 jmp	 $L85135
$L85152:

; 403  : 		case D3DBLEND_DESTALPHA         :	strcpy(sz, "D3DBLEND_DESTALPHA") ; break ;

  000d4	68 00 00 00 00	 push	 OFFSET FLAT:??_C@_0BD@EALOBFMN@D3DBLEND_DESTALPHA?$AA@
  000d9	8b 45 0c	 mov	 eax, DWORD PTR _sz$[ebp]
  000dc	50		 push	 eax
  000dd	e8 00 00 00 00	 call	 _strcpy
  000e2	83 c4 08	 add	 esp, 8
  000e5	e9 83 00 00 00	 jmp	 $L85135
$L85154:

; 404  : 		case D3DBLEND_INVDESTALPHA      :	strcpy(sz, "D3DBLEND_INVDESTALPHA") ; break ;

  000ea	68 00 00 00 00	 push	 OFFSET FLAT:??_C@_0BG@GNBNPKGJ@D3DBLEND_INVDESTALPHA?$AA@
  000ef	8b 45 0c	 mov	 eax, DWORD PTR _sz$[ebp]
  000f2	50		 push	 eax
  000f3	e8 00 00 00 00	 call	 _strcpy
  000f8	83 c4 08	 add	 esp, 8
  000fb	eb 70		 jmp	 SHORT $L85135
$L85156:

; 405  : 		case D3DBLEND_DESTCOLOR         :	strcpy(sz, "D3DBLEND_DESTCOLOR") ; break ;

  000fd	68 00 00 00 00	 push	 OFFSET FLAT:??_C@_0BD@DELJHBCG@D3DBLEND_DESTCOLOR?$AA@
  00102	8b 45 0c	 mov	 eax, DWORD PTR _sz$[ebp]
  00105	50		 push	 eax
  00106	e8 00 00 00 00	 call	 _strcpy
  0010b	83 c4 08	 add	 esp, 8
  0010e	eb 5d		 jmp	 SHORT $L85135
$L85158:

; 406  : 		case D3DBLEND_INVDESTCOLOR      :	strcpy(sz, "D3DBLEND_INVDESTCOLOR") ; break ;

  00110	68 00 00 00 00	 push	 OFFSET FLAT:??_C@_0BG@BJBKJOIC@D3DBLEND_INVDESTCOLOR?$AA@
  00115	8b 45 0c	 mov	 eax, DWORD PTR _sz$[ebp]
  00118	50		 push	 eax
  00119	e8 00 00 00 00	 call	 _strcpy
  0011e	83 c4 08	 add	 esp, 8
  00121	eb 4a		 jmp	 SHORT $L85135
$L85160:

; 407  : 		case D3DBLEND_SRCALPHASAT       :	strcpy(sz, "D3DBLEND_SRCALPHASAT") ; break ;

  00123	68 00 00 00 00	 push	 OFFSET FLAT:??_C@_0BF@KBEMLPOE@D3DBLEND_SRCALPHASAT?$AA@
  00128	8b 45 0c	 mov	 eax, DWORD PTR _sz$[ebp]
  0012b	50		 push	 eax
  0012c	e8 00 00 00 00	 call	 _strcpy
  00131	83 c4 08	 add	 esp, 8
  00134	eb 37		 jmp	 SHORT $L85135
$L85162:

; 408  : 		case D3DBLEND_BOTHSRCALPHA      :	strcpy(sz, "D3DBLEND_BOTHSRCALPHA") ; break ;

  00136	68 00 00 00 00	 push	 OFFSET FLAT:??_C@_0BG@OCCIMJMP@D3DBLEND_BOTHSRCALPHA?$AA@
  0013b	8b 45 0c	 mov	 eax, DWORD PTR _sz$[ebp]
  0013e	50		 push	 eax
  0013f	e8 00 00 00 00	 call	 _strcpy
  00144	83 c4 08	 add	 esp, 8
  00147	eb 24		 jmp	 SHORT $L85135
$L85164:

; 409  : 		case D3DBLEND_BOTHINVSRCALPHA   :	strcpy(sz, "D3DBLEND_BOTHINVSRCALPHA") ; break ;

  00149	68 00 00 00 00	 push	 OFFSET FLAT:??_C@_0BJ@IHCPLAF@D3DBLEND_BOTHINVSRCALPHA?$AA@
  0014e	8b 45 0c	 mov	 eax, DWORD PTR _sz$[ebp]
  00151	50		 push	 eax
  00152	e8 00 00 00 00	 call	 _strcpy
  00157	83 c4 08	 add	 esp, 8
  0015a	eb 11		 jmp	 SHORT $L85135
$L85166:

; 410  : 		default							:	strcpy(sz, "N/A") ;

  0015c	68 00 00 00 00	 push	 OFFSET FLAT:??_C@_03HPADHAHE@N?1A?$AA@
  00161	8b 45 0c	 mov	 eax, DWORD PTR _sz$[ebp]
  00164	50		 push	 eax
  00165	e8 00 00 00 00	 call	 _strcpy
  0016a	83 c4 08	 add	 esp, 8
$L85135:

; 411  : 	}
; 412  : }

  0016d	5f		 pop	 edi
  0016e	5e		 pop	 esi
  0016f	5b		 pop	 ebx
  00170	81 c4 c4 00 00
	00		 add	 esp, 196		; 000000c4H
  00176	3b ec		 cmp	 ebp, esp
  00178	e8 00 00 00 00	 call	 __RTC_CheckEsp
  0017d	8b e5		 mov	 esp, ebp
  0017f	5d		 pop	 ebp
  00180	c3		 ret	 0
$L85550:
  00181	00 00 00 00	 DD	 $L85140
  00185	00 00 00 00	 DD	 $L85142
  00189	00 00 00 00	 DD	 $L85144
  0018d	00 00 00 00	 DD	 $L85146
  00191	00 00 00 00	 DD	 $L85148
  00195	00 00 00 00	 DD	 $L85150
  00199	00 00 00 00	 DD	 $L85152
  0019d	00 00 00 00	 DD	 $L85154
  001a1	00 00 00 00	 DD	 $L85156
  001a5	00 00 00 00	 DD	 $L85158
  001a9	00 00 00 00	 DD	 $L85160
  001ad	00 00 00 00	 DD	 $L85162
  001b1	00 00 00 00	 DD	 $L85164
?D3DBlend2Str@@YAXKPAD@Z ENDP				; D3DBlend2Str
_TEXT	ENDS
PUBLIC	?LoadDDSTextureFromResource@@YAJPAUIDirect3DDevice8@@PADPAPAUIDirect3DTexture8@@1@Z ; LoadDDSTextureFromResource
EXTRN	__imp__LockResource@4:NEAR
EXTRN	__imp__LoadResource@8:NEAR
EXTRN	__imp__SizeofResource@8:NEAR
EXTRN	__imp__FindResourceA@12:NEAR
EXTRN	_D3DXCreateTextureFromFileInMemoryEx@60:NEAR
; Function compile flags: /Odt /RTCsu /ZI
;	COMDAT ?LoadDDSTextureFromResource@@YAJPAUIDirect3DDevice8@@PADPAPAUIDirect3DTexture8@@1@Z
_TEXT	SEGMENT
_cbData$ = -68
_pvData$ = -56
_hgData$ = -44
_rsrc$ = -32
_hModule$ = -20
_hr$ = -8
_pd3dDevice$ = 8
_strRes$ = 12
_ppTex$ = 16
_strResType$ = 20
?LoadDDSTextureFromResource@@YAJPAUIDirect3DDevice8@@PADPAPAUIDirect3DTexture8@@1@Z PROC NEAR ; LoadDDSTextureFromResource, COMDAT

; 420  : {

  00000	55		 push	 ebp
  00001	8b ec		 mov	 ebp, esp
  00003	81 ec 08 01 00
	00		 sub	 esp, 264		; 00000108H
  00009	53		 push	 ebx
  0000a	56		 push	 esi
  0000b	57		 push	 edi
  0000c	8d bd f8 fe ff
	ff		 lea	 edi, DWORD PTR [ebp-264]
  00012	b9 42 00 00 00	 mov	 ecx, 66			; 00000042H
  00017	b8 cc cc cc cc	 mov	 eax, -858993460		; ccccccccH
  0001c	f3 ab		 rep stosd

; 421  :     HRESULT hr;
; 422  :     HMODULE hModule = NULL;

  0001e	c7 45 ec 00 00
	00 00		 mov	 DWORD PTR _hModule$[ebp], 0

; 423  :     HRSRC rsrc;
; 424  :     HGLOBAL hgData;
; 425  :     LPVOID pvData;
; 426  :     DWORD cbData;
; 427  : 
; 428  :     rsrc = FindResource( hModule, strRes, strResType );

  00025	8b f4		 mov	 esi, esp
  00027	8b 45 14	 mov	 eax, DWORD PTR _strResType$[ebp]
  0002a	50		 push	 eax
  0002b	8b 4d 0c	 mov	 ecx, DWORD PTR _strRes$[ebp]
  0002e	51		 push	 ecx
  0002f	8b 55 ec	 mov	 edx, DWORD PTR _hModule$[ebp]
  00032	52		 push	 edx
  00033	ff 15 00 00 00
	00		 call	 DWORD PTR __imp__FindResourceA@12
  00039	3b f4		 cmp	 esi, esp
  0003b	e8 00 00 00 00	 call	 __RTC_CheckEsp
  00040	89 45 e0	 mov	 DWORD PTR _rsrc$[ebp], eax

; 429  :     if( rsrc != NULL )

  00043	83 7d e0 00	 cmp	 DWORD PTR _rsrc$[ebp], 0
  00047	0f 84 95 00 00
	00		 je	 $L85180

; 430  :     {
; 431  :         cbData = SizeofResource( hModule, rsrc );

  0004d	8b f4		 mov	 esi, esp
  0004f	8b 45 e0	 mov	 eax, DWORD PTR _rsrc$[ebp]
  00052	50		 push	 eax
  00053	8b 4d ec	 mov	 ecx, DWORD PTR _hModule$[ebp]
  00056	51		 push	 ecx
  00057	ff 15 00 00 00
	00		 call	 DWORD PTR __imp__SizeofResource@8
  0005d	3b f4		 cmp	 esi, esp
  0005f	e8 00 00 00 00	 call	 __RTC_CheckEsp
  00064	89 45 bc	 mov	 DWORD PTR _cbData$[ebp], eax

; 432  :         if( cbData > 0 )

  00067	83 7d bc 00	 cmp	 DWORD PTR _cbData$[ebp], 0
  0006b	76 75		 jbe	 SHORT $L85180

; 433  :         {
; 434  :             hgData = LoadResource( hModule, rsrc );

  0006d	8b f4		 mov	 esi, esp
  0006f	8b 45 e0	 mov	 eax, DWORD PTR _rsrc$[ebp]
  00072	50		 push	 eax
  00073	8b 4d ec	 mov	 ecx, DWORD PTR _hModule$[ebp]
  00076	51		 push	 ecx
  00077	ff 15 00 00 00
	00		 call	 DWORD PTR __imp__LoadResource@8
  0007d	3b f4		 cmp	 esi, esp
  0007f	e8 00 00 00 00	 call	 __RTC_CheckEsp
  00084	89 45 d4	 mov	 DWORD PTR _hgData$[ebp], eax

; 435  :             if( hgData != NULL )

  00087	83 7d d4 00	 cmp	 DWORD PTR _hgData$[ebp], 0
  0008b	74 55		 je	 SHORT $L85180

; 436  :             {
; 437  :                 pvData = LockResource( hgData );

  0008d	8b f4		 mov	 esi, esp
  0008f	8b 45 d4	 mov	 eax, DWORD PTR _hgData$[ebp]
  00092	50		 push	 eax
  00093	ff 15 00 00 00
	00		 call	 DWORD PTR __imp__LockResource@4
  00099	3b f4		 cmp	 esi, esp
  0009b	e8 00 00 00 00	 call	 __RTC_CheckEsp
  000a0	89 45 c8	 mov	 DWORD PTR _pvData$[ebp], eax

; 438  :                 if( pvData != NULL )

  000a3	83 7d c8 00	 cmp	 DWORD PTR _pvData$[ebp], 0
  000a7	74 39		 je	 SHORT $L85180

; 439  :                 {
; 440  :                     if( FAILED( hr = D3DXCreateTextureFromFileInMemoryEx( 
; 441  :                         pd3dDevice, pvData, cbData, D3DX_DEFAULT, D3DX_DEFAULT, 
; 442  :                         D3DX_DEFAULT, 0, D3DFMT_UNKNOWN, D3DPOOL_MANAGED, D3DX_DEFAULT, 
; 443  :                         D3DX_DEFAULT, 0, NULL, NULL, ppTex ) ) )

  000a9	8b 45 10	 mov	 eax, DWORD PTR _ppTex$[ebp]
  000ac	50		 push	 eax
  000ad	6a 00		 push	 0
  000af	6a 00		 push	 0
  000b1	6a 00		 push	 0
  000b3	6a ff		 push	 -1
  000b5	6a ff		 push	 -1
  000b7	6a 01		 push	 1
  000b9	6a 00		 push	 0
  000bb	6a 00		 push	 0
  000bd	6a ff		 push	 -1
  000bf	6a ff		 push	 -1
  000c1	6a ff		 push	 -1
  000c3	8b 4d bc	 mov	 ecx, DWORD PTR _cbData$[ebp]
  000c6	51		 push	 ecx
  000c7	8b 55 c8	 mov	 edx, DWORD PTR _pvData$[ebp]
  000ca	52		 push	 edx
  000cb	8b 45 08	 mov	 eax, DWORD PTR _pd3dDevice$[ebp]
  000ce	50		 push	 eax
  000cf	e8 00 00 00 00	 call	 _D3DXCreateTextureFromFileInMemoryEx@60
  000d4	89 45 f8	 mov	 DWORD PTR _hr$[ebp], eax
  000d7	83 7d f8 00	 cmp	 DWORD PTR _hr$[ebp], 0
  000db	7d 05		 jge	 SHORT $L85180

; 444  :                     {
; 445  :                         return hr;

  000dd	8b 45 f8	 mov	 eax, DWORD PTR _hr$[ebp]
  000e0	eb 11		 jmp	 SHORT $L85173
$L85180:

; 446  :                     }
; 447  :                 }
; 448  :             }
; 449  :         }
; 450  :     }
; 451  :     
; 452  :     if( *ppTex == NULL)

  000e2	8b 45 10	 mov	 eax, DWORD PTR _ppTex$[ebp]
  000e5	83 38 00	 cmp	 DWORD PTR [eax], 0
  000e8	75 07		 jne	 SHORT $L85186

; 453  :         return E_FAIL;

  000ea	b8 05 40 00 80	 mov	 eax, -2147467259	; 80004005H
  000ef	eb 02		 jmp	 SHORT $L85173
$L85186:

; 454  : 
; 455  :     return S_OK;

  000f1	33 c0		 xor	 eax, eax
$L85173:

; 456  : }

  000f3	5f		 pop	 edi
  000f4	5e		 pop	 esi
  000f5	5b		 pop	 ebx
  000f6	81 c4 08 01 00
	00		 add	 esp, 264		; 00000108H
  000fc	3b ec		 cmp	 ebp, esp
  000fe	e8 00 00 00 00	 call	 __RTC_CheckEsp
  00103	8b e5		 mov	 esp, ebp
  00105	5d		 pop	 ebp
  00106	c3		 ret	 0
?LoadDDSTextureFromResource@@YAJPAUIDirect3DDevice8@@PADPAPAUIDirect3DTexture8@@1@Z ENDP ; LoadDDSTextureFromResource
_TEXT	ENDS
PUBLIC	??_C@_01MMEEDKFM@X?$AA@				; `string'
PUBLIC	?LoadXMeshFromResource@@YAJPAUIDirect3DDevice8@@PADPAPAUID3DXMesh@@PAPAUID3DXBuffer@@3PAKK@Z ; LoadXMeshFromResource
EXTRN	_D3DXLoadMeshFromXInMemory@32:NEAR
;	COMDAT ??_C@_01MMEEDKFM@X?$AA@
CONST	SEGMENT
??_C@_01MMEEDKFM@X?$AA@ DB 'X', 00H			; `string'
; Function compile flags: /Odt /RTCsu /ZI
CONST	ENDS
;	COMDAT ?LoadXMeshFromResource@@YAJPAUIDirect3DDevice8@@PADPAPAUID3DXMesh@@PAPAUID3DXBuffer@@3PAKK@Z
_TEXT	SEGMENT
_cbData$ = -68
_pvData$ = -56
_hgData$ = -44
_rsrc$ = -32
_hModule$ = -20
_hr$ = -8
_pd3dDevice$ = 8
_strRes$ = 12
_ppMesh$ = 16
_ppAdj$ = 20
_ppMat$ = 24
_pNumMat$ = 28
_dwOptions$ = 32
?LoadXMeshFromResource@@YAJPAUIDirect3DDevice8@@PADPAPAUID3DXMesh@@PAPAUID3DXBuffer@@3PAKK@Z PROC NEAR ; LoadXMeshFromResource, COMDAT

; 467  : {

  00000	55		 push	 ebp
  00001	8b ec		 mov	 ebp, esp
  00003	81 ec 08 01 00
	00		 sub	 esp, 264		; 00000108H
  00009	53		 push	 ebx
  0000a	56		 push	 esi
  0000b	57		 push	 edi
  0000c	8d bd f8 fe ff
	ff		 lea	 edi, DWORD PTR [ebp-264]
  00012	b9 42 00 00 00	 mov	 ecx, 66			; 00000042H
  00017	b8 cc cc cc cc	 mov	 eax, -858993460		; ccccccccH
  0001c	f3 ab		 rep stosd

; 468  :     HRESULT hr;
; 469  :     HMODULE hModule = NULL;

  0001e	c7 45 ec 00 00
	00 00		 mov	 DWORD PTR _hModule$[ebp], 0

; 470  :     HRSRC rsrc;
; 471  :     HGLOBAL hgData;
; 472  :     LPVOID pvData;
; 473  :     DWORD cbData;
; 474  : 
; 475  :     *ppMesh = NULL ;

  00025	8b 45 10	 mov	 eax, DWORD PTR _ppMesh$[ebp]
  00028	c7 00 00 00 00
	00		 mov	 DWORD PTR [eax], 0

; 476  : 	rsrc = FindResource( hModule, strRes, "X" );

  0002e	8b f4		 mov	 esi, esp
  00030	68 00 00 00 00	 push	 OFFSET FLAT:??_C@_01MMEEDKFM@X?$AA@
  00035	8b 45 0c	 mov	 eax, DWORD PTR _strRes$[ebp]
  00038	50		 push	 eax
  00039	8b 4d ec	 mov	 ecx, DWORD PTR _hModule$[ebp]
  0003c	51		 push	 ecx
  0003d	ff 15 00 00 00
	00		 call	 DWORD PTR __imp__FindResourceA@12
  00043	3b f4		 cmp	 esi, esp
  00045	e8 00 00 00 00	 call	 __RTC_CheckEsp
  0004a	89 45 e0	 mov	 DWORD PTR _rsrc$[ebp], eax

; 477  :     if( rsrc != NULL )

  0004d	83 7d e0 00	 cmp	 DWORD PTR _rsrc$[ebp], 0
  00051	0f 84 8f 00 00
	00		 je	 $L85205

; 478  :     {
; 479  :         cbData = SizeofResource( hModule, rsrc );

  00057	8b f4		 mov	 esi, esp
  00059	8b 45 e0	 mov	 eax, DWORD PTR _rsrc$[ebp]
  0005c	50		 push	 eax
  0005d	8b 4d ec	 mov	 ecx, DWORD PTR _hModule$[ebp]
  00060	51		 push	 ecx
  00061	ff 15 00 00 00
	00		 call	 DWORD PTR __imp__SizeofResource@8
  00067	3b f4		 cmp	 esi, esp
  00069	e8 00 00 00 00	 call	 __RTC_CheckEsp
  0006e	89 45 bc	 mov	 DWORD PTR _cbData$[ebp], eax

; 480  :         if( cbData > 0 )

  00071	83 7d bc 00	 cmp	 DWORD PTR _cbData$[ebp], 0
  00075	76 6f		 jbe	 SHORT $L85205

; 481  :         {
; 482  :             hgData = LoadResource( hModule, rsrc );

  00077	8b f4		 mov	 esi, esp
  00079	8b 45 e0	 mov	 eax, DWORD PTR _rsrc$[ebp]
  0007c	50		 push	 eax
  0007d	8b 4d ec	 mov	 ecx, DWORD PTR _hModule$[ebp]
  00080	51		 push	 ecx
  00081	ff 15 00 00 00
	00		 call	 DWORD PTR __imp__LoadResource@8
  00087	3b f4		 cmp	 esi, esp
  00089	e8 00 00 00 00	 call	 __RTC_CheckEsp
  0008e	89 45 d4	 mov	 DWORD PTR _hgData$[ebp], eax

; 483  :             if( hgData != NULL )

  00091	83 7d d4 00	 cmp	 DWORD PTR _hgData$[ebp], 0
  00095	74 4f		 je	 SHORT $L85205

; 484  :             {
; 485  :                 pvData = LockResource( hgData );

  00097	8b f4		 mov	 esi, esp
  00099	8b 45 d4	 mov	 eax, DWORD PTR _hgData$[ebp]
  0009c	50		 push	 eax
  0009d	ff 15 00 00 00
	00		 call	 DWORD PTR __imp__LockResource@4
  000a3	3b f4		 cmp	 esi, esp
  000a5	e8 00 00 00 00	 call	 __RTC_CheckEsp
  000aa	89 45 c8	 mov	 DWORD PTR _pvData$[ebp], eax

; 486  :                 if( pvData != NULL )

  000ad	83 7d c8 00	 cmp	 DWORD PTR _pvData$[ebp], 0
  000b1	74 33		 je	 SHORT $L85205

; 487  :                 {
; 488  : 					hr = D3DXLoadMeshFromXInMemory(
; 489  : 										   (BYTE*)pvData, cbData,
; 490  : 										   dwOptions,
; 491  : 										   pd3dDevice,
; 492  : 										   ppAdj,
; 493  : 										   ppMat,
; 494  : 										   pNumMat,
; 495  : 										   ppMesh );

  000b3	8b 45 10	 mov	 eax, DWORD PTR _ppMesh$[ebp]
  000b6	50		 push	 eax
  000b7	8b 4d 1c	 mov	 ecx, DWORD PTR _pNumMat$[ebp]
  000ba	51		 push	 ecx
  000bb	8b 55 18	 mov	 edx, DWORD PTR _ppMat$[ebp]
  000be	52		 push	 edx
  000bf	8b 45 14	 mov	 eax, DWORD PTR _ppAdj$[ebp]
  000c2	50		 push	 eax
  000c3	8b 4d 08	 mov	 ecx, DWORD PTR _pd3dDevice$[ebp]
  000c6	51		 push	 ecx
  000c7	8b 55 20	 mov	 edx, DWORD PTR _dwOptions$[ebp]
  000ca	52		 push	 edx
  000cb	8b 45 bc	 mov	 eax, DWORD PTR _cbData$[ebp]
  000ce	50		 push	 eax
  000cf	8b 4d c8	 mov	 ecx, DWORD PTR _pvData$[ebp]
  000d2	51		 push	 ecx
  000d3	e8 00 00 00 00	 call	 _D3DXLoadMeshFromXInMemory@32
  000d8	89 45 f8	 mov	 DWORD PTR _hr$[ebp], eax

; 496  : 					if( FAILED(hr) )

  000db	83 7d f8 00	 cmp	 DWORD PTR _hr$[ebp], 0
  000df	7d 05		 jge	 SHORT $L85205

; 497  : 						return hr ;

  000e1	8b 45 f8	 mov	 eax, DWORD PTR _hr$[ebp]
  000e4	eb 11		 jmp	 SHORT $L85197
$L85205:

; 498  :                 }
; 499  :             }
; 500  :         }
; 501  :     }
; 502  :     
; 503  :     if( *ppMesh == NULL)

  000e6	8b 45 10	 mov	 eax, DWORD PTR _ppMesh$[ebp]
  000e9	83 38 00	 cmp	 DWORD PTR [eax], 0
  000ec	75 07		 jne	 SHORT $L85212

; 504  :         return E_FAIL;

  000ee	b8 05 40 00 80	 mov	 eax, -2147467259	; 80004005H
  000f3	eb 02		 jmp	 SHORT $L85197
$L85212:

; 505  : 
; 506  :     return S_OK;

  000f5	33 c0		 xor	 eax, eax
$L85197:

; 507  : }

  000f7	5f		 pop	 edi
  000f8	5e		 pop	 esi
  000f9	5b		 pop	 ebx
  000fa	81 c4 08 01 00
	00		 add	 esp, 264		; 00000108H
  00100	3b ec		 cmp	 ebp, esp
  00102	e8 00 00 00 00	 call	 __RTC_CheckEsp
  00107	8b e5		 mov	 esp, ebp
  00109	5d		 pop	 ebp
  0010a	c3		 ret	 0
?LoadXMeshFromResource@@YAJPAUIDirect3DDevice8@@PADPAPAUID3DXMesh@@PAPAUID3DXBuffer@@3PAKK@Z ENDP ; LoadXMeshFromResource
_TEXT	ENDS
PUBLIC	?TranslateVector@@YAXPAUD3DXVECTOR3@@MMM@Z	; TranslateVector
EXTRN	_D3DXMatrixTranslation@16:NEAR
_BSS	SEGMENT
?m0@?1??TranslateVector@@YAXPAUD3DXVECTOR3@@MMM@Z@4UD3DXMATRIX@@A DB 040H DUP (?) ; `TranslateVector'::`2'::m0
?$S3@?1??TranslateVector@@YAXPAUD3DXVECTOR3@@MMM@Z@4IA DD 01H DUP (?) ; `TranslateVector'::`2'::$S3
?px@?1??TranslateVector@@YAXPAUD3DXVECTOR3@@MMM@Z@4MA DD 01H DUP (?) ; `TranslateVector'::`2'::px
?py@?1??TranslateVector@@YAXPAUD3DXVECTOR3@@MMM@Z@4MA DD 01H DUP (?) ; `TranslateVector'::`2'::py
?pz@?1??TranslateVector@@YAXPAUD3DXVECTOR3@@MMM@Z@4MA DD 01H DUP (?) ; `TranslateVector'::`2'::pz
; Function compile flags: /Odt /RTCsu /ZI
_BSS	ENDS
;	COMDAT ?TranslateVector@@YAXPAUD3DXVECTOR3@@MMM@Z
_TEXT	SEGMENT
_v0$ = -20
_v$ = 8
_x$ = 12
_y$ = 16
_z$ = 20
?TranslateVector@@YAXPAUD3DXVECTOR3@@MMM@Z PROC NEAR	; TranslateVector, COMDAT

; 512  : 	{

  00000	55		 push	 ebp
  00001	8b ec		 mov	 ebp, esp
  00003	81 ec d8 00 00
	00		 sub	 esp, 216		; 000000d8H
  00009	53		 push	 ebx
  0000a	56		 push	 esi
  0000b	57		 push	 edi
  0000c	8d bd 28 ff ff
	ff		 lea	 edi, DWORD PTR [ebp-216]
  00012	b9 36 00 00 00	 mov	 ecx, 54			; 00000036H
  00017	b8 cc cc cc cc	 mov	 eax, -858993460		; ccccccccH
  0001c	f3 ab		 rep stosd

; 513  : 		xVec4		  v0 ;

  0001e	8d 4d ec	 lea	 ecx, DWORD PTR _v0$[ebp]
  00021	e8 00 00 00 00	 call	 ??0D3DXVECTOR4@@QAE@XZ	; D3DXVECTOR4::D3DXVECTOR4

; 514  : 		static xMat m0 ;

  00026	a1 00 00 00 00	 mov	 eax, DWORD PTR ?$S3@?1??TranslateVector@@YAXPAUD3DXVECTOR3@@MMM@Z@4IA
  0002b	83 e0 01	 and	 eax, 1
  0002e	85 c0		 test	 eax, eax
  00030	75 17		 jne	 SHORT $L85226
  00032	a1 00 00 00 00	 mov	 eax, DWORD PTR ?$S3@?1??TranslateVector@@YAXPAUD3DXVECTOR3@@MMM@Z@4IA
  00037	83 c8 01	 or	 eax, 1
  0003a	a3 00 00 00 00	 mov	 DWORD PTR ?$S3@?1??TranslateVector@@YAXPAUD3DXVECTOR3@@MMM@Z@4IA, eax
  0003f	b9 00 00 00 00	 mov	 ecx, OFFSET FLAT:?m0@?1??TranslateVector@@YAXPAUD3DXVECTOR3@@MMM@Z@4UD3DXMATRIX@@A
  00044	e8 00 00 00 00	 call	 ??0D3DXMATRIX@@QAE@XZ	; D3DXMATRIX::D3DXMATRIX
$L85226:

; 515  : 		static float	  px, py, pz ;
; 516  : 
; 517  : 		if (px != x || py != y || pz != z)

  00049	d9 05 00 00 00
	00		 fld	 DWORD PTR ?px@?1??TranslateVector@@YAXPAUD3DXVECTOR3@@MMM@Z@4MA
  0004f	d8 5d 0c	 fcomp	 DWORD PTR _x$[ebp]
  00052	df e0		 fnstsw	 ax
  00054	f6 c4 44	 test	 ah, 68			; 00000044H
  00057	7a 20		 jp	 SHORT $L85234
  00059	d9 05 00 00 00
	00		 fld	 DWORD PTR ?py@?1??TranslateVector@@YAXPAUD3DXVECTOR3@@MMM@Z@4MA
  0005f	d8 5d 10	 fcomp	 DWORD PTR _y$[ebp]
  00062	df e0		 fnstsw	 ax
  00064	f6 c4 44	 test	 ah, 68			; 00000044H
  00067	7a 10		 jp	 SHORT $L85234
  00069	d9 05 00 00 00
	00		 fld	 DWORD PTR ?pz@?1??TranslateVector@@YAXPAUD3DXVECTOR3@@MMM@Z@4MA
  0006f	d8 5d 14	 fcomp	 DWORD PTR _z$[ebp]
  00072	df e0		 fnstsw	 ax
  00074	f6 c4 44	 test	 ah, 68			; 00000044H
  00077	7b 2e		 jnp	 SHORT $L85233
$L85234:

; 518  : 		{
; 519  : 			D3DXMatrixTranslation(&m0, x, y, z) ;

  00079	8b 45 14	 mov	 eax, DWORD PTR _z$[ebp]
  0007c	50		 push	 eax
  0007d	8b 4d 10	 mov	 ecx, DWORD PTR _y$[ebp]
  00080	51		 push	 ecx
  00081	8b 55 0c	 mov	 edx, DWORD PTR _x$[ebp]
  00084	52		 push	 edx
  00085	68 00 00 00 00	 push	 OFFSET FLAT:?m0@?1??TranslateVector@@YAXPAUD3DXVECTOR3@@MMM@Z@4UD3DXMATRIX@@A
  0008a	e8 00 00 00 00	 call	 _D3DXMatrixTranslation@16

; 520  : 			px = x ;

  0008f	8b 45 0c	 mov	 eax, DWORD PTR _x$[ebp]
  00092	a3 00 00 00 00	 mov	 DWORD PTR ?px@?1??TranslateVector@@YAXPAUD3DXVECTOR3@@MMM@Z@4MA, eax

; 521  : 			py = y ;

  00097	8b 45 10	 mov	 eax, DWORD PTR _y$[ebp]
  0009a	a3 00 00 00 00	 mov	 DWORD PTR ?py@?1??TranslateVector@@YAXPAUD3DXVECTOR3@@MMM@Z@4MA, eax

; 522  : 			pz = z ;

  0009f	8b 45 14	 mov	 eax, DWORD PTR _z$[ebp]
  000a2	a3 00 00 00 00	 mov	 DWORD PTR ?pz@?1??TranslateVector@@YAXPAUD3DXVECTOR3@@MMM@Z@4MA, eax
$L85233:

; 523  : 		}
; 524  : 
; 525  : 		D3DXVec3Transform(&v0, v, &m0) ;

  000a7	68 00 00 00 00	 push	 OFFSET FLAT:?m0@?1??TranslateVector@@YAXPAUD3DXVECTOR3@@MMM@Z@4UD3DXMATRIX@@A
  000ac	8b 45 08	 mov	 eax, DWORD PTR _v$[ebp]
  000af	50		 push	 eax
  000b0	8d 4d ec	 lea	 ecx, DWORD PTR _v0$[ebp]
  000b3	51		 push	 ecx
  000b4	e8 00 00 00 00	 call	 _D3DXVec3Transform@12

; 526  : 		v->x = v0.x ;

  000b9	8b 45 08	 mov	 eax, DWORD PTR _v$[ebp]
  000bc	8b 4d ec	 mov	 ecx, DWORD PTR _v0$[ebp]
  000bf	89 08		 mov	 DWORD PTR [eax], ecx

; 527  : 		v->y = v0.y ;

  000c1	8b 45 08	 mov	 eax, DWORD PTR _v$[ebp]
  000c4	8b 4d f0	 mov	 ecx, DWORD PTR _v0$[ebp+4]
  000c7	89 48 04	 mov	 DWORD PTR [eax+4], ecx

; 528  : 		v->z = v0.z ;

  000ca	8b 45 08	 mov	 eax, DWORD PTR _v$[ebp]
  000cd	8b 4d f4	 mov	 ecx, DWORD PTR _v0$[ebp+8]
  000d0	89 48 08	 mov	 DWORD PTR [eax+8], ecx

; 529  : 	}

  000d3	52		 push	 edx
  000d4	8b cd		 mov	 ecx, ebp
  000d6	50		 push	 eax
  000d7	8d 15 00 00 00
	00		 lea	 edx, DWORD PTR $L85559
  000dd	e8 00 00 00 00	 call	 @_RTC_CheckStackVars@8
  000e2	58		 pop	 eax
  000e3	5a		 pop	 edx
  000e4	5f		 pop	 edi
  000e5	5e		 pop	 esi
  000e6	5b		 pop	 ebx
  000e7	81 c4 d8 00 00
	00		 add	 esp, 216		; 000000d8H
  000ed	3b ec		 cmp	 ebp, esp
  000ef	e8 00 00 00 00	 call	 __RTC_CheckEsp
  000f4	8b e5		 mov	 esp, ebp
  000f6	5d		 pop	 ebp
  000f7	c3		 ret	 0
$L85559:
  000f8	01 00 00 00	 DD	 1
  000fc	00 00 00 00	 DD	 $L85558
$L85558:
  00100	ec ff ff ff	 DD	 -20			; ffffffecH
  00104	10 00 00 00	 DD	 16			; 00000010H
  00108	00 00 00 00	 DD	 $L85557
$L85557:
  0010c	76		 DB	 118			; 00000076H
  0010d	30		 DB	 48			; 00000030H
  0010e	00		 DB	 0
?TranslateVector@@YAXPAUD3DXVECTOR3@@MMM@Z ENDP		; TranslateVector
_TEXT	ENDS
PUBLIC	?RotateVectorX@@YAXPAUD3DXVECTOR3@@M0@Z		; RotateVectorX
EXTRN	_D3DXMatrixMultiply@12:NEAR
EXTRN	_D3DXMatrixRotationX@8:NEAR
_BSS	SEGMENT
?m@?1??RotateVectorX@@YAXPAUD3DXVECTOR3@@M0@Z@4UD3DXMATRIX@@A DB 040H DUP (?) ; `RotateVectorX'::`2'::m
?$S4@?1??RotateVectorX@@YAXPAUD3DXVECTOR3@@M0@Z@4IA DD 01H DUP (?) ; `RotateVectorX'::`2'::$S4
?m0@?1??RotateVectorX@@YAXPAUD3DXVECTOR3@@M0@Z@4UD3DXMATRIX@@A DB 040H DUP (?) ; `RotateVectorX'::`2'::m0
?m1@?1??RotateVectorX@@YAXPAUD3DXVECTOR3@@M0@Z@4UD3DXMATRIX@@A DB 040H DUP (?) ; `RotateVectorX'::`2'::m1
?m2@?1??RotateVectorX@@YAXPAUD3DXVECTOR3@@M0@Z@4UD3DXMATRIX@@A DB 040H DUP (?) ; `RotateVectorX'::`2'::m2
?po@?1??RotateVectorX@@YAXPAUD3DXVECTOR3@@M0@Z@4U2@A DB 0cH DUP (?) ; `RotateVectorX'::`2'::po
; Function compile flags: /Odt /RTCsu /ZI
_BSS	ENDS
;	COMDAT ?RotateVectorX@@YAXPAUD3DXVECTOR3@@M0@Z
_TEXT	SEGMENT
$T85562 = -232
_v0$ = -20
_v$ = 8
_n$ = 12
_o$ = 16
?RotateVectorX@@YAXPAUD3DXVECTOR3@@M0@Z PROC NEAR	; RotateVectorX, COMDAT

; 532  : 	{

  00000	55		 push	 ebp
  00001	8b ec		 mov	 ebp, esp
  00003	81 ec ec 00 00
	00		 sub	 esp, 236		; 000000ecH
  00009	53		 push	 ebx
  0000a	56		 push	 esi
  0000b	57		 push	 edi
  0000c	8d bd 14 ff ff
	ff		 lea	 edi, DWORD PTR [ebp-236]
  00012	b9 3b 00 00 00	 mov	 ecx, 59			; 0000003bH
  00017	b8 cc cc cc cc	 mov	 eax, -858993460		; ccccccccH
  0001c	f3 ab		 rep stosd

; 533  : 		xVec4 v0 ;

  0001e	8d 4d ec	 lea	 ecx, DWORD PTR _v0$[ebp]
  00021	e8 00 00 00 00	 call	 ??0D3DXVECTOR4@@QAE@XZ	; D3DXVECTOR4::D3DXVECTOR4

; 534  : 		static xMat m, m0, m1, m2 ;

  00026	a1 00 00 00 00	 mov	 eax, DWORD PTR ?$S4@?1??RotateVectorX@@YAXPAUD3DXVECTOR3@@M0@Z@4IA
  0002b	83 e0 01	 and	 eax, 1
  0002e	85 c0		 test	 eax, eax
  00030	75 17		 jne	 SHORT $L85245
  00032	a1 00 00 00 00	 mov	 eax, DWORD PTR ?$S4@?1??RotateVectorX@@YAXPAUD3DXVECTOR3@@M0@Z@4IA
  00037	83 c8 01	 or	 eax, 1
  0003a	a3 00 00 00 00	 mov	 DWORD PTR ?$S4@?1??RotateVectorX@@YAXPAUD3DXVECTOR3@@M0@Z@4IA, eax
  0003f	b9 00 00 00 00	 mov	 ecx, OFFSET FLAT:?m@?1??RotateVectorX@@YAXPAUD3DXVECTOR3@@M0@Z@4UD3DXMATRIX@@A
  00044	e8 00 00 00 00	 call	 ??0D3DXMATRIX@@QAE@XZ	; D3DXMATRIX::D3DXMATRIX
$L85245:
  00049	a1 00 00 00 00	 mov	 eax, DWORD PTR ?$S4@?1??RotateVectorX@@YAXPAUD3DXVECTOR3@@M0@Z@4IA
  0004e	83 e0 02	 and	 eax, 2
  00051	85 c0		 test	 eax, eax
  00053	75 17		 jne	 SHORT $L85248
  00055	a1 00 00 00 00	 mov	 eax, DWORD PTR ?$S4@?1??RotateVectorX@@YAXPAUD3DXVECTOR3@@M0@Z@4IA
  0005a	83 c8 02	 or	 eax, 2
  0005d	a3 00 00 00 00	 mov	 DWORD PTR ?$S4@?1??RotateVectorX@@YAXPAUD3DXVECTOR3@@M0@Z@4IA, eax
  00062	b9 00 00 00 00	 mov	 ecx, OFFSET FLAT:?m0@?1??RotateVectorX@@YAXPAUD3DXVECTOR3@@M0@Z@4UD3DXMATRIX@@A
  00067	e8 00 00 00 00	 call	 ??0D3DXMATRIX@@QAE@XZ	; D3DXMATRIX::D3DXMATRIX
$L85248:
  0006c	a1 00 00 00 00	 mov	 eax, DWORD PTR ?$S4@?1??RotateVectorX@@YAXPAUD3DXVECTOR3@@M0@Z@4IA
  00071	83 e0 04	 and	 eax, 4
  00074	85 c0		 test	 eax, eax
  00076	75 17		 jne	 SHORT $L85251
  00078	a1 00 00 00 00	 mov	 eax, DWORD PTR ?$S4@?1??RotateVectorX@@YAXPAUD3DXVECTOR3@@M0@Z@4IA
  0007d	83 c8 04	 or	 eax, 4
  00080	a3 00 00 00 00	 mov	 DWORD PTR ?$S4@?1??RotateVectorX@@YAXPAUD3DXVECTOR3@@M0@Z@4IA, eax
  00085	b9 00 00 00 00	 mov	 ecx, OFFSET FLAT:?m1@?1??RotateVectorX@@YAXPAUD3DXVECTOR3@@M0@Z@4UD3DXMATRIX@@A
  0008a	e8 00 00 00 00	 call	 ??0D3DXMATRIX@@QAE@XZ	; D3DXMATRIX::D3DXMATRIX
$L85251:
  0008f	a1 00 00 00 00	 mov	 eax, DWORD PTR ?$S4@?1??RotateVectorX@@YAXPAUD3DXVECTOR3@@M0@Z@4IA
  00094	83 e0 08	 and	 eax, 8
  00097	85 c0		 test	 eax, eax
  00099	75 17		 jne	 SHORT $L85254
  0009b	a1 00 00 00 00	 mov	 eax, DWORD PTR ?$S4@?1??RotateVectorX@@YAXPAUD3DXVECTOR3@@M0@Z@4IA
  000a0	83 c8 08	 or	 eax, 8
  000a3	a3 00 00 00 00	 mov	 DWORD PTR ?$S4@?1??RotateVectorX@@YAXPAUD3DXVECTOR3@@M0@Z@4IA, eax
  000a8	b9 00 00 00 00	 mov	 ecx, OFFSET FLAT:?m2@?1??RotateVectorX@@YAXPAUD3DXVECTOR3@@M0@Z@4UD3DXMATRIX@@A
  000ad	e8 00 00 00 00	 call	 ??0D3DXMATRIX@@QAE@XZ	; D3DXMATRIX::D3DXMATRIX
$L85254:

; 535  : 		static float pn = 0.0f ;
; 536  : 		static xVec3 po ;

  000b2	a1 00 00 00 00	 mov	 eax, DWORD PTR ?$S4@?1??RotateVectorX@@YAXPAUD3DXVECTOR3@@M0@Z@4IA
  000b7	83 e0 10	 and	 eax, 16			; 00000010H
  000ba	85 c0		 test	 eax, eax
  000bc	75 17		 jne	 SHORT $L85259
  000be	a1 00 00 00 00	 mov	 eax, DWORD PTR ?$S4@?1??RotateVectorX@@YAXPAUD3DXVECTOR3@@M0@Z@4IA
  000c3	83 c8 10	 or	 eax, 16			; 00000010H
  000c6	a3 00 00 00 00	 mov	 DWORD PTR ?$S4@?1??RotateVectorX@@YAXPAUD3DXVECTOR3@@M0@Z@4IA, eax
  000cb	b9 00 00 00 00	 mov	 ecx, OFFSET FLAT:?po@?1??RotateVectorX@@YAXPAUD3DXVECTOR3@@M0@Z@4U2@A
  000d0	e8 00 00 00 00	 call	 ??0D3DXVECTOR3@@QAE@XZ	; D3DXVECTOR3::D3DXVECTOR3
$L85259:

; 537  : 
; 538  : 		if (n != pn || po.x != o->x || po.y != o->y || po.z != o->z)

  000d5	d9 45 0c	 fld	 DWORD PTR _n$[ebp]
  000d8	d8 1d 00 00 00
	00		 fcomp	 DWORD PTR ?pn@?1??RotateVectorX@@YAXPAUD3DXVECTOR3@@M0@Z@4MA
  000de	df e0		 fnstsw	 ax
  000e0	f6 c4 44	 test	 ah, 68			; 00000044H
  000e3	7a 3c		 jp	 SHORT $L85261
  000e5	8b 45 10	 mov	 eax, DWORD PTR _o$[ebp]
  000e8	d9 05 00 00 00
	00		 fld	 DWORD PTR ?po@?1??RotateVectorX@@YAXPAUD3DXVECTOR3@@M0@Z@4U2@A
  000ee	d8 18		 fcomp	 DWORD PTR [eax]
  000f0	df e0		 fnstsw	 ax
  000f2	f6 c4 44	 test	 ah, 68			; 00000044H
  000f5	7a 2a		 jp	 SHORT $L85261
  000f7	8b 45 10	 mov	 eax, DWORD PTR _o$[ebp]
  000fa	d9 05 04 00 00
	00		 fld	 DWORD PTR ?po@?1??RotateVectorX@@YAXPAUD3DXVECTOR3@@M0@Z@4U2@A+4
  00100	d8 58 04	 fcomp	 DWORD PTR [eax+4]
  00103	df e0		 fnstsw	 ax
  00105	f6 c4 44	 test	 ah, 68			; 00000044H
  00108	7a 17		 jp	 SHORT $L85261
  0010a	8b 45 10	 mov	 eax, DWORD PTR _o$[ebp]
  0010d	d9 05 08 00 00
	00		 fld	 DWORD PTR ?po@?1??RotateVectorX@@YAXPAUD3DXVECTOR3@@M0@Z@4U2@A+8
  00113	d8 58 08	 fcomp	 DWORD PTR [eax+8]
  00116	df e0		 fnstsw	 ax
  00118	f6 c4 44	 test	 ah, 68			; 00000044H
  0011b	0f 8b ef 00 00
	00		 jnp	 $L85260
$L85261:

; 539  : 		{
; 540  : 			D3DXMatrixTranslation(&m0, -o->x, -o->y, -o->z) ;

  00121	8b 45 10	 mov	 eax, DWORD PTR _o$[ebp]
  00124	d9 40 08	 fld	 DWORD PTR [eax+8]
  00127	d9 e0		 fchs
  00129	51		 push	 ecx
  0012a	d9 1c 24	 fstp	 DWORD PTR [esp]
  0012d	8b 4d 10	 mov	 ecx, DWORD PTR _o$[ebp]
  00130	d9 41 04	 fld	 DWORD PTR [ecx+4]
  00133	d9 e0		 fchs
  00135	51		 push	 ecx
  00136	d9 1c 24	 fstp	 DWORD PTR [esp]
  00139	8b 55 10	 mov	 edx, DWORD PTR _o$[ebp]
  0013c	d9 02		 fld	 DWORD PTR [edx]
  0013e	d9 e0		 fchs
  00140	51		 push	 ecx
  00141	d9 1c 24	 fstp	 DWORD PTR [esp]
  00144	68 00 00 00 00	 push	 OFFSET FLAT:?m0@?1??RotateVectorX@@YAXPAUD3DXVECTOR3@@M0@Z@4UD3DXMATRIX@@A
  00149	e8 00 00 00 00	 call	 _D3DXMatrixTranslation@16

; 541  : 			D3DXMatrixRotationX(&m1, n * g_DEGTORAD) ;

  0014e	d9 45 0c	 fld	 DWORD PTR _n$[ebp]
  00151	d8 0d 00 00 00
	00		 fmul	 DWORD PTR _g_DEGTORAD
  00157	51		 push	 ecx
  00158	d9 1c 24	 fstp	 DWORD PTR [esp]
  0015b	68 00 00 00 00	 push	 OFFSET FLAT:?m1@?1??RotateVectorX@@YAXPAUD3DXVECTOR3@@M0@Z@4UD3DXMATRIX@@A
  00160	e8 00 00 00 00	 call	 _D3DXMatrixRotationX@8

; 542  : 			D3DXMatrixTranslation(&m2, +o->x, +o->y, +o->z) ;

  00165	8b 45 10	 mov	 eax, DWORD PTR _o$[ebp]
  00168	8b 48 08	 mov	 ecx, DWORD PTR [eax+8]
  0016b	51		 push	 ecx
  0016c	8b 55 10	 mov	 edx, DWORD PTR _o$[ebp]
  0016f	8b 42 04	 mov	 eax, DWORD PTR [edx+4]
  00172	50		 push	 eax
  00173	8b 4d 10	 mov	 ecx, DWORD PTR _o$[ebp]
  00176	8b 11		 mov	 edx, DWORD PTR [ecx]
  00178	52		 push	 edx
  00179	68 00 00 00 00	 push	 OFFSET FLAT:?m2@?1??RotateVectorX@@YAXPAUD3DXVECTOR3@@M0@Z@4UD3DXMATRIX@@A
  0017e	e8 00 00 00 00	 call	 _D3DXMatrixTranslation@16

; 543  : 			m = g_matIdent ;

  00183	b9 10 00 00 00	 mov	 ecx, 16			; 00000010H
  00188	be 00 00 00 00	 mov	 esi, OFFSET FLAT:?g_matIdent@@3UD3DXMATRIX@@A ; g_matIdent
  0018d	bf 00 00 00 00	 mov	 edi, OFFSET FLAT:?m@?1??RotateVectorX@@YAXPAUD3DXVECTOR3@@M0@Z@4UD3DXMATRIX@@A
  00192	f3 a5		 rep movsd

; 544  : 			D3DXMatrixMultiply(&m, &m, &m0) ;

  00194	68 00 00 00 00	 push	 OFFSET FLAT:?m0@?1??RotateVectorX@@YAXPAUD3DXVECTOR3@@M0@Z@4UD3DXMATRIX@@A
  00199	68 00 00 00 00	 push	 OFFSET FLAT:?m@?1??RotateVectorX@@YAXPAUD3DXVECTOR3@@M0@Z@4UD3DXMATRIX@@A
  0019e	68 00 00 00 00	 push	 OFFSET FLAT:?m@?1??RotateVectorX@@YAXPAUD3DXVECTOR3@@M0@Z@4UD3DXMATRIX@@A
  001a3	e8 00 00 00 00	 call	 _D3DXMatrixMultiply@12

; 545  : 			D3DXMatrixMultiply(&m, &m, &m1) ;

  001a8	68 00 00 00 00	 push	 OFFSET FLAT:?m1@?1??RotateVectorX@@YAXPAUD3DXVECTOR3@@M0@Z@4UD3DXMATRIX@@A
  001ad	68 00 00 00 00	 push	 OFFSET FLAT:?m@?1??RotateVectorX@@YAXPAUD3DXVECTOR3@@M0@Z@4UD3DXMATRIX@@A
  001b2	68 00 00 00 00	 push	 OFFSET FLAT:?m@?1??RotateVectorX@@YAXPAUD3DXVECTOR3@@M0@Z@4UD3DXMATRIX@@A
  001b7	e8 00 00 00 00	 call	 _D3DXMatrixMultiply@12

; 546  : 			D3DXMatrixMultiply(&m, &m, &m2) ;

  001bc	68 00 00 00 00	 push	 OFFSET FLAT:?m2@?1??RotateVectorX@@YAXPAUD3DXVECTOR3@@M0@Z@4UD3DXMATRIX@@A
  001c1	68 00 00 00 00	 push	 OFFSET FLAT:?m@?1??RotateVectorX@@YAXPAUD3DXVECTOR3@@M0@Z@4UD3DXMATRIX@@A
  001c6	68 00 00 00 00	 push	 OFFSET FLAT:?m@?1??RotateVectorX@@YAXPAUD3DXVECTOR3@@M0@Z@4UD3DXMATRIX@@A
  001cb	e8 00 00 00 00	 call	 _D3DXMatrixMultiply@12

; 547  : 
; 548  : 			pn = n ;

  001d0	8b 45 0c	 mov	 eax, DWORD PTR _n$[ebp]
  001d3	a3 00 00 00 00	 mov	 DWORD PTR ?pn@?1??RotateVectorX@@YAXPAUD3DXVECTOR3@@M0@Z@4MA, eax

; 549  : 			po = xVec3(o->x, o->y, o->z) ;

  001d8	8b 45 10	 mov	 eax, DWORD PTR _o$[ebp]
  001db	8b 48 08	 mov	 ecx, DWORD PTR [eax+8]
  001de	51		 push	 ecx
  001df	8b 55 10	 mov	 edx, DWORD PTR _o$[ebp]
  001e2	8b 42 04	 mov	 eax, DWORD PTR [edx+4]
  001e5	50		 push	 eax
  001e6	8b 4d 10	 mov	 ecx, DWORD PTR _o$[ebp]
  001e9	8b 11		 mov	 edx, DWORD PTR [ecx]
  001eb	52		 push	 edx
  001ec	8d 8d 18 ff ff
	ff		 lea	 ecx, DWORD PTR $T85562[ebp]
  001f2	e8 00 00 00 00	 call	 ??0D3DXVECTOR3@@QAE@MMM@Z ; D3DXVECTOR3::D3DXVECTOR3
  001f7	8b 08		 mov	 ecx, DWORD PTR [eax]
  001f9	89 0d 00 00 00
	00		 mov	 DWORD PTR ?po@?1??RotateVectorX@@YAXPAUD3DXVECTOR3@@M0@Z@4U2@A, ecx
  001ff	8b 50 04	 mov	 edx, DWORD PTR [eax+4]
  00202	89 15 04 00 00
	00		 mov	 DWORD PTR ?po@?1??RotateVectorX@@YAXPAUD3DXVECTOR3@@M0@Z@4U2@A+4, edx
  00208	8b 40 08	 mov	 eax, DWORD PTR [eax+8]
  0020b	a3 08 00 00 00	 mov	 DWORD PTR ?po@?1??RotateVectorX@@YAXPAUD3DXVECTOR3@@M0@Z@4U2@A+8, eax
$L85260:

; 550  : 		}
; 551  : 
; 552  : 		D3DXVec3Transform(&v0, v, &m) ;

  00210	68 00 00 00 00	 push	 OFFSET FLAT:?m@?1??RotateVectorX@@YAXPAUD3DXVECTOR3@@M0@Z@4UD3DXMATRIX@@A
  00215	8b 45 08	 mov	 eax, DWORD PTR _v$[ebp]
  00218	50		 push	 eax
  00219	8d 4d ec	 lea	 ecx, DWORD PTR _v0$[ebp]
  0021c	51		 push	 ecx
  0021d	e8 00 00 00 00	 call	 _D3DXVec3Transform@12

; 553  : 		v->x = v0.x ;

  00222	8b 45 08	 mov	 eax, DWORD PTR _v$[ebp]
  00225	8b 4d ec	 mov	 ecx, DWORD PTR _v0$[ebp]
  00228	89 08		 mov	 DWORD PTR [eax], ecx

; 554  : 		v->y = v0.y ;

  0022a	8b 45 08	 mov	 eax, DWORD PTR _v$[ebp]
  0022d	8b 4d f0	 mov	 ecx, DWORD PTR _v0$[ebp+4]
  00230	89 48 04	 mov	 DWORD PTR [eax+4], ecx

; 555  : 		v->z = v0.z ;

  00233	8b 45 08	 mov	 eax, DWORD PTR _v$[ebp]
  00236	8b 4d f4	 mov	 ecx, DWORD PTR _v0$[ebp+8]
  00239	89 48 08	 mov	 DWORD PTR [eax+8], ecx

; 556  : 	}

  0023c	52		 push	 edx
  0023d	8b cd		 mov	 ecx, ebp
  0023f	50		 push	 eax
  00240	8d 15 00 00 00
	00		 lea	 edx, DWORD PTR $L85565
  00246	e8 00 00 00 00	 call	 @_RTC_CheckStackVars@8
  0024b	58		 pop	 eax
  0024c	5a		 pop	 edx
  0024d	5f		 pop	 edi
  0024e	5e		 pop	 esi
  0024f	5b		 pop	 ebx
  00250	81 c4 ec 00 00
	00		 add	 esp, 236		; 000000ecH
  00256	3b ec		 cmp	 ebp, esp
  00258	e8 00 00 00 00	 call	 __RTC_CheckEsp
  0025d	8b e5		 mov	 esp, ebp
  0025f	5d		 pop	 ebp
  00260	c3		 ret	 0
$L85565:
  00261	01 00 00 00	 DD	 1
  00265	00 00 00 00	 DD	 $L85564
$L85564:
  00269	ec ff ff ff	 DD	 -20			; ffffffecH
  0026d	10 00 00 00	 DD	 16			; 00000010H
  00271	00 00 00 00	 DD	 $L85563
$L85563:
  00275	76		 DB	 118			; 00000076H
  00276	30		 DB	 48			; 00000030H
  00277	00		 DB	 0
?RotateVectorX@@YAXPAUD3DXVECTOR3@@M0@Z ENDP		; RotateVectorX
_TEXT	ENDS
PUBLIC	?RotateVectorY@@YAXPAUD3DXVECTOR3@@M0@Z		; RotateVectorY
EXTRN	_D3DXMatrixRotationY@8:NEAR
_BSS	SEGMENT
?m@?1??RotateVectorY@@YAXPAUD3DXVECTOR3@@M0@Z@4UD3DXMATRIX@@A DB 040H DUP (?) ; `RotateVectorY'::`2'::m
?$S5@?1??RotateVectorY@@YAXPAUD3DXVECTOR3@@M0@Z@4IA DD 01H DUP (?) ; `RotateVectorY'::`2'::$S5
?m0@?1??RotateVectorY@@YAXPAUD3DXVECTOR3@@M0@Z@4UD3DXMATRIX@@A DB 040H DUP (?) ; `RotateVectorY'::`2'::m0
?m1@?1??RotateVectorY@@YAXPAUD3DXVECTOR3@@M0@Z@4UD3DXMATRIX@@A DB 040H DUP (?) ; `RotateVectorY'::`2'::m1
?m2@?1??RotateVectorY@@YAXPAUD3DXVECTOR3@@M0@Z@4UD3DXMATRIX@@A DB 040H DUP (?) ; `RotateVectorY'::`2'::m2
?po@?1??RotateVectorY@@YAXPAUD3DXVECTOR3@@M0@Z@4U2@A DB 0cH DUP (?) ; `RotateVectorY'::`2'::po
; Function compile flags: /Odt /RTCsu /ZI
_BSS	ENDS
;	COMDAT ?RotateVectorY@@YAXPAUD3DXVECTOR3@@M0@Z
_TEXT	SEGMENT
$T85568 = -232
_v0$ = -20
_v$ = 8
_n$ = 12
_o$ = 16
?RotateVectorY@@YAXPAUD3DXVECTOR3@@M0@Z PROC NEAR	; RotateVectorY, COMDAT

; 559  : 	{

  00000	55		 push	 ebp
  00001	8b ec		 mov	 ebp, esp
  00003	81 ec ec 00 00
	00		 sub	 esp, 236		; 000000ecH
  00009	53		 push	 ebx
  0000a	56		 push	 esi
  0000b	57		 push	 edi
  0000c	8d bd 14 ff ff
	ff		 lea	 edi, DWORD PTR [ebp-236]
  00012	b9 3b 00 00 00	 mov	 ecx, 59			; 0000003bH
  00017	b8 cc cc cc cc	 mov	 eax, -858993460		; ccccccccH
  0001c	f3 ab		 rep stosd

; 560  : 		xVec4 v0 ;

  0001e	8d 4d ec	 lea	 ecx, DWORD PTR _v0$[ebp]
  00021	e8 00 00 00 00	 call	 ??0D3DXVECTOR4@@QAE@XZ	; D3DXVECTOR4::D3DXVECTOR4

; 561  : 		static xMat m, m0, m1, m2 ;

  00026	a1 00 00 00 00	 mov	 eax, DWORD PTR ?$S5@?1??RotateVectorY@@YAXPAUD3DXVECTOR3@@M0@Z@4IA
  0002b	83 e0 01	 and	 eax, 1
  0002e	85 c0		 test	 eax, eax
  00030	75 17		 jne	 SHORT $L85273
  00032	a1 00 00 00 00	 mov	 eax, DWORD PTR ?$S5@?1??RotateVectorY@@YAXPAUD3DXVECTOR3@@M0@Z@4IA
  00037	83 c8 01	 or	 eax, 1
  0003a	a3 00 00 00 00	 mov	 DWORD PTR ?$S5@?1??RotateVectorY@@YAXPAUD3DXVECTOR3@@M0@Z@4IA, eax
  0003f	b9 00 00 00 00	 mov	 ecx, OFFSET FLAT:?m@?1??RotateVectorY@@YAXPAUD3DXVECTOR3@@M0@Z@4UD3DXMATRIX@@A
  00044	e8 00 00 00 00	 call	 ??0D3DXMATRIX@@QAE@XZ	; D3DXMATRIX::D3DXMATRIX
$L85273:
  00049	a1 00 00 00 00	 mov	 eax, DWORD PTR ?$S5@?1??RotateVectorY@@YAXPAUD3DXVECTOR3@@M0@Z@4IA
  0004e	83 e0 02	 and	 eax, 2
  00051	85 c0		 test	 eax, eax
  00053	75 17		 jne	 SHORT $L85276
  00055	a1 00 00 00 00	 mov	 eax, DWORD PTR ?$S5@?1??RotateVectorY@@YAXPAUD3DXVECTOR3@@M0@Z@4IA
  0005a	83 c8 02	 or	 eax, 2
  0005d	a3 00 00 00 00	 mov	 DWORD PTR ?$S5@?1??RotateVectorY@@YAXPAUD3DXVECTOR3@@M0@Z@4IA, eax
  00062	b9 00 00 00 00	 mov	 ecx, OFFSET FLAT:?m0@?1??RotateVectorY@@YAXPAUD3DXVECTOR3@@M0@Z@4UD3DXMATRIX@@A
  00067	e8 00 00 00 00	 call	 ??0D3DXMATRIX@@QAE@XZ	; D3DXMATRIX::D3DXMATRIX
$L85276:
  0006c	a1 00 00 00 00	 mov	 eax, DWORD PTR ?$S5@?1??RotateVectorY@@YAXPAUD3DXVECTOR3@@M0@Z@4IA
  00071	83 e0 04	 and	 eax, 4
  00074	85 c0		 test	 eax, eax
  00076	75 17		 jne	 SHORT $L85279
  00078	a1 00 00 00 00	 mov	 eax, DWORD PTR ?$S5@?1??RotateVectorY@@YAXPAUD3DXVECTOR3@@M0@Z@4IA
  0007d	83 c8 04	 or	 eax, 4
  00080	a3 00 00 00 00	 mov	 DWORD PTR ?$S5@?1??RotateVectorY@@YAXPAUD3DXVECTOR3@@M0@Z@4IA, eax
  00085	b9 00 00 00 00	 mov	 ecx, OFFSET FLAT:?m1@?1??RotateVectorY@@YAXPAUD3DXVECTOR3@@M0@Z@4UD3DXMATRIX@@A
  0008a	e8 00 00 00 00	 call	 ??0D3DXMATRIX@@QAE@XZ	; D3DXMATRIX::D3DXMATRIX
$L85279:
  0008f	a1 00 00 00 00	 mov	 eax, DWORD PTR ?$S5@?1??RotateVectorY@@YAXPAUD3DXVECTOR3@@M0@Z@4IA
  00094	83 e0 08	 and	 eax, 8
  00097	85 c0		 test	 eax, eax
  00099	75 17		 jne	 SHORT $L85282
  0009b	a1 00 00 00 00	 mov	 eax, DWORD PTR ?$S5@?1??RotateVectorY@@YAXPAUD3DXVECTOR3@@M0@Z@4IA
  000a0	83 c8 08	 or	 eax, 8
  000a3	a3 00 00 00 00	 mov	 DWORD PTR ?$S5@?1??RotateVectorY@@YAXPAUD3DXVECTOR3@@M0@Z@4IA, eax
  000a8	b9 00 00 00 00	 mov	 ecx, OFFSET FLAT:?m2@?1??RotateVectorY@@YAXPAUD3DXVECTOR3@@M0@Z@4UD3DXMATRIX@@A
  000ad	e8 00 00 00 00	 call	 ??0D3DXMATRIX@@QAE@XZ	; D3DXMATRIX::D3DXMATRIX
$L85282:

; 562  : 		static float pn = 0.0f ;
; 563  : 		static xVec3 po ;

  000b2	a1 00 00 00 00	 mov	 eax, DWORD PTR ?$S5@?1??RotateVectorY@@YAXPAUD3DXVECTOR3@@M0@Z@4IA
  000b7	83 e0 10	 and	 eax, 16			; 00000010H
  000ba	85 c0		 test	 eax, eax
  000bc	75 17		 jne	 SHORT $L85287
  000be	a1 00 00 00 00	 mov	 eax, DWORD PTR ?$S5@?1??RotateVectorY@@YAXPAUD3DXVECTOR3@@M0@Z@4IA
  000c3	83 c8 10	 or	 eax, 16			; 00000010H
  000c6	a3 00 00 00 00	 mov	 DWORD PTR ?$S5@?1??RotateVectorY@@YAXPAUD3DXVECTOR3@@M0@Z@4IA, eax
  000cb	b9 00 00 00 00	 mov	 ecx, OFFSET FLAT:?po@?1??RotateVectorY@@YAXPAUD3DXVECTOR3@@M0@Z@4U2@A
  000d0	e8 00 00 00 00	 call	 ??0D3DXVECTOR3@@QAE@XZ	; D3DXVECTOR3::D3DXVECTOR3
$L85287:

; 564  : 
; 565  : 		if (n != pn || po.x != o->x || po.y != o->y || po.z != o->z)

  000d5	d9 45 0c	 fld	 DWORD PTR _n$[ebp]
  000d8	d8 1d 00 00 00
	00		 fcomp	 DWORD PTR ?pn@?1??RotateVectorY@@YAXPAUD3DXVECTOR3@@M0@Z@4MA
  000de	df e0		 fnstsw	 ax
  000e0	f6 c4 44	 test	 ah, 68			; 00000044H
  000e3	7a 3c		 jp	 SHORT $L85289
  000e5	8b 45 10	 mov	 eax, DWORD PTR _o$[ebp]
  000e8	d9 05 00 00 00
	00		 fld	 DWORD PTR ?po@?1??RotateVectorY@@YAXPAUD3DXVECTOR3@@M0@Z@4U2@A
  000ee	d8 18		 fcomp	 DWORD PTR [eax]
  000f0	df e0		 fnstsw	 ax
  000f2	f6 c4 44	 test	 ah, 68			; 00000044H
  000f5	7a 2a		 jp	 SHORT $L85289
  000f7	8b 45 10	 mov	 eax, DWORD PTR _o$[ebp]
  000fa	d9 05 04 00 00
	00		 fld	 DWORD PTR ?po@?1??RotateVectorY@@YAXPAUD3DXVECTOR3@@M0@Z@4U2@A+4
  00100	d8 58 04	 fcomp	 DWORD PTR [eax+4]
  00103	df e0		 fnstsw	 ax
  00105	f6 c4 44	 test	 ah, 68			; 00000044H
  00108	7a 17		 jp	 SHORT $L85289
  0010a	8b 45 10	 mov	 eax, DWORD PTR _o$[ebp]
  0010d	d9 05 08 00 00
	00		 fld	 DWORD PTR ?po@?1??RotateVectorY@@YAXPAUD3DXVECTOR3@@M0@Z@4U2@A+8
  00113	d8 58 08	 fcomp	 DWORD PTR [eax+8]
  00116	df e0		 fnstsw	 ax
  00118	f6 c4 44	 test	 ah, 68			; 00000044H
  0011b	0f 8b ef 00 00
	00		 jnp	 $L85288
$L85289:

; 566  : 		{
; 567  : 			D3DXMatrixTranslation(&m0, -o->x, -o->y, -o->z) ;

  00121	8b 45 10	 mov	 eax, DWORD PTR _o$[ebp]
  00124	d9 40 08	 fld	 DWORD PTR [eax+8]
  00127	d9 e0		 fchs
  00129	51		 push	 ecx
  0012a	d9 1c 24	 fstp	 DWORD PTR [esp]
  0012d	8b 4d 10	 mov	 ecx, DWORD PTR _o$[ebp]
  00130	d9 41 04	 fld	 DWORD PTR [ecx+4]
  00133	d9 e0		 fchs
  00135	51		 push	 ecx
  00136	d9 1c 24	 fstp	 DWORD PTR [esp]
  00139	8b 55 10	 mov	 edx, DWORD PTR _o$[ebp]
  0013c	d9 02		 fld	 DWORD PTR [edx]
  0013e	d9 e0		 fchs
  00140	51		 push	 ecx
  00141	d9 1c 24	 fstp	 DWORD PTR [esp]
  00144	68 00 00 00 00	 push	 OFFSET FLAT:?m0@?1??RotateVectorY@@YAXPAUD3DXVECTOR3@@M0@Z@4UD3DXMATRIX@@A
  00149	e8 00 00 00 00	 call	 _D3DXMatrixTranslation@16

; 568  : 			D3DXMatrixRotationY(&m1, n * g_DEGTORAD) ;

  0014e	d9 45 0c	 fld	 DWORD PTR _n$[ebp]
  00151	d8 0d 00 00 00
	00		 fmul	 DWORD PTR _g_DEGTORAD
  00157	51		 push	 ecx
  00158	d9 1c 24	 fstp	 DWORD PTR [esp]
  0015b	68 00 00 00 00	 push	 OFFSET FLAT:?m1@?1??RotateVectorY@@YAXPAUD3DXVECTOR3@@M0@Z@4UD3DXMATRIX@@A
  00160	e8 00 00 00 00	 call	 _D3DXMatrixRotationY@8

; 569  : 			D3DXMatrixTranslation(&m2, +o->x, +o->y, +o->z) ;

  00165	8b 45 10	 mov	 eax, DWORD PTR _o$[ebp]
  00168	8b 48 08	 mov	 ecx, DWORD PTR [eax+8]
  0016b	51		 push	 ecx
  0016c	8b 55 10	 mov	 edx, DWORD PTR _o$[ebp]
  0016f	8b 42 04	 mov	 eax, DWORD PTR [edx+4]
  00172	50		 push	 eax
  00173	8b 4d 10	 mov	 ecx, DWORD PTR _o$[ebp]
  00176	8b 11		 mov	 edx, DWORD PTR [ecx]
  00178	52		 push	 edx
  00179	68 00 00 00 00	 push	 OFFSET FLAT:?m2@?1??RotateVectorY@@YAXPAUD3DXVECTOR3@@M0@Z@4UD3DXMATRIX@@A
  0017e	e8 00 00 00 00	 call	 _D3DXMatrixTranslation@16

; 570  : 			m = g_matIdent ;

  00183	b9 10 00 00 00	 mov	 ecx, 16			; 00000010H
  00188	be 00 00 00 00	 mov	 esi, OFFSET FLAT:?g_matIdent@@3UD3DXMATRIX@@A ; g_matIdent
  0018d	bf 00 00 00 00	 mov	 edi, OFFSET FLAT:?m@?1??RotateVectorY@@YAXPAUD3DXVECTOR3@@M0@Z@4UD3DXMATRIX@@A
  00192	f3 a5		 rep movsd

; 571  : 			D3DXMatrixMultiply(&m, &m, &m0) ;

  00194	68 00 00 00 00	 push	 OFFSET FLAT:?m0@?1??RotateVectorY@@YAXPAUD3DXVECTOR3@@M0@Z@4UD3DXMATRIX@@A
  00199	68 00 00 00 00	 push	 OFFSET FLAT:?m@?1??RotateVectorY@@YAXPAUD3DXVECTOR3@@M0@Z@4UD3DXMATRIX@@A
  0019e	68 00 00 00 00	 push	 OFFSET FLAT:?m@?1??RotateVectorY@@YAXPAUD3DXVECTOR3@@M0@Z@4UD3DXMATRIX@@A
  001a3	e8 00 00 00 00	 call	 _D3DXMatrixMultiply@12

; 572  : 			D3DXMatrixMultiply(&m, &m, &m1) ;

  001a8	68 00 00 00 00	 push	 OFFSET FLAT:?m1@?1??RotateVectorY@@YAXPAUD3DXVECTOR3@@M0@Z@4UD3DXMATRIX@@A
  001ad	68 00 00 00 00	 push	 OFFSET FLAT:?m@?1??RotateVectorY@@YAXPAUD3DXVECTOR3@@M0@Z@4UD3DXMATRIX@@A
  001b2	68 00 00 00 00	 push	 OFFSET FLAT:?m@?1??RotateVectorY@@YAXPAUD3DXVECTOR3@@M0@Z@4UD3DXMATRIX@@A
  001b7	e8 00 00 00 00	 call	 _D3DXMatrixMultiply@12

; 573  : 			D3DXMatrixMultiply(&m, &m, &m2) ;

  001bc	68 00 00 00 00	 push	 OFFSET FLAT:?m2@?1??RotateVectorY@@YAXPAUD3DXVECTOR3@@M0@Z@4UD3DXMATRIX@@A
  001c1	68 00 00 00 00	 push	 OFFSET FLAT:?m@?1??RotateVectorY@@YAXPAUD3DXVECTOR3@@M0@Z@4UD3DXMATRIX@@A
  001c6	68 00 00 00 00	 push	 OFFSET FLAT:?m@?1??RotateVectorY@@YAXPAUD3DXVECTOR3@@M0@Z@4UD3DXMATRIX@@A
  001cb	e8 00 00 00 00	 call	 _D3DXMatrixMultiply@12

; 574  : 
; 575  : 			pn = n ;

  001d0	8b 45 0c	 mov	 eax, DWORD PTR _n$[ebp]
  001d3	a3 00 00 00 00	 mov	 DWORD PTR ?pn@?1??RotateVectorY@@YAXPAUD3DXVECTOR3@@M0@Z@4MA, eax

; 576  : 			po = xVec3(o->x, o->y, o->z) ;

  001d8	8b 45 10	 mov	 eax, DWORD PTR _o$[ebp]
  001db	8b 48 08	 mov	 ecx, DWORD PTR [eax+8]
  001de	51		 push	 ecx
  001df	8b 55 10	 mov	 edx, DWORD PTR _o$[ebp]
  001e2	8b 42 04	 mov	 eax, DWORD PTR [edx+4]
  001e5	50		 push	 eax
  001e6	8b 4d 10	 mov	 ecx, DWORD PTR _o$[ebp]
  001e9	8b 11		 mov	 edx, DWORD PTR [ecx]
  001eb	52		 push	 edx
  001ec	8d 8d 18 ff ff
	ff		 lea	 ecx, DWORD PTR $T85568[ebp]
  001f2	e8 00 00 00 00	 call	 ??0D3DXVECTOR3@@QAE@MMM@Z ; D3DXVECTOR3::D3DXVECTOR3
  001f7	8b 08		 mov	 ecx, DWORD PTR [eax]
  001f9	89 0d 00 00 00
	00		 mov	 DWORD PTR ?po@?1??RotateVectorY@@YAXPAUD3DXVECTOR3@@M0@Z@4U2@A, ecx
  001ff	8b 50 04	 mov	 edx, DWORD PTR [eax+4]
  00202	89 15 04 00 00
	00		 mov	 DWORD PTR ?po@?1??RotateVectorY@@YAXPAUD3DXVECTOR3@@M0@Z@4U2@A+4, edx
  00208	8b 40 08	 mov	 eax, DWORD PTR [eax+8]
  0020b	a3 08 00 00 00	 mov	 DWORD PTR ?po@?1??RotateVectorY@@YAXPAUD3DXVECTOR3@@M0@Z@4U2@A+8, eax
$L85288:

; 577  : 		}
; 578  : 
; 579  : 		D3DXVec3Transform(&v0, v, &m) ;

  00210	68 00 00 00 00	 push	 OFFSET FLAT:?m@?1??RotateVectorY@@YAXPAUD3DXVECTOR3@@M0@Z@4UD3DXMATRIX@@A
  00215	8b 45 08	 mov	 eax, DWORD PTR _v$[ebp]
  00218	50		 push	 eax
  00219	8d 4d ec	 lea	 ecx, DWORD PTR _v0$[ebp]
  0021c	51		 push	 ecx
  0021d	e8 00 00 00 00	 call	 _D3DXVec3Transform@12

; 580  : 		v->x = v0.x ;

  00222	8b 45 08	 mov	 eax, DWORD PTR _v$[ebp]
  00225	8b 4d ec	 mov	 ecx, DWORD PTR _v0$[ebp]
  00228	89 08		 mov	 DWORD PTR [eax], ecx

; 581  : 		v->y = v0.y ;

  0022a	8b 45 08	 mov	 eax, DWORD PTR _v$[ebp]
  0022d	8b 4d f0	 mov	 ecx, DWORD PTR _v0$[ebp+4]
  00230	89 48 04	 mov	 DWORD PTR [eax+4], ecx

; 582  : 		v->z = v0.z ;

  00233	8b 45 08	 mov	 eax, DWORD PTR _v$[ebp]
  00236	8b 4d f4	 mov	 ecx, DWORD PTR _v0$[ebp+8]
  00239	89 48 08	 mov	 DWORD PTR [eax+8], ecx

; 583  : 	}

  0023c	52		 push	 edx
  0023d	8b cd		 mov	 ecx, ebp
  0023f	50		 push	 eax
  00240	8d 15 00 00 00
	00		 lea	 edx, DWORD PTR $L85571
  00246	e8 00 00 00 00	 call	 @_RTC_CheckStackVars@8
  0024b	58		 pop	 eax
  0024c	5a		 pop	 edx
  0024d	5f		 pop	 edi
  0024e	5e		 pop	 esi
  0024f	5b		 pop	 ebx
  00250	81 c4 ec 00 00
	00		 add	 esp, 236		; 000000ecH
  00256	3b ec		 cmp	 ebp, esp
  00258	e8 00 00 00 00	 call	 __RTC_CheckEsp
  0025d	8b e5		 mov	 esp, ebp
  0025f	5d		 pop	 ebp
  00260	c3		 ret	 0
$L85571:
  00261	01 00 00 00	 DD	 1
  00265	00 00 00 00	 DD	 $L85570
$L85570:
  00269	ec ff ff ff	 DD	 -20			; ffffffecH
  0026d	10 00 00 00	 DD	 16			; 00000010H
  00271	00 00 00 00	 DD	 $L85569
$L85569:
  00275	76		 DB	 118			; 00000076H
  00276	30		 DB	 48			; 00000030H
  00277	00		 DB	 0
?RotateVectorY@@YAXPAUD3DXVECTOR3@@M0@Z ENDP		; RotateVectorY
; Function compile flags: /Odt /RTCsu /ZI
; File c:\dxsdk\include\d3dx8math.inl
_TEXT	ENDS
;	COMDAT ??0D3DXVECTOR3@@QAE@MMM@Z
_TEXT	SEGMENT
_this$ = -8
_fx$ = 8
_fy$ = 12
_fz$ = 16
??0D3DXVECTOR3@@QAE@MMM@Z PROC NEAR			; D3DXVECTOR3::D3DXVECTOR3, COMDAT
; _this$ = ecx

; 179  : {

  00000	55		 push	 ebp
  00001	8b ec		 mov	 ebp, esp
  00003	81 ec cc 00 00
	00		 sub	 esp, 204		; 000000ccH
  00009	53		 push	 ebx
  0000a	56		 push	 esi
  0000b	57		 push	 edi
  0000c	51		 push	 ecx
  0000d	8d bd 34 ff ff
	ff		 lea	 edi, DWORD PTR [ebp-204]
  00013	b9 33 00 00 00	 mov	 ecx, 51			; 00000033H
  00018	b8 cc cc cc cc	 mov	 eax, -858993460		; ccccccccH
  0001d	f3 ab		 rep stosd
  0001f	59		 pop	 ecx
  00020	89 4d f8	 mov	 DWORD PTR _this$[ebp], ecx

; 180  :     x = fx;

  00023	8b 45 f8	 mov	 eax, DWORD PTR _this$[ebp]
  00026	8b 4d 08	 mov	 ecx, DWORD PTR _fx$[ebp]
  00029	89 08		 mov	 DWORD PTR [eax], ecx

; 181  :     y = fy;

  0002b	8b 45 f8	 mov	 eax, DWORD PTR _this$[ebp]
  0002e	8b 4d 0c	 mov	 ecx, DWORD PTR _fy$[ebp]
  00031	89 48 04	 mov	 DWORD PTR [eax+4], ecx

; 182  :     z = fz;

  00034	8b 45 f8	 mov	 eax, DWORD PTR _this$[ebp]
  00037	8b 4d 10	 mov	 ecx, DWORD PTR _fz$[ebp]
  0003a	89 48 08	 mov	 DWORD PTR [eax+8], ecx

; 183  : }

  0003d	8b 45 f8	 mov	 eax, DWORD PTR _this$[ebp]
  00040	5f		 pop	 edi
  00041	5e		 pop	 esi
  00042	5b		 pop	 ebx
  00043	8b e5		 mov	 esp, ebp
  00045	5d		 pop	 ebp
  00046	c2 0c 00	 ret	 12			; 0000000cH
??0D3DXVECTOR3@@QAE@MMM@Z ENDP				; D3DXVECTOR3::D3DXVECTOR3
_TEXT	ENDS
PUBLIC	?RotateVectorZ@@YAXPAUD3DXVECTOR3@@M0@Z		; RotateVectorZ
EXTRN	_D3DXMatrixRotationZ@8:NEAR
_BSS	SEGMENT
?m@?1??RotateVectorZ@@YAXPAUD3DXVECTOR3@@M0@Z@4UD3DXMATRIX@@A DB 040H DUP (?) ; `RotateVectorZ'::`2'::m
?$S6@?1??RotateVectorZ@@YAXPAUD3DXVECTOR3@@M0@Z@4IA DD 01H DUP (?) ; `RotateVectorZ'::`2'::$S6
?m0@?1??RotateVectorZ@@YAXPAUD3DXVECTOR3@@M0@Z@4UD3DXMATRIX@@A DB 040H DUP (?) ; `RotateVectorZ'::`2'::m0
?m1@?1??RotateVectorZ@@YAXPAUD3DXVECTOR3@@M0@Z@4UD3DXMATRIX@@A DB 040H DUP (?) ; `RotateVectorZ'::`2'::m1
?m2@?1??RotateVectorZ@@YAXPAUD3DXVECTOR3@@M0@Z@4UD3DXMATRIX@@A DB 040H DUP (?) ; `RotateVectorZ'::`2'::m2
?po@?1??RotateVectorZ@@YAXPAUD3DXVECTOR3@@M0@Z@4U2@A DB 0cH DUP (?) ; `RotateVectorZ'::`2'::po
; Function compile flags: /Odt /RTCsu /ZI
; File c:\documents and settings\dom\my documents\_dev\ae\xlr8a\x7g\x7_utils.cpp
_BSS	ENDS
;	COMDAT ?RotateVectorZ@@YAXPAUD3DXVECTOR3@@M0@Z
_TEXT	SEGMENT
$T85576 = -232
_v0$ = -20
_v$ = 8
_n$ = 12
_o$ = 16
?RotateVectorZ@@YAXPAUD3DXVECTOR3@@M0@Z PROC NEAR	; RotateVectorZ, COMDAT

; 586  : 	{

  00000	55		 push	 ebp
  00001	8b ec		 mov	 ebp, esp
  00003	81 ec ec 00 00
	00		 sub	 esp, 236		; 000000ecH
  00009	53		 push	 ebx
  0000a	56		 push	 esi
  0000b	57		 push	 edi
  0000c	8d bd 14 ff ff
	ff		 lea	 edi, DWORD PTR [ebp-236]
  00012	b9 3b 00 00 00	 mov	 ecx, 59			; 0000003bH
  00017	b8 cc cc cc cc	 mov	 eax, -858993460		; ccccccccH
  0001c	f3 ab		 rep stosd

; 587  : 		xVec4 v0 ;

  0001e	8d 4d ec	 lea	 ecx, DWORD PTR _v0$[ebp]
  00021	e8 00 00 00 00	 call	 ??0D3DXVECTOR4@@QAE@XZ	; D3DXVECTOR4::D3DXVECTOR4

; 588  : 		static xMat m, m0, m1, m2 ;

  00026	a1 00 00 00 00	 mov	 eax, DWORD PTR ?$S6@?1??RotateVectorZ@@YAXPAUD3DXVECTOR3@@M0@Z@4IA
  0002b	83 e0 01	 and	 eax, 1
  0002e	85 c0		 test	 eax, eax
  00030	75 17		 jne	 SHORT $L85301
  00032	a1 00 00 00 00	 mov	 eax, DWORD PTR ?$S6@?1??RotateVectorZ@@YAXPAUD3DXVECTOR3@@M0@Z@4IA
  00037	83 c8 01	 or	 eax, 1
  0003a	a3 00 00 00 00	 mov	 DWORD PTR ?$S6@?1??RotateVectorZ@@YAXPAUD3DXVECTOR3@@M0@Z@4IA, eax
  0003f	b9 00 00 00 00	 mov	 ecx, OFFSET FLAT:?m@?1??RotateVectorZ@@YAXPAUD3DXVECTOR3@@M0@Z@4UD3DXMATRIX@@A
  00044	e8 00 00 00 00	 call	 ??0D3DXMATRIX@@QAE@XZ	; D3DXMATRIX::D3DXMATRIX
$L85301:
  00049	a1 00 00 00 00	 mov	 eax, DWORD PTR ?$S6@?1??RotateVectorZ@@YAXPAUD3DXVECTOR3@@M0@Z@4IA
  0004e	83 e0 02	 and	 eax, 2
  00051	85 c0		 test	 eax, eax
  00053	75 17		 jne	 SHORT $L85304
  00055	a1 00 00 00 00	 mov	 eax, DWORD PTR ?$S6@?1??RotateVectorZ@@YAXPAUD3DXVECTOR3@@M0@Z@4IA
  0005a	83 c8 02	 or	 eax, 2
  0005d	a3 00 00 00 00	 mov	 DWORD PTR ?$S6@?1??RotateVectorZ@@YAXPAUD3DXVECTOR3@@M0@Z@4IA, eax
  00062	b9 00 00 00 00	 mov	 ecx, OFFSET FLAT:?m0@?1??RotateVectorZ@@YAXPAUD3DXVECTOR3@@M0@Z@4UD3DXMATRIX@@A
  00067	e8 00 00 00 00	 call	 ??0D3DXMATRIX@@QAE@XZ	; D3DXMATRIX::D3DXMATRIX
$L85304:
  0006c	a1 00 00 00 00	 mov	 eax, DWORD PTR ?$S6@?1??RotateVectorZ@@YAXPAUD3DXVECTOR3@@M0@Z@4IA
  00071	83 e0 04	 and	 eax, 4
  00074	85 c0		 test	 eax, eax
  00076	75 17		 jne	 SHORT $L85307
  00078	a1 00 00 00 00	 mov	 eax, DWORD PTR ?$S6@?1??RotateVectorZ@@YAXPAUD3DXVECTOR3@@M0@Z@4IA
  0007d	83 c8 04	 or	 eax, 4
  00080	a3 00 00 00 00	 mov	 DWORD PTR ?$S6@?1??RotateVectorZ@@YAXPAUD3DXVECTOR3@@M0@Z@4IA, eax
  00085	b9 00 00 00 00	 mov	 ecx, OFFSET FLAT:?m1@?1??RotateVectorZ@@YAXPAUD3DXVECTOR3@@M0@Z@4UD3DXMATRIX@@A
  0008a	e8 00 00 00 00	 call	 ??0D3DXMATRIX@@QAE@XZ	; D3DXMATRIX::D3DXMATRIX
$L85307:
  0008f	a1 00 00 00 00	 mov	 eax, DWORD PTR ?$S6@?1??RotateVectorZ@@YAXPAUD3DXVECTOR3@@M0@Z@4IA
  00094	83 e0 08	 and	 eax, 8
  00097	85 c0		 test	 eax, eax
  00099	75 17		 jne	 SHORT $L85310
  0009b	a1 00 00 00 00	 mov	 eax, DWORD PTR ?$S6@?1??RotateVectorZ@@YAXPAUD3DXVECTOR3@@M0@Z@4IA
  000a0	83 c8 08	 or	 eax, 8
  000a3	a3 00 00 00 00	 mov	 DWORD PTR ?$S6@?1??RotateVectorZ@@YAXPAUD3DXVECTOR3@@M0@Z@4IA, eax
  000a8	b9 00 00 00 00	 mov	 ecx, OFFSET FLAT:?m2@?1??RotateVectorZ@@YAXPAUD3DXVECTOR3@@M0@Z@4UD3DXMATRIX@@A
  000ad	e8 00 00 00 00	 call	 ??0D3DXMATRIX@@QAE@XZ	; D3DXMATRIX::D3DXMATRIX
$L85310:

; 589  : 		static float pn = 0.0f ;
; 590  : 		static xVec3 po ;

  000b2	a1 00 00 00 00	 mov	 eax, DWORD PTR ?$S6@?1??RotateVectorZ@@YAXPAUD3DXVECTOR3@@M0@Z@4IA
  000b7	83 e0 10	 and	 eax, 16			; 00000010H
  000ba	85 c0		 test	 eax, eax
  000bc	75 17		 jne	 SHORT $L85315
  000be	a1 00 00 00 00	 mov	 eax, DWORD PTR ?$S6@?1??RotateVectorZ@@YAXPAUD3DXVECTOR3@@M0@Z@4IA
  000c3	83 c8 10	 or	 eax, 16			; 00000010H
  000c6	a3 00 00 00 00	 mov	 DWORD PTR ?$S6@?1??RotateVectorZ@@YAXPAUD3DXVECTOR3@@M0@Z@4IA, eax
  000cb	b9 00 00 00 00	 mov	 ecx, OFFSET FLAT:?po@?1??RotateVectorZ@@YAXPAUD3DXVECTOR3@@M0@Z@4U2@A
  000d0	e8 00 00 00 00	 call	 ??0D3DXVECTOR3@@QAE@XZ	; D3DXVECTOR3::D3DXVECTOR3
$L85315:

; 591  : 
; 592  : 		if (n != pn || po.x != o->x || po.y != o->y || po.z != o->z)

  000d5	d9 45 0c	 fld	 DWORD PTR _n$[ebp]
  000d8	d8 1d 00 00 00
	00		 fcomp	 DWORD PTR ?pn@?1??RotateVectorZ@@YAXPAUD3DXVECTOR3@@M0@Z@4MA
  000de	df e0		 fnstsw	 ax
  000e0	f6 c4 44	 test	 ah, 68			; 00000044H
  000e3	7a 3c		 jp	 SHORT $L85317
  000e5	8b 45 10	 mov	 eax, DWORD PTR _o$[ebp]
  000e8	d9 05 00 00 00
	00		 fld	 DWORD PTR ?po@?1??RotateVectorZ@@YAXPAUD3DXVECTOR3@@M0@Z@4U2@A
  000ee	d8 18		 fcomp	 DWORD PTR [eax]
  000f0	df e0		 fnstsw	 ax
  000f2	f6 c4 44	 test	 ah, 68			; 00000044H
  000f5	7a 2a		 jp	 SHORT $L85317
  000f7	8b 45 10	 mov	 eax, DWORD PTR _o$[ebp]
  000fa	d9 05 04 00 00
	00		 fld	 DWORD PTR ?po@?1??RotateVectorZ@@YAXPAUD3DXVECTOR3@@M0@Z@4U2@A+4
  00100	d8 58 04	 fcomp	 DWORD PTR [eax+4]
  00103	df e0		 fnstsw	 ax
  00105	f6 c4 44	 test	 ah, 68			; 00000044H
  00108	7a 17		 jp	 SHORT $L85317
  0010a	8b 45 10	 mov	 eax, DWORD PTR _o$[ebp]
  0010d	d9 05 08 00 00
	00		 fld	 DWORD PTR ?po@?1??RotateVectorZ@@YAXPAUD3DXVECTOR3@@M0@Z@4U2@A+8
  00113	d8 58 08	 fcomp	 DWORD PTR [eax+8]
  00116	df e0		 fnstsw	 ax
  00118	f6 c4 44	 test	 ah, 68			; 00000044H
  0011b	0f 8b ef 00 00
	00		 jnp	 $L85316
$L85317:

; 593  : 		{
; 594  : 			D3DXMatrixTranslation(&m0, -o->x, -o->y, -o->z) ;

  00121	8b 45 10	 mov	 eax, DWORD PTR _o$[ebp]
  00124	d9 40 08	 fld	 DWORD PTR [eax+8]
  00127	d9 e0		 fchs
  00129	51		 push	 ecx
  0012a	d9 1c 24	 fstp	 DWORD PTR [esp]
  0012d	8b 4d 10	 mov	 ecx, DWORD PTR _o$[ebp]
  00130	d9 41 04	 fld	 DWORD PTR [ecx+4]
  00133	d9 e0		 fchs
  00135	51		 push	 ecx
  00136	d9 1c 24	 fstp	 DWORD PTR [esp]
  00139	8b 55 10	 mov	 edx, DWORD PTR _o$[ebp]
  0013c	d9 02		 fld	 DWORD PTR [edx]
  0013e	d9 e0		 fchs
  00140	51		 push	 ecx
  00141	d9 1c 24	 fstp	 DWORD PTR [esp]
  00144	68 00 00 00 00	 push	 OFFSET FLAT:?m0@?1??RotateVectorZ@@YAXPAUD3DXVECTOR3@@M0@Z@4UD3DXMATRIX@@A
  00149	e8 00 00 00 00	 call	 _D3DXMatrixTranslation@16

; 595  : 			D3DXMatrixRotationZ(&m1, n * g_DEGTORAD) ;

  0014e	d9 45 0c	 fld	 DWORD PTR _n$[ebp]
  00151	d8 0d 00 00 00
	00		 fmul	 DWORD PTR _g_DEGTORAD
  00157	51		 push	 ecx
  00158	d9 1c 24	 fstp	 DWORD PTR [esp]
  0015b	68 00 00 00 00	 push	 OFFSET FLAT:?m1@?1??RotateVectorZ@@YAXPAUD3DXVECTOR3@@M0@Z@4UD3DXMATRIX@@A
  00160	e8 00 00 00 00	 call	 _D3DXMatrixRotationZ@8

; 596  : 			D3DXMatrixTranslation(&m2, +o->x, +o->y, +o->z) ;

  00165	8b 45 10	 mov	 eax, DWORD PTR _o$[ebp]
  00168	8b 48 08	 mov	 ecx, DWORD PTR [eax+8]
  0016b	51		 push	 ecx
  0016c	8b 55 10	 mov	 edx, DWORD PTR _o$[ebp]
  0016f	8b 42 04	 mov	 eax, DWORD PTR [edx+4]
  00172	50		 push	 eax
  00173	8b 4d 10	 mov	 ecx, DWORD PTR _o$[ebp]
  00176	8b 11		 mov	 edx, DWORD PTR [ecx]
  00178	52		 push	 edx
  00179	68 00 00 00 00	 push	 OFFSET FLAT:?m2@?1??RotateVectorZ@@YAXPAUD3DXVECTOR3@@M0@Z@4UD3DXMATRIX@@A
  0017e	e8 00 00 00 00	 call	 _D3DXMatrixTranslation@16

; 597  : 			m = g_matIdent ;

  00183	b9 10 00 00 00	 mov	 ecx, 16			; 00000010H
  00188	be 00 00 00 00	 mov	 esi, OFFSET FLAT:?g_matIdent@@3UD3DXMATRIX@@A ; g_matIdent
  0018d	bf 00 00 00 00	 mov	 edi, OFFSET FLAT:?m@?1??RotateVectorZ@@YAXPAUD3DXVECTOR3@@M0@Z@4UD3DXMATRIX@@A
  00192	f3 a5		 rep movsd

; 598  : 			D3DXMatrixMultiply(&m, &m, &m0) ;

  00194	68 00 00 00 00	 push	 OFFSET FLAT:?m0@?1??RotateVectorZ@@YAXPAUD3DXVECTOR3@@M0@Z@4UD3DXMATRIX@@A
  00199	68 00 00 00 00	 push	 OFFSET FLAT:?m@?1??RotateVectorZ@@YAXPAUD3DXVECTOR3@@M0@Z@4UD3DXMATRIX@@A
  0019e	68 00 00 00 00	 push	 OFFSET FLAT:?m@?1??RotateVectorZ@@YAXPAUD3DXVECTOR3@@M0@Z@4UD3DXMATRIX@@A
  001a3	e8 00 00 00 00	 call	 _D3DXMatrixMultiply@12

; 599  : 			D3DXMatrixMultiply(&m, &m, &m1) ;

  001a8	68 00 00 00 00	 push	 OFFSET FLAT:?m1@?1??RotateVectorZ@@YAXPAUD3DXVECTOR3@@M0@Z@4UD3DXMATRIX@@A
  001ad	68 00 00 00 00	 push	 OFFSET FLAT:?m@?1??RotateVectorZ@@YAXPAUD3DXVECTOR3@@M0@Z@4UD3DXMATRIX@@A
  001b2	68 00 00 00 00	 push	 OFFSET FLAT:?m@?1??RotateVectorZ@@YAXPAUD3DXVECTOR3@@M0@Z@4UD3DXMATRIX@@A
  001b7	e8 00 00 00 00	 call	 _D3DXMatrixMultiply@12

; 600  : 			D3DXMatrixMultiply(&m, &m, &m2) ;

  001bc	68 00 00 00 00	 push	 OFFSET FLAT:?m2@?1??RotateVectorZ@@YAXPAUD3DXVECTOR3@@M0@Z@4UD3DXMATRIX@@A
  001c1	68 00 00 00 00	 push	 OFFSET FLAT:?m@?1??RotateVectorZ@@YAXPAUD3DXVECTOR3@@M0@Z@4UD3DXMATRIX@@A
  001c6	68 00 00 00 00	 push	 OFFSET FLAT:?m@?1??RotateVectorZ@@YAXPAUD3DXVECTOR3@@M0@Z@4UD3DXMATRIX@@A
  001cb	e8 00 00 00 00	 call	 _D3DXMatrixMultiply@12

; 601  : 
; 602  : 			pn = n ;

  001d0	8b 45 0c	 mov	 eax, DWORD PTR _n$[ebp]
  001d3	a3 00 00 00 00	 mov	 DWORD PTR ?pn@?1??RotateVectorZ@@YAXPAUD3DXVECTOR3@@M0@Z@4MA, eax

; 603  : 			po = xVec3(o->x, o->y, o->z) ;

  001d8	8b 45 10	 mov	 eax, DWORD PTR _o$[ebp]
  001db	8b 48 08	 mov	 ecx, DWORD PTR [eax+8]
  001de	51		 push	 ecx
  001df	8b 55 10	 mov	 edx, DWORD PTR _o$[ebp]
  001e2	8b 42 04	 mov	 eax, DWORD PTR [edx+4]
  001e5	50		 push	 eax
  001e6	8b 4d 10	 mov	 ecx, DWORD PTR _o$[ebp]
  001e9	8b 11		 mov	 edx, DWORD PTR [ecx]
  001eb	52		 push	 edx
  001ec	8d 8d 18 ff ff
	ff		 lea	 ecx, DWORD PTR $T85576[ebp]
  001f2	e8 00 00 00 00	 call	 ??0D3DXVECTOR3@@QAE@MMM@Z ; D3DXVECTOR3::D3DXVECTOR3
  001f7	8b 08		 mov	 ecx, DWORD PTR [eax]
  001f9	89 0d 00 00 00
	00		 mov	 DWORD PTR ?po@?1??RotateVectorZ@@YAXPAUD3DXVECTOR3@@M0@Z@4U2@A, ecx
  001ff	8b 50 04	 mov	 edx, DWORD PTR [eax+4]
  00202	89 15 04 00 00
	00		 mov	 DWORD PTR ?po@?1??RotateVectorZ@@YAXPAUD3DXVECTOR3@@M0@Z@4U2@A+4, edx
  00208	8b 40 08	 mov	 eax, DWORD PTR [eax+8]
  0020b	a3 08 00 00 00	 mov	 DWORD PTR ?po@?1??RotateVectorZ@@YAXPAUD3DXVECTOR3@@M0@Z@4U2@A+8, eax
$L85316:

; 604  : 		}
; 605  : 
; 606  : 		D3DXVec3Transform(&v0, v, &m) ;

  00210	68 00 00 00 00	 push	 OFFSET FLAT:?m@?1??RotateVectorZ@@YAXPAUD3DXVECTOR3@@M0@Z@4UD3DXMATRIX@@A
  00215	8b 45 08	 mov	 eax, DWORD PTR _v$[ebp]
  00218	50		 push	 eax
  00219	8d 4d ec	 lea	 ecx, DWORD PTR _v0$[ebp]
  0021c	51		 push	 ecx
  0021d	e8 00 00 00 00	 call	 _D3DXVec3Transform@12

; 607  : 		v->x = v0.x ;

  00222	8b 45 08	 mov	 eax, DWORD PTR _v$[ebp]
  00225	8b 4d ec	 mov	 ecx, DWORD PTR _v0$[ebp]
  00228	89 08		 mov	 DWORD PTR [eax], ecx

; 608  : 		v->y = v0.y ;

  0022a	8b 45 08	 mov	 eax, DWORD PTR _v$[ebp]
  0022d	8b 4d f0	 mov	 ecx, DWORD PTR _v0$[ebp+4]
  00230	89 48 04	 mov	 DWORD PTR [eax+4], ecx

; 609  : 		v->z = v0.z ;

  00233	8b 45 08	 mov	 eax, DWORD PTR _v$[ebp]
  00236	8b 4d f4	 mov	 ecx, DWORD PTR _v0$[ebp+8]
  00239	89 48 08	 mov	 DWORD PTR [eax+8], ecx

; 610  : 	}

  0023c	52		 push	 edx
  0023d	8b cd		 mov	 ecx, ebp
  0023f	50		 push	 eax
  00240	8d 15 00 00 00
	00		 lea	 edx, DWORD PTR $L85579
  00246	e8 00 00 00 00	 call	 @_RTC_CheckStackVars@8
  0024b	58		 pop	 eax
  0024c	5a		 pop	 edx
  0024d	5f		 pop	 edi
  0024e	5e		 pop	 esi
  0024f	5b		 pop	 ebx
  00250	81 c4 ec 00 00
	00		 add	 esp, 236		; 000000ecH
  00256	3b ec		 cmp	 ebp, esp
  00258	e8 00 00 00 00	 call	 __RTC_CheckEsp
  0025d	8b e5		 mov	 esp, ebp
  0025f	5d		 pop	 ebp
  00260	c3		 ret	 0
$L85579:
  00261	01 00 00 00	 DD	 1
  00265	00 00 00 00	 DD	 $L85578
$L85578:
  00269	ec ff ff ff	 DD	 -20			; ffffffecH
  0026d	10 00 00 00	 DD	 16			; 00000010H
  00271	00 00 00 00	 DD	 $L85577
$L85577:
  00275	76		 DB	 118			; 00000076H
  00276	30		 DB	 48			; 00000030H
  00277	00		 DB	 0
?RotateVectorZ@@YAXPAUD3DXVECTOR3@@M0@Z ENDP		; RotateVectorZ
_TEXT	ENDS
PUBLIC	?SetKey@@YAXHH@Z				; SetKey
EXTRN	__imp__GetKeyState@4:NEAR
EXTRN	__imp__keybd_event@16:NEAR
; Function compile flags: /Odt /RTCsu /ZI
;	COMDAT ?SetKey@@YAXHH@Z
_TEXT	SEGMENT
_VK$ = 8
_b$ = 12
?SetKey@@YAXHH@Z PROC NEAR				; SetKey, COMDAT

; 769  : {

  00000	55		 push	 ebp
  00001	8b ec		 mov	 ebp, esp
  00003	81 ec c0 00 00
	00		 sub	 esp, 192		; 000000c0H
  00009	53		 push	 ebx
  0000a	56		 push	 esi
  0000b	57		 push	 edi
  0000c	8d bd 40 ff ff
	ff		 lea	 edi, DWORD PTR [ebp-192]
  00012	b9 30 00 00 00	 mov	 ecx, 48			; 00000030H
  00017	b8 cc cc cc cc	 mov	 eax, -858993460		; ccccccccH
  0001c	f3 ab		 rep stosd

; 770  : 	if( b )

  0001e	83 7d 0c 00	 cmp	 DWORD PTR _b$[ebp], 0
  00022	74 1e		 je	 SHORT $L85323

; 771  : 	{
; 772  : 		if(  GetKeyState( VK ) ) return ;

  00024	8b f4		 mov	 esi, esp
  00026	8b 45 08	 mov	 eax, DWORD PTR _VK$[ebp]
  00029	50		 push	 eax
  0002a	ff 15 00 00 00
	00		 call	 DWORD PTR __imp__GetKeyState@4
  00030	3b f4		 cmp	 esi, esp
  00032	e8 00 00 00 00	 call	 __RTC_CheckEsp
  00037	0f bf c8	 movsx	 ecx, ax
  0003a	85 c9		 test	 ecx, ecx
  0003c	74 02		 je	 SHORT $L85324
  0003e	eb 50		 jmp	 SHORT $L85322
$L85324:

; 773  : 	}
; 774  : 	else

  00040	eb 1c		 jmp	 SHORT $L85325
$L85323:

; 775  : 	{
; 776  : 		if( !GetKeyState( VK ) ) return ;

  00042	8b f4		 mov	 esi, esp
  00044	8b 45 08	 mov	 eax, DWORD PTR _VK$[ebp]
  00047	50		 push	 eax
  00048	ff 15 00 00 00
	00		 call	 DWORD PTR __imp__GetKeyState@4
  0004e	3b f4		 cmp	 esi, esp
  00050	e8 00 00 00 00	 call	 __RTC_CheckEsp
  00055	0f bf c8	 movsx	 ecx, ax
  00058	85 c9		 test	 ecx, ecx
  0005a	75 02		 jne	 SHORT $L85325
  0005c	eb 32		 jmp	 SHORT $L85322
$L85325:

; 777  : 	}
; 778  : 	keybd_event( VK, 0, 0, 0 );

  0005e	8b f4		 mov	 esi, esp
  00060	6a 00		 push	 0
  00062	6a 00		 push	 0
  00064	6a 00		 push	 0
  00066	8a 45 08	 mov	 al, BYTE PTR _VK$[ebp]
  00069	50		 push	 eax
  0006a	ff 15 00 00 00
	00		 call	 DWORD PTR __imp__keybd_event@16
  00070	3b f4		 cmp	 esi, esp
  00072	e8 00 00 00 00	 call	 __RTC_CheckEsp

; 779  : 	keybd_event( VK, 0, KEYEVENTF_KEYUP, 0 );

  00077	8b f4		 mov	 esi, esp
  00079	6a 00		 push	 0
  0007b	6a 02		 push	 2
  0007d	6a 00		 push	 0
  0007f	8a 45 08	 mov	 al, BYTE PTR _VK$[ebp]
  00082	50		 push	 eax
  00083	ff 15 00 00 00
	00		 call	 DWORD PTR __imp__keybd_event@16
  00089	3b f4		 cmp	 esi, esp
  0008b	e8 00 00 00 00	 call	 __RTC_CheckEsp
$L85322:

; 780  : }

  00090	5f		 pop	 edi
  00091	5e		 pop	 esi
  00092	5b		 pop	 ebx
  00093	81 c4 c0 00 00
	00		 add	 esp, 192		; 000000c0H
  00099	3b ec		 cmp	 ebp, esp
  0009b	e8 00 00 00 00	 call	 __RTC_CheckEsp
  000a0	8b e5		 mov	 esp, ebp
  000a2	5d		 pop	 ebp
  000a3	c3		 ret	 0
?SetKey@@YAXHH@Z ENDP					; SetKey
; Function compile flags: /Odt /RTCsu /ZI
; File c:\dxsdk\include\d3dx8math.inl
_TEXT	ENDS
;	COMDAT ??HD3DXVECTOR3@@QBE?AU0@ABU0@@Z
_TEXT	SEGMENT
_this$ = -8
___$ReturnUdt$ = 8
_v$ = 12
??HD3DXVECTOR3@@QBE?AU0@ABU0@@Z PROC NEAR		; D3DXVECTOR3::operator+, COMDAT
; _this$ = ecx

; 256  : {

  00000	55		 push	 ebp
  00001	8b ec		 mov	 ebp, esp
  00003	81 ec cc 00 00
	00		 sub	 esp, 204		; 000000ccH
  00009	53		 push	 ebx
  0000a	56		 push	 esi
  0000b	57		 push	 edi
  0000c	51		 push	 ecx
  0000d	8d bd 34 ff ff
	ff		 lea	 edi, DWORD PTR [ebp-204]
  00013	b9 33 00 00 00	 mov	 ecx, 51			; 00000033H
  00018	b8 cc cc cc cc	 mov	 eax, -858993460		; ccccccccH
  0001d	f3 ab		 rep stosd
  0001f	59		 pop	 ecx
  00020	89 4d f8	 mov	 DWORD PTR _this$[ebp], ecx

; 257  :     return D3DXVECTOR3(x + v.x, y + v.y, z + v.z);

  00023	8b 45 f8	 mov	 eax, DWORD PTR _this$[ebp]
  00026	8b 4d 0c	 mov	 ecx, DWORD PTR _v$[ebp]
  00029	d9 40 08	 fld	 DWORD PTR [eax+8]
  0002c	d8 41 08	 fadd	 DWORD PTR [ecx+8]
  0002f	51		 push	 ecx
  00030	d9 1c 24	 fstp	 DWORD PTR [esp]
  00033	8b 55 f8	 mov	 edx, DWORD PTR _this$[ebp]
  00036	8b 45 0c	 mov	 eax, DWORD PTR _v$[ebp]
  00039	d9 42 04	 fld	 DWORD PTR [edx+4]
  0003c	d8 40 04	 fadd	 DWORD PTR [eax+4]
  0003f	51		 push	 ecx
  00040	d9 1c 24	 fstp	 DWORD PTR [esp]
  00043	8b 4d f8	 mov	 ecx, DWORD PTR _this$[ebp]
  00046	8b 55 0c	 mov	 edx, DWORD PTR _v$[ebp]
  00049	d9 01		 fld	 DWORD PTR [ecx]
  0004b	d8 02		 fadd	 DWORD PTR [edx]
  0004d	51		 push	 ecx
  0004e	d9 1c 24	 fstp	 DWORD PTR [esp]
  00051	8b 4d 08	 mov	 ecx, DWORD PTR ___$ReturnUdt$[ebp]
  00054	e8 00 00 00 00	 call	 ??0D3DXVECTOR3@@QAE@MMM@Z ; D3DXVECTOR3::D3DXVECTOR3
  00059	8b 45 08	 mov	 eax, DWORD PTR ___$ReturnUdt$[ebp]

; 258  : }

  0005c	5f		 pop	 edi
  0005d	5e		 pop	 esi
  0005e	5b		 pop	 ebx
  0005f	81 c4 cc 00 00
	00		 add	 esp, 204		; 000000ccH
  00065	3b ec		 cmp	 ebp, esp
  00067	e8 00 00 00 00	 call	 __RTC_CheckEsp
  0006c	8b e5		 mov	 esp, ebp
  0006e	5d		 pop	 ebp
  0006f	c2 08 00	 ret	 8
??HD3DXVECTOR3@@QBE?AU0@ABU0@@Z ENDP			; D3DXVECTOR3::operator+
; Function compile flags: /Odt /RTCsu /ZI
_TEXT	ENDS
;	COMDAT ??GD3DXVECTOR3@@QBE?AU0@ABU0@@Z
_TEXT	SEGMENT
_this$ = -8
___$ReturnUdt$ = 8
_v$ = 12
??GD3DXVECTOR3@@QBE?AU0@ABU0@@Z PROC NEAR		; D3DXVECTOR3::operator-, COMDAT
; _this$ = ecx

; 262  : {

  00000	55		 push	 ebp
  00001	8b ec		 mov	 ebp, esp
  00003	81 ec cc 00 00
	00		 sub	 esp, 204		; 000000ccH
  00009	53		 push	 ebx
  0000a	56		 push	 esi
  0000b	57		 push	 edi
  0000c	51		 push	 ecx
  0000d	8d bd 34 ff ff
	ff		 lea	 edi, DWORD PTR [ebp-204]
  00013	b9 33 00 00 00	 mov	 ecx, 51			; 00000033H
  00018	b8 cc cc cc cc	 mov	 eax, -858993460		; ccccccccH
  0001d	f3 ab		 rep stosd
  0001f	59		 pop	 ecx
  00020	89 4d f8	 mov	 DWORD PTR _this$[ebp], ecx

; 263  :     return D3DXVECTOR3(x - v.x, y - v.y, z - v.z);

  00023	8b 45 f8	 mov	 eax, DWORD PTR _this$[ebp]
  00026	8b 4d 0c	 mov	 ecx, DWORD PTR _v$[ebp]
  00029	d9 40 08	 fld	 DWORD PTR [eax+8]
  0002c	d8 61 08	 fsub	 DWORD PTR [ecx+8]
  0002f	51		 push	 ecx
  00030	d9 1c 24	 fstp	 DWORD PTR [esp]
  00033	8b 55 f8	 mov	 edx, DWORD PTR _this$[ebp]
  00036	8b 45 0c	 mov	 eax, DWORD PTR _v$[ebp]
  00039	d9 42 04	 fld	 DWORD PTR [edx+4]
  0003c	d8 60 04	 fsub	 DWORD PTR [eax+4]
  0003f	51		 push	 ecx
  00040	d9 1c 24	 fstp	 DWORD PTR [esp]
  00043	8b 4d f8	 mov	 ecx, DWORD PTR _this$[ebp]
  00046	8b 55 0c	 mov	 edx, DWORD PTR _v$[ebp]
  00049	d9 01		 fld	 DWORD PTR [ecx]
  0004b	d8 22		 fsub	 DWORD PTR [edx]
  0004d	51		 push	 ecx
  0004e	d9 1c 24	 fstp	 DWORD PTR [esp]
  00051	8b 4d 08	 mov	 ecx, DWORD PTR ___$ReturnUdt$[ebp]
  00054	e8 00 00 00 00	 call	 ??0D3DXVECTOR3@@QAE@MMM@Z ; D3DXVECTOR3::D3DXVECTOR3
  00059	8b 45 08	 mov	 eax, DWORD PTR ___$ReturnUdt$[ebp]

; 264  : }

  0005c	5f		 pop	 edi
  0005d	5e		 pop	 esi
  0005e	5b		 pop	 ebx
  0005f	81 c4 cc 00 00
	00		 add	 esp, 204		; 000000ccH
  00065	3b ec		 cmp	 ebp, esp
  00067	e8 00 00 00 00	 call	 __RTC_CheckEsp
  0006c	8b e5		 mov	 esp, ebp
  0006e	5d		 pop	 ebp
  0006f	c2 08 00	 ret	 8
??GD3DXVECTOR3@@QBE?AU0@ABU0@@Z ENDP			; D3DXVECTOR3::operator-
_TEXT	ENDS
PUBLIC	__real@3f800000
;	COMDAT __real@3f800000
CONST	SEGMENT
__real@3f800000 DD 03f800000r			; 1
; Function compile flags: /Odt /RTCsu /ZI
CONST	ENDS
;	COMDAT ??KD3DXVECTOR3@@QBE?AU0@M@Z
_TEXT	SEGMENT
_fInv$ = -20
_this$ = -8
___$ReturnUdt$ = 8
_f$ = 12
??KD3DXVECTOR3@@QBE?AU0@M@Z PROC NEAR			; D3DXVECTOR3::operator/, COMDAT
; _this$ = ecx

; 274  : {

  00000	55		 push	 ebp
  00001	8b ec		 mov	 ebp, esp
  00003	81 ec d8 00 00
	00		 sub	 esp, 216		; 000000d8H
  00009	53		 push	 ebx
  0000a	56		 push	 esi
  0000b	57		 push	 edi
  0000c	51		 push	 ecx
  0000d	8d bd 28 ff ff
	ff		 lea	 edi, DWORD PTR [ebp-216]
  00013	b9 36 00 00 00	 mov	 ecx, 54			; 00000036H
  00018	b8 cc cc cc cc	 mov	 eax, -858993460		; ccccccccH
  0001d	f3 ab		 rep stosd
  0001f	59		 pop	 ecx
  00020	89 4d f8	 mov	 DWORD PTR _this$[ebp], ecx

; 275  :     FLOAT fInv = 1.0f / f;

  00023	d9 05 00 00 00
	00		 fld	 DWORD PTR __real@3f800000
  00029	d8 75 0c	 fdiv	 DWORD PTR _f$[ebp]
  0002c	d9 5d ec	 fstp	 DWORD PTR _fInv$[ebp]

; 276  :     return D3DXVECTOR3(x * fInv, y * fInv, z * fInv);

  0002f	8b 45 f8	 mov	 eax, DWORD PTR _this$[ebp]
  00032	d9 45 ec	 fld	 DWORD PTR _fInv$[ebp]
  00035	d8 48 08	 fmul	 DWORD PTR [eax+8]
  00038	51		 push	 ecx
  00039	d9 1c 24	 fstp	 DWORD PTR [esp]
  0003c	8b 4d f8	 mov	 ecx, DWORD PTR _this$[ebp]
  0003f	d9 45 ec	 fld	 DWORD PTR _fInv$[ebp]
  00042	d8 49 04	 fmul	 DWORD PTR [ecx+4]
  00045	51		 push	 ecx
  00046	d9 1c 24	 fstp	 DWORD PTR [esp]
  00049	8b 55 f8	 mov	 edx, DWORD PTR _this$[ebp]
  0004c	d9 45 ec	 fld	 DWORD PTR _fInv$[ebp]
  0004f	d8 0a		 fmul	 DWORD PTR [edx]
  00051	51		 push	 ecx
  00052	d9 1c 24	 fstp	 DWORD PTR [esp]
  00055	8b 4d 08	 mov	 ecx, DWORD PTR ___$ReturnUdt$[ebp]
  00058	e8 00 00 00 00	 call	 ??0D3DXVECTOR3@@QAE@MMM@Z ; D3DXVECTOR3::D3DXVECTOR3
  0005d	8b 45 08	 mov	 eax, DWORD PTR ___$ReturnUdt$[ebp]

; 277  : }

  00060	5f		 pop	 edi
  00061	5e		 pop	 esi
  00062	5b		 pop	 ebx
  00063	81 c4 d8 00 00
	00		 add	 esp, 216		; 000000d8H
  00069	3b ec		 cmp	 ebp, esp
  0006b	e8 00 00 00 00	 call	 __RTC_CheckEsp
  00070	8b e5		 mov	 esp, ebp
  00072	5d		 pop	 ebp
  00073	c2 08 00	 ret	 8
??KD3DXVECTOR3@@QBE?AU0@M@Z ENDP			; D3DXVECTOR3::operator/
; Function compile flags: /Odt /RTCsu /ZI
_TEXT	ENDS
;	COMDAT ?D3DXVec3Length@@YAMPBUD3DXVECTOR3@@@Z
_TEXT	SEGMENT
_pV$ = 8
?D3DXVec3Length@@YAMPBUD3DXVECTOR3@@@Z PROC NEAR	; D3DXVec3Length, COMDAT

; 1232 : {

  00000	55		 push	 ebp
  00001	8b ec		 mov	 ebp, esp
  00003	81 ec c0 00 00
	00		 sub	 esp, 192		; 000000c0H
  00009	53		 push	 ebx
  0000a	56		 push	 esi
  0000b	57		 push	 edi
  0000c	8d bd 40 ff ff
	ff		 lea	 edi, DWORD PTR [ebp-192]
  00012	b9 30 00 00 00	 mov	 ecx, 48			; 00000030H
  00017	b8 cc cc cc cc	 mov	 eax, -858993460		; ccccccccH
  0001c	f3 ab		 rep stosd

; 1233 : #ifdef D3DX_DEBUG
; 1234 :     if(!pV)
; 1235 :         return 0.0f;
; 1236 : #endif
; 1237 : 
; 1238 : #ifdef __cplusplus
; 1239 :     return sqrtf(pV->x * pV->x + pV->y * pV->y + pV->z * pV->z);

  0001e	8b 45 08	 mov	 eax, DWORD PTR _pV$[ebp]
  00021	8b 4d 08	 mov	 ecx, DWORD PTR _pV$[ebp]
  00024	d9 00		 fld	 DWORD PTR [eax]
  00026	d8 09		 fmul	 DWORD PTR [ecx]
  00028	8b 55 08	 mov	 edx, DWORD PTR _pV$[ebp]
  0002b	8b 45 08	 mov	 eax, DWORD PTR _pV$[ebp]
  0002e	d9 42 04	 fld	 DWORD PTR [edx+4]
  00031	d8 48 04	 fmul	 DWORD PTR [eax+4]
  00034	de c1		 faddp	 ST(1), ST(0)
  00036	8b 4d 08	 mov	 ecx, DWORD PTR _pV$[ebp]
  00039	8b 55 08	 mov	 edx, DWORD PTR _pV$[ebp]
  0003c	d9 41 08	 fld	 DWORD PTR [ecx+8]
  0003f	d8 4a 08	 fmul	 DWORD PTR [edx+8]
  00042	de c1		 faddp	 ST(1), ST(0)
  00044	51		 push	 ecx
  00045	d9 1c 24	 fstp	 DWORD PTR [esp]
  00048	e8 00 00 00 00	 call	 _sqrtf
  0004d	83 c4 04	 add	 esp, 4

; 1240 : #else
; 1241 :     return (FLOAT) sqrt(pV->x * pV->x + pV->y * pV->y + pV->z * pV->z);
; 1242 : #endif
; 1243 : }

  00050	5f		 pop	 edi
  00051	5e		 pop	 esi
  00052	5b		 pop	 ebx
  00053	81 c4 c0 00 00
	00		 add	 esp, 192		; 000000c0H
  00059	3b ec		 cmp	 ebp, esp
  0005b	e8 00 00 00 00	 call	 __RTC_CheckEsp
  00060	8b e5		 mov	 esp, ebp
  00062	5d		 pop	 ebp
  00063	c3		 ret	 0
?D3DXVec3Length@@YAMPBUD3DXVECTOR3@@@Z ENDP		; D3DXVec3Length
_TEXT	ENDS
PUBLIC	?g_matIdent@@3UD3DXMATRIX@@A			; g_matIdent
_BSS	SEGMENT
?g_matIdent@@3UD3DXMATRIX@@A DB 040H DUP (?)		; g_matIdent
_BSS	ENDS
END
